ARM GAS  C:\Users\hh\AppData\Local\Temp\ccfq6ENc.s 			page 1


   1              		.cpu cortex-m7
   2              		.arch armv7e-m
   3              		.fpu fpv5-d16
   4              		.eabi_attribute 28, 1
   5              		.eabi_attribute 20, 1
   6              		.eabi_attribute 21, 1
   7              		.eabi_attribute 23, 3
   8              		.eabi_attribute 24, 1
   9              		.eabi_attribute 25, 1
  10              		.eabi_attribute 26, 1
  11              		.eabi_attribute 30, 1
  12              		.eabi_attribute 34, 1
  13              		.eabi_attribute 18, 4
  14              		.file	"api_msg.c"
  15              		.text
  16              	.Ltext0:
  17              		.cfi_sections	.debug_frame
  18              		.file 1 "Middlewares/Third_Party/LwIP/src/api/api_msg.c"
  19              		.section	.rodata.lwip_netconn_err_to_msg.str1.4,"aMS",%progbits,1
  20              		.align	2
  21              	.LC0:
  22 0000 4D696464 		.ascii	"Middlewares/Third_Party/LwIP/src/api/api_msg.c\000"
  22      6C657761 
  22      7265732F 
  22      54686972 
  22      645F5061 
  23 002f 00       		.align	2
  24              	.LC1:
  25 0030 756E6861 		.ascii	"unhandled error\000"
  25      6E646C65 
  25      64206572 
  25      726F7200 
  26              		.align	2
  27              	.LC2:
  28 0040 41737365 		.ascii	"Assertion \"%s\" failed at line %d in %s\012\000"
  28      7274696F 
  28      6E202225 
  28      73222066 
  28      61696C65 
  29              		.section	.text.lwip_netconn_err_to_msg,"ax",%progbits
  30              		.align	1
  31              		.syntax unified
  32              		.thumb
  33              		.thumb_func
  35              	lwip_netconn_err_to_msg:
  36              	.LVL0:
  37              	.LFB172:
   1:Middlewares/Third_Party/LwIP/src/api/api_msg.c **** /**
   2:Middlewares/Third_Party/LwIP/src/api/api_msg.c ****  * @file
   3:Middlewares/Third_Party/LwIP/src/api/api_msg.c ****  * Sequential API Internal module
   4:Middlewares/Third_Party/LwIP/src/api/api_msg.c ****  *
   5:Middlewares/Third_Party/LwIP/src/api/api_msg.c ****  */
   6:Middlewares/Third_Party/LwIP/src/api/api_msg.c **** 
   7:Middlewares/Third_Party/LwIP/src/api/api_msg.c **** /*
   8:Middlewares/Third_Party/LwIP/src/api/api_msg.c ****  * Copyright (c) 2001-2004 Swedish Institute of Computer Science.
   9:Middlewares/Third_Party/LwIP/src/api/api_msg.c ****  * All rights reserved.
  10:Middlewares/Third_Party/LwIP/src/api/api_msg.c ****  *
ARM GAS  C:\Users\hh\AppData\Local\Temp\ccfq6ENc.s 			page 2


  11:Middlewares/Third_Party/LwIP/src/api/api_msg.c ****  * Redistribution and use in source and binary forms, with or without modification,
  12:Middlewares/Third_Party/LwIP/src/api/api_msg.c ****  * are permitted provided that the following conditions are met:
  13:Middlewares/Third_Party/LwIP/src/api/api_msg.c ****  *
  14:Middlewares/Third_Party/LwIP/src/api/api_msg.c ****  * 1. Redistributions of source code must retain the above copyright notice,
  15:Middlewares/Third_Party/LwIP/src/api/api_msg.c ****  *    this list of conditions and the following disclaimer.
  16:Middlewares/Third_Party/LwIP/src/api/api_msg.c ****  * 2. Redistributions in binary form must reproduce the above copyright notice,
  17:Middlewares/Third_Party/LwIP/src/api/api_msg.c ****  *    this list of conditions and the following disclaimer in the documentation
  18:Middlewares/Third_Party/LwIP/src/api/api_msg.c ****  *    and/or other materials provided with the distribution.
  19:Middlewares/Third_Party/LwIP/src/api/api_msg.c ****  * 3. The name of the author may not be used to endorse or promote products
  20:Middlewares/Third_Party/LwIP/src/api/api_msg.c ****  *    derived from this software without specific prior written permission.
  21:Middlewares/Third_Party/LwIP/src/api/api_msg.c ****  *
  22:Middlewares/Third_Party/LwIP/src/api/api_msg.c ****  * THIS SOFTWARE IS PROVIDED BY THE AUTHOR ``AS IS'' AND ANY EXPRESS OR IMPLIED
  23:Middlewares/Third_Party/LwIP/src/api/api_msg.c ****  * WARRANTIES, INCLUDING, BUT NOT LIMITED TO, THE IMPLIED WARRANTIES OF
  24:Middlewares/Third_Party/LwIP/src/api/api_msg.c ****  * MERCHANTABILITY AND FITNESS FOR A PARTICULAR PURPOSE ARE DISCLAIMED. IN NO EVENT
  25:Middlewares/Third_Party/LwIP/src/api/api_msg.c ****  * SHALL THE AUTHOR BE LIABLE FOR ANY DIRECT, INDIRECT, INCIDENTAL, SPECIAL,
  26:Middlewares/Third_Party/LwIP/src/api/api_msg.c ****  * EXEMPLARY, OR CONSEQUENTIAL DAMAGES (INCLUDING, BUT NOT LIMITED TO, PROCUREMENT
  27:Middlewares/Third_Party/LwIP/src/api/api_msg.c ****  * OF SUBSTITUTE GOODS OR SERVICES; LOSS OF USE, DATA, OR PROFITS; OR BUSINESS
  28:Middlewares/Third_Party/LwIP/src/api/api_msg.c ****  * INTERRUPTION) HOWEVER CAUSED AND ON ANY THEORY OF LIABILITY, WHETHER IN
  29:Middlewares/Third_Party/LwIP/src/api/api_msg.c ****  * CONTRACT, STRICT LIABILITY, OR TORT (INCLUDING NEGLIGENCE OR OTHERWISE) ARISING
  30:Middlewares/Third_Party/LwIP/src/api/api_msg.c ****  * IN ANY WAY OUT OF THE USE OF THIS SOFTWARE, EVEN IF ADVISED OF THE POSSIBILITY
  31:Middlewares/Third_Party/LwIP/src/api/api_msg.c ****  * OF SUCH DAMAGE.
  32:Middlewares/Third_Party/LwIP/src/api/api_msg.c ****  *
  33:Middlewares/Third_Party/LwIP/src/api/api_msg.c ****  * This file is part of the lwIP TCP/IP stack.
  34:Middlewares/Third_Party/LwIP/src/api/api_msg.c ****  *
  35:Middlewares/Third_Party/LwIP/src/api/api_msg.c ****  * Author: Adam Dunkels <adam@sics.se>
  36:Middlewares/Third_Party/LwIP/src/api/api_msg.c ****  *
  37:Middlewares/Third_Party/LwIP/src/api/api_msg.c ****  */
  38:Middlewares/Third_Party/LwIP/src/api/api_msg.c **** 
  39:Middlewares/Third_Party/LwIP/src/api/api_msg.c **** #include "lwip/opt.h"
  40:Middlewares/Third_Party/LwIP/src/api/api_msg.c **** 
  41:Middlewares/Third_Party/LwIP/src/api/api_msg.c **** #if LWIP_NETCONN /* don't build if not configured for use in lwipopts.h */
  42:Middlewares/Third_Party/LwIP/src/api/api_msg.c **** 
  43:Middlewares/Third_Party/LwIP/src/api/api_msg.c **** #include "lwip/priv/api_msg.h"
  44:Middlewares/Third_Party/LwIP/src/api/api_msg.c **** 
  45:Middlewares/Third_Party/LwIP/src/api/api_msg.c **** #include "lwip/ip.h"
  46:Middlewares/Third_Party/LwIP/src/api/api_msg.c **** #include "lwip/ip_addr.h"
  47:Middlewares/Third_Party/LwIP/src/api/api_msg.c **** #include "lwip/udp.h"
  48:Middlewares/Third_Party/LwIP/src/api/api_msg.c **** #include "lwip/tcp.h"
  49:Middlewares/Third_Party/LwIP/src/api/api_msg.c **** #include "lwip/raw.h"
  50:Middlewares/Third_Party/LwIP/src/api/api_msg.c **** 
  51:Middlewares/Third_Party/LwIP/src/api/api_msg.c **** #include "lwip/memp.h"
  52:Middlewares/Third_Party/LwIP/src/api/api_msg.c **** #include "lwip/igmp.h"
  53:Middlewares/Third_Party/LwIP/src/api/api_msg.c **** #include "lwip/dns.h"
  54:Middlewares/Third_Party/LwIP/src/api/api_msg.c **** #include "lwip/mld6.h"
  55:Middlewares/Third_Party/LwIP/src/api/api_msg.c **** #include "lwip/priv/tcpip_priv.h"
  56:Middlewares/Third_Party/LwIP/src/api/api_msg.c **** 
  57:Middlewares/Third_Party/LwIP/src/api/api_msg.c **** #include <string.h>
  58:Middlewares/Third_Party/LwIP/src/api/api_msg.c **** 
  59:Middlewares/Third_Party/LwIP/src/api/api_msg.c **** /* netconns are polled once per second (e.g. continue write on memory error) */
  60:Middlewares/Third_Party/LwIP/src/api/api_msg.c **** #define NETCONN_TCP_POLL_INTERVAL 2
  61:Middlewares/Third_Party/LwIP/src/api/api_msg.c **** 
  62:Middlewares/Third_Party/LwIP/src/api/api_msg.c **** #define SET_NONBLOCKING_CONNECT(conn, val)  do { if (val) { \
  63:Middlewares/Third_Party/LwIP/src/api/api_msg.c ****   netconn_set_flags(conn, NETCONN_FLAG_IN_NONBLOCKING_CONNECT); \
  64:Middlewares/Third_Party/LwIP/src/api/api_msg.c **** } else { \
  65:Middlewares/Third_Party/LwIP/src/api/api_msg.c ****   netconn_clear_flags(conn, NETCONN_FLAG_IN_NONBLOCKING_CONNECT); }} while(0)
  66:Middlewares/Third_Party/LwIP/src/api/api_msg.c **** #define IN_NONBLOCKING_CONNECT(conn) netconn_is_flag_set(conn, NETCONN_FLAG_IN_NONBLOCKING_CONNECT)
  67:Middlewares/Third_Party/LwIP/src/api/api_msg.c **** 
ARM GAS  C:\Users\hh\AppData\Local\Temp\ccfq6ENc.s 			page 3


  68:Middlewares/Third_Party/LwIP/src/api/api_msg.c **** #if LWIP_NETCONN_FULLDUPLEX
  69:Middlewares/Third_Party/LwIP/src/api/api_msg.c **** #define NETCONN_MBOX_VALID(conn, mbox) (sys_mbox_valid(mbox) && ((conn->flags & NETCONN_FLAG_MBOXIN
  70:Middlewares/Third_Party/LwIP/src/api/api_msg.c **** #else
  71:Middlewares/Third_Party/LwIP/src/api/api_msg.c **** #define NETCONN_MBOX_VALID(conn, mbox) sys_mbox_valid(mbox)
  72:Middlewares/Third_Party/LwIP/src/api/api_msg.c **** #endif
  73:Middlewares/Third_Party/LwIP/src/api/api_msg.c **** 
  74:Middlewares/Third_Party/LwIP/src/api/api_msg.c **** /* forward declarations */
  75:Middlewares/Third_Party/LwIP/src/api/api_msg.c **** #if LWIP_TCP
  76:Middlewares/Third_Party/LwIP/src/api/api_msg.c **** #if LWIP_TCPIP_CORE_LOCKING
  77:Middlewares/Third_Party/LwIP/src/api/api_msg.c **** #define WRITE_DELAYED         , 1
  78:Middlewares/Third_Party/LwIP/src/api/api_msg.c **** #define WRITE_DELAYED_PARAM   , u8_t delayed
  79:Middlewares/Third_Party/LwIP/src/api/api_msg.c **** #else /* LWIP_TCPIP_CORE_LOCKING */
  80:Middlewares/Third_Party/LwIP/src/api/api_msg.c **** #define WRITE_DELAYED
  81:Middlewares/Third_Party/LwIP/src/api/api_msg.c **** #define WRITE_DELAYED_PARAM
  82:Middlewares/Third_Party/LwIP/src/api/api_msg.c **** #endif /* LWIP_TCPIP_CORE_LOCKING */
  83:Middlewares/Third_Party/LwIP/src/api/api_msg.c **** static err_t lwip_netconn_do_writemore(struct netconn *conn  WRITE_DELAYED_PARAM);
  84:Middlewares/Third_Party/LwIP/src/api/api_msg.c **** static err_t lwip_netconn_do_close_internal(struct netconn *conn  WRITE_DELAYED_PARAM);
  85:Middlewares/Third_Party/LwIP/src/api/api_msg.c **** #endif
  86:Middlewares/Third_Party/LwIP/src/api/api_msg.c **** 
  87:Middlewares/Third_Party/LwIP/src/api/api_msg.c **** static void netconn_drain(struct netconn *conn);
  88:Middlewares/Third_Party/LwIP/src/api/api_msg.c **** 
  89:Middlewares/Third_Party/LwIP/src/api/api_msg.c **** #if LWIP_TCPIP_CORE_LOCKING
  90:Middlewares/Third_Party/LwIP/src/api/api_msg.c **** #define TCPIP_APIMSG_ACK(m)
  91:Middlewares/Third_Party/LwIP/src/api/api_msg.c **** #else /* LWIP_TCPIP_CORE_LOCKING */
  92:Middlewares/Third_Party/LwIP/src/api/api_msg.c **** #define TCPIP_APIMSG_ACK(m)   do { sys_sem_signal(LWIP_API_MSG_SEM(m)); } while(0)
  93:Middlewares/Third_Party/LwIP/src/api/api_msg.c **** #endif /* LWIP_TCPIP_CORE_LOCKING */
  94:Middlewares/Third_Party/LwIP/src/api/api_msg.c **** 
  95:Middlewares/Third_Party/LwIP/src/api/api_msg.c **** #if LWIP_NETCONN_FULLDUPLEX
  96:Middlewares/Third_Party/LwIP/src/api/api_msg.c **** static const u8_t netconn_deleted = 0;
  97:Middlewares/Third_Party/LwIP/src/api/api_msg.c **** 
  98:Middlewares/Third_Party/LwIP/src/api/api_msg.c **** int
  99:Middlewares/Third_Party/LwIP/src/api/api_msg.c **** lwip_netconn_is_deallocated_msg(void *msg)
 100:Middlewares/Third_Party/LwIP/src/api/api_msg.c **** {
 101:Middlewares/Third_Party/LwIP/src/api/api_msg.c ****   if (msg == &netconn_deleted) {
 102:Middlewares/Third_Party/LwIP/src/api/api_msg.c ****     return 1;
 103:Middlewares/Third_Party/LwIP/src/api/api_msg.c ****   }
 104:Middlewares/Third_Party/LwIP/src/api/api_msg.c ****   return 0;
 105:Middlewares/Third_Party/LwIP/src/api/api_msg.c **** }
 106:Middlewares/Third_Party/LwIP/src/api/api_msg.c **** #endif /* LWIP_NETCONN_FULLDUPLEX */
 107:Middlewares/Third_Party/LwIP/src/api/api_msg.c **** 
 108:Middlewares/Third_Party/LwIP/src/api/api_msg.c **** #if LWIP_TCP
 109:Middlewares/Third_Party/LwIP/src/api/api_msg.c **** static const u8_t netconn_aborted = 0;
 110:Middlewares/Third_Party/LwIP/src/api/api_msg.c **** static const u8_t netconn_reset = 0;
 111:Middlewares/Third_Party/LwIP/src/api/api_msg.c **** static const u8_t netconn_closed = 0;
 112:Middlewares/Third_Party/LwIP/src/api/api_msg.c **** 
 113:Middlewares/Third_Party/LwIP/src/api/api_msg.c **** /** Translate an error to a unique void* passed via an mbox */
 114:Middlewares/Third_Party/LwIP/src/api/api_msg.c **** static void *
 115:Middlewares/Third_Party/LwIP/src/api/api_msg.c **** lwip_netconn_err_to_msg(err_t err)
 116:Middlewares/Third_Party/LwIP/src/api/api_msg.c **** {
  38              		.loc 1 116 1 view -0
  39              		.cfi_startproc
  40              		@ args = 0, pretend = 0, frame = 0
  41              		@ frame_needed = 0, uses_anonymous_args = 0
 117:Middlewares/Third_Party/LwIP/src/api/api_msg.c ****   switch (err) {
  42              		.loc 1 117 3 view .LVU1
  43 0000 10F10E0F 		cmn	r0, #14
  44 0004 10D0     		beq	.L3
ARM GAS  C:\Users\hh\AppData\Local\Temp\ccfq6ENc.s 			page 4


  45 0006 10F10D0F 		cmn	r0, #13
  46 000a 0FD0     		beq	.L4
  47 000c 10F10F0F 		cmn	r0, #15
  48 0010 0ED0     		beq	.L5
 118:Middlewares/Third_Party/LwIP/src/api/api_msg.c ****     case ERR_ABRT:
 119:Middlewares/Third_Party/LwIP/src/api/api_msg.c ****       return LWIP_CONST_CAST(void *, &netconn_aborted);
 120:Middlewares/Third_Party/LwIP/src/api/api_msg.c ****     case ERR_RST:
 121:Middlewares/Third_Party/LwIP/src/api/api_msg.c ****       return LWIP_CONST_CAST(void *, &netconn_reset);
 122:Middlewares/Third_Party/LwIP/src/api/api_msg.c ****     case ERR_CLSD:
 123:Middlewares/Third_Party/LwIP/src/api/api_msg.c ****       return LWIP_CONST_CAST(void *, &netconn_closed);
 124:Middlewares/Third_Party/LwIP/src/api/api_msg.c ****     default:
 125:Middlewares/Third_Party/LwIP/src/api/api_msg.c ****       LWIP_ASSERT("unhandled error", err == ERR_OK);
  49              		.loc 1 125 7 view .LVU2
  50              		.loc 1 125 7 view .LVU3
  51 0012 00B9     		cbnz	r0, .L11
 126:Middlewares/Third_Party/LwIP/src/api/api_msg.c ****       return NULL;
 127:Middlewares/Third_Party/LwIP/src/api/api_msg.c ****   }
 128:Middlewares/Third_Party/LwIP/src/api/api_msg.c **** }
  52              		.loc 1 128 1 is_stmt 0 view .LVU4
  53 0014 7047     		bx	lr
  54              	.L11:
 116:Middlewares/Third_Party/LwIP/src/api/api_msg.c ****   switch (err) {
  55              		.loc 1 116 1 view .LVU5
  56 0016 08B5     		push	{r3, lr}
  57              	.LCFI0:
  58              		.cfi_def_cfa_offset 8
  59              		.cfi_offset 3, -8
  60              		.cfi_offset 14, -4
 125:Middlewares/Third_Party/LwIP/src/api/api_msg.c ****       return NULL;
  61              		.loc 1 125 7 is_stmt 1 discriminator 1 view .LVU6
 125:Middlewares/Third_Party/LwIP/src/api/api_msg.c ****       return NULL;
  62              		.loc 1 125 7 discriminator 1 view .LVU7
  63 0018 064B     		ldr	r3, .L12
  64 001a 7D22     		movs	r2, #125
  65 001c 0649     		ldr	r1, .L12+4
  66 001e 0748     		ldr	r0, .L12+8
  67              	.LVL1:
 125:Middlewares/Third_Party/LwIP/src/api/api_msg.c ****       return NULL;
  68              		.loc 1 125 7 is_stmt 0 discriminator 1 view .LVU8
  69 0020 FFF7FEFF 		bl	printf
  70              	.LVL2:
 126:Middlewares/Third_Party/LwIP/src/api/api_msg.c ****       return NULL;
  71              		.loc 1 126 14 view .LVU9
  72 0024 0020     		movs	r0, #0
  73              		.loc 1 128 1 view .LVU10
  74 0026 08BD     		pop	{r3, pc}
  75              	.LVL3:
  76              	.L3:
  77              	.LCFI1:
  78              		.cfi_def_cfa_offset 0
  79              		.cfi_restore 3
  80              		.cfi_restore 14
 121:Middlewares/Third_Party/LwIP/src/api/api_msg.c ****     case ERR_CLSD:
  81              		.loc 1 121 14 view .LVU11
  82 0028 0548     		ldr	r0, .L12+12
  83              	.LVL4:
 121:Middlewares/Third_Party/LwIP/src/api/api_msg.c ****     case ERR_CLSD:
ARM GAS  C:\Users\hh\AppData\Local\Temp\ccfq6ENc.s 			page 5


  84              		.loc 1 121 14 view .LVU12
  85 002a 7047     		bx	lr
  86              	.LVL5:
  87              	.L4:
 117:Middlewares/Third_Party/LwIP/src/api/api_msg.c ****     case ERR_ABRT:
  88              		.loc 1 117 3 view .LVU13
  89 002c 0548     		ldr	r0, .L12+16
  90              	.LVL6:
 117:Middlewares/Third_Party/LwIP/src/api/api_msg.c ****     case ERR_ABRT:
  91              		.loc 1 117 3 view .LVU14
  92 002e 7047     		bx	lr
  93              	.LVL7:
  94              	.L5:
 123:Middlewares/Third_Party/LwIP/src/api/api_msg.c ****     default:
  95              		.loc 1 123 14 view .LVU15
  96 0030 0548     		ldr	r0, .L12+20
  97              	.LVL8:
 123:Middlewares/Third_Party/LwIP/src/api/api_msg.c ****     default:
  98              		.loc 1 123 14 view .LVU16
  99 0032 7047     		bx	lr
 100              	.L13:
 101              		.align	2
 102              	.L12:
 103 0034 00000000 		.word	.LC0
 104 0038 30000000 		.word	.LC1
 105 003c 40000000 		.word	.LC2
 106 0040 00000000 		.word	netconn_reset
 107 0044 00000000 		.word	netconn_aborted
 108 0048 00000000 		.word	netconn_closed
 109              		.cfi_endproc
 110              	.LFE172:
 112              		.section	.text.setup_tcp,"ax",%progbits
 113              		.align	1
 114              		.syntax unified
 115              		.thumb
 116              		.thumb_func
 118              	setup_tcp:
 119              	.LVL9:
 120              	.LFB178:
 129:Middlewares/Third_Party/LwIP/src/api/api_msg.c **** 
 130:Middlewares/Third_Party/LwIP/src/api/api_msg.c **** int
 131:Middlewares/Third_Party/LwIP/src/api/api_msg.c **** lwip_netconn_is_err_msg(void *msg, err_t *err)
 132:Middlewares/Third_Party/LwIP/src/api/api_msg.c **** {
 133:Middlewares/Third_Party/LwIP/src/api/api_msg.c ****   LWIP_ASSERT("err != NULL", err != NULL);
 134:Middlewares/Third_Party/LwIP/src/api/api_msg.c **** 
 135:Middlewares/Third_Party/LwIP/src/api/api_msg.c ****   if (msg == &netconn_aborted) {
 136:Middlewares/Third_Party/LwIP/src/api/api_msg.c ****     *err = ERR_ABRT;
 137:Middlewares/Third_Party/LwIP/src/api/api_msg.c ****     return 1;
 138:Middlewares/Third_Party/LwIP/src/api/api_msg.c ****   } else if (msg == &netconn_reset) {
 139:Middlewares/Third_Party/LwIP/src/api/api_msg.c ****     *err = ERR_RST;
 140:Middlewares/Third_Party/LwIP/src/api/api_msg.c ****     return 1;
 141:Middlewares/Third_Party/LwIP/src/api/api_msg.c ****   } else if (msg == &netconn_closed) {
 142:Middlewares/Third_Party/LwIP/src/api/api_msg.c ****     *err = ERR_CLSD;
 143:Middlewares/Third_Party/LwIP/src/api/api_msg.c ****     return 1;
 144:Middlewares/Third_Party/LwIP/src/api/api_msg.c ****   }
 145:Middlewares/Third_Party/LwIP/src/api/api_msg.c ****   return 0;
 146:Middlewares/Third_Party/LwIP/src/api/api_msg.c **** }
ARM GAS  C:\Users\hh\AppData\Local\Temp\ccfq6ENc.s 			page 6


 147:Middlewares/Third_Party/LwIP/src/api/api_msg.c **** #endif /* LWIP_TCP */
 148:Middlewares/Third_Party/LwIP/src/api/api_msg.c **** 
 149:Middlewares/Third_Party/LwIP/src/api/api_msg.c **** 
 150:Middlewares/Third_Party/LwIP/src/api/api_msg.c **** #if LWIP_RAW
 151:Middlewares/Third_Party/LwIP/src/api/api_msg.c **** /**
 152:Middlewares/Third_Party/LwIP/src/api/api_msg.c ****  * Receive callback function for RAW netconns.
 153:Middlewares/Third_Party/LwIP/src/api/api_msg.c ****  * Doesn't 'eat' the packet, only copies it and sends it to
 154:Middlewares/Third_Party/LwIP/src/api/api_msg.c ****  * conn->recvmbox
 155:Middlewares/Third_Party/LwIP/src/api/api_msg.c ****  *
 156:Middlewares/Third_Party/LwIP/src/api/api_msg.c ****  * @see raw.h (struct raw_pcb.recv) for parameters and return value
 157:Middlewares/Third_Party/LwIP/src/api/api_msg.c ****  */
 158:Middlewares/Third_Party/LwIP/src/api/api_msg.c **** static u8_t
 159:Middlewares/Third_Party/LwIP/src/api/api_msg.c **** recv_raw(void *arg, struct raw_pcb *pcb, struct pbuf *p,
 160:Middlewares/Third_Party/LwIP/src/api/api_msg.c ****          const ip_addr_t *addr)
 161:Middlewares/Third_Party/LwIP/src/api/api_msg.c **** {
 162:Middlewares/Third_Party/LwIP/src/api/api_msg.c ****   struct pbuf *q;
 163:Middlewares/Third_Party/LwIP/src/api/api_msg.c ****   struct netbuf *buf;
 164:Middlewares/Third_Party/LwIP/src/api/api_msg.c ****   struct netconn *conn;
 165:Middlewares/Third_Party/LwIP/src/api/api_msg.c **** 
 166:Middlewares/Third_Party/LwIP/src/api/api_msg.c ****   LWIP_UNUSED_ARG(addr);
 167:Middlewares/Third_Party/LwIP/src/api/api_msg.c ****   conn = (struct netconn *)arg;
 168:Middlewares/Third_Party/LwIP/src/api/api_msg.c **** 
 169:Middlewares/Third_Party/LwIP/src/api/api_msg.c ****   if ((conn != NULL) && NETCONN_MBOX_VALID(conn, &conn->recvmbox)) {
 170:Middlewares/Third_Party/LwIP/src/api/api_msg.c **** #if LWIP_SO_RCVBUF
 171:Middlewares/Third_Party/LwIP/src/api/api_msg.c ****     int recv_avail;
 172:Middlewares/Third_Party/LwIP/src/api/api_msg.c ****     SYS_ARCH_GET(conn->recv_avail, recv_avail);
 173:Middlewares/Third_Party/LwIP/src/api/api_msg.c ****     if ((recv_avail + (int)(p->tot_len)) > conn->recv_bufsize) {
 174:Middlewares/Third_Party/LwIP/src/api/api_msg.c ****       return 0;
 175:Middlewares/Third_Party/LwIP/src/api/api_msg.c ****     }
 176:Middlewares/Third_Party/LwIP/src/api/api_msg.c **** #endif /* LWIP_SO_RCVBUF */
 177:Middlewares/Third_Party/LwIP/src/api/api_msg.c ****     /* copy the whole packet into new pbufs */
 178:Middlewares/Third_Party/LwIP/src/api/api_msg.c ****     q = pbuf_clone(PBUF_RAW, PBUF_RAM, p);
 179:Middlewares/Third_Party/LwIP/src/api/api_msg.c ****     if (q != NULL) {
 180:Middlewares/Third_Party/LwIP/src/api/api_msg.c ****       u16_t len;
 181:Middlewares/Third_Party/LwIP/src/api/api_msg.c ****       buf = (struct netbuf *)memp_malloc(MEMP_NETBUF);
 182:Middlewares/Third_Party/LwIP/src/api/api_msg.c ****       if (buf == NULL) {
 183:Middlewares/Third_Party/LwIP/src/api/api_msg.c ****         pbuf_free(q);
 184:Middlewares/Third_Party/LwIP/src/api/api_msg.c ****         return 0;
 185:Middlewares/Third_Party/LwIP/src/api/api_msg.c ****       }
 186:Middlewares/Third_Party/LwIP/src/api/api_msg.c **** 
 187:Middlewares/Third_Party/LwIP/src/api/api_msg.c ****       buf->p = q;
 188:Middlewares/Third_Party/LwIP/src/api/api_msg.c ****       buf->ptr = q;
 189:Middlewares/Third_Party/LwIP/src/api/api_msg.c ****       ip_addr_copy(buf->addr, *ip_current_src_addr());
 190:Middlewares/Third_Party/LwIP/src/api/api_msg.c ****       buf->port = pcb->protocol;
 191:Middlewares/Third_Party/LwIP/src/api/api_msg.c **** 
 192:Middlewares/Third_Party/LwIP/src/api/api_msg.c ****       len = q->tot_len;
 193:Middlewares/Third_Party/LwIP/src/api/api_msg.c ****       if (sys_mbox_trypost(&conn->recvmbox, buf) != ERR_OK) {
 194:Middlewares/Third_Party/LwIP/src/api/api_msg.c ****         netbuf_delete(buf);
 195:Middlewares/Third_Party/LwIP/src/api/api_msg.c ****         return 0;
 196:Middlewares/Third_Party/LwIP/src/api/api_msg.c ****       } else {
 197:Middlewares/Third_Party/LwIP/src/api/api_msg.c **** #if LWIP_SO_RCVBUF
 198:Middlewares/Third_Party/LwIP/src/api/api_msg.c ****         SYS_ARCH_INC(conn->recv_avail, len);
 199:Middlewares/Third_Party/LwIP/src/api/api_msg.c **** #endif /* LWIP_SO_RCVBUF */
 200:Middlewares/Third_Party/LwIP/src/api/api_msg.c ****         /* Register event with callback */
 201:Middlewares/Third_Party/LwIP/src/api/api_msg.c ****         API_EVENT(conn, NETCONN_EVT_RCVPLUS, len);
 202:Middlewares/Third_Party/LwIP/src/api/api_msg.c ****       }
 203:Middlewares/Third_Party/LwIP/src/api/api_msg.c ****     }
ARM GAS  C:\Users\hh\AppData\Local\Temp\ccfq6ENc.s 			page 7


 204:Middlewares/Third_Party/LwIP/src/api/api_msg.c ****   }
 205:Middlewares/Third_Party/LwIP/src/api/api_msg.c **** 
 206:Middlewares/Third_Party/LwIP/src/api/api_msg.c ****   return 0; /* do not eat the packet */
 207:Middlewares/Third_Party/LwIP/src/api/api_msg.c **** }
 208:Middlewares/Third_Party/LwIP/src/api/api_msg.c **** #endif /* LWIP_RAW*/
 209:Middlewares/Third_Party/LwIP/src/api/api_msg.c **** 
 210:Middlewares/Third_Party/LwIP/src/api/api_msg.c **** #if LWIP_UDP
 211:Middlewares/Third_Party/LwIP/src/api/api_msg.c **** /**
 212:Middlewares/Third_Party/LwIP/src/api/api_msg.c ****  * Receive callback function for UDP netconns.
 213:Middlewares/Third_Party/LwIP/src/api/api_msg.c ****  * Posts the packet to conn->recvmbox or deletes it on memory error.
 214:Middlewares/Third_Party/LwIP/src/api/api_msg.c ****  *
 215:Middlewares/Third_Party/LwIP/src/api/api_msg.c ****  * @see udp.h (struct udp_pcb.recv) for parameters
 216:Middlewares/Third_Party/LwIP/src/api/api_msg.c ****  */
 217:Middlewares/Third_Party/LwIP/src/api/api_msg.c **** static void
 218:Middlewares/Third_Party/LwIP/src/api/api_msg.c **** recv_udp(void *arg, struct udp_pcb *pcb, struct pbuf *p,
 219:Middlewares/Third_Party/LwIP/src/api/api_msg.c ****          const ip_addr_t *addr, u16_t port)
 220:Middlewares/Third_Party/LwIP/src/api/api_msg.c **** {
 221:Middlewares/Third_Party/LwIP/src/api/api_msg.c ****   struct netbuf *buf;
 222:Middlewares/Third_Party/LwIP/src/api/api_msg.c ****   struct netconn *conn;
 223:Middlewares/Third_Party/LwIP/src/api/api_msg.c ****   u16_t len;
 224:Middlewares/Third_Party/LwIP/src/api/api_msg.c ****   err_t err;
 225:Middlewares/Third_Party/LwIP/src/api/api_msg.c **** #if LWIP_SO_RCVBUF
 226:Middlewares/Third_Party/LwIP/src/api/api_msg.c ****   int recv_avail;
 227:Middlewares/Third_Party/LwIP/src/api/api_msg.c **** #endif /* LWIP_SO_RCVBUF */
 228:Middlewares/Third_Party/LwIP/src/api/api_msg.c **** 
 229:Middlewares/Third_Party/LwIP/src/api/api_msg.c ****   LWIP_UNUSED_ARG(pcb); /* only used for asserts... */
 230:Middlewares/Third_Party/LwIP/src/api/api_msg.c ****   LWIP_ASSERT("recv_udp must have a pcb argument", pcb != NULL);
 231:Middlewares/Third_Party/LwIP/src/api/api_msg.c ****   LWIP_ASSERT("recv_udp must have an argument", arg != NULL);
 232:Middlewares/Third_Party/LwIP/src/api/api_msg.c ****   conn = (struct netconn *)arg;
 233:Middlewares/Third_Party/LwIP/src/api/api_msg.c **** 
 234:Middlewares/Third_Party/LwIP/src/api/api_msg.c ****   if (conn == NULL) {
 235:Middlewares/Third_Party/LwIP/src/api/api_msg.c ****     pbuf_free(p);
 236:Middlewares/Third_Party/LwIP/src/api/api_msg.c ****     return;
 237:Middlewares/Third_Party/LwIP/src/api/api_msg.c ****   }
 238:Middlewares/Third_Party/LwIP/src/api/api_msg.c **** 
 239:Middlewares/Third_Party/LwIP/src/api/api_msg.c ****   LWIP_ASSERT("recv_udp: recv for wrong pcb!", conn->pcb.udp == pcb);
 240:Middlewares/Third_Party/LwIP/src/api/api_msg.c **** 
 241:Middlewares/Third_Party/LwIP/src/api/api_msg.c **** #if LWIP_SO_RCVBUF
 242:Middlewares/Third_Party/LwIP/src/api/api_msg.c ****   SYS_ARCH_GET(conn->recv_avail, recv_avail);
 243:Middlewares/Third_Party/LwIP/src/api/api_msg.c ****   if (!NETCONN_MBOX_VALID(conn, &conn->recvmbox) ||
 244:Middlewares/Third_Party/LwIP/src/api/api_msg.c ****       ((recv_avail + (int)(p->tot_len)) > conn->recv_bufsize)) {
 245:Middlewares/Third_Party/LwIP/src/api/api_msg.c **** #else  /* LWIP_SO_RCVBUF */
 246:Middlewares/Third_Party/LwIP/src/api/api_msg.c ****   if (!NETCONN_MBOX_VALID(conn, &conn->recvmbox)) {
 247:Middlewares/Third_Party/LwIP/src/api/api_msg.c **** #endif /* LWIP_SO_RCVBUF */
 248:Middlewares/Third_Party/LwIP/src/api/api_msg.c ****     pbuf_free(p);
 249:Middlewares/Third_Party/LwIP/src/api/api_msg.c ****     return;
 250:Middlewares/Third_Party/LwIP/src/api/api_msg.c ****   }
 251:Middlewares/Third_Party/LwIP/src/api/api_msg.c **** 
 252:Middlewares/Third_Party/LwIP/src/api/api_msg.c ****   buf = (struct netbuf *)memp_malloc(MEMP_NETBUF);
 253:Middlewares/Third_Party/LwIP/src/api/api_msg.c ****   if (buf == NULL) {
 254:Middlewares/Third_Party/LwIP/src/api/api_msg.c ****     pbuf_free(p);
 255:Middlewares/Third_Party/LwIP/src/api/api_msg.c ****     return;
 256:Middlewares/Third_Party/LwIP/src/api/api_msg.c ****   } else {
 257:Middlewares/Third_Party/LwIP/src/api/api_msg.c ****     buf->p = p;
 258:Middlewares/Third_Party/LwIP/src/api/api_msg.c ****     buf->ptr = p;
 259:Middlewares/Third_Party/LwIP/src/api/api_msg.c ****     ip_addr_set(&buf->addr, addr);
 260:Middlewares/Third_Party/LwIP/src/api/api_msg.c ****     buf->port = port;
ARM GAS  C:\Users\hh\AppData\Local\Temp\ccfq6ENc.s 			page 8


 261:Middlewares/Third_Party/LwIP/src/api/api_msg.c **** #if LWIP_NETBUF_RECVINFO
 262:Middlewares/Third_Party/LwIP/src/api/api_msg.c ****     if (conn->flags & NETCONN_FLAG_PKTINFO) {
 263:Middlewares/Third_Party/LwIP/src/api/api_msg.c ****       /* get the UDP header - always in the first pbuf, ensured by udp_input */
 264:Middlewares/Third_Party/LwIP/src/api/api_msg.c ****       const struct udp_hdr *udphdr = (const struct udp_hdr *)ip_next_header_ptr();
 265:Middlewares/Third_Party/LwIP/src/api/api_msg.c ****       buf->flags = NETBUF_FLAG_DESTADDR;
 266:Middlewares/Third_Party/LwIP/src/api/api_msg.c ****       ip_addr_set(&buf->toaddr, ip_current_dest_addr());
 267:Middlewares/Third_Party/LwIP/src/api/api_msg.c ****       buf->toport_chksum = udphdr->dest;
 268:Middlewares/Third_Party/LwIP/src/api/api_msg.c ****     }
 269:Middlewares/Third_Party/LwIP/src/api/api_msg.c **** #endif /* LWIP_NETBUF_RECVINFO */
 270:Middlewares/Third_Party/LwIP/src/api/api_msg.c ****   }
 271:Middlewares/Third_Party/LwIP/src/api/api_msg.c **** 
 272:Middlewares/Third_Party/LwIP/src/api/api_msg.c ****   len = p->tot_len;
 273:Middlewares/Third_Party/LwIP/src/api/api_msg.c ****   err = sys_mbox_trypost(&conn->recvmbox, buf);
 274:Middlewares/Third_Party/LwIP/src/api/api_msg.c ****   if (err != ERR_OK) {
 275:Middlewares/Third_Party/LwIP/src/api/api_msg.c ****     netbuf_delete(buf);
 276:Middlewares/Third_Party/LwIP/src/api/api_msg.c ****     LWIP_DEBUGF(API_MSG_DEBUG, ("recv_udp: sys_mbox_trypost failed, err=%d\n", err));
 277:Middlewares/Third_Party/LwIP/src/api/api_msg.c ****     return;
 278:Middlewares/Third_Party/LwIP/src/api/api_msg.c ****   } else {
 279:Middlewares/Third_Party/LwIP/src/api/api_msg.c **** #if LWIP_SO_RCVBUF
 280:Middlewares/Third_Party/LwIP/src/api/api_msg.c ****     SYS_ARCH_INC(conn->recv_avail, len);
 281:Middlewares/Third_Party/LwIP/src/api/api_msg.c **** #endif /* LWIP_SO_RCVBUF */
 282:Middlewares/Third_Party/LwIP/src/api/api_msg.c ****     /* Register event with callback */
 283:Middlewares/Third_Party/LwIP/src/api/api_msg.c ****     API_EVENT(conn, NETCONN_EVT_RCVPLUS, len);
 284:Middlewares/Third_Party/LwIP/src/api/api_msg.c ****   }
 285:Middlewares/Third_Party/LwIP/src/api/api_msg.c **** }
 286:Middlewares/Third_Party/LwIP/src/api/api_msg.c **** #endif /* LWIP_UDP */
 287:Middlewares/Third_Party/LwIP/src/api/api_msg.c **** 
 288:Middlewares/Third_Party/LwIP/src/api/api_msg.c **** #if LWIP_TCP
 289:Middlewares/Third_Party/LwIP/src/api/api_msg.c **** /**
 290:Middlewares/Third_Party/LwIP/src/api/api_msg.c ****  * Receive callback function for TCP netconns.
 291:Middlewares/Third_Party/LwIP/src/api/api_msg.c ****  * Posts the packet to conn->recvmbox, but doesn't delete it on errors.
 292:Middlewares/Third_Party/LwIP/src/api/api_msg.c ****  *
 293:Middlewares/Third_Party/LwIP/src/api/api_msg.c ****  * @see tcp.h (struct tcp_pcb.recv) for parameters and return value
 294:Middlewares/Third_Party/LwIP/src/api/api_msg.c ****  */
 295:Middlewares/Third_Party/LwIP/src/api/api_msg.c **** static err_t
 296:Middlewares/Third_Party/LwIP/src/api/api_msg.c **** recv_tcp(void *arg, struct tcp_pcb *pcb, struct pbuf *p, err_t err)
 297:Middlewares/Third_Party/LwIP/src/api/api_msg.c **** {
 298:Middlewares/Third_Party/LwIP/src/api/api_msg.c ****   struct netconn *conn;
 299:Middlewares/Third_Party/LwIP/src/api/api_msg.c ****   u16_t len;
 300:Middlewares/Third_Party/LwIP/src/api/api_msg.c ****   void *msg;
 301:Middlewares/Third_Party/LwIP/src/api/api_msg.c **** 
 302:Middlewares/Third_Party/LwIP/src/api/api_msg.c ****   LWIP_UNUSED_ARG(pcb);
 303:Middlewares/Third_Party/LwIP/src/api/api_msg.c ****   LWIP_ASSERT("recv_tcp must have a pcb argument", pcb != NULL);
 304:Middlewares/Third_Party/LwIP/src/api/api_msg.c ****   LWIP_ASSERT("recv_tcp must have an argument", arg != NULL);
 305:Middlewares/Third_Party/LwIP/src/api/api_msg.c ****   LWIP_ASSERT("err != ERR_OK unhandled", err == ERR_OK);
 306:Middlewares/Third_Party/LwIP/src/api/api_msg.c ****   LWIP_UNUSED_ARG(err); /* for LWIP_NOASSERT */
 307:Middlewares/Third_Party/LwIP/src/api/api_msg.c ****   conn = (struct netconn *)arg;
 308:Middlewares/Third_Party/LwIP/src/api/api_msg.c **** 
 309:Middlewares/Third_Party/LwIP/src/api/api_msg.c ****   if (conn == NULL) {
 310:Middlewares/Third_Party/LwIP/src/api/api_msg.c ****     return ERR_VAL;
 311:Middlewares/Third_Party/LwIP/src/api/api_msg.c ****   }
 312:Middlewares/Third_Party/LwIP/src/api/api_msg.c ****   LWIP_ASSERT("recv_tcp: recv for wrong pcb!", conn->pcb.tcp == pcb);
 313:Middlewares/Third_Party/LwIP/src/api/api_msg.c **** 
 314:Middlewares/Third_Party/LwIP/src/api/api_msg.c ****   if (!NETCONN_MBOX_VALID(conn, &conn->recvmbox)) {
 315:Middlewares/Third_Party/LwIP/src/api/api_msg.c ****     /* recvmbox already deleted */
 316:Middlewares/Third_Party/LwIP/src/api/api_msg.c ****     if (p != NULL) {
 317:Middlewares/Third_Party/LwIP/src/api/api_msg.c ****       tcp_recved(pcb, p->tot_len);
ARM GAS  C:\Users\hh\AppData\Local\Temp\ccfq6ENc.s 			page 9


 318:Middlewares/Third_Party/LwIP/src/api/api_msg.c ****       pbuf_free(p);
 319:Middlewares/Third_Party/LwIP/src/api/api_msg.c ****     }
 320:Middlewares/Third_Party/LwIP/src/api/api_msg.c ****     return ERR_OK;
 321:Middlewares/Third_Party/LwIP/src/api/api_msg.c ****   }
 322:Middlewares/Third_Party/LwIP/src/api/api_msg.c ****   /* Unlike for UDP or RAW pcbs, don't check for available space
 323:Middlewares/Third_Party/LwIP/src/api/api_msg.c ****      using recv_avail since that could break the connection
 324:Middlewares/Third_Party/LwIP/src/api/api_msg.c ****      (data is already ACKed) */
 325:Middlewares/Third_Party/LwIP/src/api/api_msg.c **** 
 326:Middlewares/Third_Party/LwIP/src/api/api_msg.c ****   if (p != NULL) {
 327:Middlewares/Third_Party/LwIP/src/api/api_msg.c ****     msg = p;
 328:Middlewares/Third_Party/LwIP/src/api/api_msg.c ****     len = p->tot_len;
 329:Middlewares/Third_Party/LwIP/src/api/api_msg.c ****   } else {
 330:Middlewares/Third_Party/LwIP/src/api/api_msg.c ****     msg = LWIP_CONST_CAST(void *, &netconn_closed);
 331:Middlewares/Third_Party/LwIP/src/api/api_msg.c ****     len = 0;
 332:Middlewares/Third_Party/LwIP/src/api/api_msg.c ****   }
 333:Middlewares/Third_Party/LwIP/src/api/api_msg.c **** 
 334:Middlewares/Third_Party/LwIP/src/api/api_msg.c ****   if (sys_mbox_trypost(&conn->recvmbox, msg) != ERR_OK) {
 335:Middlewares/Third_Party/LwIP/src/api/api_msg.c ****     /* don't deallocate p: it is presented to us later again from tcp_fasttmr! */
 336:Middlewares/Third_Party/LwIP/src/api/api_msg.c ****     return ERR_MEM;
 337:Middlewares/Third_Party/LwIP/src/api/api_msg.c ****   } else {
 338:Middlewares/Third_Party/LwIP/src/api/api_msg.c **** #if LWIP_SO_RCVBUF
 339:Middlewares/Third_Party/LwIP/src/api/api_msg.c ****     SYS_ARCH_INC(conn->recv_avail, len);
 340:Middlewares/Third_Party/LwIP/src/api/api_msg.c **** #endif /* LWIP_SO_RCVBUF */
 341:Middlewares/Third_Party/LwIP/src/api/api_msg.c ****     /* Register event with callback */
 342:Middlewares/Third_Party/LwIP/src/api/api_msg.c ****     API_EVENT(conn, NETCONN_EVT_RCVPLUS, len);
 343:Middlewares/Third_Party/LwIP/src/api/api_msg.c ****   }
 344:Middlewares/Third_Party/LwIP/src/api/api_msg.c **** 
 345:Middlewares/Third_Party/LwIP/src/api/api_msg.c ****   return ERR_OK;
 346:Middlewares/Third_Party/LwIP/src/api/api_msg.c **** }
 347:Middlewares/Third_Party/LwIP/src/api/api_msg.c **** 
 348:Middlewares/Third_Party/LwIP/src/api/api_msg.c **** /**
 349:Middlewares/Third_Party/LwIP/src/api/api_msg.c ****  * Poll callback function for TCP netconns.
 350:Middlewares/Third_Party/LwIP/src/api/api_msg.c ****  * Wakes up an application thread that waits for a connection to close
 351:Middlewares/Third_Party/LwIP/src/api/api_msg.c ****  * or data to be sent. The application thread then takes the
 352:Middlewares/Third_Party/LwIP/src/api/api_msg.c ****  * appropriate action to go on.
 353:Middlewares/Third_Party/LwIP/src/api/api_msg.c ****  *
 354:Middlewares/Third_Party/LwIP/src/api/api_msg.c ****  * Signals the conn->sem.
 355:Middlewares/Third_Party/LwIP/src/api/api_msg.c ****  * netconn_close waits for conn->sem if closing failed.
 356:Middlewares/Third_Party/LwIP/src/api/api_msg.c ****  *
 357:Middlewares/Third_Party/LwIP/src/api/api_msg.c ****  * @see tcp.h (struct tcp_pcb.poll) for parameters and return value
 358:Middlewares/Third_Party/LwIP/src/api/api_msg.c ****  */
 359:Middlewares/Third_Party/LwIP/src/api/api_msg.c **** static err_t
 360:Middlewares/Third_Party/LwIP/src/api/api_msg.c **** poll_tcp(void *arg, struct tcp_pcb *pcb)
 361:Middlewares/Third_Party/LwIP/src/api/api_msg.c **** {
 362:Middlewares/Third_Party/LwIP/src/api/api_msg.c ****   struct netconn *conn = (struct netconn *)arg;
 363:Middlewares/Third_Party/LwIP/src/api/api_msg.c **** 
 364:Middlewares/Third_Party/LwIP/src/api/api_msg.c ****   LWIP_UNUSED_ARG(pcb);
 365:Middlewares/Third_Party/LwIP/src/api/api_msg.c ****   LWIP_ASSERT("conn != NULL", (conn != NULL));
 366:Middlewares/Third_Party/LwIP/src/api/api_msg.c **** 
 367:Middlewares/Third_Party/LwIP/src/api/api_msg.c ****   if (conn->state == NETCONN_WRITE) {
 368:Middlewares/Third_Party/LwIP/src/api/api_msg.c ****     lwip_netconn_do_writemore(conn  WRITE_DELAYED);
 369:Middlewares/Third_Party/LwIP/src/api/api_msg.c ****   } else if (conn->state == NETCONN_CLOSE) {
 370:Middlewares/Third_Party/LwIP/src/api/api_msg.c **** #if !LWIP_SO_SNDTIMEO && !LWIP_SO_LINGER
 371:Middlewares/Third_Party/LwIP/src/api/api_msg.c ****     if (conn->current_msg && conn->current_msg->msg.sd.polls_left) {
 372:Middlewares/Third_Party/LwIP/src/api/api_msg.c ****       conn->current_msg->msg.sd.polls_left--;
 373:Middlewares/Third_Party/LwIP/src/api/api_msg.c ****     }
 374:Middlewares/Third_Party/LwIP/src/api/api_msg.c **** #endif /* !LWIP_SO_SNDTIMEO && !LWIP_SO_LINGER */
ARM GAS  C:\Users\hh\AppData\Local\Temp\ccfq6ENc.s 			page 10


 375:Middlewares/Third_Party/LwIP/src/api/api_msg.c ****     lwip_netconn_do_close_internal(conn  WRITE_DELAYED);
 376:Middlewares/Third_Party/LwIP/src/api/api_msg.c ****   }
 377:Middlewares/Third_Party/LwIP/src/api/api_msg.c ****   /* @todo: implement connect timeout here? */
 378:Middlewares/Third_Party/LwIP/src/api/api_msg.c **** 
 379:Middlewares/Third_Party/LwIP/src/api/api_msg.c ****   /* Did a nonblocking write fail before? Then check available write-space. */
 380:Middlewares/Third_Party/LwIP/src/api/api_msg.c ****   if (conn->flags & NETCONN_FLAG_CHECK_WRITESPACE) {
 381:Middlewares/Third_Party/LwIP/src/api/api_msg.c ****     /* If the queued byte- or pbuf-count drops below the configured low-water limit,
 382:Middlewares/Third_Party/LwIP/src/api/api_msg.c ****        let select mark this pcb as writable again. */
 383:Middlewares/Third_Party/LwIP/src/api/api_msg.c ****     if ((conn->pcb.tcp != NULL) && (tcp_sndbuf(conn->pcb.tcp) > TCP_SNDLOWAT) &&
 384:Middlewares/Third_Party/LwIP/src/api/api_msg.c ****         (tcp_sndqueuelen(conn->pcb.tcp) < TCP_SNDQUEUELOWAT)) {
 385:Middlewares/Third_Party/LwIP/src/api/api_msg.c ****       netconn_clear_flags(conn, NETCONN_FLAG_CHECK_WRITESPACE);
 386:Middlewares/Third_Party/LwIP/src/api/api_msg.c ****       API_EVENT(conn, NETCONN_EVT_SENDPLUS, 0);
 387:Middlewares/Third_Party/LwIP/src/api/api_msg.c ****     }
 388:Middlewares/Third_Party/LwIP/src/api/api_msg.c ****   }
 389:Middlewares/Third_Party/LwIP/src/api/api_msg.c **** 
 390:Middlewares/Third_Party/LwIP/src/api/api_msg.c ****   return ERR_OK;
 391:Middlewares/Third_Party/LwIP/src/api/api_msg.c **** }
 392:Middlewares/Third_Party/LwIP/src/api/api_msg.c **** 
 393:Middlewares/Third_Party/LwIP/src/api/api_msg.c **** /**
 394:Middlewares/Third_Party/LwIP/src/api/api_msg.c ****  * Sent callback function for TCP netconns.
 395:Middlewares/Third_Party/LwIP/src/api/api_msg.c ****  * Signals the conn->sem and calls API_EVENT.
 396:Middlewares/Third_Party/LwIP/src/api/api_msg.c ****  * netconn_write waits for conn->sem if send buffer is low.
 397:Middlewares/Third_Party/LwIP/src/api/api_msg.c ****  *
 398:Middlewares/Third_Party/LwIP/src/api/api_msg.c ****  * @see tcp.h (struct tcp_pcb.sent) for parameters and return value
 399:Middlewares/Third_Party/LwIP/src/api/api_msg.c ****  */
 400:Middlewares/Third_Party/LwIP/src/api/api_msg.c **** static err_t
 401:Middlewares/Third_Party/LwIP/src/api/api_msg.c **** sent_tcp(void *arg, struct tcp_pcb *pcb, u16_t len)
 402:Middlewares/Third_Party/LwIP/src/api/api_msg.c **** {
 403:Middlewares/Third_Party/LwIP/src/api/api_msg.c ****   struct netconn *conn = (struct netconn *)arg;
 404:Middlewares/Third_Party/LwIP/src/api/api_msg.c **** 
 405:Middlewares/Third_Party/LwIP/src/api/api_msg.c ****   LWIP_UNUSED_ARG(pcb);
 406:Middlewares/Third_Party/LwIP/src/api/api_msg.c ****   LWIP_ASSERT("conn != NULL", (conn != NULL));
 407:Middlewares/Third_Party/LwIP/src/api/api_msg.c **** 
 408:Middlewares/Third_Party/LwIP/src/api/api_msg.c ****   if (conn) {
 409:Middlewares/Third_Party/LwIP/src/api/api_msg.c ****     if (conn->state == NETCONN_WRITE) {
 410:Middlewares/Third_Party/LwIP/src/api/api_msg.c ****       lwip_netconn_do_writemore(conn  WRITE_DELAYED);
 411:Middlewares/Third_Party/LwIP/src/api/api_msg.c ****     } else if (conn->state == NETCONN_CLOSE) {
 412:Middlewares/Third_Party/LwIP/src/api/api_msg.c ****       lwip_netconn_do_close_internal(conn  WRITE_DELAYED);
 413:Middlewares/Third_Party/LwIP/src/api/api_msg.c ****     }
 414:Middlewares/Third_Party/LwIP/src/api/api_msg.c **** 
 415:Middlewares/Third_Party/LwIP/src/api/api_msg.c ****     /* If the queued byte- or pbuf-count drops below the configured low-water limit,
 416:Middlewares/Third_Party/LwIP/src/api/api_msg.c ****        let select mark this pcb as writable again. */
 417:Middlewares/Third_Party/LwIP/src/api/api_msg.c ****     if ((conn->pcb.tcp != NULL) && (tcp_sndbuf(conn->pcb.tcp) > TCP_SNDLOWAT) &&
 418:Middlewares/Third_Party/LwIP/src/api/api_msg.c ****         (tcp_sndqueuelen(conn->pcb.tcp) < TCP_SNDQUEUELOWAT)) {
 419:Middlewares/Third_Party/LwIP/src/api/api_msg.c ****       netconn_clear_flags(conn, NETCONN_FLAG_CHECK_WRITESPACE);
 420:Middlewares/Third_Party/LwIP/src/api/api_msg.c ****       API_EVENT(conn, NETCONN_EVT_SENDPLUS, len);
 421:Middlewares/Third_Party/LwIP/src/api/api_msg.c ****     }
 422:Middlewares/Third_Party/LwIP/src/api/api_msg.c ****   }
 423:Middlewares/Third_Party/LwIP/src/api/api_msg.c **** 
 424:Middlewares/Third_Party/LwIP/src/api/api_msg.c ****   return ERR_OK;
 425:Middlewares/Third_Party/LwIP/src/api/api_msg.c **** }
 426:Middlewares/Third_Party/LwIP/src/api/api_msg.c **** 
 427:Middlewares/Third_Party/LwIP/src/api/api_msg.c **** /**
 428:Middlewares/Third_Party/LwIP/src/api/api_msg.c ****  * Error callback function for TCP netconns.
 429:Middlewares/Third_Party/LwIP/src/api/api_msg.c ****  * Signals conn->sem, posts to all conn mboxes and calls API_EVENT.
 430:Middlewares/Third_Party/LwIP/src/api/api_msg.c ****  * The application thread has then to decide what to do.
 431:Middlewares/Third_Party/LwIP/src/api/api_msg.c ****  *
ARM GAS  C:\Users\hh\AppData\Local\Temp\ccfq6ENc.s 			page 11


 432:Middlewares/Third_Party/LwIP/src/api/api_msg.c ****  * @see tcp.h (struct tcp_pcb.err) for parameters
 433:Middlewares/Third_Party/LwIP/src/api/api_msg.c ****  */
 434:Middlewares/Third_Party/LwIP/src/api/api_msg.c **** static void
 435:Middlewares/Third_Party/LwIP/src/api/api_msg.c **** err_tcp(void *arg, err_t err)
 436:Middlewares/Third_Party/LwIP/src/api/api_msg.c **** {
 437:Middlewares/Third_Party/LwIP/src/api/api_msg.c ****   struct netconn *conn;
 438:Middlewares/Third_Party/LwIP/src/api/api_msg.c ****   enum netconn_state old_state;
 439:Middlewares/Third_Party/LwIP/src/api/api_msg.c ****   void *mbox_msg;
 440:Middlewares/Third_Party/LwIP/src/api/api_msg.c ****   SYS_ARCH_DECL_PROTECT(lev);
 441:Middlewares/Third_Party/LwIP/src/api/api_msg.c **** 
 442:Middlewares/Third_Party/LwIP/src/api/api_msg.c ****   conn = (struct netconn *)arg;
 443:Middlewares/Third_Party/LwIP/src/api/api_msg.c ****   LWIP_ASSERT("conn != NULL", (conn != NULL));
 444:Middlewares/Third_Party/LwIP/src/api/api_msg.c **** 
 445:Middlewares/Third_Party/LwIP/src/api/api_msg.c ****   SYS_ARCH_PROTECT(lev);
 446:Middlewares/Third_Party/LwIP/src/api/api_msg.c **** 
 447:Middlewares/Third_Party/LwIP/src/api/api_msg.c ****   /* when err is called, the pcb is deallocated, so delete the reference */
 448:Middlewares/Third_Party/LwIP/src/api/api_msg.c ****   conn->pcb.tcp = NULL;
 449:Middlewares/Third_Party/LwIP/src/api/api_msg.c ****   /* store pending error */
 450:Middlewares/Third_Party/LwIP/src/api/api_msg.c ****   conn->pending_err = err;
 451:Middlewares/Third_Party/LwIP/src/api/api_msg.c ****   /* prevent application threads from blocking on 'recvmbox'/'acceptmbox' */
 452:Middlewares/Third_Party/LwIP/src/api/api_msg.c ****   conn->flags |= NETCONN_FLAG_MBOXCLOSED;
 453:Middlewares/Third_Party/LwIP/src/api/api_msg.c **** 
 454:Middlewares/Third_Party/LwIP/src/api/api_msg.c ****   /* reset conn->state now before waking up other threads */
 455:Middlewares/Third_Party/LwIP/src/api/api_msg.c ****   old_state = conn->state;
 456:Middlewares/Third_Party/LwIP/src/api/api_msg.c ****   conn->state = NETCONN_NONE;
 457:Middlewares/Third_Party/LwIP/src/api/api_msg.c **** 
 458:Middlewares/Third_Party/LwIP/src/api/api_msg.c ****   SYS_ARCH_UNPROTECT(lev);
 459:Middlewares/Third_Party/LwIP/src/api/api_msg.c **** 
 460:Middlewares/Third_Party/LwIP/src/api/api_msg.c ****   /* Notify the user layer about a connection error. Used to signal select. */
 461:Middlewares/Third_Party/LwIP/src/api/api_msg.c ****   API_EVENT(conn, NETCONN_EVT_ERROR, 0);
 462:Middlewares/Third_Party/LwIP/src/api/api_msg.c ****   /* Try to release selects pending on 'read' or 'write', too.
 463:Middlewares/Third_Party/LwIP/src/api/api_msg.c ****      They will get an error if they actually try to read or write. */
 464:Middlewares/Third_Party/LwIP/src/api/api_msg.c ****   API_EVENT(conn, NETCONN_EVT_RCVPLUS, 0);
 465:Middlewares/Third_Party/LwIP/src/api/api_msg.c ****   API_EVENT(conn, NETCONN_EVT_SENDPLUS, 0);
 466:Middlewares/Third_Party/LwIP/src/api/api_msg.c **** 
 467:Middlewares/Third_Party/LwIP/src/api/api_msg.c ****   mbox_msg = lwip_netconn_err_to_msg(err);
 468:Middlewares/Third_Party/LwIP/src/api/api_msg.c ****   /* pass error message to recvmbox to wake up pending recv */
 469:Middlewares/Third_Party/LwIP/src/api/api_msg.c ****   if (NETCONN_MBOX_VALID(conn, &conn->recvmbox)) {
 470:Middlewares/Third_Party/LwIP/src/api/api_msg.c ****     /* use trypost to prevent deadlock */
 471:Middlewares/Third_Party/LwIP/src/api/api_msg.c ****     sys_mbox_trypost(&conn->recvmbox, mbox_msg);
 472:Middlewares/Third_Party/LwIP/src/api/api_msg.c ****   }
 473:Middlewares/Third_Party/LwIP/src/api/api_msg.c ****   /* pass error message to acceptmbox to wake up pending accept */
 474:Middlewares/Third_Party/LwIP/src/api/api_msg.c ****   if (NETCONN_MBOX_VALID(conn, &conn->acceptmbox)) {
 475:Middlewares/Third_Party/LwIP/src/api/api_msg.c ****     /* use trypost to prevent deadlock */
 476:Middlewares/Third_Party/LwIP/src/api/api_msg.c ****     sys_mbox_trypost(&conn->acceptmbox, mbox_msg);
 477:Middlewares/Third_Party/LwIP/src/api/api_msg.c ****   }
 478:Middlewares/Third_Party/LwIP/src/api/api_msg.c **** 
 479:Middlewares/Third_Party/LwIP/src/api/api_msg.c ****   if ((old_state == NETCONN_WRITE) || (old_state == NETCONN_CLOSE) ||
 480:Middlewares/Third_Party/LwIP/src/api/api_msg.c ****       (old_state == NETCONN_CONNECT)) {
 481:Middlewares/Third_Party/LwIP/src/api/api_msg.c ****     /* calling lwip_netconn_do_writemore/lwip_netconn_do_close_internal is not necessary
 482:Middlewares/Third_Party/LwIP/src/api/api_msg.c ****        since the pcb has already been deleted! */
 483:Middlewares/Third_Party/LwIP/src/api/api_msg.c ****     int was_nonblocking_connect = IN_NONBLOCKING_CONNECT(conn);
 484:Middlewares/Third_Party/LwIP/src/api/api_msg.c ****     SET_NONBLOCKING_CONNECT(conn, 0);
 485:Middlewares/Third_Party/LwIP/src/api/api_msg.c **** 
 486:Middlewares/Third_Party/LwIP/src/api/api_msg.c ****     if (!was_nonblocking_connect) {
 487:Middlewares/Third_Party/LwIP/src/api/api_msg.c ****       sys_sem_t *op_completed_sem;
 488:Middlewares/Third_Party/LwIP/src/api/api_msg.c ****       /* set error return code */
ARM GAS  C:\Users\hh\AppData\Local\Temp\ccfq6ENc.s 			page 12


 489:Middlewares/Third_Party/LwIP/src/api/api_msg.c ****       LWIP_ASSERT("conn->current_msg != NULL", conn->current_msg != NULL);
 490:Middlewares/Third_Party/LwIP/src/api/api_msg.c ****       if (old_state == NETCONN_CLOSE) {
 491:Middlewares/Third_Party/LwIP/src/api/api_msg.c ****         /* let close succeed: the connection is closed after all... */
 492:Middlewares/Third_Party/LwIP/src/api/api_msg.c ****         conn->current_msg->err = ERR_OK;
 493:Middlewares/Third_Party/LwIP/src/api/api_msg.c ****       } else {
 494:Middlewares/Third_Party/LwIP/src/api/api_msg.c ****         /* Write and connect fail */
 495:Middlewares/Third_Party/LwIP/src/api/api_msg.c ****         conn->current_msg->err = err;
 496:Middlewares/Third_Party/LwIP/src/api/api_msg.c ****       }
 497:Middlewares/Third_Party/LwIP/src/api/api_msg.c ****       op_completed_sem = LWIP_API_MSG_SEM(conn->current_msg);
 498:Middlewares/Third_Party/LwIP/src/api/api_msg.c ****       LWIP_ASSERT("invalid op_completed_sem", sys_sem_valid(op_completed_sem));
 499:Middlewares/Third_Party/LwIP/src/api/api_msg.c ****       conn->current_msg = NULL;
 500:Middlewares/Third_Party/LwIP/src/api/api_msg.c ****       /* wake up the waiting task */
 501:Middlewares/Third_Party/LwIP/src/api/api_msg.c ****       sys_sem_signal(op_completed_sem);
 502:Middlewares/Third_Party/LwIP/src/api/api_msg.c ****     } else {
 503:Middlewares/Third_Party/LwIP/src/api/api_msg.c ****       /* @todo: test what happens for error on nonblocking connect */
 504:Middlewares/Third_Party/LwIP/src/api/api_msg.c ****     }
 505:Middlewares/Third_Party/LwIP/src/api/api_msg.c ****   } else {
 506:Middlewares/Third_Party/LwIP/src/api/api_msg.c ****     LWIP_ASSERT("conn->current_msg == NULL", conn->current_msg == NULL);
 507:Middlewares/Third_Party/LwIP/src/api/api_msg.c ****   }
 508:Middlewares/Third_Party/LwIP/src/api/api_msg.c **** }
 509:Middlewares/Third_Party/LwIP/src/api/api_msg.c **** 
 510:Middlewares/Third_Party/LwIP/src/api/api_msg.c **** /**
 511:Middlewares/Third_Party/LwIP/src/api/api_msg.c ****  * Setup a tcp_pcb with the correct callback function pointers
 512:Middlewares/Third_Party/LwIP/src/api/api_msg.c ****  * and their arguments.
 513:Middlewares/Third_Party/LwIP/src/api/api_msg.c ****  *
 514:Middlewares/Third_Party/LwIP/src/api/api_msg.c ****  * @param conn the TCP netconn to setup
 515:Middlewares/Third_Party/LwIP/src/api/api_msg.c ****  */
 516:Middlewares/Third_Party/LwIP/src/api/api_msg.c **** static void
 517:Middlewares/Third_Party/LwIP/src/api/api_msg.c **** setup_tcp(struct netconn *conn)
 518:Middlewares/Third_Party/LwIP/src/api/api_msg.c **** {
 121              		.loc 1 518 1 is_stmt 1 view -0
 122              		.cfi_startproc
 123              		@ args = 0, pretend = 0, frame = 0
 124              		@ frame_needed = 0, uses_anonymous_args = 0
 125              		.loc 1 518 1 is_stmt 0 view .LVU18
 126 0000 10B5     		push	{r4, lr}
 127              	.LCFI2:
 128              		.cfi_def_cfa_offset 8
 129              		.cfi_offset 4, -8
 130              		.cfi_offset 14, -4
 131 0002 0146     		mov	r1, r0
 519:Middlewares/Third_Party/LwIP/src/api/api_msg.c ****   struct tcp_pcb *pcb;
 132              		.loc 1 519 3 is_stmt 1 view .LVU19
 520:Middlewares/Third_Party/LwIP/src/api/api_msg.c **** 
 521:Middlewares/Third_Party/LwIP/src/api/api_msg.c ****   pcb = conn->pcb.tcp;
 133              		.loc 1 521 3 view .LVU20
 134              		.loc 1 521 7 is_stmt 0 view .LVU21
 135 0004 4468     		ldr	r4, [r0, #4]
 136              	.LVL10:
 522:Middlewares/Third_Party/LwIP/src/api/api_msg.c ****   tcp_arg(pcb, conn);
 137              		.loc 1 522 3 is_stmt 1 view .LVU22
 138 0006 2046     		mov	r0, r4
 139              	.LVL11:
 140              		.loc 1 522 3 is_stmt 0 view .LVU23
 141 0008 FFF7FEFF 		bl	tcp_arg
 142              	.LVL12:
 523:Middlewares/Third_Party/LwIP/src/api/api_msg.c ****   tcp_recv(pcb, recv_tcp);
ARM GAS  C:\Users\hh\AppData\Local\Temp\ccfq6ENc.s 			page 13


 143              		.loc 1 523 3 is_stmt 1 view .LVU24
 144 000c 0849     		ldr	r1, .L16
 145 000e 2046     		mov	r0, r4
 146 0010 FFF7FEFF 		bl	tcp_recv
 147              	.LVL13:
 524:Middlewares/Third_Party/LwIP/src/api/api_msg.c ****   tcp_sent(pcb, sent_tcp);
 148              		.loc 1 524 3 view .LVU25
 149 0014 0749     		ldr	r1, .L16+4
 150 0016 2046     		mov	r0, r4
 151 0018 FFF7FEFF 		bl	tcp_sent
 152              	.LVL14:
 525:Middlewares/Third_Party/LwIP/src/api/api_msg.c ****   tcp_poll(pcb, poll_tcp, NETCONN_TCP_POLL_INTERVAL);
 153              		.loc 1 525 3 view .LVU26
 154 001c 0222     		movs	r2, #2
 155 001e 0649     		ldr	r1, .L16+8
 156 0020 2046     		mov	r0, r4
 157 0022 FFF7FEFF 		bl	tcp_poll
 158              	.LVL15:
 526:Middlewares/Third_Party/LwIP/src/api/api_msg.c ****   tcp_err(pcb, err_tcp);
 159              		.loc 1 526 3 view .LVU27
 160 0026 0549     		ldr	r1, .L16+12
 161 0028 2046     		mov	r0, r4
 162 002a FFF7FEFF 		bl	tcp_err
 163              	.LVL16:
 527:Middlewares/Third_Party/LwIP/src/api/api_msg.c **** }
 164              		.loc 1 527 1 is_stmt 0 view .LVU28
 165 002e 10BD     		pop	{r4, pc}
 166              	.LVL17:
 167              	.L17:
 168              		.loc 1 527 1 view .LVU29
 169              		.align	2
 170              	.L16:
 171 0030 00000000 		.word	recv_tcp
 172 0034 00000000 		.word	sent_tcp
 173 0038 00000000 		.word	poll_tcp
 174 003c 00000000 		.word	err_tcp
 175              		.cfi_endproc
 176              	.LFE178:
 178              		.section	.rodata.pcb_new.str1.4,"aMS",%progbits,1
 179              		.align	2
 180              	.LC3:
 181 0000 7063625F 		.ascii	"pcb_new: pcb already allocated\000"
 181      6E65773A 
 181      20706362 
 181      20616C72 
 181      65616479 
 182              		.section	.text.pcb_new,"ax",%progbits
 183              		.align	1
 184              		.syntax unified
 185              		.thumb
 186              		.thumb_func
 188              	pcb_new:
 189              	.LVL18:
 190              	.LFB180:
 528:Middlewares/Third_Party/LwIP/src/api/api_msg.c **** 
 529:Middlewares/Third_Party/LwIP/src/api/api_msg.c **** /**
 530:Middlewares/Third_Party/LwIP/src/api/api_msg.c ****  * Accept callback function for TCP netconns.
ARM GAS  C:\Users\hh\AppData\Local\Temp\ccfq6ENc.s 			page 14


 531:Middlewares/Third_Party/LwIP/src/api/api_msg.c ****  * Allocates a new netconn and posts that to conn->acceptmbox.
 532:Middlewares/Third_Party/LwIP/src/api/api_msg.c ****  *
 533:Middlewares/Third_Party/LwIP/src/api/api_msg.c ****  * @see tcp.h (struct tcp_pcb_listen.accept) for parameters and return value
 534:Middlewares/Third_Party/LwIP/src/api/api_msg.c ****  */
 535:Middlewares/Third_Party/LwIP/src/api/api_msg.c **** static err_t
 536:Middlewares/Third_Party/LwIP/src/api/api_msg.c **** accept_function(void *arg, struct tcp_pcb *newpcb, err_t err)
 537:Middlewares/Third_Party/LwIP/src/api/api_msg.c **** {
 538:Middlewares/Third_Party/LwIP/src/api/api_msg.c ****   struct netconn *newconn;
 539:Middlewares/Third_Party/LwIP/src/api/api_msg.c ****   struct netconn *conn = (struct netconn *)arg;
 540:Middlewares/Third_Party/LwIP/src/api/api_msg.c **** 
 541:Middlewares/Third_Party/LwIP/src/api/api_msg.c ****   if (conn == NULL) {
 542:Middlewares/Third_Party/LwIP/src/api/api_msg.c ****     return ERR_VAL;
 543:Middlewares/Third_Party/LwIP/src/api/api_msg.c ****   }
 544:Middlewares/Third_Party/LwIP/src/api/api_msg.c ****   if (!NETCONN_MBOX_VALID(conn, &conn->acceptmbox)) {
 545:Middlewares/Third_Party/LwIP/src/api/api_msg.c ****     LWIP_DEBUGF(API_MSG_DEBUG, ("accept_function: acceptmbox already deleted\n"));
 546:Middlewares/Third_Party/LwIP/src/api/api_msg.c ****     return ERR_VAL;
 547:Middlewares/Third_Party/LwIP/src/api/api_msg.c ****   }
 548:Middlewares/Third_Party/LwIP/src/api/api_msg.c **** 
 549:Middlewares/Third_Party/LwIP/src/api/api_msg.c ****   if (newpcb == NULL) {
 550:Middlewares/Third_Party/LwIP/src/api/api_msg.c ****     /* out-of-pcbs during connect: pass on this error to the application */
 551:Middlewares/Third_Party/LwIP/src/api/api_msg.c ****     if (sys_mbox_trypost(&conn->acceptmbox, lwip_netconn_err_to_msg(ERR_ABRT)) == ERR_OK) {
 552:Middlewares/Third_Party/LwIP/src/api/api_msg.c ****       /* Register event with callback */
 553:Middlewares/Third_Party/LwIP/src/api/api_msg.c ****       API_EVENT(conn, NETCONN_EVT_RCVPLUS, 0);
 554:Middlewares/Third_Party/LwIP/src/api/api_msg.c ****     }
 555:Middlewares/Third_Party/LwIP/src/api/api_msg.c ****     return ERR_VAL;
 556:Middlewares/Third_Party/LwIP/src/api/api_msg.c ****   }
 557:Middlewares/Third_Party/LwIP/src/api/api_msg.c ****   LWIP_ASSERT("expect newpcb == NULL or err == ERR_OK", err == ERR_OK);
 558:Middlewares/Third_Party/LwIP/src/api/api_msg.c ****   LWIP_UNUSED_ARG(err); /* for LWIP_NOASSERT */
 559:Middlewares/Third_Party/LwIP/src/api/api_msg.c **** 
 560:Middlewares/Third_Party/LwIP/src/api/api_msg.c ****   LWIP_DEBUGF(API_MSG_DEBUG, ("accept_function: newpcb->state: %s\n", tcp_debug_state_str(newpcb->s
 561:Middlewares/Third_Party/LwIP/src/api/api_msg.c **** 
 562:Middlewares/Third_Party/LwIP/src/api/api_msg.c ****   /* We have to set the callback here even though
 563:Middlewares/Third_Party/LwIP/src/api/api_msg.c ****    * the new socket is unknown. newconn->socket is marked as -1. */
 564:Middlewares/Third_Party/LwIP/src/api/api_msg.c ****   newconn = netconn_alloc(conn->type, conn->callback);
 565:Middlewares/Third_Party/LwIP/src/api/api_msg.c ****   if (newconn == NULL) {
 566:Middlewares/Third_Party/LwIP/src/api/api_msg.c ****     /* outof netconns: pass on this error to the application */
 567:Middlewares/Third_Party/LwIP/src/api/api_msg.c ****     if (sys_mbox_trypost(&conn->acceptmbox, lwip_netconn_err_to_msg(ERR_ABRT)) == ERR_OK) {
 568:Middlewares/Third_Party/LwIP/src/api/api_msg.c ****       /* Register event with callback */
 569:Middlewares/Third_Party/LwIP/src/api/api_msg.c ****       API_EVENT(conn, NETCONN_EVT_RCVPLUS, 0);
 570:Middlewares/Third_Party/LwIP/src/api/api_msg.c ****     }
 571:Middlewares/Third_Party/LwIP/src/api/api_msg.c ****     return ERR_MEM;
 572:Middlewares/Third_Party/LwIP/src/api/api_msg.c ****   }
 573:Middlewares/Third_Party/LwIP/src/api/api_msg.c ****   newconn->pcb.tcp = newpcb;
 574:Middlewares/Third_Party/LwIP/src/api/api_msg.c ****   setup_tcp(newconn);
 575:Middlewares/Third_Party/LwIP/src/api/api_msg.c **** 
 576:Middlewares/Third_Party/LwIP/src/api/api_msg.c ****   /* handle backlog counter */
 577:Middlewares/Third_Party/LwIP/src/api/api_msg.c ****   tcp_backlog_delayed(newpcb);
 578:Middlewares/Third_Party/LwIP/src/api/api_msg.c **** 
 579:Middlewares/Third_Party/LwIP/src/api/api_msg.c ****   if (sys_mbox_trypost(&conn->acceptmbox, newconn) != ERR_OK) {
 580:Middlewares/Third_Party/LwIP/src/api/api_msg.c ****     /* When returning != ERR_OK, the pcb is aborted in tcp_process(),
 581:Middlewares/Third_Party/LwIP/src/api/api_msg.c ****        so do nothing here! */
 582:Middlewares/Third_Party/LwIP/src/api/api_msg.c ****     /* remove all references to this netconn from the pcb */
 583:Middlewares/Third_Party/LwIP/src/api/api_msg.c ****     struct tcp_pcb *pcb = newconn->pcb.tcp;
 584:Middlewares/Third_Party/LwIP/src/api/api_msg.c ****     tcp_arg(pcb, NULL);
 585:Middlewares/Third_Party/LwIP/src/api/api_msg.c ****     tcp_recv(pcb, NULL);
 586:Middlewares/Third_Party/LwIP/src/api/api_msg.c ****     tcp_sent(pcb, NULL);
 587:Middlewares/Third_Party/LwIP/src/api/api_msg.c ****     tcp_poll(pcb, NULL, 0);
ARM GAS  C:\Users\hh\AppData\Local\Temp\ccfq6ENc.s 			page 15


 588:Middlewares/Third_Party/LwIP/src/api/api_msg.c ****     tcp_err(pcb, NULL);
 589:Middlewares/Third_Party/LwIP/src/api/api_msg.c ****     /* remove reference from to the pcb from this netconn */
 590:Middlewares/Third_Party/LwIP/src/api/api_msg.c ****     newconn->pcb.tcp = NULL;
 591:Middlewares/Third_Party/LwIP/src/api/api_msg.c ****     /* no need to drain since we know the recvmbox is empty. */
 592:Middlewares/Third_Party/LwIP/src/api/api_msg.c ****     sys_mbox_free(&newconn->recvmbox);
 593:Middlewares/Third_Party/LwIP/src/api/api_msg.c ****     sys_mbox_set_invalid(&newconn->recvmbox);
 594:Middlewares/Third_Party/LwIP/src/api/api_msg.c ****     netconn_free(newconn);
 595:Middlewares/Third_Party/LwIP/src/api/api_msg.c ****     return ERR_MEM;
 596:Middlewares/Third_Party/LwIP/src/api/api_msg.c ****   } else {
 597:Middlewares/Third_Party/LwIP/src/api/api_msg.c ****     /* Register event with callback */
 598:Middlewares/Third_Party/LwIP/src/api/api_msg.c ****     API_EVENT(conn, NETCONN_EVT_RCVPLUS, 0);
 599:Middlewares/Third_Party/LwIP/src/api/api_msg.c ****   }
 600:Middlewares/Third_Party/LwIP/src/api/api_msg.c **** 
 601:Middlewares/Third_Party/LwIP/src/api/api_msg.c ****   return ERR_OK;
 602:Middlewares/Third_Party/LwIP/src/api/api_msg.c **** }
 603:Middlewares/Third_Party/LwIP/src/api/api_msg.c **** #endif /* LWIP_TCP */
 604:Middlewares/Third_Party/LwIP/src/api/api_msg.c **** 
 605:Middlewares/Third_Party/LwIP/src/api/api_msg.c **** /**
 606:Middlewares/Third_Party/LwIP/src/api/api_msg.c ****  * Create a new pcb of a specific type.
 607:Middlewares/Third_Party/LwIP/src/api/api_msg.c ****  * Called from lwip_netconn_do_newconn().
 608:Middlewares/Third_Party/LwIP/src/api/api_msg.c ****  *
 609:Middlewares/Third_Party/LwIP/src/api/api_msg.c ****  * @param msg the api_msg describing the connection type
 610:Middlewares/Third_Party/LwIP/src/api/api_msg.c ****  */
 611:Middlewares/Third_Party/LwIP/src/api/api_msg.c **** static void
 612:Middlewares/Third_Party/LwIP/src/api/api_msg.c **** pcb_new(struct api_msg *msg)
 613:Middlewares/Third_Party/LwIP/src/api/api_msg.c **** {
 191              		.loc 1 613 1 is_stmt 1 view -0
 192              		.cfi_startproc
 193              		@ args = 0, pretend = 0, frame = 0
 194              		@ frame_needed = 0, uses_anonymous_args = 0
 195              		.loc 1 613 1 is_stmt 0 view .LVU31
 196 0000 38B5     		push	{r3, r4, r5, lr}
 197              	.LCFI3:
 198              		.cfi_def_cfa_offset 16
 199              		.cfi_offset 3, -16
 200              		.cfi_offset 4, -12
 201              		.cfi_offset 5, -8
 202              		.cfi_offset 14, -4
 203 0002 0446     		mov	r4, r0
 614:Middlewares/Third_Party/LwIP/src/api/api_msg.c ****   enum lwip_ip_addr_type iptype = IPADDR_TYPE_V4;
 204              		.loc 1 614 3 is_stmt 1 view .LVU32
 205              	.LVL19:
 615:Middlewares/Third_Party/LwIP/src/api/api_msg.c **** 
 616:Middlewares/Third_Party/LwIP/src/api/api_msg.c ****   LWIP_ASSERT("pcb_new: pcb already allocated", msg->conn->pcb.tcp == NULL);
 206              		.loc 1 616 3 view .LVU33
 207              		.loc 1 616 3 view .LVU34
 208 0004 0368     		ldr	r3, [r0]
 209 0006 5B68     		ldr	r3, [r3, #4]
 210 0008 33B1     		cbz	r3, .L19
 211              		.loc 1 616 3 discriminator 1 view .LVU35
 212              		.loc 1 616 3 discriminator 1 view .LVU36
 213 000a 104B     		ldr	r3, .L25
 214 000c 4FF41A72 		mov	r2, #616
 215 0010 0F49     		ldr	r1, .L25+4
 216 0012 1048     		ldr	r0, .L25+8
 217              	.LVL20:
 218              		.loc 1 616 3 is_stmt 0 discriminator 1 view .LVU37
ARM GAS  C:\Users\hh\AppData\Local\Temp\ccfq6ENc.s 			page 16


 219 0014 FFF7FEFF 		bl	printf
 220              	.LVL21:
 221              	.L19:
 222              		.loc 1 616 3 is_stmt 1 view .LVU38
 223              		.loc 1 616 3 view .LVU39
 617:Middlewares/Third_Party/LwIP/src/api/api_msg.c **** 
 618:Middlewares/Third_Party/LwIP/src/api/api_msg.c **** #if LWIP_IPV6 && LWIP_IPV4
 619:Middlewares/Third_Party/LwIP/src/api/api_msg.c ****   /* IPv6: Dual-stack by default, unless netconn_set_ipv6only() is called */
 620:Middlewares/Third_Party/LwIP/src/api/api_msg.c ****   if (NETCONNTYPE_ISIPV6(netconn_type(msg->conn))) {
 621:Middlewares/Third_Party/LwIP/src/api/api_msg.c ****     iptype = IPADDR_TYPE_ANY;
 622:Middlewares/Third_Party/LwIP/src/api/api_msg.c ****   }
 623:Middlewares/Third_Party/LwIP/src/api/api_msg.c **** #endif
 624:Middlewares/Third_Party/LwIP/src/api/api_msg.c **** 
 625:Middlewares/Third_Party/LwIP/src/api/api_msg.c ****   /* Allocate a PCB for this connection */
 626:Middlewares/Third_Party/LwIP/src/api/api_msg.c ****   switch (NETCONNTYPE_GROUP(msg->conn->type)) {
 224              		.loc 1 626 3 view .LVU40
 225              		.loc 1 626 11 is_stmt 0 view .LVU41
 226 0018 2568     		ldr	r5, [r4]
 227 001a 2B78     		ldrb	r3, [r5]	@ zero_extendqisi2
 228              		.loc 1 626 3 view .LVU42
 229 001c 03F0F003 		and	r3, r3, #240
 230 0020 102B     		cmp	r3, #16
 231 0022 02D0     		beq	.L24
 627:Middlewares/Third_Party/LwIP/src/api/api_msg.c **** #if LWIP_RAW
 628:Middlewares/Third_Party/LwIP/src/api/api_msg.c ****     case NETCONN_RAW:
 629:Middlewares/Third_Party/LwIP/src/api/api_msg.c ****       msg->conn->pcb.raw = raw_new_ip_type(iptype, msg->msg.n.proto);
 630:Middlewares/Third_Party/LwIP/src/api/api_msg.c ****       if (msg->conn->pcb.raw != NULL) {
 631:Middlewares/Third_Party/LwIP/src/api/api_msg.c **** #if LWIP_IPV6
 632:Middlewares/Third_Party/LwIP/src/api/api_msg.c ****         /* ICMPv6 packets should always have checksum calculated by the stack as per RFC 3542 chapt
 633:Middlewares/Third_Party/LwIP/src/api/api_msg.c ****         if (NETCONNTYPE_ISIPV6(msg->conn->type) && msg->conn->pcb.raw->protocol == IP6_NEXTH_ICMP6)
 634:Middlewares/Third_Party/LwIP/src/api/api_msg.c ****           msg->conn->pcb.raw->chksum_reqd = 1;
 635:Middlewares/Third_Party/LwIP/src/api/api_msg.c ****           msg->conn->pcb.raw->chksum_offset = 2;
 636:Middlewares/Third_Party/LwIP/src/api/api_msg.c ****         }
 637:Middlewares/Third_Party/LwIP/src/api/api_msg.c **** #endif /* LWIP_IPV6 */
 638:Middlewares/Third_Party/LwIP/src/api/api_msg.c ****         raw_recv(msg->conn->pcb.raw, recv_raw, msg->conn);
 639:Middlewares/Third_Party/LwIP/src/api/api_msg.c ****       }
 640:Middlewares/Third_Party/LwIP/src/api/api_msg.c ****       break;
 641:Middlewares/Third_Party/LwIP/src/api/api_msg.c **** #endif /* LWIP_RAW */
 642:Middlewares/Third_Party/LwIP/src/api/api_msg.c **** #if LWIP_UDP
 643:Middlewares/Third_Party/LwIP/src/api/api_msg.c ****     case NETCONN_UDP:
 644:Middlewares/Third_Party/LwIP/src/api/api_msg.c ****       msg->conn->pcb.udp = udp_new_ip_type(iptype);
 645:Middlewares/Third_Party/LwIP/src/api/api_msg.c ****       if (msg->conn->pcb.udp != NULL) {
 646:Middlewares/Third_Party/LwIP/src/api/api_msg.c **** #if LWIP_UDPLITE
 647:Middlewares/Third_Party/LwIP/src/api/api_msg.c ****         if (NETCONNTYPE_ISUDPLITE(msg->conn->type)) {
 648:Middlewares/Third_Party/LwIP/src/api/api_msg.c ****           udp_setflags(msg->conn->pcb.udp, UDP_FLAGS_UDPLITE);
 649:Middlewares/Third_Party/LwIP/src/api/api_msg.c ****         }
 650:Middlewares/Third_Party/LwIP/src/api/api_msg.c **** #endif /* LWIP_UDPLITE */
 651:Middlewares/Third_Party/LwIP/src/api/api_msg.c ****         if (NETCONNTYPE_ISUDPNOCHKSUM(msg->conn->type)) {
 652:Middlewares/Third_Party/LwIP/src/api/api_msg.c ****           udp_setflags(msg->conn->pcb.udp, UDP_FLAGS_NOCHKSUM);
 653:Middlewares/Third_Party/LwIP/src/api/api_msg.c ****         }
 654:Middlewares/Third_Party/LwIP/src/api/api_msg.c ****         udp_recv(msg->conn->pcb.udp, recv_udp, msg->conn);
 655:Middlewares/Third_Party/LwIP/src/api/api_msg.c ****       }
 656:Middlewares/Third_Party/LwIP/src/api/api_msg.c ****       break;
 657:Middlewares/Third_Party/LwIP/src/api/api_msg.c **** #endif /* LWIP_UDP */
 658:Middlewares/Third_Party/LwIP/src/api/api_msg.c **** #if LWIP_TCP
 659:Middlewares/Third_Party/LwIP/src/api/api_msg.c ****     case NETCONN_TCP:
 660:Middlewares/Third_Party/LwIP/src/api/api_msg.c ****       msg->conn->pcb.tcp = tcp_new_ip_type(iptype);
ARM GAS  C:\Users\hh\AppData\Local\Temp\ccfq6ENc.s 			page 17


 661:Middlewares/Third_Party/LwIP/src/api/api_msg.c ****       if (msg->conn->pcb.tcp != NULL) {
 662:Middlewares/Third_Party/LwIP/src/api/api_msg.c ****         setup_tcp(msg->conn);
 663:Middlewares/Third_Party/LwIP/src/api/api_msg.c ****       }
 664:Middlewares/Third_Party/LwIP/src/api/api_msg.c ****       break;
 665:Middlewares/Third_Party/LwIP/src/api/api_msg.c **** #endif /* LWIP_TCP */
 666:Middlewares/Third_Party/LwIP/src/api/api_msg.c ****     default:
 667:Middlewares/Third_Party/LwIP/src/api/api_msg.c ****       /* Unsupported netconn type, e.g. protocol disabled */
 668:Middlewares/Third_Party/LwIP/src/api/api_msg.c ****       msg->err = ERR_VAL;
 232              		.loc 1 668 7 is_stmt 1 view .LVU43
 233              		.loc 1 668 16 is_stmt 0 view .LVU44
 234 0024 FA23     		movs	r3, #250
 235 0026 2371     		strb	r3, [r4, #4]
 669:Middlewares/Third_Party/LwIP/src/api/api_msg.c ****       return;
 236              		.loc 1 669 7 is_stmt 1 view .LVU45
 237              	.L18:
 670:Middlewares/Third_Party/LwIP/src/api/api_msg.c ****   }
 671:Middlewares/Third_Party/LwIP/src/api/api_msg.c ****   if (msg->conn->pcb.ip == NULL) {
 672:Middlewares/Third_Party/LwIP/src/api/api_msg.c ****     msg->err = ERR_MEM;
 673:Middlewares/Third_Party/LwIP/src/api/api_msg.c ****   }
 674:Middlewares/Third_Party/LwIP/src/api/api_msg.c **** }
 238              		.loc 1 674 1 is_stmt 0 view .LVU46
 239 0028 38BD     		pop	{r3, r4, r5, pc}
 240              	.LVL22:
 241              	.L24:
 660:Middlewares/Third_Party/LwIP/src/api/api_msg.c ****       if (msg->conn->pcb.tcp != NULL) {
 242              		.loc 1 660 7 is_stmt 1 view .LVU47
 660:Middlewares/Third_Party/LwIP/src/api/api_msg.c ****       if (msg->conn->pcb.tcp != NULL) {
 243              		.loc 1 660 28 is_stmt 0 view .LVU48
 244 002a 0020     		movs	r0, #0
 245 002c FFF7FEFF 		bl	tcp_new_ip_type
 246              	.LVL23:
 660:Middlewares/Third_Party/LwIP/src/api/api_msg.c ****       if (msg->conn->pcb.tcp != NULL) {
 247              		.loc 1 660 26 discriminator 1 view .LVU49
 248 0030 6860     		str	r0, [r5, #4]
 661:Middlewares/Third_Party/LwIP/src/api/api_msg.c ****         setup_tcp(msg->conn);
 249              		.loc 1 661 7 is_stmt 1 view .LVU50
 661:Middlewares/Third_Party/LwIP/src/api/api_msg.c ****         setup_tcp(msg->conn);
 250              		.loc 1 661 14 is_stmt 0 view .LVU51
 251 0032 2068     		ldr	r0, [r4]
 661:Middlewares/Third_Party/LwIP/src/api/api_msg.c ****         setup_tcp(msg->conn);
 252              		.loc 1 661 25 view .LVU52
 253 0034 4368     		ldr	r3, [r0, #4]
 661:Middlewares/Third_Party/LwIP/src/api/api_msg.c ****         setup_tcp(msg->conn);
 254              		.loc 1 661 10 view .LVU53
 255 0036 0BB1     		cbz	r3, .L21
 662:Middlewares/Third_Party/LwIP/src/api/api_msg.c ****       }
 256              		.loc 1 662 9 is_stmt 1 view .LVU54
 257 0038 FFF7FEFF 		bl	setup_tcp
 258              	.LVL24:
 259              	.L21:
 664:Middlewares/Third_Party/LwIP/src/api/api_msg.c **** #endif /* LWIP_TCP */
 260              		.loc 1 664 7 view .LVU55
 671:Middlewares/Third_Party/LwIP/src/api/api_msg.c ****     msg->err = ERR_MEM;
 261              		.loc 1 671 3 view .LVU56
 671:Middlewares/Third_Party/LwIP/src/api/api_msg.c ****     msg->err = ERR_MEM;
 262              		.loc 1 671 10 is_stmt 0 view .LVU57
 263 003c 2368     		ldr	r3, [r4]
ARM GAS  C:\Users\hh\AppData\Local\Temp\ccfq6ENc.s 			page 18


 671:Middlewares/Third_Party/LwIP/src/api/api_msg.c ****     msg->err = ERR_MEM;
 264              		.loc 1 671 21 view .LVU58
 265 003e 5B68     		ldr	r3, [r3, #4]
 671:Middlewares/Third_Party/LwIP/src/api/api_msg.c ****     msg->err = ERR_MEM;
 266              		.loc 1 671 6 view .LVU59
 267 0040 002B     		cmp	r3, #0
 268 0042 F1D1     		bne	.L18
 672:Middlewares/Third_Party/LwIP/src/api/api_msg.c ****   }
 269              		.loc 1 672 5 is_stmt 1 view .LVU60
 672:Middlewares/Third_Party/LwIP/src/api/api_msg.c ****   }
 270              		.loc 1 672 14 is_stmt 0 view .LVU61
 271 0044 FF23     		movs	r3, #255
 272 0046 2371     		strb	r3, [r4, #4]
 273 0048 EEE7     		b	.L18
 274              	.L26:
 275 004a 00BF     		.align	2
 276              	.L25:
 277 004c 00000000 		.word	.LC0
 278 0050 00000000 		.word	.LC3
 279 0054 40000000 		.word	.LC2
 280              		.cfi_endproc
 281              	.LFE180:
 283              		.section	.rodata.err_tcp.str1.4,"aMS",%progbits,1
 284              		.align	2
 285              	.LC4:
 286 0000 636F6E6E 		.ascii	"conn != NULL\000"
 286      20213D20 
 286      4E554C4C 
 286      00
 287 000d 000000   		.align	2
 288              	.LC5:
 289 0010 636F6E6E 		.ascii	"conn->current_msg != NULL\000"
 289      2D3E6375 
 289      7272656E 
 289      745F6D73 
 289      6720213D 
 290 002a 0000     		.align	2
 291              	.LC6:
 292 002c 696E7661 		.ascii	"invalid op_completed_sem\000"
 292      6C696420 
 292      6F705F63 
 292      6F6D706C 
 292      65746564 
 293 0045 000000   		.align	2
 294              	.LC7:
 295 0048 636F6E6E 		.ascii	"conn->current_msg == NULL\000"
 295      2D3E6375 
 295      7272656E 
 295      745F6D73 
 295      67203D3D 
 296              		.section	.text.err_tcp,"ax",%progbits
 297              		.align	1
 298              		.syntax unified
 299              		.thumb
 300              		.thumb_func
 302              	err_tcp:
 303              	.LVL25:
ARM GAS  C:\Users\hh\AppData\Local\Temp\ccfq6ENc.s 			page 19


 304              	.LFB177:
 436:Middlewares/Third_Party/LwIP/src/api/api_msg.c ****   struct netconn *conn;
 305              		.loc 1 436 1 is_stmt 1 view -0
 306              		.cfi_startproc
 307              		@ args = 0, pretend = 0, frame = 0
 308              		@ frame_needed = 0, uses_anonymous_args = 0
 436:Middlewares/Third_Party/LwIP/src/api/api_msg.c ****   struct netconn *conn;
 309              		.loc 1 436 1 is_stmt 0 view .LVU63
 310 0000 2DE9F041 		push	{r4, r5, r6, r7, r8, lr}
 311              	.LCFI4:
 312              		.cfi_def_cfa_offset 24
 313              		.cfi_offset 4, -24
 314              		.cfi_offset 5, -20
 315              		.cfi_offset 6, -16
 316              		.cfi_offset 7, -12
 317              		.cfi_offset 8, -8
 318              		.cfi_offset 14, -4
 319 0004 0D46     		mov	r5, r1
 437:Middlewares/Third_Party/LwIP/src/api/api_msg.c ****   enum netconn_state old_state;
 320              		.loc 1 437 3 is_stmt 1 view .LVU64
 438:Middlewares/Third_Party/LwIP/src/api/api_msg.c ****   void *mbox_msg;
 321              		.loc 1 438 3 view .LVU65
 439:Middlewares/Third_Party/LwIP/src/api/api_msg.c ****   SYS_ARCH_DECL_PROTECT(lev);
 322              		.loc 1 439 3 view .LVU66
 440:Middlewares/Third_Party/LwIP/src/api/api_msg.c **** 
 323              		.loc 1 440 3 view .LVU67
 442:Middlewares/Third_Party/LwIP/src/api/api_msg.c ****   LWIP_ASSERT("conn != NULL", (conn != NULL));
 324              		.loc 1 442 3 view .LVU68
 325              	.LVL26:
 443:Middlewares/Third_Party/LwIP/src/api/api_msg.c **** 
 326              		.loc 1 443 3 view .LVU69
 443:Middlewares/Third_Party/LwIP/src/api/api_msg.c **** 
 327              		.loc 1 443 3 view .LVU70
 328 0006 0446     		mov	r4, r0
 329 0008 0028     		cmp	r0, #0
 330 000a 3ED0     		beq	.L42
 331              	.LVL27:
 332              	.L28:
 443:Middlewares/Third_Party/LwIP/src/api/api_msg.c **** 
 333              		.loc 1 443 3 view .LVU71
 443:Middlewares/Third_Party/LwIP/src/api/api_msg.c **** 
 334              		.loc 1 443 3 view .LVU72
 445:Middlewares/Third_Party/LwIP/src/api/api_msg.c **** 
 335              		.loc 1 445 3 view .LVU73
 336 000c FFF7FEFF 		bl	sys_arch_protect
 337              	.LVL28:
 448:Middlewares/Third_Party/LwIP/src/api/api_msg.c ****   /* store pending error */
 338              		.loc 1 448 3 view .LVU74
 448:Middlewares/Third_Party/LwIP/src/api/api_msg.c ****   /* store pending error */
 339              		.loc 1 448 17 is_stmt 0 view .LVU75
 340 0010 0022     		movs	r2, #0
 341 0012 6260     		str	r2, [r4, #4]
 450:Middlewares/Third_Party/LwIP/src/api/api_msg.c ****   /* prevent application threads from blocking on 'recvmbox'/'acceptmbox' */
 342              		.loc 1 450 3 is_stmt 1 view .LVU76
 450:Middlewares/Third_Party/LwIP/src/api/api_msg.c ****   /* prevent application threads from blocking on 'recvmbox'/'acceptmbox' */
 343              		.loc 1 450 21 is_stmt 0 view .LVU77
 344 0014 2572     		strb	r5, [r4, #8]
ARM GAS  C:\Users\hh\AppData\Local\Temp\ccfq6ENc.s 			page 20


 452:Middlewares/Third_Party/LwIP/src/api/api_msg.c **** 
 345              		.loc 1 452 3 is_stmt 1 view .LVU78
 452:Middlewares/Third_Party/LwIP/src/api/api_msg.c **** 
 346              		.loc 1 452 7 is_stmt 0 view .LVU79
 347 0016 237F     		ldrb	r3, [r4, #28]	@ zero_extendqisi2
 452:Middlewares/Third_Party/LwIP/src/api/api_msg.c **** 
 348              		.loc 1 452 15 view .LVU80
 349 0018 43F00103 		orr	r3, r3, #1
 350 001c 2377     		strb	r3, [r4, #28]
 455:Middlewares/Third_Party/LwIP/src/api/api_msg.c ****   conn->state = NETCONN_NONE;
 351              		.loc 1 455 3 is_stmt 1 view .LVU81
 455:Middlewares/Third_Party/LwIP/src/api/api_msg.c ****   conn->state = NETCONN_NONE;
 352              		.loc 1 455 13 is_stmt 0 view .LVU82
 353 001e 6678     		ldrb	r6, [r4, #1]	@ zero_extendqisi2
 354              	.LVL29:
 456:Middlewares/Third_Party/LwIP/src/api/api_msg.c **** 
 355              		.loc 1 456 3 is_stmt 1 view .LVU83
 456:Middlewares/Third_Party/LwIP/src/api/api_msg.c **** 
 356              		.loc 1 456 15 is_stmt 0 view .LVU84
 357 0020 6270     		strb	r2, [r4, #1]
 458:Middlewares/Third_Party/LwIP/src/api/api_msg.c **** 
 358              		.loc 1 458 3 is_stmt 1 view .LVU85
 359 0022 FFF7FEFF 		bl	sys_arch_unprotect
 360              	.LVL30:
 461:Middlewares/Third_Party/LwIP/src/api/api_msg.c ****   /* Try to release selects pending on 'read' or 'write', too.
 361              		.loc 1 461 3 view .LVU86
 362 0026 636A     		ldr	r3, [r4, #36]
 363 0028 1BB1     		cbz	r3, .L29
 461:Middlewares/Third_Party/LwIP/src/api/api_msg.c ****   /* Try to release selects pending on 'read' or 'write', too.
 364              		.loc 1 461 3 discriminator 1 view .LVU87
 365 002a 0022     		movs	r2, #0
 366 002c 0421     		movs	r1, #4
 367 002e 2046     		mov	r0, r4
 368 0030 9847     		blx	r3
 369              	.LVL31:
 370              	.L29:
 461:Middlewares/Third_Party/LwIP/src/api/api_msg.c ****   /* Try to release selects pending on 'read' or 'write', too.
 371              		.loc 1 461 40 view .LVU88
 464:Middlewares/Third_Party/LwIP/src/api/api_msg.c ****   API_EVENT(conn, NETCONN_EVT_SENDPLUS, 0);
 372              		.loc 1 464 3 view .LVU89
 373 0032 636A     		ldr	r3, [r4, #36]
 374 0034 1BB1     		cbz	r3, .L30
 464:Middlewares/Third_Party/LwIP/src/api/api_msg.c ****   API_EVENT(conn, NETCONN_EVT_SENDPLUS, 0);
 375              		.loc 1 464 3 discriminator 1 view .LVU90
 376 0036 0022     		movs	r2, #0
 377 0038 1146     		mov	r1, r2
 378 003a 2046     		mov	r0, r4
 379 003c 9847     		blx	r3
 380              	.LVL32:
 381              	.L30:
 464:Middlewares/Third_Party/LwIP/src/api/api_msg.c ****   API_EVENT(conn, NETCONN_EVT_SENDPLUS, 0);
 382              		.loc 1 464 42 view .LVU91
 465:Middlewares/Third_Party/LwIP/src/api/api_msg.c **** 
 383              		.loc 1 465 3 view .LVU92
 384 003e 636A     		ldr	r3, [r4, #36]
 385 0040 1BB1     		cbz	r3, .L31
 465:Middlewares/Third_Party/LwIP/src/api/api_msg.c **** 
ARM GAS  C:\Users\hh\AppData\Local\Temp\ccfq6ENc.s 			page 21


 386              		.loc 1 465 3 discriminator 1 view .LVU93
 387 0042 0022     		movs	r2, #0
 388 0044 0221     		movs	r1, #2
 389 0046 2046     		mov	r0, r4
 390 0048 9847     		blx	r3
 391              	.LVL33:
 392              	.L31:
 465:Middlewares/Third_Party/LwIP/src/api/api_msg.c **** 
 393              		.loc 1 465 43 view .LVU94
 467:Middlewares/Third_Party/LwIP/src/api/api_msg.c ****   /* pass error message to recvmbox to wake up pending recv */
 394              		.loc 1 467 3 view .LVU95
 467:Middlewares/Third_Party/LwIP/src/api/api_msg.c ****   /* pass error message to recvmbox to wake up pending recv */
 395              		.loc 1 467 14 is_stmt 0 view .LVU96
 396 004a 2846     		mov	r0, r5
 397 004c FFF7FEFF 		bl	lwip_netconn_err_to_msg
 398              	.LVL34:
 399 0050 8046     		mov	r8, r0
 400              	.LVL35:
 469:Middlewares/Third_Party/LwIP/src/api/api_msg.c ****     /* use trypost to prevent deadlock */
 401              		.loc 1 469 3 is_stmt 1 view .LVU97
 469:Middlewares/Third_Party/LwIP/src/api/api_msg.c ****     /* use trypost to prevent deadlock */
 402              		.loc 1 469 7 is_stmt 0 view .LVU98
 403 0052 04F11007 		add	r7, r4, #16
 404 0056 3846     		mov	r0, r7
 405              	.LVL36:
 469:Middlewares/Third_Party/LwIP/src/api/api_msg.c ****     /* use trypost to prevent deadlock */
 406              		.loc 1 469 7 view .LVU99
 407 0058 FFF7FEFF 		bl	sys_mbox_valid
 408              	.LVL37:
 469:Middlewares/Third_Party/LwIP/src/api/api_msg.c ****     /* use trypost to prevent deadlock */
 409              		.loc 1 469 6 discriminator 1 view .LVU100
 410 005c E8B9     		cbnz	r0, .L43
 411              	.L32:
 474:Middlewares/Third_Party/LwIP/src/api/api_msg.c ****     /* use trypost to prevent deadlock */
 412              		.loc 1 474 3 is_stmt 1 view .LVU101
 474:Middlewares/Third_Party/LwIP/src/api/api_msg.c ****     /* use trypost to prevent deadlock */
 413              		.loc 1 474 7 is_stmt 0 view .LVU102
 414 005e 04F11407 		add	r7, r4, #20
 415 0062 3846     		mov	r0, r7
 416 0064 FFF7FEFF 		bl	sys_mbox_valid
 417              	.LVL38:
 474:Middlewares/Third_Party/LwIP/src/api/api_msg.c ****     /* use trypost to prevent deadlock */
 418              		.loc 1 474 6 discriminator 1 view .LVU103
 419 0068 E0B9     		cbnz	r0, .L44
 420              	.L33:
 479:Middlewares/Third_Party/LwIP/src/api/api_msg.c ****       (old_state == NETCONN_CONNECT)) {
 421              		.loc 1 479 3 is_stmt 1 view .LVU104
 479:Middlewares/Third_Party/LwIP/src/api/api_msg.c ****       (old_state == NETCONN_CONNECT)) {
 422              		.loc 1 479 6 is_stmt 0 view .LVU105
 423 006a 042E     		cmp	r6, #4
 424 006c 18BF     		it	ne
 425 006e 012E     		cmpne	r6, #1
 426 0070 1DD0     		beq	.L34
 479:Middlewares/Third_Party/LwIP/src/api/api_msg.c ****       (old_state == NETCONN_CONNECT)) {
 427              		.loc 1 479 68 discriminator 1 view .LVU106
 428 0072 032E     		cmp	r6, #3
 429 0074 1BD0     		beq	.L34
ARM GAS  C:\Users\hh\AppData\Local\Temp\ccfq6ENc.s 			page 22


 506:Middlewares/Third_Party/LwIP/src/api/api_msg.c ****   }
 430              		.loc 1 506 5 is_stmt 1 view .LVU107
 506:Middlewares/Third_Party/LwIP/src/api/api_msg.c ****   }
 431              		.loc 1 506 5 view .LVU108
 432 0076 236A     		ldr	r3, [r4, #32]
 433 0078 93B3     		cbz	r3, .L27
 506:Middlewares/Third_Party/LwIP/src/api/api_msg.c ****   }
 434              		.loc 1 506 5 discriminator 1 view .LVU109
 506:Middlewares/Third_Party/LwIP/src/api/api_msg.c ****   }
 435              		.loc 1 506 5 discriminator 1 view .LVU110
 436 007a 244B     		ldr	r3, .L48
 437 007c 4FF4FD72 		mov	r2, #506
 438 0080 2349     		ldr	r1, .L48+4
 439 0082 2448     		ldr	r0, .L48+8
 440 0084 FFF7FEFF 		bl	printf
 441              	.LVL39:
 506:Middlewares/Third_Party/LwIP/src/api/api_msg.c ****   }
 442              		.loc 1 506 5 view .LVU111
 506:Middlewares/Third_Party/LwIP/src/api/api_msg.c ****   }
 443              		.loc 1 506 5 view .LVU112
 508:Middlewares/Third_Party/LwIP/src/api/api_msg.c **** 
 444              		.loc 1 508 1 is_stmt 0 view .LVU113
 445 0088 2AE0     		b	.L27
 446              	.LVL40:
 447              	.L42:
 443:Middlewares/Third_Party/LwIP/src/api/api_msg.c **** 
 448              		.loc 1 443 3 is_stmt 1 discriminator 1 view .LVU114
 443:Middlewares/Third_Party/LwIP/src/api/api_msg.c **** 
 449              		.loc 1 443 3 discriminator 1 view .LVU115
 450 008a 204B     		ldr	r3, .L48
 451 008c 40F2BB12 		movw	r2, #443
 452 0090 2149     		ldr	r1, .L48+12
 453              	.LVL41:
 443:Middlewares/Third_Party/LwIP/src/api/api_msg.c **** 
 454              		.loc 1 443 3 is_stmt 0 discriminator 1 view .LVU116
 455 0092 2048     		ldr	r0, .L48+8
 456              	.LVL42:
 443:Middlewares/Third_Party/LwIP/src/api/api_msg.c **** 
 457              		.loc 1 443 3 discriminator 1 view .LVU117
 458 0094 FFF7FEFF 		bl	printf
 459              	.LVL43:
 460 0098 B8E7     		b	.L28
 461              	.LVL44:
 462              	.L43:
 471:Middlewares/Third_Party/LwIP/src/api/api_msg.c ****   }
 463              		.loc 1 471 5 is_stmt 1 view .LVU118
 464 009a 4146     		mov	r1, r8
 465 009c 3846     		mov	r0, r7
 466 009e FFF7FEFF 		bl	sys_mbox_trypost
 467              	.LVL45:
 468 00a2 DCE7     		b	.L32
 469              	.L44:
 476:Middlewares/Third_Party/LwIP/src/api/api_msg.c ****   }
 470              		.loc 1 476 5 view .LVU119
 471 00a4 4146     		mov	r1, r8
 472 00a6 3846     		mov	r0, r7
 473 00a8 FFF7FEFF 		bl	sys_mbox_trypost
ARM GAS  C:\Users\hh\AppData\Local\Temp\ccfq6ENc.s 			page 23


 474              	.LVL46:
 475 00ac DDE7     		b	.L33
 476              	.L34:
 477              	.LBB2:
 483:Middlewares/Third_Party/LwIP/src/api/api_msg.c ****     SET_NONBLOCKING_CONNECT(conn, 0);
 478              		.loc 1 483 5 view .LVU120
 483:Middlewares/Third_Party/LwIP/src/api/api_msg.c ****     SET_NONBLOCKING_CONNECT(conn, 0);
 479              		.loc 1 483 35 is_stmt 0 view .LVU121
 480 00ae 237F     		ldrb	r3, [r4, #28]	@ zero_extendqisi2
 481              	.LVL47:
 484:Middlewares/Third_Party/LwIP/src/api/api_msg.c **** 
 482              		.loc 1 484 5 is_stmt 1 view .LVU122
 484:Middlewares/Third_Party/LwIP/src/api/api_msg.c **** 
 483              		.loc 1 484 5 view .LVU123
 484:Middlewares/Third_Party/LwIP/src/api/api_msg.c **** 
 484              		.loc 1 484 5 discriminator 2 view .LVU124
 484:Middlewares/Third_Party/LwIP/src/api/api_msg.c **** 
 485              		.loc 1 484 5 discriminator 2 view .LVU125
 486 00b0 03F0FB02 		and	r2, r3, #251
 487 00b4 2277     		strb	r2, [r4, #28]
 484:Middlewares/Third_Party/LwIP/src/api/api_msg.c **** 
 488              		.loc 1 484 5 view .LVU126
 484:Middlewares/Third_Party/LwIP/src/api/api_msg.c **** 
 489              		.loc 1 484 5 view .LVU127
 486:Middlewares/Third_Party/LwIP/src/api/api_msg.c ****       sys_sem_t *op_completed_sem;
 490              		.loc 1 486 5 view .LVU128
 486:Middlewares/Third_Party/LwIP/src/api/api_msg.c ****       sys_sem_t *op_completed_sem;
 491              		.loc 1 486 8 is_stmt 0 view .LVU129
 492 00b6 13F0040F 		tst	r3, #4
 493 00ba 11D1     		bne	.L27
 494              	.LBB3:
 487:Middlewares/Third_Party/LwIP/src/api/api_msg.c ****       /* set error return code */
 495              		.loc 1 487 7 is_stmt 1 view .LVU130
 489:Middlewares/Third_Party/LwIP/src/api/api_msg.c ****       if (old_state == NETCONN_CLOSE) {
 496              		.loc 1 489 7 view .LVU131
 489:Middlewares/Third_Party/LwIP/src/api/api_msg.c ****       if (old_state == NETCONN_CLOSE) {
 497              		.loc 1 489 7 view .LVU132
 498 00bc 236A     		ldr	r3, [r4, #32]
 499              	.LVL48:
 489:Middlewares/Third_Party/LwIP/src/api/api_msg.c ****       if (old_state == NETCONN_CLOSE) {
 500              		.loc 1 489 7 is_stmt 0 view .LVU133
 501 00be 8BB1     		cbz	r3, .L45
 502              	.L37:
 489:Middlewares/Third_Party/LwIP/src/api/api_msg.c ****       if (old_state == NETCONN_CLOSE) {
 503              		.loc 1 489 7 is_stmt 1 view .LVU134
 489:Middlewares/Third_Party/LwIP/src/api/api_msg.c ****       if (old_state == NETCONN_CLOSE) {
 504              		.loc 1 489 7 view .LVU135
 490:Middlewares/Third_Party/LwIP/src/api/api_msg.c ****         /* let close succeed: the connection is closed after all... */
 505              		.loc 1 490 7 view .LVU136
 490:Middlewares/Third_Party/LwIP/src/api/api_msg.c ****         /* let close succeed: the connection is closed after all... */
 506              		.loc 1 490 10 is_stmt 0 view .LVU137
 507 00c0 042E     		cmp	r6, #4
 508 00c2 17D0     		beq	.L46
 495:Middlewares/Third_Party/LwIP/src/api/api_msg.c ****       }
 509              		.loc 1 495 9 is_stmt 1 view .LVU138
 495:Middlewares/Third_Party/LwIP/src/api/api_msg.c ****       }
 510              		.loc 1 495 13 is_stmt 0 view .LVU139
ARM GAS  C:\Users\hh\AppData\Local\Temp\ccfq6ENc.s 			page 24


 511 00c4 236A     		ldr	r3, [r4, #32]
 495:Middlewares/Third_Party/LwIP/src/api/api_msg.c ****       }
 512              		.loc 1 495 32 view .LVU140
 513 00c6 1D71     		strb	r5, [r3, #4]
 514              	.L39:
 497:Middlewares/Third_Party/LwIP/src/api/api_msg.c ****       LWIP_ASSERT("invalid op_completed_sem", sys_sem_valid(op_completed_sem));
 515              		.loc 1 497 7 is_stmt 1 view .LVU141
 497:Middlewares/Third_Party/LwIP/src/api/api_msg.c ****       LWIP_ASSERT("invalid op_completed_sem", sys_sem_valid(op_completed_sem));
 516              		.loc 1 497 26 is_stmt 0 view .LVU142
 517 00c8 236A     		ldr	r3, [r4, #32]
 518 00ca 1D68     		ldr	r5, [r3]
 519              	.LVL49:
 497:Middlewares/Third_Party/LwIP/src/api/api_msg.c ****       LWIP_ASSERT("invalid op_completed_sem", sys_sem_valid(op_completed_sem));
 520              		.loc 1 497 24 view .LVU143
 521 00cc 0C35     		adds	r5, r5, #12
 522              	.LVL50:
 498:Middlewares/Third_Party/LwIP/src/api/api_msg.c ****       conn->current_msg = NULL;
 523              		.loc 1 498 7 is_stmt 1 view .LVU144
 498:Middlewares/Third_Party/LwIP/src/api/api_msg.c ****       conn->current_msg = NULL;
 524              		.loc 1 498 7 view .LVU145
 525 00ce 2846     		mov	r0, r5
 526 00d0 FFF7FEFF 		bl	sys_sem_valid
 527              	.LVL51:
 498:Middlewares/Third_Party/LwIP/src/api/api_msg.c ****       conn->current_msg = NULL;
 528              		.loc 1 498 7 is_stmt 0 discriminator 1 view .LVU146
 529 00d4 90B1     		cbz	r0, .L47
 530              	.L40:
 498:Middlewares/Third_Party/LwIP/src/api/api_msg.c ****       conn->current_msg = NULL;
 531              		.loc 1 498 7 is_stmt 1 view .LVU147
 498:Middlewares/Third_Party/LwIP/src/api/api_msg.c ****       conn->current_msg = NULL;
 532              		.loc 1 498 7 view .LVU148
 499:Middlewares/Third_Party/LwIP/src/api/api_msg.c ****       /* wake up the waiting task */
 533              		.loc 1 499 7 view .LVU149
 499:Middlewares/Third_Party/LwIP/src/api/api_msg.c ****       /* wake up the waiting task */
 534              		.loc 1 499 25 is_stmt 0 view .LVU150
 535 00d6 0023     		movs	r3, #0
 536 00d8 2362     		str	r3, [r4, #32]
 501:Middlewares/Third_Party/LwIP/src/api/api_msg.c ****     } else {
 537              		.loc 1 501 7 is_stmt 1 view .LVU151
 538 00da 2846     		mov	r0, r5
 539 00dc FFF7FEFF 		bl	sys_sem_signal
 540              	.LVL52:
 541              	.L27:
 501:Middlewares/Third_Party/LwIP/src/api/api_msg.c ****     } else {
 542              		.loc 1 501 7 is_stmt 0 view .LVU152
 543              	.LBE3:
 544              	.LBE2:
 508:Middlewares/Third_Party/LwIP/src/api/api_msg.c **** 
 545              		.loc 1 508 1 view .LVU153
 546 00e0 BDE8F081 		pop	{r4, r5, r6, r7, r8, pc}
 547              	.LVL53:
 548              	.L45:
 549              	.LBB5:
 550              	.LBB4:
 489:Middlewares/Third_Party/LwIP/src/api/api_msg.c ****       if (old_state == NETCONN_CLOSE) {
 551              		.loc 1 489 7 is_stmt 1 discriminator 1 view .LVU154
 489:Middlewares/Third_Party/LwIP/src/api/api_msg.c ****       if (old_state == NETCONN_CLOSE) {
ARM GAS  C:\Users\hh\AppData\Local\Temp\ccfq6ENc.s 			page 25


 552              		.loc 1 489 7 discriminator 1 view .LVU155
 553 00e4 094B     		ldr	r3, .L48
 554 00e6 40F2E912 		movw	r2, #489
 555 00ea 0C49     		ldr	r1, .L48+16
 556 00ec 0948     		ldr	r0, .L48+8
 557 00ee FFF7FEFF 		bl	printf
 558              	.LVL54:
 559 00f2 E5E7     		b	.L37
 560              	.L46:
 492:Middlewares/Third_Party/LwIP/src/api/api_msg.c ****       } else {
 561              		.loc 1 492 9 view .LVU156
 492:Middlewares/Third_Party/LwIP/src/api/api_msg.c ****       } else {
 562              		.loc 1 492 13 is_stmt 0 view .LVU157
 563 00f4 236A     		ldr	r3, [r4, #32]
 492:Middlewares/Third_Party/LwIP/src/api/api_msg.c ****       } else {
 564              		.loc 1 492 32 view .LVU158
 565 00f6 0022     		movs	r2, #0
 566 00f8 1A71     		strb	r2, [r3, #4]
 567 00fa E5E7     		b	.L39
 568              	.LVL55:
 569              	.L47:
 498:Middlewares/Third_Party/LwIP/src/api/api_msg.c ****       conn->current_msg = NULL;
 570              		.loc 1 498 7 is_stmt 1 discriminator 2 view .LVU159
 498:Middlewares/Third_Party/LwIP/src/api/api_msg.c ****       conn->current_msg = NULL;
 571              		.loc 1 498 7 discriminator 2 view .LVU160
 572 00fc 034B     		ldr	r3, .L48
 573 00fe 4FF4F972 		mov	r2, #498
 574 0102 0749     		ldr	r1, .L48+20
 575 0104 0348     		ldr	r0, .L48+8
 576 0106 FFF7FEFF 		bl	printf
 577              	.LVL56:
 578 010a E4E7     		b	.L40
 579              	.L49:
 580              		.align	2
 581              	.L48:
 582 010c 00000000 		.word	.LC0
 583 0110 48000000 		.word	.LC7
 584 0114 40000000 		.word	.LC2
 585 0118 00000000 		.word	.LC4
 586 011c 10000000 		.word	.LC5
 587 0120 2C000000 		.word	.LC6
 588              	.LBE4:
 589              	.LBE5:
 590              		.cfi_endproc
 591              	.LFE177:
 593              		.section	.rodata.lwip_netconn_do_connected.str1.4,"aMS",%progbits,1
 594              		.align	2
 595              	.LC8:
 596 0000 636F6E6E 		.ascii	"conn->state == NETCONN_CONNECT\000"
 596      2D3E7374 
 596      61746520 
 596      3D3D204E 
 596      4554434F 
 597 001f 00       		.align	2
 598              	.LC9:
 599 0020 28636F6E 		.ascii	"(conn->current_msg != NULL) || conn->in_non_blockin"
 599      6E2D3E63 
ARM GAS  C:\Users\hh\AppData\Local\Temp\ccfq6ENc.s 			page 26


 599      75727265 
 599      6E745F6D 
 599      73672021 
 600 0053 675F636F 		.ascii	"g_connect\000"
 600      6E6E6563 
 600      7400
 601 005d 000000   		.align	2
 602              	.LC10:
 603 0060 626C6F63 		.ascii	"blocking connect state error\000"
 603      6B696E67 
 603      20636F6E 
 603      6E656374 
 603      20737461 
 604              		.section	.text.lwip_netconn_do_connected,"ax",%progbits
 605              		.align	1
 606              		.syntax unified
 607              		.thumb
 608              		.thumb_func
 610              	lwip_netconn_do_connected:
 611              	.LVL57:
 612              	.LFB189:
 675:Middlewares/Third_Party/LwIP/src/api/api_msg.c **** 
 676:Middlewares/Third_Party/LwIP/src/api/api_msg.c **** /**
 677:Middlewares/Third_Party/LwIP/src/api/api_msg.c ****  * Create a new pcb of a specific type inside a netconn.
 678:Middlewares/Third_Party/LwIP/src/api/api_msg.c ****  * Called from netconn_new_with_proto_and_callback.
 679:Middlewares/Third_Party/LwIP/src/api/api_msg.c ****  *
 680:Middlewares/Third_Party/LwIP/src/api/api_msg.c ****  * @param m the api_msg describing the connection type
 681:Middlewares/Third_Party/LwIP/src/api/api_msg.c ****  */
 682:Middlewares/Third_Party/LwIP/src/api/api_msg.c **** void
 683:Middlewares/Third_Party/LwIP/src/api/api_msg.c **** lwip_netconn_do_newconn(void *m)
 684:Middlewares/Third_Party/LwIP/src/api/api_msg.c **** {
 685:Middlewares/Third_Party/LwIP/src/api/api_msg.c ****   struct api_msg *msg = (struct api_msg *)m;
 686:Middlewares/Third_Party/LwIP/src/api/api_msg.c **** 
 687:Middlewares/Third_Party/LwIP/src/api/api_msg.c ****   msg->err = ERR_OK;
 688:Middlewares/Third_Party/LwIP/src/api/api_msg.c ****   if (msg->conn->pcb.tcp == NULL) {
 689:Middlewares/Third_Party/LwIP/src/api/api_msg.c ****     pcb_new(msg);
 690:Middlewares/Third_Party/LwIP/src/api/api_msg.c ****   }
 691:Middlewares/Third_Party/LwIP/src/api/api_msg.c ****   /* Else? This "new" connection already has a PCB allocated. */
 692:Middlewares/Third_Party/LwIP/src/api/api_msg.c ****   /* Is this an error condition? Should it be deleted? */
 693:Middlewares/Third_Party/LwIP/src/api/api_msg.c ****   /* We currently just are happy and return. */
 694:Middlewares/Third_Party/LwIP/src/api/api_msg.c **** 
 695:Middlewares/Third_Party/LwIP/src/api/api_msg.c ****   TCPIP_APIMSG_ACK(msg);
 696:Middlewares/Third_Party/LwIP/src/api/api_msg.c **** }
 697:Middlewares/Third_Party/LwIP/src/api/api_msg.c **** 
 698:Middlewares/Third_Party/LwIP/src/api/api_msg.c **** /**
 699:Middlewares/Third_Party/LwIP/src/api/api_msg.c ****  * Create a new netconn (of a specific type) that has a callback function.
 700:Middlewares/Third_Party/LwIP/src/api/api_msg.c ****  * The corresponding pcb is NOT created!
 701:Middlewares/Third_Party/LwIP/src/api/api_msg.c ****  *
 702:Middlewares/Third_Party/LwIP/src/api/api_msg.c ****  * @param t the type of 'connection' to create (@see enum netconn_type)
 703:Middlewares/Third_Party/LwIP/src/api/api_msg.c ****  * @param callback a function to call on status changes (RX available, TX'ed)
 704:Middlewares/Third_Party/LwIP/src/api/api_msg.c ****  * @return a newly allocated struct netconn or
 705:Middlewares/Third_Party/LwIP/src/api/api_msg.c ****  *         NULL on memory error
 706:Middlewares/Third_Party/LwIP/src/api/api_msg.c ****  */
 707:Middlewares/Third_Party/LwIP/src/api/api_msg.c **** struct netconn *
 708:Middlewares/Third_Party/LwIP/src/api/api_msg.c **** netconn_alloc(enum netconn_type t, netconn_callback callback)
 709:Middlewares/Third_Party/LwIP/src/api/api_msg.c **** {
 710:Middlewares/Third_Party/LwIP/src/api/api_msg.c ****   struct netconn *conn;
ARM GAS  C:\Users\hh\AppData\Local\Temp\ccfq6ENc.s 			page 27


 711:Middlewares/Third_Party/LwIP/src/api/api_msg.c ****   int size;
 712:Middlewares/Third_Party/LwIP/src/api/api_msg.c ****   u8_t init_flags = 0;
 713:Middlewares/Third_Party/LwIP/src/api/api_msg.c **** 
 714:Middlewares/Third_Party/LwIP/src/api/api_msg.c ****   conn = (struct netconn *)memp_malloc(MEMP_NETCONN);
 715:Middlewares/Third_Party/LwIP/src/api/api_msg.c ****   if (conn == NULL) {
 716:Middlewares/Third_Party/LwIP/src/api/api_msg.c ****     return NULL;
 717:Middlewares/Third_Party/LwIP/src/api/api_msg.c ****   }
 718:Middlewares/Third_Party/LwIP/src/api/api_msg.c **** 
 719:Middlewares/Third_Party/LwIP/src/api/api_msg.c ****   conn->pending_err = ERR_OK;
 720:Middlewares/Third_Party/LwIP/src/api/api_msg.c ****   conn->type = t;
 721:Middlewares/Third_Party/LwIP/src/api/api_msg.c ****   conn->pcb.tcp = NULL;
 722:Middlewares/Third_Party/LwIP/src/api/api_msg.c **** #if LWIP_NETCONN_FULLDUPLEX
 723:Middlewares/Third_Party/LwIP/src/api/api_msg.c ****   conn->mbox_threads_waiting = 0;
 724:Middlewares/Third_Party/LwIP/src/api/api_msg.c **** #endif
 725:Middlewares/Third_Party/LwIP/src/api/api_msg.c **** 
 726:Middlewares/Third_Party/LwIP/src/api/api_msg.c ****   /* If all sizes are the same, every compiler should optimize this switch to nothing */
 727:Middlewares/Third_Party/LwIP/src/api/api_msg.c ****   switch (NETCONNTYPE_GROUP(t)) {
 728:Middlewares/Third_Party/LwIP/src/api/api_msg.c **** #if LWIP_RAW
 729:Middlewares/Third_Party/LwIP/src/api/api_msg.c ****     case NETCONN_RAW:
 730:Middlewares/Third_Party/LwIP/src/api/api_msg.c ****       size = DEFAULT_RAW_RECVMBOX_SIZE;
 731:Middlewares/Third_Party/LwIP/src/api/api_msg.c ****       break;
 732:Middlewares/Third_Party/LwIP/src/api/api_msg.c **** #endif /* LWIP_RAW */
 733:Middlewares/Third_Party/LwIP/src/api/api_msg.c **** #if LWIP_UDP
 734:Middlewares/Third_Party/LwIP/src/api/api_msg.c ****     case NETCONN_UDP:
 735:Middlewares/Third_Party/LwIP/src/api/api_msg.c ****       size = DEFAULT_UDP_RECVMBOX_SIZE;
 736:Middlewares/Third_Party/LwIP/src/api/api_msg.c **** #if LWIP_NETBUF_RECVINFO
 737:Middlewares/Third_Party/LwIP/src/api/api_msg.c ****       init_flags |= NETCONN_FLAG_PKTINFO;
 738:Middlewares/Third_Party/LwIP/src/api/api_msg.c **** #endif /* LWIP_NETBUF_RECVINFO */
 739:Middlewares/Third_Party/LwIP/src/api/api_msg.c ****       break;
 740:Middlewares/Third_Party/LwIP/src/api/api_msg.c **** #endif /* LWIP_UDP */
 741:Middlewares/Third_Party/LwIP/src/api/api_msg.c **** #if LWIP_TCP
 742:Middlewares/Third_Party/LwIP/src/api/api_msg.c ****     case NETCONN_TCP:
 743:Middlewares/Third_Party/LwIP/src/api/api_msg.c ****       size = DEFAULT_TCP_RECVMBOX_SIZE;
 744:Middlewares/Third_Party/LwIP/src/api/api_msg.c ****       break;
 745:Middlewares/Third_Party/LwIP/src/api/api_msg.c **** #endif /* LWIP_TCP */
 746:Middlewares/Third_Party/LwIP/src/api/api_msg.c ****     default:
 747:Middlewares/Third_Party/LwIP/src/api/api_msg.c ****       LWIP_ASSERT("netconn_alloc: undefined netconn_type", 0);
 748:Middlewares/Third_Party/LwIP/src/api/api_msg.c ****       goto free_and_return;
 749:Middlewares/Third_Party/LwIP/src/api/api_msg.c ****   }
 750:Middlewares/Third_Party/LwIP/src/api/api_msg.c **** 
 751:Middlewares/Third_Party/LwIP/src/api/api_msg.c ****   if (sys_mbox_new(&conn->recvmbox, size) != ERR_OK) {
 752:Middlewares/Third_Party/LwIP/src/api/api_msg.c ****     goto free_and_return;
 753:Middlewares/Third_Party/LwIP/src/api/api_msg.c ****   }
 754:Middlewares/Third_Party/LwIP/src/api/api_msg.c **** #if !LWIP_NETCONN_SEM_PER_THREAD
 755:Middlewares/Third_Party/LwIP/src/api/api_msg.c ****   if (sys_sem_new(&conn->op_completed, 0) != ERR_OK) {
 756:Middlewares/Third_Party/LwIP/src/api/api_msg.c ****     sys_mbox_free(&conn->recvmbox);
 757:Middlewares/Third_Party/LwIP/src/api/api_msg.c ****     goto free_and_return;
 758:Middlewares/Third_Party/LwIP/src/api/api_msg.c ****   }
 759:Middlewares/Third_Party/LwIP/src/api/api_msg.c **** #endif
 760:Middlewares/Third_Party/LwIP/src/api/api_msg.c **** 
 761:Middlewares/Third_Party/LwIP/src/api/api_msg.c **** #if LWIP_TCP
 762:Middlewares/Third_Party/LwIP/src/api/api_msg.c ****   sys_mbox_set_invalid(&conn->acceptmbox);
 763:Middlewares/Third_Party/LwIP/src/api/api_msg.c **** #endif
 764:Middlewares/Third_Party/LwIP/src/api/api_msg.c ****   conn->state        = NETCONN_NONE;
 765:Middlewares/Third_Party/LwIP/src/api/api_msg.c ****   /* initialize socket to -1 since 0 is a valid socket */
 766:Middlewares/Third_Party/LwIP/src/api/api_msg.c ****   conn->callback_arg.socket = -1;
 767:Middlewares/Third_Party/LwIP/src/api/api_msg.c ****   conn->callback     = callback;
ARM GAS  C:\Users\hh\AppData\Local\Temp\ccfq6ENc.s 			page 28


 768:Middlewares/Third_Party/LwIP/src/api/api_msg.c **** #if LWIP_TCP
 769:Middlewares/Third_Party/LwIP/src/api/api_msg.c ****   conn->current_msg  = NULL;
 770:Middlewares/Third_Party/LwIP/src/api/api_msg.c **** #endif /* LWIP_TCP */
 771:Middlewares/Third_Party/LwIP/src/api/api_msg.c **** #if LWIP_SO_SNDTIMEO
 772:Middlewares/Third_Party/LwIP/src/api/api_msg.c ****   conn->send_timeout = 0;
 773:Middlewares/Third_Party/LwIP/src/api/api_msg.c **** #endif /* LWIP_SO_SNDTIMEO */
 774:Middlewares/Third_Party/LwIP/src/api/api_msg.c **** #if LWIP_SO_RCVTIMEO
 775:Middlewares/Third_Party/LwIP/src/api/api_msg.c ****   conn->recv_timeout = 0;
 776:Middlewares/Third_Party/LwIP/src/api/api_msg.c **** #endif /* LWIP_SO_RCVTIMEO */
 777:Middlewares/Third_Party/LwIP/src/api/api_msg.c **** #if LWIP_SO_RCVBUF
 778:Middlewares/Third_Party/LwIP/src/api/api_msg.c ****   conn->recv_bufsize = RECV_BUFSIZE_DEFAULT;
 779:Middlewares/Third_Party/LwIP/src/api/api_msg.c ****   conn->recv_avail   = 0;
 780:Middlewares/Third_Party/LwIP/src/api/api_msg.c **** #endif /* LWIP_SO_RCVBUF */
 781:Middlewares/Third_Party/LwIP/src/api/api_msg.c **** #if LWIP_SO_LINGER
 782:Middlewares/Third_Party/LwIP/src/api/api_msg.c ****   conn->linger = -1;
 783:Middlewares/Third_Party/LwIP/src/api/api_msg.c **** #endif /* LWIP_SO_LINGER */
 784:Middlewares/Third_Party/LwIP/src/api/api_msg.c ****   conn->flags = init_flags;
 785:Middlewares/Third_Party/LwIP/src/api/api_msg.c ****   return conn;
 786:Middlewares/Third_Party/LwIP/src/api/api_msg.c **** free_and_return:
 787:Middlewares/Third_Party/LwIP/src/api/api_msg.c ****   memp_free(MEMP_NETCONN, conn);
 788:Middlewares/Third_Party/LwIP/src/api/api_msg.c ****   return NULL;
 789:Middlewares/Third_Party/LwIP/src/api/api_msg.c **** }
 790:Middlewares/Third_Party/LwIP/src/api/api_msg.c **** 
 791:Middlewares/Third_Party/LwIP/src/api/api_msg.c **** /**
 792:Middlewares/Third_Party/LwIP/src/api/api_msg.c ****  * Delete a netconn and all its resources.
 793:Middlewares/Third_Party/LwIP/src/api/api_msg.c ****  * The pcb is NOT freed (since we might not be in the right thread context do this).
 794:Middlewares/Third_Party/LwIP/src/api/api_msg.c ****  *
 795:Middlewares/Third_Party/LwIP/src/api/api_msg.c ****  * @param conn the netconn to free
 796:Middlewares/Third_Party/LwIP/src/api/api_msg.c ****  */
 797:Middlewares/Third_Party/LwIP/src/api/api_msg.c **** void
 798:Middlewares/Third_Party/LwIP/src/api/api_msg.c **** netconn_free(struct netconn *conn)
 799:Middlewares/Third_Party/LwIP/src/api/api_msg.c **** {
 800:Middlewares/Third_Party/LwIP/src/api/api_msg.c ****   LWIP_ASSERT("PCB must be deallocated outside this function", conn->pcb.tcp == NULL);
 801:Middlewares/Third_Party/LwIP/src/api/api_msg.c **** 
 802:Middlewares/Third_Party/LwIP/src/api/api_msg.c **** #if LWIP_NETCONN_FULLDUPLEX
 803:Middlewares/Third_Party/LwIP/src/api/api_msg.c ****   /* in fullduplex, netconn is drained here */
 804:Middlewares/Third_Party/LwIP/src/api/api_msg.c ****   netconn_drain(conn);
 805:Middlewares/Third_Party/LwIP/src/api/api_msg.c **** #endif /* LWIP_NETCONN_FULLDUPLEX */
 806:Middlewares/Third_Party/LwIP/src/api/api_msg.c **** 
 807:Middlewares/Third_Party/LwIP/src/api/api_msg.c ****   LWIP_ASSERT("recvmbox must be deallocated before calling this function",
 808:Middlewares/Third_Party/LwIP/src/api/api_msg.c ****               !sys_mbox_valid(&conn->recvmbox));
 809:Middlewares/Third_Party/LwIP/src/api/api_msg.c **** #if LWIP_TCP
 810:Middlewares/Third_Party/LwIP/src/api/api_msg.c ****   LWIP_ASSERT("acceptmbox must be deallocated before calling this function",
 811:Middlewares/Third_Party/LwIP/src/api/api_msg.c ****               !sys_mbox_valid(&conn->acceptmbox));
 812:Middlewares/Third_Party/LwIP/src/api/api_msg.c **** #endif /* LWIP_TCP */
 813:Middlewares/Third_Party/LwIP/src/api/api_msg.c **** 
 814:Middlewares/Third_Party/LwIP/src/api/api_msg.c **** #if !LWIP_NETCONN_SEM_PER_THREAD
 815:Middlewares/Third_Party/LwIP/src/api/api_msg.c ****   sys_sem_free(&conn->op_completed);
 816:Middlewares/Third_Party/LwIP/src/api/api_msg.c ****   sys_sem_set_invalid(&conn->op_completed);
 817:Middlewares/Third_Party/LwIP/src/api/api_msg.c **** #endif
 818:Middlewares/Third_Party/LwIP/src/api/api_msg.c **** 
 819:Middlewares/Third_Party/LwIP/src/api/api_msg.c ****   memp_free(MEMP_NETCONN, conn);
 820:Middlewares/Third_Party/LwIP/src/api/api_msg.c **** }
 821:Middlewares/Third_Party/LwIP/src/api/api_msg.c **** 
 822:Middlewares/Third_Party/LwIP/src/api/api_msg.c **** /**
 823:Middlewares/Third_Party/LwIP/src/api/api_msg.c ****  * Delete rcvmbox and acceptmbox of a netconn and free the left-over data in
 824:Middlewares/Third_Party/LwIP/src/api/api_msg.c ****  * these mboxes
ARM GAS  C:\Users\hh\AppData\Local\Temp\ccfq6ENc.s 			page 29


 825:Middlewares/Third_Party/LwIP/src/api/api_msg.c ****  *
 826:Middlewares/Third_Party/LwIP/src/api/api_msg.c ****  * @param conn the netconn to free
 827:Middlewares/Third_Party/LwIP/src/api/api_msg.c ****  * @bytes_drained bytes drained from recvmbox
 828:Middlewares/Third_Party/LwIP/src/api/api_msg.c ****  * @accepts_drained pending connections drained from acceptmbox
 829:Middlewares/Third_Party/LwIP/src/api/api_msg.c ****  */
 830:Middlewares/Third_Party/LwIP/src/api/api_msg.c **** static void
 831:Middlewares/Third_Party/LwIP/src/api/api_msg.c **** netconn_drain(struct netconn *conn)
 832:Middlewares/Third_Party/LwIP/src/api/api_msg.c **** {
 833:Middlewares/Third_Party/LwIP/src/api/api_msg.c ****   void *mem;
 834:Middlewares/Third_Party/LwIP/src/api/api_msg.c **** 
 835:Middlewares/Third_Party/LwIP/src/api/api_msg.c ****   /* This runs when mbox and netconn are marked as closed,
 836:Middlewares/Third_Party/LwIP/src/api/api_msg.c ****      so we don't need to lock against rx packets */
 837:Middlewares/Third_Party/LwIP/src/api/api_msg.c **** #if LWIP_NETCONN_FULLDUPLEX
 838:Middlewares/Third_Party/LwIP/src/api/api_msg.c ****   LWIP_ASSERT("netconn marked closed", conn->flags & NETCONN_FLAG_MBOXINVALID);
 839:Middlewares/Third_Party/LwIP/src/api/api_msg.c **** #endif /* LWIP_NETCONN_FULLDUPLEX */
 840:Middlewares/Third_Party/LwIP/src/api/api_msg.c **** 
 841:Middlewares/Third_Party/LwIP/src/api/api_msg.c ****   /* Delete and drain the recvmbox. */
 842:Middlewares/Third_Party/LwIP/src/api/api_msg.c ****   if (sys_mbox_valid(&conn->recvmbox)) {
 843:Middlewares/Third_Party/LwIP/src/api/api_msg.c ****     while (sys_mbox_tryfetch(&conn->recvmbox, &mem) != SYS_MBOX_EMPTY) {
 844:Middlewares/Third_Party/LwIP/src/api/api_msg.c **** #if LWIP_NETCONN_FULLDUPLEX
 845:Middlewares/Third_Party/LwIP/src/api/api_msg.c ****       if (!lwip_netconn_is_deallocated_msg(mem))
 846:Middlewares/Third_Party/LwIP/src/api/api_msg.c **** #endif /* LWIP_NETCONN_FULLDUPLEX */
 847:Middlewares/Third_Party/LwIP/src/api/api_msg.c ****       {
 848:Middlewares/Third_Party/LwIP/src/api/api_msg.c **** #if LWIP_TCP
 849:Middlewares/Third_Party/LwIP/src/api/api_msg.c ****         if (NETCONNTYPE_GROUP(conn->type) == NETCONN_TCP) {
 850:Middlewares/Third_Party/LwIP/src/api/api_msg.c ****           err_t err;
 851:Middlewares/Third_Party/LwIP/src/api/api_msg.c ****           if (!lwip_netconn_is_err_msg(mem, &err)) {
 852:Middlewares/Third_Party/LwIP/src/api/api_msg.c ****             pbuf_free((struct pbuf *)mem);
 853:Middlewares/Third_Party/LwIP/src/api/api_msg.c ****           }
 854:Middlewares/Third_Party/LwIP/src/api/api_msg.c ****         } else
 855:Middlewares/Third_Party/LwIP/src/api/api_msg.c **** #endif /* LWIP_TCP */
 856:Middlewares/Third_Party/LwIP/src/api/api_msg.c ****         {
 857:Middlewares/Third_Party/LwIP/src/api/api_msg.c ****           netbuf_delete((struct netbuf *)mem);
 858:Middlewares/Third_Party/LwIP/src/api/api_msg.c ****         }
 859:Middlewares/Third_Party/LwIP/src/api/api_msg.c ****       }
 860:Middlewares/Third_Party/LwIP/src/api/api_msg.c ****     }
 861:Middlewares/Third_Party/LwIP/src/api/api_msg.c ****     sys_mbox_free(&conn->recvmbox);
 862:Middlewares/Third_Party/LwIP/src/api/api_msg.c ****     sys_mbox_set_invalid(&conn->recvmbox);
 863:Middlewares/Third_Party/LwIP/src/api/api_msg.c ****   }
 864:Middlewares/Third_Party/LwIP/src/api/api_msg.c **** 
 865:Middlewares/Third_Party/LwIP/src/api/api_msg.c ****   /* Delete and drain the acceptmbox. */
 866:Middlewares/Third_Party/LwIP/src/api/api_msg.c **** #if LWIP_TCP
 867:Middlewares/Third_Party/LwIP/src/api/api_msg.c ****   if (sys_mbox_valid(&conn->acceptmbox)) {
 868:Middlewares/Third_Party/LwIP/src/api/api_msg.c ****     while (sys_mbox_tryfetch(&conn->acceptmbox, &mem) != SYS_MBOX_EMPTY) {
 869:Middlewares/Third_Party/LwIP/src/api/api_msg.c **** #if LWIP_NETCONN_FULLDUPLEX
 870:Middlewares/Third_Party/LwIP/src/api/api_msg.c ****       if (!lwip_netconn_is_deallocated_msg(mem))
 871:Middlewares/Third_Party/LwIP/src/api/api_msg.c **** #endif /* LWIP_NETCONN_FULLDUPLEX */
 872:Middlewares/Third_Party/LwIP/src/api/api_msg.c ****       {
 873:Middlewares/Third_Party/LwIP/src/api/api_msg.c ****         err_t err;
 874:Middlewares/Third_Party/LwIP/src/api/api_msg.c ****         if (!lwip_netconn_is_err_msg(mem, &err)) {
 875:Middlewares/Third_Party/LwIP/src/api/api_msg.c ****           struct netconn *newconn = (struct netconn *)mem;
 876:Middlewares/Third_Party/LwIP/src/api/api_msg.c ****           /* Only tcp pcbs have an acceptmbox, so no need to check conn->type */
 877:Middlewares/Third_Party/LwIP/src/api/api_msg.c ****           /* pcb might be set to NULL already by err_tcp() */
 878:Middlewares/Third_Party/LwIP/src/api/api_msg.c ****           /* drain recvmbox */
 879:Middlewares/Third_Party/LwIP/src/api/api_msg.c ****           netconn_drain(newconn);
 880:Middlewares/Third_Party/LwIP/src/api/api_msg.c ****           if (newconn->pcb.tcp != NULL) {
 881:Middlewares/Third_Party/LwIP/src/api/api_msg.c ****             tcp_abort(newconn->pcb.tcp);
ARM GAS  C:\Users\hh\AppData\Local\Temp\ccfq6ENc.s 			page 30


 882:Middlewares/Third_Party/LwIP/src/api/api_msg.c ****             newconn->pcb.tcp = NULL;
 883:Middlewares/Third_Party/LwIP/src/api/api_msg.c ****           }
 884:Middlewares/Third_Party/LwIP/src/api/api_msg.c ****           netconn_free(newconn);
 885:Middlewares/Third_Party/LwIP/src/api/api_msg.c ****         }
 886:Middlewares/Third_Party/LwIP/src/api/api_msg.c ****       }
 887:Middlewares/Third_Party/LwIP/src/api/api_msg.c ****     }
 888:Middlewares/Third_Party/LwIP/src/api/api_msg.c ****     sys_mbox_free(&conn->acceptmbox);
 889:Middlewares/Third_Party/LwIP/src/api/api_msg.c ****     sys_mbox_set_invalid(&conn->acceptmbox);
 890:Middlewares/Third_Party/LwIP/src/api/api_msg.c ****   }
 891:Middlewares/Third_Party/LwIP/src/api/api_msg.c **** #endif /* LWIP_TCP */
 892:Middlewares/Third_Party/LwIP/src/api/api_msg.c **** }
 893:Middlewares/Third_Party/LwIP/src/api/api_msg.c **** 
 894:Middlewares/Third_Party/LwIP/src/api/api_msg.c **** #if LWIP_NETCONN_FULLDUPLEX
 895:Middlewares/Third_Party/LwIP/src/api/api_msg.c **** static void
 896:Middlewares/Third_Party/LwIP/src/api/api_msg.c **** netconn_mark_mbox_invalid(struct netconn *conn)
 897:Middlewares/Third_Party/LwIP/src/api/api_msg.c **** {
 898:Middlewares/Third_Party/LwIP/src/api/api_msg.c ****   int i, num_waiting;
 899:Middlewares/Third_Party/LwIP/src/api/api_msg.c ****   void *msg = LWIP_CONST_CAST(void *, &netconn_deleted);
 900:Middlewares/Third_Party/LwIP/src/api/api_msg.c **** 
 901:Middlewares/Third_Party/LwIP/src/api/api_msg.c ****   /* Prevent new calls/threads from reading from the mbox */
 902:Middlewares/Third_Party/LwIP/src/api/api_msg.c ****   conn->flags |= NETCONN_FLAG_MBOXINVALID;
 903:Middlewares/Third_Party/LwIP/src/api/api_msg.c **** 
 904:Middlewares/Third_Party/LwIP/src/api/api_msg.c ****   SYS_ARCH_LOCKED(num_waiting = conn->mbox_threads_waiting);
 905:Middlewares/Third_Party/LwIP/src/api/api_msg.c ****   for (i = 0; i < num_waiting; i++) {
 906:Middlewares/Third_Party/LwIP/src/api/api_msg.c ****     if (sys_mbox_valid_val(conn->recvmbox)) {
 907:Middlewares/Third_Party/LwIP/src/api/api_msg.c ****       sys_mbox_trypost(&conn->recvmbox, msg);
 908:Middlewares/Third_Party/LwIP/src/api/api_msg.c ****     } else {
 909:Middlewares/Third_Party/LwIP/src/api/api_msg.c ****       sys_mbox_trypost(&conn->acceptmbox, msg);
 910:Middlewares/Third_Party/LwIP/src/api/api_msg.c ****     }
 911:Middlewares/Third_Party/LwIP/src/api/api_msg.c ****   }
 912:Middlewares/Third_Party/LwIP/src/api/api_msg.c **** }
 913:Middlewares/Third_Party/LwIP/src/api/api_msg.c **** #endif /* LWIP_NETCONN_FULLDUPLEX */
 914:Middlewares/Third_Party/LwIP/src/api/api_msg.c **** 
 915:Middlewares/Third_Party/LwIP/src/api/api_msg.c **** #if LWIP_TCP
 916:Middlewares/Third_Party/LwIP/src/api/api_msg.c **** /**
 917:Middlewares/Third_Party/LwIP/src/api/api_msg.c ****  * Internal helper function to close a TCP netconn: since this sometimes
 918:Middlewares/Third_Party/LwIP/src/api/api_msg.c ****  * doesn't work at the first attempt, this function is called from multiple
 919:Middlewares/Third_Party/LwIP/src/api/api_msg.c ****  * places.
 920:Middlewares/Third_Party/LwIP/src/api/api_msg.c ****  *
 921:Middlewares/Third_Party/LwIP/src/api/api_msg.c ****  * @param conn the TCP netconn to close
 922:Middlewares/Third_Party/LwIP/src/api/api_msg.c ****  */
 923:Middlewares/Third_Party/LwIP/src/api/api_msg.c **** static err_t
 924:Middlewares/Third_Party/LwIP/src/api/api_msg.c **** lwip_netconn_do_close_internal(struct netconn *conn  WRITE_DELAYED_PARAM)
 925:Middlewares/Third_Party/LwIP/src/api/api_msg.c **** {
 926:Middlewares/Third_Party/LwIP/src/api/api_msg.c ****   err_t err;
 927:Middlewares/Third_Party/LwIP/src/api/api_msg.c ****   u8_t shut, shut_rx, shut_tx, shut_close;
 928:Middlewares/Third_Party/LwIP/src/api/api_msg.c ****   u8_t close_finished = 0;
 929:Middlewares/Third_Party/LwIP/src/api/api_msg.c ****   struct tcp_pcb *tpcb;
 930:Middlewares/Third_Party/LwIP/src/api/api_msg.c **** #if LWIP_SO_LINGER
 931:Middlewares/Third_Party/LwIP/src/api/api_msg.c ****   u8_t linger_wait_required = 0;
 932:Middlewares/Third_Party/LwIP/src/api/api_msg.c **** #endif /* LWIP_SO_LINGER */
 933:Middlewares/Third_Party/LwIP/src/api/api_msg.c **** 
 934:Middlewares/Third_Party/LwIP/src/api/api_msg.c ****   LWIP_ASSERT("invalid conn", (conn != NULL));
 935:Middlewares/Third_Party/LwIP/src/api/api_msg.c ****   LWIP_ASSERT("this is for tcp netconns only", (NETCONNTYPE_GROUP(conn->type) == NETCONN_TCP));
 936:Middlewares/Third_Party/LwIP/src/api/api_msg.c ****   LWIP_ASSERT("conn must be in state NETCONN_CLOSE", (conn->state == NETCONN_CLOSE));
 937:Middlewares/Third_Party/LwIP/src/api/api_msg.c ****   LWIP_ASSERT("pcb already closed", (conn->pcb.tcp != NULL));
 938:Middlewares/Third_Party/LwIP/src/api/api_msg.c ****   LWIP_ASSERT("conn->current_msg != NULL", conn->current_msg != NULL);
ARM GAS  C:\Users\hh\AppData\Local\Temp\ccfq6ENc.s 			page 31


 939:Middlewares/Third_Party/LwIP/src/api/api_msg.c **** 
 940:Middlewares/Third_Party/LwIP/src/api/api_msg.c ****   tpcb = conn->pcb.tcp;
 941:Middlewares/Third_Party/LwIP/src/api/api_msg.c ****   shut = conn->current_msg->msg.sd.shut;
 942:Middlewares/Third_Party/LwIP/src/api/api_msg.c ****   shut_rx = shut & NETCONN_SHUT_RD;
 943:Middlewares/Third_Party/LwIP/src/api/api_msg.c ****   shut_tx = shut & NETCONN_SHUT_WR;
 944:Middlewares/Third_Party/LwIP/src/api/api_msg.c ****   /* shutting down both ends is the same as closing
 945:Middlewares/Third_Party/LwIP/src/api/api_msg.c ****      (also if RD or WR side was shut down before already) */
 946:Middlewares/Third_Party/LwIP/src/api/api_msg.c ****   if (shut == NETCONN_SHUT_RDWR) {
 947:Middlewares/Third_Party/LwIP/src/api/api_msg.c ****     shut_close = 1;
 948:Middlewares/Third_Party/LwIP/src/api/api_msg.c ****   } else if (shut_rx &&
 949:Middlewares/Third_Party/LwIP/src/api/api_msg.c ****              ((tpcb->state == FIN_WAIT_1) ||
 950:Middlewares/Third_Party/LwIP/src/api/api_msg.c ****               (tpcb->state == FIN_WAIT_2) ||
 951:Middlewares/Third_Party/LwIP/src/api/api_msg.c ****               (tpcb->state == CLOSING))) {
 952:Middlewares/Third_Party/LwIP/src/api/api_msg.c ****     shut_close = 1;
 953:Middlewares/Third_Party/LwIP/src/api/api_msg.c ****   } else if (shut_tx && ((tpcb->flags & TF_RXCLOSED) != 0)) {
 954:Middlewares/Third_Party/LwIP/src/api/api_msg.c ****     shut_close = 1;
 955:Middlewares/Third_Party/LwIP/src/api/api_msg.c ****   } else {
 956:Middlewares/Third_Party/LwIP/src/api/api_msg.c ****     shut_close = 0;
 957:Middlewares/Third_Party/LwIP/src/api/api_msg.c ****   }
 958:Middlewares/Third_Party/LwIP/src/api/api_msg.c **** 
 959:Middlewares/Third_Party/LwIP/src/api/api_msg.c ****   /* Set back some callback pointers */
 960:Middlewares/Third_Party/LwIP/src/api/api_msg.c ****   if (shut_close) {
 961:Middlewares/Third_Party/LwIP/src/api/api_msg.c ****     tcp_arg(tpcb, NULL);
 962:Middlewares/Third_Party/LwIP/src/api/api_msg.c ****   }
 963:Middlewares/Third_Party/LwIP/src/api/api_msg.c ****   if (tpcb->state == LISTEN) {
 964:Middlewares/Third_Party/LwIP/src/api/api_msg.c ****     tcp_accept(tpcb, NULL);
 965:Middlewares/Third_Party/LwIP/src/api/api_msg.c ****   } else {
 966:Middlewares/Third_Party/LwIP/src/api/api_msg.c ****     /* some callbacks have to be reset if tcp_close is not successful */
 967:Middlewares/Third_Party/LwIP/src/api/api_msg.c ****     if (shut_rx) {
 968:Middlewares/Third_Party/LwIP/src/api/api_msg.c ****       tcp_recv(tpcb, NULL);
 969:Middlewares/Third_Party/LwIP/src/api/api_msg.c ****       tcp_accept(tpcb, NULL);
 970:Middlewares/Third_Party/LwIP/src/api/api_msg.c ****     }
 971:Middlewares/Third_Party/LwIP/src/api/api_msg.c ****     if (shut_tx) {
 972:Middlewares/Third_Party/LwIP/src/api/api_msg.c ****       tcp_sent(tpcb, NULL);
 973:Middlewares/Third_Party/LwIP/src/api/api_msg.c ****     }
 974:Middlewares/Third_Party/LwIP/src/api/api_msg.c ****     if (shut_close) {
 975:Middlewares/Third_Party/LwIP/src/api/api_msg.c ****       tcp_poll(tpcb, NULL, 0);
 976:Middlewares/Third_Party/LwIP/src/api/api_msg.c ****       tcp_err(tpcb, NULL);
 977:Middlewares/Third_Party/LwIP/src/api/api_msg.c ****     }
 978:Middlewares/Third_Party/LwIP/src/api/api_msg.c ****   }
 979:Middlewares/Third_Party/LwIP/src/api/api_msg.c ****   /* Try to close the connection */
 980:Middlewares/Third_Party/LwIP/src/api/api_msg.c ****   if (shut_close) {
 981:Middlewares/Third_Party/LwIP/src/api/api_msg.c **** #if LWIP_SO_LINGER
 982:Middlewares/Third_Party/LwIP/src/api/api_msg.c ****     /* check linger possibilities before calling tcp_close */
 983:Middlewares/Third_Party/LwIP/src/api/api_msg.c ****     err = ERR_OK;
 984:Middlewares/Third_Party/LwIP/src/api/api_msg.c ****     /* linger enabled/required at all? (i.e. is there untransmitted data left?) */
 985:Middlewares/Third_Party/LwIP/src/api/api_msg.c ****     if ((conn->linger >= 0) && (conn->pcb.tcp->unsent || conn->pcb.tcp->unacked)) {
 986:Middlewares/Third_Party/LwIP/src/api/api_msg.c ****       if ((conn->linger == 0)) {
 987:Middlewares/Third_Party/LwIP/src/api/api_msg.c ****         /* data left but linger prevents waiting */
 988:Middlewares/Third_Party/LwIP/src/api/api_msg.c ****         tcp_abort(tpcb);
 989:Middlewares/Third_Party/LwIP/src/api/api_msg.c ****         tpcb = NULL;
 990:Middlewares/Third_Party/LwIP/src/api/api_msg.c ****       } else if (conn->linger > 0) {
 991:Middlewares/Third_Party/LwIP/src/api/api_msg.c ****         /* data left and linger says we should wait */
 992:Middlewares/Third_Party/LwIP/src/api/api_msg.c ****         if (netconn_is_nonblocking(conn)) {
 993:Middlewares/Third_Party/LwIP/src/api/api_msg.c ****           /* data left on a nonblocking netconn -> cannot linger */
 994:Middlewares/Third_Party/LwIP/src/api/api_msg.c ****           err = ERR_WOULDBLOCK;
 995:Middlewares/Third_Party/LwIP/src/api/api_msg.c ****         } else if ((s32_t)(sys_now() - conn->current_msg->msg.sd.time_started) >=
ARM GAS  C:\Users\hh\AppData\Local\Temp\ccfq6ENc.s 			page 32


 996:Middlewares/Third_Party/LwIP/src/api/api_msg.c ****                    (conn->linger * 1000)) {
 997:Middlewares/Third_Party/LwIP/src/api/api_msg.c ****           /* data left but linger timeout has expired (this happens on further
 998:Middlewares/Third_Party/LwIP/src/api/api_msg.c ****              calls to this function through poll_tcp */
 999:Middlewares/Third_Party/LwIP/src/api/api_msg.c ****           tcp_abort(tpcb);
1000:Middlewares/Third_Party/LwIP/src/api/api_msg.c ****           tpcb = NULL;
1001:Middlewares/Third_Party/LwIP/src/api/api_msg.c ****         } else {
1002:Middlewares/Third_Party/LwIP/src/api/api_msg.c ****           /* data left -> need to wait for ACK after successful close */
1003:Middlewares/Third_Party/LwIP/src/api/api_msg.c ****           linger_wait_required = 1;
1004:Middlewares/Third_Party/LwIP/src/api/api_msg.c ****         }
1005:Middlewares/Third_Party/LwIP/src/api/api_msg.c ****       }
1006:Middlewares/Third_Party/LwIP/src/api/api_msg.c ****     }
1007:Middlewares/Third_Party/LwIP/src/api/api_msg.c ****     if ((err == ERR_OK) && (tpcb != NULL))
1008:Middlewares/Third_Party/LwIP/src/api/api_msg.c **** #endif /* LWIP_SO_LINGER */
1009:Middlewares/Third_Party/LwIP/src/api/api_msg.c ****     {
1010:Middlewares/Third_Party/LwIP/src/api/api_msg.c ****       err = tcp_close(tpcb);
1011:Middlewares/Third_Party/LwIP/src/api/api_msg.c ****     }
1012:Middlewares/Third_Party/LwIP/src/api/api_msg.c ****   } else {
1013:Middlewares/Third_Party/LwIP/src/api/api_msg.c ****     err = tcp_shutdown(tpcb, shut_rx, shut_tx);
1014:Middlewares/Third_Party/LwIP/src/api/api_msg.c ****   }
1015:Middlewares/Third_Party/LwIP/src/api/api_msg.c ****   if (err == ERR_OK) {
1016:Middlewares/Third_Party/LwIP/src/api/api_msg.c ****     close_finished = 1;
1017:Middlewares/Third_Party/LwIP/src/api/api_msg.c **** #if LWIP_SO_LINGER
1018:Middlewares/Third_Party/LwIP/src/api/api_msg.c ****     if (linger_wait_required) {
1019:Middlewares/Third_Party/LwIP/src/api/api_msg.c ****       /* wait for ACK of all unsent/unacked data by just getting called again */
1020:Middlewares/Third_Party/LwIP/src/api/api_msg.c ****       close_finished = 0;
1021:Middlewares/Third_Party/LwIP/src/api/api_msg.c ****       err = ERR_INPROGRESS;
1022:Middlewares/Third_Party/LwIP/src/api/api_msg.c ****     }
1023:Middlewares/Third_Party/LwIP/src/api/api_msg.c **** #endif /* LWIP_SO_LINGER */
1024:Middlewares/Third_Party/LwIP/src/api/api_msg.c ****   } else {
1025:Middlewares/Third_Party/LwIP/src/api/api_msg.c ****     if (err == ERR_MEM) {
1026:Middlewares/Third_Party/LwIP/src/api/api_msg.c ****       /* Closing failed because of memory shortage, try again later. Even for
1027:Middlewares/Third_Party/LwIP/src/api/api_msg.c ****          nonblocking netconns, we have to wait since no standard socket application
1028:Middlewares/Third_Party/LwIP/src/api/api_msg.c ****          is prepared for close failing because of resource shortage.
1029:Middlewares/Third_Party/LwIP/src/api/api_msg.c ****          Check the timeout: this is kind of an lwip addition to the standard sockets:
1030:Middlewares/Third_Party/LwIP/src/api/api_msg.c ****          we wait for some time when failing to allocate a segment for the FIN */
1031:Middlewares/Third_Party/LwIP/src/api/api_msg.c **** #if LWIP_SO_SNDTIMEO || LWIP_SO_LINGER
1032:Middlewares/Third_Party/LwIP/src/api/api_msg.c ****       s32_t close_timeout = LWIP_TCP_CLOSE_TIMEOUT_MS_DEFAULT;
1033:Middlewares/Third_Party/LwIP/src/api/api_msg.c **** #if LWIP_SO_SNDTIMEO
1034:Middlewares/Third_Party/LwIP/src/api/api_msg.c ****       if (conn->send_timeout > 0) {
1035:Middlewares/Third_Party/LwIP/src/api/api_msg.c ****         close_timeout = conn->send_timeout;
1036:Middlewares/Third_Party/LwIP/src/api/api_msg.c ****       }
1037:Middlewares/Third_Party/LwIP/src/api/api_msg.c **** #endif /* LWIP_SO_SNDTIMEO */
1038:Middlewares/Third_Party/LwIP/src/api/api_msg.c **** #if LWIP_SO_LINGER
1039:Middlewares/Third_Party/LwIP/src/api/api_msg.c ****       if (conn->linger >= 0) {
1040:Middlewares/Third_Party/LwIP/src/api/api_msg.c ****         /* use linger timeout (seconds) */
1041:Middlewares/Third_Party/LwIP/src/api/api_msg.c ****         close_timeout = conn->linger * 1000U;
1042:Middlewares/Third_Party/LwIP/src/api/api_msg.c ****       }
1043:Middlewares/Third_Party/LwIP/src/api/api_msg.c **** #endif
1044:Middlewares/Third_Party/LwIP/src/api/api_msg.c ****       if ((s32_t)(sys_now() - conn->current_msg->msg.sd.time_started) >= close_timeout) {
1045:Middlewares/Third_Party/LwIP/src/api/api_msg.c **** #else /* LWIP_SO_SNDTIMEO || LWIP_SO_LINGER */
1046:Middlewares/Third_Party/LwIP/src/api/api_msg.c ****       if (conn->current_msg->msg.sd.polls_left == 0) {
1047:Middlewares/Third_Party/LwIP/src/api/api_msg.c **** #endif /* LWIP_SO_SNDTIMEO || LWIP_SO_LINGER */
1048:Middlewares/Third_Party/LwIP/src/api/api_msg.c ****         close_finished = 1;
1049:Middlewares/Third_Party/LwIP/src/api/api_msg.c ****         if (shut_close) {
1050:Middlewares/Third_Party/LwIP/src/api/api_msg.c ****           /* in this case, we want to RST the connection */
1051:Middlewares/Third_Party/LwIP/src/api/api_msg.c ****           tcp_abort(tpcb);
1052:Middlewares/Third_Party/LwIP/src/api/api_msg.c ****           err = ERR_OK;
ARM GAS  C:\Users\hh\AppData\Local\Temp\ccfq6ENc.s 			page 33


1053:Middlewares/Third_Party/LwIP/src/api/api_msg.c ****         }
1054:Middlewares/Third_Party/LwIP/src/api/api_msg.c ****       }
1055:Middlewares/Third_Party/LwIP/src/api/api_msg.c ****     } else {
1056:Middlewares/Third_Party/LwIP/src/api/api_msg.c ****       /* Closing failed for a non-memory error: give up */
1057:Middlewares/Third_Party/LwIP/src/api/api_msg.c ****       close_finished = 1;
1058:Middlewares/Third_Party/LwIP/src/api/api_msg.c ****     }
1059:Middlewares/Third_Party/LwIP/src/api/api_msg.c ****   }
1060:Middlewares/Third_Party/LwIP/src/api/api_msg.c ****   if (close_finished) {
1061:Middlewares/Third_Party/LwIP/src/api/api_msg.c ****     /* Closing done (succeeded, non-memory error, nonblocking error or timeout) */
1062:Middlewares/Third_Party/LwIP/src/api/api_msg.c ****     sys_sem_t *op_completed_sem = LWIP_API_MSG_SEM(conn->current_msg);
1063:Middlewares/Third_Party/LwIP/src/api/api_msg.c ****     conn->current_msg->err = err;
1064:Middlewares/Third_Party/LwIP/src/api/api_msg.c ****     conn->current_msg = NULL;
1065:Middlewares/Third_Party/LwIP/src/api/api_msg.c ****     conn->state = NETCONN_NONE;
1066:Middlewares/Third_Party/LwIP/src/api/api_msg.c ****     if (err == ERR_OK) {
1067:Middlewares/Third_Party/LwIP/src/api/api_msg.c ****       if (shut_close) {
1068:Middlewares/Third_Party/LwIP/src/api/api_msg.c ****         /* Set back some callback pointers as conn is going away */
1069:Middlewares/Third_Party/LwIP/src/api/api_msg.c ****         conn->pcb.tcp = NULL;
1070:Middlewares/Third_Party/LwIP/src/api/api_msg.c ****         /* Trigger select() in socket layer. Make sure everybody notices activity
1071:Middlewares/Third_Party/LwIP/src/api/api_msg.c ****          on the connection, error first! */
1072:Middlewares/Third_Party/LwIP/src/api/api_msg.c ****         API_EVENT(conn, NETCONN_EVT_ERROR, 0);
1073:Middlewares/Third_Party/LwIP/src/api/api_msg.c ****       }
1074:Middlewares/Third_Party/LwIP/src/api/api_msg.c ****       if (shut_rx) {
1075:Middlewares/Third_Party/LwIP/src/api/api_msg.c ****         API_EVENT(conn, NETCONN_EVT_RCVPLUS, 0);
1076:Middlewares/Third_Party/LwIP/src/api/api_msg.c ****       }
1077:Middlewares/Third_Party/LwIP/src/api/api_msg.c ****       if (shut_tx) {
1078:Middlewares/Third_Party/LwIP/src/api/api_msg.c ****         API_EVENT(conn, NETCONN_EVT_SENDPLUS, 0);
1079:Middlewares/Third_Party/LwIP/src/api/api_msg.c ****       }
1080:Middlewares/Third_Party/LwIP/src/api/api_msg.c ****     }
1081:Middlewares/Third_Party/LwIP/src/api/api_msg.c **** #if LWIP_TCPIP_CORE_LOCKING
1082:Middlewares/Third_Party/LwIP/src/api/api_msg.c ****     if (delayed)
1083:Middlewares/Third_Party/LwIP/src/api/api_msg.c **** #endif
1084:Middlewares/Third_Party/LwIP/src/api/api_msg.c ****     {
1085:Middlewares/Third_Party/LwIP/src/api/api_msg.c ****       /* wake up the application task */
1086:Middlewares/Third_Party/LwIP/src/api/api_msg.c ****       sys_sem_signal(op_completed_sem);
1087:Middlewares/Third_Party/LwIP/src/api/api_msg.c ****     }
1088:Middlewares/Third_Party/LwIP/src/api/api_msg.c ****     return ERR_OK;
1089:Middlewares/Third_Party/LwIP/src/api/api_msg.c ****   }
1090:Middlewares/Third_Party/LwIP/src/api/api_msg.c ****   if (!close_finished) {
1091:Middlewares/Third_Party/LwIP/src/api/api_msg.c ****     /* Closing failed and we want to wait: restore some of the callbacks */
1092:Middlewares/Third_Party/LwIP/src/api/api_msg.c ****     /* Closing of listen pcb will never fail! */
1093:Middlewares/Third_Party/LwIP/src/api/api_msg.c ****     LWIP_ASSERT("Closing a listen pcb may not fail!", (tpcb->state != LISTEN));
1094:Middlewares/Third_Party/LwIP/src/api/api_msg.c ****     if (shut_tx) {
1095:Middlewares/Third_Party/LwIP/src/api/api_msg.c ****       tcp_sent(tpcb, sent_tcp);
1096:Middlewares/Third_Party/LwIP/src/api/api_msg.c ****     }
1097:Middlewares/Third_Party/LwIP/src/api/api_msg.c ****     /* when waiting for close, set up poll interval to 500ms */
1098:Middlewares/Third_Party/LwIP/src/api/api_msg.c ****     tcp_poll(tpcb, poll_tcp, 1);
1099:Middlewares/Third_Party/LwIP/src/api/api_msg.c ****     tcp_err(tpcb, err_tcp);
1100:Middlewares/Third_Party/LwIP/src/api/api_msg.c ****     tcp_arg(tpcb, conn);
1101:Middlewares/Third_Party/LwIP/src/api/api_msg.c ****     /* don't restore recv callback: we don't want to receive any more data */
1102:Middlewares/Third_Party/LwIP/src/api/api_msg.c ****   }
1103:Middlewares/Third_Party/LwIP/src/api/api_msg.c ****   /* If closing didn't succeed, we get called again either
1104:Middlewares/Third_Party/LwIP/src/api/api_msg.c ****      from poll_tcp or from sent_tcp */
1105:Middlewares/Third_Party/LwIP/src/api/api_msg.c ****   LWIP_ASSERT("err != ERR_OK", err != ERR_OK);
1106:Middlewares/Third_Party/LwIP/src/api/api_msg.c ****   return err;
1107:Middlewares/Third_Party/LwIP/src/api/api_msg.c **** }
1108:Middlewares/Third_Party/LwIP/src/api/api_msg.c **** #endif /* LWIP_TCP */
1109:Middlewares/Third_Party/LwIP/src/api/api_msg.c **** 
ARM GAS  C:\Users\hh\AppData\Local\Temp\ccfq6ENc.s 			page 34


1110:Middlewares/Third_Party/LwIP/src/api/api_msg.c **** /**
1111:Middlewares/Third_Party/LwIP/src/api/api_msg.c ****  * Delete the pcb inside a netconn.
1112:Middlewares/Third_Party/LwIP/src/api/api_msg.c ****  * Called from netconn_delete.
1113:Middlewares/Third_Party/LwIP/src/api/api_msg.c ****  *
1114:Middlewares/Third_Party/LwIP/src/api/api_msg.c ****  * @param m the api_msg pointing to the connection
1115:Middlewares/Third_Party/LwIP/src/api/api_msg.c ****  */
1116:Middlewares/Third_Party/LwIP/src/api/api_msg.c **** void
1117:Middlewares/Third_Party/LwIP/src/api/api_msg.c **** lwip_netconn_do_delconn(void *m)
1118:Middlewares/Third_Party/LwIP/src/api/api_msg.c **** {
1119:Middlewares/Third_Party/LwIP/src/api/api_msg.c ****   struct api_msg *msg = (struct api_msg *)m;
1120:Middlewares/Third_Party/LwIP/src/api/api_msg.c **** 
1121:Middlewares/Third_Party/LwIP/src/api/api_msg.c ****   enum netconn_state state = msg->conn->state;
1122:Middlewares/Third_Party/LwIP/src/api/api_msg.c ****   LWIP_ASSERT("netconn state error", /* this only happens for TCP netconns */
1123:Middlewares/Third_Party/LwIP/src/api/api_msg.c ****               (state == NETCONN_NONE) || (NETCONNTYPE_GROUP(msg->conn->type) == NETCONN_TCP));
1124:Middlewares/Third_Party/LwIP/src/api/api_msg.c **** #if LWIP_NETCONN_FULLDUPLEX
1125:Middlewares/Third_Party/LwIP/src/api/api_msg.c ****   /* In full duplex mode, blocking write/connect is aborted with ERR_CLSD */
1126:Middlewares/Third_Party/LwIP/src/api/api_msg.c ****   if (state != NETCONN_NONE) {
1127:Middlewares/Third_Party/LwIP/src/api/api_msg.c ****     if ((state == NETCONN_WRITE) ||
1128:Middlewares/Third_Party/LwIP/src/api/api_msg.c ****         ((state == NETCONN_CONNECT) && !IN_NONBLOCKING_CONNECT(msg->conn))) {
1129:Middlewares/Third_Party/LwIP/src/api/api_msg.c ****       /* close requested, abort running write/connect */
1130:Middlewares/Third_Party/LwIP/src/api/api_msg.c ****       sys_sem_t *op_completed_sem;
1131:Middlewares/Third_Party/LwIP/src/api/api_msg.c ****       LWIP_ASSERT("msg->conn->current_msg != NULL", msg->conn->current_msg != NULL);
1132:Middlewares/Third_Party/LwIP/src/api/api_msg.c ****       op_completed_sem = LWIP_API_MSG_SEM(msg->conn->current_msg);
1133:Middlewares/Third_Party/LwIP/src/api/api_msg.c ****       msg->conn->current_msg->err = ERR_CLSD;
1134:Middlewares/Third_Party/LwIP/src/api/api_msg.c ****       msg->conn->current_msg = NULL;
1135:Middlewares/Third_Party/LwIP/src/api/api_msg.c ****       msg->conn->state = NETCONN_NONE;
1136:Middlewares/Third_Party/LwIP/src/api/api_msg.c ****       sys_sem_signal(op_completed_sem);
1137:Middlewares/Third_Party/LwIP/src/api/api_msg.c ****     }
1138:Middlewares/Third_Party/LwIP/src/api/api_msg.c ****   }
1139:Middlewares/Third_Party/LwIP/src/api/api_msg.c **** #else /* LWIP_NETCONN_FULLDUPLEX */
1140:Middlewares/Third_Party/LwIP/src/api/api_msg.c ****   if (((state != NETCONN_NONE) &&
1141:Middlewares/Third_Party/LwIP/src/api/api_msg.c ****        (state != NETCONN_LISTEN) &&
1142:Middlewares/Third_Party/LwIP/src/api/api_msg.c ****        (state != NETCONN_CONNECT)) ||
1143:Middlewares/Third_Party/LwIP/src/api/api_msg.c ****       ((state == NETCONN_CONNECT) && !IN_NONBLOCKING_CONNECT(msg->conn))) {
1144:Middlewares/Third_Party/LwIP/src/api/api_msg.c ****     /* This means either a blocking write or blocking connect is running
1145:Middlewares/Third_Party/LwIP/src/api/api_msg.c ****        (nonblocking write returns and sets state to NONE) */
1146:Middlewares/Third_Party/LwIP/src/api/api_msg.c ****     msg->err = ERR_INPROGRESS;
1147:Middlewares/Third_Party/LwIP/src/api/api_msg.c ****   } else
1148:Middlewares/Third_Party/LwIP/src/api/api_msg.c **** #endif /* LWIP_NETCONN_FULLDUPLEX */
1149:Middlewares/Third_Party/LwIP/src/api/api_msg.c ****   {
1150:Middlewares/Third_Party/LwIP/src/api/api_msg.c ****     LWIP_ASSERT("blocking connect in progress",
1151:Middlewares/Third_Party/LwIP/src/api/api_msg.c ****                 (state != NETCONN_CONNECT) || IN_NONBLOCKING_CONNECT(msg->conn));
1152:Middlewares/Third_Party/LwIP/src/api/api_msg.c ****     msg->err = ERR_OK;
1153:Middlewares/Third_Party/LwIP/src/api/api_msg.c **** #if LWIP_NETCONN_FULLDUPLEX
1154:Middlewares/Third_Party/LwIP/src/api/api_msg.c ****     /* Mark mboxes invalid */
1155:Middlewares/Third_Party/LwIP/src/api/api_msg.c ****     netconn_mark_mbox_invalid(msg->conn);
1156:Middlewares/Third_Party/LwIP/src/api/api_msg.c **** #else /* LWIP_NETCONN_FULLDUPLEX */
1157:Middlewares/Third_Party/LwIP/src/api/api_msg.c ****     netconn_drain(msg->conn);
1158:Middlewares/Third_Party/LwIP/src/api/api_msg.c **** #endif /* LWIP_NETCONN_FULLDUPLEX */
1159:Middlewares/Third_Party/LwIP/src/api/api_msg.c **** 
1160:Middlewares/Third_Party/LwIP/src/api/api_msg.c ****     if (msg->conn->pcb.tcp != NULL) {
1161:Middlewares/Third_Party/LwIP/src/api/api_msg.c **** 
1162:Middlewares/Third_Party/LwIP/src/api/api_msg.c ****       switch (NETCONNTYPE_GROUP(msg->conn->type)) {
1163:Middlewares/Third_Party/LwIP/src/api/api_msg.c **** #if LWIP_RAW
1164:Middlewares/Third_Party/LwIP/src/api/api_msg.c ****         case NETCONN_RAW:
1165:Middlewares/Third_Party/LwIP/src/api/api_msg.c ****           raw_remove(msg->conn->pcb.raw);
1166:Middlewares/Third_Party/LwIP/src/api/api_msg.c ****           break;
ARM GAS  C:\Users\hh\AppData\Local\Temp\ccfq6ENc.s 			page 35


1167:Middlewares/Third_Party/LwIP/src/api/api_msg.c **** #endif /* LWIP_RAW */
1168:Middlewares/Third_Party/LwIP/src/api/api_msg.c **** #if LWIP_UDP
1169:Middlewares/Third_Party/LwIP/src/api/api_msg.c ****         case NETCONN_UDP:
1170:Middlewares/Third_Party/LwIP/src/api/api_msg.c ****           msg->conn->pcb.udp->recv_arg = NULL;
1171:Middlewares/Third_Party/LwIP/src/api/api_msg.c ****           udp_remove(msg->conn->pcb.udp);
1172:Middlewares/Third_Party/LwIP/src/api/api_msg.c ****           break;
1173:Middlewares/Third_Party/LwIP/src/api/api_msg.c **** #endif /* LWIP_UDP */
1174:Middlewares/Third_Party/LwIP/src/api/api_msg.c **** #if LWIP_TCP
1175:Middlewares/Third_Party/LwIP/src/api/api_msg.c ****         case NETCONN_TCP:
1176:Middlewares/Third_Party/LwIP/src/api/api_msg.c ****           LWIP_ASSERT("already writing or closing", msg->conn->current_msg == NULL);
1177:Middlewares/Third_Party/LwIP/src/api/api_msg.c ****           msg->conn->state = NETCONN_CLOSE;
1178:Middlewares/Third_Party/LwIP/src/api/api_msg.c ****           msg->msg.sd.shut = NETCONN_SHUT_RDWR;
1179:Middlewares/Third_Party/LwIP/src/api/api_msg.c ****           msg->conn->current_msg = msg;
1180:Middlewares/Third_Party/LwIP/src/api/api_msg.c **** #if LWIP_TCPIP_CORE_LOCKING
1181:Middlewares/Third_Party/LwIP/src/api/api_msg.c ****           if (lwip_netconn_do_close_internal(msg->conn, 0) != ERR_OK) {
1182:Middlewares/Third_Party/LwIP/src/api/api_msg.c ****             LWIP_ASSERT("state!", msg->conn->state == NETCONN_CLOSE);
1183:Middlewares/Third_Party/LwIP/src/api/api_msg.c ****             UNLOCK_TCPIP_CORE();
1184:Middlewares/Third_Party/LwIP/src/api/api_msg.c ****             sys_arch_sem_wait(LWIP_API_MSG_SEM(msg), 0);
1185:Middlewares/Third_Party/LwIP/src/api/api_msg.c ****             LOCK_TCPIP_CORE();
1186:Middlewares/Third_Party/LwIP/src/api/api_msg.c ****             LWIP_ASSERT("state!", msg->conn->state == NETCONN_NONE);
1187:Middlewares/Third_Party/LwIP/src/api/api_msg.c ****           }
1188:Middlewares/Third_Party/LwIP/src/api/api_msg.c **** #else /* LWIP_TCPIP_CORE_LOCKING */
1189:Middlewares/Third_Party/LwIP/src/api/api_msg.c ****           lwip_netconn_do_close_internal(msg->conn);
1190:Middlewares/Third_Party/LwIP/src/api/api_msg.c **** #endif /* LWIP_TCPIP_CORE_LOCKING */
1191:Middlewares/Third_Party/LwIP/src/api/api_msg.c ****           /* API_EVENT is called inside lwip_netconn_do_close_internal, before releasing
1192:Middlewares/Third_Party/LwIP/src/api/api_msg.c ****              the application thread, so we can return at this point! */
1193:Middlewares/Third_Party/LwIP/src/api/api_msg.c ****           return;
1194:Middlewares/Third_Party/LwIP/src/api/api_msg.c **** #endif /* LWIP_TCP */
1195:Middlewares/Third_Party/LwIP/src/api/api_msg.c ****         default:
1196:Middlewares/Third_Party/LwIP/src/api/api_msg.c ****           break;
1197:Middlewares/Third_Party/LwIP/src/api/api_msg.c ****       }
1198:Middlewares/Third_Party/LwIP/src/api/api_msg.c ****       msg->conn->pcb.tcp = NULL;
1199:Middlewares/Third_Party/LwIP/src/api/api_msg.c ****     }
1200:Middlewares/Third_Party/LwIP/src/api/api_msg.c ****     /* tcp netconns don't come here! */
1201:Middlewares/Third_Party/LwIP/src/api/api_msg.c **** 
1202:Middlewares/Third_Party/LwIP/src/api/api_msg.c ****     /* @todo: this lets select make the socket readable and writable,
1203:Middlewares/Third_Party/LwIP/src/api/api_msg.c ****        which is wrong! errfd instead? */
1204:Middlewares/Third_Party/LwIP/src/api/api_msg.c ****     API_EVENT(msg->conn, NETCONN_EVT_RCVPLUS, 0);
1205:Middlewares/Third_Party/LwIP/src/api/api_msg.c ****     API_EVENT(msg->conn, NETCONN_EVT_SENDPLUS, 0);
1206:Middlewares/Third_Party/LwIP/src/api/api_msg.c ****   }
1207:Middlewares/Third_Party/LwIP/src/api/api_msg.c ****   if (sys_sem_valid(LWIP_API_MSG_SEM(msg))) {
1208:Middlewares/Third_Party/LwIP/src/api/api_msg.c ****     TCPIP_APIMSG_ACK(msg);
1209:Middlewares/Third_Party/LwIP/src/api/api_msg.c ****   }
1210:Middlewares/Third_Party/LwIP/src/api/api_msg.c **** }
1211:Middlewares/Third_Party/LwIP/src/api/api_msg.c **** 
1212:Middlewares/Third_Party/LwIP/src/api/api_msg.c **** /**
1213:Middlewares/Third_Party/LwIP/src/api/api_msg.c ****  * Bind a pcb contained in a netconn
1214:Middlewares/Third_Party/LwIP/src/api/api_msg.c ****  * Called from netconn_bind.
1215:Middlewares/Third_Party/LwIP/src/api/api_msg.c ****  *
1216:Middlewares/Third_Party/LwIP/src/api/api_msg.c ****  * @param m the api_msg pointing to the connection and containing
1217:Middlewares/Third_Party/LwIP/src/api/api_msg.c ****  *          the IP address and port to bind to
1218:Middlewares/Third_Party/LwIP/src/api/api_msg.c ****  */
1219:Middlewares/Third_Party/LwIP/src/api/api_msg.c **** void
1220:Middlewares/Third_Party/LwIP/src/api/api_msg.c **** lwip_netconn_do_bind(void *m)
1221:Middlewares/Third_Party/LwIP/src/api/api_msg.c **** {
1222:Middlewares/Third_Party/LwIP/src/api/api_msg.c ****   struct api_msg *msg = (struct api_msg *)m;
1223:Middlewares/Third_Party/LwIP/src/api/api_msg.c ****   err_t err;
ARM GAS  C:\Users\hh\AppData\Local\Temp\ccfq6ENc.s 			page 36


1224:Middlewares/Third_Party/LwIP/src/api/api_msg.c **** 
1225:Middlewares/Third_Party/LwIP/src/api/api_msg.c ****   if (msg->conn->pcb.tcp != NULL) {
1226:Middlewares/Third_Party/LwIP/src/api/api_msg.c ****     switch (NETCONNTYPE_GROUP(msg->conn->type)) {
1227:Middlewares/Third_Party/LwIP/src/api/api_msg.c **** #if LWIP_RAW
1228:Middlewares/Third_Party/LwIP/src/api/api_msg.c ****       case NETCONN_RAW:
1229:Middlewares/Third_Party/LwIP/src/api/api_msg.c ****         err = raw_bind(msg->conn->pcb.raw, API_EXPR_REF(msg->msg.bc.ipaddr));
1230:Middlewares/Third_Party/LwIP/src/api/api_msg.c ****         break;
1231:Middlewares/Third_Party/LwIP/src/api/api_msg.c **** #endif /* LWIP_RAW */
1232:Middlewares/Third_Party/LwIP/src/api/api_msg.c **** #if LWIP_UDP
1233:Middlewares/Third_Party/LwIP/src/api/api_msg.c ****       case NETCONN_UDP:
1234:Middlewares/Third_Party/LwIP/src/api/api_msg.c ****         err = udp_bind(msg->conn->pcb.udp, API_EXPR_REF(msg->msg.bc.ipaddr), msg->msg.bc.port);
1235:Middlewares/Third_Party/LwIP/src/api/api_msg.c ****         break;
1236:Middlewares/Third_Party/LwIP/src/api/api_msg.c **** #endif /* LWIP_UDP */
1237:Middlewares/Third_Party/LwIP/src/api/api_msg.c **** #if LWIP_TCP
1238:Middlewares/Third_Party/LwIP/src/api/api_msg.c ****       case NETCONN_TCP:
1239:Middlewares/Third_Party/LwIP/src/api/api_msg.c ****         err = tcp_bind(msg->conn->pcb.tcp, API_EXPR_REF(msg->msg.bc.ipaddr), msg->msg.bc.port);
1240:Middlewares/Third_Party/LwIP/src/api/api_msg.c ****         break;
1241:Middlewares/Third_Party/LwIP/src/api/api_msg.c **** #endif /* LWIP_TCP */
1242:Middlewares/Third_Party/LwIP/src/api/api_msg.c ****       default:
1243:Middlewares/Third_Party/LwIP/src/api/api_msg.c ****         err = ERR_VAL;
1244:Middlewares/Third_Party/LwIP/src/api/api_msg.c ****         break;
1245:Middlewares/Third_Party/LwIP/src/api/api_msg.c ****     }
1246:Middlewares/Third_Party/LwIP/src/api/api_msg.c ****   } else {
1247:Middlewares/Third_Party/LwIP/src/api/api_msg.c ****     err = ERR_VAL;
1248:Middlewares/Third_Party/LwIP/src/api/api_msg.c ****   }
1249:Middlewares/Third_Party/LwIP/src/api/api_msg.c ****   msg->err = err;
1250:Middlewares/Third_Party/LwIP/src/api/api_msg.c ****   TCPIP_APIMSG_ACK(msg);
1251:Middlewares/Third_Party/LwIP/src/api/api_msg.c **** }
1252:Middlewares/Third_Party/LwIP/src/api/api_msg.c **** /**
1253:Middlewares/Third_Party/LwIP/src/api/api_msg.c ****  * Bind a pcb contained in a netconn to an interface
1254:Middlewares/Third_Party/LwIP/src/api/api_msg.c ****  * Called from netconn_bind_if.
1255:Middlewares/Third_Party/LwIP/src/api/api_msg.c ****  *
1256:Middlewares/Third_Party/LwIP/src/api/api_msg.c ****  * @param m the api_msg pointing to the connection and containing
1257:Middlewares/Third_Party/LwIP/src/api/api_msg.c ****  *          the IP address and port to bind to
1258:Middlewares/Third_Party/LwIP/src/api/api_msg.c ****  */
1259:Middlewares/Third_Party/LwIP/src/api/api_msg.c **** void
1260:Middlewares/Third_Party/LwIP/src/api/api_msg.c **** lwip_netconn_do_bind_if(void *m)
1261:Middlewares/Third_Party/LwIP/src/api/api_msg.c **** {
1262:Middlewares/Third_Party/LwIP/src/api/api_msg.c ****   struct netif *netif;
1263:Middlewares/Third_Party/LwIP/src/api/api_msg.c ****   struct api_msg *msg = (struct api_msg *)m;
1264:Middlewares/Third_Party/LwIP/src/api/api_msg.c ****   err_t err;
1265:Middlewares/Third_Party/LwIP/src/api/api_msg.c **** 
1266:Middlewares/Third_Party/LwIP/src/api/api_msg.c ****   netif = netif_get_by_index(msg->msg.bc.if_idx);
1267:Middlewares/Third_Party/LwIP/src/api/api_msg.c **** 
1268:Middlewares/Third_Party/LwIP/src/api/api_msg.c ****   if ((netif != NULL) && (msg->conn->pcb.tcp != NULL)) {
1269:Middlewares/Third_Party/LwIP/src/api/api_msg.c ****     err = ERR_OK;
1270:Middlewares/Third_Party/LwIP/src/api/api_msg.c ****     switch (NETCONNTYPE_GROUP(msg->conn->type)) {
1271:Middlewares/Third_Party/LwIP/src/api/api_msg.c **** #if LWIP_RAW
1272:Middlewares/Third_Party/LwIP/src/api/api_msg.c ****       case NETCONN_RAW:
1273:Middlewares/Third_Party/LwIP/src/api/api_msg.c ****         raw_bind_netif(msg->conn->pcb.raw, netif);
1274:Middlewares/Third_Party/LwIP/src/api/api_msg.c ****         break;
1275:Middlewares/Third_Party/LwIP/src/api/api_msg.c **** #endif /* LWIP_RAW */
1276:Middlewares/Third_Party/LwIP/src/api/api_msg.c **** #if LWIP_UDP
1277:Middlewares/Third_Party/LwIP/src/api/api_msg.c ****       case NETCONN_UDP:
1278:Middlewares/Third_Party/LwIP/src/api/api_msg.c ****         udp_bind_netif(msg->conn->pcb.udp, netif);
1279:Middlewares/Third_Party/LwIP/src/api/api_msg.c ****         break;
1280:Middlewares/Third_Party/LwIP/src/api/api_msg.c **** #endif /* LWIP_UDP */
ARM GAS  C:\Users\hh\AppData\Local\Temp\ccfq6ENc.s 			page 37


1281:Middlewares/Third_Party/LwIP/src/api/api_msg.c **** #if LWIP_TCP
1282:Middlewares/Third_Party/LwIP/src/api/api_msg.c ****       case NETCONN_TCP:
1283:Middlewares/Third_Party/LwIP/src/api/api_msg.c ****         tcp_bind_netif(msg->conn->pcb.tcp, netif);
1284:Middlewares/Third_Party/LwIP/src/api/api_msg.c ****         break;
1285:Middlewares/Third_Party/LwIP/src/api/api_msg.c **** #endif /* LWIP_TCP */
1286:Middlewares/Third_Party/LwIP/src/api/api_msg.c ****       default:
1287:Middlewares/Third_Party/LwIP/src/api/api_msg.c ****         err = ERR_VAL;
1288:Middlewares/Third_Party/LwIP/src/api/api_msg.c ****         break;
1289:Middlewares/Third_Party/LwIP/src/api/api_msg.c ****     }
1290:Middlewares/Third_Party/LwIP/src/api/api_msg.c ****   } else {
1291:Middlewares/Third_Party/LwIP/src/api/api_msg.c ****     err = ERR_VAL;
1292:Middlewares/Third_Party/LwIP/src/api/api_msg.c ****   }
1293:Middlewares/Third_Party/LwIP/src/api/api_msg.c ****   msg->err = err;
1294:Middlewares/Third_Party/LwIP/src/api/api_msg.c ****   TCPIP_APIMSG_ACK(msg);
1295:Middlewares/Third_Party/LwIP/src/api/api_msg.c **** }
1296:Middlewares/Third_Party/LwIP/src/api/api_msg.c **** 
1297:Middlewares/Third_Party/LwIP/src/api/api_msg.c **** #if LWIP_TCP
1298:Middlewares/Third_Party/LwIP/src/api/api_msg.c **** /**
1299:Middlewares/Third_Party/LwIP/src/api/api_msg.c ****  * TCP callback function if a connection (opened by tcp_connect/lwip_netconn_do_connect) has
1300:Middlewares/Third_Party/LwIP/src/api/api_msg.c ****  * been established (or reset by the remote host).
1301:Middlewares/Third_Party/LwIP/src/api/api_msg.c ****  *
1302:Middlewares/Third_Party/LwIP/src/api/api_msg.c ****  * @see tcp.h (struct tcp_pcb.connected) for parameters and return values
1303:Middlewares/Third_Party/LwIP/src/api/api_msg.c ****  */
1304:Middlewares/Third_Party/LwIP/src/api/api_msg.c **** static err_t
1305:Middlewares/Third_Party/LwIP/src/api/api_msg.c **** lwip_netconn_do_connected(void *arg, struct tcp_pcb *pcb, err_t err)
1306:Middlewares/Third_Party/LwIP/src/api/api_msg.c **** {
 613              		.loc 1 1306 1 view -0
 614              		.cfi_startproc
 615              		@ args = 0, pretend = 0, frame = 0
 616              		@ frame_needed = 0, uses_anonymous_args = 0
1307:Middlewares/Third_Party/LwIP/src/api/api_msg.c ****   struct netconn *conn;
 617              		.loc 1 1307 3 view .LVU162
1308:Middlewares/Third_Party/LwIP/src/api/api_msg.c ****   int was_blocking;
 618              		.loc 1 1308 3 view .LVU163
1309:Middlewares/Third_Party/LwIP/src/api/api_msg.c ****   sys_sem_t *op_completed_sem = NULL;
 619              		.loc 1 1309 3 view .LVU164
1310:Middlewares/Third_Party/LwIP/src/api/api_msg.c **** 
1311:Middlewares/Third_Party/LwIP/src/api/api_msg.c ****   LWIP_UNUSED_ARG(pcb);
 620              		.loc 1 1311 3 view .LVU165
1312:Middlewares/Third_Party/LwIP/src/api/api_msg.c **** 
1313:Middlewares/Third_Party/LwIP/src/api/api_msg.c ****   conn = (struct netconn *)arg;
 621              		.loc 1 1313 3 view .LVU166
1314:Middlewares/Third_Party/LwIP/src/api/api_msg.c **** 
1315:Middlewares/Third_Party/LwIP/src/api/api_msg.c ****   if (conn == NULL) {
 622              		.loc 1 1315 3 view .LVU167
 623              		.loc 1 1315 6 is_stmt 0 view .LVU168
 624 0000 0028     		cmp	r0, #0
 625 0002 5DD0     		beq	.L58
1306:Middlewares/Third_Party/LwIP/src/api/api_msg.c ****   struct netconn *conn;
 626              		.loc 1 1306 1 view .LVU169
 627 0004 70B5     		push	{r4, r5, r6, lr}
 628              	.LCFI5:
 629              		.cfi_def_cfa_offset 16
 630              		.cfi_offset 4, -16
 631              		.cfi_offset 5, -12
 632              		.cfi_offset 6, -8
 633              		.cfi_offset 14, -4
ARM GAS  C:\Users\hh\AppData\Local\Temp\ccfq6ENc.s 			page 38


 634 0006 1646     		mov	r6, r2
 635 0008 0446     		mov	r4, r0
1316:Middlewares/Third_Party/LwIP/src/api/api_msg.c ****     return ERR_VAL;
1317:Middlewares/Third_Party/LwIP/src/api/api_msg.c ****   }
1318:Middlewares/Third_Party/LwIP/src/api/api_msg.c **** 
1319:Middlewares/Third_Party/LwIP/src/api/api_msg.c ****   LWIP_ASSERT("conn->state == NETCONN_CONNECT", conn->state == NETCONN_CONNECT);
 636              		.loc 1 1319 3 is_stmt 1 view .LVU170
 637              		.loc 1 1319 3 view .LVU171
 638 000a 4378     		ldrb	r3, [r0, #1]	@ zero_extendqisi2
 639 000c 032B     		cmp	r3, #3
 640 000e 30D1     		bne	.L64
 641              	.LVL58:
 642              	.L52:
 643              		.loc 1 1319 3 view .LVU172
 644              		.loc 1 1319 3 view .LVU173
1320:Middlewares/Third_Party/LwIP/src/api/api_msg.c ****   LWIP_ASSERT("(conn->current_msg != NULL) || conn->in_non_blocking_connect",
 645              		.loc 1 1320 3 view .LVU174
 646              		.loc 1 1320 3 view .LVU175
 647 0010 236A     		ldr	r3, [r4, #32]
 648 0012 002B     		cmp	r3, #0
 649 0014 35D0     		beq	.L65
 650              	.L53:
 651              		.loc 1 1320 3 view .LVU176
 652              		.loc 1 1320 3 view .LVU177
1321:Middlewares/Third_Party/LwIP/src/api/api_msg.c ****               (conn->current_msg != NULL) || IN_NONBLOCKING_CONNECT(conn));
1322:Middlewares/Third_Party/LwIP/src/api/api_msg.c **** 
1323:Middlewares/Third_Party/LwIP/src/api/api_msg.c ****   if (conn->current_msg != NULL) {
 653              		.loc 1 1323 3 view .LVU178
 654              		.loc 1 1323 11 is_stmt 0 view .LVU179
 655 0016 256A     		ldr	r5, [r4, #32]
 656              		.loc 1 1323 6 view .LVU180
 657 0018 1DB1     		cbz	r5, .L54
1324:Middlewares/Third_Party/LwIP/src/api/api_msg.c ****     conn->current_msg->err = err;
 658              		.loc 1 1324 5 is_stmt 1 view .LVU181
 659              		.loc 1 1324 28 is_stmt 0 view .LVU182
 660 001a 2E71     		strb	r6, [r5, #4]
1325:Middlewares/Third_Party/LwIP/src/api/api_msg.c ****     op_completed_sem = LWIP_API_MSG_SEM(conn->current_msg);
 661              		.loc 1 1325 5 is_stmt 1 view .LVU183
 662              		.loc 1 1325 24 is_stmt 0 view .LVU184
 663 001c 236A     		ldr	r3, [r4, #32]
 664 001e 1D68     		ldr	r5, [r3]
 665              		.loc 1 1325 22 view .LVU185
 666 0020 0C35     		adds	r5, r5, #12
 667              	.L54:
 668              	.LVL59:
1326:Middlewares/Third_Party/LwIP/src/api/api_msg.c ****   }
1327:Middlewares/Third_Party/LwIP/src/api/api_msg.c ****   if ((NETCONNTYPE_GROUP(conn->type) == NETCONN_TCP) && (err == ERR_OK)) {
 669              		.loc 1 1327 3 is_stmt 1 view .LVU186
 670              		.loc 1 1327 8 is_stmt 0 view .LVU187
 671 0022 2378     		ldrb	r3, [r4]	@ zero_extendqisi2
 672              		.loc 1 1327 6 view .LVU188
 673 0024 03F0F003 		and	r3, r3, #240
 674 0028 102B     		cmp	r3, #16
 675 002a 36D0     		beq	.L66
 676              	.L55:
1328:Middlewares/Third_Party/LwIP/src/api/api_msg.c ****     setup_tcp(conn);
1329:Middlewares/Third_Party/LwIP/src/api/api_msg.c ****   }
ARM GAS  C:\Users\hh\AppData\Local\Temp\ccfq6ENc.s 			page 39


1330:Middlewares/Third_Party/LwIP/src/api/api_msg.c ****   was_blocking = !IN_NONBLOCKING_CONNECT(conn);
 677              		.loc 1 1330 3 is_stmt 1 view .LVU189
 678              		.loc 1 1330 19 is_stmt 0 view .LVU190
 679 002c 237F     		ldrb	r3, [r4, #28]	@ zero_extendqisi2
 680 002e 03F00406 		and	r6, r3, #4
 681              	.LVL60:
 682              		.loc 1 1330 18 view .LVU191
 683 0032 C3F38002 		ubfx	r2, r3, #2, #1
 684 0036 82F00102 		eor	r2, r2, #1
 685 003a D2B2     		uxtb	r2, r2
 686              	.LVL61:
1331:Middlewares/Third_Party/LwIP/src/api/api_msg.c ****   SET_NONBLOCKING_CONNECT(conn, 0);
 687              		.loc 1 1331 3 is_stmt 1 view .LVU192
 688              		.loc 1 1331 3 view .LVU193
 689              		.loc 1 1331 3 discriminator 2 view .LVU194
 690              		.loc 1 1331 3 discriminator 2 view .LVU195
 691 003c 03F0FB01 		and	r1, r3, #251
 692 0040 2177     		strb	r1, [r4, #28]
 693              		.loc 1 1331 3 view .LVU196
 694              		.loc 1 1331 3 view .LVU197
1332:Middlewares/Third_Party/LwIP/src/api/api_msg.c ****   LWIP_ASSERT("blocking connect state error",
 695              		.loc 1 1332 3 view .LVU198
 696              		.loc 1 1332 3 view .LVU199
 697 0042 C3F38003 		ubfx	r3, r3, #2, #1
 698 0046 002D     		cmp	r5, #0
 699 0048 08BF     		it	eq
 700 004a 43F00103 		orreq	r3, r3, #1
 701 004e 23B1     		cbz	r3, .L56
 702              		.loc 1 1332 3 is_stmt 0 discriminator 1 view .LVU200
 703 0050 002D     		cmp	r5, #0
 704 0052 18BF     		it	ne
 705 0054 42F00102 		orrne	r2, r2, #1
 706              	.LVL62:
 707              		.loc 1 1332 3 discriminator 1 view .LVU201
 708 0058 2ABB     		cbnz	r2, .L67
 709              	.L56:
 710              		.loc 1 1332 3 is_stmt 1 view .LVU202
 711              		.loc 1 1332 3 view .LVU203
1333:Middlewares/Third_Party/LwIP/src/api/api_msg.c ****               (was_blocking && op_completed_sem != NULL) ||
1334:Middlewares/Third_Party/LwIP/src/api/api_msg.c ****               (!was_blocking && op_completed_sem == NULL));
1335:Middlewares/Third_Party/LwIP/src/api/api_msg.c ****   conn->current_msg = NULL;
 712              		.loc 1 1335 3 view .LVU204
 713              		.loc 1 1335 21 is_stmt 0 view .LVU205
 714 005a 0023     		movs	r3, #0
 715 005c 2362     		str	r3, [r4, #32]
1336:Middlewares/Third_Party/LwIP/src/api/api_msg.c ****   conn->state = NETCONN_NONE;
 716              		.loc 1 1336 3 is_stmt 1 view .LVU206
 717              		.loc 1 1336 15 is_stmt 0 view .LVU207
 718 005e 6370     		strb	r3, [r4, #1]
1337:Middlewares/Third_Party/LwIP/src/api/api_msg.c ****   API_EVENT(conn, NETCONN_EVT_SENDPLUS, 0);
 719              		.loc 1 1337 3 is_stmt 1 view .LVU208
 720 0060 636A     		ldr	r3, [r4, #36]
 721 0062 1BB1     		cbz	r3, .L57
 722              		.loc 1 1337 3 discriminator 1 view .LVU209
 723 0064 0022     		movs	r2, #0
 724 0066 0221     		movs	r1, #2
 725 0068 2046     		mov	r0, r4
ARM GAS  C:\Users\hh\AppData\Local\Temp\ccfq6ENc.s 			page 40


 726 006a 9847     		blx	r3
 727              	.LVL63:
 728              	.L57:
 729              		.loc 1 1337 43 view .LVU210
1338:Middlewares/Third_Party/LwIP/src/api/api_msg.c **** 
1339:Middlewares/Third_Party/LwIP/src/api/api_msg.c ****   if (was_blocking) {
 730              		.loc 1 1339 3 view .LVU211
 731              		.loc 1 1339 6 is_stmt 0 view .LVU212
 732 006c 1EB3     		cbz	r6, .L68
1340:Middlewares/Third_Party/LwIP/src/api/api_msg.c ****     sys_sem_signal(op_completed_sem);
1341:Middlewares/Third_Party/LwIP/src/api/api_msg.c ****   }
1342:Middlewares/Third_Party/LwIP/src/api/api_msg.c ****   return ERR_OK;
 733              		.loc 1 1342 10 view .LVU213
 734 006e 0020     		movs	r0, #0
 735              	.L51:
1343:Middlewares/Third_Party/LwIP/src/api/api_msg.c **** }
 736              		.loc 1 1343 1 view .LVU214
 737 0070 70BD     		pop	{r4, r5, r6, pc}
 738              	.LVL64:
 739              	.L64:
1319:Middlewares/Third_Party/LwIP/src/api/api_msg.c ****   LWIP_ASSERT("(conn->current_msg != NULL) || conn->in_non_blocking_connect",
 740              		.loc 1 1319 3 is_stmt 1 discriminator 1 view .LVU215
1319:Middlewares/Third_Party/LwIP/src/api/api_msg.c ****   LWIP_ASSERT("(conn->current_msg != NULL) || conn->in_non_blocking_connect",
 741              		.loc 1 1319 3 discriminator 1 view .LVU216
 742 0072 154B     		ldr	r3, .L69
 743 0074 40F22752 		movw	r2, #1319
 744              	.LVL65:
1319:Middlewares/Third_Party/LwIP/src/api/api_msg.c ****   LWIP_ASSERT("(conn->current_msg != NULL) || conn->in_non_blocking_connect",
 745              		.loc 1 1319 3 is_stmt 0 discriminator 1 view .LVU217
 746 0078 1449     		ldr	r1, .L69+4
 747              	.LVL66:
1319:Middlewares/Third_Party/LwIP/src/api/api_msg.c ****   LWIP_ASSERT("(conn->current_msg != NULL) || conn->in_non_blocking_connect",
 748              		.loc 1 1319 3 discriminator 1 view .LVU218
 749 007a 1548     		ldr	r0, .L69+8
 750              	.LVL67:
1319:Middlewares/Third_Party/LwIP/src/api/api_msg.c ****   LWIP_ASSERT("(conn->current_msg != NULL) || conn->in_non_blocking_connect",
 751              		.loc 1 1319 3 discriminator 1 view .LVU219
 752 007c FFF7FEFF 		bl	printf
 753              	.LVL68:
 754 0080 C6E7     		b	.L52
 755              	.L65:
1320:Middlewares/Third_Party/LwIP/src/api/api_msg.c ****               (conn->current_msg != NULL) || IN_NONBLOCKING_CONNECT(conn));
 756              		.loc 1 1320 3 discriminator 1 view .LVU220
 757 0082 237F     		ldrb	r3, [r4, #28]	@ zero_extendqisi2
 758 0084 13F0040F 		tst	r3, #4
 759 0088 C5D1     		bne	.L53
1320:Middlewares/Third_Party/LwIP/src/api/api_msg.c ****               (conn->current_msg != NULL) || IN_NONBLOCKING_CONNECT(conn));
 760              		.loc 1 1320 3 is_stmt 1 discriminator 2 view .LVU221
1320:Middlewares/Third_Party/LwIP/src/api/api_msg.c ****               (conn->current_msg != NULL) || IN_NONBLOCKING_CONNECT(conn));
 761              		.loc 1 1320 3 discriminator 2 view .LVU222
 762 008a 0F4B     		ldr	r3, .L69
 763 008c 4FF4A562 		mov	r2, #1320
 764 0090 1049     		ldr	r1, .L69+12
 765 0092 0F48     		ldr	r0, .L69+8
 766 0094 FFF7FEFF 		bl	printf
 767              	.LVL69:
 768 0098 BDE7     		b	.L53
ARM GAS  C:\Users\hh\AppData\Local\Temp\ccfq6ENc.s 			page 41


 769              	.LVL70:
 770              	.L66:
1327:Middlewares/Third_Party/LwIP/src/api/api_msg.c ****     setup_tcp(conn);
 771              		.loc 1 1327 54 is_stmt 0 discriminator 1 view .LVU223
 772 009a 002E     		cmp	r6, #0
 773 009c C6D1     		bne	.L55
1328:Middlewares/Third_Party/LwIP/src/api/api_msg.c ****   }
 774              		.loc 1 1328 5 is_stmt 1 view .LVU224
 775 009e 2046     		mov	r0, r4
 776 00a0 FFF7FEFF 		bl	setup_tcp
 777              	.LVL71:
 778 00a4 C2E7     		b	.L55
 779              	.LVL72:
 780              	.L67:
1332:Middlewares/Third_Party/LwIP/src/api/api_msg.c ****               (was_blocking && op_completed_sem != NULL) ||
 781              		.loc 1 1332 3 discriminator 2 view .LVU225
1332:Middlewares/Third_Party/LwIP/src/api/api_msg.c ****               (was_blocking && op_completed_sem != NULL) ||
 782              		.loc 1 1332 3 discriminator 2 view .LVU226
 783 00a6 084B     		ldr	r3, .L69
 784 00a8 40F23452 		movw	r2, #1332
 785 00ac 0A49     		ldr	r1, .L69+16
 786 00ae 0848     		ldr	r0, .L69+8
 787 00b0 FFF7FEFF 		bl	printf
 788              	.LVL73:
 789 00b4 D1E7     		b	.L56
 790              	.L68:
1340:Middlewares/Third_Party/LwIP/src/api/api_msg.c ****   }
 791              		.loc 1 1340 5 view .LVU227
 792 00b6 2846     		mov	r0, r5
 793 00b8 FFF7FEFF 		bl	sys_sem_signal
 794              	.LVL74:
1342:Middlewares/Third_Party/LwIP/src/api/api_msg.c **** }
 795              		.loc 1 1342 10 is_stmt 0 view .LVU228
 796 00bc 3046     		mov	r0, r6
 797 00be D7E7     		b	.L51
 798              	.LVL75:
 799              	.L58:
 800              	.LCFI6:
 801              		.cfi_def_cfa_offset 0
 802              		.cfi_restore 4
 803              		.cfi_restore 5
 804              		.cfi_restore 6
 805              		.cfi_restore 14
1316:Middlewares/Third_Party/LwIP/src/api/api_msg.c ****   }
 806              		.loc 1 1316 12 view .LVU229
 807 00c0 6FF00500 		mvn	r0, #5
 808              	.LVL76:
 809              		.loc 1 1343 1 view .LVU230
 810 00c4 7047     		bx	lr
 811              	.L70:
 812 00c6 00BF     		.align	2
 813              	.L69:
 814 00c8 00000000 		.word	.LC0
 815 00cc 00000000 		.word	.LC8
 816 00d0 40000000 		.word	.LC2
 817 00d4 20000000 		.word	.LC9
 818 00d8 60000000 		.word	.LC10
ARM GAS  C:\Users\hh\AppData\Local\Temp\ccfq6ENc.s 			page 42


 819              		.cfi_endproc
 820              	.LFE189:
 822              		.section	.rodata.lwip_netconn_do_writemore.str1.4,"aMS",%progbits,1
 823              		.align	2
 824              	.LC11:
 825 0000 636F6E6E 		.ascii	"conn->state == NETCONN_WRITE\000"
 825      2D3E7374 
 825      61746520 
 825      3D3D204E 
 825      4554434F 
 826 001d 000000   		.align	2
 827              	.LC12:
 828 0020 636F6E6E 		.ascii	"conn->pcb.tcp != NULL\000"
 828      2D3E7063 
 828      622E7463 
 828      7020213D 
 828      204E554C 
 829 0036 0000     		.align	2
 830              	.LC13:
 831 0038 636F6E6E 		.ascii	"conn->current_msg->msg.w.offset < conn->current_msg"
 831      2D3E6375 
 831      7272656E 
 831      745F6D73 
 831      672D3E6D 
 832 006b 2D3E6D73 		.ascii	"->msg.w.len\000"
 832      672E772E 
 832      6C656E00 
 833 0077 00       		.align	2
 834              	.LC14:
 835 0078 636F6E6E 		.ascii	"conn->current_msg->msg.w.vector_cnt > 0\000"
 835      2D3E6375 
 835      7272656E 
 835      745F6D73 
 835      672D3E6D 
 836              		.align	2
 837              	.LC15:
 838 00a0 6C776970 		.ascii	"lwip_netconn_do_writemore: invalid length!\000"
 838      5F6E6574 
 838      636F6E6E 
 838      5F646F5F 
 838      77726974 
 839              		.section	.text.lwip_netconn_do_writemore,"ax",%progbits
 840              		.align	1
 841              		.syntax unified
 842              		.thumb
 843              		.thumb_func
 845              	lwip_netconn_do_writemore:
 846              	.LVL77:
 847              	.LFB195:
1344:Middlewares/Third_Party/LwIP/src/api/api_msg.c **** #endif /* LWIP_TCP */
1345:Middlewares/Third_Party/LwIP/src/api/api_msg.c **** 
1346:Middlewares/Third_Party/LwIP/src/api/api_msg.c **** /**
1347:Middlewares/Third_Party/LwIP/src/api/api_msg.c ****  * Connect a pcb contained inside a netconn
1348:Middlewares/Third_Party/LwIP/src/api/api_msg.c ****  * Called from netconn_connect.
1349:Middlewares/Third_Party/LwIP/src/api/api_msg.c ****  *
1350:Middlewares/Third_Party/LwIP/src/api/api_msg.c ****  * @param m the api_msg pointing to the connection and containing
1351:Middlewares/Third_Party/LwIP/src/api/api_msg.c ****  *          the IP address and port to connect to
ARM GAS  C:\Users\hh\AppData\Local\Temp\ccfq6ENc.s 			page 43


1352:Middlewares/Third_Party/LwIP/src/api/api_msg.c ****  */
1353:Middlewares/Third_Party/LwIP/src/api/api_msg.c **** void
1354:Middlewares/Third_Party/LwIP/src/api/api_msg.c **** lwip_netconn_do_connect(void *m)
1355:Middlewares/Third_Party/LwIP/src/api/api_msg.c **** {
1356:Middlewares/Third_Party/LwIP/src/api/api_msg.c ****   struct api_msg *msg = (struct api_msg *)m;
1357:Middlewares/Third_Party/LwIP/src/api/api_msg.c ****   err_t err;
1358:Middlewares/Third_Party/LwIP/src/api/api_msg.c **** 
1359:Middlewares/Third_Party/LwIP/src/api/api_msg.c ****   if (msg->conn->pcb.tcp == NULL) {
1360:Middlewares/Third_Party/LwIP/src/api/api_msg.c ****     /* This may happen when calling netconn_connect() a second time */
1361:Middlewares/Third_Party/LwIP/src/api/api_msg.c ****     err = ERR_CLSD;
1362:Middlewares/Third_Party/LwIP/src/api/api_msg.c ****   } else {
1363:Middlewares/Third_Party/LwIP/src/api/api_msg.c ****     switch (NETCONNTYPE_GROUP(msg->conn->type)) {
1364:Middlewares/Third_Party/LwIP/src/api/api_msg.c **** #if LWIP_RAW
1365:Middlewares/Third_Party/LwIP/src/api/api_msg.c ****       case NETCONN_RAW:
1366:Middlewares/Third_Party/LwIP/src/api/api_msg.c ****         err = raw_connect(msg->conn->pcb.raw, API_EXPR_REF(msg->msg.bc.ipaddr));
1367:Middlewares/Third_Party/LwIP/src/api/api_msg.c ****         break;
1368:Middlewares/Third_Party/LwIP/src/api/api_msg.c **** #endif /* LWIP_RAW */
1369:Middlewares/Third_Party/LwIP/src/api/api_msg.c **** #if LWIP_UDP
1370:Middlewares/Third_Party/LwIP/src/api/api_msg.c ****       case NETCONN_UDP:
1371:Middlewares/Third_Party/LwIP/src/api/api_msg.c ****         err = udp_connect(msg->conn->pcb.udp, API_EXPR_REF(msg->msg.bc.ipaddr), msg->msg.bc.port);
1372:Middlewares/Third_Party/LwIP/src/api/api_msg.c ****         break;
1373:Middlewares/Third_Party/LwIP/src/api/api_msg.c **** #endif /* LWIP_UDP */
1374:Middlewares/Third_Party/LwIP/src/api/api_msg.c **** #if LWIP_TCP
1375:Middlewares/Third_Party/LwIP/src/api/api_msg.c ****       case NETCONN_TCP:
1376:Middlewares/Third_Party/LwIP/src/api/api_msg.c ****         /* Prevent connect while doing any other action. */
1377:Middlewares/Third_Party/LwIP/src/api/api_msg.c ****         if (msg->conn->state == NETCONN_CONNECT) {
1378:Middlewares/Third_Party/LwIP/src/api/api_msg.c ****           err = ERR_ALREADY;
1379:Middlewares/Third_Party/LwIP/src/api/api_msg.c ****         } else if (msg->conn->state != NETCONN_NONE) {
1380:Middlewares/Third_Party/LwIP/src/api/api_msg.c ****           err = ERR_ISCONN;
1381:Middlewares/Third_Party/LwIP/src/api/api_msg.c ****         } else {
1382:Middlewares/Third_Party/LwIP/src/api/api_msg.c ****           setup_tcp(msg->conn);
1383:Middlewares/Third_Party/LwIP/src/api/api_msg.c ****           err = tcp_connect(msg->conn->pcb.tcp, API_EXPR_REF(msg->msg.bc.ipaddr),
1384:Middlewares/Third_Party/LwIP/src/api/api_msg.c ****                             msg->msg.bc.port, lwip_netconn_do_connected);
1385:Middlewares/Third_Party/LwIP/src/api/api_msg.c ****           if (err == ERR_OK) {
1386:Middlewares/Third_Party/LwIP/src/api/api_msg.c ****             u8_t non_blocking = netconn_is_nonblocking(msg->conn);
1387:Middlewares/Third_Party/LwIP/src/api/api_msg.c ****             msg->conn->state = NETCONN_CONNECT;
1388:Middlewares/Third_Party/LwIP/src/api/api_msg.c ****             SET_NONBLOCKING_CONNECT(msg->conn, non_blocking);
1389:Middlewares/Third_Party/LwIP/src/api/api_msg.c ****             if (non_blocking) {
1390:Middlewares/Third_Party/LwIP/src/api/api_msg.c ****               err = ERR_INPROGRESS;
1391:Middlewares/Third_Party/LwIP/src/api/api_msg.c ****             } else {
1392:Middlewares/Third_Party/LwIP/src/api/api_msg.c ****               msg->conn->current_msg = msg;
1393:Middlewares/Third_Party/LwIP/src/api/api_msg.c ****               /* sys_sem_signal() is called from lwip_netconn_do_connected (or err_tcp()),
1394:Middlewares/Third_Party/LwIP/src/api/api_msg.c ****                  when the connection is established! */
1395:Middlewares/Third_Party/LwIP/src/api/api_msg.c **** #if LWIP_TCPIP_CORE_LOCKING
1396:Middlewares/Third_Party/LwIP/src/api/api_msg.c ****               LWIP_ASSERT("state!", msg->conn->state == NETCONN_CONNECT);
1397:Middlewares/Third_Party/LwIP/src/api/api_msg.c ****               UNLOCK_TCPIP_CORE();
1398:Middlewares/Third_Party/LwIP/src/api/api_msg.c ****               sys_arch_sem_wait(LWIP_API_MSG_SEM(msg), 0);
1399:Middlewares/Third_Party/LwIP/src/api/api_msg.c ****               LOCK_TCPIP_CORE();
1400:Middlewares/Third_Party/LwIP/src/api/api_msg.c ****               LWIP_ASSERT("state!", msg->conn->state != NETCONN_CONNECT);
1401:Middlewares/Third_Party/LwIP/src/api/api_msg.c **** #endif /* LWIP_TCPIP_CORE_LOCKING */
1402:Middlewares/Third_Party/LwIP/src/api/api_msg.c ****               return;
1403:Middlewares/Third_Party/LwIP/src/api/api_msg.c ****             }
1404:Middlewares/Third_Party/LwIP/src/api/api_msg.c ****           }
1405:Middlewares/Third_Party/LwIP/src/api/api_msg.c ****         }
1406:Middlewares/Third_Party/LwIP/src/api/api_msg.c ****         break;
1407:Middlewares/Third_Party/LwIP/src/api/api_msg.c **** #endif /* LWIP_TCP */
1408:Middlewares/Third_Party/LwIP/src/api/api_msg.c ****       default:
ARM GAS  C:\Users\hh\AppData\Local\Temp\ccfq6ENc.s 			page 44


1409:Middlewares/Third_Party/LwIP/src/api/api_msg.c ****         LWIP_ERROR("Invalid netconn type", 0, do {
1410:Middlewares/Third_Party/LwIP/src/api/api_msg.c ****           err = ERR_VAL;
1411:Middlewares/Third_Party/LwIP/src/api/api_msg.c ****         } while (0));
1412:Middlewares/Third_Party/LwIP/src/api/api_msg.c ****         break;
1413:Middlewares/Third_Party/LwIP/src/api/api_msg.c ****     }
1414:Middlewares/Third_Party/LwIP/src/api/api_msg.c ****   }
1415:Middlewares/Third_Party/LwIP/src/api/api_msg.c ****   msg->err = err;
1416:Middlewares/Third_Party/LwIP/src/api/api_msg.c ****   /* For all other protocols, netconn_connect() calls netconn_apimsg(),
1417:Middlewares/Third_Party/LwIP/src/api/api_msg.c ****      so use TCPIP_APIMSG_ACK() here. */
1418:Middlewares/Third_Party/LwIP/src/api/api_msg.c ****   TCPIP_APIMSG_ACK(msg);
1419:Middlewares/Third_Party/LwIP/src/api/api_msg.c **** }
1420:Middlewares/Third_Party/LwIP/src/api/api_msg.c **** 
1421:Middlewares/Third_Party/LwIP/src/api/api_msg.c **** /**
1422:Middlewares/Third_Party/LwIP/src/api/api_msg.c ****  * Disconnect a pcb contained inside a netconn
1423:Middlewares/Third_Party/LwIP/src/api/api_msg.c ****  * Only used for UDP netconns.
1424:Middlewares/Third_Party/LwIP/src/api/api_msg.c ****  * Called from netconn_disconnect.
1425:Middlewares/Third_Party/LwIP/src/api/api_msg.c ****  *
1426:Middlewares/Third_Party/LwIP/src/api/api_msg.c ****  * @param m the api_msg pointing to the connection to disconnect
1427:Middlewares/Third_Party/LwIP/src/api/api_msg.c ****  */
1428:Middlewares/Third_Party/LwIP/src/api/api_msg.c **** void
1429:Middlewares/Third_Party/LwIP/src/api/api_msg.c **** lwip_netconn_do_disconnect(void *m)
1430:Middlewares/Third_Party/LwIP/src/api/api_msg.c **** {
1431:Middlewares/Third_Party/LwIP/src/api/api_msg.c ****   struct api_msg *msg = (struct api_msg *)m;
1432:Middlewares/Third_Party/LwIP/src/api/api_msg.c **** 
1433:Middlewares/Third_Party/LwIP/src/api/api_msg.c **** #if LWIP_UDP
1434:Middlewares/Third_Party/LwIP/src/api/api_msg.c ****   if (NETCONNTYPE_GROUP(msg->conn->type) == NETCONN_UDP) {
1435:Middlewares/Third_Party/LwIP/src/api/api_msg.c ****     udp_disconnect(msg->conn->pcb.udp);
1436:Middlewares/Third_Party/LwIP/src/api/api_msg.c ****     msg->err = ERR_OK;
1437:Middlewares/Third_Party/LwIP/src/api/api_msg.c ****   } else
1438:Middlewares/Third_Party/LwIP/src/api/api_msg.c **** #endif /* LWIP_UDP */
1439:Middlewares/Third_Party/LwIP/src/api/api_msg.c ****   {
1440:Middlewares/Third_Party/LwIP/src/api/api_msg.c ****     msg->err = ERR_VAL;
1441:Middlewares/Third_Party/LwIP/src/api/api_msg.c ****   }
1442:Middlewares/Third_Party/LwIP/src/api/api_msg.c ****   TCPIP_APIMSG_ACK(msg);
1443:Middlewares/Third_Party/LwIP/src/api/api_msg.c **** }
1444:Middlewares/Third_Party/LwIP/src/api/api_msg.c **** 
1445:Middlewares/Third_Party/LwIP/src/api/api_msg.c **** #if LWIP_TCP
1446:Middlewares/Third_Party/LwIP/src/api/api_msg.c **** /**
1447:Middlewares/Third_Party/LwIP/src/api/api_msg.c ****  * Set a TCP pcb contained in a netconn into listen mode
1448:Middlewares/Third_Party/LwIP/src/api/api_msg.c ****  * Called from netconn_listen.
1449:Middlewares/Third_Party/LwIP/src/api/api_msg.c ****  *
1450:Middlewares/Third_Party/LwIP/src/api/api_msg.c ****  * @param m the api_msg pointing to the connection
1451:Middlewares/Third_Party/LwIP/src/api/api_msg.c ****  */
1452:Middlewares/Third_Party/LwIP/src/api/api_msg.c **** void
1453:Middlewares/Third_Party/LwIP/src/api/api_msg.c **** lwip_netconn_do_listen(void *m)
1454:Middlewares/Third_Party/LwIP/src/api/api_msg.c **** {
1455:Middlewares/Third_Party/LwIP/src/api/api_msg.c ****   struct api_msg *msg = (struct api_msg *)m;
1456:Middlewares/Third_Party/LwIP/src/api/api_msg.c ****   err_t err;
1457:Middlewares/Third_Party/LwIP/src/api/api_msg.c **** 
1458:Middlewares/Third_Party/LwIP/src/api/api_msg.c ****   if (msg->conn->pcb.tcp != NULL) {
1459:Middlewares/Third_Party/LwIP/src/api/api_msg.c ****     if (NETCONNTYPE_GROUP(msg->conn->type) == NETCONN_TCP) {
1460:Middlewares/Third_Party/LwIP/src/api/api_msg.c ****       if (msg->conn->state == NETCONN_NONE) {
1461:Middlewares/Third_Party/LwIP/src/api/api_msg.c ****         struct tcp_pcb *lpcb;
1462:Middlewares/Third_Party/LwIP/src/api/api_msg.c ****         if (msg->conn->pcb.tcp->state != CLOSED) {
1463:Middlewares/Third_Party/LwIP/src/api/api_msg.c ****           /* connection is not closed, cannot listen */
1464:Middlewares/Third_Party/LwIP/src/api/api_msg.c ****           err = ERR_VAL;
1465:Middlewares/Third_Party/LwIP/src/api/api_msg.c ****         } else {
ARM GAS  C:\Users\hh\AppData\Local\Temp\ccfq6ENc.s 			page 45


1466:Middlewares/Third_Party/LwIP/src/api/api_msg.c ****           u8_t backlog;
1467:Middlewares/Third_Party/LwIP/src/api/api_msg.c **** #if TCP_LISTEN_BACKLOG
1468:Middlewares/Third_Party/LwIP/src/api/api_msg.c ****           backlog = msg->msg.lb.backlog;
1469:Middlewares/Third_Party/LwIP/src/api/api_msg.c **** #else  /* TCP_LISTEN_BACKLOG */
1470:Middlewares/Third_Party/LwIP/src/api/api_msg.c ****           backlog = TCP_DEFAULT_LISTEN_BACKLOG;
1471:Middlewares/Third_Party/LwIP/src/api/api_msg.c **** #endif /* TCP_LISTEN_BACKLOG */
1472:Middlewares/Third_Party/LwIP/src/api/api_msg.c **** #if LWIP_IPV4 && LWIP_IPV6
1473:Middlewares/Third_Party/LwIP/src/api/api_msg.c ****           /* "Socket API like" dual-stack support: If IP to listen to is IP6_ADDR_ANY,
1474:Middlewares/Third_Party/LwIP/src/api/api_msg.c ****             * and NETCONN_FLAG_IPV6_V6ONLY is NOT set, use IP_ANY_TYPE to listen
1475:Middlewares/Third_Party/LwIP/src/api/api_msg.c ****             */
1476:Middlewares/Third_Party/LwIP/src/api/api_msg.c ****           if (ip_addr_eq(&msg->conn->pcb.ip->local_ip, IP6_ADDR_ANY) &&
1477:Middlewares/Third_Party/LwIP/src/api/api_msg.c ****               (netconn_get_ipv6only(msg->conn) == 0)) {
1478:Middlewares/Third_Party/LwIP/src/api/api_msg.c ****             /* change PCB type to IPADDR_TYPE_ANY */
1479:Middlewares/Third_Party/LwIP/src/api/api_msg.c ****             IP_SET_TYPE_VAL(msg->conn->pcb.tcp->local_ip,  IPADDR_TYPE_ANY);
1480:Middlewares/Third_Party/LwIP/src/api/api_msg.c ****             IP_SET_TYPE_VAL(msg->conn->pcb.tcp->remote_ip, IPADDR_TYPE_ANY);
1481:Middlewares/Third_Party/LwIP/src/api/api_msg.c ****           }
1482:Middlewares/Third_Party/LwIP/src/api/api_msg.c **** #endif /* LWIP_IPV4 && LWIP_IPV6 */
1483:Middlewares/Third_Party/LwIP/src/api/api_msg.c **** 
1484:Middlewares/Third_Party/LwIP/src/api/api_msg.c ****           lpcb = tcp_listen_with_backlog_and_err(msg->conn->pcb.tcp, backlog, &err);
1485:Middlewares/Third_Party/LwIP/src/api/api_msg.c **** 
1486:Middlewares/Third_Party/LwIP/src/api/api_msg.c ****           if (lpcb == NULL) {
1487:Middlewares/Third_Party/LwIP/src/api/api_msg.c ****             /* in this case, the old pcb is still allocated */
1488:Middlewares/Third_Party/LwIP/src/api/api_msg.c ****           } else {
1489:Middlewares/Third_Party/LwIP/src/api/api_msg.c ****             /* delete the recvmbox and allocate the acceptmbox */
1490:Middlewares/Third_Party/LwIP/src/api/api_msg.c ****             if (sys_mbox_valid(&msg->conn->recvmbox)) {
1491:Middlewares/Third_Party/LwIP/src/api/api_msg.c ****               /** @todo: should we drain the recvmbox here? */
1492:Middlewares/Third_Party/LwIP/src/api/api_msg.c ****               sys_mbox_free(&msg->conn->recvmbox);
1493:Middlewares/Third_Party/LwIP/src/api/api_msg.c ****               sys_mbox_set_invalid(&msg->conn->recvmbox);
1494:Middlewares/Third_Party/LwIP/src/api/api_msg.c ****             }
1495:Middlewares/Third_Party/LwIP/src/api/api_msg.c ****             err = ERR_OK;
1496:Middlewares/Third_Party/LwIP/src/api/api_msg.c ****             if (!sys_mbox_valid(&msg->conn->acceptmbox)) {
1497:Middlewares/Third_Party/LwIP/src/api/api_msg.c ****               err = sys_mbox_new(&msg->conn->acceptmbox, DEFAULT_ACCEPTMBOX_SIZE);
1498:Middlewares/Third_Party/LwIP/src/api/api_msg.c ****             }
1499:Middlewares/Third_Party/LwIP/src/api/api_msg.c ****             if (err == ERR_OK) {
1500:Middlewares/Third_Party/LwIP/src/api/api_msg.c ****               msg->conn->state = NETCONN_LISTEN;
1501:Middlewares/Third_Party/LwIP/src/api/api_msg.c ****               msg->conn->pcb.tcp = lpcb;
1502:Middlewares/Third_Party/LwIP/src/api/api_msg.c ****               tcp_arg(msg->conn->pcb.tcp, msg->conn);
1503:Middlewares/Third_Party/LwIP/src/api/api_msg.c ****               tcp_accept(msg->conn->pcb.tcp, accept_function);
1504:Middlewares/Third_Party/LwIP/src/api/api_msg.c ****             } else {
1505:Middlewares/Third_Party/LwIP/src/api/api_msg.c ****               /* since the old pcb is already deallocated, free lpcb now */
1506:Middlewares/Third_Party/LwIP/src/api/api_msg.c ****               tcp_close(lpcb);
1507:Middlewares/Third_Party/LwIP/src/api/api_msg.c ****               msg->conn->pcb.tcp = NULL;
1508:Middlewares/Third_Party/LwIP/src/api/api_msg.c ****             }
1509:Middlewares/Third_Party/LwIP/src/api/api_msg.c ****           }
1510:Middlewares/Third_Party/LwIP/src/api/api_msg.c ****         }
1511:Middlewares/Third_Party/LwIP/src/api/api_msg.c ****       } else if (msg->conn->state == NETCONN_LISTEN) {
1512:Middlewares/Third_Party/LwIP/src/api/api_msg.c ****         /* already listening, allow updating of the backlog */
1513:Middlewares/Third_Party/LwIP/src/api/api_msg.c ****         err = ERR_OK;
1514:Middlewares/Third_Party/LwIP/src/api/api_msg.c ****         tcp_backlog_set(msg->conn->pcb.tcp, msg->msg.lb.backlog);
1515:Middlewares/Third_Party/LwIP/src/api/api_msg.c ****       } else {
1516:Middlewares/Third_Party/LwIP/src/api/api_msg.c ****         err = ERR_CONN;
1517:Middlewares/Third_Party/LwIP/src/api/api_msg.c ****       }
1518:Middlewares/Third_Party/LwIP/src/api/api_msg.c ****     } else {
1519:Middlewares/Third_Party/LwIP/src/api/api_msg.c ****       err = ERR_ARG;
1520:Middlewares/Third_Party/LwIP/src/api/api_msg.c ****     }
1521:Middlewares/Third_Party/LwIP/src/api/api_msg.c ****   } else {
1522:Middlewares/Third_Party/LwIP/src/api/api_msg.c ****     err = ERR_CONN;
ARM GAS  C:\Users\hh\AppData\Local\Temp\ccfq6ENc.s 			page 46


1523:Middlewares/Third_Party/LwIP/src/api/api_msg.c ****   }
1524:Middlewares/Third_Party/LwIP/src/api/api_msg.c ****   msg->err = err;
1525:Middlewares/Third_Party/LwIP/src/api/api_msg.c ****   TCPIP_APIMSG_ACK(msg);
1526:Middlewares/Third_Party/LwIP/src/api/api_msg.c **** }
1527:Middlewares/Third_Party/LwIP/src/api/api_msg.c **** #endif /* LWIP_TCP */
1528:Middlewares/Third_Party/LwIP/src/api/api_msg.c **** 
1529:Middlewares/Third_Party/LwIP/src/api/api_msg.c **** /**
1530:Middlewares/Third_Party/LwIP/src/api/api_msg.c ****  * Send some data on a RAW or UDP pcb contained in a netconn
1531:Middlewares/Third_Party/LwIP/src/api/api_msg.c ****  * Called from netconn_send
1532:Middlewares/Third_Party/LwIP/src/api/api_msg.c ****  *
1533:Middlewares/Third_Party/LwIP/src/api/api_msg.c ****  * @param m the api_msg pointing to the connection
1534:Middlewares/Third_Party/LwIP/src/api/api_msg.c ****  */
1535:Middlewares/Third_Party/LwIP/src/api/api_msg.c **** void
1536:Middlewares/Third_Party/LwIP/src/api/api_msg.c **** lwip_netconn_do_send(void *m)
1537:Middlewares/Third_Party/LwIP/src/api/api_msg.c **** {
1538:Middlewares/Third_Party/LwIP/src/api/api_msg.c ****   struct api_msg *msg = (struct api_msg *)m;
1539:Middlewares/Third_Party/LwIP/src/api/api_msg.c **** 
1540:Middlewares/Third_Party/LwIP/src/api/api_msg.c ****   err_t err = netconn_err(msg->conn);
1541:Middlewares/Third_Party/LwIP/src/api/api_msg.c ****   if (err == ERR_OK) {
1542:Middlewares/Third_Party/LwIP/src/api/api_msg.c ****     if (msg->conn->pcb.tcp != NULL) {
1543:Middlewares/Third_Party/LwIP/src/api/api_msg.c ****       switch (NETCONNTYPE_GROUP(msg->conn->type)) {
1544:Middlewares/Third_Party/LwIP/src/api/api_msg.c **** #if LWIP_RAW
1545:Middlewares/Third_Party/LwIP/src/api/api_msg.c ****         case NETCONN_RAW:
1546:Middlewares/Third_Party/LwIP/src/api/api_msg.c ****           if (ip_addr_isany(&msg->msg.b->addr) || IP_IS_ANY_TYPE_VAL(msg->msg.b->addr)) {
1547:Middlewares/Third_Party/LwIP/src/api/api_msg.c ****             err = raw_send(msg->conn->pcb.raw, msg->msg.b->p);
1548:Middlewares/Third_Party/LwIP/src/api/api_msg.c ****           } else {
1549:Middlewares/Third_Party/LwIP/src/api/api_msg.c ****             err = raw_sendto(msg->conn->pcb.raw, msg->msg.b->p, &msg->msg.b->addr);
1550:Middlewares/Third_Party/LwIP/src/api/api_msg.c ****           }
1551:Middlewares/Third_Party/LwIP/src/api/api_msg.c ****           break;
1552:Middlewares/Third_Party/LwIP/src/api/api_msg.c **** #endif
1553:Middlewares/Third_Party/LwIP/src/api/api_msg.c **** #if LWIP_UDP
1554:Middlewares/Third_Party/LwIP/src/api/api_msg.c ****         case NETCONN_UDP:
1555:Middlewares/Third_Party/LwIP/src/api/api_msg.c **** #if LWIP_CHECKSUM_ON_COPY
1556:Middlewares/Third_Party/LwIP/src/api/api_msg.c ****           if (ip_addr_isany(&msg->msg.b->addr) || IP_IS_ANY_TYPE_VAL(msg->msg.b->addr)) {
1557:Middlewares/Third_Party/LwIP/src/api/api_msg.c ****             err = udp_send_chksum(msg->conn->pcb.udp, msg->msg.b->p,
1558:Middlewares/Third_Party/LwIP/src/api/api_msg.c ****                                   msg->msg.b->flags & NETBUF_FLAG_CHKSUM, msg->msg.b->toport_chksum
1559:Middlewares/Third_Party/LwIP/src/api/api_msg.c ****           } else {
1560:Middlewares/Third_Party/LwIP/src/api/api_msg.c ****             err = udp_sendto_chksum(msg->conn->pcb.udp, msg->msg.b->p,
1561:Middlewares/Third_Party/LwIP/src/api/api_msg.c ****                                     &msg->msg.b->addr, msg->msg.b->port,
1562:Middlewares/Third_Party/LwIP/src/api/api_msg.c ****                                     msg->msg.b->flags & NETBUF_FLAG_CHKSUM, msg->msg.b->toport_chks
1563:Middlewares/Third_Party/LwIP/src/api/api_msg.c ****           }
1564:Middlewares/Third_Party/LwIP/src/api/api_msg.c **** #else /* LWIP_CHECKSUM_ON_COPY */
1565:Middlewares/Third_Party/LwIP/src/api/api_msg.c ****           if (ip_addr_isany_val(msg->msg.b->addr) || IP_IS_ANY_TYPE_VAL(msg->msg.b->addr)) {
1566:Middlewares/Third_Party/LwIP/src/api/api_msg.c ****             err = udp_send(msg->conn->pcb.udp, msg->msg.b->p);
1567:Middlewares/Third_Party/LwIP/src/api/api_msg.c ****           } else {
1568:Middlewares/Third_Party/LwIP/src/api/api_msg.c ****             err = udp_sendto(msg->conn->pcb.udp, msg->msg.b->p, &msg->msg.b->addr, msg->msg.b->port
1569:Middlewares/Third_Party/LwIP/src/api/api_msg.c ****           }
1570:Middlewares/Third_Party/LwIP/src/api/api_msg.c **** #endif /* LWIP_CHECKSUM_ON_COPY */
1571:Middlewares/Third_Party/LwIP/src/api/api_msg.c ****           break;
1572:Middlewares/Third_Party/LwIP/src/api/api_msg.c **** #endif /* LWIP_UDP */
1573:Middlewares/Third_Party/LwIP/src/api/api_msg.c ****         default:
1574:Middlewares/Third_Party/LwIP/src/api/api_msg.c ****           err = ERR_CONN;
1575:Middlewares/Third_Party/LwIP/src/api/api_msg.c ****           break;
1576:Middlewares/Third_Party/LwIP/src/api/api_msg.c ****       }
1577:Middlewares/Third_Party/LwIP/src/api/api_msg.c ****     } else {
1578:Middlewares/Third_Party/LwIP/src/api/api_msg.c ****       err = ERR_CONN;
1579:Middlewares/Third_Party/LwIP/src/api/api_msg.c ****     }
ARM GAS  C:\Users\hh\AppData\Local\Temp\ccfq6ENc.s 			page 47


1580:Middlewares/Third_Party/LwIP/src/api/api_msg.c ****   }
1581:Middlewares/Third_Party/LwIP/src/api/api_msg.c ****   msg->err = err;
1582:Middlewares/Third_Party/LwIP/src/api/api_msg.c ****   TCPIP_APIMSG_ACK(msg);
1583:Middlewares/Third_Party/LwIP/src/api/api_msg.c **** }
1584:Middlewares/Third_Party/LwIP/src/api/api_msg.c **** 
1585:Middlewares/Third_Party/LwIP/src/api/api_msg.c **** #if LWIP_TCP
1586:Middlewares/Third_Party/LwIP/src/api/api_msg.c **** /**
1587:Middlewares/Third_Party/LwIP/src/api/api_msg.c ****  * Indicate data has been received from a TCP pcb contained in a netconn
1588:Middlewares/Third_Party/LwIP/src/api/api_msg.c ****  * Called from netconn_recv
1589:Middlewares/Third_Party/LwIP/src/api/api_msg.c ****  *
1590:Middlewares/Third_Party/LwIP/src/api/api_msg.c ****  * @param m the api_msg pointing to the connection
1591:Middlewares/Third_Party/LwIP/src/api/api_msg.c ****  */
1592:Middlewares/Third_Party/LwIP/src/api/api_msg.c **** void
1593:Middlewares/Third_Party/LwIP/src/api/api_msg.c **** lwip_netconn_do_recv(void *m)
1594:Middlewares/Third_Party/LwIP/src/api/api_msg.c **** {
1595:Middlewares/Third_Party/LwIP/src/api/api_msg.c ****   struct api_msg *msg = (struct api_msg *)m;
1596:Middlewares/Third_Party/LwIP/src/api/api_msg.c **** 
1597:Middlewares/Third_Party/LwIP/src/api/api_msg.c ****   msg->err = ERR_OK;
1598:Middlewares/Third_Party/LwIP/src/api/api_msg.c ****   if (msg->conn->pcb.tcp != NULL) {
1599:Middlewares/Third_Party/LwIP/src/api/api_msg.c ****     if (NETCONNTYPE_GROUP(msg->conn->type) == NETCONN_TCP) {
1600:Middlewares/Third_Party/LwIP/src/api/api_msg.c ****       size_t remaining = msg->msg.r.len;
1601:Middlewares/Third_Party/LwIP/src/api/api_msg.c ****       do {
1602:Middlewares/Third_Party/LwIP/src/api/api_msg.c ****         u16_t recved = (u16_t)((remaining > 0xffff) ? 0xffff : remaining);
1603:Middlewares/Third_Party/LwIP/src/api/api_msg.c ****         tcp_recved(msg->conn->pcb.tcp, recved);
1604:Middlewares/Third_Party/LwIP/src/api/api_msg.c ****         remaining -= recved;
1605:Middlewares/Third_Party/LwIP/src/api/api_msg.c ****       } while (remaining != 0);
1606:Middlewares/Third_Party/LwIP/src/api/api_msg.c ****     }
1607:Middlewares/Third_Party/LwIP/src/api/api_msg.c ****   }
1608:Middlewares/Third_Party/LwIP/src/api/api_msg.c ****   TCPIP_APIMSG_ACK(msg);
1609:Middlewares/Third_Party/LwIP/src/api/api_msg.c **** }
1610:Middlewares/Third_Party/LwIP/src/api/api_msg.c **** 
1611:Middlewares/Third_Party/LwIP/src/api/api_msg.c **** #if TCP_LISTEN_BACKLOG
1612:Middlewares/Third_Party/LwIP/src/api/api_msg.c **** /** Indicate that a TCP pcb has been accepted
1613:Middlewares/Third_Party/LwIP/src/api/api_msg.c ****  * Called from netconn_accept
1614:Middlewares/Third_Party/LwIP/src/api/api_msg.c ****  *
1615:Middlewares/Third_Party/LwIP/src/api/api_msg.c ****  * @param m the api_msg pointing to the connection
1616:Middlewares/Third_Party/LwIP/src/api/api_msg.c ****  */
1617:Middlewares/Third_Party/LwIP/src/api/api_msg.c **** void
1618:Middlewares/Third_Party/LwIP/src/api/api_msg.c **** lwip_netconn_do_accepted(void *m)
1619:Middlewares/Third_Party/LwIP/src/api/api_msg.c **** {
1620:Middlewares/Third_Party/LwIP/src/api/api_msg.c ****   struct api_msg *msg = (struct api_msg *)m;
1621:Middlewares/Third_Party/LwIP/src/api/api_msg.c **** 
1622:Middlewares/Third_Party/LwIP/src/api/api_msg.c ****   msg->err = ERR_OK;
1623:Middlewares/Third_Party/LwIP/src/api/api_msg.c ****   if (msg->conn->pcb.tcp != NULL) {
1624:Middlewares/Third_Party/LwIP/src/api/api_msg.c ****     if (NETCONNTYPE_GROUP(msg->conn->type) == NETCONN_TCP) {
1625:Middlewares/Third_Party/LwIP/src/api/api_msg.c ****       tcp_backlog_accepted(msg->conn->pcb.tcp);
1626:Middlewares/Third_Party/LwIP/src/api/api_msg.c ****     }
1627:Middlewares/Third_Party/LwIP/src/api/api_msg.c ****   }
1628:Middlewares/Third_Party/LwIP/src/api/api_msg.c ****   TCPIP_APIMSG_ACK(msg);
1629:Middlewares/Third_Party/LwIP/src/api/api_msg.c **** }
1630:Middlewares/Third_Party/LwIP/src/api/api_msg.c **** #endif /* TCP_LISTEN_BACKLOG */
1631:Middlewares/Third_Party/LwIP/src/api/api_msg.c **** 
1632:Middlewares/Third_Party/LwIP/src/api/api_msg.c **** /**
1633:Middlewares/Third_Party/LwIP/src/api/api_msg.c ****  * See if more data needs to be written from a previous call to netconn_write.
1634:Middlewares/Third_Party/LwIP/src/api/api_msg.c ****  * Called initially from lwip_netconn_do_write. If the first call can't send all data
1635:Middlewares/Third_Party/LwIP/src/api/api_msg.c ****  * (because of low memory or empty send-buffer), this function is called again
1636:Middlewares/Third_Party/LwIP/src/api/api_msg.c ****  * from sent_tcp() or poll_tcp() to send more data. If all data is sent, the
ARM GAS  C:\Users\hh\AppData\Local\Temp\ccfq6ENc.s 			page 48


1637:Middlewares/Third_Party/LwIP/src/api/api_msg.c ****  * blocking application thread (waiting in netconn_write) is released.
1638:Middlewares/Third_Party/LwIP/src/api/api_msg.c ****  *
1639:Middlewares/Third_Party/LwIP/src/api/api_msg.c ****  * @param conn netconn (that is currently in state NETCONN_WRITE) to process
1640:Middlewares/Third_Party/LwIP/src/api/api_msg.c ****  * @return ERR_OK
1641:Middlewares/Third_Party/LwIP/src/api/api_msg.c ****  *         ERR_MEM if LWIP_TCPIP_CORE_LOCKING=1 and sending hasn't yet finished
1642:Middlewares/Third_Party/LwIP/src/api/api_msg.c ****  */
1643:Middlewares/Third_Party/LwIP/src/api/api_msg.c **** static err_t
1644:Middlewares/Third_Party/LwIP/src/api/api_msg.c **** lwip_netconn_do_writemore(struct netconn *conn  WRITE_DELAYED_PARAM)
1645:Middlewares/Third_Party/LwIP/src/api/api_msg.c **** {
 848              		.loc 1 1645 1 is_stmt 1 view -0
 849              		.cfi_startproc
 850              		@ args = 0, pretend = 0, frame = 0
 851              		@ frame_needed = 0, uses_anonymous_args = 0
 852              		.loc 1 1645 1 is_stmt 0 view .LVU232
 853 0000 2DE9F84F 		push	{r3, r4, r5, r6, r7, r8, r9, r10, fp, lr}
 854              	.LCFI7:
 855              		.cfi_def_cfa_offset 40
 856              		.cfi_offset 3, -40
 857              		.cfi_offset 4, -36
 858              		.cfi_offset 5, -32
 859              		.cfi_offset 6, -28
 860              		.cfi_offset 7, -24
 861              		.cfi_offset 8, -20
 862              		.cfi_offset 9, -16
 863              		.cfi_offset 10, -12
 864              		.cfi_offset 11, -8
 865              		.cfi_offset 14, -4
 866 0004 8B46     		mov	fp, r1
1646:Middlewares/Third_Party/LwIP/src/api/api_msg.c ****   err_t err;
 867              		.loc 1 1646 3 is_stmt 1 view .LVU233
1647:Middlewares/Third_Party/LwIP/src/api/api_msg.c ****   const void *dataptr;
 868              		.loc 1 1647 3 view .LVU234
1648:Middlewares/Third_Party/LwIP/src/api/api_msg.c ****   u16_t len, available;
 869              		.loc 1 1648 3 view .LVU235
1649:Middlewares/Third_Party/LwIP/src/api/api_msg.c ****   u8_t write_finished = 0;
 870              		.loc 1 1649 3 view .LVU236
 871              	.LVL78:
1650:Middlewares/Third_Party/LwIP/src/api/api_msg.c ****   size_t diff;
 872              		.loc 1 1650 3 view .LVU237
1651:Middlewares/Third_Party/LwIP/src/api/api_msg.c ****   u8_t dontblock;
 873              		.loc 1 1651 3 view .LVU238
1652:Middlewares/Third_Party/LwIP/src/api/api_msg.c ****   u8_t apiflags;
 874              		.loc 1 1652 3 view .LVU239
1653:Middlewares/Third_Party/LwIP/src/api/api_msg.c ****   u8_t write_more;
 875              		.loc 1 1653 3 view .LVU240
1654:Middlewares/Third_Party/LwIP/src/api/api_msg.c **** 
1655:Middlewares/Third_Party/LwIP/src/api/api_msg.c ****   LWIP_ASSERT("conn != NULL", conn != NULL);
 876              		.loc 1 1655 3 view .LVU241
 877              		.loc 1 1655 3 view .LVU242
 878 0006 0546     		mov	r5, r0
 879 0008 E8B1     		cbz	r0, .L115
 880              	.LVL79:
 881              	.L72:
 882              		.loc 1 1655 3 view .LVU243
 883              		.loc 1 1655 3 view .LVU244
1656:Middlewares/Third_Party/LwIP/src/api/api_msg.c ****   LWIP_ASSERT("conn->state == NETCONN_WRITE", (conn->state == NETCONN_WRITE));
 884              		.loc 1 1656 3 view .LVU245
ARM GAS  C:\Users\hh\AppData\Local\Temp\ccfq6ENc.s 			page 49


 885              		.loc 1 1656 3 view .LVU246
 886 000a 6B78     		ldrb	r3, [r5, #1]	@ zero_extendqisi2
 887 000c 012B     		cmp	r3, #1
 888 000e 22D1     		bne	.L116
 889              	.L73:
 890              		.loc 1 1656 3 view .LVU247
 891              		.loc 1 1656 3 view .LVU248
1657:Middlewares/Third_Party/LwIP/src/api/api_msg.c ****   LWIP_ASSERT("conn->current_msg != NULL", conn->current_msg != NULL);
 892              		.loc 1 1657 3 view .LVU249
 893              		.loc 1 1657 3 view .LVU250
 894 0010 2B6A     		ldr	r3, [r5, #32]
 895 0012 43B3     		cbz	r3, .L117
 896              	.L74:
 897              		.loc 1 1657 3 view .LVU251
 898              		.loc 1 1657 3 view .LVU252
1658:Middlewares/Third_Party/LwIP/src/api/api_msg.c ****   LWIP_ASSERT("conn->pcb.tcp != NULL", conn->pcb.tcp != NULL);
 899              		.loc 1 1658 3 view .LVU253
 900              		.loc 1 1658 3 view .LVU254
 901 0014 6B68     		ldr	r3, [r5, #4]
 902 0016 002B     		cmp	r3, #0
 903 0018 2DD0     		beq	.L118
 904              	.L75:
 905              		.loc 1 1658 3 view .LVU255
 906              		.loc 1 1658 3 view .LVU256
1659:Middlewares/Third_Party/LwIP/src/api/api_msg.c ****   LWIP_ASSERT("conn->current_msg->msg.w.offset < conn->current_msg->msg.w.len",
 907              		.loc 1 1659 3 view .LVU257
 908              		.loc 1 1659 3 view .LVU258
 909 001a 2B6A     		ldr	r3, [r5, #32]
 910 001c 9A69     		ldr	r2, [r3, #24]
 911 001e 5B69     		ldr	r3, [r3, #20]
 912 0020 9A42     		cmp	r2, r3
 913 0022 30D2     		bcs	.L119
 914              	.L76:
 915              		.loc 1 1659 3 view .LVU259
 916              		.loc 1 1659 3 view .LVU260
1660:Middlewares/Third_Party/LwIP/src/api/api_msg.c ****               conn->current_msg->msg.w.offset < conn->current_msg->msg.w.len);
1661:Middlewares/Third_Party/LwIP/src/api/api_msg.c ****   LWIP_ASSERT("conn->current_msg->msg.w.vector_cnt > 0", conn->current_msg->msg.w.vector_cnt > 0);
 917              		.loc 1 1661 3 view .LVU261
 918              		.loc 1 1661 3 view .LVU262
 919 0024 2B6A     		ldr	r3, [r5, #32]
 920 0026 9B89     		ldrh	r3, [r3, #12]
 921 0028 002B     		cmp	r3, #0
 922 002a 34D0     		beq	.L120
 923              	.L77:
 924              		.loc 1 1661 3 view .LVU263
 925              		.loc 1 1661 3 view .LVU264
1662:Middlewares/Third_Party/LwIP/src/api/api_msg.c **** 
1663:Middlewares/Third_Party/LwIP/src/api/api_msg.c ****   apiflags = conn->current_msg->msg.w.apiflags;
 926              		.loc 1 1663 3 view .LVU265
 927              		.loc 1 1663 18 is_stmt 0 view .LVU266
 928 002c 2B6A     		ldr	r3, [r5, #32]
 929              		.loc 1 1663 12 view .LVU267
 930 002e 93F81C80 		ldrb	r8, [r3, #28]	@ zero_extendqisi2
 931              	.LVL80:
1664:Middlewares/Third_Party/LwIP/src/api/api_msg.c ****   dontblock = netconn_is_nonblocking(conn) || (apiflags & NETCONN_DONTBLOCK);
 932              		.loc 1 1664 3 is_stmt 1 view .LVU268
 933              		.loc 1 1664 15 is_stmt 0 view .LVU269
ARM GAS  C:\Users\hh\AppData\Local\Temp\ccfq6ENc.s 			page 50


 934 0032 2B7F     		ldrb	r3, [r5, #28]	@ zero_extendqisi2
 935              		.loc 1 1664 44 view .LVU270
 936 0034 13F0020F 		tst	r3, #2
 937 0038 35D1     		bne	.L101
 938              		.loc 1 1664 44 discriminator 2 view .LVU271
 939 003a 18F0040F 		tst	r8, #4
 940 003e 37D0     		beq	.L102
 941              		.loc 1 1664 44 discriminator 3 view .LVU272
 942 0040 4FF0010A 		mov	r10, #1
 943 0044 31E0     		b	.L78
 944              	.LVL81:
 945              	.L115:
1655:Middlewares/Third_Party/LwIP/src/api/api_msg.c ****   LWIP_ASSERT("conn->state == NETCONN_WRITE", (conn->state == NETCONN_WRITE));
 946              		.loc 1 1655 3 is_stmt 1 discriminator 1 view .LVU273
1655:Middlewares/Third_Party/LwIP/src/api/api_msg.c ****   LWIP_ASSERT("conn->state == NETCONN_WRITE", (conn->state == NETCONN_WRITE));
 947              		.loc 1 1655 3 discriminator 1 view .LVU274
 948 0046 8B4B     		ldr	r3, .L128
 949 0048 40F27762 		movw	r2, #1655
 950 004c 8A49     		ldr	r1, .L128+4
 951              	.LVL82:
1655:Middlewares/Third_Party/LwIP/src/api/api_msg.c ****   LWIP_ASSERT("conn->state == NETCONN_WRITE", (conn->state == NETCONN_WRITE));
 952              		.loc 1 1655 3 is_stmt 0 discriminator 1 view .LVU275
 953 004e 8B48     		ldr	r0, .L128+8
 954              	.LVL83:
1655:Middlewares/Third_Party/LwIP/src/api/api_msg.c ****   LWIP_ASSERT("conn->state == NETCONN_WRITE", (conn->state == NETCONN_WRITE));
 955              		.loc 1 1655 3 discriminator 1 view .LVU276
 956 0050 FFF7FEFF 		bl	printf
 957              	.LVL84:
 958 0054 D9E7     		b	.L72
 959              	.L116:
1656:Middlewares/Third_Party/LwIP/src/api/api_msg.c ****   LWIP_ASSERT("conn->current_msg != NULL", conn->current_msg != NULL);
 960              		.loc 1 1656 3 is_stmt 1 discriminator 1 view .LVU277
1656:Middlewares/Third_Party/LwIP/src/api/api_msg.c ****   LWIP_ASSERT("conn->current_msg != NULL", conn->current_msg != NULL);
 961              		.loc 1 1656 3 discriminator 1 view .LVU278
 962 0056 874B     		ldr	r3, .L128
 963 0058 4FF4CF62 		mov	r2, #1656
 964 005c 8849     		ldr	r1, .L128+12
 965 005e 8748     		ldr	r0, .L128+8
 966 0060 FFF7FEFF 		bl	printf
 967              	.LVL85:
 968 0064 D4E7     		b	.L73
 969              	.L117:
1657:Middlewares/Third_Party/LwIP/src/api/api_msg.c ****   LWIP_ASSERT("conn->pcb.tcp != NULL", conn->pcb.tcp != NULL);
 970              		.loc 1 1657 3 discriminator 1 view .LVU279
1657:Middlewares/Third_Party/LwIP/src/api/api_msg.c ****   LWIP_ASSERT("conn->pcb.tcp != NULL", conn->pcb.tcp != NULL);
 971              		.loc 1 1657 3 discriminator 1 view .LVU280
 972 0066 834B     		ldr	r3, .L128
 973 0068 40F27962 		movw	r2, #1657
 974 006c 8549     		ldr	r1, .L128+16
 975 006e 8348     		ldr	r0, .L128+8
 976 0070 FFF7FEFF 		bl	printf
 977              	.LVL86:
 978 0074 CEE7     		b	.L74
 979              	.L118:
1658:Middlewares/Third_Party/LwIP/src/api/api_msg.c ****   LWIP_ASSERT("conn->current_msg->msg.w.offset < conn->current_msg->msg.w.len",
 980              		.loc 1 1658 3 discriminator 1 view .LVU281
1658:Middlewares/Third_Party/LwIP/src/api/api_msg.c ****   LWIP_ASSERT("conn->current_msg->msg.w.offset < conn->current_msg->msg.w.len",
ARM GAS  C:\Users\hh\AppData\Local\Temp\ccfq6ENc.s 			page 51


 981              		.loc 1 1658 3 discriminator 1 view .LVU282
 982 0076 7F4B     		ldr	r3, .L128
 983 0078 40F27A62 		movw	r2, #1658
 984 007c 8249     		ldr	r1, .L128+20
 985 007e 7F48     		ldr	r0, .L128+8
 986 0080 FFF7FEFF 		bl	printf
 987              	.LVL87:
 988 0084 C9E7     		b	.L75
 989              	.L119:
1659:Middlewares/Third_Party/LwIP/src/api/api_msg.c ****               conn->current_msg->msg.w.offset < conn->current_msg->msg.w.len);
 990              		.loc 1 1659 3 discriminator 1 view .LVU283
1659:Middlewares/Third_Party/LwIP/src/api/api_msg.c ****               conn->current_msg->msg.w.offset < conn->current_msg->msg.w.len);
 991              		.loc 1 1659 3 discriminator 1 view .LVU284
 992 0086 7B4B     		ldr	r3, .L128
 993 0088 40F27B62 		movw	r2, #1659
 994 008c 7F49     		ldr	r1, .L128+24
 995 008e 7B48     		ldr	r0, .L128+8
 996 0090 FFF7FEFF 		bl	printf
 997              	.LVL88:
 998 0094 C6E7     		b	.L76
 999              	.L120:
1661:Middlewares/Third_Party/LwIP/src/api/api_msg.c **** 
 1000              		.loc 1 1661 3 discriminator 1 view .LVU285
1661:Middlewares/Third_Party/LwIP/src/api/api_msg.c **** 
 1001              		.loc 1 1661 3 discriminator 1 view .LVU286
 1002 0096 774B     		ldr	r3, .L128
 1003 0098 40F27D62 		movw	r2, #1661
 1004 009c 7C49     		ldr	r1, .L128+28
 1005 009e 7748     		ldr	r0, .L128+8
 1006 00a0 FFF7FEFF 		bl	printf
 1007              	.LVL89:
 1008 00a4 C2E7     		b	.L77
 1009              	.LVL90:
 1010              	.L101:
 1011              		.loc 1 1664 44 is_stmt 0 discriminator 3 view .LVU287
 1012 00a6 4FF0010A 		mov	r10, #1
 1013              	.L78:
 1014              		.loc 1 1664 13 discriminator 6 view .LVU288
 1015 00aa 5FFA8AFA 		uxtb	r10, r10
 1016              	.LVL91:
 1017              		.loc 1 1664 13 discriminator 6 view .LVU289
 1018 00ae 60E0     		b	.L89
 1019              	.LVL92:
 1020              	.L102:
 1021              		.loc 1 1664 44 discriminator 4 view .LVU290
 1022 00b0 4FF0000A 		mov	r10, #0
 1023 00b4 F9E7     		b	.L78
 1024              	.LVL93:
 1025              	.L79:
1665:Middlewares/Third_Party/LwIP/src/api/api_msg.c **** 
1666:Middlewares/Third_Party/LwIP/src/api/api_msg.c **** #if LWIP_SO_SNDTIMEO
1667:Middlewares/Third_Party/LwIP/src/api/api_msg.c ****   if ((conn->send_timeout != 0) &&
1668:Middlewares/Third_Party/LwIP/src/api/api_msg.c ****       ((s32_t)(sys_now() - conn->current_msg->msg.w.time_started) >= conn->send_timeout)) {
1669:Middlewares/Third_Party/LwIP/src/api/api_msg.c ****     write_finished = 1;
1670:Middlewares/Third_Party/LwIP/src/api/api_msg.c ****     if (conn->current_msg->msg.w.offset == 0) {
1671:Middlewares/Third_Party/LwIP/src/api/api_msg.c ****       /* nothing has been written */
1672:Middlewares/Third_Party/LwIP/src/api/api_msg.c ****       err = ERR_WOULDBLOCK;
ARM GAS  C:\Users\hh\AppData\Local\Temp\ccfq6ENc.s 			page 52


1673:Middlewares/Third_Party/LwIP/src/api/api_msg.c ****     } else {
1674:Middlewares/Third_Party/LwIP/src/api/api_msg.c ****       /* partial write */
1675:Middlewares/Third_Party/LwIP/src/api/api_msg.c ****       err = ERR_OK;
1676:Middlewares/Third_Party/LwIP/src/api/api_msg.c ****     }
1677:Middlewares/Third_Party/LwIP/src/api/api_msg.c ****   } else
1678:Middlewares/Third_Party/LwIP/src/api/api_msg.c **** #endif /* LWIP_SO_SNDTIMEO */
1679:Middlewares/Third_Party/LwIP/src/api/api_msg.c ****   {
1680:Middlewares/Third_Party/LwIP/src/api/api_msg.c ****     do {
1681:Middlewares/Third_Party/LwIP/src/api/api_msg.c ****       dataptr = (const u8_t *)conn->current_msg->msg.w.vector->ptr + conn->current_msg->msg.w.vecto
1682:Middlewares/Third_Party/LwIP/src/api/api_msg.c ****       diff = conn->current_msg->msg.w.vector->len - conn->current_msg->msg.w.vector_off;
1683:Middlewares/Third_Party/LwIP/src/api/api_msg.c ****       if (diff > 0xffffUL) { /* max_u16_t */
1684:Middlewares/Third_Party/LwIP/src/api/api_msg.c ****         len = 0xffff;
1685:Middlewares/Third_Party/LwIP/src/api/api_msg.c ****         apiflags |= TCP_WRITE_FLAG_MORE;
1686:Middlewares/Third_Party/LwIP/src/api/api_msg.c ****       } else {
1687:Middlewares/Third_Party/LwIP/src/api/api_msg.c ****         len = (u16_t)diff;
 1026              		.loc 1 1687 9 is_stmt 1 view .LVU291
 1027              		.loc 1 1687 13 is_stmt 0 view .LVU292
 1028 00b6 B4B2     		uxth	r4, r6
 1029 00b8 69E0     		b	.L80
 1030              	.LVL94:
 1031              	.L124:
1688:Middlewares/Third_Party/LwIP/src/api/api_msg.c ****       }
1689:Middlewares/Third_Party/LwIP/src/api/api_msg.c ****       available = tcp_sndbuf(conn->pcb.tcp);
1690:Middlewares/Third_Party/LwIP/src/api/api_msg.c ****       if (available < len) {
1691:Middlewares/Third_Party/LwIP/src/api/api_msg.c ****         /* don't try to write more than sendbuf */
1692:Middlewares/Third_Party/LwIP/src/api/api_msg.c ****         len = available;
1693:Middlewares/Third_Party/LwIP/src/api/api_msg.c ****         if (dontblock) {
1694:Middlewares/Third_Party/LwIP/src/api/api_msg.c ****           if (!len) {
1695:Middlewares/Third_Party/LwIP/src/api/api_msg.c ****             /* set error according to partial write or not */
1696:Middlewares/Third_Party/LwIP/src/api/api_msg.c ****             err = (conn->current_msg->msg.w.offset == 0) ? ERR_WOULDBLOCK : ERR_OK;
 1032              		.loc 1 1696 13 is_stmt 1 view .LVU293
 1033              		.loc 1 1696 44 is_stmt 0 view .LVU294
 1034 00ba 9369     		ldr	r3, [r2, #24]
 1035              		.loc 1 1696 17 view .LVU295
 1036 00bc B3B9     		cbnz	r3, .L104
 1037              		.loc 1 1696 17 discriminator 1 view .LVU296
 1038 00be 6FF00604 		mvn	r4, #6
 1039              	.LVL95:
 1040              	.L84:
1697:Middlewares/Third_Party/LwIP/src/api/api_msg.c ****             goto err_mem;
1698:Middlewares/Third_Party/LwIP/src/api/api_msg.c ****           }
1699:Middlewares/Third_Party/LwIP/src/api/api_msg.c ****         } else {
1700:Middlewares/Third_Party/LwIP/src/api/api_msg.c ****           apiflags |= TCP_WRITE_FLAG_MORE;
1701:Middlewares/Third_Party/LwIP/src/api/api_msg.c ****         }
1702:Middlewares/Third_Party/LwIP/src/api/api_msg.c ****       }
1703:Middlewares/Third_Party/LwIP/src/api/api_msg.c ****       LWIP_ASSERT("lwip_netconn_do_writemore: invalid length!",
1704:Middlewares/Third_Party/LwIP/src/api/api_msg.c ****                   ((conn->current_msg->msg.w.vector_off + len) <= conn->current_msg->msg.w.vector->
1705:Middlewares/Third_Party/LwIP/src/api/api_msg.c ****       /* we should loop around for more sending in the following cases:
1706:Middlewares/Third_Party/LwIP/src/api/api_msg.c ****            1) We couldn't finish the current vector because of 16-bit size limitations.
1707:Middlewares/Third_Party/LwIP/src/api/api_msg.c ****               tcp_write() and tcp_sndbuf() both are limited to 16-bit sizes
1708:Middlewares/Third_Party/LwIP/src/api/api_msg.c ****            2) We are sending the remainder of the current vector and have more */
1709:Middlewares/Third_Party/LwIP/src/api/api_msg.c ****       if ((len == 0xffff && diff > 0xffffUL) ||
1710:Middlewares/Third_Party/LwIP/src/api/api_msg.c ****           (len == (u16_t)diff && conn->current_msg->msg.w.vector_cnt > 1)) {
1711:Middlewares/Third_Party/LwIP/src/api/api_msg.c ****         write_more = 1;
1712:Middlewares/Third_Party/LwIP/src/api/api_msg.c ****         apiflags |= TCP_WRITE_FLAG_MORE;
1713:Middlewares/Third_Party/LwIP/src/api/api_msg.c ****       } else {
1714:Middlewares/Third_Party/LwIP/src/api/api_msg.c ****         write_more = 0;
ARM GAS  C:\Users\hh\AppData\Local\Temp\ccfq6ENc.s 			page 53


1715:Middlewares/Third_Party/LwIP/src/api/api_msg.c ****       }
1716:Middlewares/Third_Party/LwIP/src/api/api_msg.c ****       err = tcp_write(conn->pcb.tcp, dataptr, len, apiflags);
1717:Middlewares/Third_Party/LwIP/src/api/api_msg.c ****       if (err == ERR_OK) {
1718:Middlewares/Third_Party/LwIP/src/api/api_msg.c ****         conn->current_msg->msg.w.offset += len;
1719:Middlewares/Third_Party/LwIP/src/api/api_msg.c ****         conn->current_msg->msg.w.vector_off += len;
1720:Middlewares/Third_Party/LwIP/src/api/api_msg.c ****         /* check if current vector is finished */
1721:Middlewares/Third_Party/LwIP/src/api/api_msg.c ****         if (conn->current_msg->msg.w.vector_off == conn->current_msg->msg.w.vector->len) {
1722:Middlewares/Third_Party/LwIP/src/api/api_msg.c ****           conn->current_msg->msg.w.vector_cnt--;
1723:Middlewares/Third_Party/LwIP/src/api/api_msg.c ****           /* if we have additional vectors, move on to them */
1724:Middlewares/Third_Party/LwIP/src/api/api_msg.c ****           if (conn->current_msg->msg.w.vector_cnt > 0) {
1725:Middlewares/Third_Party/LwIP/src/api/api_msg.c ****             conn->current_msg->msg.w.vector++;
1726:Middlewares/Third_Party/LwIP/src/api/api_msg.c ****             conn->current_msg->msg.w.vector_off = 0;
1727:Middlewares/Third_Party/LwIP/src/api/api_msg.c ****           }
1728:Middlewares/Third_Party/LwIP/src/api/api_msg.c ****         }
1729:Middlewares/Third_Party/LwIP/src/api/api_msg.c ****       }
1730:Middlewares/Third_Party/LwIP/src/api/api_msg.c ****     } while (write_more && err == ERR_OK);
1731:Middlewares/Third_Party/LwIP/src/api/api_msg.c ****     /* if OK or memory error, check available space */
1732:Middlewares/Third_Party/LwIP/src/api/api_msg.c ****     if ((err == ERR_OK) || (err == ERR_MEM)) {
1733:Middlewares/Third_Party/LwIP/src/api/api_msg.c **** err_mem:
1734:Middlewares/Third_Party/LwIP/src/api/api_msg.c ****       if (dontblock && (conn->current_msg->msg.w.offset < conn->current_msg->msg.w.len)) {
 1041              		.loc 1 1734 7 is_stmt 1 view .LVU297
 1042              		.loc 1 1734 10 is_stmt 0 view .LVU298
 1043 00c2 BAF1000F 		cmp	r10, #0
 1044 00c6 00F09280 		beq	.L92
 1045              		.loc 1 1734 29 discriminator 1 view .LVU299
 1046 00ca 2B6A     		ldr	r3, [r5, #32]
 1047              		.loc 1 1734 49 discriminator 1 view .LVU300
 1048 00cc 9A69     		ldr	r2, [r3, #24]
 1049              		.loc 1 1734 83 discriminator 1 view .LVU301
 1050 00ce 5B69     		ldr	r3, [r3, #20]
 1051              		.loc 1 1734 21 discriminator 1 view .LVU302
 1052 00d0 9A42     		cmp	r2, r3
 1053 00d2 80F08C80 		bcs	.L92
1735:Middlewares/Third_Party/LwIP/src/api/api_msg.c ****         /* non-blocking write did not write everything: mark the pcb non-writable
1736:Middlewares/Third_Party/LwIP/src/api/api_msg.c ****            and let poll_tcp check writable space to mark the pcb writable again */
1737:Middlewares/Third_Party/LwIP/src/api/api_msg.c ****         API_EVENT(conn, NETCONN_EVT_SENDMINUS, 0);
 1054              		.loc 1 1737 9 is_stmt 1 view .LVU303
 1055 00d6 6B6A     		ldr	r3, [r5, #36]
 1056 00d8 1BB1     		cbz	r3, .L93
 1057              		.loc 1 1737 9 discriminator 1 view .LVU304
 1058 00da 0022     		movs	r2, #0
 1059 00dc 0321     		movs	r1, #3
 1060 00de 2846     		mov	r0, r5
 1061 00e0 9847     		blx	r3
 1062              	.LVL96:
 1063              	.L93:
 1064              		.loc 1 1737 50 view .LVU305
1738:Middlewares/Third_Party/LwIP/src/api/api_msg.c ****         conn->flags |= NETCONN_FLAG_CHECK_WRITESPACE;
 1065              		.loc 1 1738 9 view .LVU306
 1066              		.loc 1 1738 13 is_stmt 0 view .LVU307
 1067 00e2 2B7F     		ldrb	r3, [r5, #28]	@ zero_extendqisi2
 1068              		.loc 1 1738 21 view .LVU308
 1069 00e4 43F01003 		orr	r3, r3, #16
 1070 00e8 2B77     		strb	r3, [r5, #28]
 1071 00ea 90E0     		b	.L94
 1072              	.LVL97:
 1073              	.L104:
ARM GAS  C:\Users\hh\AppData\Local\Temp\ccfq6ENc.s 			page 54


1696:Middlewares/Third_Party/LwIP/src/api/api_msg.c ****             goto err_mem;
 1074              		.loc 1 1696 17 discriminator 2 view .LVU309
 1075 00ec 0024     		movs	r4, #0
 1076              	.LVL98:
1697:Middlewares/Third_Party/LwIP/src/api/api_msg.c ****           }
 1077              		.loc 1 1697 13 is_stmt 1 view .LVU310
 1078 00ee E8E7     		b	.L84
 1079              	.LVL99:
 1080              	.L82:
1700:Middlewares/Third_Party/LwIP/src/api/api_msg.c ****         }
 1081              		.loc 1 1700 11 view .LVU311
1700:Middlewares/Third_Party/LwIP/src/api/api_msg.c ****         }
 1082              		.loc 1 1700 20 is_stmt 0 view .LVU312
 1083 00f0 48F00208 		orr	r8, r8, #2
 1084              	.LVL100:
1692:Middlewares/Third_Party/LwIP/src/api/api_msg.c ****         if (dontblock) {
 1085              		.loc 1 1692 13 view .LVU313
 1086 00f4 0446     		mov	r4, r0
 1087              	.LVL101:
 1088              	.L81:
1703:Middlewares/Third_Party/LwIP/src/api/api_msg.c ****                   ((conn->current_msg->msg.w.vector_off + len) <= conn->current_msg->msg.w.vector->
 1089              		.loc 1 1703 7 is_stmt 1 view .LVU314
1703:Middlewares/Third_Party/LwIP/src/api/api_msg.c ****                   ((conn->current_msg->msg.w.vector_off + len) <= conn->current_msg->msg.w.vector->
 1090              		.loc 1 1703 7 view .LVU315
 1091 00f6 A146     		mov	r9, r4
 1092 00f8 2344     		add	r3, r3, r4
 1093 00fa 9942     		cmp	r1, r3
 1094 00fc 0ED3     		bcc	.L121
 1095              	.LVL102:
 1096              	.L85:
1703:Middlewares/Third_Party/LwIP/src/api/api_msg.c ****                   ((conn->current_msg->msg.w.vector_off + len) <= conn->current_msg->msg.w.vector->
 1097              		.loc 1 1703 7 view .LVU316
1703:Middlewares/Third_Party/LwIP/src/api/api_msg.c ****                   ((conn->current_msg->msg.w.vector_off + len) <= conn->current_msg->msg.w.vector->
 1098              		.loc 1 1703 7 view .LVU317
1709:Middlewares/Third_Party/LwIP/src/api/api_msg.c ****           (len == (u16_t)diff && conn->current_msg->msg.w.vector_cnt > 1)) {
 1099              		.loc 1 1709 7 view .LVU318
1709:Middlewares/Third_Party/LwIP/src/api/api_msg.c ****           (len == (u16_t)diff && conn->current_msg->msg.w.vector_cnt > 1)) {
 1100              		.loc 1 1709 16 is_stmt 0 view .LVU319
 1101 00fe 4FF6FF73 		movw	r3, #65535
1709:Middlewares/Third_Party/LwIP/src/api/api_msg.c ****           (len == (u16_t)diff && conn->current_msg->msg.w.vector_cnt > 1)) {
 1102              		.loc 1 1709 26 view .LVU320
 1103 0102 9C42     		cmp	r4, r3
 1104 0104 14BF     		ite	ne
 1105 0106 0022     		movne	r2, #0
 1106 0108 0122     		moveq	r2, #1
 1107 010a 9E42     		cmp	r6, r3
 1108 010c 98BF     		it	ls
 1109 010e 0022     		movls	r2, #0
1709:Middlewares/Third_Party/LwIP/src/api/api_msg.c ****           (len == (u16_t)diff && conn->current_msg->msg.w.vector_cnt > 1)) {
 1110              		.loc 1 1709 10 view .LVU321
 1111 0110 82B9     		cbnz	r2, .L86
1710:Middlewares/Third_Party/LwIP/src/api/api_msg.c ****         write_more = 1;
 1112              		.loc 1 1710 19 view .LVU322
 1113 0112 B6B2     		uxth	r6, r6
 1114              	.LVL103:
1709:Middlewares/Third_Party/LwIP/src/api/api_msg.c ****           (len == (u16_t)diff && conn->current_msg->msg.w.vector_cnt > 1)) {
 1115              		.loc 1 1709 46 discriminator 1 view .LVU323
ARM GAS  C:\Users\hh\AppData\Local\Temp\ccfq6ENc.s 			page 55


 1116 0114 A642     		cmp	r6, r4
 1117 0116 09D0     		beq	.L122
1714:Middlewares/Third_Party/LwIP/src/api/api_msg.c ****       }
 1118              		.loc 1 1714 20 view .LVU324
 1119 0118 0026     		movs	r6, #0
 1120 011a 0EE0     		b	.L87
 1121              	.LVL104:
 1122              	.L121:
1703:Middlewares/Third_Party/LwIP/src/api/api_msg.c ****                   ((conn->current_msg->msg.w.vector_off + len) <= conn->current_msg->msg.w.vector->
 1123              		.loc 1 1703 7 is_stmt 1 discriminator 1 view .LVU325
1703:Middlewares/Third_Party/LwIP/src/api/api_msg.c ****                   ((conn->current_msg->msg.w.vector_off + len) <= conn->current_msg->msg.w.vector->
 1124              		.loc 1 1703 7 discriminator 1 view .LVU326
 1125 011c 554B     		ldr	r3, .L128
 1126 011e 40F2A762 		movw	r2, #1703
 1127 0122 5C49     		ldr	r1, .L128+32
 1128 0124 5548     		ldr	r0, .L128+8
 1129              	.LVL105:
1703:Middlewares/Third_Party/LwIP/src/api/api_msg.c ****                   ((conn->current_msg->msg.w.vector_off + len) <= conn->current_msg->msg.w.vector->
 1130              		.loc 1 1703 7 is_stmt 0 discriminator 1 view .LVU327
 1131 0126 FFF7FEFF 		bl	printf
 1132              	.LVL106:
1703:Middlewares/Third_Party/LwIP/src/api/api_msg.c ****                   ((conn->current_msg->msg.w.vector_off + len) <= conn->current_msg->msg.w.vector->
 1133              		.loc 1 1703 7 discriminator 1 view .LVU328
 1134 012a E8E7     		b	.L85
 1135              	.LVL107:
 1136              	.L122:
1710:Middlewares/Third_Party/LwIP/src/api/api_msg.c ****         write_more = 1;
 1137              		.loc 1 1710 38 view .LVU329
 1138 012c 2B6A     		ldr	r3, [r5, #32]
1710:Middlewares/Third_Party/LwIP/src/api/api_msg.c ****         write_more = 1;
 1139              		.loc 1 1710 58 view .LVU330
 1140 012e 9B89     		ldrh	r3, [r3, #12]
1710:Middlewares/Third_Party/LwIP/src/api/api_msg.c ****         write_more = 1;
 1141              		.loc 1 1710 31 view .LVU331
 1142 0130 012B     		cmp	r3, #1
 1143 0132 38D9     		bls	.L106
 1144              	.L86:
1711:Middlewares/Third_Party/LwIP/src/api/api_msg.c ****         apiflags |= TCP_WRITE_FLAG_MORE;
 1145              		.loc 1 1711 9 is_stmt 1 view .LVU332
 1146              	.LVL108:
1712:Middlewares/Third_Party/LwIP/src/api/api_msg.c ****       } else {
 1147              		.loc 1 1712 9 view .LVU333
1712:Middlewares/Third_Party/LwIP/src/api/api_msg.c ****       } else {
 1148              		.loc 1 1712 18 is_stmt 0 view .LVU334
 1149 0134 48F00208 		orr	r8, r8, #2
 1150              	.LVL109:
1711:Middlewares/Third_Party/LwIP/src/api/api_msg.c ****         apiflags |= TCP_WRITE_FLAG_MORE;
 1151              		.loc 1 1711 20 view .LVU335
 1152 0138 0126     		movs	r6, #1
 1153              	.LVL110:
 1154              	.L87:
1716:Middlewares/Third_Party/LwIP/src/api/api_msg.c ****       if (err == ERR_OK) {
 1155              		.loc 1 1716 7 is_stmt 1 view .LVU336
1716:Middlewares/Third_Party/LwIP/src/api/api_msg.c ****       if (err == ERR_OK) {
 1156              		.loc 1 1716 13 is_stmt 0 view .LVU337
 1157 013a 4346     		mov	r3, r8
 1158 013c 2246     		mov	r2, r4
ARM GAS  C:\Users\hh\AppData\Local\Temp\ccfq6ENc.s 			page 56


 1159 013e 3946     		mov	r1, r7
 1160 0140 6868     		ldr	r0, [r5, #4]
 1161 0142 FFF7FEFF 		bl	tcp_write
 1162              	.LVL111:
1717:Middlewares/Third_Party/LwIP/src/api/api_msg.c ****         conn->current_msg->msg.w.offset += len;
 1163              		.loc 1 1717 7 is_stmt 1 view .LVU338
1717:Middlewares/Third_Party/LwIP/src/api/api_msg.c ****         conn->current_msg->msg.w.offset += len;
 1164              		.loc 1 1717 10 is_stmt 0 view .LVU339
 1165 0146 0446     		mov	r4, r0
 1166              	.LVL112:
1717:Middlewares/Third_Party/LwIP/src/api/api_msg.c ****         conn->current_msg->msg.w.offset += len;
 1167              		.loc 1 1717 10 view .LVU340
 1168 0148 68B9     		cbnz	r0, .L88
1718:Middlewares/Third_Party/LwIP/src/api/api_msg.c ****         conn->current_msg->msg.w.vector_off += len;
 1169              		.loc 1 1718 9 is_stmt 1 view .LVU341
1718:Middlewares/Third_Party/LwIP/src/api/api_msg.c ****         conn->current_msg->msg.w.vector_off += len;
 1170              		.loc 1 1718 13 is_stmt 0 view .LVU342
 1171 014a 2A6A     		ldr	r2, [r5, #32]
1718:Middlewares/Third_Party/LwIP/src/api/api_msg.c ****         conn->current_msg->msg.w.vector_off += len;
 1172              		.loc 1 1718 33 view .LVU343
 1173 014c 9369     		ldr	r3, [r2, #24]
1718:Middlewares/Third_Party/LwIP/src/api/api_msg.c ****         conn->current_msg->msg.w.vector_off += len;
 1174              		.loc 1 1718 41 view .LVU344
 1175 014e 4B44     		add	r3, r3, r9
 1176 0150 9361     		str	r3, [r2, #24]
1719:Middlewares/Third_Party/LwIP/src/api/api_msg.c ****         /* check if current vector is finished */
 1177              		.loc 1 1719 9 is_stmt 1 view .LVU345
1719:Middlewares/Third_Party/LwIP/src/api/api_msg.c ****         /* check if current vector is finished */
 1178              		.loc 1 1719 13 is_stmt 0 view .LVU346
 1179 0152 2A6A     		ldr	r2, [r5, #32]
1719:Middlewares/Third_Party/LwIP/src/api/api_msg.c ****         /* check if current vector is finished */
 1180              		.loc 1 1719 33 view .LVU347
 1181 0154 1369     		ldr	r3, [r2, #16]
1719:Middlewares/Third_Party/LwIP/src/api/api_msg.c ****         /* check if current vector is finished */
 1182              		.loc 1 1719 45 view .LVU348
 1183 0156 4B44     		add	r3, r3, r9
 1184 0158 1361     		str	r3, [r2, #16]
1721:Middlewares/Third_Party/LwIP/src/api/api_msg.c ****           conn->current_msg->msg.w.vector_cnt--;
 1185              		.loc 1 1721 9 is_stmt 1 view .LVU349
1721:Middlewares/Third_Party/LwIP/src/api/api_msg.c ****           conn->current_msg->msg.w.vector_cnt--;
 1186              		.loc 1 1721 17 is_stmt 0 view .LVU350
 1187 015a 2B6A     		ldr	r3, [r5, #32]
1721:Middlewares/Third_Party/LwIP/src/api/api_msg.c ****           conn->current_msg->msg.w.vector_cnt--;
 1188              		.loc 1 1721 37 view .LVU351
 1189 015c 1969     		ldr	r1, [r3, #16]
1721:Middlewares/Third_Party/LwIP/src/api/api_msg.c ****           conn->current_msg->msg.w.vector_cnt--;
 1190              		.loc 1 1721 76 view .LVU352
 1191 015e 9A68     		ldr	r2, [r3, #8]
1721:Middlewares/Third_Party/LwIP/src/api/api_msg.c ****           conn->current_msg->msg.w.vector_cnt--;
 1192              		.loc 1 1721 83 view .LVU353
 1193 0160 5268     		ldr	r2, [r2, #4]
1721:Middlewares/Third_Party/LwIP/src/api/api_msg.c ****           conn->current_msg->msg.w.vector_cnt--;
 1194              		.loc 1 1721 12 view .LVU354
 1195 0162 9142     		cmp	r1, r2
 1196 0164 21D0     		beq	.L123
 1197              	.L88:
1730:Middlewares/Third_Party/LwIP/src/api/api_msg.c ****     /* if OK or memory error, check available space */
ARM GAS  C:\Users\hh\AppData\Local\Temp\ccfq6ENc.s 			page 57


 1198              		.loc 1 1730 25 is_stmt 1 view .LVU355
1730:Middlewares/Third_Party/LwIP/src/api/api_msg.c ****     /* if OK or memory error, check available space */
 1199              		.loc 1 1730 32 is_stmt 0 view .LVU356
 1200 0166 B4FA84F3 		clz	r3, r4
 1201 016a 5B09     		lsrs	r3, r3, #5
1730:Middlewares/Third_Party/LwIP/src/api/api_msg.c ****     /* if OK or memory error, check available space */
 1202              		.loc 1 1730 25 view .LVU357
 1203 016c 002E     		cmp	r6, #0
 1204 016e 29D0     		beq	.L112
 1205 0170 43B3     		cbz	r3, .L112
 1206              	.LVL113:
 1207              	.L89:
1680:Middlewares/Third_Party/LwIP/src/api/api_msg.c ****       dataptr = (const u8_t *)conn->current_msg->msg.w.vector->ptr + conn->current_msg->msg.w.vecto
 1208              		.loc 1 1680 5 is_stmt 1 view .LVU358
1681:Middlewares/Third_Party/LwIP/src/api/api_msg.c ****       diff = conn->current_msg->msg.w.vector->len - conn->current_msg->msg.w.vector_off;
 1209              		.loc 1 1681 7 view .LVU359
1681:Middlewares/Third_Party/LwIP/src/api/api_msg.c ****       diff = conn->current_msg->msg.w.vector->len - conn->current_msg->msg.w.vector_off;
 1210              		.loc 1 1681 35 is_stmt 0 view .LVU360
 1211 0172 2A6A     		ldr	r2, [r5, #32]
1681:Middlewares/Third_Party/LwIP/src/api/api_msg.c ****       diff = conn->current_msg->msg.w.vector->len - conn->current_msg->msg.w.vector_off;
 1212              		.loc 1 1681 55 view .LVU361
 1213 0174 9168     		ldr	r1, [r2, #8]
1681:Middlewares/Third_Party/LwIP/src/api/api_msg.c ****       diff = conn->current_msg->msg.w.vector->len - conn->current_msg->msg.w.vector_off;
 1214              		.loc 1 1681 62 view .LVU362
 1215 0176 0F68     		ldr	r7, [r1]
1681:Middlewares/Third_Party/LwIP/src/api/api_msg.c ****       diff = conn->current_msg->msg.w.vector->len - conn->current_msg->msg.w.vector_off;
 1216              		.loc 1 1681 94 view .LVU363
 1217 0178 1369     		ldr	r3, [r2, #16]
1681:Middlewares/Third_Party/LwIP/src/api/api_msg.c ****       diff = conn->current_msg->msg.w.vector->len - conn->current_msg->msg.w.vector_off;
 1218              		.loc 1 1681 15 view .LVU364
 1219 017a 1F44     		add	r7, r7, r3
 1220              	.LVL114:
1682:Middlewares/Third_Party/LwIP/src/api/api_msg.c ****       if (diff > 0xffffUL) { /* max_u16_t */
 1221              		.loc 1 1682 7 is_stmt 1 view .LVU365
1682:Middlewares/Third_Party/LwIP/src/api/api_msg.c ****       if (diff > 0xffffUL) { /* max_u16_t */
 1222              		.loc 1 1682 45 is_stmt 0 view .LVU366
 1223 017c 4968     		ldr	r1, [r1, #4]
1682:Middlewares/Third_Party/LwIP/src/api/api_msg.c ****       if (diff > 0xffffUL) { /* max_u16_t */
 1224              		.loc 1 1682 12 view .LVU367
 1225 017e CE1A     		subs	r6, r1, r3
 1226              	.LVL115:
1683:Middlewares/Third_Party/LwIP/src/api/api_msg.c ****         len = 0xffff;
 1227              		.loc 1 1683 7 is_stmt 1 view .LVU368
1683:Middlewares/Third_Party/LwIP/src/api/api_msg.c ****         len = 0xffff;
 1228              		.loc 1 1683 10 is_stmt 0 view .LVU369
 1229 0180 B6F5803F 		cmp	r6, #65536
 1230 0184 97D3     		bcc	.L79
1684:Middlewares/Third_Party/LwIP/src/api/api_msg.c ****         apiflags |= TCP_WRITE_FLAG_MORE;
 1231              		.loc 1 1684 9 is_stmt 1 view .LVU370
 1232              	.LVL116:
1685:Middlewares/Third_Party/LwIP/src/api/api_msg.c ****       } else {
 1233              		.loc 1 1685 9 view .LVU371
1685:Middlewares/Third_Party/LwIP/src/api/api_msg.c ****       } else {
 1234              		.loc 1 1685 18 is_stmt 0 view .LVU372
 1235 0186 48F00208 		orr	r8, r8, #2
 1236              	.LVL117:
1684:Middlewares/Third_Party/LwIP/src/api/api_msg.c ****         apiflags |= TCP_WRITE_FLAG_MORE;
ARM GAS  C:\Users\hh\AppData\Local\Temp\ccfq6ENc.s 			page 58


 1237              		.loc 1 1684 13 view .LVU373
 1238 018a 4FF6FF74 		movw	r4, #65535
 1239              	.LVL118:
 1240              	.L80:
1689:Middlewares/Third_Party/LwIP/src/api/api_msg.c ****       if (available < len) {
 1241              		.loc 1 1689 7 is_stmt 1 view .LVU374
1689:Middlewares/Third_Party/LwIP/src/api/api_msg.c ****       if (available < len) {
 1242              		.loc 1 1689 19 is_stmt 0 view .LVU375
 1243 018e 6868     		ldr	r0, [r5, #4]
1689:Middlewares/Third_Party/LwIP/src/api/api_msg.c ****       if (available < len) {
 1244              		.loc 1 1689 17 view .LVU376
 1245 0190 B0F86400 		ldrh	r0, [r0, #100]
 1246              	.LVL119:
1690:Middlewares/Third_Party/LwIP/src/api/api_msg.c ****         /* don't try to write more than sendbuf */
 1247              		.loc 1 1690 7 is_stmt 1 view .LVU377
1690:Middlewares/Third_Party/LwIP/src/api/api_msg.c ****         /* don't try to write more than sendbuf */
 1248              		.loc 1 1690 10 is_stmt 0 view .LVU378
 1249 0194 8442     		cmp	r4, r0
 1250 0196 AED9     		bls	.L81
1692:Middlewares/Third_Party/LwIP/src/api/api_msg.c ****         if (dontblock) {
 1251              		.loc 1 1692 9 is_stmt 1 view .LVU379
 1252              	.LVL120:
1693:Middlewares/Third_Party/LwIP/src/api/api_msg.c ****           if (!len) {
 1253              		.loc 1 1693 9 view .LVU380
1693:Middlewares/Third_Party/LwIP/src/api/api_msg.c ****           if (!len) {
 1254              		.loc 1 1693 12 is_stmt 0 view .LVU381
 1255 0198 BAF1000F 		cmp	r10, #0
 1256 019c A8D0     		beq	.L82
1694:Middlewares/Third_Party/LwIP/src/api/api_msg.c ****             /* set error according to partial write or not */
 1257              		.loc 1 1694 11 is_stmt 1 view .LVU382
1694:Middlewares/Third_Party/LwIP/src/api/api_msg.c ****             /* set error according to partial write or not */
 1258              		.loc 1 1694 14 is_stmt 0 view .LVU383
 1259 019e 0028     		cmp	r0, #0
 1260 01a0 8BD0     		beq	.L124
1692:Middlewares/Third_Party/LwIP/src/api/api_msg.c ****         if (dontblock) {
 1261              		.loc 1 1692 13 view .LVU384
 1262 01a2 0446     		mov	r4, r0
 1263 01a4 A7E7     		b	.L81
 1264              	.LVL121:
 1265              	.L106:
1714:Middlewares/Third_Party/LwIP/src/api/api_msg.c ****       }
 1266              		.loc 1 1714 20 view .LVU385
 1267 01a6 0026     		movs	r6, #0
 1268 01a8 C7E7     		b	.L87
 1269              	.LVL122:
 1270              	.L123:
1722:Middlewares/Third_Party/LwIP/src/api/api_msg.c ****           /* if we have additional vectors, move on to them */
 1271              		.loc 1 1722 11 is_stmt 1 view .LVU386
1722:Middlewares/Third_Party/LwIP/src/api/api_msg.c ****           /* if we have additional vectors, move on to them */
 1272              		.loc 1 1722 35 is_stmt 0 view .LVU387
 1273 01aa 9A89     		ldrh	r2, [r3, #12]
1722:Middlewares/Third_Party/LwIP/src/api/api_msg.c ****           /* if we have additional vectors, move on to them */
 1274              		.loc 1 1722 46 view .LVU388
 1275 01ac 013A     		subs	r2, r2, #1
 1276 01ae 9A81     		strh	r2, [r3, #12]	@ movhi
1724:Middlewares/Third_Party/LwIP/src/api/api_msg.c ****             conn->current_msg->msg.w.vector++;
 1277              		.loc 1 1724 11 is_stmt 1 view .LVU389
ARM GAS  C:\Users\hh\AppData\Local\Temp\ccfq6ENc.s 			page 59


1724:Middlewares/Third_Party/LwIP/src/api/api_msg.c ****             conn->current_msg->msg.w.vector++;
 1278              		.loc 1 1724 19 is_stmt 0 view .LVU390
 1279 01b0 2B6A     		ldr	r3, [r5, #32]
1724:Middlewares/Third_Party/LwIP/src/api/api_msg.c ****             conn->current_msg->msg.w.vector++;
 1280              		.loc 1 1724 39 view .LVU391
 1281 01b2 9A89     		ldrh	r2, [r3, #12]
1724:Middlewares/Third_Party/LwIP/src/api/api_msg.c ****             conn->current_msg->msg.w.vector++;
 1282              		.loc 1 1724 14 view .LVU392
 1283 01b4 002A     		cmp	r2, #0
 1284 01b6 D6D0     		beq	.L88
1725:Middlewares/Third_Party/LwIP/src/api/api_msg.c ****             conn->current_msg->msg.w.vector_off = 0;
 1285              		.loc 1 1725 13 is_stmt 1 view .LVU393
1725:Middlewares/Third_Party/LwIP/src/api/api_msg.c ****             conn->current_msg->msg.w.vector_off = 0;
 1286              		.loc 1 1725 37 is_stmt 0 view .LVU394
 1287 01b8 9A68     		ldr	r2, [r3, #8]
1725:Middlewares/Third_Party/LwIP/src/api/api_msg.c ****             conn->current_msg->msg.w.vector_off = 0;
 1288              		.loc 1 1725 44 view .LVU395
 1289 01ba 0832     		adds	r2, r2, #8
 1290 01bc 9A60     		str	r2, [r3, #8]
1726:Middlewares/Third_Party/LwIP/src/api/api_msg.c ****           }
 1291              		.loc 1 1726 13 is_stmt 1 view .LVU396
1726:Middlewares/Third_Party/LwIP/src/api/api_msg.c ****           }
 1292              		.loc 1 1726 17 is_stmt 0 view .LVU397
 1293 01be 2B6A     		ldr	r3, [r5, #32]
1726:Middlewares/Third_Party/LwIP/src/api/api_msg.c ****           }
 1294              		.loc 1 1726 49 view .LVU398
 1295 01c0 1861     		str	r0, [r3, #16]
 1296 01c2 D0E7     		b	.L88
 1297              	.L112:
1732:Middlewares/Third_Party/LwIP/src/api/api_msg.c **** err_mem:
 1298              		.loc 1 1732 5 is_stmt 1 view .LVU399
1732:Middlewares/Third_Party/LwIP/src/api/api_msg.c **** err_mem:
 1299              		.loc 1 1732 25 is_stmt 0 view .LVU400
 1300 01c4 631C     		adds	r3, r4, #1
 1301 01c6 DBB2     		uxtb	r3, r3
1732:Middlewares/Third_Party/LwIP/src/api/api_msg.c **** err_mem:
 1302              		.loc 1 1732 8 view .LVU401
 1303 01c8 012B     		cmp	r3, #1
 1304 01ca 7FF67AAF 		bls	.L84
 1305              	.LVL123:
 1306              	.L91:
1739:Middlewares/Third_Party/LwIP/src/api/api_msg.c ****       } else if ((tcp_sndbuf(conn->pcb.tcp) <= TCP_SNDLOWAT) ||
1740:Middlewares/Third_Party/LwIP/src/api/api_msg.c ****                  (tcp_sndqueuelen(conn->pcb.tcp) >= TCP_SNDQUEUELOWAT)) {
1741:Middlewares/Third_Party/LwIP/src/api/api_msg.c ****         /* The queued byte- or pbuf-count exceeds the configured low-water limit,
1742:Middlewares/Third_Party/LwIP/src/api/api_msg.c ****            let select mark this pcb as non-writable. */
1743:Middlewares/Third_Party/LwIP/src/api/api_msg.c ****         API_EVENT(conn, NETCONN_EVT_SENDMINUS, 0);
1744:Middlewares/Third_Party/LwIP/src/api/api_msg.c ****       }
1745:Middlewares/Third_Party/LwIP/src/api/api_msg.c ****     }
1746:Middlewares/Third_Party/LwIP/src/api/api_msg.c **** 
1747:Middlewares/Third_Party/LwIP/src/api/api_msg.c ****     if (err == ERR_OK) {
1748:Middlewares/Third_Party/LwIP/src/api/api_msg.c ****       err_t out_err;
1749:Middlewares/Third_Party/LwIP/src/api/api_msg.c ****       if ((conn->current_msg->msg.w.offset == conn->current_msg->msg.w.len) || dontblock) {
1750:Middlewares/Third_Party/LwIP/src/api/api_msg.c ****         /* return sent length (caller reads length from msg.w.offset) */
1751:Middlewares/Third_Party/LwIP/src/api/api_msg.c ****         write_finished = 1;
1752:Middlewares/Third_Party/LwIP/src/api/api_msg.c ****       }
1753:Middlewares/Third_Party/LwIP/src/api/api_msg.c ****       out_err = tcp_output(conn->pcb.tcp);
1754:Middlewares/Third_Party/LwIP/src/api/api_msg.c ****       if (out_err == ERR_RTE) {
ARM GAS  C:\Users\hh\AppData\Local\Temp\ccfq6ENc.s 			page 60


1755:Middlewares/Third_Party/LwIP/src/api/api_msg.c ****         /* If tcp_output fails because no route is found,
1756:Middlewares/Third_Party/LwIP/src/api/api_msg.c ****            don't try writing any more but return the error
1757:Middlewares/Third_Party/LwIP/src/api/api_msg.c ****            to the application thread. */
1758:Middlewares/Third_Party/LwIP/src/api/api_msg.c ****         err = out_err;
1759:Middlewares/Third_Party/LwIP/src/api/api_msg.c ****         write_finished = 1;
1760:Middlewares/Third_Party/LwIP/src/api/api_msg.c ****       }
1761:Middlewares/Third_Party/LwIP/src/api/api_msg.c ****     } else if (err == ERR_MEM) {
 1307              		.loc 1 1761 12 is_stmt 1 view .LVU402
 1308              		.loc 1 1761 15 is_stmt 0 view .LVU403
 1309 01ce B4F1FF3F 		cmp	r4, #-1
 1310 01d2 37D0     		beq	.L125
 1311              	.LVL124:
 1312              	.L97:
 1313              	.LBB6:
1762:Middlewares/Third_Party/LwIP/src/api/api_msg.c ****       /* If ERR_MEM, we wait for sent_tcp or poll_tcp to be called.
1763:Middlewares/Third_Party/LwIP/src/api/api_msg.c ****          For blocking sockets, we do NOT return to the application
1764:Middlewares/Third_Party/LwIP/src/api/api_msg.c ****          thread, since ERR_MEM is only a temporary error! Non-blocking
1765:Middlewares/Third_Party/LwIP/src/api/api_msg.c ****          will remain non-writable until sent_tcp/poll_tcp is called */
1766:Middlewares/Third_Party/LwIP/src/api/api_msg.c **** 
1767:Middlewares/Third_Party/LwIP/src/api/api_msg.c ****       /* tcp_write returned ERR_MEM, try tcp_output anyway */
1768:Middlewares/Third_Party/LwIP/src/api/api_msg.c ****       err_t out_err = tcp_output(conn->pcb.tcp);
1769:Middlewares/Third_Party/LwIP/src/api/api_msg.c ****       if (out_err == ERR_RTE) {
1770:Middlewares/Third_Party/LwIP/src/api/api_msg.c ****         /* If tcp_output fails because no route is found,
1771:Middlewares/Third_Party/LwIP/src/api/api_msg.c ****            don't try writing any more but return the error
1772:Middlewares/Third_Party/LwIP/src/api/api_msg.c ****            to the application thread. */
1773:Middlewares/Third_Party/LwIP/src/api/api_msg.c ****         err = out_err;
1774:Middlewares/Third_Party/LwIP/src/api/api_msg.c ****         write_finished = 1;
1775:Middlewares/Third_Party/LwIP/src/api/api_msg.c ****       } else if (dontblock) {
1776:Middlewares/Third_Party/LwIP/src/api/api_msg.c ****         /* non-blocking write is done on ERR_MEM, set error according
1777:Middlewares/Third_Party/LwIP/src/api/api_msg.c ****            to partial write or not */
1778:Middlewares/Third_Party/LwIP/src/api/api_msg.c ****         err = (conn->current_msg->msg.w.offset == 0) ? ERR_WOULDBLOCK : ERR_OK;
1779:Middlewares/Third_Party/LwIP/src/api/api_msg.c ****         write_finished = 1;
1780:Middlewares/Third_Party/LwIP/src/api/api_msg.c ****       }
1781:Middlewares/Third_Party/LwIP/src/api/api_msg.c ****     } else {
1782:Middlewares/Third_Party/LwIP/src/api/api_msg.c ****       /* On errors != ERR_MEM, we don't try writing any more but return
1783:Middlewares/Third_Party/LwIP/src/api/api_msg.c ****          the error to the application thread. */
1784:Middlewares/Third_Party/LwIP/src/api/api_msg.c ****       write_finished = 1;
1785:Middlewares/Third_Party/LwIP/src/api/api_msg.c ****     }
1786:Middlewares/Third_Party/LwIP/src/api/api_msg.c ****   }
1787:Middlewares/Third_Party/LwIP/src/api/api_msg.c ****   if (write_finished) {
1788:Middlewares/Third_Party/LwIP/src/api/api_msg.c ****     /* everything was written: set back connection state
1789:Middlewares/Third_Party/LwIP/src/api/api_msg.c ****        and back to application task */
1790:Middlewares/Third_Party/LwIP/src/api/api_msg.c ****     sys_sem_t *op_completed_sem = LWIP_API_MSG_SEM(conn->current_msg);
 1314              		.loc 1 1790 5 is_stmt 1 view .LVU404
 1315              		.loc 1 1790 35 is_stmt 0 view .LVU405
 1316 01d4 2B6A     		ldr	r3, [r5, #32]
 1317 01d6 1868     		ldr	r0, [r3]
 1318              		.loc 1 1790 16 view .LVU406
 1319 01d8 0C30     		adds	r0, r0, #12
 1320              	.LVL125:
1791:Middlewares/Third_Party/LwIP/src/api/api_msg.c ****     conn->current_msg->err = err;
 1321              		.loc 1 1791 5 is_stmt 1 view .LVU407
 1322              		.loc 1 1791 28 is_stmt 0 view .LVU408
 1323 01da 1C71     		strb	r4, [r3, #4]
1792:Middlewares/Third_Party/LwIP/src/api/api_msg.c ****     conn->current_msg = NULL;
 1324              		.loc 1 1792 5 is_stmt 1 view .LVU409
 1325              		.loc 1 1792 23 is_stmt 0 view .LVU410
ARM GAS  C:\Users\hh\AppData\Local\Temp\ccfq6ENc.s 			page 61


 1326 01dc 0023     		movs	r3, #0
 1327 01de 2B62     		str	r3, [r5, #32]
1793:Middlewares/Third_Party/LwIP/src/api/api_msg.c ****     conn->state = NETCONN_NONE;
 1328              		.loc 1 1793 5 is_stmt 1 view .LVU411
 1329              		.loc 1 1793 17 is_stmt 0 view .LVU412
 1330 01e0 6B70     		strb	r3, [r5, #1]
1794:Middlewares/Third_Party/LwIP/src/api/api_msg.c **** #if LWIP_TCPIP_CORE_LOCKING
1795:Middlewares/Third_Party/LwIP/src/api/api_msg.c ****     if (delayed)
 1331              		.loc 1 1795 5 is_stmt 1 view .LVU413
 1332              		.loc 1 1795 8 is_stmt 0 view .LVU414
 1333 01e2 5B46     		mov	r3, fp
 1334 01e4 002B     		cmp	r3, #0
 1335 01e6 41D1     		bne	.L126
 1336              	.LVL126:
 1337              		.loc 1 1795 8 view .LVU415
 1338              	.LBE6:
1796:Middlewares/Third_Party/LwIP/src/api/api_msg.c **** #endif
1797:Middlewares/Third_Party/LwIP/src/api/api_msg.c ****     {
1798:Middlewares/Third_Party/LwIP/src/api/api_msg.c ****       sys_sem_signal(op_completed_sem);
1799:Middlewares/Third_Party/LwIP/src/api/api_msg.c ****     }
1800:Middlewares/Third_Party/LwIP/src/api/api_msg.c ****   }
1801:Middlewares/Third_Party/LwIP/src/api/api_msg.c **** #if LWIP_TCPIP_CORE_LOCKING
1802:Middlewares/Third_Party/LwIP/src/api/api_msg.c ****   else {
1803:Middlewares/Third_Party/LwIP/src/api/api_msg.c ****     return ERR_MEM;
1804:Middlewares/Third_Party/LwIP/src/api/api_msg.c ****   }
1805:Middlewares/Third_Party/LwIP/src/api/api_msg.c **** #endif
1806:Middlewares/Third_Party/LwIP/src/api/api_msg.c ****   return ERR_OK;
 1339              		.loc 1 1806 10 view .LVU416
 1340 01e8 5846     		mov	r0, fp
 1341              	.LVL127:
 1342              	.L100:
1807:Middlewares/Third_Party/LwIP/src/api/api_msg.c **** }
 1343              		.loc 1 1807 1 view .LVU417
 1344 01ea BDE8F88F 		pop	{r3, r4, r5, r6, r7, r8, r9, r10, fp, pc}
 1345              	.LVL128:
 1346              	.L92:
1739:Middlewares/Third_Party/LwIP/src/api/api_msg.c ****                  (tcp_sndqueuelen(conn->pcb.tcp) >= TCP_SNDQUEUELOWAT)) {
 1347              		.loc 1 1739 14 is_stmt 1 view .LVU418
1739:Middlewares/Third_Party/LwIP/src/api/api_msg.c ****                  (tcp_sndqueuelen(conn->pcb.tcp) >= TCP_SNDQUEUELOWAT)) {
 1348              		.loc 1 1739 19 is_stmt 0 view .LVU419
 1349 01ee 6B68     		ldr	r3, [r5, #4]
 1350 01f0 B3F86420 		ldrh	r2, [r3, #100]
1739:Middlewares/Third_Party/LwIP/src/api/api_msg.c ****                  (tcp_sndqueuelen(conn->pcb.tcp) >= TCP_SNDQUEUELOWAT)) {
 1351              		.loc 1 1739 17 view .LVU420
 1352 01f4 B2F5866F 		cmp	r2, #1072
 1353 01f8 03D3     		bcc	.L95
1740:Middlewares/Third_Party/LwIP/src/api/api_msg.c ****         /* The queued byte- or pbuf-count exceeds the configured low-water limit,
 1354              		.loc 1 1740 19 view .LVU421
 1355 01fa B3F86630 		ldrh	r3, [r3, #102]
1739:Middlewares/Third_Party/LwIP/src/api/api_msg.c ****                  (tcp_sndqueuelen(conn->pcb.tcp) >= TCP_SNDQUEUELOWAT)) {
 1356              		.loc 1 1739 62 discriminator 1 view .LVU422
 1357 01fe 042B     		cmp	r3, #4
 1358 0200 05D9     		bls	.L94
 1359              	.L95:
1743:Middlewares/Third_Party/LwIP/src/api/api_msg.c ****       }
 1360              		.loc 1 1743 9 is_stmt 1 view .LVU423
 1361 0202 6B6A     		ldr	r3, [r5, #36]
ARM GAS  C:\Users\hh\AppData\Local\Temp\ccfq6ENc.s 			page 62


 1362 0204 1BB1     		cbz	r3, .L94
1743:Middlewares/Third_Party/LwIP/src/api/api_msg.c ****       }
 1363              		.loc 1 1743 9 discriminator 1 view .LVU424
 1364 0206 0022     		movs	r2, #0
 1365 0208 0321     		movs	r1, #3
 1366 020a 2846     		mov	r0, r5
 1367 020c 9847     		blx	r3
 1368              	.LVL129:
 1369              	.L94:
1743:Middlewares/Third_Party/LwIP/src/api/api_msg.c ****       }
 1370              		.loc 1 1743 50 view .LVU425
1747:Middlewares/Third_Party/LwIP/src/api/api_msg.c ****       err_t out_err;
 1371              		.loc 1 1747 5 view .LVU426
1747:Middlewares/Third_Party/LwIP/src/api/api_msg.c ****       err_t out_err;
 1372              		.loc 1 1747 8 is_stmt 0 view .LVU427
 1373 020e 002C     		cmp	r4, #0
 1374 0210 DDD1     		bne	.L91
 1375              	.LBB7:
1748:Middlewares/Third_Party/LwIP/src/api/api_msg.c ****       if ((conn->current_msg->msg.w.offset == conn->current_msg->msg.w.len) || dontblock) {
 1376              		.loc 1 1748 7 is_stmt 1 view .LVU428
1749:Middlewares/Third_Party/LwIP/src/api/api_msg.c ****         /* return sent length (caller reads length from msg.w.offset) */
 1377              		.loc 1 1749 7 view .LVU429
1749:Middlewares/Third_Party/LwIP/src/api/api_msg.c ****         /* return sent length (caller reads length from msg.w.offset) */
 1378              		.loc 1 1749 16 is_stmt 0 view .LVU430
 1379 0212 2B6A     		ldr	r3, [r5, #32]
1749:Middlewares/Third_Party/LwIP/src/api/api_msg.c ****         /* return sent length (caller reads length from msg.w.offset) */
 1380              		.loc 1 1749 36 view .LVU431
 1381 0214 9A69     		ldr	r2, [r3, #24]
1749:Middlewares/Third_Party/LwIP/src/api/api_msg.c ****         /* return sent length (caller reads length from msg.w.offset) */
 1382              		.loc 1 1749 71 view .LVU432
 1383 0216 5B69     		ldr	r3, [r3, #20]
1749:Middlewares/Third_Party/LwIP/src/api/api_msg.c ****         /* return sent length (caller reads length from msg.w.offset) */
 1384              		.loc 1 1749 10 view .LVU433
 1385 0218 9A42     		cmp	r2, r3
 1386 021a 05D0     		beq	.L107
1749:Middlewares/Third_Party/LwIP/src/api/api_msg.c ****         /* return sent length (caller reads length from msg.w.offset) */
 1387              		.loc 1 1749 77 discriminator 1 view .LVU434
 1388 021c BAF1000F 		cmp	r10, #0
 1389 0220 04D0     		beq	.L96
1751:Middlewares/Third_Party/LwIP/src/api/api_msg.c ****       }
 1390              		.loc 1 1751 24 view .LVU435
 1391 0222 4FF0010A 		mov	r10, #1
 1392              	.LVL130:
1751:Middlewares/Third_Party/LwIP/src/api/api_msg.c ****       }
 1393              		.loc 1 1751 24 view .LVU436
 1394 0226 01E0     		b	.L96
 1395              	.LVL131:
 1396              	.L107:
1751:Middlewares/Third_Party/LwIP/src/api/api_msg.c ****       }
 1397              		.loc 1 1751 24 view .LVU437
 1398 0228 4FF0010A 		mov	r10, #1
 1399              	.LVL132:
 1400              	.L96:
1753:Middlewares/Third_Party/LwIP/src/api/api_msg.c ****       if (out_err == ERR_RTE) {
 1401              		.loc 1 1753 7 is_stmt 1 view .LVU438
1753:Middlewares/Third_Party/LwIP/src/api/api_msg.c ****       if (out_err == ERR_RTE) {
 1402              		.loc 1 1753 17 is_stmt 0 view .LVU439
ARM GAS  C:\Users\hh\AppData\Local\Temp\ccfq6ENc.s 			page 63


 1403 022c 6868     		ldr	r0, [r5, #4]
 1404 022e FFF7FEFF 		bl	tcp_output
 1405              	.LVL133:
1754:Middlewares/Third_Party/LwIP/src/api/api_msg.c ****         /* If tcp_output fails because no route is found,
 1406              		.loc 1 1754 7 is_stmt 1 view .LVU440
1754:Middlewares/Third_Party/LwIP/src/api/api_msg.c ****         /* If tcp_output fails because no route is found,
 1407              		.loc 1 1754 10 is_stmt 0 view .LVU441
 1408 0232 10F1040F 		cmn	r0, #4
 1409 0236 15D0     		beq	.L127
1754:Middlewares/Third_Party/LwIP/src/api/api_msg.c ****         /* If tcp_output fails because no route is found,
 1410              		.loc 1 1754 10 view .LVU442
 1411              	.LBE7:
1787:Middlewares/Third_Party/LwIP/src/api/api_msg.c ****     /* everything was written: set back connection state
 1412              		.loc 1 1787 3 is_stmt 1 view .LVU443
1787:Middlewares/Third_Party/LwIP/src/api/api_msg.c ****     /* everything was written: set back connection state
 1413              		.loc 1 1787 6 is_stmt 0 view .LVU444
 1414 0238 BAF1000F 		cmp	r10, #0
 1415 023c CAD1     		bne	.L97
 1416              	.LVL134:
 1417              	.L99:
1803:Middlewares/Third_Party/LwIP/src/api/api_msg.c ****   }
 1418              		.loc 1 1803 5 is_stmt 1 view .LVU445
1803:Middlewares/Third_Party/LwIP/src/api/api_msg.c ****   }
 1419              		.loc 1 1803 12 is_stmt 0 view .LVU446
 1420 023e 4FF0FF30 		mov	r0, #-1
 1421 0242 D2E7     		b	.L100
 1422              	.LVL135:
 1423              	.L125:
 1424              	.LBB8:
1768:Middlewares/Third_Party/LwIP/src/api/api_msg.c ****       if (out_err == ERR_RTE) {
 1425              		.loc 1 1768 7 is_stmt 1 view .LVU447
1768:Middlewares/Third_Party/LwIP/src/api/api_msg.c ****       if (out_err == ERR_RTE) {
 1426              		.loc 1 1768 23 is_stmt 0 view .LVU448
 1427 0244 6868     		ldr	r0, [r5, #4]
 1428 0246 FFF7FEFF 		bl	tcp_output
 1429              	.LVL136:
 1430 024a 0446     		mov	r4, r0
 1431              	.LVL137:
1769:Middlewares/Third_Party/LwIP/src/api/api_msg.c ****         /* If tcp_output fails because no route is found,
 1432              		.loc 1 1769 7 is_stmt 1 view .LVU449
1769:Middlewares/Third_Party/LwIP/src/api/api_msg.c ****         /* If tcp_output fails because no route is found,
 1433              		.loc 1 1769 10 is_stmt 0 view .LVU450
 1434 024c 10F1040F 		cmn	r0, #4
 1435 0250 C0D0     		beq	.L97
1775:Middlewares/Third_Party/LwIP/src/api/api_msg.c ****         /* non-blocking write is done on ERR_MEM, set error according
 1436              		.loc 1 1775 14 is_stmt 1 view .LVU451
1775:Middlewares/Third_Party/LwIP/src/api/api_msg.c ****         /* non-blocking write is done on ERR_MEM, set error according
 1437              		.loc 1 1775 17 is_stmt 0 view .LVU452
 1438 0252 BAF1000F 		cmp	r10, #0
 1439 0256 F2D0     		beq	.L99
1778:Middlewares/Third_Party/LwIP/src/api/api_msg.c ****         write_finished = 1;
 1440              		.loc 1 1778 9 is_stmt 1 view .LVU453
1778:Middlewares/Third_Party/LwIP/src/api/api_msg.c ****         write_finished = 1;
 1441              		.loc 1 1778 20 is_stmt 0 view .LVU454
 1442 0258 2B6A     		ldr	r3, [r5, #32]
1778:Middlewares/Third_Party/LwIP/src/api/api_msg.c ****         write_finished = 1;
 1443              		.loc 1 1778 40 view .LVU455
ARM GAS  C:\Users\hh\AppData\Local\Temp\ccfq6ENc.s 			page 64


 1444 025a 9B69     		ldr	r3, [r3, #24]
1778:Middlewares/Third_Party/LwIP/src/api/api_msg.c ****         write_finished = 1;
 1445              		.loc 1 1778 13 view .LVU456
 1446 025c 23B9     		cbnz	r3, .L110
1778:Middlewares/Third_Party/LwIP/src/api/api_msg.c ****         write_finished = 1;
 1447              		.loc 1 1778 13 discriminator 1 view .LVU457
 1448 025e 6FF00604 		mvn	r4, #6
 1449 0262 B7E7     		b	.L97
 1450              	.LVL138:
 1451              	.L127:
1778:Middlewares/Third_Party/LwIP/src/api/api_msg.c ****         write_finished = 1;
 1452              		.loc 1 1778 13 discriminator 1 view .LVU458
 1453              	.LBE8:
 1454              	.LBB9:
1758:Middlewares/Third_Party/LwIP/src/api/api_msg.c ****         write_finished = 1;
 1455              		.loc 1 1758 13 view .LVU459
 1456 0264 0446     		mov	r4, r0
 1457              	.LVL139:
1758:Middlewares/Third_Party/LwIP/src/api/api_msg.c ****         write_finished = 1;
 1458              		.loc 1 1758 13 view .LVU460
 1459 0266 B5E7     		b	.L97
 1460              	.LVL140:
 1461              	.L110:
1758:Middlewares/Third_Party/LwIP/src/api/api_msg.c ****         write_finished = 1;
 1462              		.loc 1 1758 13 view .LVU461
 1463              	.LBE9:
 1464              	.LBB10:
1778:Middlewares/Third_Party/LwIP/src/api/api_msg.c ****         write_finished = 1;
 1465              		.loc 1 1778 13 discriminator 2 view .LVU462
 1466 0268 0024     		movs	r4, #0
 1467 026a B3E7     		b	.L97
 1468              	.LVL141:
 1469              	.L126:
1778:Middlewares/Third_Party/LwIP/src/api/api_msg.c ****         write_finished = 1;
 1470              		.loc 1 1778 13 discriminator 2 view .LVU463
 1471              	.LBE10:
 1472              	.LBB11:
1798:Middlewares/Third_Party/LwIP/src/api/api_msg.c ****     }
 1473              		.loc 1 1798 7 is_stmt 1 view .LVU464
 1474 026c FFF7FEFF 		bl	sys_sem_signal
 1475              	.LVL142:
1798:Middlewares/Third_Party/LwIP/src/api/api_msg.c ****     }
 1476              		.loc 1 1798 7 is_stmt 0 view .LVU465
 1477              	.LBE11:
1806:Middlewares/Third_Party/LwIP/src/api/api_msg.c **** }
 1478              		.loc 1 1806 10 view .LVU466
 1479 0270 0020     		movs	r0, #0
 1480 0272 BAE7     		b	.L100
 1481              	.L129:
 1482              		.align	2
 1483              	.L128:
 1484 0274 00000000 		.word	.LC0
 1485 0278 00000000 		.word	.LC4
 1486 027c 40000000 		.word	.LC2
 1487 0280 00000000 		.word	.LC11
 1488 0284 10000000 		.word	.LC5
 1489 0288 20000000 		.word	.LC12
ARM GAS  C:\Users\hh\AppData\Local\Temp\ccfq6ENc.s 			page 65


 1490 028c 38000000 		.word	.LC13
 1491 0290 78000000 		.word	.LC14
 1492 0294 A0000000 		.word	.LC15
 1493              		.cfi_endproc
 1494              	.LFE195:
 1496              		.section	.rodata.lwip_netconn_do_close_internal.str1.4,"aMS",%progbits,1
 1497              		.align	2
 1498              	.LC16:
 1499 0000 696E7661 		.ascii	"invalid conn\000"
 1499      6C696420 
 1499      636F6E6E 
 1499      00
 1500 000d 000000   		.align	2
 1501              	.LC17:
 1502 0010 74686973 		.ascii	"this is for tcp netconns only\000"
 1502      20697320 
 1502      666F7220 
 1502      74637020 
 1502      6E657463 
 1503 002e 0000     		.align	2
 1504              	.LC18:
 1505 0030 636F6E6E 		.ascii	"conn must be in state NETCONN_CLOSE\000"
 1505      206D7573 
 1505      74206265 
 1505      20696E20 
 1505      73746174 
 1506              		.align	2
 1507              	.LC19:
 1508 0054 70636220 		.ascii	"pcb already closed\000"
 1508      616C7265 
 1508      61647920 
 1508      636C6F73 
 1508      656400
 1509 0067 00       		.align	2
 1510              	.LC20:
 1511 0068 436C6F73 		.ascii	"Closing a listen pcb may not fail!\000"
 1511      696E6720 
 1511      61206C69 
 1511      7374656E 
 1511      20706362 
 1512              		.section	.text.lwip_netconn_do_close_internal,"ax",%progbits
 1513              		.align	1
 1514              		.syntax unified
 1515              		.thumb
 1516              		.thumb_func
 1518              	lwip_netconn_do_close_internal:
 1519              	.LVL143:
 1520              	.LFB185:
 925:Middlewares/Third_Party/LwIP/src/api/api_msg.c ****   err_t err;
 1521              		.loc 1 925 1 is_stmt 1 view -0
 1522              		.cfi_startproc
 1523              		@ args = 0, pretend = 0, frame = 0
 1524              		@ frame_needed = 0, uses_anonymous_args = 0
 925:Middlewares/Third_Party/LwIP/src/api/api_msg.c ****   err_t err;
 1525              		.loc 1 925 1 is_stmt 0 view .LVU468
 1526 0000 2DE9F047 		push	{r4, r5, r6, r7, r8, r9, r10, lr}
 1527              	.LCFI8:
ARM GAS  C:\Users\hh\AppData\Local\Temp\ccfq6ENc.s 			page 66


 1528              		.cfi_def_cfa_offset 32
 1529              		.cfi_offset 4, -32
 1530              		.cfi_offset 5, -28
 1531              		.cfi_offset 6, -24
 1532              		.cfi_offset 7, -20
 1533              		.cfi_offset 8, -16
 1534              		.cfi_offset 9, -12
 1535              		.cfi_offset 10, -8
 1536              		.cfi_offset 14, -4
 1537 0004 8A46     		mov	r10, r1
 926:Middlewares/Third_Party/LwIP/src/api/api_msg.c ****   u8_t shut, shut_rx, shut_tx, shut_close;
 1538              		.loc 1 926 3 is_stmt 1 view .LVU469
 927:Middlewares/Third_Party/LwIP/src/api/api_msg.c ****   u8_t close_finished = 0;
 1539              		.loc 1 927 3 view .LVU470
 928:Middlewares/Third_Party/LwIP/src/api/api_msg.c ****   struct tcp_pcb *tpcb;
 1540              		.loc 1 928 3 view .LVU471
 1541              	.LVL144:
 929:Middlewares/Third_Party/LwIP/src/api/api_msg.c **** #if LWIP_SO_LINGER
 1542              		.loc 1 929 3 view .LVU472
 934:Middlewares/Third_Party/LwIP/src/api/api_msg.c ****   LWIP_ASSERT("this is for tcp netconns only", (NETCONNTYPE_GROUP(conn->type) == NETCONN_TCP));
 1543              		.loc 1 934 3 view .LVU473
 934:Middlewares/Third_Party/LwIP/src/api/api_msg.c ****   LWIP_ASSERT("this is for tcp netconns only", (NETCONNTYPE_GROUP(conn->type) == NETCONN_TCP));
 1544              		.loc 1 934 3 view .LVU474
 1545 0006 0446     		mov	r4, r0
 1546 0008 0028     		cmp	r0, #0
 1547 000a 5BD0     		beq	.L158
 1548              	.LVL145:
 1549              	.L131:
 934:Middlewares/Third_Party/LwIP/src/api/api_msg.c ****   LWIP_ASSERT("this is for tcp netconns only", (NETCONNTYPE_GROUP(conn->type) == NETCONN_TCP));
 1550              		.loc 1 934 3 view .LVU475
 934:Middlewares/Third_Party/LwIP/src/api/api_msg.c ****   LWIP_ASSERT("this is for tcp netconns only", (NETCONNTYPE_GROUP(conn->type) == NETCONN_TCP));
 1551              		.loc 1 934 3 view .LVU476
 935:Middlewares/Third_Party/LwIP/src/api/api_msg.c ****   LWIP_ASSERT("conn must be in state NETCONN_CLOSE", (conn->state == NETCONN_CLOSE));
 1552              		.loc 1 935 3 view .LVU477
 935:Middlewares/Third_Party/LwIP/src/api/api_msg.c ****   LWIP_ASSERT("conn must be in state NETCONN_CLOSE", (conn->state == NETCONN_CLOSE));
 1553              		.loc 1 935 3 view .LVU478
 1554 000c 2378     		ldrb	r3, [r4]	@ zero_extendqisi2
 1555 000e 03F0F003 		and	r3, r3, #240
 1556 0012 102B     		cmp	r3, #16
 1557 0014 5ED1     		bne	.L159
 1558              	.L132:
 935:Middlewares/Third_Party/LwIP/src/api/api_msg.c ****   LWIP_ASSERT("conn must be in state NETCONN_CLOSE", (conn->state == NETCONN_CLOSE));
 1559              		.loc 1 935 3 view .LVU479
 935:Middlewares/Third_Party/LwIP/src/api/api_msg.c ****   LWIP_ASSERT("conn must be in state NETCONN_CLOSE", (conn->state == NETCONN_CLOSE));
 1560              		.loc 1 935 3 view .LVU480
 936:Middlewares/Third_Party/LwIP/src/api/api_msg.c ****   LWIP_ASSERT("pcb already closed", (conn->pcb.tcp != NULL));
 1561              		.loc 1 936 3 view .LVU481
 936:Middlewares/Third_Party/LwIP/src/api/api_msg.c ****   LWIP_ASSERT("pcb already closed", (conn->pcb.tcp != NULL));
 1562              		.loc 1 936 3 view .LVU482
 1563 0016 6378     		ldrb	r3, [r4, #1]	@ zero_extendqisi2
 1564 0018 042B     		cmp	r3, #4
 1565 001a 63D1     		bne	.L160
 1566              	.L133:
 936:Middlewares/Third_Party/LwIP/src/api/api_msg.c ****   LWIP_ASSERT("pcb already closed", (conn->pcb.tcp != NULL));
 1567              		.loc 1 936 3 view .LVU483
 936:Middlewares/Third_Party/LwIP/src/api/api_msg.c ****   LWIP_ASSERT("pcb already closed", (conn->pcb.tcp != NULL));
 1568              		.loc 1 936 3 view .LVU484
ARM GAS  C:\Users\hh\AppData\Local\Temp\ccfq6ENc.s 			page 67


 937:Middlewares/Third_Party/LwIP/src/api/api_msg.c ****   LWIP_ASSERT("conn->current_msg != NULL", conn->current_msg != NULL);
 1569              		.loc 1 937 3 view .LVU485
 937:Middlewares/Third_Party/LwIP/src/api/api_msg.c ****   LWIP_ASSERT("conn->current_msg != NULL", conn->current_msg != NULL);
 1570              		.loc 1 937 3 view .LVU486
 1571 001c 6368     		ldr	r3, [r4, #4]
 1572 001e 002B     		cmp	r3, #0
 1573 0020 68D0     		beq	.L161
 1574              	.L134:
 937:Middlewares/Third_Party/LwIP/src/api/api_msg.c ****   LWIP_ASSERT("conn->current_msg != NULL", conn->current_msg != NULL);
 1575              		.loc 1 937 3 view .LVU487
 937:Middlewares/Third_Party/LwIP/src/api/api_msg.c ****   LWIP_ASSERT("conn->current_msg != NULL", conn->current_msg != NULL);
 1576              		.loc 1 937 3 view .LVU488
 938:Middlewares/Third_Party/LwIP/src/api/api_msg.c **** 
 1577              		.loc 1 938 3 view .LVU489
 938:Middlewares/Third_Party/LwIP/src/api/api_msg.c **** 
 1578              		.loc 1 938 3 view .LVU490
 1579 0022 236A     		ldr	r3, [r4, #32]
 1580 0024 002B     		cmp	r3, #0
 1581 0026 6DD0     		beq	.L162
 1582              	.L135:
 938:Middlewares/Third_Party/LwIP/src/api/api_msg.c **** 
 1583              		.loc 1 938 3 view .LVU491
 938:Middlewares/Third_Party/LwIP/src/api/api_msg.c **** 
 1584              		.loc 1 938 3 view .LVU492
 940:Middlewares/Third_Party/LwIP/src/api/api_msg.c ****   shut = conn->current_msg->msg.sd.shut;
 1585              		.loc 1 940 3 view .LVU493
 940:Middlewares/Third_Party/LwIP/src/api/api_msg.c ****   shut = conn->current_msg->msg.sd.shut;
 1586              		.loc 1 940 8 is_stmt 0 view .LVU494
 1587 0028 6668     		ldr	r6, [r4, #4]
 1588              	.LVL146:
 941:Middlewares/Third_Party/LwIP/src/api/api_msg.c ****   shut_rx = shut & NETCONN_SHUT_RD;
 1589              		.loc 1 941 3 is_stmt 1 view .LVU495
 941:Middlewares/Third_Party/LwIP/src/api/api_msg.c ****   shut_rx = shut & NETCONN_SHUT_RD;
 1590              		.loc 1 941 14 is_stmt 0 view .LVU496
 1591 002a 236A     		ldr	r3, [r4, #32]
 941:Middlewares/Third_Party/LwIP/src/api/api_msg.c ****   shut_rx = shut & NETCONN_SHUT_RD;
 1592              		.loc 1 941 8 view .LVU497
 1593 002c 1B7A     		ldrb	r3, [r3, #8]	@ zero_extendqisi2
 1594              	.LVL147:
 942:Middlewares/Third_Party/LwIP/src/api/api_msg.c ****   shut_tx = shut & NETCONN_SHUT_WR;
 1595              		.loc 1 942 3 is_stmt 1 view .LVU498
 942:Middlewares/Third_Party/LwIP/src/api/api_msg.c ****   shut_tx = shut & NETCONN_SHUT_WR;
 1596              		.loc 1 942 11 is_stmt 0 view .LVU499
 1597 002e 03F00108 		and	r8, r3, #1
 1598              	.LVL148:
 943:Middlewares/Third_Party/LwIP/src/api/api_msg.c ****   /* shutting down both ends is the same as closing
 1599              		.loc 1 943 3 is_stmt 1 view .LVU500
 943:Middlewares/Third_Party/LwIP/src/api/api_msg.c ****   /* shutting down both ends is the same as closing
 1600              		.loc 1 943 11 is_stmt 0 view .LVU501
 1601 0032 03F00207 		and	r7, r3, #2
 1602              	.LVL149:
 946:Middlewares/Third_Party/LwIP/src/api/api_msg.c ****     shut_close = 1;
 1603              		.loc 1 946 3 is_stmt 1 view .LVU502
 946:Middlewares/Third_Party/LwIP/src/api/api_msg.c ****     shut_close = 1;
 1604              		.loc 1 946 6 is_stmt 0 view .LVU503
 1605 0036 032B     		cmp	r3, #3
 1606 0038 0FD0     		beq	.L136
ARM GAS  C:\Users\hh\AppData\Local\Temp\ccfq6ENc.s 			page 68


 948:Middlewares/Third_Party/LwIP/src/api/api_msg.c ****              ((tpcb->state == FIN_WAIT_1) ||
 1607              		.loc 1 948 10 is_stmt 1 view .LVU504
 948:Middlewares/Third_Party/LwIP/src/api/api_msg.c ****              ((tpcb->state == FIN_WAIT_1) ||
 1608              		.loc 1 948 13 is_stmt 0 view .LVU505
 1609 003a B8F1000F 		cmp	r8, #0
 1610 003e 06D0     		beq	.L137
 949:Middlewares/Third_Party/LwIP/src/api/api_msg.c ****               (tpcb->state == FIN_WAIT_2) ||
 1611              		.loc 1 949 20 view .LVU506
 1612 0040 327D     		ldrb	r2, [r6, #20]	@ zero_extendqisi2
 950:Middlewares/Third_Party/LwIP/src/api/api_msg.c ****               (tpcb->state == CLOSING))) {
 1613              		.loc 1 950 43 view .LVU507
 1614 0042 531F     		subs	r3, r2, #5
 1615              	.LVL150:
 950:Middlewares/Third_Party/LwIP/src/api/api_msg.c ****               (tpcb->state == CLOSING))) {
 1616              		.loc 1 950 43 view .LVU508
 1617 0044 DBB2     		uxtb	r3, r3
 948:Middlewares/Third_Party/LwIP/src/api/api_msg.c ****              ((tpcb->state == FIN_WAIT_1) ||
 1618              		.loc 1 948 22 discriminator 1 view .LVU509
 1619 0046 082A     		cmp	r2, #8
 1620 0048 18BF     		it	ne
 1621 004a 012B     		cmpne	r3, #1
 1622 004c 05D9     		bls	.L136
 1623              	.L137:
 953:Middlewares/Third_Party/LwIP/src/api/api_msg.c ****     shut_close = 1;
 1624              		.loc 1 953 10 is_stmt 1 view .LVU510
 953:Middlewares/Third_Party/LwIP/src/api/api_msg.c ****     shut_close = 1;
 1625              		.loc 1 953 13 is_stmt 0 view .LVU511
 1626 004e 002F     		cmp	r7, #0
 1627 0050 60D0     		beq	.L155
 953:Middlewares/Third_Party/LwIP/src/api/api_msg.c ****     shut_close = 1;
 1628              		.loc 1 953 31 discriminator 1 view .LVU512
 1629 0052 738B     		ldrh	r3, [r6, #26]
 953:Middlewares/Third_Party/LwIP/src/api/api_msg.c ****     shut_close = 1;
 1630              		.loc 1 953 22 discriminator 1 view .LVU513
 1631 0054 13F0100F 		tst	r3, #16
 1632 0058 5ED0     		beq	.L156
 1633              	.L136:
 961:Middlewares/Third_Party/LwIP/src/api/api_msg.c ****   }
 1634              		.loc 1 961 5 is_stmt 1 view .LVU514
 1635 005a 0021     		movs	r1, #0
 1636 005c 3046     		mov	r0, r6
 1637 005e FFF7FEFF 		bl	tcp_arg
 1638              	.LVL151:
 961:Middlewares/Third_Party/LwIP/src/api/api_msg.c ****   }
 1639              		.loc 1 961 5 is_stmt 0 view .LVU515
 1640 0062 0123     		movs	r3, #1
 1641 0064 9946     		mov	r9, r3
 1642              	.L138:
 963:Middlewares/Third_Party/LwIP/src/api/api_msg.c ****     tcp_accept(tpcb, NULL);
 1643              		.loc 1 963 3 is_stmt 1 view .LVU516
 963:Middlewares/Third_Party/LwIP/src/api/api_msg.c ****     tcp_accept(tpcb, NULL);
 1644              		.loc 1 963 11 is_stmt 0 view .LVU517
 1645 0066 337D     		ldrb	r3, [r6, #20]	@ zero_extendqisi2
 963:Middlewares/Third_Party/LwIP/src/api/api_msg.c ****     tcp_accept(tpcb, NULL);
 1646              		.loc 1 963 6 view .LVU518
 1647 0068 012B     		cmp	r3, #1
 1648 006a 58D0     		beq	.L163
ARM GAS  C:\Users\hh\AppData\Local\Temp\ccfq6ENc.s 			page 69


 967:Middlewares/Third_Party/LwIP/src/api/api_msg.c ****       tcp_recv(tpcb, NULL);
 1649              		.loc 1 967 5 is_stmt 1 view .LVU519
 967:Middlewares/Third_Party/LwIP/src/api/api_msg.c ****       tcp_recv(tpcb, NULL);
 1650              		.loc 1 967 8 is_stmt 0 view .LVU520
 1651 006c B8F1000F 		cmp	r8, #0
 1652 0070 5AD1     		bne	.L164
 1653              	.L141:
 971:Middlewares/Third_Party/LwIP/src/api/api_msg.c ****       tcp_sent(tpcb, NULL);
 1654              		.loc 1 971 5 is_stmt 1 view .LVU521
 971:Middlewares/Third_Party/LwIP/src/api/api_msg.c ****       tcp_sent(tpcb, NULL);
 1655              		.loc 1 971 8 is_stmt 0 view .LVU522
 1656 0072 002F     		cmp	r7, #0
 1657 0074 61D1     		bne	.L165
 1658              	.L142:
 974:Middlewares/Third_Party/LwIP/src/api/api_msg.c ****       tcp_poll(tpcb, NULL, 0);
 1659              		.loc 1 974 5 is_stmt 1 view .LVU523
 974:Middlewares/Third_Party/LwIP/src/api/api_msg.c ****       tcp_poll(tpcb, NULL, 0);
 1660              		.loc 1 974 8 is_stmt 0 view .LVU524
 1661 0076 4B46     		mov	r3, r9
 1662 0078 002B     		cmp	r3, #0
 1663 007a 63D1     		bne	.L166
 1664              	.L143:
1013:Middlewares/Third_Party/LwIP/src/api/api_msg.c ****   }
 1665              		.loc 1 1013 5 is_stmt 1 view .LVU525
1013:Middlewares/Third_Party/LwIP/src/api/api_msg.c ****   }
 1666              		.loc 1 1013 11 is_stmt 0 view .LVU526
 1667 007c 3A46     		mov	r2, r7
 1668 007e 4146     		mov	r1, r8
 1669 0080 3046     		mov	r0, r6
 1670 0082 FFF7FEFF 		bl	tcp_shutdown
 1671              	.LVL152:
 1672 0086 0546     		mov	r5, r0
 1673              	.L144:
 1674              	.LVL153:
1015:Middlewares/Third_Party/LwIP/src/api/api_msg.c ****     close_finished = 1;
 1675              		.loc 1 1015 3 is_stmt 1 view .LVU527
1015:Middlewares/Third_Party/LwIP/src/api/api_msg.c ****     close_finished = 1;
 1676              		.loc 1 1015 6 is_stmt 0 view .LVU528
 1677 0088 002D     		cmp	r5, #0
 1678 008a 6ED0     		beq	.L145
1025:Middlewares/Third_Party/LwIP/src/api/api_msg.c ****       /* Closing failed because of memory shortage, try again later. Even for
 1679              		.loc 1 1025 5 is_stmt 1 view .LVU529
1025:Middlewares/Third_Party/LwIP/src/api/api_msg.c ****       /* Closing failed because of memory shortage, try again later. Even for
 1680              		.loc 1 1025 8 is_stmt 0 view .LVU530
 1681 008c B5F1FF3F 		cmp	r5, #-1
 1682 0090 6BD1     		bne	.L145
1046:Middlewares/Third_Party/LwIP/src/api/api_msg.c **** #endif /* LWIP_SO_SNDTIMEO || LWIP_SO_LINGER */
 1683              		.loc 1 1046 7 is_stmt 1 view .LVU531
1046:Middlewares/Third_Party/LwIP/src/api/api_msg.c **** #endif /* LWIP_SO_SNDTIMEO || LWIP_SO_LINGER */
 1684              		.loc 1 1046 15 is_stmt 0 view .LVU532
 1685 0092 236A     		ldr	r3, [r4, #32]
1046:Middlewares/Third_Party/LwIP/src/api/api_msg.c **** #endif /* LWIP_SO_SNDTIMEO || LWIP_SO_LINGER */
 1686              		.loc 1 1046 36 view .LVU533
 1687 0094 5B7A     		ldrb	r3, [r3, #9]	@ zero_extendqisi2
1046:Middlewares/Third_Party/LwIP/src/api/api_msg.c **** #endif /* LWIP_SO_SNDTIMEO || LWIP_SO_LINGER */
 1688              		.loc 1 1046 10 view .LVU534
 1689 0096 002B     		cmp	r3, #0
ARM GAS  C:\Users\hh\AppData\Local\Temp\ccfq6ENc.s 			page 70


 1690 0098 65D0     		beq	.L167
1060:Middlewares/Third_Party/LwIP/src/api/api_msg.c ****     /* Closing done (succeeded, non-memory error, nonblocking error or timeout) */
 1691              		.loc 1 1060 3 is_stmt 1 view .LVU535
1090:Middlewares/Third_Party/LwIP/src/api/api_msg.c ****     /* Closing failed and we want to wait: restore some of the callbacks */
 1692              		.loc 1 1090 3 view .LVU536
1093:Middlewares/Third_Party/LwIP/src/api/api_msg.c ****     if (shut_tx) {
 1693              		.loc 1 1093 5 view .LVU537
1093:Middlewares/Third_Party/LwIP/src/api/api_msg.c ****     if (shut_tx) {
 1694              		.loc 1 1093 5 view .LVU538
 1695 009a 337D     		ldrb	r3, [r6, #20]	@ zero_extendqisi2
 1696 009c 012B     		cmp	r3, #1
 1697 009e 00F09480 		beq	.L168
 1698              	.L148:
1093:Middlewares/Third_Party/LwIP/src/api/api_msg.c ****     if (shut_tx) {
 1699              		.loc 1 1093 5 view .LVU539
1093:Middlewares/Third_Party/LwIP/src/api/api_msg.c ****     if (shut_tx) {
 1700              		.loc 1 1093 5 view .LVU540
1094:Middlewares/Third_Party/LwIP/src/api/api_msg.c ****       tcp_sent(tpcb, sent_tcp);
 1701              		.loc 1 1094 5 view .LVU541
1094:Middlewares/Third_Party/LwIP/src/api/api_msg.c ****       tcp_sent(tpcb, sent_tcp);
 1702              		.loc 1 1094 8 is_stmt 0 view .LVU542
 1703 00a2 002F     		cmp	r7, #0
 1704 00a4 40F09980 		bne	.L169
 1705              	.L154:
1098:Middlewares/Third_Party/LwIP/src/api/api_msg.c ****     tcp_err(tpcb, err_tcp);
 1706              		.loc 1 1098 5 is_stmt 1 view .LVU543
 1707 00a8 0122     		movs	r2, #1
 1708 00aa 4E49     		ldr	r1, .L172
 1709 00ac 3046     		mov	r0, r6
 1710 00ae FFF7FEFF 		bl	tcp_poll
 1711              	.LVL154:
1099:Middlewares/Third_Party/LwIP/src/api/api_msg.c ****     tcp_arg(tpcb, conn);
 1712              		.loc 1 1099 5 view .LVU544
 1713 00b2 4D49     		ldr	r1, .L172+4
 1714 00b4 3046     		mov	r0, r6
 1715 00b6 FFF7FEFF 		bl	tcp_err
 1716              	.LVL155:
1100:Middlewares/Third_Party/LwIP/src/api/api_msg.c ****     /* don't restore recv callback: we don't want to receive any more data */
 1717              		.loc 1 1100 5 view .LVU545
 1718 00ba 2146     		mov	r1, r4
 1719 00bc 3046     		mov	r0, r6
 1720 00be FFF7FEFF 		bl	tcp_arg
 1721              	.LVL156:
1105:Middlewares/Third_Party/LwIP/src/api/api_msg.c ****   return err;
 1722              		.loc 1 1105 3 view .LVU546
1105:Middlewares/Third_Party/LwIP/src/api/api_msg.c ****   return err;
 1723              		.loc 1 1105 3 view .LVU547
1105:Middlewares/Third_Party/LwIP/src/api/api_msg.c ****   return err;
 1724              		.loc 1 1105 3 view .LVU548
1105:Middlewares/Third_Party/LwIP/src/api/api_msg.c ****   return err;
 1725              		.loc 1 1105 3 view .LVU549
1106:Middlewares/Third_Party/LwIP/src/api/api_msg.c **** }
 1726              		.loc 1 1106 3 view .LVU550
1106:Middlewares/Third_Party/LwIP/src/api/api_msg.c **** }
 1727              		.loc 1 1106 10 is_stmt 0 view .LVU551
 1728 00c2 76E0     		b	.L153
 1729              	.LVL157:
ARM GAS  C:\Users\hh\AppData\Local\Temp\ccfq6ENc.s 			page 71


 1730              	.L158:
 934:Middlewares/Third_Party/LwIP/src/api/api_msg.c ****   LWIP_ASSERT("this is for tcp netconns only", (NETCONNTYPE_GROUP(conn->type) == NETCONN_TCP));
 1731              		.loc 1 934 3 is_stmt 1 discriminator 1 view .LVU552
 934:Middlewares/Third_Party/LwIP/src/api/api_msg.c ****   LWIP_ASSERT("this is for tcp netconns only", (NETCONNTYPE_GROUP(conn->type) == NETCONN_TCP));
 1732              		.loc 1 934 3 discriminator 1 view .LVU553
 1733 00c4 494B     		ldr	r3, .L172+8
 1734 00c6 40F2A632 		movw	r2, #934
 1735 00ca 4949     		ldr	r1, .L172+12
 1736              	.LVL158:
 934:Middlewares/Third_Party/LwIP/src/api/api_msg.c ****   LWIP_ASSERT("this is for tcp netconns only", (NETCONNTYPE_GROUP(conn->type) == NETCONN_TCP));
 1737              		.loc 1 934 3 is_stmt 0 discriminator 1 view .LVU554
 1738 00cc 4948     		ldr	r0, .L172+16
 1739              	.LVL159:
 934:Middlewares/Third_Party/LwIP/src/api/api_msg.c ****   LWIP_ASSERT("this is for tcp netconns only", (NETCONNTYPE_GROUP(conn->type) == NETCONN_TCP));
 1740              		.loc 1 934 3 discriminator 1 view .LVU555
 1741 00ce FFF7FEFF 		bl	printf
 1742              	.LVL160:
 1743 00d2 9BE7     		b	.L131
 1744              	.L159:
 935:Middlewares/Third_Party/LwIP/src/api/api_msg.c ****   LWIP_ASSERT("conn must be in state NETCONN_CLOSE", (conn->state == NETCONN_CLOSE));
 1745              		.loc 1 935 3 is_stmt 1 discriminator 1 view .LVU556
 935:Middlewares/Third_Party/LwIP/src/api/api_msg.c ****   LWIP_ASSERT("conn must be in state NETCONN_CLOSE", (conn->state == NETCONN_CLOSE));
 1746              		.loc 1 935 3 discriminator 1 view .LVU557
 1747 00d4 454B     		ldr	r3, .L172+8
 1748 00d6 40F2A732 		movw	r2, #935
 1749 00da 4749     		ldr	r1, .L172+20
 1750 00dc 4548     		ldr	r0, .L172+16
 1751 00de FFF7FEFF 		bl	printf
 1752              	.LVL161:
 1753 00e2 98E7     		b	.L132
 1754              	.L160:
 936:Middlewares/Third_Party/LwIP/src/api/api_msg.c ****   LWIP_ASSERT("pcb already closed", (conn->pcb.tcp != NULL));
 1755              		.loc 1 936 3 discriminator 1 view .LVU558
 936:Middlewares/Third_Party/LwIP/src/api/api_msg.c ****   LWIP_ASSERT("pcb already closed", (conn->pcb.tcp != NULL));
 1756              		.loc 1 936 3 discriminator 1 view .LVU559
 1757 00e4 414B     		ldr	r3, .L172+8
 1758 00e6 4FF46A72 		mov	r2, #936
 1759 00ea 4449     		ldr	r1, .L172+24
 1760 00ec 4148     		ldr	r0, .L172+16
 1761 00ee FFF7FEFF 		bl	printf
 1762              	.LVL162:
 1763 00f2 93E7     		b	.L133
 1764              	.L161:
 937:Middlewares/Third_Party/LwIP/src/api/api_msg.c ****   LWIP_ASSERT("conn->current_msg != NULL", conn->current_msg != NULL);
 1765              		.loc 1 937 3 discriminator 1 view .LVU560
 937:Middlewares/Third_Party/LwIP/src/api/api_msg.c ****   LWIP_ASSERT("conn->current_msg != NULL", conn->current_msg != NULL);
 1766              		.loc 1 937 3 discriminator 1 view .LVU561
 1767 00f4 3D4B     		ldr	r3, .L172+8
 1768 00f6 40F2A932 		movw	r2, #937
 1769 00fa 4149     		ldr	r1, .L172+28
 1770 00fc 3D48     		ldr	r0, .L172+16
 1771 00fe FFF7FEFF 		bl	printf
 1772              	.LVL163:
 1773 0102 8EE7     		b	.L134
 1774              	.L162:
 938:Middlewares/Third_Party/LwIP/src/api/api_msg.c **** 
 1775              		.loc 1 938 3 discriminator 1 view .LVU562
ARM GAS  C:\Users\hh\AppData\Local\Temp\ccfq6ENc.s 			page 72


 938:Middlewares/Third_Party/LwIP/src/api/api_msg.c **** 
 1776              		.loc 1 938 3 discriminator 1 view .LVU563
 1777 0104 394B     		ldr	r3, .L172+8
 1778 0106 40F2AA32 		movw	r2, #938
 1779 010a 3E49     		ldr	r1, .L172+32
 1780 010c 3948     		ldr	r0, .L172+16
 1781 010e FFF7FEFF 		bl	printf
 1782              	.LVL164:
 1783 0112 89E7     		b	.L135
 1784              	.LVL165:
 1785              	.L155:
 956:Middlewares/Third_Party/LwIP/src/api/api_msg.c ****   }
 1786              		.loc 1 956 16 is_stmt 0 view .LVU564
 1787 0114 B946     		mov	r9, r7
 1788 0116 A6E7     		b	.L138
 1789              	.L156:
 956:Middlewares/Third_Party/LwIP/src/api/api_msg.c ****   }
 1790              		.loc 1 956 16 view .LVU565
 1791 0118 0023     		movs	r3, #0
 1792 011a 9946     		mov	r9, r3
 1793 011c A3E7     		b	.L138
 1794              	.LVL166:
 1795              	.L163:
 964:Middlewares/Third_Party/LwIP/src/api/api_msg.c ****   } else {
 1796              		.loc 1 964 5 is_stmt 1 view .LVU566
 1797 011e 0021     		movs	r1, #0
 1798 0120 3046     		mov	r0, r6
 1799 0122 FFF7FEFF 		bl	tcp_accept
 1800              	.LVL167:
 1801 0126 16E0     		b	.L140
 1802              	.L164:
 968:Middlewares/Third_Party/LwIP/src/api/api_msg.c ****       tcp_accept(tpcb, NULL);
 1803              		.loc 1 968 7 view .LVU567
 1804 0128 0021     		movs	r1, #0
 1805 012a 3046     		mov	r0, r6
 1806 012c FFF7FEFF 		bl	tcp_recv
 1807              	.LVL168:
 969:Middlewares/Third_Party/LwIP/src/api/api_msg.c ****     }
 1808              		.loc 1 969 7 view .LVU568
 1809 0130 0021     		movs	r1, #0
 1810 0132 3046     		mov	r0, r6
 1811 0134 FFF7FEFF 		bl	tcp_accept
 1812              	.LVL169:
 1813 0138 9BE7     		b	.L141
 1814              	.L165:
 972:Middlewares/Third_Party/LwIP/src/api/api_msg.c ****     }
 1815              		.loc 1 972 7 view .LVU569
 1816 013a 0021     		movs	r1, #0
 1817 013c 3046     		mov	r0, r6
 1818 013e FFF7FEFF 		bl	tcp_sent
 1819              	.LVL170:
 1820 0142 98E7     		b	.L142
 1821              	.L166:
 975:Middlewares/Third_Party/LwIP/src/api/api_msg.c ****       tcp_err(tpcb, NULL);
 1822              		.loc 1 975 7 view .LVU570
 1823 0144 0022     		movs	r2, #0
 1824 0146 1146     		mov	r1, r2
ARM GAS  C:\Users\hh\AppData\Local\Temp\ccfq6ENc.s 			page 73


 1825 0148 3046     		mov	r0, r6
 1826 014a FFF7FEFF 		bl	tcp_poll
 1827              	.LVL171:
 976:Middlewares/Third_Party/LwIP/src/api/api_msg.c ****     }
 1828              		.loc 1 976 7 view .LVU571
 1829 014e 0021     		movs	r1, #0
 1830 0150 3046     		mov	r0, r6
 1831 0152 FFF7FEFF 		bl	tcp_err
 1832              	.LVL172:
 1833              	.L140:
 980:Middlewares/Third_Party/LwIP/src/api/api_msg.c **** #if LWIP_SO_LINGER
 1834              		.loc 1 980 3 view .LVU572
 980:Middlewares/Third_Party/LwIP/src/api/api_msg.c **** #if LWIP_SO_LINGER
 1835              		.loc 1 980 6 is_stmt 0 view .LVU573
 1836 0156 4B46     		mov	r3, r9
 1837 0158 002B     		cmp	r3, #0
 1838 015a 8FD0     		beq	.L143
1010:Middlewares/Third_Party/LwIP/src/api/api_msg.c ****     }
 1839              		.loc 1 1010 7 is_stmt 1 view .LVU574
1010:Middlewares/Third_Party/LwIP/src/api/api_msg.c ****     }
 1840              		.loc 1 1010 13 is_stmt 0 view .LVU575
 1841 015c 3046     		mov	r0, r6
 1842 015e FFF7FEFF 		bl	tcp_close
 1843              	.LVL173:
 1844 0162 0546     		mov	r5, r0
 1845              	.LVL174:
1010:Middlewares/Third_Party/LwIP/src/api/api_msg.c ****     }
 1846              		.loc 1 1010 13 view .LVU576
 1847 0164 90E7     		b	.L144
 1848              	.L167:
1048:Middlewares/Third_Party/LwIP/src/api/api_msg.c ****         if (shut_close) {
 1849              		.loc 1 1048 9 is_stmt 1 view .LVU577
 1850              	.LVL175:
1049:Middlewares/Third_Party/LwIP/src/api/api_msg.c ****           /* in this case, we want to RST the connection */
 1851              		.loc 1 1049 9 view .LVU578
1049:Middlewares/Third_Party/LwIP/src/api/api_msg.c ****           /* in this case, we want to RST the connection */
 1852              		.loc 1 1049 12 is_stmt 0 view .LVU579
 1853 0166 4B46     		mov	r3, r9
 1854 0168 33BB     		cbnz	r3, .L170
 1855              	.LVL176:
 1856              	.L145:
 1857              	.LBB12:
1062:Middlewares/Third_Party/LwIP/src/api/api_msg.c ****     conn->current_msg->err = err;
 1858              		.loc 1 1062 5 is_stmt 1 view .LVU580
1062:Middlewares/Third_Party/LwIP/src/api/api_msg.c ****     conn->current_msg->err = err;
 1859              		.loc 1 1062 35 is_stmt 0 view .LVU581
 1860 016a 236A     		ldr	r3, [r4, #32]
 1861 016c 1E68     		ldr	r6, [r3]
 1862              	.LVL177:
1062:Middlewares/Third_Party/LwIP/src/api/api_msg.c ****     conn->current_msg->err = err;
 1863              		.loc 1 1062 16 view .LVU582
 1864 016e 0C36     		adds	r6, r6, #12
 1865              	.LVL178:
1063:Middlewares/Third_Party/LwIP/src/api/api_msg.c ****     conn->current_msg = NULL;
 1866              		.loc 1 1063 5 is_stmt 1 view .LVU583
1063:Middlewares/Third_Party/LwIP/src/api/api_msg.c ****     conn->current_msg = NULL;
 1867              		.loc 1 1063 28 is_stmt 0 view .LVU584
ARM GAS  C:\Users\hh\AppData\Local\Temp\ccfq6ENc.s 			page 74


 1868 0170 1D71     		strb	r5, [r3, #4]
1064:Middlewares/Third_Party/LwIP/src/api/api_msg.c ****     conn->state = NETCONN_NONE;
 1869              		.loc 1 1064 5 is_stmt 1 view .LVU585
1064:Middlewares/Third_Party/LwIP/src/api/api_msg.c ****     conn->state = NETCONN_NONE;
 1870              		.loc 1 1064 23 is_stmt 0 view .LVU586
 1871 0172 0023     		movs	r3, #0
 1872 0174 2362     		str	r3, [r4, #32]
1065:Middlewares/Third_Party/LwIP/src/api/api_msg.c ****     if (err == ERR_OK) {
 1873              		.loc 1 1065 5 is_stmt 1 view .LVU587
1065:Middlewares/Third_Party/LwIP/src/api/api_msg.c ****     if (err == ERR_OK) {
 1874              		.loc 1 1065 17 is_stmt 0 view .LVU588
 1875 0176 6370     		strb	r3, [r4, #1]
1066:Middlewares/Third_Party/LwIP/src/api/api_msg.c ****       if (shut_close) {
 1876              		.loc 1 1066 5 is_stmt 1 view .LVU589
1066:Middlewares/Third_Party/LwIP/src/api/api_msg.c ****       if (shut_close) {
 1877              		.loc 1 1066 8 is_stmt 0 view .LVU590
 1878 0178 C5B9     		cbnz	r5, .L149
1067:Middlewares/Third_Party/LwIP/src/api/api_msg.c ****         /* Set back some callback pointers as conn is going away */
 1879              		.loc 1 1067 7 is_stmt 1 view .LVU591
1067:Middlewares/Third_Party/LwIP/src/api/api_msg.c ****         /* Set back some callback pointers as conn is going away */
 1880              		.loc 1 1067 10 is_stmt 0 view .LVU592
 1881 017a 4B46     		mov	r3, r9
 1882 017c 33B1     		cbz	r3, .L150
1069:Middlewares/Third_Party/LwIP/src/api/api_msg.c ****         /* Trigger select() in socket layer. Make sure everybody notices activity
 1883              		.loc 1 1069 9 is_stmt 1 view .LVU593
1069:Middlewares/Third_Party/LwIP/src/api/api_msg.c ****         /* Trigger select() in socket layer. Make sure everybody notices activity
 1884              		.loc 1 1069 23 is_stmt 0 view .LVU594
 1885 017e 6560     		str	r5, [r4, #4]
1072:Middlewares/Third_Party/LwIP/src/api/api_msg.c ****       }
 1886              		.loc 1 1072 9 is_stmt 1 view .LVU595
 1887 0180 636A     		ldr	r3, [r4, #36]
 1888 0182 1BB1     		cbz	r3, .L150
1072:Middlewares/Third_Party/LwIP/src/api/api_msg.c ****       }
 1889              		.loc 1 1072 9 discriminator 1 view .LVU596
 1890 0184 2A46     		mov	r2, r5
 1891 0186 0421     		movs	r1, #4
 1892 0188 2046     		mov	r0, r4
 1893 018a 9847     		blx	r3
 1894              	.LVL179:
 1895              	.L150:
1072:Middlewares/Third_Party/LwIP/src/api/api_msg.c ****       }
 1896              		.loc 1 1072 46 view .LVU597
1074:Middlewares/Third_Party/LwIP/src/api/api_msg.c ****         API_EVENT(conn, NETCONN_EVT_RCVPLUS, 0);
 1897              		.loc 1 1074 7 view .LVU598
1074:Middlewares/Third_Party/LwIP/src/api/api_msg.c ****         API_EVENT(conn, NETCONN_EVT_RCVPLUS, 0);
 1898              		.loc 1 1074 10 is_stmt 0 view .LVU599
 1899 018c B8F1000F 		cmp	r8, #0
 1900 0190 05D0     		beq	.L151
1075:Middlewares/Third_Party/LwIP/src/api/api_msg.c ****       }
 1901              		.loc 1 1075 9 is_stmt 1 view .LVU600
 1902 0192 636A     		ldr	r3, [r4, #36]
 1903 0194 1BB1     		cbz	r3, .L151
1075:Middlewares/Third_Party/LwIP/src/api/api_msg.c ****       }
 1904              		.loc 1 1075 9 discriminator 1 view .LVU601
 1905 0196 0022     		movs	r2, #0
 1906 0198 1146     		mov	r1, r2
 1907 019a 2046     		mov	r0, r4
ARM GAS  C:\Users\hh\AppData\Local\Temp\ccfq6ENc.s 			page 75


 1908 019c 9847     		blx	r3
 1909              	.LVL180:
 1910              	.L151:
1075:Middlewares/Third_Party/LwIP/src/api/api_msg.c ****       }
 1911              		.loc 1 1075 48 view .LVU602
1077:Middlewares/Third_Party/LwIP/src/api/api_msg.c ****         API_EVENT(conn, NETCONN_EVT_SENDPLUS, 0);
 1912              		.loc 1 1077 7 view .LVU603
1077:Middlewares/Third_Party/LwIP/src/api/api_msg.c ****         API_EVENT(conn, NETCONN_EVT_SENDPLUS, 0);
 1913              		.loc 1 1077 10 is_stmt 0 view .LVU604
 1914 019e 2FB1     		cbz	r7, .L149
1078:Middlewares/Third_Party/LwIP/src/api/api_msg.c ****       }
 1915              		.loc 1 1078 9 is_stmt 1 view .LVU605
 1916 01a0 636A     		ldr	r3, [r4, #36]
 1917 01a2 1BB1     		cbz	r3, .L149
1078:Middlewares/Third_Party/LwIP/src/api/api_msg.c ****       }
 1918              		.loc 1 1078 9 discriminator 1 view .LVU606
 1919 01a4 0022     		movs	r2, #0
 1920 01a6 0221     		movs	r1, #2
 1921 01a8 2046     		mov	r0, r4
 1922 01aa 9847     		blx	r3
 1923              	.LVL181:
 1924              	.L149:
1078:Middlewares/Third_Party/LwIP/src/api/api_msg.c ****       }
 1925              		.loc 1 1078 49 view .LVU607
1082:Middlewares/Third_Party/LwIP/src/api/api_msg.c **** #endif
 1926              		.loc 1 1082 5 view .LVU608
1082:Middlewares/Third_Party/LwIP/src/api/api_msg.c **** #endif
 1927              		.loc 1 1082 8 is_stmt 0 view .LVU609
 1928 01ac 5346     		mov	r3, r10
 1929 01ae 43B9     		cbnz	r3, .L171
 1930              	.L152:
1088:Middlewares/Third_Party/LwIP/src/api/api_msg.c ****   }
 1931              		.loc 1 1088 5 is_stmt 1 view .LVU610
1088:Middlewares/Third_Party/LwIP/src/api/api_msg.c ****   }
 1932              		.loc 1 1088 12 is_stmt 0 view .LVU611
 1933 01b0 0025     		movs	r5, #0
 1934              	.LVL182:
 1935              	.L153:
1088:Middlewares/Third_Party/LwIP/src/api/api_msg.c ****   }
 1936              		.loc 1 1088 12 view .LVU612
 1937              	.LBE12:
1107:Middlewares/Third_Party/LwIP/src/api/api_msg.c **** #endif /* LWIP_TCP */
 1938              		.loc 1 1107 1 view .LVU613
 1939 01b2 2846     		mov	r0, r5
 1940 01b4 BDE8F087 		pop	{r4, r5, r6, r7, r8, r9, r10, pc}
 1941              	.LVL183:
 1942              	.L170:
1051:Middlewares/Third_Party/LwIP/src/api/api_msg.c ****           err = ERR_OK;
 1943              		.loc 1 1051 11 is_stmt 1 view .LVU614
 1944 01b8 3046     		mov	r0, r6
 1945 01ba FFF7FEFF 		bl	tcp_abort
 1946              	.LVL184:
1052:Middlewares/Third_Party/LwIP/src/api/api_msg.c ****         }
 1947              		.loc 1 1052 11 view .LVU615
1060:Middlewares/Third_Party/LwIP/src/api/api_msg.c ****     /* Closing done (succeeded, non-memory error, nonblocking error or timeout) */
 1948              		.loc 1 1060 3 view .LVU616
1052:Middlewares/Third_Party/LwIP/src/api/api_msg.c ****         }
ARM GAS  C:\Users\hh\AppData\Local\Temp\ccfq6ENc.s 			page 76


 1949              		.loc 1 1052 15 is_stmt 0 view .LVU617
 1950 01be 0025     		movs	r5, #0
 1951 01c0 D3E7     		b	.L145
 1952              	.LVL185:
 1953              	.L171:
 1954              	.LBB13:
1086:Middlewares/Third_Party/LwIP/src/api/api_msg.c ****     }
 1955              		.loc 1 1086 7 is_stmt 1 view .LVU618
 1956 01c2 3046     		mov	r0, r6
 1957 01c4 FFF7FEFF 		bl	sys_sem_signal
 1958              	.LVL186:
 1959 01c8 F2E7     		b	.L152
 1960              	.LVL187:
 1961              	.L168:
1086:Middlewares/Third_Party/LwIP/src/api/api_msg.c ****     }
 1962              		.loc 1 1086 7 is_stmt 0 view .LVU619
 1963              	.LBE13:
1093:Middlewares/Third_Party/LwIP/src/api/api_msg.c ****     if (shut_tx) {
 1964              		.loc 1 1093 5 is_stmt 1 discriminator 1 view .LVU620
1093:Middlewares/Third_Party/LwIP/src/api/api_msg.c ****     if (shut_tx) {
 1965              		.loc 1 1093 5 discriminator 1 view .LVU621
 1966 01ca 084B     		ldr	r3, .L172+8
 1967 01cc 40F24542 		movw	r2, #1093
 1968 01d0 0D49     		ldr	r1, .L172+36
 1969 01d2 0848     		ldr	r0, .L172+16
 1970 01d4 FFF7FEFF 		bl	printf
 1971              	.LVL188:
 1972 01d8 63E7     		b	.L148
 1973              	.L169:
1095:Middlewares/Third_Party/LwIP/src/api/api_msg.c ****     }
 1974              		.loc 1 1095 7 view .LVU622
 1975 01da 0C49     		ldr	r1, .L172+40
 1976 01dc 3046     		mov	r0, r6
 1977 01de FFF7FEFF 		bl	tcp_sent
 1978              	.LVL189:
 1979 01e2 61E7     		b	.L154
 1980              	.L173:
 1981              		.align	2
 1982              	.L172:
 1983 01e4 00000000 		.word	poll_tcp
 1984 01e8 00000000 		.word	err_tcp
 1985 01ec 00000000 		.word	.LC0
 1986 01f0 00000000 		.word	.LC16
 1987 01f4 40000000 		.word	.LC2
 1988 01f8 10000000 		.word	.LC17
 1989 01fc 30000000 		.word	.LC18
 1990 0200 54000000 		.word	.LC19
 1991 0204 10000000 		.word	.LC5
 1992 0208 68000000 		.word	.LC20
 1993 020c 00000000 		.word	sent_tcp
 1994              		.cfi_endproc
 1995              	.LFE185:
 1997              		.section	.text.poll_tcp,"ax",%progbits
 1998              		.align	1
 1999              		.syntax unified
 2000              		.thumb
 2001              		.thumb_func
ARM GAS  C:\Users\hh\AppData\Local\Temp\ccfq6ENc.s 			page 77


 2003              	poll_tcp:
 2004              	.LVL190:
 2005              	.LFB175:
 361:Middlewares/Third_Party/LwIP/src/api/api_msg.c ****   struct netconn *conn = (struct netconn *)arg;
 2006              		.loc 1 361 1 view -0
 2007              		.cfi_startproc
 2008              		@ args = 0, pretend = 0, frame = 0
 2009              		@ frame_needed = 0, uses_anonymous_args = 0
 361:Middlewares/Third_Party/LwIP/src/api/api_msg.c ****   struct netconn *conn = (struct netconn *)arg;
 2010              		.loc 1 361 1 is_stmt 0 view .LVU624
 2011 0000 10B5     		push	{r4, lr}
 2012              	.LCFI9:
 2013              		.cfi_def_cfa_offset 8
 2014              		.cfi_offset 4, -8
 2015              		.cfi_offset 14, -4
 362:Middlewares/Third_Party/LwIP/src/api/api_msg.c **** 
 2016              		.loc 1 362 3 is_stmt 1 view .LVU625
 2017              	.LVL191:
 364:Middlewares/Third_Party/LwIP/src/api/api_msg.c ****   LWIP_ASSERT("conn != NULL", (conn != NULL));
 2018              		.loc 1 364 3 view .LVU626
 365:Middlewares/Third_Party/LwIP/src/api/api_msg.c **** 
 2019              		.loc 1 365 3 view .LVU627
 365:Middlewares/Third_Party/LwIP/src/api/api_msg.c **** 
 2020              		.loc 1 365 3 view .LVU628
 2021 0002 0446     		mov	r4, r0
 2022 0004 F0B1     		cbz	r0, .L181
 2023              	.LVL192:
 2024              	.L175:
 365:Middlewares/Third_Party/LwIP/src/api/api_msg.c **** 
 2025              		.loc 1 365 3 view .LVU629
 365:Middlewares/Third_Party/LwIP/src/api/api_msg.c **** 
 2026              		.loc 1 365 3 view .LVU630
 367:Middlewares/Third_Party/LwIP/src/api/api_msg.c ****     lwip_netconn_do_writemore(conn  WRITE_DELAYED);
 2027              		.loc 1 367 3 view .LVU631
 367:Middlewares/Third_Party/LwIP/src/api/api_msg.c ****     lwip_netconn_do_writemore(conn  WRITE_DELAYED);
 2028              		.loc 1 367 11 is_stmt 0 view .LVU632
 2029 0006 6378     		ldrb	r3, [r4, #1]	@ zero_extendqisi2
 367:Middlewares/Third_Party/LwIP/src/api/api_msg.c ****     lwip_netconn_do_writemore(conn  WRITE_DELAYED);
 2030              		.loc 1 367 6 view .LVU633
 2031 0008 012B     		cmp	r3, #1
 2032 000a 23D0     		beq	.L182
 369:Middlewares/Third_Party/LwIP/src/api/api_msg.c **** #if !LWIP_SO_SNDTIMEO && !LWIP_SO_LINGER
 2033              		.loc 1 369 10 is_stmt 1 view .LVU634
 369:Middlewares/Third_Party/LwIP/src/api/api_msg.c **** #if !LWIP_SO_SNDTIMEO && !LWIP_SO_LINGER
 2034              		.loc 1 369 13 is_stmt 0 view .LVU635
 2035 000c 042B     		cmp	r3, #4
 2036 000e 26D0     		beq	.L183
 2037              	.L177:
 380:Middlewares/Third_Party/LwIP/src/api/api_msg.c ****     /* If the queued byte- or pbuf-count drops below the configured low-water limit,
 2038              		.loc 1 380 3 is_stmt 1 view .LVU636
 380:Middlewares/Third_Party/LwIP/src/api/api_msg.c ****     /* If the queued byte- or pbuf-count drops below the configured low-water limit,
 2039              		.loc 1 380 11 is_stmt 0 view .LVU637
 2040 0010 237F     		ldrb	r3, [r4, #28]	@ zero_extendqisi2
 380:Middlewares/Third_Party/LwIP/src/api/api_msg.c ****     /* If the queued byte- or pbuf-count drops below the configured low-water limit,
 2041              		.loc 1 380 6 view .LVU638
 2042 0012 13F0100F 		tst	r3, #16
 2043 0016 13D0     		beq	.L179
ARM GAS  C:\Users\hh\AppData\Local\Temp\ccfq6ENc.s 			page 78


 383:Middlewares/Third_Party/LwIP/src/api/api_msg.c ****         (tcp_sndqueuelen(conn->pcb.tcp) < TCP_SNDQUEUELOWAT)) {
 2044              		.loc 1 383 5 is_stmt 1 view .LVU639
 383:Middlewares/Third_Party/LwIP/src/api/api_msg.c ****         (tcp_sndqueuelen(conn->pcb.tcp) < TCP_SNDQUEUELOWAT)) {
 2045              		.loc 1 383 19 is_stmt 0 view .LVU640
 2046 0018 6268     		ldr	r2, [r4, #4]
 383:Middlewares/Third_Party/LwIP/src/api/api_msg.c ****         (tcp_sndqueuelen(conn->pcb.tcp) < TCP_SNDQUEUELOWAT)) {
 2047              		.loc 1 383 8 view .LVU641
 2048 001a 8AB1     		cbz	r2, .L179
 383:Middlewares/Third_Party/LwIP/src/api/api_msg.c ****         (tcp_sndqueuelen(conn->pcb.tcp) < TCP_SNDQUEUELOWAT)) {
 2049              		.loc 1 383 37 discriminator 1 view .LVU642
 2050 001c B2F86410 		ldrh	r1, [r2, #100]
 383:Middlewares/Third_Party/LwIP/src/api/api_msg.c ****         (tcp_sndqueuelen(conn->pcb.tcp) < TCP_SNDQUEUELOWAT)) {
 2051              		.loc 1 383 33 discriminator 1 view .LVU643
 2052 0020 B1F5866F 		cmp	r1, #1072
 2053 0024 0CD3     		bcc	.L179
 384:Middlewares/Third_Party/LwIP/src/api/api_msg.c ****       netconn_clear_flags(conn, NETCONN_FLAG_CHECK_WRITESPACE);
 2054              		.loc 1 384 10 view .LVU644
 2055 0026 B2F86620 		ldrh	r2, [r2, #102]
 383:Middlewares/Third_Party/LwIP/src/api/api_msg.c ****         (tcp_sndqueuelen(conn->pcb.tcp) < TCP_SNDQUEUELOWAT)) {
 2056              		.loc 1 383 79 discriminator 2 view .LVU645
 2057 002a 042A     		cmp	r2, #4
 2058 002c 08D8     		bhi	.L179
 385:Middlewares/Third_Party/LwIP/src/api/api_msg.c ****       API_EVENT(conn, NETCONN_EVT_SENDPLUS, 0);
 2059              		.loc 1 385 7 is_stmt 1 view .LVU646
 385:Middlewares/Third_Party/LwIP/src/api/api_msg.c ****       API_EVENT(conn, NETCONN_EVT_SENDPLUS, 0);
 2060              		.loc 1 385 7 view .LVU647
 2061 002e 03F0EF03 		and	r3, r3, #239
 2062 0032 2377     		strb	r3, [r4, #28]
 385:Middlewares/Third_Party/LwIP/src/api/api_msg.c ****       API_EVENT(conn, NETCONN_EVT_SENDPLUS, 0);
 2063              		.loc 1 385 7 view .LVU648
 386:Middlewares/Third_Party/LwIP/src/api/api_msg.c ****     }
 2064              		.loc 1 386 7 view .LVU649
 2065 0034 636A     		ldr	r3, [r4, #36]
 2066 0036 1BB1     		cbz	r3, .L179
 386:Middlewares/Third_Party/LwIP/src/api/api_msg.c ****     }
 2067              		.loc 1 386 7 discriminator 1 view .LVU650
 2068 0038 0022     		movs	r2, #0
 2069 003a 0221     		movs	r1, #2
 2070 003c 2046     		mov	r0, r4
 2071 003e 9847     		blx	r3
 2072              	.LVL193:
 2073              	.L179:
 386:Middlewares/Third_Party/LwIP/src/api/api_msg.c ****     }
 2074              		.loc 1 386 47 view .LVU651
 390:Middlewares/Third_Party/LwIP/src/api/api_msg.c **** }
 2075              		.loc 1 390 3 view .LVU652
 391:Middlewares/Third_Party/LwIP/src/api/api_msg.c **** 
 2076              		.loc 1 391 1 is_stmt 0 view .LVU653
 2077 0040 0020     		movs	r0, #0
 2078 0042 10BD     		pop	{r4, pc}
 2079              	.LVL194:
 2080              	.L181:
 365:Middlewares/Third_Party/LwIP/src/api/api_msg.c **** 
 2081              		.loc 1 365 3 is_stmt 1 discriminator 1 view .LVU654
 365:Middlewares/Third_Party/LwIP/src/api/api_msg.c **** 
 2082              		.loc 1 365 3 discriminator 1 view .LVU655
 2083 0044 0B4B     		ldr	r3, .L184
ARM GAS  C:\Users\hh\AppData\Local\Temp\ccfq6ENc.s 			page 79


 2084 0046 40F26D12 		movw	r2, #365
 2085 004a 0B49     		ldr	r1, .L184+4
 2086              	.LVL195:
 365:Middlewares/Third_Party/LwIP/src/api/api_msg.c **** 
 2087              		.loc 1 365 3 is_stmt 0 discriminator 1 view .LVU656
 2088 004c 0B48     		ldr	r0, .L184+8
 2089              	.LVL196:
 365:Middlewares/Third_Party/LwIP/src/api/api_msg.c **** 
 2090              		.loc 1 365 3 discriminator 1 view .LVU657
 2091 004e FFF7FEFF 		bl	printf
 2092              	.LVL197:
 2093 0052 D8E7     		b	.L175
 2094              	.L182:
 368:Middlewares/Third_Party/LwIP/src/api/api_msg.c ****   } else if (conn->state == NETCONN_CLOSE) {
 2095              		.loc 1 368 5 is_stmt 1 view .LVU658
 2096 0054 0121     		movs	r1, #1
 2097 0056 2046     		mov	r0, r4
 2098 0058 FFF7FEFF 		bl	lwip_netconn_do_writemore
 2099              	.LVL198:
 2100 005c D8E7     		b	.L177
 2101              	.L183:
 371:Middlewares/Third_Party/LwIP/src/api/api_msg.c ****       conn->current_msg->msg.sd.polls_left--;
 2102              		.loc 1 371 5 view .LVU659
 371:Middlewares/Third_Party/LwIP/src/api/api_msg.c ****       conn->current_msg->msg.sd.polls_left--;
 2103              		.loc 1 371 13 is_stmt 0 view .LVU660
 2104 005e 236A     		ldr	r3, [r4, #32]
 371:Middlewares/Third_Party/LwIP/src/api/api_msg.c ****       conn->current_msg->msg.sd.polls_left--;
 2105              		.loc 1 371 8 view .LVU661
 2106 0060 1BB1     		cbz	r3, .L178
 371:Middlewares/Third_Party/LwIP/src/api/api_msg.c ****       conn->current_msg->msg.sd.polls_left--;
 2107              		.loc 1 371 55 discriminator 1 view .LVU662
 2108 0062 5A7A     		ldrb	r2, [r3, #9]	@ zero_extendqisi2
 371:Middlewares/Third_Party/LwIP/src/api/api_msg.c ****       conn->current_msg->msg.sd.polls_left--;
 2109              		.loc 1 371 27 discriminator 1 view .LVU663
 2110 0064 0AB1     		cbz	r2, .L178
 372:Middlewares/Third_Party/LwIP/src/api/api_msg.c ****     }
 2111              		.loc 1 372 7 is_stmt 1 view .LVU664
 372:Middlewares/Third_Party/LwIP/src/api/api_msg.c ****     }
 2112              		.loc 1 372 43 is_stmt 0 view .LVU665
 2113 0066 013A     		subs	r2, r2, #1
 2114 0068 5A72     		strb	r2, [r3, #9]
 2115              	.L178:
 375:Middlewares/Third_Party/LwIP/src/api/api_msg.c ****   }
 2116              		.loc 1 375 5 is_stmt 1 view .LVU666
 2117 006a 0121     		movs	r1, #1
 2118 006c 2046     		mov	r0, r4
 2119 006e FFF7FEFF 		bl	lwip_netconn_do_close_internal
 2120              	.LVL199:
 2121 0072 CDE7     		b	.L177
 2122              	.L185:
 2123              		.align	2
 2124              	.L184:
 2125 0074 00000000 		.word	.LC0
 2126 0078 00000000 		.word	.LC4
 2127 007c 40000000 		.word	.LC2
 2128              		.cfi_endproc
 2129              	.LFE175:
ARM GAS  C:\Users\hh\AppData\Local\Temp\ccfq6ENc.s 			page 80


 2131              		.section	.text.sent_tcp,"ax",%progbits
 2132              		.align	1
 2133              		.syntax unified
 2134              		.thumb
 2135              		.thumb_func
 2137              	sent_tcp:
 2138              	.LVL200:
 2139              	.LFB176:
 402:Middlewares/Third_Party/LwIP/src/api/api_msg.c ****   struct netconn *conn = (struct netconn *)arg;
 2140              		.loc 1 402 1 view -0
 2141              		.cfi_startproc
 2142              		@ args = 0, pretend = 0, frame = 0
 2143              		@ frame_needed = 0, uses_anonymous_args = 0
 402:Middlewares/Third_Party/LwIP/src/api/api_msg.c ****   struct netconn *conn = (struct netconn *)arg;
 2144              		.loc 1 402 1 is_stmt 0 view .LVU668
 2145 0000 38B5     		push	{r3, r4, r5, lr}
 2146              	.LCFI10:
 2147              		.cfi_def_cfa_offset 16
 2148              		.cfi_offset 3, -16
 2149              		.cfi_offset 4, -12
 2150              		.cfi_offset 5, -8
 2151              		.cfi_offset 14, -4
 403:Middlewares/Third_Party/LwIP/src/api/api_msg.c **** 
 2152              		.loc 1 403 3 is_stmt 1 view .LVU669
 2153              	.LVL201:
 405:Middlewares/Third_Party/LwIP/src/api/api_msg.c ****   LWIP_ASSERT("conn != NULL", (conn != NULL));
 2154              		.loc 1 405 3 view .LVU670
 406:Middlewares/Third_Party/LwIP/src/api/api_msg.c **** 
 2155              		.loc 1 406 3 view .LVU671
 406:Middlewares/Third_Party/LwIP/src/api/api_msg.c **** 
 2156              		.loc 1 406 3 view .LVU672
 2157 0002 E0B1     		cbz	r0, .L187
 2158 0004 1546     		mov	r5, r2
 2159 0006 0446     		mov	r4, r0
 406:Middlewares/Third_Party/LwIP/src/api/api_msg.c **** 
 2160              		.loc 1 406 3 view .LVU673
 406:Middlewares/Third_Party/LwIP/src/api/api_msg.c **** 
 2161              		.loc 1 406 3 view .LVU674
 408:Middlewares/Third_Party/LwIP/src/api/api_msg.c ****     if (conn->state == NETCONN_WRITE) {
 2162              		.loc 1 408 3 view .LVU675
 409:Middlewares/Third_Party/LwIP/src/api/api_msg.c ****       lwip_netconn_do_writemore(conn  WRITE_DELAYED);
 2163              		.loc 1 409 5 view .LVU676
 409:Middlewares/Third_Party/LwIP/src/api/api_msg.c ****       lwip_netconn_do_writemore(conn  WRITE_DELAYED);
 2164              		.loc 1 409 13 is_stmt 0 view .LVU677
 2165 0008 4378     		ldrb	r3, [r0, #1]	@ zero_extendqisi2
 409:Middlewares/Third_Party/LwIP/src/api/api_msg.c ****       lwip_netconn_do_writemore(conn  WRITE_DELAYED);
 2166              		.loc 1 409 8 view .LVU678
 2167 000a 012B     		cmp	r3, #1
 2168 000c 20D0     		beq	.L194
 411:Middlewares/Third_Party/LwIP/src/api/api_msg.c ****       lwip_netconn_do_close_internal(conn  WRITE_DELAYED);
 2169              		.loc 1 411 12 is_stmt 1 view .LVU679
 411:Middlewares/Third_Party/LwIP/src/api/api_msg.c ****       lwip_netconn_do_close_internal(conn  WRITE_DELAYED);
 2170              		.loc 1 411 15 is_stmt 0 view .LVU680
 2171 000e 042B     		cmp	r3, #4
 2172 0010 22D0     		beq	.L195
 2173              	.LVL202:
 2174              	.L191:
ARM GAS  C:\Users\hh\AppData\Local\Temp\ccfq6ENc.s 			page 81


 417:Middlewares/Third_Party/LwIP/src/api/api_msg.c ****         (tcp_sndqueuelen(conn->pcb.tcp) < TCP_SNDQUEUELOWAT)) {
 2175              		.loc 1 417 5 is_stmt 1 view .LVU681
 417:Middlewares/Third_Party/LwIP/src/api/api_msg.c ****         (tcp_sndqueuelen(conn->pcb.tcp) < TCP_SNDQUEUELOWAT)) {
 2176              		.loc 1 417 19 is_stmt 0 view .LVU682
 2177 0012 6368     		ldr	r3, [r4, #4]
 417:Middlewares/Third_Party/LwIP/src/api/api_msg.c ****         (tcp_sndqueuelen(conn->pcb.tcp) < TCP_SNDQUEUELOWAT)) {
 2178              		.loc 1 417 8 view .LVU683
 2179 0014 D3B1     		cbz	r3, .L190
 417:Middlewares/Third_Party/LwIP/src/api/api_msg.c ****         (tcp_sndqueuelen(conn->pcb.tcp) < TCP_SNDQUEUELOWAT)) {
 2180              		.loc 1 417 37 discriminator 1 view .LVU684
 2181 0016 B3F86420 		ldrh	r2, [r3, #100]
 417:Middlewares/Third_Party/LwIP/src/api/api_msg.c ****         (tcp_sndqueuelen(conn->pcb.tcp) < TCP_SNDQUEUELOWAT)) {
 2182              		.loc 1 417 33 discriminator 1 view .LVU685
 2183 001a B2F5866F 		cmp	r2, #1072
 2184 001e 15D3     		bcc	.L190
 418:Middlewares/Third_Party/LwIP/src/api/api_msg.c ****       netconn_clear_flags(conn, NETCONN_FLAG_CHECK_WRITESPACE);
 2185              		.loc 1 418 10 view .LVU686
 2186 0020 B3F86630 		ldrh	r3, [r3, #102]
 417:Middlewares/Third_Party/LwIP/src/api/api_msg.c ****         (tcp_sndqueuelen(conn->pcb.tcp) < TCP_SNDQUEUELOWAT)) {
 2187              		.loc 1 417 79 discriminator 2 view .LVU687
 2188 0024 042B     		cmp	r3, #4
 2189 0026 11D8     		bhi	.L190
 419:Middlewares/Third_Party/LwIP/src/api/api_msg.c ****       API_EVENT(conn, NETCONN_EVT_SENDPLUS, len);
 2190              		.loc 1 419 7 is_stmt 1 view .LVU688
 419:Middlewares/Third_Party/LwIP/src/api/api_msg.c ****       API_EVENT(conn, NETCONN_EVT_SENDPLUS, len);
 2191              		.loc 1 419 7 view .LVU689
 2192 0028 237F     		ldrb	r3, [r4, #28]	@ zero_extendqisi2
 2193 002a 03F0EF03 		and	r3, r3, #239
 2194 002e 2377     		strb	r3, [r4, #28]
 419:Middlewares/Third_Party/LwIP/src/api/api_msg.c ****       API_EVENT(conn, NETCONN_EVT_SENDPLUS, len);
 2195              		.loc 1 419 7 view .LVU690
 420:Middlewares/Third_Party/LwIP/src/api/api_msg.c ****     }
 2196              		.loc 1 420 7 view .LVU691
 2197 0030 636A     		ldr	r3, [r4, #36]
 2198 0032 5BB1     		cbz	r3, .L190
 420:Middlewares/Third_Party/LwIP/src/api/api_msg.c ****     }
 2199              		.loc 1 420 7 discriminator 1 view .LVU692
 2200 0034 2A46     		mov	r2, r5
 2201 0036 0221     		movs	r1, #2
 2202 0038 2046     		mov	r0, r4
 2203 003a 9847     		blx	r3
 2204              	.LVL203:
 2205 003c 06E0     		b	.L190
 2206              	.LVL204:
 2207              	.L187:
 406:Middlewares/Third_Party/LwIP/src/api/api_msg.c **** 
 2208              		.loc 1 406 3 discriminator 1 view .LVU693
 406:Middlewares/Third_Party/LwIP/src/api/api_msg.c **** 
 2209              		.loc 1 406 3 discriminator 1 view .LVU694
 2210 003e 084B     		ldr	r3, .L196
 2211 0040 4FF4CB72 		mov	r2, #406
 2212              	.LVL205:
 406:Middlewares/Third_Party/LwIP/src/api/api_msg.c **** 
 2213              		.loc 1 406 3 is_stmt 0 discriminator 1 view .LVU695
 2214 0044 0749     		ldr	r1, .L196+4
 2215              	.LVL206:
 406:Middlewares/Third_Party/LwIP/src/api/api_msg.c **** 
ARM GAS  C:\Users\hh\AppData\Local\Temp\ccfq6ENc.s 			page 82


 2216              		.loc 1 406 3 discriminator 1 view .LVU696
 2217 0046 0848     		ldr	r0, .L196+8
 2218              	.LVL207:
 406:Middlewares/Third_Party/LwIP/src/api/api_msg.c **** 
 2219              		.loc 1 406 3 discriminator 1 view .LVU697
 2220 0048 FFF7FEFF 		bl	printf
 2221              	.LVL208:
 406:Middlewares/Third_Party/LwIP/src/api/api_msg.c **** 
 2222              		.loc 1 406 3 is_stmt 1 view .LVU698
 406:Middlewares/Third_Party/LwIP/src/api/api_msg.c **** 
 2223              		.loc 1 406 3 view .LVU699
 408:Middlewares/Third_Party/LwIP/src/api/api_msg.c ****     if (conn->state == NETCONN_WRITE) {
 2224              		.loc 1 408 3 view .LVU700
 2225              	.L190:
 420:Middlewares/Third_Party/LwIP/src/api/api_msg.c ****     }
 2226              		.loc 1 420 49 view .LVU701
 424:Middlewares/Third_Party/LwIP/src/api/api_msg.c **** }
 2227              		.loc 1 424 3 view .LVU702
 425:Middlewares/Third_Party/LwIP/src/api/api_msg.c **** 
 2228              		.loc 1 425 1 is_stmt 0 view .LVU703
 2229 004c 0020     		movs	r0, #0
 2230 004e 38BD     		pop	{r3, r4, r5, pc}
 2231              	.LVL209:
 2232              	.L194:
 410:Middlewares/Third_Party/LwIP/src/api/api_msg.c ****     } else if (conn->state == NETCONN_CLOSE) {
 2233              		.loc 1 410 7 is_stmt 1 view .LVU704
 2234 0050 0121     		movs	r1, #1
 2235              	.LVL210:
 410:Middlewares/Third_Party/LwIP/src/api/api_msg.c ****     } else if (conn->state == NETCONN_CLOSE) {
 2236              		.loc 1 410 7 is_stmt 0 view .LVU705
 2237 0052 FFF7FEFF 		bl	lwip_netconn_do_writemore
 2238              	.LVL211:
 410:Middlewares/Third_Party/LwIP/src/api/api_msg.c ****     } else if (conn->state == NETCONN_CLOSE) {
 2239              		.loc 1 410 7 view .LVU706
 2240 0056 DCE7     		b	.L191
 2241              	.LVL212:
 2242              	.L195:
 412:Middlewares/Third_Party/LwIP/src/api/api_msg.c ****     }
 2243              		.loc 1 412 7 is_stmt 1 view .LVU707
 2244 0058 0121     		movs	r1, #1
 2245              	.LVL213:
 412:Middlewares/Third_Party/LwIP/src/api/api_msg.c ****     }
 2246              		.loc 1 412 7 is_stmt 0 view .LVU708
 2247 005a FFF7FEFF 		bl	lwip_netconn_do_close_internal
 2248              	.LVL214:
 412:Middlewares/Third_Party/LwIP/src/api/api_msg.c ****     }
 2249              		.loc 1 412 7 view .LVU709
 2250 005e D8E7     		b	.L191
 2251              	.L197:
 2252              		.align	2
 2253              	.L196:
 2254 0060 00000000 		.word	.LC0
 2255 0064 00000000 		.word	.LC4
 2256 0068 40000000 		.word	.LC2
 2257              		.cfi_endproc
 2258              	.LFE176:
 2260              		.section	.rodata.recv_tcp.str1.4,"aMS",%progbits,1
ARM GAS  C:\Users\hh\AppData\Local\Temp\ccfq6ENc.s 			page 83


 2261              		.align	2
 2262              	.LC21:
 2263 0000 72656376 		.ascii	"recv_tcp must have a pcb argument\000"
 2263      5F746370 
 2263      206D7573 
 2263      74206861 
 2263      76652061 
 2264 0022 0000     		.align	2
 2265              	.LC22:
 2266 0024 72656376 		.ascii	"recv_tcp must have an argument\000"
 2266      5F746370 
 2266      206D7573 
 2266      74206861 
 2266      76652061 
 2267 0043 00       		.align	2
 2268              	.LC23:
 2269 0044 65727220 		.ascii	"err != ERR_OK unhandled\000"
 2269      213D2045 
 2269      52525F4F 
 2269      4B20756E 
 2269      68616E64 
 2270              		.align	2
 2271              	.LC24:
 2272 005c 72656376 		.ascii	"recv_tcp: recv for wrong pcb!\000"
 2272      5F746370 
 2272      3A207265 
 2272      63762066 
 2272      6F722077 
 2273              		.section	.text.recv_tcp,"ax",%progbits
 2274              		.align	1
 2275              		.syntax unified
 2276              		.thumb
 2277              		.thumb_func
 2279              	recv_tcp:
 2280              	.LVL215:
 2281              	.LFB174:
 297:Middlewares/Third_Party/LwIP/src/api/api_msg.c ****   struct netconn *conn;
 2282              		.loc 1 297 1 is_stmt 1 view -0
 2283              		.cfi_startproc
 2284              		@ args = 0, pretend = 0, frame = 0
 2285              		@ frame_needed = 0, uses_anonymous_args = 0
 297:Middlewares/Third_Party/LwIP/src/api/api_msg.c ****   struct netconn *conn;
 2286              		.loc 1 297 1 is_stmt 0 view .LVU711
 2287 0000 F8B5     		push	{r3, r4, r5, r6, r7, lr}
 2288              	.LCFI11:
 2289              		.cfi_def_cfa_offset 24
 2290              		.cfi_offset 3, -24
 2291              		.cfi_offset 4, -20
 2292              		.cfi_offset 5, -16
 2293              		.cfi_offset 6, -12
 2294              		.cfi_offset 7, -8
 2295              		.cfi_offset 14, -4
 2296 0002 0446     		mov	r4, r0
 2297 0004 1546     		mov	r5, r2
 2298 0006 1E46     		mov	r6, r3
 298:Middlewares/Third_Party/LwIP/src/api/api_msg.c ****   u16_t len;
 2299              		.loc 1 298 3 is_stmt 1 view .LVU712
ARM GAS  C:\Users\hh\AppData\Local\Temp\ccfq6ENc.s 			page 84


 299:Middlewares/Third_Party/LwIP/src/api/api_msg.c ****   void *msg;
 2300              		.loc 1 299 3 view .LVU713
 300:Middlewares/Third_Party/LwIP/src/api/api_msg.c **** 
 2301              		.loc 1 300 3 view .LVU714
 302:Middlewares/Third_Party/LwIP/src/api/api_msg.c ****   LWIP_ASSERT("recv_tcp must have a pcb argument", pcb != NULL);
 2302              		.loc 1 302 3 view .LVU715
 303:Middlewares/Third_Party/LwIP/src/api/api_msg.c ****   LWIP_ASSERT("recv_tcp must have an argument", arg != NULL);
 2303              		.loc 1 303 3 view .LVU716
 303:Middlewares/Third_Party/LwIP/src/api/api_msg.c ****   LWIP_ASSERT("recv_tcp must have an argument", arg != NULL);
 2304              		.loc 1 303 3 view .LVU717
 2305 0008 0F46     		mov	r7, r1
 2306 000a 29B3     		cbz	r1, .L211
 2307              	.LVL216:
 2308              	.L199:
 303:Middlewares/Third_Party/LwIP/src/api/api_msg.c ****   LWIP_ASSERT("recv_tcp must have an argument", arg != NULL);
 2309              		.loc 1 303 3 view .LVU718
 303:Middlewares/Third_Party/LwIP/src/api/api_msg.c ****   LWIP_ASSERT("recv_tcp must have an argument", arg != NULL);
 2310              		.loc 1 303 3 view .LVU719
 304:Middlewares/Third_Party/LwIP/src/api/api_msg.c ****   LWIP_ASSERT("err != ERR_OK unhandled", err == ERR_OK);
 2311              		.loc 1 304 3 view .LVU720
 304:Middlewares/Third_Party/LwIP/src/api/api_msg.c ****   LWIP_ASSERT("err != ERR_OK unhandled", err == ERR_OK);
 2312              		.loc 1 304 3 view .LVU721
 2313 000c 64B3     		cbz	r4, .L212
 2314              	.L200:
 304:Middlewares/Third_Party/LwIP/src/api/api_msg.c ****   LWIP_ASSERT("err != ERR_OK unhandled", err == ERR_OK);
 2315              		.loc 1 304 3 view .LVU722
 304:Middlewares/Third_Party/LwIP/src/api/api_msg.c ****   LWIP_ASSERT("err != ERR_OK unhandled", err == ERR_OK);
 2316              		.loc 1 304 3 view .LVU723
 305:Middlewares/Third_Party/LwIP/src/api/api_msg.c ****   LWIP_UNUSED_ARG(err); /* for LWIP_NOASSERT */
 2317              		.loc 1 305 3 view .LVU724
 305:Middlewares/Third_Party/LwIP/src/api/api_msg.c ****   LWIP_UNUSED_ARG(err); /* for LWIP_NOASSERT */
 2318              		.loc 1 305 3 view .LVU725
 2319 000e 002E     		cmp	r6, #0
 2320 0010 32D1     		bne	.L213
 2321              	.L201:
 305:Middlewares/Third_Party/LwIP/src/api/api_msg.c ****   LWIP_UNUSED_ARG(err); /* for LWIP_NOASSERT */
 2322              		.loc 1 305 3 view .LVU726
 305:Middlewares/Third_Party/LwIP/src/api/api_msg.c ****   LWIP_UNUSED_ARG(err); /* for LWIP_NOASSERT */
 2323              		.loc 1 305 3 view .LVU727
 306:Middlewares/Third_Party/LwIP/src/api/api_msg.c ****   conn = (struct netconn *)arg;
 2324              		.loc 1 306 3 view .LVU728
 307:Middlewares/Third_Party/LwIP/src/api/api_msg.c **** 
 2325              		.loc 1 307 3 view .LVU729
 2326              	.LVL217:
 309:Middlewares/Third_Party/LwIP/src/api/api_msg.c ****     return ERR_VAL;
 2327              		.loc 1 309 3 view .LVU730
 309:Middlewares/Third_Party/LwIP/src/api/api_msg.c ****     return ERR_VAL;
 2328              		.loc 1 309 6 is_stmt 0 view .LVU731
 2329 0012 002C     		cmp	r4, #0
 2330 0014 46D0     		beq	.L207
 312:Middlewares/Third_Party/LwIP/src/api/api_msg.c **** 
 2331              		.loc 1 312 3 is_stmt 1 view .LVU732
 312:Middlewares/Third_Party/LwIP/src/api/api_msg.c **** 
 2332              		.loc 1 312 3 view .LVU733
 2333 0016 6368     		ldr	r3, [r4, #4]
 2334 0018 BB42     		cmp	r3, r7
 2335 001a 06D0     		beq	.L203
ARM GAS  C:\Users\hh\AppData\Local\Temp\ccfq6ENc.s 			page 85


 312:Middlewares/Third_Party/LwIP/src/api/api_msg.c **** 
 2336              		.loc 1 312 3 discriminator 1 view .LVU734
 312:Middlewares/Third_Party/LwIP/src/api/api_msg.c **** 
 2337              		.loc 1 312 3 discriminator 1 view .LVU735
 2338 001c 244B     		ldr	r3, .L215
 2339 001e 4FF49C72 		mov	r2, #312
 2340 0022 2449     		ldr	r1, .L215+4
 2341 0024 2448     		ldr	r0, .L215+8
 2342 0026 FFF7FEFF 		bl	printf
 2343              	.LVL218:
 2344              	.L203:
 312:Middlewares/Third_Party/LwIP/src/api/api_msg.c **** 
 2345              		.loc 1 312 3 view .LVU736
 312:Middlewares/Third_Party/LwIP/src/api/api_msg.c **** 
 2346              		.loc 1 312 3 view .LVU737
 314:Middlewares/Third_Party/LwIP/src/api/api_msg.c ****     /* recvmbox already deleted */
 2347              		.loc 1 314 3 view .LVU738
 314:Middlewares/Third_Party/LwIP/src/api/api_msg.c ****     /* recvmbox already deleted */
 2348              		.loc 1 314 8 is_stmt 0 view .LVU739
 2349 002a 04F11006 		add	r6, r4, #16
 2350              	.LVL219:
 314:Middlewares/Third_Party/LwIP/src/api/api_msg.c ****     /* recvmbox already deleted */
 2351              		.loc 1 314 8 view .LVU740
 2352 002e 3046     		mov	r0, r6
 2353 0030 FFF7FEFF 		bl	sys_mbox_valid
 2354              	.LVL220:
 314:Middlewares/Third_Party/LwIP/src/api/api_msg.c ****     /* recvmbox already deleted */
 2355              		.loc 1 314 6 discriminator 1 view .LVU741
 2356 0034 40B3     		cbz	r0, .L214
 326:Middlewares/Third_Party/LwIP/src/api/api_msg.c ****     msg = p;
 2357              		.loc 1 326 3 is_stmt 1 view .LVU742
 326:Middlewares/Third_Party/LwIP/src/api/api_msg.c ****     msg = p;
 2358              		.loc 1 326 6 is_stmt 0 view .LVU743
 2359 0036 8DB3     		cbz	r5, .L208
 327:Middlewares/Third_Party/LwIP/src/api/api_msg.c ****     len = p->tot_len;
 2360              		.loc 1 327 5 is_stmt 1 view .LVU744
 2361              	.LVL221:
 328:Middlewares/Third_Party/LwIP/src/api/api_msg.c ****   } else {
 2362              		.loc 1 328 5 view .LVU745
 328:Middlewares/Third_Party/LwIP/src/api/api_msg.c ****   } else {
 2363              		.loc 1 328 9 is_stmt 0 view .LVU746
 2364 0038 2B89     		ldrh	r3, [r5, #8]
 2365 003a 1F46     		mov	r7, r3
 2366              	.LVL222:
 2367              	.L206:
 334:Middlewares/Third_Party/LwIP/src/api/api_msg.c ****     /* don't deallocate p: it is presented to us later again from tcp_fasttmr! */
 2368              		.loc 1 334 3 is_stmt 1 view .LVU747
 334:Middlewares/Third_Party/LwIP/src/api/api_msg.c ****     /* don't deallocate p: it is presented to us later again from tcp_fasttmr! */
 2369              		.loc 1 334 7 is_stmt 0 view .LVU748
 2370 003c 2946     		mov	r1, r5
 2371 003e 3046     		mov	r0, r6
 2372 0040 FFF7FEFF 		bl	sys_mbox_trypost
 2373              	.LVL223:
 334:Middlewares/Third_Party/LwIP/src/api/api_msg.c ****     /* don't deallocate p: it is presented to us later again from tcp_fasttmr! */
 2374              		.loc 1 334 6 discriminator 1 view .LVU749
 2375 0044 0546     		mov	r5, r0
 2376              	.LVL224:
ARM GAS  C:\Users\hh\AppData\Local\Temp\ccfq6ENc.s 			page 86


 334:Middlewares/Third_Party/LwIP/src/api/api_msg.c ****     /* don't deallocate p: it is presented to us later again from tcp_fasttmr! */
 2377              		.loc 1 334 6 discriminator 1 view .LVU750
 2378 0046 80BB     		cbnz	r0, .L209
 342:Middlewares/Third_Party/LwIP/src/api/api_msg.c ****   }
 2379              		.loc 1 342 5 is_stmt 1 view .LVU751
 2380 0048 636A     		ldr	r3, [r4, #36]
 2381 004a 1BB1     		cbz	r3, .L202
 342:Middlewares/Third_Party/LwIP/src/api/api_msg.c ****   }
 2382              		.loc 1 342 5 discriminator 1 view .LVU752
 2383 004c 3A46     		mov	r2, r7
 2384 004e 0146     		mov	r1, r0
 2385 0050 2046     		mov	r0, r4
 2386 0052 9847     		blx	r3
 2387              	.LVL225:
 2388              	.L202:
 346:Middlewares/Third_Party/LwIP/src/api/api_msg.c **** 
 2389              		.loc 1 346 1 is_stmt 0 view .LVU753
 2390 0054 2846     		mov	r0, r5
 2391 0056 F8BD     		pop	{r3, r4, r5, r6, r7, pc}
 2392              	.LVL226:
 2393              	.L211:
 303:Middlewares/Third_Party/LwIP/src/api/api_msg.c ****   LWIP_ASSERT("recv_tcp must have an argument", arg != NULL);
 2394              		.loc 1 303 3 is_stmt 1 discriminator 1 view .LVU754
 303:Middlewares/Third_Party/LwIP/src/api/api_msg.c ****   LWIP_ASSERT("recv_tcp must have an argument", arg != NULL);
 2395              		.loc 1 303 3 discriminator 1 view .LVU755
 2396 0058 154B     		ldr	r3, .L215
 2397              	.LVL227:
 303:Middlewares/Third_Party/LwIP/src/api/api_msg.c ****   LWIP_ASSERT("recv_tcp must have an argument", arg != NULL);
 2398              		.loc 1 303 3 is_stmt 0 discriminator 1 view .LVU756
 2399 005a 40F22F12 		movw	r2, #303
 2400              	.LVL228:
 303:Middlewares/Third_Party/LwIP/src/api/api_msg.c ****   LWIP_ASSERT("recv_tcp must have an argument", arg != NULL);
 2401              		.loc 1 303 3 discriminator 1 view .LVU757
 2402 005e 1749     		ldr	r1, .L215+12
 2403              	.LVL229:
 303:Middlewares/Third_Party/LwIP/src/api/api_msg.c ****   LWIP_ASSERT("recv_tcp must have an argument", arg != NULL);
 2404              		.loc 1 303 3 discriminator 1 view .LVU758
 2405 0060 1548     		ldr	r0, .L215+8
 2406              	.LVL230:
 303:Middlewares/Third_Party/LwIP/src/api/api_msg.c ****   LWIP_ASSERT("recv_tcp must have an argument", arg != NULL);
 2407              		.loc 1 303 3 discriminator 1 view .LVU759
 2408 0062 FFF7FEFF 		bl	printf
 2409              	.LVL231:
 2410 0066 D1E7     		b	.L199
 2411              	.L212:
 304:Middlewares/Third_Party/LwIP/src/api/api_msg.c ****   LWIP_ASSERT("err != ERR_OK unhandled", err == ERR_OK);
 2412              		.loc 1 304 3 is_stmt 1 discriminator 1 view .LVU760
 304:Middlewares/Third_Party/LwIP/src/api/api_msg.c ****   LWIP_ASSERT("err != ERR_OK unhandled", err == ERR_OK);
 2413              		.loc 1 304 3 discriminator 1 view .LVU761
 2414 0068 114B     		ldr	r3, .L215
 2415 006a 4FF49872 		mov	r2, #304
 2416 006e 1449     		ldr	r1, .L215+16
 2417 0070 1148     		ldr	r0, .L215+8
 2418 0072 FFF7FEFF 		bl	printf
 2419              	.LVL232:
 2420 0076 CAE7     		b	.L200
 2421              	.L213:
ARM GAS  C:\Users\hh\AppData\Local\Temp\ccfq6ENc.s 			page 87


 305:Middlewares/Third_Party/LwIP/src/api/api_msg.c ****   LWIP_UNUSED_ARG(err); /* for LWIP_NOASSERT */
 2422              		.loc 1 305 3 discriminator 1 view .LVU762
 305:Middlewares/Third_Party/LwIP/src/api/api_msg.c ****   LWIP_UNUSED_ARG(err); /* for LWIP_NOASSERT */
 2423              		.loc 1 305 3 discriminator 1 view .LVU763
 2424 0078 0D4B     		ldr	r3, .L215
 2425 007a 40F23112 		movw	r2, #305
 2426 007e 1149     		ldr	r1, .L215+20
 2427 0080 0D48     		ldr	r0, .L215+8
 2428 0082 FFF7FEFF 		bl	printf
 2429              	.LVL233:
 2430 0086 C4E7     		b	.L201
 2431              	.LVL234:
 2432              	.L214:
 316:Middlewares/Third_Party/LwIP/src/api/api_msg.c ****       tcp_recved(pcb, p->tot_len);
 2433              		.loc 1 316 5 view .LVU764
 316:Middlewares/Third_Party/LwIP/src/api/api_msg.c ****       tcp_recved(pcb, p->tot_len);
 2434              		.loc 1 316 8 is_stmt 0 view .LVU765
 2435 0088 35B1     		cbz	r5, .L205
 317:Middlewares/Third_Party/LwIP/src/api/api_msg.c ****       pbuf_free(p);
 2436              		.loc 1 317 7 is_stmt 1 view .LVU766
 2437 008a 2989     		ldrh	r1, [r5, #8]
 2438 008c 3846     		mov	r0, r7
 2439 008e FFF7FEFF 		bl	tcp_recved
 2440              	.LVL235:
 318:Middlewares/Third_Party/LwIP/src/api/api_msg.c ****     }
 2441              		.loc 1 318 7 view .LVU767
 2442 0092 2846     		mov	r0, r5
 2443 0094 FFF7FEFF 		bl	pbuf_free
 2444              	.LVL236:
 2445              	.L205:
 320:Middlewares/Third_Party/LwIP/src/api/api_msg.c ****   }
 2446              		.loc 1 320 5 view .LVU768
 320:Middlewares/Third_Party/LwIP/src/api/api_msg.c ****   }
 2447              		.loc 1 320 12 is_stmt 0 view .LVU769
 2448 0098 0025     		movs	r5, #0
 2449              	.LVL237:
 320:Middlewares/Third_Party/LwIP/src/api/api_msg.c ****   }
 2450              		.loc 1 320 12 view .LVU770
 2451 009a DBE7     		b	.L202
 2452              	.LVL238:
 2453              	.L208:
 330:Middlewares/Third_Party/LwIP/src/api/api_msg.c ****     len = 0;
 2454              		.loc 1 330 9 view .LVU771
 2455 009c 0A4D     		ldr	r5, .L215+24
 2456              	.LVL239:
 331:Middlewares/Third_Party/LwIP/src/api/api_msg.c ****   }
 2457              		.loc 1 331 9 view .LVU772
 2458 009e 0023     		movs	r3, #0
 2459 00a0 1F46     		mov	r7, r3
 2460              	.LVL240:
 331:Middlewares/Third_Party/LwIP/src/api/api_msg.c ****   }
 2461              		.loc 1 331 9 view .LVU773
 2462 00a2 CBE7     		b	.L206
 2463              	.LVL241:
 2464              	.L207:
 310:Middlewares/Third_Party/LwIP/src/api/api_msg.c ****   }
 2465              		.loc 1 310 12 view .LVU774
ARM GAS  C:\Users\hh\AppData\Local\Temp\ccfq6ENc.s 			page 88


 2466 00a4 6FF00505 		mvn	r5, #5
 2467              	.LVL242:
 310:Middlewares/Third_Party/LwIP/src/api/api_msg.c ****   }
 2468              		.loc 1 310 12 view .LVU775
 2469 00a8 D4E7     		b	.L202
 2470              	.LVL243:
 2471              	.L209:
 336:Middlewares/Third_Party/LwIP/src/api/api_msg.c ****   } else {
 2472              		.loc 1 336 12 view .LVU776
 2473 00aa 4FF0FF35 		mov	r5, #-1
 2474 00ae D1E7     		b	.L202
 2475              	.L216:
 2476              		.align	2
 2477              	.L215:
 2478 00b0 00000000 		.word	.LC0
 2479 00b4 5C000000 		.word	.LC24
 2480 00b8 40000000 		.word	.LC2
 2481 00bc 00000000 		.word	.LC21
 2482 00c0 24000000 		.word	.LC22
 2483 00c4 44000000 		.word	.LC23
 2484 00c8 00000000 		.word	netconn_closed
 2485              		.cfi_endproc
 2486              	.LFE174:
 2488              		.section	.rodata.lwip_netconn_is_err_msg.str1.4,"aMS",%progbits,1
 2489              		.align	2
 2490              	.LC25:
 2491 0000 65727220 		.ascii	"err != NULL\000"
 2491      213D204E 
 2491      554C4C00 
 2492              		.section	.text.lwip_netconn_is_err_msg,"ax",%progbits
 2493              		.align	1
 2494              		.global	lwip_netconn_is_err_msg
 2495              		.syntax unified
 2496              		.thumb
 2497              		.thumb_func
 2499              	lwip_netconn_is_err_msg:
 2500              	.LVL244:
 2501              	.LFB173:
 132:Middlewares/Third_Party/LwIP/src/api/api_msg.c ****   LWIP_ASSERT("err != NULL", err != NULL);
 2502              		.loc 1 132 1 is_stmt 1 view -0
 2503              		.cfi_startproc
 2504              		@ args = 0, pretend = 0, frame = 0
 2505              		@ frame_needed = 0, uses_anonymous_args = 0
 132:Middlewares/Third_Party/LwIP/src/api/api_msg.c ****   LWIP_ASSERT("err != NULL", err != NULL);
 2506              		.loc 1 132 1 is_stmt 0 view .LVU778
 2507 0000 38B5     		push	{r3, r4, r5, lr}
 2508              	.LCFI12:
 2509              		.cfi_def_cfa_offset 16
 2510              		.cfi_offset 3, -16
 2511              		.cfi_offset 4, -12
 2512              		.cfi_offset 5, -8
 2513              		.cfi_offset 14, -4
 2514 0002 0446     		mov	r4, r0
 133:Middlewares/Third_Party/LwIP/src/api/api_msg.c **** 
 2515              		.loc 1 133 3 is_stmt 1 view .LVU779
 133:Middlewares/Third_Party/LwIP/src/api/api_msg.c **** 
 2516              		.loc 1 133 3 view .LVU780
ARM GAS  C:\Users\hh\AppData\Local\Temp\ccfq6ENc.s 			page 89


 2517 0004 0D46     		mov	r5, r1
 2518 0006 51B1     		cbz	r1, .L224
 2519              	.LVL245:
 2520              	.L218:
 133:Middlewares/Third_Party/LwIP/src/api/api_msg.c **** 
 2521              		.loc 1 133 3 view .LVU781
 133:Middlewares/Third_Party/LwIP/src/api/api_msg.c **** 
 2522              		.loc 1 133 3 view .LVU782
 135:Middlewares/Third_Party/LwIP/src/api/api_msg.c ****     *err = ERR_ABRT;
 2523              		.loc 1 135 3 view .LVU783
 135:Middlewares/Third_Party/LwIP/src/api/api_msg.c ****     *err = ERR_ABRT;
 2524              		.loc 1 135 6 is_stmt 0 view .LVU784
 2525 0008 0E4B     		ldr	r3, .L228
 2526 000a 9C42     		cmp	r4, r3
 2527 000c 0ED0     		beq	.L225
 138:Middlewares/Third_Party/LwIP/src/api/api_msg.c ****     *err = ERR_RST;
 2528              		.loc 1 138 10 is_stmt 1 view .LVU785
 138:Middlewares/Third_Party/LwIP/src/api/api_msg.c ****     *err = ERR_RST;
 2529              		.loc 1 138 13 is_stmt 0 view .LVU786
 2530 000e 0E4B     		ldr	r3, .L228+4
 2531 0010 9C42     		cmp	r4, r3
 2532 0012 0FD0     		beq	.L226
 141:Middlewares/Third_Party/LwIP/src/api/api_msg.c ****     *err = ERR_CLSD;
 2533              		.loc 1 141 10 is_stmt 1 view .LVU787
 141:Middlewares/Third_Party/LwIP/src/api/api_msg.c ****     *err = ERR_CLSD;
 2534              		.loc 1 141 13 is_stmt 0 view .LVU788
 2535 0014 0D4B     		ldr	r3, .L228+8
 2536 0016 9C42     		cmp	r4, r3
 2537 0018 10D0     		beq	.L227
 145:Middlewares/Third_Party/LwIP/src/api/api_msg.c **** }
 2538              		.loc 1 145 10 view .LVU789
 2539 001a 0020     		movs	r0, #0
 2540              	.L217:
 146:Middlewares/Third_Party/LwIP/src/api/api_msg.c **** #endif /* LWIP_TCP */
 2541              		.loc 1 146 1 view .LVU790
 2542 001c 38BD     		pop	{r3, r4, r5, pc}
 2543              	.LVL246:
 2544              	.L224:
 133:Middlewares/Third_Party/LwIP/src/api/api_msg.c **** 
 2545              		.loc 1 133 3 is_stmt 1 discriminator 1 view .LVU791
 133:Middlewares/Third_Party/LwIP/src/api/api_msg.c **** 
 2546              		.loc 1 133 3 discriminator 1 view .LVU792
 2547 001e 0C4B     		ldr	r3, .L228+12
 2548 0020 8522     		movs	r2, #133
 2549 0022 0C49     		ldr	r1, .L228+16
 2550              	.LVL247:
 133:Middlewares/Third_Party/LwIP/src/api/api_msg.c **** 
 2551              		.loc 1 133 3 is_stmt 0 discriminator 1 view .LVU793
 2552 0024 0C48     		ldr	r0, .L228+20
 2553              	.LVL248:
 133:Middlewares/Third_Party/LwIP/src/api/api_msg.c **** 
 2554              		.loc 1 133 3 discriminator 1 view .LVU794
 2555 0026 FFF7FEFF 		bl	printf
 2556              	.LVL249:
 2557 002a EDE7     		b	.L218
 2558              	.L225:
 136:Middlewares/Third_Party/LwIP/src/api/api_msg.c ****     return 1;
ARM GAS  C:\Users\hh\AppData\Local\Temp\ccfq6ENc.s 			page 90


 2559              		.loc 1 136 5 is_stmt 1 view .LVU795
 136:Middlewares/Third_Party/LwIP/src/api/api_msg.c ****     return 1;
 2560              		.loc 1 136 10 is_stmt 0 view .LVU796
 2561 002c F323     		movs	r3, #243
 2562 002e 2B70     		strb	r3, [r5]
 137:Middlewares/Third_Party/LwIP/src/api/api_msg.c ****   } else if (msg == &netconn_reset) {
 2563              		.loc 1 137 5 is_stmt 1 view .LVU797
 137:Middlewares/Third_Party/LwIP/src/api/api_msg.c ****   } else if (msg == &netconn_reset) {
 2564              		.loc 1 137 12 is_stmt 0 view .LVU798
 2565 0030 0120     		movs	r0, #1
 2566 0032 F3E7     		b	.L217
 2567              	.L226:
 139:Middlewares/Third_Party/LwIP/src/api/api_msg.c ****     return 1;
 2568              		.loc 1 139 5 is_stmt 1 view .LVU799
 139:Middlewares/Third_Party/LwIP/src/api/api_msg.c ****     return 1;
 2569              		.loc 1 139 10 is_stmt 0 view .LVU800
 2570 0034 F223     		movs	r3, #242
 2571 0036 2B70     		strb	r3, [r5]
 140:Middlewares/Third_Party/LwIP/src/api/api_msg.c ****   } else if (msg == &netconn_closed) {
 2572              		.loc 1 140 5 is_stmt 1 view .LVU801
 140:Middlewares/Third_Party/LwIP/src/api/api_msg.c ****   } else if (msg == &netconn_closed) {
 2573              		.loc 1 140 12 is_stmt 0 view .LVU802
 2574 0038 0120     		movs	r0, #1
 2575 003a EFE7     		b	.L217
 2576              	.L227:
 142:Middlewares/Third_Party/LwIP/src/api/api_msg.c ****     return 1;
 2577              		.loc 1 142 5 is_stmt 1 view .LVU803
 142:Middlewares/Third_Party/LwIP/src/api/api_msg.c ****     return 1;
 2578              		.loc 1 142 10 is_stmt 0 view .LVU804
 2579 003c F123     		movs	r3, #241
 2580 003e 2B70     		strb	r3, [r5]
 143:Middlewares/Third_Party/LwIP/src/api/api_msg.c ****   }
 2581              		.loc 1 143 5 is_stmt 1 view .LVU805
 143:Middlewares/Third_Party/LwIP/src/api/api_msg.c ****   }
 2582              		.loc 1 143 12 is_stmt 0 view .LVU806
 2583 0040 0120     		movs	r0, #1
 2584 0042 EBE7     		b	.L217
 2585              	.L229:
 2586              		.align	2
 2587              	.L228:
 2588 0044 00000000 		.word	netconn_aborted
 2589 0048 00000000 		.word	netconn_reset
 2590 004c 00000000 		.word	netconn_closed
 2591 0050 00000000 		.word	.LC0
 2592 0054 00000000 		.word	.LC25
 2593 0058 40000000 		.word	.LC2
 2594              		.cfi_endproc
 2595              	.LFE173:
 2597              		.section	.text.lwip_netconn_do_newconn,"ax",%progbits
 2598              		.align	1
 2599              		.global	lwip_netconn_do_newconn
 2600              		.syntax unified
 2601              		.thumb
 2602              		.thumb_func
 2604              	lwip_netconn_do_newconn:
 2605              	.LVL250:
 2606              	.LFB181:
ARM GAS  C:\Users\hh\AppData\Local\Temp\ccfq6ENc.s 			page 91


 684:Middlewares/Third_Party/LwIP/src/api/api_msg.c ****   struct api_msg *msg = (struct api_msg *)m;
 2607              		.loc 1 684 1 is_stmt 1 view -0
 2608              		.cfi_startproc
 2609              		@ args = 0, pretend = 0, frame = 0
 2610              		@ frame_needed = 0, uses_anonymous_args = 0
 684:Middlewares/Third_Party/LwIP/src/api/api_msg.c ****   struct api_msg *msg = (struct api_msg *)m;
 2611              		.loc 1 684 1 is_stmt 0 view .LVU808
 2612 0000 08B5     		push	{r3, lr}
 2613              	.LCFI13:
 2614              		.cfi_def_cfa_offset 8
 2615              		.cfi_offset 3, -8
 2616              		.cfi_offset 14, -4
 685:Middlewares/Third_Party/LwIP/src/api/api_msg.c **** 
 2617              		.loc 1 685 3 is_stmt 1 view .LVU809
 2618              	.LVL251:
 687:Middlewares/Third_Party/LwIP/src/api/api_msg.c ****   if (msg->conn->pcb.tcp == NULL) {
 2619              		.loc 1 687 3 view .LVU810
 687:Middlewares/Third_Party/LwIP/src/api/api_msg.c ****   if (msg->conn->pcb.tcp == NULL) {
 2620              		.loc 1 687 12 is_stmt 0 view .LVU811
 2621 0002 0023     		movs	r3, #0
 2622 0004 0371     		strb	r3, [r0, #4]
 688:Middlewares/Third_Party/LwIP/src/api/api_msg.c ****     pcb_new(msg);
 2623              		.loc 1 688 3 is_stmt 1 view .LVU812
 688:Middlewares/Third_Party/LwIP/src/api/api_msg.c ****     pcb_new(msg);
 2624              		.loc 1 688 10 is_stmt 0 view .LVU813
 2625 0006 0368     		ldr	r3, [r0]
 688:Middlewares/Third_Party/LwIP/src/api/api_msg.c ****     pcb_new(msg);
 2626              		.loc 1 688 21 view .LVU814
 2627 0008 5B68     		ldr	r3, [r3, #4]
 688:Middlewares/Third_Party/LwIP/src/api/api_msg.c ****     pcb_new(msg);
 2628              		.loc 1 688 6 view .LVU815
 2629 000a 03B1     		cbz	r3, .L233
 2630              	.LVL252:
 2631              	.L230:
 696:Middlewares/Third_Party/LwIP/src/api/api_msg.c **** 
 2632              		.loc 1 696 1 view .LVU816
 2633 000c 08BD     		pop	{r3, pc}
 2634              	.LVL253:
 2635              	.L233:
 689:Middlewares/Third_Party/LwIP/src/api/api_msg.c ****   }
 2636              		.loc 1 689 5 is_stmt 1 view .LVU817
 2637 000e FFF7FEFF 		bl	pcb_new
 2638              	.LVL254:
 695:Middlewares/Third_Party/LwIP/src/api/api_msg.c **** }
 2639              		.loc 1 695 24 view .LVU818
 696:Middlewares/Third_Party/LwIP/src/api/api_msg.c **** 
 2640              		.loc 1 696 1 is_stmt 0 view .LVU819
 2641 0012 FBE7     		b	.L230
 2642              		.cfi_endproc
 2643              	.LFE181:
 2645              		.section	.rodata.netconn_alloc.str1.4,"aMS",%progbits,1
 2646              		.align	2
 2647              	.LC26:
 2648 0000 6E657463 		.ascii	"netconn_alloc: undefined netconn_type\000"
 2648      6F6E6E5F 
 2648      616C6C6F 
 2648      633A2075 
ARM GAS  C:\Users\hh\AppData\Local\Temp\ccfq6ENc.s 			page 92


 2648      6E646566 
 2649              		.section	.text.netconn_alloc,"ax",%progbits
 2650              		.align	1
 2651              		.global	netconn_alloc
 2652              		.syntax unified
 2653              		.thumb
 2654              		.thumb_func
 2656              	netconn_alloc:
 2657              	.LVL255:
 2658              	.LFB182:
 709:Middlewares/Third_Party/LwIP/src/api/api_msg.c ****   struct netconn *conn;
 2659              		.loc 1 709 1 is_stmt 1 view -0
 2660              		.cfi_startproc
 2661              		@ args = 0, pretend = 0, frame = 0
 2662              		@ frame_needed = 0, uses_anonymous_args = 0
 709:Middlewares/Third_Party/LwIP/src/api/api_msg.c ****   struct netconn *conn;
 2663              		.loc 1 709 1 is_stmt 0 view .LVU821
 2664 0000 70B5     		push	{r4, r5, r6, lr}
 2665              	.LCFI14:
 2666              		.cfi_def_cfa_offset 16
 2667              		.cfi_offset 4, -16
 2668              		.cfi_offset 5, -12
 2669              		.cfi_offset 6, -8
 2670              		.cfi_offset 14, -4
 2671 0002 0546     		mov	r5, r0
 2672 0004 0E46     		mov	r6, r1
 710:Middlewares/Third_Party/LwIP/src/api/api_msg.c ****   int size;
 2673              		.loc 1 710 3 is_stmt 1 view .LVU822
 711:Middlewares/Third_Party/LwIP/src/api/api_msg.c ****   u8_t init_flags = 0;
 2674              		.loc 1 711 3 view .LVU823
 712:Middlewares/Third_Party/LwIP/src/api/api_msg.c **** 
 2675              		.loc 1 712 3 view .LVU824
 2676              	.LVL256:
 714:Middlewares/Third_Party/LwIP/src/api/api_msg.c ****   if (conn == NULL) {
 2677              		.loc 1 714 3 view .LVU825
 714:Middlewares/Third_Party/LwIP/src/api/api_msg.c ****   if (conn == NULL) {
 2678              		.loc 1 714 28 is_stmt 0 view .LVU826
 2679 0006 0620     		movs	r0, #6
 2680              	.LVL257:
 714:Middlewares/Third_Party/LwIP/src/api/api_msg.c ****   if (conn == NULL) {
 2681              		.loc 1 714 28 view .LVU827
 2682 0008 FFF7FEFF 		bl	memp_malloc
 2683              	.LVL258:
 715:Middlewares/Third_Party/LwIP/src/api/api_msg.c ****     return NULL;
 2684              		.loc 1 715 3 is_stmt 1 view .LVU828
 715:Middlewares/Third_Party/LwIP/src/api/api_msg.c ****     return NULL;
 2685              		.loc 1 715 6 is_stmt 0 view .LVU829
 2686 000c 0446     		mov	r4, r0
 2687 000e 68B3     		cbz	r0, .L234
 719:Middlewares/Third_Party/LwIP/src/api/api_msg.c ****   conn->type = t;
 2688              		.loc 1 719 3 is_stmt 1 view .LVU830
 719:Middlewares/Third_Party/LwIP/src/api/api_msg.c ****   conn->type = t;
 2689              		.loc 1 719 21 is_stmt 0 view .LVU831
 2690 0010 0023     		movs	r3, #0
 2691 0012 0372     		strb	r3, [r0, #8]
 720:Middlewares/Third_Party/LwIP/src/api/api_msg.c ****   conn->pcb.tcp = NULL;
 2692              		.loc 1 720 3 is_stmt 1 view .LVU832
ARM GAS  C:\Users\hh\AppData\Local\Temp\ccfq6ENc.s 			page 93


 720:Middlewares/Third_Party/LwIP/src/api/api_msg.c ****   conn->pcb.tcp = NULL;
 2693              		.loc 1 720 14 is_stmt 0 view .LVU833
 2694 0014 0570     		strb	r5, [r0]
 721:Middlewares/Third_Party/LwIP/src/api/api_msg.c **** #if LWIP_NETCONN_FULLDUPLEX
 2695              		.loc 1 721 3 is_stmt 1 view .LVU834
 721:Middlewares/Third_Party/LwIP/src/api/api_msg.c **** #if LWIP_NETCONN_FULLDUPLEX
 2696              		.loc 1 721 17 is_stmt 0 view .LVU835
 2697 0016 4360     		str	r3, [r0, #4]
 727:Middlewares/Third_Party/LwIP/src/api/api_msg.c **** #if LWIP_RAW
 2698              		.loc 1 727 3 is_stmt 1 view .LVU836
 2699 0018 05F0F005 		and	r5, r5, #240
 2700              	.LVL259:
 727:Middlewares/Third_Party/LwIP/src/api/api_msg.c **** #if LWIP_RAW
 2701              		.loc 1 727 3 is_stmt 0 view .LVU837
 2702 001c 102D     		cmp	r5, #16
 2703 001e 19D1     		bne	.L236
 743:Middlewares/Third_Party/LwIP/src/api/api_msg.c ****       break;
 2704              		.loc 1 743 7 is_stmt 1 view .LVU838
 2705              	.LVL260:
 744:Middlewares/Third_Party/LwIP/src/api/api_msg.c **** #endif /* LWIP_TCP */
 2706              		.loc 1 744 7 view .LVU839
 751:Middlewares/Third_Party/LwIP/src/api/api_msg.c ****     goto free_and_return;
 2707              		.loc 1 751 3 view .LVU840
 751:Middlewares/Third_Party/LwIP/src/api/api_msg.c ****     goto free_and_return;
 2708              		.loc 1 751 7 is_stmt 0 view .LVU841
 2709 0020 00F11005 		add	r5, r0, #16
 2710 0024 0621     		movs	r1, #6
 2711 0026 2846     		mov	r0, r5
 2712              	.LVL261:
 751:Middlewares/Third_Party/LwIP/src/api/api_msg.c ****     goto free_and_return;
 2713              		.loc 1 751 7 view .LVU842
 2714 0028 FFF7FEFF 		bl	sys_mbox_new
 2715              	.LVL262:
 751:Middlewares/Third_Party/LwIP/src/api/api_msg.c ****     goto free_and_return;
 2716              		.loc 1 751 6 discriminator 1 view .LVU843
 2717 002c C8B9     		cbnz	r0, .L237
 755:Middlewares/Third_Party/LwIP/src/api/api_msg.c ****     sys_mbox_free(&conn->recvmbox);
 2718              		.loc 1 755 3 is_stmt 1 view .LVU844
 755:Middlewares/Third_Party/LwIP/src/api/api_msg.c ****     sys_mbox_free(&conn->recvmbox);
 2719              		.loc 1 755 7 is_stmt 0 view .LVU845
 2720 002e 0146     		mov	r1, r0
 2721 0030 04F10C00 		add	r0, r4, #12
 2722 0034 FFF7FEFF 		bl	sys_sem_new
 2723              	.LVL263:
 755:Middlewares/Third_Party/LwIP/src/api/api_msg.c ****     sys_mbox_free(&conn->recvmbox);
 2724              		.loc 1 755 6 discriminator 1 view .LVU846
 2725 0038 D0B9     		cbnz	r0, .L242
 762:Middlewares/Third_Party/LwIP/src/api/api_msg.c **** #endif
 2726              		.loc 1 762 3 is_stmt 1 view .LVU847
 2727 003a 04F11400 		add	r0, r4, #20
 2728 003e FFF7FEFF 		bl	sys_mbox_set_invalid
 2729              	.LVL264:
 764:Middlewares/Third_Party/LwIP/src/api/api_msg.c ****   /* initialize socket to -1 since 0 is a valid socket */
 2730              		.loc 1 764 3 view .LVU848
 764:Middlewares/Third_Party/LwIP/src/api/api_msg.c ****   /* initialize socket to -1 since 0 is a valid socket */
 2731              		.loc 1 764 22 is_stmt 0 view .LVU849
 2732 0042 0023     		movs	r3, #0
ARM GAS  C:\Users\hh\AppData\Local\Temp\ccfq6ENc.s 			page 94


 2733 0044 6370     		strb	r3, [r4, #1]
 766:Middlewares/Third_Party/LwIP/src/api/api_msg.c ****   conn->callback     = callback;
 2734              		.loc 1 766 3 is_stmt 1 view .LVU850
 766:Middlewares/Third_Party/LwIP/src/api/api_msg.c ****   conn->callback     = callback;
 2735              		.loc 1 766 29 is_stmt 0 view .LVU851
 2736 0046 4FF0FF32 		mov	r2, #-1
 2737 004a A261     		str	r2, [r4, #24]
 767:Middlewares/Third_Party/LwIP/src/api/api_msg.c **** #if LWIP_TCP
 2738              		.loc 1 767 3 is_stmt 1 view .LVU852
 767:Middlewares/Third_Party/LwIP/src/api/api_msg.c **** #if LWIP_TCP
 2739              		.loc 1 767 22 is_stmt 0 view .LVU853
 2740 004c 6662     		str	r6, [r4, #36]
 769:Middlewares/Third_Party/LwIP/src/api/api_msg.c **** #endif /* LWIP_TCP */
 2741              		.loc 1 769 3 is_stmt 1 view .LVU854
 769:Middlewares/Third_Party/LwIP/src/api/api_msg.c **** #endif /* LWIP_TCP */
 2742              		.loc 1 769 22 is_stmt 0 view .LVU855
 2743 004e 2362     		str	r3, [r4, #32]
 784:Middlewares/Third_Party/LwIP/src/api/api_msg.c ****   return conn;
 2744              		.loc 1 784 3 is_stmt 1 view .LVU856
 784:Middlewares/Third_Party/LwIP/src/api/api_msg.c ****   return conn;
 2745              		.loc 1 784 15 is_stmt 0 view .LVU857
 2746 0050 2377     		strb	r3, [r4, #28]
 785:Middlewares/Third_Party/LwIP/src/api/api_msg.c **** free_and_return:
 2747              		.loc 1 785 3 is_stmt 1 view .LVU858
 785:Middlewares/Third_Party/LwIP/src/api/api_msg.c **** free_and_return:
 2748              		.loc 1 785 10 is_stmt 0 view .LVU859
 2749 0052 0BE0     		b	.L234
 2750              	.LVL265:
 2751              	.L236:
 747:Middlewares/Third_Party/LwIP/src/api/api_msg.c ****       goto free_and_return;
 2752              		.loc 1 747 7 is_stmt 1 view .LVU860
 747:Middlewares/Third_Party/LwIP/src/api/api_msg.c ****       goto free_and_return;
 2753              		.loc 1 747 7 view .LVU861
 747:Middlewares/Third_Party/LwIP/src/api/api_msg.c ****       goto free_and_return;
 2754              		.loc 1 747 7 discriminator 1 view .LVU862
 747:Middlewares/Third_Party/LwIP/src/api/api_msg.c ****       goto free_and_return;
 2755              		.loc 1 747 7 discriminator 1 view .LVU863
 2756 0054 084B     		ldr	r3, .L243
 2757 0056 40F2EB22 		movw	r2, #747
 2758 005a 0849     		ldr	r1, .L243+4
 2759 005c 0848     		ldr	r0, .L243+8
 2760              	.LVL266:
 747:Middlewares/Third_Party/LwIP/src/api/api_msg.c ****       goto free_and_return;
 2761              		.loc 1 747 7 is_stmt 0 discriminator 1 view .LVU864
 2762 005e FFF7FEFF 		bl	printf
 2763              	.LVL267:
 747:Middlewares/Third_Party/LwIP/src/api/api_msg.c ****       goto free_and_return;
 2764              		.loc 1 747 7 is_stmt 1 view .LVU865
 747:Middlewares/Third_Party/LwIP/src/api/api_msg.c ****       goto free_and_return;
 2765              		.loc 1 747 7 view .LVU866
 748:Middlewares/Third_Party/LwIP/src/api/api_msg.c ****   }
 2766              		.loc 1 748 7 view .LVU867
 2767              	.L237:
 787:Middlewares/Third_Party/LwIP/src/api/api_msg.c ****   return NULL;
 2768              		.loc 1 787 3 view .LVU868
 2769 0062 2146     		mov	r1, r4
 2770 0064 0620     		movs	r0, #6
ARM GAS  C:\Users\hh\AppData\Local\Temp\ccfq6ENc.s 			page 95


 2771 0066 FFF7FEFF 		bl	memp_free
 2772              	.LVL268:
 788:Middlewares/Third_Party/LwIP/src/api/api_msg.c **** }
 2773              		.loc 1 788 3 view .LVU869
 788:Middlewares/Third_Party/LwIP/src/api/api_msg.c **** }
 2774              		.loc 1 788 10 is_stmt 0 view .LVU870
 2775 006a 0024     		movs	r4, #0
 2776              	.LVL269:
 2777              	.L234:
 789:Middlewares/Third_Party/LwIP/src/api/api_msg.c **** 
 2778              		.loc 1 789 1 view .LVU871
 2779 006c 2046     		mov	r0, r4
 2780 006e 70BD     		pop	{r4, r5, r6, pc}
 2781              	.LVL270:
 2782              	.L242:
 756:Middlewares/Third_Party/LwIP/src/api/api_msg.c ****     goto free_and_return;
 2783              		.loc 1 756 5 is_stmt 1 view .LVU872
 2784 0070 2846     		mov	r0, r5
 2785 0072 FFF7FEFF 		bl	sys_mbox_free
 2786              	.LVL271:
 757:Middlewares/Third_Party/LwIP/src/api/api_msg.c ****   }
 2787              		.loc 1 757 5 view .LVU873
 2788 0076 F4E7     		b	.L237
 2789              	.L244:
 2790              		.align	2
 2791              	.L243:
 2792 0078 00000000 		.word	.LC0
 2793 007c 00000000 		.word	.LC26
 2794 0080 40000000 		.word	.LC2
 2795              		.cfi_endproc
 2796              	.LFE182:
 2798              		.section	.rodata.netconn_free.str1.4,"aMS",%progbits,1
 2799              		.align	2
 2800              	.LC27:
 2801 0000 50434220 		.ascii	"PCB must be deallocated outside this function\000"
 2801      6D757374 
 2801      20626520 
 2801      6465616C 
 2801      6C6F6361 
 2802 002e 0000     		.align	2
 2803              	.LC28:
 2804 0030 72656376 		.ascii	"recvmbox must be deallocated before calling this fu"
 2804      6D626F78 
 2804      206D7573 
 2804      74206265 
 2804      20646561 
 2805 0063 6E637469 		.ascii	"nction\000"
 2805      6F6E00
 2806 006a 0000     		.align	2
 2807              	.LC29:
 2808 006c 61636365 		.ascii	"acceptmbox must be deallocated before calling this "
 2808      70746D62 
 2808      6F78206D 
 2808      75737420 
 2808      62652064 
 2809 009f 66756E63 		.ascii	"function\000"
 2809      74696F6E 
ARM GAS  C:\Users\hh\AppData\Local\Temp\ccfq6ENc.s 			page 96


 2809      00
 2810              		.section	.text.netconn_free,"ax",%progbits
 2811              		.align	1
 2812              		.global	netconn_free
 2813              		.syntax unified
 2814              		.thumb
 2815              		.thumb_func
 2817              	netconn_free:
 2818              	.LVL272:
 2819              	.LFB183:
 799:Middlewares/Third_Party/LwIP/src/api/api_msg.c ****   LWIP_ASSERT("PCB must be deallocated outside this function", conn->pcb.tcp == NULL);
 2820              		.loc 1 799 1 view -0
 2821              		.cfi_startproc
 2822              		@ args = 0, pretend = 0, frame = 0
 2823              		@ frame_needed = 0, uses_anonymous_args = 0
 799:Middlewares/Third_Party/LwIP/src/api/api_msg.c ****   LWIP_ASSERT("PCB must be deallocated outside this function", conn->pcb.tcp == NULL);
 2824              		.loc 1 799 1 is_stmt 0 view .LVU875
 2825 0000 38B5     		push	{r3, r4, r5, lr}
 2826              	.LCFI15:
 2827              		.cfi_def_cfa_offset 16
 2828              		.cfi_offset 3, -16
 2829              		.cfi_offset 4, -12
 2830              		.cfi_offset 5, -8
 2831              		.cfi_offset 14, -4
 2832 0002 0446     		mov	r4, r0
 800:Middlewares/Third_Party/LwIP/src/api/api_msg.c **** 
 2833              		.loc 1 800 3 is_stmt 1 view .LVU876
 800:Middlewares/Third_Party/LwIP/src/api/api_msg.c **** 
 2834              		.loc 1 800 3 view .LVU877
 2835 0004 4368     		ldr	r3, [r0, #4]
 2836 0006 33B1     		cbz	r3, .L246
 800:Middlewares/Third_Party/LwIP/src/api/api_msg.c **** 
 2837              		.loc 1 800 3 discriminator 1 view .LVU878
 800:Middlewares/Third_Party/LwIP/src/api/api_msg.c **** 
 2838              		.loc 1 800 3 discriminator 1 view .LVU879
 2839 0008 164B     		ldr	r3, .L252
 2840 000a 4FF44872 		mov	r2, #800
 2841 000e 1649     		ldr	r1, .L252+4
 2842 0010 1648     		ldr	r0, .L252+8
 2843              	.LVL273:
 800:Middlewares/Third_Party/LwIP/src/api/api_msg.c **** 
 2844              		.loc 1 800 3 is_stmt 0 discriminator 1 view .LVU880
 2845 0012 FFF7FEFF 		bl	printf
 2846              	.LVL274:
 2847              	.L246:
 800:Middlewares/Third_Party/LwIP/src/api/api_msg.c **** 
 2848              		.loc 1 800 3 is_stmt 1 view .LVU881
 800:Middlewares/Third_Party/LwIP/src/api/api_msg.c **** 
 2849              		.loc 1 800 3 view .LVU882
 807:Middlewares/Third_Party/LwIP/src/api/api_msg.c ****               !sys_mbox_valid(&conn->recvmbox));
 2850              		.loc 1 807 3 view .LVU883
 807:Middlewares/Third_Party/LwIP/src/api/api_msg.c ****               !sys_mbox_valid(&conn->recvmbox));
 2851              		.loc 1 807 3 view .LVU884
 2852 0016 04F11000 		add	r0, r4, #16
 2853 001a FFF7FEFF 		bl	sys_mbox_valid
 2854              	.LVL275:
 807:Middlewares/Third_Party/LwIP/src/api/api_msg.c ****               !sys_mbox_valid(&conn->recvmbox));
ARM GAS  C:\Users\hh\AppData\Local\Temp\ccfq6ENc.s 			page 97


 2855              		.loc 1 807 3 is_stmt 0 discriminator 1 view .LVU885
 2856 001e 88B9     		cbnz	r0, .L250
 2857              	.L247:
 807:Middlewares/Third_Party/LwIP/src/api/api_msg.c ****               !sys_mbox_valid(&conn->recvmbox));
 2858              		.loc 1 807 3 is_stmt 1 view .LVU886
 807:Middlewares/Third_Party/LwIP/src/api/api_msg.c ****               !sys_mbox_valid(&conn->recvmbox));
 2859              		.loc 1 807 3 view .LVU887
 810:Middlewares/Third_Party/LwIP/src/api/api_msg.c ****               !sys_mbox_valid(&conn->acceptmbox));
 2860              		.loc 1 810 3 view .LVU888
 810:Middlewares/Third_Party/LwIP/src/api/api_msg.c ****               !sys_mbox_valid(&conn->acceptmbox));
 2861              		.loc 1 810 3 view .LVU889
 2862 0020 04F11400 		add	r0, r4, #20
 2863 0024 FFF7FEFF 		bl	sys_mbox_valid
 2864              	.LVL276:
 810:Middlewares/Third_Party/LwIP/src/api/api_msg.c ****               !sys_mbox_valid(&conn->acceptmbox));
 2865              		.loc 1 810 3 is_stmt 0 discriminator 1 view .LVU890
 2866 0028 A0B9     		cbnz	r0, .L251
 2867              	.L248:
 810:Middlewares/Third_Party/LwIP/src/api/api_msg.c ****               !sys_mbox_valid(&conn->acceptmbox));
 2868              		.loc 1 810 3 is_stmt 1 view .LVU891
 810:Middlewares/Third_Party/LwIP/src/api/api_msg.c ****               !sys_mbox_valid(&conn->acceptmbox));
 2869              		.loc 1 810 3 view .LVU892
 815:Middlewares/Third_Party/LwIP/src/api/api_msg.c ****   sys_sem_set_invalid(&conn->op_completed);
 2870              		.loc 1 815 3 view .LVU893
 2871 002a 04F10C05 		add	r5, r4, #12
 2872 002e 2846     		mov	r0, r5
 2873 0030 FFF7FEFF 		bl	sys_sem_free
 2874              	.LVL277:
 816:Middlewares/Third_Party/LwIP/src/api/api_msg.c **** #endif
 2875              		.loc 1 816 3 view .LVU894
 2876 0034 2846     		mov	r0, r5
 2877 0036 FFF7FEFF 		bl	sys_sem_set_invalid
 2878              	.LVL278:
 819:Middlewares/Third_Party/LwIP/src/api/api_msg.c **** }
 2879              		.loc 1 819 3 view .LVU895
 2880 003a 2146     		mov	r1, r4
 2881 003c 0620     		movs	r0, #6
 2882 003e FFF7FEFF 		bl	memp_free
 2883              	.LVL279:
 820:Middlewares/Third_Party/LwIP/src/api/api_msg.c **** 
 2884              		.loc 1 820 1 is_stmt 0 view .LVU896
 2885 0042 38BD     		pop	{r3, r4, r5, pc}
 2886              	.LVL280:
 2887              	.L250:
 807:Middlewares/Third_Party/LwIP/src/api/api_msg.c ****               !sys_mbox_valid(&conn->recvmbox));
 2888              		.loc 1 807 3 is_stmt 1 discriminator 2 view .LVU897
 807:Middlewares/Third_Party/LwIP/src/api/api_msg.c ****               !sys_mbox_valid(&conn->recvmbox));
 2889              		.loc 1 807 3 discriminator 2 view .LVU898
 2890 0044 074B     		ldr	r3, .L252
 2891 0046 40F22732 		movw	r2, #807
 2892 004a 0949     		ldr	r1, .L252+12
 2893 004c 0748     		ldr	r0, .L252+8
 2894 004e FFF7FEFF 		bl	printf
 2895              	.LVL281:
 2896 0052 E5E7     		b	.L247
 2897              	.L251:
 810:Middlewares/Third_Party/LwIP/src/api/api_msg.c ****               !sys_mbox_valid(&conn->acceptmbox));
ARM GAS  C:\Users\hh\AppData\Local\Temp\ccfq6ENc.s 			page 98


 2898              		.loc 1 810 3 discriminator 2 view .LVU899
 810:Middlewares/Third_Party/LwIP/src/api/api_msg.c ****               !sys_mbox_valid(&conn->acceptmbox));
 2899              		.loc 1 810 3 discriminator 2 view .LVU900
 2900 0054 034B     		ldr	r3, .L252
 2901 0056 40F22A32 		movw	r2, #810
 2902 005a 0649     		ldr	r1, .L252+16
 2903 005c 0348     		ldr	r0, .L252+8
 2904 005e FFF7FEFF 		bl	printf
 2905              	.LVL282:
 2906 0062 E2E7     		b	.L248
 2907              	.L253:
 2908              		.align	2
 2909              	.L252:
 2910 0064 00000000 		.word	.LC0
 2911 0068 00000000 		.word	.LC27
 2912 006c 40000000 		.word	.LC2
 2913 0070 30000000 		.word	.LC28
 2914 0074 6C000000 		.word	.LC29
 2915              		.cfi_endproc
 2916              	.LFE183:
 2918              		.section	.text.netconn_drain,"ax",%progbits
 2919              		.align	1
 2920              		.syntax unified
 2921              		.thumb
 2922              		.thumb_func
 2924              	netconn_drain:
 2925              	.LVL283:
 2926              	.LFB184:
 832:Middlewares/Third_Party/LwIP/src/api/api_msg.c ****   void *mem;
 2927              		.loc 1 832 1 view -0
 2928              		.cfi_startproc
 2929              		@ args = 0, pretend = 0, frame = 8
 2930              		@ frame_needed = 0, uses_anonymous_args = 0
 832:Middlewares/Third_Party/LwIP/src/api/api_msg.c ****   void *mem;
 2931              		.loc 1 832 1 is_stmt 0 view .LVU902
 2932 0000 30B5     		push	{r4, r5, lr}
 2933              	.LCFI16:
 2934              		.cfi_def_cfa_offset 12
 2935              		.cfi_offset 4, -12
 2936              		.cfi_offset 5, -8
 2937              		.cfi_offset 14, -4
 2938 0002 83B0     		sub	sp, sp, #12
 2939              	.LCFI17:
 2940              		.cfi_def_cfa_offset 24
 2941 0004 0446     		mov	r4, r0
 833:Middlewares/Third_Party/LwIP/src/api/api_msg.c **** 
 2942              		.loc 1 833 3 is_stmt 1 view .LVU903
 842:Middlewares/Third_Party/LwIP/src/api/api_msg.c ****     while (sys_mbox_tryfetch(&conn->recvmbox, &mem) != SYS_MBOX_EMPTY) {
 2943              		.loc 1 842 3 view .LVU904
 842:Middlewares/Third_Party/LwIP/src/api/api_msg.c ****     while (sys_mbox_tryfetch(&conn->recvmbox, &mem) != SYS_MBOX_EMPTY) {
 2944              		.loc 1 842 7 is_stmt 0 view .LVU905
 2945 0006 00F11005 		add	r5, r0, #16
 2946 000a 2846     		mov	r0, r5
 2947              	.LVL284:
 842:Middlewares/Third_Party/LwIP/src/api/api_msg.c ****     while (sys_mbox_tryfetch(&conn->recvmbox, &mem) != SYS_MBOX_EMPTY) {
 2948              		.loc 1 842 7 view .LVU906
 2949 000c FFF7FEFF 		bl	sys_mbox_valid
ARM GAS  C:\Users\hh\AppData\Local\Temp\ccfq6ENc.s 			page 99


 2950              	.LVL285:
 842:Middlewares/Third_Party/LwIP/src/api/api_msg.c ****     while (sys_mbox_tryfetch(&conn->recvmbox, &mem) != SYS_MBOX_EMPTY) {
 2951              		.loc 1 842 6 discriminator 1 view .LVU907
 2952 0010 58B9     		cbnz	r0, .L255
 2953              	.L256:
 867:Middlewares/Third_Party/LwIP/src/api/api_msg.c ****     while (sys_mbox_tryfetch(&conn->acceptmbox, &mem) != SYS_MBOX_EMPTY) {
 2954              		.loc 1 867 3 is_stmt 1 view .LVU908
 867:Middlewares/Third_Party/LwIP/src/api/api_msg.c ****     while (sys_mbox_tryfetch(&conn->acceptmbox, &mem) != SYS_MBOX_EMPTY) {
 2955              		.loc 1 867 7 is_stmt 0 view .LVU909
 2956 0012 1434     		adds	r4, r4, #20
 2957              	.LVL286:
 867:Middlewares/Third_Party/LwIP/src/api/api_msg.c ****     while (sys_mbox_tryfetch(&conn->acceptmbox, &mem) != SYS_MBOX_EMPTY) {
 2958              		.loc 1 867 7 view .LVU910
 2959 0014 2046     		mov	r0, r4
 2960 0016 FFF7FEFF 		bl	sys_mbox_valid
 2961              	.LVL287:
 867:Middlewares/Third_Party/LwIP/src/api/api_msg.c ****     while (sys_mbox_tryfetch(&conn->acceptmbox, &mem) != SYS_MBOX_EMPTY) {
 2962              		.loc 1 867 6 discriminator 1 view .LVU911
 2963 001a 20BB     		cbnz	r0, .L261
 2964 001c 43E0     		b	.L254
 2965              	.LVL288:
 2966              	.L269:
 2967              	.LBB14:
 850:Middlewares/Third_Party/LwIP/src/api/api_msg.c ****           if (!lwip_netconn_is_err_msg(mem, &err)) {
 2968              		.loc 1 850 11 is_stmt 1 view .LVU912
 851:Middlewares/Third_Party/LwIP/src/api/api_msg.c ****             pbuf_free((struct pbuf *)mem);
 2969              		.loc 1 851 11 view .LVU913
 851:Middlewares/Third_Party/LwIP/src/api/api_msg.c ****             pbuf_free((struct pbuf *)mem);
 2970              		.loc 1 851 16 is_stmt 0 view .LVU914
 2971 001e 0DF10301 		add	r1, sp, #3
 2972 0022 0198     		ldr	r0, [sp, #4]
 2973 0024 FFF7FEFF 		bl	lwip_netconn_is_err_msg
 2974              	.LVL289:
 851:Middlewares/Third_Party/LwIP/src/api/api_msg.c ****             pbuf_free((struct pbuf *)mem);
 2975              		.loc 1 851 14 discriminator 1 view .LVU915
 2976 0028 78B1     		cbz	r0, .L267
 2977              	.L255:
 851:Middlewares/Third_Party/LwIP/src/api/api_msg.c ****             pbuf_free((struct pbuf *)mem);
 2978              		.loc 1 851 14 discriminator 1 view .LVU916
 2979              	.LBE14:
 843:Middlewares/Third_Party/LwIP/src/api/api_msg.c **** #if LWIP_NETCONN_FULLDUPLEX
 2980              		.loc 1 843 53 is_stmt 1 view .LVU917
 843:Middlewares/Third_Party/LwIP/src/api/api_msg.c **** #if LWIP_NETCONN_FULLDUPLEX
 2981              		.loc 1 843 12 is_stmt 0 view .LVU918
 2982 002a 01A9     		add	r1, sp, #4
 2983 002c 2846     		mov	r0, r5
 2984 002e FFF7FEFF 		bl	sys_arch_mbox_tryfetch
 2985              	.LVL290:
 843:Middlewares/Third_Party/LwIP/src/api/api_msg.c **** #if LWIP_NETCONN_FULLDUPLEX
 2986              		.loc 1 843 53 discriminator 1 view .LVU919
 2987 0032 B0F1FF3F 		cmp	r0, #-1
 2988 0036 0CD0     		beq	.L268
 849:Middlewares/Third_Party/LwIP/src/api/api_msg.c ****           err_t err;
 2989              		.loc 1 849 9 is_stmt 1 view .LVU920
 849:Middlewares/Third_Party/LwIP/src/api/api_msg.c ****           err_t err;
 2990              		.loc 1 849 13 is_stmt 0 view .LVU921
 2991 0038 2378     		ldrb	r3, [r4]	@ zero_extendqisi2
ARM GAS  C:\Users\hh\AppData\Local\Temp\ccfq6ENc.s 			page 100


 849:Middlewares/Third_Party/LwIP/src/api/api_msg.c ****           err_t err;
 2992              		.loc 1 849 12 view .LVU922
 2993 003a 03F0F003 		and	r3, r3, #240
 2994 003e 102B     		cmp	r3, #16
 2995 0040 EDD0     		beq	.L269
 857:Middlewares/Third_Party/LwIP/src/api/api_msg.c ****         }
 2996              		.loc 1 857 11 is_stmt 1 view .LVU923
 2997 0042 0198     		ldr	r0, [sp, #4]
 2998 0044 FFF7FEFF 		bl	netbuf_delete
 2999              	.LVL291:
 3000 0048 EFE7     		b	.L255
 3001              	.L267:
 3002              	.LBB15:
 852:Middlewares/Third_Party/LwIP/src/api/api_msg.c ****           }
 3003              		.loc 1 852 13 view .LVU924
 3004 004a 0198     		ldr	r0, [sp, #4]
 3005 004c FFF7FEFF 		bl	pbuf_free
 3006              	.LVL292:
 3007 0050 EBE7     		b	.L255
 3008              	.L268:
 852:Middlewares/Third_Party/LwIP/src/api/api_msg.c ****           }
 3009              		.loc 1 852 13 is_stmt 0 view .LVU925
 3010              	.LBE15:
 861:Middlewares/Third_Party/LwIP/src/api/api_msg.c ****     sys_mbox_set_invalid(&conn->recvmbox);
 3011              		.loc 1 861 5 is_stmt 1 view .LVU926
 3012 0052 2846     		mov	r0, r5
 3013 0054 FFF7FEFF 		bl	sys_mbox_free
 3014              	.LVL293:
 862:Middlewares/Third_Party/LwIP/src/api/api_msg.c ****   }
 3015              		.loc 1 862 5 view .LVU927
 3016 0058 2846     		mov	r0, r5
 3017 005a FFF7FEFF 		bl	sys_mbox_set_invalid
 3018              	.LVL294:
 3019 005e D8E7     		b	.L256
 3020              	.LVL295:
 3021              	.L264:
 3022              	.LBB16:
 3023              	.LBB17:
 884:Middlewares/Third_Party/LwIP/src/api/api_msg.c ****         }
 3024              		.loc 1 884 11 view .LVU928
 3025 0060 2846     		mov	r0, r5
 3026 0062 FFF7FEFF 		bl	netconn_free
 3027              	.LVL296:
 3028              	.L261:
 884:Middlewares/Third_Party/LwIP/src/api/api_msg.c ****         }
 3029              		.loc 1 884 11 is_stmt 0 view .LVU929
 3030              	.LBE17:
 3031              	.LBE16:
 868:Middlewares/Third_Party/LwIP/src/api/api_msg.c **** #if LWIP_NETCONN_FULLDUPLEX
 3032              		.loc 1 868 55 is_stmt 1 view .LVU930
 868:Middlewares/Third_Party/LwIP/src/api/api_msg.c **** #if LWIP_NETCONN_FULLDUPLEX
 3033              		.loc 1 868 12 is_stmt 0 view .LVU931
 3034 0066 01A9     		add	r1, sp, #4
 3035 0068 2046     		mov	r0, r4
 3036 006a FFF7FEFF 		bl	sys_arch_mbox_tryfetch
 3037              	.LVL297:
 868:Middlewares/Third_Party/LwIP/src/api/api_msg.c **** #if LWIP_NETCONN_FULLDUPLEX
ARM GAS  C:\Users\hh\AppData\Local\Temp\ccfq6ENc.s 			page 101


 3038              		.loc 1 868 55 discriminator 1 view .LVU932
 3039 006e B0F1FF3F 		cmp	r0, #-1
 3040 0072 12D0     		beq	.L270
 3041              	.LBB19:
 873:Middlewares/Third_Party/LwIP/src/api/api_msg.c ****         if (!lwip_netconn_is_err_msg(mem, &err)) {
 3042              		.loc 1 873 9 is_stmt 1 view .LVU933
 874:Middlewares/Third_Party/LwIP/src/api/api_msg.c ****           struct netconn *newconn = (struct netconn *)mem;
 3043              		.loc 1 874 9 view .LVU934
 874:Middlewares/Third_Party/LwIP/src/api/api_msg.c ****           struct netconn *newconn = (struct netconn *)mem;
 3044              		.loc 1 874 14 is_stmt 0 view .LVU935
 3045 0074 0DF10301 		add	r1, sp, #3
 3046 0078 0198     		ldr	r0, [sp, #4]
 3047 007a FFF7FEFF 		bl	lwip_netconn_is_err_msg
 3048              	.LVL298:
 874:Middlewares/Third_Party/LwIP/src/api/api_msg.c ****           struct netconn *newconn = (struct netconn *)mem;
 3049              		.loc 1 874 12 discriminator 1 view .LVU936
 3050 007e 0028     		cmp	r0, #0
 3051 0080 F1D1     		bne	.L261
 3052              	.LBB18:
 875:Middlewares/Third_Party/LwIP/src/api/api_msg.c ****           /* Only tcp pcbs have an acceptmbox, so no need to check conn->type */
 3053              		.loc 1 875 11 is_stmt 1 view .LVU937
 875:Middlewares/Third_Party/LwIP/src/api/api_msg.c ****           /* Only tcp pcbs have an acceptmbox, so no need to check conn->type */
 3054              		.loc 1 875 27 is_stmt 0 view .LVU938
 3055 0082 019D     		ldr	r5, [sp, #4]
 3056              	.LVL299:
 879:Middlewares/Third_Party/LwIP/src/api/api_msg.c ****           if (newconn->pcb.tcp != NULL) {
 3057              		.loc 1 879 11 is_stmt 1 view .LVU939
 3058 0084 2846     		mov	r0, r5
 3059 0086 FFF7BBFF 		bl	netconn_drain
 3060              	.LVL300:
 880:Middlewares/Third_Party/LwIP/src/api/api_msg.c ****             tcp_abort(newconn->pcb.tcp);
 3061              		.loc 1 880 11 view .LVU940
 880:Middlewares/Third_Party/LwIP/src/api/api_msg.c ****             tcp_abort(newconn->pcb.tcp);
 3062              		.loc 1 880 27 is_stmt 0 view .LVU941
 3063 008a 6868     		ldr	r0, [r5, #4]
 880:Middlewares/Third_Party/LwIP/src/api/api_msg.c ****             tcp_abort(newconn->pcb.tcp);
 3064              		.loc 1 880 14 view .LVU942
 3065 008c 0028     		cmp	r0, #0
 3066 008e E7D0     		beq	.L264
 881:Middlewares/Third_Party/LwIP/src/api/api_msg.c ****             newconn->pcb.tcp = NULL;
 3067              		.loc 1 881 13 is_stmt 1 view .LVU943
 3068 0090 FFF7FEFF 		bl	tcp_abort
 3069              	.LVL301:
 882:Middlewares/Third_Party/LwIP/src/api/api_msg.c ****           }
 3070              		.loc 1 882 13 view .LVU944
 882:Middlewares/Third_Party/LwIP/src/api/api_msg.c ****           }
 3071              		.loc 1 882 30 is_stmt 0 view .LVU945
 3072 0094 0023     		movs	r3, #0
 3073 0096 6B60     		str	r3, [r5, #4]
 3074 0098 E2E7     		b	.L264
 3075              	.LVL302:
 3076              	.L270:
 882:Middlewares/Third_Party/LwIP/src/api/api_msg.c ****           }
 3077              		.loc 1 882 30 view .LVU946
 3078              	.LBE18:
 3079              	.LBE19:
 888:Middlewares/Third_Party/LwIP/src/api/api_msg.c ****     sys_mbox_set_invalid(&conn->acceptmbox);
ARM GAS  C:\Users\hh\AppData\Local\Temp\ccfq6ENc.s 			page 102


 3080              		.loc 1 888 5 is_stmt 1 view .LVU947
 3081 009a 2046     		mov	r0, r4
 3082 009c FFF7FEFF 		bl	sys_mbox_free
 3083              	.LVL303:
 889:Middlewares/Third_Party/LwIP/src/api/api_msg.c ****   }
 3084              		.loc 1 889 5 view .LVU948
 3085 00a0 2046     		mov	r0, r4
 3086 00a2 FFF7FEFF 		bl	sys_mbox_set_invalid
 3087              	.LVL304:
 3088              	.L254:
 892:Middlewares/Third_Party/LwIP/src/api/api_msg.c **** 
 3089              		.loc 1 892 1 is_stmt 0 view .LVU949
 3090 00a6 03B0     		add	sp, sp, #12
 3091              	.LCFI18:
 3092              		.cfi_def_cfa_offset 12
 3093              		@ sp needed
 3094 00a8 30BD     		pop	{r4, r5, pc}
 892:Middlewares/Third_Party/LwIP/src/api/api_msg.c **** 
 3095              		.loc 1 892 1 view .LVU950
 3096              		.cfi_endproc
 3097              	.LFE184:
 3099              		.section	.rodata.accept_function.str1.4,"aMS",%progbits,1
 3100              		.align	2
 3101              	.LC30:
 3102 0000 65787065 		.ascii	"expect newpcb == NULL or err == ERR_OK\000"
 3102      6374206E 
 3102      65777063 
 3102      62203D3D 
 3102      204E554C 
 3103              		.section	.text.accept_function,"ax",%progbits
 3104              		.align	1
 3105              		.syntax unified
 3106              		.thumb
 3107              		.thumb_func
 3109              	accept_function:
 3110              	.LVL305:
 3111              	.LFB179:
 537:Middlewares/Third_Party/LwIP/src/api/api_msg.c ****   struct netconn *newconn;
 3112              		.loc 1 537 1 is_stmt 1 view -0
 3113              		.cfi_startproc
 3114              		@ args = 0, pretend = 0, frame = 0
 3115              		@ frame_needed = 0, uses_anonymous_args = 0
 537:Middlewares/Third_Party/LwIP/src/api/api_msg.c ****   struct netconn *newconn;
 3116              		.loc 1 537 1 is_stmt 0 view .LVU952
 3117 0000 F8B5     		push	{r3, r4, r5, r6, r7, lr}
 3118              	.LCFI19:
 3119              		.cfi_def_cfa_offset 24
 3120              		.cfi_offset 3, -24
 3121              		.cfi_offset 4, -20
 3122              		.cfi_offset 5, -16
 3123              		.cfi_offset 6, -12
 3124              		.cfi_offset 7, -8
 3125              		.cfi_offset 14, -4
 538:Middlewares/Third_Party/LwIP/src/api/api_msg.c ****   struct netconn *conn = (struct netconn *)arg;
 3126              		.loc 1 538 3 is_stmt 1 view .LVU953
 539:Middlewares/Third_Party/LwIP/src/api/api_msg.c **** 
 3127              		.loc 1 539 3 view .LVU954
ARM GAS  C:\Users\hh\AppData\Local\Temp\ccfq6ENc.s 			page 103


 3128              	.LVL306:
 541:Middlewares/Third_Party/LwIP/src/api/api_msg.c ****     return ERR_VAL;
 3129              		.loc 1 541 3 view .LVU955
 541:Middlewares/Third_Party/LwIP/src/api/api_msg.c ****     return ERR_VAL;
 3130              		.loc 1 541 6 is_stmt 0 view .LVU956
 3131 0002 0028     		cmp	r0, #0
 3132 0004 74D0     		beq	.L279
 3133 0006 0D46     		mov	r5, r1
 3134 0008 1646     		mov	r6, r2
 3135 000a 0446     		mov	r4, r0
 544:Middlewares/Third_Party/LwIP/src/api/api_msg.c ****     LWIP_DEBUGF(API_MSG_DEBUG, ("accept_function: acceptmbox already deleted\n"));
 3136              		.loc 1 544 3 is_stmt 1 view .LVU957
 544:Middlewares/Third_Party/LwIP/src/api/api_msg.c ****     LWIP_DEBUGF(API_MSG_DEBUG, ("accept_function: acceptmbox already deleted\n"));
 3137              		.loc 1 544 8 is_stmt 0 view .LVU958
 3138 000c 00F11407 		add	r7, r0, #20
 3139 0010 3846     		mov	r0, r7
 3140              	.LVL307:
 544:Middlewares/Third_Party/LwIP/src/api/api_msg.c ****     LWIP_DEBUGF(API_MSG_DEBUG, ("accept_function: acceptmbox already deleted\n"));
 3141              		.loc 1 544 8 view .LVU959
 3142 0012 FFF7FEFF 		bl	sys_mbox_valid
 3143              	.LVL308:
 544:Middlewares/Third_Party/LwIP/src/api/api_msg.c ****     LWIP_DEBUGF(API_MSG_DEBUG, ("accept_function: acceptmbox already deleted\n"));
 3144              		.loc 1 544 6 discriminator 1 view .LVU960
 3145 0016 0028     		cmp	r0, #0
 3146 0018 6DD0     		beq	.L280
 549:Middlewares/Third_Party/LwIP/src/api/api_msg.c ****     /* out-of-pcbs during connect: pass on this error to the application */
 3147              		.loc 1 549 3 is_stmt 1 view .LVU961
 549:Middlewares/Third_Party/LwIP/src/api/api_msg.c ****     /* out-of-pcbs during connect: pass on this error to the application */
 3148              		.loc 1 549 6 is_stmt 0 view .LVU962
 3149 001a BDB1     		cbz	r5, .L282
 557:Middlewares/Third_Party/LwIP/src/api/api_msg.c ****   LWIP_UNUSED_ARG(err); /* for LWIP_NOASSERT */
 3150              		.loc 1 557 3 is_stmt 1 view .LVU963
 557:Middlewares/Third_Party/LwIP/src/api/api_msg.c ****   LWIP_UNUSED_ARG(err); /* for LWIP_NOASSERT */
 3151              		.loc 1 557 3 view .LVU964
 3152 001c 46BB     		cbnz	r6, .L283
 3153              	.L275:
 557:Middlewares/Third_Party/LwIP/src/api/api_msg.c ****   LWIP_UNUSED_ARG(err); /* for LWIP_NOASSERT */
 3154              		.loc 1 557 3 view .LVU965
 557:Middlewares/Third_Party/LwIP/src/api/api_msg.c ****   LWIP_UNUSED_ARG(err); /* for LWIP_NOASSERT */
 3155              		.loc 1 557 3 view .LVU966
 558:Middlewares/Third_Party/LwIP/src/api/api_msg.c **** 
 3156              		.loc 1 558 3 view .LVU967
 560:Middlewares/Third_Party/LwIP/src/api/api_msg.c **** 
 3157              		.loc 1 560 107 view .LVU968
 564:Middlewares/Third_Party/LwIP/src/api/api_msg.c ****   if (newconn == NULL) {
 3158              		.loc 1 564 3 view .LVU969
 564:Middlewares/Third_Party/LwIP/src/api/api_msg.c ****   if (newconn == NULL) {
 3159              		.loc 1 564 13 is_stmt 0 view .LVU970
 3160 001e 616A     		ldr	r1, [r4, #36]
 3161 0020 2078     		ldrb	r0, [r4]	@ zero_extendqisi2
 3162 0022 FFF7FEFF 		bl	netconn_alloc
 3163              	.LVL309:
 565:Middlewares/Third_Party/LwIP/src/api/api_msg.c ****     /* outof netconns: pass on this error to the application */
 3164              		.loc 1 565 3 is_stmt 1 view .LVU971
 565:Middlewares/Third_Party/LwIP/src/api/api_msg.c ****     /* outof netconns: pass on this error to the application */
 3165              		.loc 1 565 6 is_stmt 0 view .LVU972
 3166 0026 0646     		mov	r6, r0
ARM GAS  C:\Users\hh\AppData\Local\Temp\ccfq6ENc.s 			page 104


 3167              	.LVL310:
 565:Middlewares/Third_Party/LwIP/src/api/api_msg.c ****     /* outof netconns: pass on this error to the application */
 3168              		.loc 1 565 6 view .LVU973
 3169 0028 50B3     		cbz	r0, .L284
 573:Middlewares/Third_Party/LwIP/src/api/api_msg.c ****   setup_tcp(newconn);
 3170              		.loc 1 573 3 is_stmt 1 view .LVU974
 573:Middlewares/Third_Party/LwIP/src/api/api_msg.c ****   setup_tcp(newconn);
 3171              		.loc 1 573 20 is_stmt 0 view .LVU975
 3172 002a 4560     		str	r5, [r0, #4]
 574:Middlewares/Third_Party/LwIP/src/api/api_msg.c **** 
 3173              		.loc 1 574 3 is_stmt 1 view .LVU976
 3174 002c FFF7FEFF 		bl	setup_tcp
 3175              	.LVL311:
 577:Middlewares/Third_Party/LwIP/src/api/api_msg.c **** 
 3176              		.loc 1 577 30 view .LVU977
 579:Middlewares/Third_Party/LwIP/src/api/api_msg.c ****     /* When returning != ERR_OK, the pcb is aborted in tcp_process(),
 3177              		.loc 1 579 3 view .LVU978
 579:Middlewares/Third_Party/LwIP/src/api/api_msg.c ****     /* When returning != ERR_OK, the pcb is aborted in tcp_process(),
 3178              		.loc 1 579 7 is_stmt 0 view .LVU979
 3179 0030 3146     		mov	r1, r6
 3180 0032 3846     		mov	r0, r7
 3181 0034 FFF7FEFF 		bl	sys_mbox_trypost
 3182              	.LVL312:
 579:Middlewares/Third_Party/LwIP/src/api/api_msg.c ****     /* When returning != ERR_OK, the pcb is aborted in tcp_process(),
 3183              		.loc 1 579 6 discriminator 1 view .LVU980
 3184 0038 0546     		mov	r5, r0
 3185              	.LVL313:
 579:Middlewares/Third_Party/LwIP/src/api/api_msg.c ****     /* When returning != ERR_OK, the pcb is aborted in tcp_process(),
 3186              		.loc 1 579 6 discriminator 1 view .LVU981
 3187 003a 98BB     		cbnz	r0, .L285
 598:Middlewares/Third_Party/LwIP/src/api/api_msg.c ****   }
 3188              		.loc 1 598 5 is_stmt 1 view .LVU982
 3189 003c 636A     		ldr	r3, [r4, #36]
 3190 003e 1BB1     		cbz	r3, .L272
 598:Middlewares/Third_Party/LwIP/src/api/api_msg.c ****   }
 3191              		.loc 1 598 5 discriminator 1 view .LVU983
 3192 0040 0246     		mov	r2, r0
 3193 0042 0146     		mov	r1, r0
 3194 0044 2046     		mov	r0, r4
 3195 0046 9847     		blx	r3
 3196              	.LVL314:
 3197              	.L272:
 602:Middlewares/Third_Party/LwIP/src/api/api_msg.c **** #endif /* LWIP_TCP */
 3198              		.loc 1 602 1 is_stmt 0 view .LVU984
 3199 0048 2846     		mov	r0, r5
 3200 004a F8BD     		pop	{r3, r4, r5, r6, r7, pc}
 3201              	.LVL315:
 3202              	.L282:
 551:Middlewares/Third_Party/LwIP/src/api/api_msg.c ****       /* Register event with callback */
 3203              		.loc 1 551 5 is_stmt 1 view .LVU985
 551:Middlewares/Third_Party/LwIP/src/api/api_msg.c ****       /* Register event with callback */
 3204              		.loc 1 551 9 is_stmt 0 view .LVU986
 3205 004c 6FF00C00 		mvn	r0, #12
 3206 0050 FFF7FEFF 		bl	lwip_netconn_err_to_msg
 3207              	.LVL316:
 3208 0054 0146     		mov	r1, r0
 551:Middlewares/Third_Party/LwIP/src/api/api_msg.c ****       /* Register event with callback */
ARM GAS  C:\Users\hh\AppData\Local\Temp\ccfq6ENc.s 			page 105


 3209              		.loc 1 551 9 discriminator 1 view .LVU987
 3210 0056 3846     		mov	r0, r7
 3211 0058 FFF7FEFF 		bl	sys_mbox_trypost
 3212              	.LVL317:
 551:Middlewares/Third_Party/LwIP/src/api/api_msg.c ****       /* Register event with callback */
 3213              		.loc 1 551 8 discriminator 2 view .LVU988
 3214 005c 28B9     		cbnz	r0, .L274
 553:Middlewares/Third_Party/LwIP/src/api/api_msg.c ****     }
 3215              		.loc 1 553 7 is_stmt 1 view .LVU989
 3216 005e 636A     		ldr	r3, [r4, #36]
 3217 0060 1BB1     		cbz	r3, .L274
 553:Middlewares/Third_Party/LwIP/src/api/api_msg.c ****     }
 3218              		.loc 1 553 7 discriminator 1 view .LVU990
 3219 0062 0246     		mov	r2, r0
 3220 0064 0146     		mov	r1, r0
 3221 0066 2046     		mov	r0, r4
 3222 0068 9847     		blx	r3
 3223              	.LVL318:
 3224              	.L274:
 553:Middlewares/Third_Party/LwIP/src/api/api_msg.c ****     }
 3225              		.loc 1 553 46 view .LVU991
 555:Middlewares/Third_Party/LwIP/src/api/api_msg.c ****   }
 3226              		.loc 1 555 5 view .LVU992
 555:Middlewares/Third_Party/LwIP/src/api/api_msg.c ****   }
 3227              		.loc 1 555 12 is_stmt 0 view .LVU993
 3228 006a 6FF00505 		mvn	r5, #5
 3229              	.LVL319:
 555:Middlewares/Third_Party/LwIP/src/api/api_msg.c ****   }
 3230              		.loc 1 555 12 view .LVU994
 3231 006e EBE7     		b	.L272
 3232              	.LVL320:
 3233              	.L283:
 557:Middlewares/Third_Party/LwIP/src/api/api_msg.c ****   LWIP_UNUSED_ARG(err); /* for LWIP_NOASSERT */
 3234              		.loc 1 557 3 is_stmt 1 discriminator 1 view .LVU995
 557:Middlewares/Third_Party/LwIP/src/api/api_msg.c ****   LWIP_UNUSED_ARG(err); /* for LWIP_NOASSERT */
 3235              		.loc 1 557 3 discriminator 1 view .LVU996
 3236 0070 224B     		ldr	r3, .L286
 3237 0072 40F22D22 		movw	r2, #557
 3238 0076 2249     		ldr	r1, .L286+4
 3239 0078 2248     		ldr	r0, .L286+8
 3240 007a FFF7FEFF 		bl	printf
 3241              	.LVL321:
 3242 007e CEE7     		b	.L275
 3243              	.LVL322:
 3244              	.L284:
 567:Middlewares/Third_Party/LwIP/src/api/api_msg.c ****       /* Register event with callback */
 3245              		.loc 1 567 5 view .LVU997
 567:Middlewares/Third_Party/LwIP/src/api/api_msg.c ****       /* Register event with callback */
 3246              		.loc 1 567 9 is_stmt 0 view .LVU998
 3247 0080 6FF00C00 		mvn	r0, #12
 3248              	.LVL323:
 567:Middlewares/Third_Party/LwIP/src/api/api_msg.c ****       /* Register event with callback */
 3249              		.loc 1 567 9 view .LVU999
 3250 0084 FFF7FEFF 		bl	lwip_netconn_err_to_msg
 3251              	.LVL324:
 3252 0088 0146     		mov	r1, r0
 567:Middlewares/Third_Party/LwIP/src/api/api_msg.c ****       /* Register event with callback */
ARM GAS  C:\Users\hh\AppData\Local\Temp\ccfq6ENc.s 			page 106


 3253              		.loc 1 567 9 discriminator 1 view .LVU1000
 3254 008a 3846     		mov	r0, r7
 3255 008c FFF7FEFF 		bl	sys_mbox_trypost
 3256              	.LVL325:
 567:Middlewares/Third_Party/LwIP/src/api/api_msg.c ****       /* Register event with callback */
 3257              		.loc 1 567 8 discriminator 2 view .LVU1001
 3258 0090 28B9     		cbnz	r0, .L277
 569:Middlewares/Third_Party/LwIP/src/api/api_msg.c ****     }
 3259              		.loc 1 569 7 is_stmt 1 view .LVU1002
 3260 0092 636A     		ldr	r3, [r4, #36]
 3261 0094 1BB1     		cbz	r3, .L277
 569:Middlewares/Third_Party/LwIP/src/api/api_msg.c ****     }
 3262              		.loc 1 569 7 discriminator 1 view .LVU1003
 3263 0096 0246     		mov	r2, r0
 3264 0098 0146     		mov	r1, r0
 3265 009a 2046     		mov	r0, r4
 3266 009c 9847     		blx	r3
 3267              	.LVL326:
 3268              	.L277:
 569:Middlewares/Third_Party/LwIP/src/api/api_msg.c ****     }
 3269              		.loc 1 569 46 view .LVU1004
 571:Middlewares/Third_Party/LwIP/src/api/api_msg.c ****   }
 3270              		.loc 1 571 5 view .LVU1005
 571:Middlewares/Third_Party/LwIP/src/api/api_msg.c ****   }
 3271              		.loc 1 571 12 is_stmt 0 view .LVU1006
 3272 009e 4FF0FF35 		mov	r5, #-1
 3273              	.LVL327:
 571:Middlewares/Third_Party/LwIP/src/api/api_msg.c ****   }
 3274              		.loc 1 571 12 view .LVU1007
 3275 00a2 D1E7     		b	.L272
 3276              	.L285:
 3277              	.LBB20:
 583:Middlewares/Third_Party/LwIP/src/api/api_msg.c ****     tcp_arg(pcb, NULL);
 3278              		.loc 1 583 5 is_stmt 1 view .LVU1008
 583:Middlewares/Third_Party/LwIP/src/api/api_msg.c ****     tcp_arg(pcb, NULL);
 3279              		.loc 1 583 21 is_stmt 0 view .LVU1009
 3280 00a4 7468     		ldr	r4, [r6, #4]
 3281              	.LVL328:
 584:Middlewares/Third_Party/LwIP/src/api/api_msg.c ****     tcp_recv(pcb, NULL);
 3282              		.loc 1 584 5 is_stmt 1 view .LVU1010
 3283 00a6 0021     		movs	r1, #0
 3284 00a8 2046     		mov	r0, r4
 3285 00aa FFF7FEFF 		bl	tcp_arg
 3286              	.LVL329:
 585:Middlewares/Third_Party/LwIP/src/api/api_msg.c ****     tcp_sent(pcb, NULL);
 3287              		.loc 1 585 5 view .LVU1011
 3288 00ae 0021     		movs	r1, #0
 3289 00b0 2046     		mov	r0, r4
 3290 00b2 FFF7FEFF 		bl	tcp_recv
 3291              	.LVL330:
 586:Middlewares/Third_Party/LwIP/src/api/api_msg.c ****     tcp_poll(pcb, NULL, 0);
 3292              		.loc 1 586 5 view .LVU1012
 3293 00b6 0021     		movs	r1, #0
 3294 00b8 2046     		mov	r0, r4
 3295 00ba FFF7FEFF 		bl	tcp_sent
 3296              	.LVL331:
 587:Middlewares/Third_Party/LwIP/src/api/api_msg.c ****     tcp_err(pcb, NULL);
ARM GAS  C:\Users\hh\AppData\Local\Temp\ccfq6ENc.s 			page 107


 3297              		.loc 1 587 5 view .LVU1013
 3298 00be 0022     		movs	r2, #0
 3299 00c0 1146     		mov	r1, r2
 3300 00c2 2046     		mov	r0, r4
 3301 00c4 FFF7FEFF 		bl	tcp_poll
 3302              	.LVL332:
 588:Middlewares/Third_Party/LwIP/src/api/api_msg.c ****     /* remove reference from to the pcb from this netconn */
 3303              		.loc 1 588 5 view .LVU1014
 3304 00c8 0021     		movs	r1, #0
 3305 00ca 2046     		mov	r0, r4
 3306 00cc FFF7FEFF 		bl	tcp_err
 3307              	.LVL333:
 590:Middlewares/Third_Party/LwIP/src/api/api_msg.c ****     /* no need to drain since we know the recvmbox is empty. */
 3308              		.loc 1 590 5 view .LVU1015
 590:Middlewares/Third_Party/LwIP/src/api/api_msg.c ****     /* no need to drain since we know the recvmbox is empty. */
 3309              		.loc 1 590 22 is_stmt 0 view .LVU1016
 3310 00d0 0023     		movs	r3, #0
 3311 00d2 7360     		str	r3, [r6, #4]
 592:Middlewares/Third_Party/LwIP/src/api/api_msg.c ****     sys_mbox_set_invalid(&newconn->recvmbox);
 3312              		.loc 1 592 5 is_stmt 1 view .LVU1017
 3313 00d4 06F11004 		add	r4, r6, #16
 3314              	.LVL334:
 592:Middlewares/Third_Party/LwIP/src/api/api_msg.c ****     sys_mbox_set_invalid(&newconn->recvmbox);
 3315              		.loc 1 592 5 is_stmt 0 view .LVU1018
 3316 00d8 2046     		mov	r0, r4
 3317 00da FFF7FEFF 		bl	sys_mbox_free
 3318              	.LVL335:
 593:Middlewares/Third_Party/LwIP/src/api/api_msg.c ****     netconn_free(newconn);
 3319              		.loc 1 593 5 is_stmt 1 view .LVU1019
 3320 00de 2046     		mov	r0, r4
 3321 00e0 FFF7FEFF 		bl	sys_mbox_set_invalid
 3322              	.LVL336:
 594:Middlewares/Third_Party/LwIP/src/api/api_msg.c ****     return ERR_MEM;
 3323              		.loc 1 594 5 view .LVU1020
 3324 00e4 3046     		mov	r0, r6
 3325 00e6 FFF7FEFF 		bl	netconn_free
 3326              	.LVL337:
 595:Middlewares/Third_Party/LwIP/src/api/api_msg.c ****   } else {
 3327              		.loc 1 595 5 view .LVU1021
 595:Middlewares/Third_Party/LwIP/src/api/api_msg.c ****   } else {
 3328              		.loc 1 595 12 is_stmt 0 view .LVU1022
 3329 00ea 4FF0FF35 		mov	r5, #-1
 3330 00ee ABE7     		b	.L272
 3331              	.LVL338:
 3332              	.L279:
 595:Middlewares/Third_Party/LwIP/src/api/api_msg.c ****   } else {
 3333              		.loc 1 595 12 view .LVU1023
 3334              	.LBE20:
 542:Middlewares/Third_Party/LwIP/src/api/api_msg.c ****   }
 3335              		.loc 1 542 12 view .LVU1024
 3336 00f0 6FF00505 		mvn	r5, #5
 3337 00f4 A8E7     		b	.L272
 3338              	.LVL339:
 3339              	.L280:
 546:Middlewares/Third_Party/LwIP/src/api/api_msg.c ****   }
 3340              		.loc 1 546 12 view .LVU1025
 3341 00f6 6FF00505 		mvn	r5, #5
ARM GAS  C:\Users\hh\AppData\Local\Temp\ccfq6ENc.s 			page 108


 3342              	.LVL340:
 546:Middlewares/Third_Party/LwIP/src/api/api_msg.c ****   }
 3343              		.loc 1 546 12 view .LVU1026
 3344 00fa A5E7     		b	.L272
 3345              	.L287:
 3346              		.align	2
 3347              	.L286:
 3348 00fc 00000000 		.word	.LC0
 3349 0100 00000000 		.word	.LC30
 3350 0104 40000000 		.word	.LC2
 3351              		.cfi_endproc
 3352              	.LFE179:
 3354              		.section	.rodata.lwip_netconn_do_delconn.str1.4,"aMS",%progbits,1
 3355              		.align	2
 3356              	.LC31:
 3357 0000 6E657463 		.ascii	"netconn state error\000"
 3357      6F6E6E20 
 3357      73746174 
 3357      65206572 
 3357      726F7200 
 3358              		.align	2
 3359              	.LC32:
 3360 0014 626C6F63 		.ascii	"blocking connect in progress\000"
 3360      6B696E67 
 3360      20636F6E 
 3360      6E656374 
 3360      20696E20 
 3361 0031 000000   		.align	2
 3362              	.LC33:
 3363 0034 616C7265 		.ascii	"already writing or closing\000"
 3363      61647920 
 3363      77726974 
 3363      696E6720 
 3363      6F722063 
 3364 004f 00       		.align	2
 3365              	.LC34:
 3366 0050 73746174 		.ascii	"state!\000"
 3366      652100
 3367              		.section	.text.lwip_netconn_do_delconn,"ax",%progbits
 3368              		.align	1
 3369              		.global	lwip_netconn_do_delconn
 3370              		.syntax unified
 3371              		.thumb
 3372              		.thumb_func
 3374              	lwip_netconn_do_delconn:
 3375              	.LVL341:
 3376              	.LFB186:
1118:Middlewares/Third_Party/LwIP/src/api/api_msg.c ****   struct api_msg *msg = (struct api_msg *)m;
 3377              		.loc 1 1118 1 is_stmt 1 view -0
 3378              		.cfi_startproc
 3379              		@ args = 0, pretend = 0, frame = 0
 3380              		@ frame_needed = 0, uses_anonymous_args = 0
1118:Middlewares/Third_Party/LwIP/src/api/api_msg.c ****   struct api_msg *msg = (struct api_msg *)m;
 3381              		.loc 1 1118 1 is_stmt 0 view .LVU1028
 3382 0000 38B5     		push	{r3, r4, r5, lr}
 3383              	.LCFI20:
 3384              		.cfi_def_cfa_offset 16
ARM GAS  C:\Users\hh\AppData\Local\Temp\ccfq6ENc.s 			page 109


 3385              		.cfi_offset 3, -16
 3386              		.cfi_offset 4, -12
 3387              		.cfi_offset 5, -8
 3388              		.cfi_offset 14, -4
 3389 0002 0446     		mov	r4, r0
1119:Middlewares/Third_Party/LwIP/src/api/api_msg.c **** 
 3390              		.loc 1 1119 3 is_stmt 1 view .LVU1029
 3391              	.LVL342:
1121:Middlewares/Third_Party/LwIP/src/api/api_msg.c ****   LWIP_ASSERT("netconn state error", /* this only happens for TCP netconns */
 3392              		.loc 1 1121 3 view .LVU1030
1121:Middlewares/Third_Party/LwIP/src/api/api_msg.c ****   LWIP_ASSERT("netconn state error", /* this only happens for TCP netconns */
 3393              		.loc 1 1121 33 is_stmt 0 view .LVU1031
 3394 0004 0368     		ldr	r3, [r0]
1121:Middlewares/Third_Party/LwIP/src/api/api_msg.c ****   LWIP_ASSERT("netconn state error", /* this only happens for TCP netconns */
 3395              		.loc 1 1121 22 view .LVU1032
 3396 0006 5D78     		ldrb	r5, [r3, #1]	@ zero_extendqisi2
 3397              	.LVL343:
1122:Middlewares/Third_Party/LwIP/src/api/api_msg.c ****               (state == NETCONN_NONE) || (NETCONNTYPE_GROUP(msg->conn->type) == NETCONN_TCP));
 3398              		.loc 1 1122 3 is_stmt 1 view .LVU1033
1122:Middlewares/Third_Party/LwIP/src/api/api_msg.c ****               (state == NETCONN_NONE) || (NETCONNTYPE_GROUP(msg->conn->type) == NETCONN_TCP));
 3399              		.loc 1 1122 3 view .LVU1034
 3400 0008 25B1     		cbz	r5, .L289
1122:Middlewares/Third_Party/LwIP/src/api/api_msg.c ****               (state == NETCONN_NONE) || (NETCONNTYPE_GROUP(msg->conn->type) == NETCONN_TCP));
 3401              		.loc 1 1122 3 is_stmt 0 discriminator 1 view .LVU1035
 3402 000a 1B78     		ldrb	r3, [r3]	@ zero_extendqisi2
 3403 000c 03F0F003 		and	r3, r3, #240
 3404 0010 102B     		cmp	r3, #16
 3405 0012 0CD1     		bne	.L302
 3406              	.LVL344:
 3407              	.L289:
1122:Middlewares/Third_Party/LwIP/src/api/api_msg.c ****               (state == NETCONN_NONE) || (NETCONNTYPE_GROUP(msg->conn->type) == NETCONN_TCP));
 3408              		.loc 1 1122 3 is_stmt 1 view .LVU1036
1122:Middlewares/Third_Party/LwIP/src/api/api_msg.c ****               (state == NETCONN_NONE) || (NETCONNTYPE_GROUP(msg->conn->type) == NETCONN_TCP));
 3409              		.loc 1 1122 3 view .LVU1037
1140:Middlewares/Third_Party/LwIP/src/api/api_msg.c ****        (state != NETCONN_LISTEN) &&
 3410              		.loc 1 1140 3 view .LVU1038
1140:Middlewares/Third_Party/LwIP/src/api/api_msg.c ****        (state != NETCONN_LISTEN) &&
 3411              		.loc 1 1140 6 is_stmt 0 view .LVU1039
 3412 0014 002D     		cmp	r5, #0
 3413 0016 18BF     		it	ne
 3414 0018 022D     		cmpne	r5, #2
 3415 001a 15D0     		beq	.L290
1141:Middlewares/Third_Party/LwIP/src/api/api_msg.c ****        (state != NETCONN_CONNECT)) ||
 3416              		.loc 1 1141 34 view .LVU1040
 3417 001c 032D     		cmp	r5, #3
 3418 001e 0ED0     		beq	.L303
 3419              	.L291:
1146:Middlewares/Third_Party/LwIP/src/api/api_msg.c ****   } else
 3420              		.loc 1 1146 5 is_stmt 1 view .LVU1041
1146:Middlewares/Third_Party/LwIP/src/api/api_msg.c ****   } else
 3421              		.loc 1 1146 14 is_stmt 0 view .LVU1042
 3422 0020 FB23     		movs	r3, #251
 3423 0022 2371     		strb	r3, [r4, #4]
 3424              	.L292:
1205:Middlewares/Third_Party/LwIP/src/api/api_msg.c ****   }
 3425              		.loc 1 1205 50 is_stmt 1 view .LVU1043
1207:Middlewares/Third_Party/LwIP/src/api/api_msg.c ****     TCPIP_APIMSG_ACK(msg);
ARM GAS  C:\Users\hh\AppData\Local\Temp\ccfq6ENc.s 			page 110


 3426              		.loc 1 1207 3 view .LVU1044
1207:Middlewares/Third_Party/LwIP/src/api/api_msg.c ****     TCPIP_APIMSG_ACK(msg);
 3427              		.loc 1 1207 21 is_stmt 0 view .LVU1045
 3428 0024 2068     		ldr	r0, [r4]
1207:Middlewares/Third_Party/LwIP/src/api/api_msg.c ****     TCPIP_APIMSG_ACK(msg);
 3429              		.loc 1 1207 7 view .LVU1046
 3430 0026 0C30     		adds	r0, r0, #12
 3431 0028 FFF7FEFF 		bl	sys_sem_valid
 3432              	.LVL345:
1208:Middlewares/Third_Party/LwIP/src/api/api_msg.c ****   }
 3433              		.loc 1 1208 26 is_stmt 1 view .LVU1047
 3434              	.L288:
1210:Middlewares/Third_Party/LwIP/src/api/api_msg.c **** 
 3435              		.loc 1 1210 1 is_stmt 0 view .LVU1048
 3436 002c 38BD     		pop	{r3, r4, r5, pc}
 3437              	.LVL346:
 3438              	.L302:
1122:Middlewares/Third_Party/LwIP/src/api/api_msg.c ****               (state == NETCONN_NONE) || (NETCONNTYPE_GROUP(msg->conn->type) == NETCONN_TCP));
 3439              		.loc 1 1122 3 is_stmt 1 discriminator 2 view .LVU1049
1122:Middlewares/Third_Party/LwIP/src/api/api_msg.c ****               (state == NETCONN_NONE) || (NETCONNTYPE_GROUP(msg->conn->type) == NETCONN_TCP));
 3440              		.loc 1 1122 3 discriminator 2 view .LVU1050
 3441 002e 394B     		ldr	r3, .L307
 3442 0030 40F26242 		movw	r2, #1122
 3443 0034 3849     		ldr	r1, .L307+4
 3444 0036 3948     		ldr	r0, .L307+8
 3445              	.LVL347:
1122:Middlewares/Third_Party/LwIP/src/api/api_msg.c ****               (state == NETCONN_NONE) || (NETCONNTYPE_GROUP(msg->conn->type) == NETCONN_TCP));
 3446              		.loc 1 1122 3 is_stmt 0 discriminator 2 view .LVU1051
 3447 0038 FFF7FEFF 		bl	printf
 3448              	.LVL348:
 3449 003c EAE7     		b	.L289
 3450              	.L303:
1143:Middlewares/Third_Party/LwIP/src/api/api_msg.c ****     /* This means either a blocking write or blocking connect is running
 3451              		.loc 1 1143 39 view .LVU1052
 3452 003e 2368     		ldr	r3, [r4]
 3453 0040 1B7F     		ldrb	r3, [r3, #28]	@ zero_extendqisi2
1143:Middlewares/Third_Party/LwIP/src/api/api_msg.c ****     /* This means either a blocking write or blocking connect is running
 3454              		.loc 1 1143 35 view .LVU1053
 3455 0042 13F0040F 		tst	r3, #4
 3456 0046 EBD0     		beq	.L291
 3457              	.L290:
1150:Middlewares/Third_Party/LwIP/src/api/api_msg.c ****                 (state != NETCONN_CONNECT) || IN_NONBLOCKING_CONNECT(msg->conn));
 3458              		.loc 1 1150 5 is_stmt 1 view .LVU1054
1150:Middlewares/Third_Party/LwIP/src/api/api_msg.c ****                 (state != NETCONN_CONNECT) || IN_NONBLOCKING_CONNECT(msg->conn));
 3459              		.loc 1 1150 5 view .LVU1055
 3460 0048 032D     		cmp	r5, #3
 3461 004a 1CD0     		beq	.L304
 3462              	.L293:
1150:Middlewares/Third_Party/LwIP/src/api/api_msg.c ****                 (state != NETCONN_CONNECT) || IN_NONBLOCKING_CONNECT(msg->conn));
 3463              		.loc 1 1150 5 view .LVU1056
1150:Middlewares/Third_Party/LwIP/src/api/api_msg.c ****                 (state != NETCONN_CONNECT) || IN_NONBLOCKING_CONNECT(msg->conn));
 3464              		.loc 1 1150 5 view .LVU1057
1152:Middlewares/Third_Party/LwIP/src/api/api_msg.c **** #if LWIP_NETCONN_FULLDUPLEX
 3465              		.loc 1 1152 5 view .LVU1058
1152:Middlewares/Third_Party/LwIP/src/api/api_msg.c **** #if LWIP_NETCONN_FULLDUPLEX
 3466              		.loc 1 1152 14 is_stmt 0 view .LVU1059
 3467 004c 0023     		movs	r3, #0
ARM GAS  C:\Users\hh\AppData\Local\Temp\ccfq6ENc.s 			page 111


 3468 004e 2371     		strb	r3, [r4, #4]
1157:Middlewares/Third_Party/LwIP/src/api/api_msg.c **** #endif /* LWIP_NETCONN_FULLDUPLEX */
 3469              		.loc 1 1157 5 is_stmt 1 view .LVU1060
 3470 0050 2068     		ldr	r0, [r4]
 3471 0052 FFF7FEFF 		bl	netconn_drain
 3472              	.LVL349:
1160:Middlewares/Third_Party/LwIP/src/api/api_msg.c **** 
 3473              		.loc 1 1160 5 view .LVU1061
1160:Middlewares/Third_Party/LwIP/src/api/api_msg.c **** 
 3474              		.loc 1 1160 12 is_stmt 0 view .LVU1062
 3475 0056 2368     		ldr	r3, [r4]
1160:Middlewares/Third_Party/LwIP/src/api/api_msg.c **** 
 3476              		.loc 1 1160 23 view .LVU1063
 3477 0058 5A68     		ldr	r2, [r3, #4]
1160:Middlewares/Third_Party/LwIP/src/api/api_msg.c **** 
 3478              		.loc 1 1160 8 view .LVU1064
 3479 005a 32B1     		cbz	r2, .L294
1162:Middlewares/Third_Party/LwIP/src/api/api_msg.c **** #if LWIP_RAW
 3480              		.loc 1 1162 7 is_stmt 1 view .LVU1065
1162:Middlewares/Third_Party/LwIP/src/api/api_msg.c **** #if LWIP_RAW
 3481              		.loc 1 1162 15 is_stmt 0 view .LVU1066
 3482 005c 1A78     		ldrb	r2, [r3]	@ zero_extendqisi2
1162:Middlewares/Third_Party/LwIP/src/api/api_msg.c **** #if LWIP_RAW
 3483              		.loc 1 1162 7 view .LVU1067
 3484 005e 02F0F002 		and	r2, r2, #240
 3485 0062 102A     		cmp	r2, #16
 3486 0064 1CD0     		beq	.L305
1196:Middlewares/Third_Party/LwIP/src/api/api_msg.c ****       }
 3487              		.loc 1 1196 11 is_stmt 1 view .LVU1068
1198:Middlewares/Third_Party/LwIP/src/api/api_msg.c ****     }
 3488              		.loc 1 1198 7 view .LVU1069
1198:Middlewares/Third_Party/LwIP/src/api/api_msg.c ****     }
 3489              		.loc 1 1198 26 is_stmt 0 view .LVU1070
 3490 0066 0022     		movs	r2, #0
 3491 0068 5A60     		str	r2, [r3, #4]
 3492              	.L294:
1204:Middlewares/Third_Party/LwIP/src/api/api_msg.c ****     API_EVENT(msg->conn, NETCONN_EVT_SENDPLUS, 0);
 3493              		.loc 1 1204 5 is_stmt 1 view .LVU1071
 3494 006a 2068     		ldr	r0, [r4]
 3495 006c 436A     		ldr	r3, [r0, #36]
 3496 006e 13B1     		cbz	r3, .L300
1204:Middlewares/Third_Party/LwIP/src/api/api_msg.c ****     API_EVENT(msg->conn, NETCONN_EVT_SENDPLUS, 0);
 3497              		.loc 1 1204 5 discriminator 1 view .LVU1072
 3498 0070 0022     		movs	r2, #0
 3499 0072 1146     		mov	r1, r2
 3500 0074 9847     		blx	r3
 3501              	.LVL350:
 3502              	.L300:
1204:Middlewares/Third_Party/LwIP/src/api/api_msg.c ****     API_EVENT(msg->conn, NETCONN_EVT_SENDPLUS, 0);
 3503              		.loc 1 1204 49 view .LVU1073
1205:Middlewares/Third_Party/LwIP/src/api/api_msg.c ****   }
 3504              		.loc 1 1205 5 view .LVU1074
 3505 0076 2068     		ldr	r0, [r4]
 3506 0078 436A     		ldr	r3, [r0, #36]
 3507 007a 002B     		cmp	r3, #0
 3508 007c D2D0     		beq	.L292
1205:Middlewares/Third_Party/LwIP/src/api/api_msg.c ****   }
ARM GAS  C:\Users\hh\AppData\Local\Temp\ccfq6ENc.s 			page 112


 3509              		.loc 1 1205 5 discriminator 1 view .LVU1075
 3510 007e 0022     		movs	r2, #0
 3511 0080 0221     		movs	r1, #2
 3512 0082 9847     		blx	r3
 3513              	.LVL351:
 3514 0084 CEE7     		b	.L292
 3515              	.L304:
1150:Middlewares/Third_Party/LwIP/src/api/api_msg.c ****                 (state != NETCONN_CONNECT) || IN_NONBLOCKING_CONNECT(msg->conn));
 3516              		.loc 1 1150 5 is_stmt 0 discriminator 1 view .LVU1076
 3517 0086 2368     		ldr	r3, [r4]
 3518 0088 1B7F     		ldrb	r3, [r3, #28]	@ zero_extendqisi2
 3519 008a 13F0040F 		tst	r3, #4
 3520 008e DDD1     		bne	.L293
1150:Middlewares/Third_Party/LwIP/src/api/api_msg.c ****                 (state != NETCONN_CONNECT) || IN_NONBLOCKING_CONNECT(msg->conn));
 3521              		.loc 1 1150 5 is_stmt 1 discriminator 2 view .LVU1077
1150:Middlewares/Third_Party/LwIP/src/api/api_msg.c ****                 (state != NETCONN_CONNECT) || IN_NONBLOCKING_CONNECT(msg->conn));
 3522              		.loc 1 1150 5 discriminator 2 view .LVU1078
 3523 0090 204B     		ldr	r3, .L307
 3524 0092 40F27E42 		movw	r2, #1150
 3525 0096 2249     		ldr	r1, .L307+12
 3526 0098 2048     		ldr	r0, .L307+8
 3527 009a FFF7FEFF 		bl	printf
 3528              	.LVL352:
 3529 009e D5E7     		b	.L293
 3530              	.L305:
1176:Middlewares/Third_Party/LwIP/src/api/api_msg.c ****           msg->conn->state = NETCONN_CLOSE;
 3531              		.loc 1 1176 11 view .LVU1079
1176:Middlewares/Third_Party/LwIP/src/api/api_msg.c ****           msg->conn->state = NETCONN_CLOSE;
 3532              		.loc 1 1176 11 view .LVU1080
 3533 00a0 1B6A     		ldr	r3, [r3, #32]
 3534 00a2 33B1     		cbz	r3, .L296
1176:Middlewares/Third_Party/LwIP/src/api/api_msg.c ****           msg->conn->state = NETCONN_CLOSE;
 3535              		.loc 1 1176 11 discriminator 1 view .LVU1081
1176:Middlewares/Third_Party/LwIP/src/api/api_msg.c ****           msg->conn->state = NETCONN_CLOSE;
 3536              		.loc 1 1176 11 discriminator 1 view .LVU1082
 3537 00a4 1B4B     		ldr	r3, .L307
 3538 00a6 4FF49362 		mov	r2, #1176
 3539 00aa 1E49     		ldr	r1, .L307+16
 3540 00ac 1B48     		ldr	r0, .L307+8
 3541 00ae FFF7FEFF 		bl	printf
 3542              	.LVL353:
 3543              	.L296:
1176:Middlewares/Third_Party/LwIP/src/api/api_msg.c ****           msg->conn->state = NETCONN_CLOSE;
 3544              		.loc 1 1176 11 view .LVU1083
1176:Middlewares/Third_Party/LwIP/src/api/api_msg.c ****           msg->conn->state = NETCONN_CLOSE;
 3545              		.loc 1 1176 11 view .LVU1084
1177:Middlewares/Third_Party/LwIP/src/api/api_msg.c ****           msg->msg.sd.shut = NETCONN_SHUT_RDWR;
 3546              		.loc 1 1177 11 view .LVU1085
1177:Middlewares/Third_Party/LwIP/src/api/api_msg.c ****           msg->msg.sd.shut = NETCONN_SHUT_RDWR;
 3547              		.loc 1 1177 14 is_stmt 0 view .LVU1086
 3548 00b2 2368     		ldr	r3, [r4]
1177:Middlewares/Third_Party/LwIP/src/api/api_msg.c ****           msg->msg.sd.shut = NETCONN_SHUT_RDWR;
 3549              		.loc 1 1177 28 view .LVU1087
 3550 00b4 0422     		movs	r2, #4
 3551 00b6 5A70     		strb	r2, [r3, #1]
1178:Middlewares/Third_Party/LwIP/src/api/api_msg.c ****           msg->conn->current_msg = msg;
 3552              		.loc 1 1178 11 is_stmt 1 view .LVU1088
ARM GAS  C:\Users\hh\AppData\Local\Temp\ccfq6ENc.s 			page 113


1178:Middlewares/Third_Party/LwIP/src/api/api_msg.c ****           msg->conn->current_msg = msg;
 3553              		.loc 1 1178 28 is_stmt 0 view .LVU1089
 3554 00b8 0323     		movs	r3, #3
 3555 00ba 2372     		strb	r3, [r4, #8]
1179:Middlewares/Third_Party/LwIP/src/api/api_msg.c **** #if LWIP_TCPIP_CORE_LOCKING
 3556              		.loc 1 1179 11 is_stmt 1 view .LVU1090
1179:Middlewares/Third_Party/LwIP/src/api/api_msg.c **** #if LWIP_TCPIP_CORE_LOCKING
 3557              		.loc 1 1179 14 is_stmt 0 view .LVU1091
 3558 00bc 2368     		ldr	r3, [r4]
1179:Middlewares/Third_Party/LwIP/src/api/api_msg.c **** #if LWIP_TCPIP_CORE_LOCKING
 3559              		.loc 1 1179 34 view .LVU1092
 3560 00be 1C62     		str	r4, [r3, #32]
1181:Middlewares/Third_Party/LwIP/src/api/api_msg.c ****             LWIP_ASSERT("state!", msg->conn->state == NETCONN_CLOSE);
 3561              		.loc 1 1181 11 is_stmt 1 view .LVU1093
1181:Middlewares/Third_Party/LwIP/src/api/api_msg.c ****             LWIP_ASSERT("state!", msg->conn->state == NETCONN_CLOSE);
 3562              		.loc 1 1181 15 is_stmt 0 view .LVU1094
 3563 00c0 0021     		movs	r1, #0
 3564 00c2 2068     		ldr	r0, [r4]
 3565 00c4 FFF7FEFF 		bl	lwip_netconn_do_close_internal
 3566              	.LVL354:
1181:Middlewares/Third_Party/LwIP/src/api/api_msg.c ****             LWIP_ASSERT("state!", msg->conn->state == NETCONN_CLOSE);
 3567              		.loc 1 1181 14 discriminator 1 view .LVU1095
 3568 00c8 0028     		cmp	r0, #0
 3569 00ca AFD0     		beq	.L288
1182:Middlewares/Third_Party/LwIP/src/api/api_msg.c ****             UNLOCK_TCPIP_CORE();
 3570              		.loc 1 1182 13 is_stmt 1 view .LVU1096
1182:Middlewares/Third_Party/LwIP/src/api/api_msg.c ****             UNLOCK_TCPIP_CORE();
 3571              		.loc 1 1182 13 view .LVU1097
 3572 00cc 2368     		ldr	r3, [r4]
 3573 00ce 5B78     		ldrb	r3, [r3, #1]	@ zero_extendqisi2
 3574 00d0 042B     		cmp	r3, #4
 3575 00d2 17D1     		bne	.L306
 3576              	.L298:
1182:Middlewares/Third_Party/LwIP/src/api/api_msg.c ****             UNLOCK_TCPIP_CORE();
 3577              		.loc 1 1182 13 view .LVU1098
1182:Middlewares/Third_Party/LwIP/src/api/api_msg.c ****             UNLOCK_TCPIP_CORE();
 3578              		.loc 1 1182 13 view .LVU1099
1183:Middlewares/Third_Party/LwIP/src/api/api_msg.c ****             sys_arch_sem_wait(LWIP_API_MSG_SEM(msg), 0);
 3579              		.loc 1 1183 13 view .LVU1100
 3580 00d4 144D     		ldr	r5, .L307+20
 3581              	.LVL355:
1183:Middlewares/Third_Party/LwIP/src/api/api_msg.c ****             sys_arch_sem_wait(LWIP_API_MSG_SEM(msg), 0);
 3582              		.loc 1 1183 13 is_stmt 0 view .LVU1101
 3583 00d6 2846     		mov	r0, r5
 3584 00d8 FFF7FEFF 		bl	sys_mutex_unlock
 3585              	.LVL356:
1184:Middlewares/Third_Party/LwIP/src/api/api_msg.c ****             LOCK_TCPIP_CORE();
 3586              		.loc 1 1184 13 is_stmt 1 view .LVU1102
1184:Middlewares/Third_Party/LwIP/src/api/api_msg.c ****             LOCK_TCPIP_CORE();
 3587              		.loc 1 1184 31 is_stmt 0 view .LVU1103
 3588 00dc 2068     		ldr	r0, [r4]
1184:Middlewares/Third_Party/LwIP/src/api/api_msg.c ****             LOCK_TCPIP_CORE();
 3589              		.loc 1 1184 13 view .LVU1104
 3590 00de 0021     		movs	r1, #0
 3591 00e0 0C30     		adds	r0, r0, #12
 3592 00e2 FFF7FEFF 		bl	sys_arch_sem_wait
 3593              	.LVL357:
ARM GAS  C:\Users\hh\AppData\Local\Temp\ccfq6ENc.s 			page 114


1185:Middlewares/Third_Party/LwIP/src/api/api_msg.c ****             LWIP_ASSERT("state!", msg->conn->state == NETCONN_NONE);
 3594              		.loc 1 1185 13 is_stmt 1 view .LVU1105
 3595 00e6 2846     		mov	r0, r5
 3596 00e8 FFF7FEFF 		bl	sys_mutex_lock
 3597              	.LVL358:
1186:Middlewares/Third_Party/LwIP/src/api/api_msg.c ****           }
 3598              		.loc 1 1186 13 view .LVU1106
1186:Middlewares/Third_Party/LwIP/src/api/api_msg.c ****           }
 3599              		.loc 1 1186 13 view .LVU1107
 3600 00ec 2368     		ldr	r3, [r4]
 3601 00ee 5B78     		ldrb	r3, [r3, #1]	@ zero_extendqisi2
 3602 00f0 002B     		cmp	r3, #0
 3603 00f2 9BD0     		beq	.L288
1186:Middlewares/Third_Party/LwIP/src/api/api_msg.c ****           }
 3604              		.loc 1 1186 13 discriminator 1 view .LVU1108
1186:Middlewares/Third_Party/LwIP/src/api/api_msg.c ****           }
 3605              		.loc 1 1186 13 discriminator 1 view .LVU1109
 3606 00f4 074B     		ldr	r3, .L307
 3607 00f6 40F2A242 		movw	r2, #1186
 3608 00fa 0C49     		ldr	r1, .L307+24
 3609 00fc 0748     		ldr	r0, .L307+8
 3610 00fe FFF7FEFF 		bl	printf
 3611              	.LVL359:
1186:Middlewares/Third_Party/LwIP/src/api/api_msg.c ****           }
 3612              		.loc 1 1186 13 view .LVU1110
1186:Middlewares/Third_Party/LwIP/src/api/api_msg.c ****           }
 3613              		.loc 1 1186 13 view .LVU1111
1193:Middlewares/Third_Party/LwIP/src/api/api_msg.c **** #endif /* LWIP_TCP */
 3614              		.loc 1 1193 11 view .LVU1112
 3615 0102 93E7     		b	.L288
 3616              	.LVL360:
 3617              	.L306:
1182:Middlewares/Third_Party/LwIP/src/api/api_msg.c ****             UNLOCK_TCPIP_CORE();
 3618              		.loc 1 1182 13 discriminator 1 view .LVU1113
1182:Middlewares/Third_Party/LwIP/src/api/api_msg.c ****             UNLOCK_TCPIP_CORE();
 3619              		.loc 1 1182 13 discriminator 1 view .LVU1114
 3620 0104 034B     		ldr	r3, .L307
 3621 0106 40F29E42 		movw	r2, #1182
 3622 010a 0849     		ldr	r1, .L307+24
 3623 010c 0348     		ldr	r0, .L307+8
 3624 010e FFF7FEFF 		bl	printf
 3625              	.LVL361:
 3626 0112 DFE7     		b	.L298
 3627              	.L308:
 3628              		.align	2
 3629              	.L307:
 3630 0114 00000000 		.word	.LC0
 3631 0118 00000000 		.word	.LC31
 3632 011c 40000000 		.word	.LC2
 3633 0120 14000000 		.word	.LC32
 3634 0124 34000000 		.word	.LC33
 3635 0128 00000000 		.word	lock_tcpip_core
 3636 012c 50000000 		.word	.LC34
 3637              		.cfi_endproc
 3638              	.LFE186:
 3640              		.section	.text.lwip_netconn_do_bind,"ax",%progbits
 3641              		.align	1
ARM GAS  C:\Users\hh\AppData\Local\Temp\ccfq6ENc.s 			page 115


 3642              		.global	lwip_netconn_do_bind
 3643              		.syntax unified
 3644              		.thumb
 3645              		.thumb_func
 3647              	lwip_netconn_do_bind:
 3648              	.LVL362:
 3649              	.LFB187:
1221:Middlewares/Third_Party/LwIP/src/api/api_msg.c ****   struct api_msg *msg = (struct api_msg *)m;
 3650              		.loc 1 1221 1 view -0
 3651              		.cfi_startproc
 3652              		@ args = 0, pretend = 0, frame = 0
 3653              		@ frame_needed = 0, uses_anonymous_args = 0
1221:Middlewares/Third_Party/LwIP/src/api/api_msg.c ****   struct api_msg *msg = (struct api_msg *)m;
 3654              		.loc 1 1221 1 is_stmt 0 view .LVU1116
 3655 0000 10B5     		push	{r4, lr}
 3656              	.LCFI21:
 3657              		.cfi_def_cfa_offset 8
 3658              		.cfi_offset 4, -8
 3659              		.cfi_offset 14, -4
 3660 0002 0446     		mov	r4, r0
1222:Middlewares/Third_Party/LwIP/src/api/api_msg.c ****   err_t err;
 3661              		.loc 1 1222 3 is_stmt 1 view .LVU1117
 3662              	.LVL363:
1223:Middlewares/Third_Party/LwIP/src/api/api_msg.c **** 
 3663              		.loc 1 1223 3 view .LVU1118
1225:Middlewares/Third_Party/LwIP/src/api/api_msg.c ****     switch (NETCONNTYPE_GROUP(msg->conn->type)) {
 3664              		.loc 1 1225 3 view .LVU1119
1225:Middlewares/Third_Party/LwIP/src/api/api_msg.c ****     switch (NETCONNTYPE_GROUP(msg->conn->type)) {
 3665              		.loc 1 1225 10 is_stmt 0 view .LVU1120
 3666 0004 0368     		ldr	r3, [r0]
1225:Middlewares/Third_Party/LwIP/src/api/api_msg.c ****     switch (NETCONNTYPE_GROUP(msg->conn->type)) {
 3667              		.loc 1 1225 21 view .LVU1121
 3668 0006 5868     		ldr	r0, [r3, #4]
 3669              	.LVL364:
1225:Middlewares/Third_Party/LwIP/src/api/api_msg.c ****     switch (NETCONNTYPE_GROUP(msg->conn->type)) {
 3670              		.loc 1 1225 6 view .LVU1122
 3671 0008 68B1     		cbz	r0, .L311
1226:Middlewares/Third_Party/LwIP/src/api/api_msg.c **** #if LWIP_RAW
 3672              		.loc 1 1226 5 is_stmt 1 view .LVU1123
1226:Middlewares/Third_Party/LwIP/src/api/api_msg.c **** #if LWIP_RAW
 3673              		.loc 1 1226 13 is_stmt 0 view .LVU1124
 3674 000a 1B78     		ldrb	r3, [r3]	@ zero_extendqisi2
1226:Middlewares/Third_Party/LwIP/src/api/api_msg.c **** #if LWIP_RAW
 3675              		.loc 1 1226 5 view .LVU1125
 3676 000c 03F0F003 		and	r3, r3, #240
 3677 0010 102B     		cmp	r3, #16
 3678 0012 03D0     		beq	.L314
1243:Middlewares/Third_Party/LwIP/src/api/api_msg.c ****         break;
 3679              		.loc 1 1243 13 view .LVU1126
 3680 0014 6FF00500 		mvn	r0, #5
 3681              	.L310:
 3682              	.LVL365:
1249:Middlewares/Third_Party/LwIP/src/api/api_msg.c ****   TCPIP_APIMSG_ACK(msg);
 3683              		.loc 1 1249 3 is_stmt 1 view .LVU1127
1249:Middlewares/Third_Party/LwIP/src/api/api_msg.c ****   TCPIP_APIMSG_ACK(msg);
 3684              		.loc 1 1249 12 is_stmt 0 view .LVU1128
 3685 0018 2071     		strb	r0, [r4, #4]
ARM GAS  C:\Users\hh\AppData\Local\Temp\ccfq6ENc.s 			page 116


1250:Middlewares/Third_Party/LwIP/src/api/api_msg.c **** }
 3686              		.loc 1 1250 24 is_stmt 1 view .LVU1129
1251:Middlewares/Third_Party/LwIP/src/api/api_msg.c **** /**
 3687              		.loc 1 1251 1 is_stmt 0 view .LVU1130
 3688 001a 10BD     		pop	{r4, pc}
 3689              	.LVL366:
 3690              	.L314:
1239:Middlewares/Third_Party/LwIP/src/api/api_msg.c ****         break;
 3691              		.loc 1 1239 9 is_stmt 1 view .LVU1131
1239:Middlewares/Third_Party/LwIP/src/api/api_msg.c ****         break;
 3692              		.loc 1 1239 15 is_stmt 0 view .LVU1132
 3693 001c A289     		ldrh	r2, [r4, #12]
 3694 001e A168     		ldr	r1, [r4, #8]
 3695 0020 FFF7FEFF 		bl	tcp_bind
 3696              	.LVL367:
1240:Middlewares/Third_Party/LwIP/src/api/api_msg.c **** #endif /* LWIP_TCP */
 3697              		.loc 1 1240 9 is_stmt 1 view .LVU1133
 3698 0024 F8E7     		b	.L310
 3699              	.LVL368:
 3700              	.L311:
1247:Middlewares/Third_Party/LwIP/src/api/api_msg.c ****   }
 3701              		.loc 1 1247 9 is_stmt 0 view .LVU1134
 3702 0026 6FF00500 		mvn	r0, #5
 3703 002a F5E7     		b	.L310
 3704              		.cfi_endproc
 3705              	.LFE187:
 3707              		.section	.text.lwip_netconn_do_bind_if,"ax",%progbits
 3708              		.align	1
 3709              		.global	lwip_netconn_do_bind_if
 3710              		.syntax unified
 3711              		.thumb
 3712              		.thumb_func
 3714              	lwip_netconn_do_bind_if:
 3715              	.LVL369:
 3716              	.LFB188:
1261:Middlewares/Third_Party/LwIP/src/api/api_msg.c ****   struct netif *netif;
 3717              		.loc 1 1261 1 is_stmt 1 view -0
 3718              		.cfi_startproc
 3719              		@ args = 0, pretend = 0, frame = 0
 3720              		@ frame_needed = 0, uses_anonymous_args = 0
1261:Middlewares/Third_Party/LwIP/src/api/api_msg.c ****   struct netif *netif;
 3721              		.loc 1 1261 1 is_stmt 0 view .LVU1136
 3722 0000 10B5     		push	{r4, lr}
 3723              	.LCFI22:
 3724              		.cfi_def_cfa_offset 8
 3725              		.cfi_offset 4, -8
 3726              		.cfi_offset 14, -4
 3727 0002 0446     		mov	r4, r0
1262:Middlewares/Third_Party/LwIP/src/api/api_msg.c ****   struct api_msg *msg = (struct api_msg *)m;
 3728              		.loc 1 1262 3 is_stmt 1 view .LVU1137
1263:Middlewares/Third_Party/LwIP/src/api/api_msg.c ****   err_t err;
 3729              		.loc 1 1263 3 view .LVU1138
 3730              	.LVL370:
1264:Middlewares/Third_Party/LwIP/src/api/api_msg.c **** 
 3731              		.loc 1 1264 3 view .LVU1139
1266:Middlewares/Third_Party/LwIP/src/api/api_msg.c **** 
 3732              		.loc 1 1266 3 view .LVU1140
ARM GAS  C:\Users\hh\AppData\Local\Temp\ccfq6ENc.s 			page 117


1266:Middlewares/Third_Party/LwIP/src/api/api_msg.c **** 
 3733              		.loc 1 1266 11 is_stmt 0 view .LVU1141
 3734 0004 807B     		ldrb	r0, [r0, #14]	@ zero_extendqisi2
 3735              	.LVL371:
1266:Middlewares/Third_Party/LwIP/src/api/api_msg.c **** 
 3736              		.loc 1 1266 11 view .LVU1142
 3737 0006 FFF7FEFF 		bl	netif_get_by_index
 3738              	.LVL372:
1268:Middlewares/Third_Party/LwIP/src/api/api_msg.c ****     err = ERR_OK;
 3739              		.loc 1 1268 3 is_stmt 1 view .LVU1143
1268:Middlewares/Third_Party/LwIP/src/api/api_msg.c ****     err = ERR_OK;
 3740              		.loc 1 1268 6 is_stmt 0 view .LVU1144
 3741 000a 80B1     		cbz	r0, .L317
 3742 000c 0146     		mov	r1, r0
1268:Middlewares/Third_Party/LwIP/src/api/api_msg.c ****     err = ERR_OK;
 3743              		.loc 1 1268 30 discriminator 1 view .LVU1145
 3744 000e 2368     		ldr	r3, [r4]
1268:Middlewares/Third_Party/LwIP/src/api/api_msg.c ****     err = ERR_OK;
 3745              		.loc 1 1268 41 discriminator 1 view .LVU1146
 3746 0010 5868     		ldr	r0, [r3, #4]
 3747              	.LVL373:
1268:Middlewares/Third_Party/LwIP/src/api/api_msg.c ****     err = ERR_OK;
 3748              		.loc 1 1268 23 discriminator 1 view .LVU1147
 3749 0012 78B1     		cbz	r0, .L318
1269:Middlewares/Third_Party/LwIP/src/api/api_msg.c ****     switch (NETCONNTYPE_GROUP(msg->conn->type)) {
 3750              		.loc 1 1269 5 is_stmt 1 view .LVU1148
 3751              	.LVL374:
1270:Middlewares/Third_Party/LwIP/src/api/api_msg.c **** #if LWIP_RAW
 3752              		.loc 1 1270 5 view .LVU1149
1270:Middlewares/Third_Party/LwIP/src/api/api_msg.c **** #if LWIP_RAW
 3753              		.loc 1 1270 13 is_stmt 0 view .LVU1150
 3754 0014 1B78     		ldrb	r3, [r3]	@ zero_extendqisi2
1270:Middlewares/Third_Party/LwIP/src/api/api_msg.c **** #if LWIP_RAW
 3755              		.loc 1 1270 5 view .LVU1151
 3756 0016 03F0F003 		and	r3, r3, #240
 3757 001a 102B     		cmp	r3, #16
 3758 001c 03D0     		beq	.L321
1287:Middlewares/Third_Party/LwIP/src/api/api_msg.c ****         break;
 3759              		.loc 1 1287 13 view .LVU1152
 3760 001e 6FF00503 		mvn	r3, #5
 3761              	.LVL375:
 3762              	.L316:
1293:Middlewares/Third_Party/LwIP/src/api/api_msg.c ****   TCPIP_APIMSG_ACK(msg);
 3763              		.loc 1 1293 3 is_stmt 1 view .LVU1153
1293:Middlewares/Third_Party/LwIP/src/api/api_msg.c ****   TCPIP_APIMSG_ACK(msg);
 3764              		.loc 1 1293 12 is_stmt 0 view .LVU1154
 3765 0022 2371     		strb	r3, [r4, #4]
1294:Middlewares/Third_Party/LwIP/src/api/api_msg.c **** }
 3766              		.loc 1 1294 24 is_stmt 1 view .LVU1155
1295:Middlewares/Third_Party/LwIP/src/api/api_msg.c **** 
 3767              		.loc 1 1295 1 is_stmt 0 view .LVU1156
 3768 0024 10BD     		pop	{r4, pc}
 3769              	.LVL376:
 3770              	.L321:
1283:Middlewares/Third_Party/LwIP/src/api/api_msg.c ****         break;
 3771              		.loc 1 1283 9 is_stmt 1 view .LVU1157
 3772 0026 FFF7FEFF 		bl	tcp_bind_netif
ARM GAS  C:\Users\hh\AppData\Local\Temp\ccfq6ENc.s 			page 118


 3773              	.LVL377:
1284:Middlewares/Third_Party/LwIP/src/api/api_msg.c **** #endif /* LWIP_TCP */
 3774              		.loc 1 1284 9 view .LVU1158
1269:Middlewares/Third_Party/LwIP/src/api/api_msg.c ****     switch (NETCONNTYPE_GROUP(msg->conn->type)) {
 3775              		.loc 1 1269 9 is_stmt 0 view .LVU1159
 3776 002a 0023     		movs	r3, #0
1284:Middlewares/Third_Party/LwIP/src/api/api_msg.c **** #endif /* LWIP_TCP */
 3777              		.loc 1 1284 9 view .LVU1160
 3778 002c F9E7     		b	.L316
 3779              	.LVL378:
 3780              	.L317:
1291:Middlewares/Third_Party/LwIP/src/api/api_msg.c ****   }
 3781              		.loc 1 1291 9 view .LVU1161
 3782 002e 6FF00503 		mvn	r3, #5
 3783 0032 F6E7     		b	.L316
 3784              	.LVL379:
 3785              	.L318:
1291:Middlewares/Third_Party/LwIP/src/api/api_msg.c ****   }
 3786              		.loc 1 1291 9 view .LVU1162
 3787 0034 6FF00503 		mvn	r3, #5
 3788 0038 F3E7     		b	.L316
 3789              		.cfi_endproc
 3790              	.LFE188:
 3792              		.section	.text.lwip_netconn_do_connect,"ax",%progbits
 3793              		.align	1
 3794              		.global	lwip_netconn_do_connect
 3795              		.syntax unified
 3796              		.thumb
 3797              		.thumb_func
 3799              	lwip_netconn_do_connect:
 3800              	.LVL380:
 3801              	.LFB190:
1355:Middlewares/Third_Party/LwIP/src/api/api_msg.c ****   struct api_msg *msg = (struct api_msg *)m;
 3802              		.loc 1 1355 1 is_stmt 1 view -0
 3803              		.cfi_startproc
 3804              		@ args = 0, pretend = 0, frame = 0
 3805              		@ frame_needed = 0, uses_anonymous_args = 0
1355:Middlewares/Third_Party/LwIP/src/api/api_msg.c ****   struct api_msg *msg = (struct api_msg *)m;
 3806              		.loc 1 1355 1 is_stmt 0 view .LVU1164
 3807 0000 10B5     		push	{r4, lr}
 3808              	.LCFI23:
 3809              		.cfi_def_cfa_offset 8
 3810              		.cfi_offset 4, -8
 3811              		.cfi_offset 14, -4
 3812 0002 0446     		mov	r4, r0
1356:Middlewares/Third_Party/LwIP/src/api/api_msg.c ****   err_t err;
 3813              		.loc 1 1356 3 is_stmt 1 view .LVU1165
 3814              	.LVL381:
1357:Middlewares/Third_Party/LwIP/src/api/api_msg.c **** 
 3815              		.loc 1 1357 3 view .LVU1166
1359:Middlewares/Third_Party/LwIP/src/api/api_msg.c ****     /* This may happen when calling netconn_connect() a second time */
 3816              		.loc 1 1359 3 view .LVU1167
1359:Middlewares/Third_Party/LwIP/src/api/api_msg.c ****     /* This may happen when calling netconn_connect() a second time */
 3817              		.loc 1 1359 10 is_stmt 0 view .LVU1168
 3818 0004 0068     		ldr	r0, [r0]
 3819              	.LVL382:
1359:Middlewares/Third_Party/LwIP/src/api/api_msg.c ****     /* This may happen when calling netconn_connect() a second time */
ARM GAS  C:\Users\hh\AppData\Local\Temp\ccfq6ENc.s 			page 119


 3820              		.loc 1 1359 21 view .LVU1169
 3821 0006 4368     		ldr	r3, [r0, #4]
1359:Middlewares/Third_Party/LwIP/src/api/api_msg.c ****     /* This may happen when calling netconn_connect() a second time */
 3822              		.loc 1 1359 6 view .LVU1170
 3823 0008 002B     		cmp	r3, #0
 3824 000a 56D0     		beq	.L329
1363:Middlewares/Third_Party/LwIP/src/api/api_msg.c **** #if LWIP_RAW
 3825              		.loc 1 1363 5 is_stmt 1 view .LVU1171
1363:Middlewares/Third_Party/LwIP/src/api/api_msg.c **** #if LWIP_RAW
 3826              		.loc 1 1363 13 is_stmt 0 view .LVU1172
 3827 000c 0378     		ldrb	r3, [r0]	@ zero_extendqisi2
1363:Middlewares/Third_Party/LwIP/src/api/api_msg.c **** #if LWIP_RAW
 3828              		.loc 1 1363 5 view .LVU1173
 3829 000e 03F0F003 		and	r3, r3, #240
 3830 0012 102B     		cmp	r3, #16
 3831 0014 03D0     		beq	.L335
1409:Middlewares/Third_Party/LwIP/src/api/api_msg.c ****           err = ERR_VAL;
 3832              		.loc 1 1409 9 discriminator 1 view .LVU1174
 3833 0016 6FF00503 		mvn	r3, #5
 3834              	.L323:
 3835              	.LVL383:
1415:Middlewares/Third_Party/LwIP/src/api/api_msg.c ****   /* For all other protocols, netconn_connect() calls netconn_apimsg(),
 3836              		.loc 1 1415 3 is_stmt 1 view .LVU1175
1415:Middlewares/Third_Party/LwIP/src/api/api_msg.c ****   /* For all other protocols, netconn_connect() calls netconn_apimsg(),
 3837              		.loc 1 1415 12 is_stmt 0 view .LVU1176
 3838 001a 2371     		strb	r3, [r4, #4]
1418:Middlewares/Third_Party/LwIP/src/api/api_msg.c **** }
 3839              		.loc 1 1418 24 is_stmt 1 view .LVU1177
 3840              	.LVL384:
 3841              	.L322:
1419:Middlewares/Third_Party/LwIP/src/api/api_msg.c **** 
 3842              		.loc 1 1419 1 is_stmt 0 view .LVU1178
 3843 001c 10BD     		pop	{r4, pc}
 3844              	.LVL385:
 3845              	.L335:
1377:Middlewares/Third_Party/LwIP/src/api/api_msg.c ****           err = ERR_ALREADY;
 3846              		.loc 1 1377 9 is_stmt 1 view .LVU1179
1377:Middlewares/Third_Party/LwIP/src/api/api_msg.c ****           err = ERR_ALREADY;
 3847              		.loc 1 1377 22 is_stmt 0 view .LVU1180
 3848 001e 4378     		ldrb	r3, [r0, #1]	@ zero_extendqisi2
1377:Middlewares/Third_Party/LwIP/src/api/api_msg.c ****           err = ERR_ALREADY;
 3849              		.loc 1 1377 12 view .LVU1181
 3850 0020 032B     		cmp	r3, #3
 3851 0022 4DD0     		beq	.L331
1379:Middlewares/Third_Party/LwIP/src/api/api_msg.c ****           err = ERR_ISCONN;
 3852              		.loc 1 1379 16 is_stmt 1 view .LVU1182
1379:Middlewares/Third_Party/LwIP/src/api/api_msg.c ****           err = ERR_ISCONN;
 3853              		.loc 1 1379 19 is_stmt 0 view .LVU1183
 3854 0024 13B1     		cbz	r3, .L336
1380:Middlewares/Third_Party/LwIP/src/api/api_msg.c ****         } else {
 3855              		.loc 1 1380 15 view .LVU1184
 3856 0026 6FF00903 		mvn	r3, #9
 3857 002a F6E7     		b	.L323
 3858              	.L336:
1382:Middlewares/Third_Party/LwIP/src/api/api_msg.c ****           err = tcp_connect(msg->conn->pcb.tcp, API_EXPR_REF(msg->msg.bc.ipaddr),
 3859              		.loc 1 1382 11 is_stmt 1 view .LVU1185
 3860 002c FFF7FEFF 		bl	setup_tcp
ARM GAS  C:\Users\hh\AppData\Local\Temp\ccfq6ENc.s 			page 120


 3861              	.LVL386:
1383:Middlewares/Third_Party/LwIP/src/api/api_msg.c ****                             msg->msg.bc.port, lwip_netconn_do_connected);
 3862              		.loc 1 1383 11 view .LVU1186
1383:Middlewares/Third_Party/LwIP/src/api/api_msg.c ****                             msg->msg.bc.port, lwip_netconn_do_connected);
 3863              		.loc 1 1383 32 is_stmt 0 view .LVU1187
 3864 0030 2068     		ldr	r0, [r4]
1383:Middlewares/Third_Party/LwIP/src/api/api_msg.c ****                             msg->msg.bc.port, lwip_netconn_do_connected);
 3865              		.loc 1 1383 17 view .LVU1188
 3866 0032 254B     		ldr	r3, .L339
 3867 0034 A289     		ldrh	r2, [r4, #12]
 3868 0036 A168     		ldr	r1, [r4, #8]
 3869 0038 4068     		ldr	r0, [r0, #4]
 3870 003a FFF7FEFF 		bl	tcp_connect
 3871              	.LVL387:
1385:Middlewares/Third_Party/LwIP/src/api/api_msg.c ****             u8_t non_blocking = netconn_is_nonblocking(msg->conn);
 3872              		.loc 1 1385 11 is_stmt 1 view .LVU1189
1385:Middlewares/Third_Party/LwIP/src/api/api_msg.c ****             u8_t non_blocking = netconn_is_nonblocking(msg->conn);
 3873              		.loc 1 1385 14 is_stmt 0 view .LVU1190
 3874 003e 0346     		mov	r3, r0
 3875 0040 0028     		cmp	r0, #0
 3876 0042 EAD1     		bne	.L323
 3877              	.LBB21:
1386:Middlewares/Third_Party/LwIP/src/api/api_msg.c ****             msg->conn->state = NETCONN_CONNECT;
 3878              		.loc 1 1386 13 is_stmt 1 view .LVU1191
1386:Middlewares/Third_Party/LwIP/src/api/api_msg.c ****             msg->conn->state = NETCONN_CONNECT;
 3879              		.loc 1 1386 33 is_stmt 0 view .LVU1192
 3880 0044 2268     		ldr	r2, [r4]
 3881 0046 137F     		ldrb	r3, [r2, #28]	@ zero_extendqisi2
 3882              	.LVL388:
1387:Middlewares/Third_Party/LwIP/src/api/api_msg.c ****             SET_NONBLOCKING_CONNECT(msg->conn, non_blocking);
 3883              		.loc 1 1387 13 is_stmt 1 view .LVU1193
1387:Middlewares/Third_Party/LwIP/src/api/api_msg.c ****             SET_NONBLOCKING_CONNECT(msg->conn, non_blocking);
 3884              		.loc 1 1387 30 is_stmt 0 view .LVU1194
 3885 0048 0321     		movs	r1, #3
 3886 004a 5170     		strb	r1, [r2, #1]
1388:Middlewares/Third_Party/LwIP/src/api/api_msg.c ****             if (non_blocking) {
 3887              		.loc 1 1388 13 is_stmt 1 view .LVU1195
1388:Middlewares/Third_Party/LwIP/src/api/api_msg.c ****             if (non_blocking) {
 3888              		.loc 1 1388 13 view .LVU1196
 3889 004c 13F00203 		ands	r3, r3, #2
 3890              	.LVL389:
1388:Middlewares/Third_Party/LwIP/src/api/api_msg.c ****             if (non_blocking) {
 3891              		.loc 1 1388 13 is_stmt 0 view .LVU1197
 3892 0050 08D0     		beq	.L324
1388:Middlewares/Third_Party/LwIP/src/api/api_msg.c ****             if (non_blocking) {
 3893              		.loc 1 1388 13 is_stmt 1 discriminator 1 view .LVU1198
1388:Middlewares/Third_Party/LwIP/src/api/api_msg.c ****             if (non_blocking) {
 3894              		.loc 1 1388 13 discriminator 1 view .LVU1199
 3895 0052 2168     		ldr	r1, [r4]
 3896 0054 0A7F     		ldrb	r2, [r1, #28]	@ zero_extendqisi2
 3897              	.LVL390:
1388:Middlewares/Third_Party/LwIP/src/api/api_msg.c ****             if (non_blocking) {
 3898              		.loc 1 1388 13 is_stmt 0 discriminator 1 view .LVU1200
 3899 0056 42F00402 		orr	r2, r2, #4
 3900 005a 0A77     		strb	r2, [r1, #28]
1388:Middlewares/Third_Party/LwIP/src/api/api_msg.c ****             if (non_blocking) {
 3901              		.loc 1 1388 13 is_stmt 1 view .LVU1201
ARM GAS  C:\Users\hh\AppData\Local\Temp\ccfq6ENc.s 			page 121


 3902              	.L325:
1388:Middlewares/Third_Party/LwIP/src/api/api_msg.c ****             if (non_blocking) {
 3903              		.loc 1 1388 13 view .LVU1202
1388:Middlewares/Third_Party/LwIP/src/api/api_msg.c ****             if (non_blocking) {
 3904              		.loc 1 1388 13 view .LVU1203
1389:Middlewares/Third_Party/LwIP/src/api/api_msg.c ****               err = ERR_INPROGRESS;
 3905              		.loc 1 1389 13 view .LVU1204
1389:Middlewares/Third_Party/LwIP/src/api/api_msg.c ****               err = ERR_INPROGRESS;
 3906              		.loc 1 1389 16 is_stmt 0 view .LVU1205
 3907 005c 43B1     		cbz	r3, .L337
1390:Middlewares/Third_Party/LwIP/src/api/api_msg.c ****             } else {
 3908              		.loc 1 1390 19 view .LVU1206
 3909 005e 6FF00403 		mvn	r3, #4
 3910 0062 DAE7     		b	.L323
 3911              	.LVL391:
 3912              	.L324:
1388:Middlewares/Third_Party/LwIP/src/api/api_msg.c ****             if (non_blocking) {
 3913              		.loc 1 1388 13 is_stmt 1 discriminator 2 view .LVU1207
1388:Middlewares/Third_Party/LwIP/src/api/api_msg.c ****             if (non_blocking) {
 3914              		.loc 1 1388 13 discriminator 2 view .LVU1208
 3915 0064 2168     		ldr	r1, [r4]
 3916 0066 0A7F     		ldrb	r2, [r1, #28]	@ zero_extendqisi2
 3917              	.LVL392:
1388:Middlewares/Third_Party/LwIP/src/api/api_msg.c ****             if (non_blocking) {
 3918              		.loc 1 1388 13 is_stmt 0 discriminator 2 view .LVU1209
 3919 0068 02F0FB02 		and	r2, r2, #251
 3920 006c 0A77     		strb	r2, [r1, #28]
1388:Middlewares/Third_Party/LwIP/src/api/api_msg.c ****             if (non_blocking) {
 3921              		.loc 1 1388 13 discriminator 2 view .LVU1210
 3922 006e F5E7     		b	.L325
 3923              	.L337:
1392:Middlewares/Third_Party/LwIP/src/api/api_msg.c ****               /* sys_sem_signal() is called from lwip_netconn_do_connected (or err_tcp()),
 3924              		.loc 1 1392 15 is_stmt 1 view .LVU1211
1392:Middlewares/Third_Party/LwIP/src/api/api_msg.c ****               /* sys_sem_signal() is called from lwip_netconn_do_connected (or err_tcp()),
 3925              		.loc 1 1392 18 is_stmt 0 view .LVU1212
 3926 0070 2368     		ldr	r3, [r4]
1392:Middlewares/Third_Party/LwIP/src/api/api_msg.c ****               /* sys_sem_signal() is called from lwip_netconn_do_connected (or err_tcp()),
 3927              		.loc 1 1392 38 view .LVU1213
 3928 0072 1C62     		str	r4, [r3, #32]
1396:Middlewares/Third_Party/LwIP/src/api/api_msg.c ****               UNLOCK_TCPIP_CORE();
 3929              		.loc 1 1396 15 is_stmt 1 view .LVU1214
1396:Middlewares/Third_Party/LwIP/src/api/api_msg.c ****               UNLOCK_TCPIP_CORE();
 3930              		.loc 1 1396 15 view .LVU1215
 3931 0074 2368     		ldr	r3, [r4]
 3932 0076 5B78     		ldrb	r3, [r3, #1]	@ zero_extendqisi2
 3933 0078 032B     		cmp	r3, #3
 3934 007a 16D1     		bne	.L338
 3935              	.LVL393:
 3936              	.L326:
1396:Middlewares/Third_Party/LwIP/src/api/api_msg.c ****               UNLOCK_TCPIP_CORE();
 3937              		.loc 1 1396 15 view .LVU1216
1396:Middlewares/Third_Party/LwIP/src/api/api_msg.c ****               UNLOCK_TCPIP_CORE();
 3938              		.loc 1 1396 15 view .LVU1217
1397:Middlewares/Third_Party/LwIP/src/api/api_msg.c ****               sys_arch_sem_wait(LWIP_API_MSG_SEM(msg), 0);
 3939              		.loc 1 1397 15 view .LVU1218
 3940 007c 1348     		ldr	r0, .L339+4
 3941 007e FFF7FEFF 		bl	sys_mutex_unlock
ARM GAS  C:\Users\hh\AppData\Local\Temp\ccfq6ENc.s 			page 122


 3942              	.LVL394:
1398:Middlewares/Third_Party/LwIP/src/api/api_msg.c ****               LOCK_TCPIP_CORE();
 3943              		.loc 1 1398 15 view .LVU1219
1398:Middlewares/Third_Party/LwIP/src/api/api_msg.c ****               LOCK_TCPIP_CORE();
 3944              		.loc 1 1398 33 is_stmt 0 view .LVU1220
 3945 0082 2068     		ldr	r0, [r4]
1398:Middlewares/Third_Party/LwIP/src/api/api_msg.c ****               LOCK_TCPIP_CORE();
 3946              		.loc 1 1398 15 view .LVU1221
 3947 0084 0021     		movs	r1, #0
 3948 0086 0C30     		adds	r0, r0, #12
 3949 0088 FFF7FEFF 		bl	sys_arch_sem_wait
 3950              	.LVL395:
1399:Middlewares/Third_Party/LwIP/src/api/api_msg.c ****               LWIP_ASSERT("state!", msg->conn->state != NETCONN_CONNECT);
 3951              		.loc 1 1399 15 is_stmt 1 view .LVU1222
 3952 008c 0F48     		ldr	r0, .L339+4
 3953 008e FFF7FEFF 		bl	sys_mutex_lock
 3954              	.LVL396:
1400:Middlewares/Third_Party/LwIP/src/api/api_msg.c **** #endif /* LWIP_TCPIP_CORE_LOCKING */
 3955              		.loc 1 1400 15 view .LVU1223
1400:Middlewares/Third_Party/LwIP/src/api/api_msg.c **** #endif /* LWIP_TCPIP_CORE_LOCKING */
 3956              		.loc 1 1400 15 view .LVU1224
 3957 0092 2368     		ldr	r3, [r4]
 3958 0094 5B78     		ldrb	r3, [r3, #1]	@ zero_extendqisi2
 3959 0096 032B     		cmp	r3, #3
 3960 0098 C0D1     		bne	.L322
1400:Middlewares/Third_Party/LwIP/src/api/api_msg.c **** #endif /* LWIP_TCPIP_CORE_LOCKING */
 3961              		.loc 1 1400 15 discriminator 1 view .LVU1225
1400:Middlewares/Third_Party/LwIP/src/api/api_msg.c **** #endif /* LWIP_TCPIP_CORE_LOCKING */
 3962              		.loc 1 1400 15 discriminator 1 view .LVU1226
 3963 009a 0D4B     		ldr	r3, .L339+8
 3964 009c 4FF4AF62 		mov	r2, #1400
 3965 00a0 0C49     		ldr	r1, .L339+12
 3966 00a2 0D48     		ldr	r0, .L339+16
 3967 00a4 FFF7FEFF 		bl	printf
 3968              	.LVL397:
1400:Middlewares/Third_Party/LwIP/src/api/api_msg.c **** #endif /* LWIP_TCPIP_CORE_LOCKING */
 3969              		.loc 1 1400 15 view .LVU1227
1400:Middlewares/Third_Party/LwIP/src/api/api_msg.c **** #endif /* LWIP_TCPIP_CORE_LOCKING */
 3970              		.loc 1 1400 15 view .LVU1228
1402:Middlewares/Third_Party/LwIP/src/api/api_msg.c ****             }
 3971              		.loc 1 1402 15 view .LVU1229
 3972 00a8 B8E7     		b	.L322
 3973              	.LVL398:
 3974              	.L338:
1396:Middlewares/Third_Party/LwIP/src/api/api_msg.c ****               UNLOCK_TCPIP_CORE();
 3975              		.loc 1 1396 15 discriminator 1 view .LVU1230
1396:Middlewares/Third_Party/LwIP/src/api/api_msg.c ****               UNLOCK_TCPIP_CORE();
 3976              		.loc 1 1396 15 discriminator 1 view .LVU1231
 3977 00aa 094B     		ldr	r3, .L339+8
 3978 00ac 40F27452 		movw	r2, #1396
 3979 00b0 0849     		ldr	r1, .L339+12
 3980 00b2 0948     		ldr	r0, .L339+16
 3981              	.LVL399:
1396:Middlewares/Third_Party/LwIP/src/api/api_msg.c ****               UNLOCK_TCPIP_CORE();
 3982              		.loc 1 1396 15 is_stmt 0 discriminator 1 view .LVU1232
 3983 00b4 FFF7FEFF 		bl	printf
 3984              	.LVL400:
ARM GAS  C:\Users\hh\AppData\Local\Temp\ccfq6ENc.s 			page 123


 3985 00b8 E0E7     		b	.L326
 3986              	.LVL401:
 3987              	.L329:
1396:Middlewares/Third_Party/LwIP/src/api/api_msg.c ****               UNLOCK_TCPIP_CORE();
 3988              		.loc 1 1396 15 discriminator 1 view .LVU1233
 3989              	.LBE21:
1361:Middlewares/Third_Party/LwIP/src/api/api_msg.c ****   } else {
 3990              		.loc 1 1361 9 view .LVU1234
 3991 00ba 6FF00E03 		mvn	r3, #14
 3992 00be ACE7     		b	.L323
 3993              	.L331:
1378:Middlewares/Third_Party/LwIP/src/api/api_msg.c ****         } else if (msg->conn->state != NETCONN_NONE) {
 3994              		.loc 1 1378 15 view .LVU1235
 3995 00c0 6FF00803 		mvn	r3, #8
 3996 00c4 A9E7     		b	.L323
 3997              	.L340:
 3998 00c6 00BF     		.align	2
 3999              	.L339:
 4000 00c8 00000000 		.word	lwip_netconn_do_connected
 4001 00cc 00000000 		.word	lock_tcpip_core
 4002 00d0 00000000 		.word	.LC0
 4003 00d4 50000000 		.word	.LC34
 4004 00d8 40000000 		.word	.LC2
 4005              		.cfi_endproc
 4006              	.LFE190:
 4008              		.section	.text.lwip_netconn_do_disconnect,"ax",%progbits
 4009              		.align	1
 4010              		.global	lwip_netconn_do_disconnect
 4011              		.syntax unified
 4012              		.thumb
 4013              		.thumb_func
 4015              	lwip_netconn_do_disconnect:
 4016              	.LVL402:
 4017              	.LFB191:
1430:Middlewares/Third_Party/LwIP/src/api/api_msg.c ****   struct api_msg *msg = (struct api_msg *)m;
 4018              		.loc 1 1430 1 is_stmt 1 view -0
 4019              		.cfi_startproc
 4020              		@ args = 0, pretend = 0, frame = 0
 4021              		@ frame_needed = 0, uses_anonymous_args = 0
 4022              		@ link register save eliminated.
1431:Middlewares/Third_Party/LwIP/src/api/api_msg.c **** 
 4023              		.loc 1 1431 3 view .LVU1237
1440:Middlewares/Third_Party/LwIP/src/api/api_msg.c ****   }
 4024              		.loc 1 1440 5 view .LVU1238
1440:Middlewares/Third_Party/LwIP/src/api/api_msg.c ****   }
 4025              		.loc 1 1440 14 is_stmt 0 view .LVU1239
 4026 0000 FA23     		movs	r3, #250
 4027 0002 0371     		strb	r3, [r0, #4]
1442:Middlewares/Third_Party/LwIP/src/api/api_msg.c **** }
 4028              		.loc 1 1442 24 is_stmt 1 view .LVU1240
1443:Middlewares/Third_Party/LwIP/src/api/api_msg.c **** 
 4029              		.loc 1 1443 1 is_stmt 0 view .LVU1241
 4030 0004 7047     		bx	lr
 4031              		.cfi_endproc
 4032              	.LFE191:
 4034              		.section	.text.lwip_netconn_do_listen,"ax",%progbits
 4035              		.align	1
ARM GAS  C:\Users\hh\AppData\Local\Temp\ccfq6ENc.s 			page 124


 4036              		.global	lwip_netconn_do_listen
 4037              		.syntax unified
 4038              		.thumb
 4039              		.thumb_func
 4041              	lwip_netconn_do_listen:
 4042              	.LVL403:
 4043              	.LFB192:
1454:Middlewares/Third_Party/LwIP/src/api/api_msg.c ****   struct api_msg *msg = (struct api_msg *)m;
 4044              		.loc 1 1454 1 is_stmt 1 view -0
 4045              		.cfi_startproc
 4046              		@ args = 0, pretend = 0, frame = 8
 4047              		@ frame_needed = 0, uses_anonymous_args = 0
1454:Middlewares/Third_Party/LwIP/src/api/api_msg.c ****   struct api_msg *msg = (struct api_msg *)m;
 4048              		.loc 1 1454 1 is_stmt 0 view .LVU1243
 4049 0000 30B5     		push	{r4, r5, lr}
 4050              	.LCFI24:
 4051              		.cfi_def_cfa_offset 12
 4052              		.cfi_offset 4, -12
 4053              		.cfi_offset 5, -8
 4054              		.cfi_offset 14, -4
 4055 0002 83B0     		sub	sp, sp, #12
 4056              	.LCFI25:
 4057              		.cfi_def_cfa_offset 24
 4058 0004 0446     		mov	r4, r0
1455:Middlewares/Third_Party/LwIP/src/api/api_msg.c ****   err_t err;
 4059              		.loc 1 1455 3 is_stmt 1 view .LVU1244
 4060              	.LVL404:
1456:Middlewares/Third_Party/LwIP/src/api/api_msg.c **** 
 4061              		.loc 1 1456 3 view .LVU1245
1458:Middlewares/Third_Party/LwIP/src/api/api_msg.c ****     if (NETCONNTYPE_GROUP(msg->conn->type) == NETCONN_TCP) {
 4062              		.loc 1 1458 3 view .LVU1246
1458:Middlewares/Third_Party/LwIP/src/api/api_msg.c ****     if (NETCONNTYPE_GROUP(msg->conn->type) == NETCONN_TCP) {
 4063              		.loc 1 1458 10 is_stmt 0 view .LVU1247
 4064 0006 0368     		ldr	r3, [r0]
1458:Middlewares/Third_Party/LwIP/src/api/api_msg.c ****     if (NETCONNTYPE_GROUP(msg->conn->type) == NETCONN_TCP) {
 4065              		.loc 1 1458 21 view .LVU1248
 4066 0008 5868     		ldr	r0, [r3, #4]
 4067              	.LVL405:
1458:Middlewares/Third_Party/LwIP/src/api/api_msg.c ****     if (NETCONNTYPE_GROUP(msg->conn->type) == NETCONN_TCP) {
 4068              		.loc 1 1458 6 view .LVU1249
 4069 000a 0028     		cmp	r0, #0
 4070 000c 5ED0     		beq	.L343
1459:Middlewares/Third_Party/LwIP/src/api/api_msg.c ****       if (msg->conn->state == NETCONN_NONE) {
 4071              		.loc 1 1459 5 is_stmt 1 view .LVU1250
1459:Middlewares/Third_Party/LwIP/src/api/api_msg.c ****       if (msg->conn->state == NETCONN_NONE) {
 4072              		.loc 1 1459 9 is_stmt 0 view .LVU1251
 4073 000e 1A78     		ldrb	r2, [r3]	@ zero_extendqisi2
1459:Middlewares/Third_Party/LwIP/src/api/api_msg.c ****       if (msg->conn->state == NETCONN_NONE) {
 4074              		.loc 1 1459 8 view .LVU1252
 4075 0010 02F0F002 		and	r2, r2, #240
 4076 0014 102A     		cmp	r2, #16
 4077 0016 07D0     		beq	.L353
1519:Middlewares/Third_Party/LwIP/src/api/api_msg.c ****     }
 4078              		.loc 1 1519 7 is_stmt 1 view .LVU1253
1519:Middlewares/Third_Party/LwIP/src/api/api_msg.c ****     }
 4079              		.loc 1 1519 11 is_stmt 0 view .LVU1254
 4080 0018 F023     		movs	r3, #240
ARM GAS  C:\Users\hh\AppData\Local\Temp\ccfq6ENc.s 			page 125


 4081 001a 8DF80730 		strb	r3, [sp, #7]
 4082              	.L347:
1524:Middlewares/Third_Party/LwIP/src/api/api_msg.c ****   TCPIP_APIMSG_ACK(msg);
 4083              		.loc 1 1524 3 is_stmt 1 view .LVU1255
1524:Middlewares/Third_Party/LwIP/src/api/api_msg.c ****   TCPIP_APIMSG_ACK(msg);
 4084              		.loc 1 1524 12 is_stmt 0 view .LVU1256
 4085 001e 9DF80730 		ldrb	r3, [sp, #7]	@ zero_extendqisi2
 4086 0022 2371     		strb	r3, [r4, #4]
1525:Middlewares/Third_Party/LwIP/src/api/api_msg.c **** }
 4087              		.loc 1 1525 24 is_stmt 1 view .LVU1257
1526:Middlewares/Third_Party/LwIP/src/api/api_msg.c **** #endif /* LWIP_TCP */
 4088              		.loc 1 1526 1 is_stmt 0 view .LVU1258
 4089 0024 03B0     		add	sp, sp, #12
 4090              	.LCFI26:
 4091              		.cfi_remember_state
 4092              		.cfi_def_cfa_offset 12
 4093              		@ sp needed
 4094 0026 30BD     		pop	{r4, r5, pc}
 4095              	.LVL406:
 4096              	.L353:
 4097              	.LCFI27:
 4098              		.cfi_restore_state
1460:Middlewares/Third_Party/LwIP/src/api/api_msg.c ****         struct tcp_pcb *lpcb;
 4099              		.loc 1 1460 7 is_stmt 1 view .LVU1259
1460:Middlewares/Third_Party/LwIP/src/api/api_msg.c ****         struct tcp_pcb *lpcb;
 4100              		.loc 1 1460 20 is_stmt 0 view .LVU1260
 4101 0028 5B78     		ldrb	r3, [r3, #1]	@ zero_extendqisi2
1460:Middlewares/Third_Party/LwIP/src/api/api_msg.c ****         struct tcp_pcb *lpcb;
 4102              		.loc 1 1460 10 view .LVU1261
 4103 002a 002B     		cmp	r3, #0
 4104 002c 44D1     		bne	.L345
 4105              	.LBB22:
1461:Middlewares/Third_Party/LwIP/src/api/api_msg.c ****         if (msg->conn->pcb.tcp->state != CLOSED) {
 4106              		.loc 1 1461 9 is_stmt 1 view .LVU1262
1462:Middlewares/Third_Party/LwIP/src/api/api_msg.c ****           /* connection is not closed, cannot listen */
 4107              		.loc 1 1462 9 view .LVU1263
1462:Middlewares/Third_Party/LwIP/src/api/api_msg.c ****           /* connection is not closed, cannot listen */
 4108              		.loc 1 1462 31 is_stmt 0 view .LVU1264
 4109 002e 037D     		ldrb	r3, [r0, #20]	@ zero_extendqisi2
1462:Middlewares/Third_Party/LwIP/src/api/api_msg.c ****           /* connection is not closed, cannot listen */
 4110              		.loc 1 1462 12 view .LVU1265
 4111 0030 1BB1     		cbz	r3, .L346
1464:Middlewares/Third_Party/LwIP/src/api/api_msg.c ****         } else {
 4112              		.loc 1 1464 11 is_stmt 1 view .LVU1266
1464:Middlewares/Third_Party/LwIP/src/api/api_msg.c ****         } else {
 4113              		.loc 1 1464 15 is_stmt 0 view .LVU1267
 4114 0032 FA23     		movs	r3, #250
 4115 0034 8DF80730 		strb	r3, [sp, #7]
 4116 0038 F1E7     		b	.L347
 4117              	.L346:
 4118              	.LBB23:
1466:Middlewares/Third_Party/LwIP/src/api/api_msg.c **** #if TCP_LISTEN_BACKLOG
 4119              		.loc 1 1466 11 is_stmt 1 view .LVU1268
1470:Middlewares/Third_Party/LwIP/src/api/api_msg.c **** #endif /* TCP_LISTEN_BACKLOG */
 4120              		.loc 1 1470 11 view .LVU1269
 4121              	.LVL407:
1484:Middlewares/Third_Party/LwIP/src/api/api_msg.c **** 
ARM GAS  C:\Users\hh\AppData\Local\Temp\ccfq6ENc.s 			page 126


 4122              		.loc 1 1484 11 view .LVU1270
1484:Middlewares/Third_Party/LwIP/src/api/api_msg.c **** 
 4123              		.loc 1 1484 18 is_stmt 0 view .LVU1271
 4124 003a 0DF10702 		add	r2, sp, #7
 4125 003e FF21     		movs	r1, #255
 4126 0040 FFF7FEFF 		bl	tcp_listen_with_backlog_and_err
 4127              	.LVL408:
1486:Middlewares/Third_Party/LwIP/src/api/api_msg.c ****             /* in this case, the old pcb is still allocated */
 4128              		.loc 1 1486 11 is_stmt 1 view .LVU1272
1486:Middlewares/Third_Party/LwIP/src/api/api_msg.c ****             /* in this case, the old pcb is still allocated */
 4129              		.loc 1 1486 14 is_stmt 0 view .LVU1273
 4130 0044 0546     		mov	r5, r0
 4131 0046 0028     		cmp	r0, #0
 4132 0048 E9D0     		beq	.L347
1490:Middlewares/Third_Party/LwIP/src/api/api_msg.c ****               /** @todo: should we drain the recvmbox here? */
 4133              		.loc 1 1490 13 is_stmt 1 view .LVU1274
1490:Middlewares/Third_Party/LwIP/src/api/api_msg.c ****               /** @todo: should we drain the recvmbox here? */
 4134              		.loc 1 1490 36 is_stmt 0 view .LVU1275
 4135 004a 2068     		ldr	r0, [r4]
 4136              	.LVL409:
1490:Middlewares/Third_Party/LwIP/src/api/api_msg.c ****               /** @todo: should we drain the recvmbox here? */
 4137              		.loc 1 1490 17 view .LVU1276
 4138 004c 1030     		adds	r0, r0, #16
 4139 004e FFF7FEFF 		bl	sys_mbox_valid
 4140              	.LVL410:
1490:Middlewares/Third_Party/LwIP/src/api/api_msg.c ****               /** @todo: should we drain the recvmbox here? */
 4141              		.loc 1 1490 16 discriminator 1 view .LVU1277
 4142 0052 C8B9     		cbnz	r0, .L354
 4143              	.L348:
1495:Middlewares/Third_Party/LwIP/src/api/api_msg.c ****             if (!sys_mbox_valid(&msg->conn->acceptmbox)) {
 4144              		.loc 1 1495 13 is_stmt 1 view .LVU1278
1495:Middlewares/Third_Party/LwIP/src/api/api_msg.c ****             if (!sys_mbox_valid(&msg->conn->acceptmbox)) {
 4145              		.loc 1 1495 17 is_stmt 0 view .LVU1279
 4146 0054 0023     		movs	r3, #0
 4147 0056 8DF80730 		strb	r3, [sp, #7]
1496:Middlewares/Third_Party/LwIP/src/api/api_msg.c ****               err = sys_mbox_new(&msg->conn->acceptmbox, DEFAULT_ACCEPTMBOX_SIZE);
 4148              		.loc 1 1496 13 is_stmt 1 view .LVU1280
1496:Middlewares/Third_Party/LwIP/src/api/api_msg.c ****               err = sys_mbox_new(&msg->conn->acceptmbox, DEFAULT_ACCEPTMBOX_SIZE);
 4149              		.loc 1 1496 37 is_stmt 0 view .LVU1281
 4150 005a 2068     		ldr	r0, [r4]
1496:Middlewares/Third_Party/LwIP/src/api/api_msg.c ****               err = sys_mbox_new(&msg->conn->acceptmbox, DEFAULT_ACCEPTMBOX_SIZE);
 4151              		.loc 1 1496 18 view .LVU1282
 4152 005c 1430     		adds	r0, r0, #20
 4153 005e FFF7FEFF 		bl	sys_mbox_valid
 4154              	.LVL411:
1496:Middlewares/Third_Party/LwIP/src/api/api_msg.c ****               err = sys_mbox_new(&msg->conn->acceptmbox, DEFAULT_ACCEPTMBOX_SIZE);
 4155              		.loc 1 1496 16 discriminator 1 view .LVU1283
 4156 0062 D0B1     		cbz	r0, .L355
 4157              	.L349:
1499:Middlewares/Third_Party/LwIP/src/api/api_msg.c ****               msg->conn->state = NETCONN_LISTEN;
 4158              		.loc 1 1499 13 is_stmt 1 view .LVU1284
1499:Middlewares/Third_Party/LwIP/src/api/api_msg.c ****               msg->conn->state = NETCONN_LISTEN;
 4159              		.loc 1 1499 21 is_stmt 0 view .LVU1285
 4160 0064 9DF90730 		ldrsb	r3, [sp, #7]
1499:Middlewares/Third_Party/LwIP/src/api/api_msg.c ****               msg->conn->state = NETCONN_LISTEN;
 4161              		.loc 1 1499 16 view .LVU1286
 4162 0068 FBB9     		cbnz	r3, .L350
ARM GAS  C:\Users\hh\AppData\Local\Temp\ccfq6ENc.s 			page 127


1500:Middlewares/Third_Party/LwIP/src/api/api_msg.c ****               msg->conn->pcb.tcp = lpcb;
 4163              		.loc 1 1500 15 is_stmt 1 view .LVU1287
1500:Middlewares/Third_Party/LwIP/src/api/api_msg.c ****               msg->conn->pcb.tcp = lpcb;
 4164              		.loc 1 1500 18 is_stmt 0 view .LVU1288
 4165 006a 2368     		ldr	r3, [r4]
1500:Middlewares/Third_Party/LwIP/src/api/api_msg.c ****               msg->conn->pcb.tcp = lpcb;
 4166              		.loc 1 1500 32 view .LVU1289
 4167 006c 0222     		movs	r2, #2
 4168 006e 5A70     		strb	r2, [r3, #1]
1501:Middlewares/Third_Party/LwIP/src/api/api_msg.c ****               tcp_arg(msg->conn->pcb.tcp, msg->conn);
 4169              		.loc 1 1501 15 is_stmt 1 view .LVU1290
1501:Middlewares/Third_Party/LwIP/src/api/api_msg.c ****               tcp_arg(msg->conn->pcb.tcp, msg->conn);
 4170              		.loc 1 1501 18 is_stmt 0 view .LVU1291
 4171 0070 2368     		ldr	r3, [r4]
1501:Middlewares/Third_Party/LwIP/src/api/api_msg.c ****               tcp_arg(msg->conn->pcb.tcp, msg->conn);
 4172              		.loc 1 1501 34 view .LVU1292
 4173 0072 5D60     		str	r5, [r3, #4]
1502:Middlewares/Third_Party/LwIP/src/api/api_msg.c ****               tcp_accept(msg->conn->pcb.tcp, accept_function);
 4174              		.loc 1 1502 15 is_stmt 1 view .LVU1293
1502:Middlewares/Third_Party/LwIP/src/api/api_msg.c ****               tcp_accept(msg->conn->pcb.tcp, accept_function);
 4175              		.loc 1 1502 26 is_stmt 0 view .LVU1294
 4176 0074 2168     		ldr	r1, [r4]
1502:Middlewares/Third_Party/LwIP/src/api/api_msg.c ****               tcp_accept(msg->conn->pcb.tcp, accept_function);
 4177              		.loc 1 1502 15 view .LVU1295
 4178 0076 4868     		ldr	r0, [r1, #4]
 4179 0078 FFF7FEFF 		bl	tcp_arg
 4180              	.LVL412:
1503:Middlewares/Third_Party/LwIP/src/api/api_msg.c ****             } else {
 4181              		.loc 1 1503 15 is_stmt 1 view .LVU1296
1503:Middlewares/Third_Party/LwIP/src/api/api_msg.c ****             } else {
 4182              		.loc 1 1503 29 is_stmt 0 view .LVU1297
 4183 007c 2368     		ldr	r3, [r4]
1503:Middlewares/Third_Party/LwIP/src/api/api_msg.c ****             } else {
 4184              		.loc 1 1503 15 view .LVU1298
 4185 007e 1549     		ldr	r1, .L357
 4186 0080 5868     		ldr	r0, [r3, #4]
 4187 0082 FFF7FEFF 		bl	tcp_accept
 4188              	.LVL413:
 4189 0086 CAE7     		b	.L347
 4190              	.L354:
1492:Middlewares/Third_Party/LwIP/src/api/api_msg.c ****               sys_mbox_set_invalid(&msg->conn->recvmbox);
 4191              		.loc 1 1492 15 is_stmt 1 view .LVU1299
1492:Middlewares/Third_Party/LwIP/src/api/api_msg.c ****               sys_mbox_set_invalid(&msg->conn->recvmbox);
 4192              		.loc 1 1492 33 is_stmt 0 view .LVU1300
 4193 0088 2068     		ldr	r0, [r4]
1492:Middlewares/Third_Party/LwIP/src/api/api_msg.c ****               sys_mbox_set_invalid(&msg->conn->recvmbox);
 4194              		.loc 1 1492 15 view .LVU1301
 4195 008a 1030     		adds	r0, r0, #16
 4196 008c FFF7FEFF 		bl	sys_mbox_free
 4197              	.LVL414:
1493:Middlewares/Third_Party/LwIP/src/api/api_msg.c ****             }
 4198              		.loc 1 1493 15 is_stmt 1 view .LVU1302
1493:Middlewares/Third_Party/LwIP/src/api/api_msg.c ****             }
 4199              		.loc 1 1493 40 is_stmt 0 view .LVU1303
 4200 0090 2068     		ldr	r0, [r4]
1493:Middlewares/Third_Party/LwIP/src/api/api_msg.c ****             }
 4201              		.loc 1 1493 15 view .LVU1304
ARM GAS  C:\Users\hh\AppData\Local\Temp\ccfq6ENc.s 			page 128


 4202 0092 1030     		adds	r0, r0, #16
 4203 0094 FFF7FEFF 		bl	sys_mbox_set_invalid
 4204              	.LVL415:
 4205 0098 DCE7     		b	.L348
 4206              	.L355:
1497:Middlewares/Third_Party/LwIP/src/api/api_msg.c ****             }
 4207              		.loc 1 1497 15 is_stmt 1 view .LVU1305
1497:Middlewares/Third_Party/LwIP/src/api/api_msg.c ****             }
 4208              		.loc 1 1497 38 is_stmt 0 view .LVU1306
 4209 009a 2068     		ldr	r0, [r4]
1497:Middlewares/Third_Party/LwIP/src/api/api_msg.c ****             }
 4210              		.loc 1 1497 21 view .LVU1307
 4211 009c 0621     		movs	r1, #6
 4212 009e 1430     		adds	r0, r0, #20
 4213 00a0 FFF7FEFF 		bl	sys_mbox_new
 4214              	.LVL416:
1497:Middlewares/Third_Party/LwIP/src/api/api_msg.c ****             }
 4215              		.loc 1 1497 19 discriminator 1 view .LVU1308
 4216 00a4 8DF80700 		strb	r0, [sp, #7]
 4217 00a8 DCE7     		b	.L349
 4218              	.L350:
1506:Middlewares/Third_Party/LwIP/src/api/api_msg.c ****               msg->conn->pcb.tcp = NULL;
 4219              		.loc 1 1506 15 is_stmt 1 view .LVU1309
 4220 00aa 2846     		mov	r0, r5
 4221 00ac FFF7FEFF 		bl	tcp_close
 4222              	.LVL417:
1507:Middlewares/Third_Party/LwIP/src/api/api_msg.c ****             }
 4223              		.loc 1 1507 15 view .LVU1310
1507:Middlewares/Third_Party/LwIP/src/api/api_msg.c ****             }
 4224              		.loc 1 1507 18 is_stmt 0 view .LVU1311
 4225 00b0 2368     		ldr	r3, [r4]
1507:Middlewares/Third_Party/LwIP/src/api/api_msg.c ****             }
 4226              		.loc 1 1507 34 view .LVU1312
 4227 00b2 0022     		movs	r2, #0
 4228 00b4 5A60     		str	r2, [r3, #4]
 4229 00b6 B2E7     		b	.L347
 4230              	.LVL418:
 4231              	.L345:
1507:Middlewares/Third_Party/LwIP/src/api/api_msg.c ****             }
 4232              		.loc 1 1507 34 view .LVU1313
 4233              	.LBE23:
 4234              	.LBE22:
1511:Middlewares/Third_Party/LwIP/src/api/api_msg.c ****         /* already listening, allow updating of the backlog */
 4235              		.loc 1 1511 14 is_stmt 1 view .LVU1314
1511:Middlewares/Third_Party/LwIP/src/api/api_msg.c ****         /* already listening, allow updating of the backlog */
 4236              		.loc 1 1511 17 is_stmt 0 view .LVU1315
 4237 00b8 022B     		cmp	r3, #2
 4238 00ba 03D0     		beq	.L356
1516:Middlewares/Third_Party/LwIP/src/api/api_msg.c ****       }
 4239              		.loc 1 1516 9 is_stmt 1 view .LVU1316
1516:Middlewares/Third_Party/LwIP/src/api/api_msg.c ****       }
 4240              		.loc 1 1516 13 is_stmt 0 view .LVU1317
 4241 00bc F523     		movs	r3, #245
 4242 00be 8DF80730 		strb	r3, [sp, #7]
 4243 00c2 ACE7     		b	.L347
 4244              	.L356:
1513:Middlewares/Third_Party/LwIP/src/api/api_msg.c ****         tcp_backlog_set(msg->conn->pcb.tcp, msg->msg.lb.backlog);
ARM GAS  C:\Users\hh\AppData\Local\Temp\ccfq6ENc.s 			page 129


 4245              		.loc 1 1513 9 is_stmt 1 view .LVU1318
1513:Middlewares/Third_Party/LwIP/src/api/api_msg.c ****         tcp_backlog_set(msg->conn->pcb.tcp, msg->msg.lb.backlog);
 4246              		.loc 1 1513 13 is_stmt 0 view .LVU1319
 4247 00c4 0023     		movs	r3, #0
 4248 00c6 8DF80730 		strb	r3, [sp, #7]
1514:Middlewares/Third_Party/LwIP/src/api/api_msg.c ****       } else {
 4249              		.loc 1 1514 65 is_stmt 1 view .LVU1320
 4250 00ca A8E7     		b	.L347
 4251              	.L343:
1522:Middlewares/Third_Party/LwIP/src/api/api_msg.c ****   }
 4252              		.loc 1 1522 5 view .LVU1321
1522:Middlewares/Third_Party/LwIP/src/api/api_msg.c ****   }
 4253              		.loc 1 1522 9 is_stmt 0 view .LVU1322
 4254 00cc F523     		movs	r3, #245
 4255 00ce 8DF80730 		strb	r3, [sp, #7]
 4256 00d2 A4E7     		b	.L347
 4257              	.L358:
 4258              		.align	2
 4259              	.L357:
 4260 00d4 00000000 		.word	accept_function
 4261              		.cfi_endproc
 4262              	.LFE192:
 4264              		.section	.text.lwip_netconn_do_send,"ax",%progbits
 4265              		.align	1
 4266              		.global	lwip_netconn_do_send
 4267              		.syntax unified
 4268              		.thumb
 4269              		.thumb_func
 4271              	lwip_netconn_do_send:
 4272              	.LVL419:
 4273              	.LFB193:
1537:Middlewares/Third_Party/LwIP/src/api/api_msg.c ****   struct api_msg *msg = (struct api_msg *)m;
 4274              		.loc 1 1537 1 is_stmt 1 view -0
 4275              		.cfi_startproc
 4276              		@ args = 0, pretend = 0, frame = 0
 4277              		@ frame_needed = 0, uses_anonymous_args = 0
1537:Middlewares/Third_Party/LwIP/src/api/api_msg.c ****   struct api_msg *msg = (struct api_msg *)m;
 4278              		.loc 1 1537 1 is_stmt 0 view .LVU1324
 4279 0000 10B5     		push	{r4, lr}
 4280              	.LCFI28:
 4281              		.cfi_def_cfa_offset 8
 4282              		.cfi_offset 4, -8
 4283              		.cfi_offset 14, -4
 4284 0002 0446     		mov	r4, r0
1538:Middlewares/Third_Party/LwIP/src/api/api_msg.c **** 
 4285              		.loc 1 1538 3 is_stmt 1 view .LVU1325
 4286              	.LVL420:
1540:Middlewares/Third_Party/LwIP/src/api/api_msg.c ****   if (err == ERR_OK) {
 4287              		.loc 1 1540 3 view .LVU1326
1540:Middlewares/Third_Party/LwIP/src/api/api_msg.c ****   if (err == ERR_OK) {
 4288              		.loc 1 1540 15 is_stmt 0 view .LVU1327
 4289 0004 0068     		ldr	r0, [r0]
 4290              	.LVL421:
1540:Middlewares/Third_Party/LwIP/src/api/api_msg.c ****   if (err == ERR_OK) {
 4291              		.loc 1 1540 15 view .LVU1328
 4292 0006 FFF7FEFF 		bl	netconn_err
 4293              	.LVL422:
ARM GAS  C:\Users\hh\AppData\Local\Temp\ccfq6ENc.s 			page 130


1541:Middlewares/Third_Party/LwIP/src/api/api_msg.c ****     if (msg->conn->pcb.tcp != NULL) {
 4294              		.loc 1 1541 3 is_stmt 1 view .LVU1329
1541:Middlewares/Third_Party/LwIP/src/api/api_msg.c ****     if (msg->conn->pcb.tcp != NULL) {
 4295              		.loc 1 1541 6 is_stmt 0 view .LVU1330
 4296 000a 0346     		mov	r3, r0
 4297 000c 08B9     		cbnz	r0, .L360
1578:Middlewares/Third_Party/LwIP/src/api/api_msg.c ****     }
 4298              		.loc 1 1578 11 view .LVU1331
 4299 000e 6FF00A03 		mvn	r3, #10
 4300              	.L360:
 4301              	.LVL423:
1581:Middlewares/Third_Party/LwIP/src/api/api_msg.c ****   TCPIP_APIMSG_ACK(msg);
 4302              		.loc 1 1581 3 is_stmt 1 view .LVU1332
1581:Middlewares/Third_Party/LwIP/src/api/api_msg.c ****   TCPIP_APIMSG_ACK(msg);
 4303              		.loc 1 1581 12 is_stmt 0 view .LVU1333
 4304 0012 2371     		strb	r3, [r4, #4]
1582:Middlewares/Third_Party/LwIP/src/api/api_msg.c **** }
 4305              		.loc 1 1582 24 is_stmt 1 view .LVU1334
1583:Middlewares/Third_Party/LwIP/src/api/api_msg.c **** 
 4306              		.loc 1 1583 1 is_stmt 0 view .LVU1335
 4307 0014 10BD     		pop	{r4, pc}
1583:Middlewares/Third_Party/LwIP/src/api/api_msg.c **** 
 4308              		.loc 1 1583 1 view .LVU1336
 4309              		.cfi_endproc
 4310              	.LFE193:
 4312              		.section	.text.lwip_netconn_do_recv,"ax",%progbits
 4313              		.align	1
 4314              		.global	lwip_netconn_do_recv
 4315              		.syntax unified
 4316              		.thumb
 4317              		.thumb_func
 4319              	lwip_netconn_do_recv:
 4320              	.LVL424:
 4321              	.LFB194:
1594:Middlewares/Third_Party/LwIP/src/api/api_msg.c ****   struct api_msg *msg = (struct api_msg *)m;
 4322              		.loc 1 1594 1 is_stmt 1 view -0
 4323              		.cfi_startproc
 4324              		@ args = 0, pretend = 0, frame = 0
 4325              		@ frame_needed = 0, uses_anonymous_args = 0
1595:Middlewares/Third_Party/LwIP/src/api/api_msg.c **** 
 4326              		.loc 1 1595 3 view .LVU1338
1597:Middlewares/Third_Party/LwIP/src/api/api_msg.c ****   if (msg->conn->pcb.tcp != NULL) {
 4327              		.loc 1 1597 3 view .LVU1339
1597:Middlewares/Third_Party/LwIP/src/api/api_msg.c ****   if (msg->conn->pcb.tcp != NULL) {
 4328              		.loc 1 1597 12 is_stmt 0 view .LVU1340
 4329 0000 0023     		movs	r3, #0
 4330 0002 0371     		strb	r3, [r0, #4]
1598:Middlewares/Third_Party/LwIP/src/api/api_msg.c ****     if (NETCONNTYPE_GROUP(msg->conn->type) == NETCONN_TCP) {
 4331              		.loc 1 1598 3 is_stmt 1 view .LVU1341
1598:Middlewares/Third_Party/LwIP/src/api/api_msg.c ****     if (NETCONNTYPE_GROUP(msg->conn->type) == NETCONN_TCP) {
 4332              		.loc 1 1598 10 is_stmt 0 view .LVU1342
 4333 0004 0368     		ldr	r3, [r0]
1598:Middlewares/Third_Party/LwIP/src/api/api_msg.c ****     if (NETCONNTYPE_GROUP(msg->conn->type) == NETCONN_TCP) {
 4334              		.loc 1 1598 21 view .LVU1343
 4335 0006 5A68     		ldr	r2, [r3, #4]
1598:Middlewares/Third_Party/LwIP/src/api/api_msg.c ****     if (NETCONNTYPE_GROUP(msg->conn->type) == NETCONN_TCP) {
 4336              		.loc 1 1598 6 view .LVU1344
ARM GAS  C:\Users\hh\AppData\Local\Temp\ccfq6ENc.s 			page 131


 4337 0008 BAB1     		cbz	r2, .L369
1594:Middlewares/Third_Party/LwIP/src/api/api_msg.c ****   struct api_msg *msg = (struct api_msg *)m;
 4338              		.loc 1 1594 1 view .LVU1345
 4339 000a 70B5     		push	{r4, r5, r6, lr}
 4340              	.LCFI29:
 4341              		.cfi_def_cfa_offset 16
 4342              		.cfi_offset 4, -16
 4343              		.cfi_offset 5, -12
 4344              		.cfi_offset 6, -8
 4345              		.cfi_offset 14, -4
 4346 000c 0646     		mov	r6, r0
1599:Middlewares/Third_Party/LwIP/src/api/api_msg.c ****       size_t remaining = msg->msg.r.len;
 4347              		.loc 1 1599 5 is_stmt 1 view .LVU1346
1599:Middlewares/Third_Party/LwIP/src/api/api_msg.c ****       size_t remaining = msg->msg.r.len;
 4348              		.loc 1 1599 9 is_stmt 0 view .LVU1347
 4349 000e 1B78     		ldrb	r3, [r3]	@ zero_extendqisi2
1599:Middlewares/Third_Party/LwIP/src/api/api_msg.c ****       size_t remaining = msg->msg.r.len;
 4350              		.loc 1 1599 8 view .LVU1348
 4351 0010 03F0F003 		and	r3, r3, #240
 4352 0014 102B     		cmp	r3, #16
 4353 0016 00D0     		beq	.L372
 4354              	.LVL425:
 4355              	.L363:
1609:Middlewares/Third_Party/LwIP/src/api/api_msg.c **** 
 4356              		.loc 1 1609 1 view .LVU1349
 4357 0018 70BD     		pop	{r4, r5, r6, pc}
 4358              	.LVL426:
 4359              	.L372:
 4360              	.LBB24:
1600:Middlewares/Third_Party/LwIP/src/api/api_msg.c ****       do {
 4361              		.loc 1 1600 7 is_stmt 1 view .LVU1350
1600:Middlewares/Third_Party/LwIP/src/api/api_msg.c ****       do {
 4362              		.loc 1 1600 14 is_stmt 0 view .LVU1351
 4363 001a 8468     		ldr	r4, [r0, #8]
 4364 001c 08E0     		b	.L366
 4365              	.LVL427:
 4366              	.L367:
 4367              	.LBB25:
1602:Middlewares/Third_Party/LwIP/src/api/api_msg.c ****         tcp_recved(msg->conn->pcb.tcp, recved);
 4368              		.loc 1 1602 15 discriminator 2 view .LVU1352
 4369 001e 4FF6FF75 		movw	r5, #65535
 4370              	.L365:
 4371              	.LVL428:
1603:Middlewares/Third_Party/LwIP/src/api/api_msg.c ****         remaining -= recved;
 4372              		.loc 1 1603 9 is_stmt 1 view .LVU1353
1603:Middlewares/Third_Party/LwIP/src/api/api_msg.c ****         remaining -= recved;
 4373              		.loc 1 1603 23 is_stmt 0 view .LVU1354
 4374 0022 3368     		ldr	r3, [r6]
1603:Middlewares/Third_Party/LwIP/src/api/api_msg.c ****         remaining -= recved;
 4375              		.loc 1 1603 9 view .LVU1355
 4376 0024 2946     		mov	r1, r5
 4377 0026 5868     		ldr	r0, [r3, #4]
 4378 0028 FFF7FEFF 		bl	tcp_recved
 4379              	.LVL429:
1604:Middlewares/Third_Party/LwIP/src/api/api_msg.c ****       } while (remaining != 0);
 4380              		.loc 1 1604 9 is_stmt 1 view .LVU1356
1604:Middlewares/Third_Party/LwIP/src/api/api_msg.c ****       } while (remaining != 0);
ARM GAS  C:\Users\hh\AppData\Local\Temp\ccfq6ENc.s 			page 132


 4381              		.loc 1 1604 9 is_stmt 0 view .LVU1357
 4382              	.LBE25:
1605:Middlewares/Third_Party/LwIP/src/api/api_msg.c ****     }
 4383              		.loc 1 1605 26 is_stmt 1 view .LVU1358
 4384 002c 641B     		subs	r4, r4, r5
 4385              	.LVL430:
1605:Middlewares/Third_Party/LwIP/src/api/api_msg.c ****     }
 4386              		.loc 1 1605 26 is_stmt 0 view .LVU1359
 4387 002e F3D0     		beq	.L363
 4388              	.LVL431:
 4389              	.L366:
1601:Middlewares/Third_Party/LwIP/src/api/api_msg.c ****         u16_t recved = (u16_t)((remaining > 0xffff) ? 0xffff : remaining);
 4390              		.loc 1 1601 7 is_stmt 1 view .LVU1360
 4391              	.LBB26:
1602:Middlewares/Third_Party/LwIP/src/api/api_msg.c ****         tcp_recved(msg->conn->pcb.tcp, recved);
 4392              		.loc 1 1602 9 view .LVU1361
1602:Middlewares/Third_Party/LwIP/src/api/api_msg.c ****         tcp_recved(msg->conn->pcb.tcp, recved);
 4393              		.loc 1 1602 24 is_stmt 0 view .LVU1362
 4394 0030 B4F5803F 		cmp	r4, #65536
 4395 0034 F3D2     		bcs	.L367
1602:Middlewares/Third_Party/LwIP/src/api/api_msg.c ****         tcp_recved(msg->conn->pcb.tcp, recved);
 4396              		.loc 1 1602 15 discriminator 1 view .LVU1363
 4397 0036 A5B2     		uxth	r5, r4
 4398              	.LVL432:
1602:Middlewares/Third_Party/LwIP/src/api/api_msg.c ****         tcp_recved(msg->conn->pcb.tcp, recved);
 4399              		.loc 1 1602 15 discriminator 1 view .LVU1364
 4400 0038 F3E7     		b	.L365
 4401              	.LVL433:
 4402              	.L369:
 4403              	.LCFI30:
 4404              		.cfi_def_cfa_offset 0
 4405              		.cfi_restore 4
 4406              		.cfi_restore 5
 4407              		.cfi_restore 6
 4408              		.cfi_restore 14
1602:Middlewares/Third_Party/LwIP/src/api/api_msg.c ****         tcp_recved(msg->conn->pcb.tcp, recved);
 4409              		.loc 1 1602 15 discriminator 1 view .LVU1365
 4410 003a 7047     		bx	lr
 4411              	.LBE26:
 4412              	.LBE24:
 4413              		.cfi_endproc
 4414              	.LFE194:
 4416              		.section	.rodata.lwip_netconn_do_write.str1.4,"aMS",%progbits,1
 4417              		.align	2
 4418              	.LC35:
 4419 0000 6D73672D 		.ascii	"msg->msg.w.len != 0\000"
 4419      3E6D7367 
 4419      2E772E6C 
 4419      656E2021 
 4419      3D203000 
 4420              		.section	.text.lwip_netconn_do_write,"ax",%progbits
 4421              		.align	1
 4422              		.global	lwip_netconn_do_write
 4423              		.syntax unified
 4424              		.thumb
 4425              		.thumb_func
 4427              	lwip_netconn_do_write:
ARM GAS  C:\Users\hh\AppData\Local\Temp\ccfq6ENc.s 			page 133


 4428              	.LVL434:
 4429              	.LFB196:
1808:Middlewares/Third_Party/LwIP/src/api/api_msg.c **** #endif /* LWIP_TCP */
1809:Middlewares/Third_Party/LwIP/src/api/api_msg.c **** 
1810:Middlewares/Third_Party/LwIP/src/api/api_msg.c **** /**
1811:Middlewares/Third_Party/LwIP/src/api/api_msg.c ****  * Send some data on a TCP pcb contained in a netconn
1812:Middlewares/Third_Party/LwIP/src/api/api_msg.c ****  * Called from netconn_write
1813:Middlewares/Third_Party/LwIP/src/api/api_msg.c ****  *
1814:Middlewares/Third_Party/LwIP/src/api/api_msg.c ****  * @param m the api_msg pointing to the connection
1815:Middlewares/Third_Party/LwIP/src/api/api_msg.c ****  */
1816:Middlewares/Third_Party/LwIP/src/api/api_msg.c **** void
1817:Middlewares/Third_Party/LwIP/src/api/api_msg.c **** lwip_netconn_do_write(void *m)
1818:Middlewares/Third_Party/LwIP/src/api/api_msg.c **** {
 4430              		.loc 1 1818 1 is_stmt 1 view -0
 4431              		.cfi_startproc
 4432              		@ args = 0, pretend = 0, frame = 0
 4433              		@ frame_needed = 0, uses_anonymous_args = 0
 4434              		.loc 1 1818 1 is_stmt 0 view .LVU1367
 4435 0000 10B5     		push	{r4, lr}
 4436              	.LCFI31:
 4437              		.cfi_def_cfa_offset 8
 4438              		.cfi_offset 4, -8
 4439              		.cfi_offset 14, -4
 4440 0002 0446     		mov	r4, r0
1819:Middlewares/Third_Party/LwIP/src/api/api_msg.c ****   struct api_msg *msg = (struct api_msg *)m;
 4441              		.loc 1 1819 3 is_stmt 1 view .LVU1368
 4442              	.LVL435:
1820:Middlewares/Third_Party/LwIP/src/api/api_msg.c **** 
1821:Middlewares/Third_Party/LwIP/src/api/api_msg.c ****   err_t err = netconn_err(msg->conn);
 4443              		.loc 1 1821 3 view .LVU1369
 4444              		.loc 1 1821 15 is_stmt 0 view .LVU1370
 4445 0004 0068     		ldr	r0, [r0]
 4446              	.LVL436:
 4447              		.loc 1 1821 15 view .LVU1371
 4448 0006 FFF7FEFF 		bl	netconn_err
 4449              	.LVL437:
1822:Middlewares/Third_Party/LwIP/src/api/api_msg.c ****   if (err == ERR_OK) {
 4450              		.loc 1 1822 3 is_stmt 1 view .LVU1372
 4451              		.loc 1 1822 6 is_stmt 0 view .LVU1373
 4452 000a 0346     		mov	r3, r0
 4453 000c 28B9     		cbnz	r0, .L374
1823:Middlewares/Third_Party/LwIP/src/api/api_msg.c ****     if (NETCONNTYPE_GROUP(msg->conn->type) == NETCONN_TCP) {
 4454              		.loc 1 1823 5 is_stmt 1 view .LVU1374
 4455              		.loc 1 1823 9 is_stmt 0 view .LVU1375
 4456 000e 2168     		ldr	r1, [r4]
 4457 0010 0A78     		ldrb	r2, [r1]	@ zero_extendqisi2
 4458              		.loc 1 1823 8 view .LVU1376
 4459 0012 02F0F002 		and	r2, r2, #240
 4460 0016 102A     		cmp	r2, #16
 4461 0018 01D0     		beq	.L383
 4462              	.L374:
 4463              	.LVL438:
1824:Middlewares/Third_Party/LwIP/src/api/api_msg.c **** #if LWIP_TCP
1825:Middlewares/Third_Party/LwIP/src/api/api_msg.c ****       if (msg->conn->state != NETCONN_NONE) {
1826:Middlewares/Third_Party/LwIP/src/api/api_msg.c ****         /* netconn is connecting, closing or in blocking write */
1827:Middlewares/Third_Party/LwIP/src/api/api_msg.c ****         err = ERR_INPROGRESS;
1828:Middlewares/Third_Party/LwIP/src/api/api_msg.c ****       } else if (msg->conn->pcb.tcp != NULL) {
ARM GAS  C:\Users\hh\AppData\Local\Temp\ccfq6ENc.s 			page 134


1829:Middlewares/Third_Party/LwIP/src/api/api_msg.c ****         msg->conn->state = NETCONN_WRITE;
1830:Middlewares/Third_Party/LwIP/src/api/api_msg.c ****         /* set all the variables used by lwip_netconn_do_writemore */
1831:Middlewares/Third_Party/LwIP/src/api/api_msg.c ****         LWIP_ASSERT("already writing or closing", msg->conn->current_msg == NULL);
1832:Middlewares/Third_Party/LwIP/src/api/api_msg.c ****         LWIP_ASSERT("msg->msg.w.len != 0", msg->msg.w.len != 0);
1833:Middlewares/Third_Party/LwIP/src/api/api_msg.c ****         msg->conn->current_msg = msg;
1834:Middlewares/Third_Party/LwIP/src/api/api_msg.c **** #if LWIP_TCPIP_CORE_LOCKING
1835:Middlewares/Third_Party/LwIP/src/api/api_msg.c ****         if (lwip_netconn_do_writemore(msg->conn, 0) != ERR_OK) {
1836:Middlewares/Third_Party/LwIP/src/api/api_msg.c ****           LWIP_ASSERT("state!", msg->conn->state == NETCONN_WRITE);
1837:Middlewares/Third_Party/LwIP/src/api/api_msg.c ****           UNLOCK_TCPIP_CORE();
1838:Middlewares/Third_Party/LwIP/src/api/api_msg.c ****           sys_arch_sem_wait(LWIP_API_MSG_SEM(msg), 0);
1839:Middlewares/Third_Party/LwIP/src/api/api_msg.c ****           LOCK_TCPIP_CORE();
1840:Middlewares/Third_Party/LwIP/src/api/api_msg.c ****           LWIP_ASSERT("state!", msg->conn->state != NETCONN_WRITE);
1841:Middlewares/Third_Party/LwIP/src/api/api_msg.c ****         }
1842:Middlewares/Third_Party/LwIP/src/api/api_msg.c **** #else /* LWIP_TCPIP_CORE_LOCKING */
1843:Middlewares/Third_Party/LwIP/src/api/api_msg.c ****         lwip_netconn_do_writemore(msg->conn);
1844:Middlewares/Third_Party/LwIP/src/api/api_msg.c **** #endif /* LWIP_TCPIP_CORE_LOCKING */
1845:Middlewares/Third_Party/LwIP/src/api/api_msg.c ****         /* for both cases: if lwip_netconn_do_writemore was called, don't ACK the APIMSG
1846:Middlewares/Third_Party/LwIP/src/api/api_msg.c ****            since lwip_netconn_do_writemore ACKs it! */
1847:Middlewares/Third_Party/LwIP/src/api/api_msg.c ****         return;
1848:Middlewares/Third_Party/LwIP/src/api/api_msg.c ****       } else {
1849:Middlewares/Third_Party/LwIP/src/api/api_msg.c ****         err = ERR_CONN;
1850:Middlewares/Third_Party/LwIP/src/api/api_msg.c ****       }
1851:Middlewares/Third_Party/LwIP/src/api/api_msg.c **** #else /* LWIP_TCP */
1852:Middlewares/Third_Party/LwIP/src/api/api_msg.c ****       err = ERR_VAL;
1853:Middlewares/Third_Party/LwIP/src/api/api_msg.c **** #endif /* LWIP_TCP */
1854:Middlewares/Third_Party/LwIP/src/api/api_msg.c **** #if (LWIP_UDP || LWIP_RAW)
1855:Middlewares/Third_Party/LwIP/src/api/api_msg.c ****     } else {
1856:Middlewares/Third_Party/LwIP/src/api/api_msg.c ****       err = ERR_VAL;
1857:Middlewares/Third_Party/LwIP/src/api/api_msg.c **** #endif /* (LWIP_UDP || LWIP_RAW) */
1858:Middlewares/Third_Party/LwIP/src/api/api_msg.c ****     }
1859:Middlewares/Third_Party/LwIP/src/api/api_msg.c ****   }
1860:Middlewares/Third_Party/LwIP/src/api/api_msg.c ****   msg->err = err;
 4464              		.loc 1 1860 3 is_stmt 1 view .LVU1377
 4465              		.loc 1 1860 12 is_stmt 0 view .LVU1378
 4466 001a 2371     		strb	r3, [r4, #4]
1861:Middlewares/Third_Party/LwIP/src/api/api_msg.c ****   TCPIP_APIMSG_ACK(msg);
 4467              		.loc 1 1861 24 is_stmt 1 view .LVU1379
 4468              	.LVL439:
 4469              	.L373:
1862:Middlewares/Third_Party/LwIP/src/api/api_msg.c **** }
 4470              		.loc 1 1862 1 is_stmt 0 view .LVU1380
 4471 001c 10BD     		pop	{r4, pc}
 4472              	.LVL440:
 4473              	.L383:
1825:Middlewares/Third_Party/LwIP/src/api/api_msg.c ****         /* netconn is connecting, closing or in blocking write */
 4474              		.loc 1 1825 7 is_stmt 1 view .LVU1381
1825:Middlewares/Third_Party/LwIP/src/api/api_msg.c ****         /* netconn is connecting, closing or in blocking write */
 4475              		.loc 1 1825 20 is_stmt 0 view .LVU1382
 4476 001e 4B78     		ldrb	r3, [r1, #1]	@ zero_extendqisi2
1825:Middlewares/Third_Party/LwIP/src/api/api_msg.c ****         /* netconn is connecting, closing or in blocking write */
 4477              		.loc 1 1825 10 view .LVU1383
 4478 0020 002B     		cmp	r3, #0
 4479 0022 43D1     		bne	.L380
1828:Middlewares/Third_Party/LwIP/src/api/api_msg.c ****         msg->conn->state = NETCONN_WRITE;
 4480              		.loc 1 1828 14 is_stmt 1 view .LVU1384
1828:Middlewares/Third_Party/LwIP/src/api/api_msg.c ****         msg->conn->state = NETCONN_WRITE;
 4481              		.loc 1 1828 32 is_stmt 0 view .LVU1385
ARM GAS  C:\Users\hh\AppData\Local\Temp\ccfq6ENc.s 			page 135


 4482 0024 4B68     		ldr	r3, [r1, #4]
1828:Middlewares/Third_Party/LwIP/src/api/api_msg.c ****         msg->conn->state = NETCONN_WRITE;
 4483              		.loc 1 1828 17 view .LVU1386
 4484 0026 002B     		cmp	r3, #0
 4485 0028 43D0     		beq	.L381
1829:Middlewares/Third_Party/LwIP/src/api/api_msg.c ****         /* set all the variables used by lwip_netconn_do_writemore */
 4486              		.loc 1 1829 9 is_stmt 1 view .LVU1387
1829:Middlewares/Third_Party/LwIP/src/api/api_msg.c ****         /* set all the variables used by lwip_netconn_do_writemore */
 4487              		.loc 1 1829 26 is_stmt 0 view .LVU1388
 4488 002a 0123     		movs	r3, #1
 4489 002c 4B70     		strb	r3, [r1, #1]
1831:Middlewares/Third_Party/LwIP/src/api/api_msg.c ****         LWIP_ASSERT("msg->msg.w.len != 0", msg->msg.w.len != 0);
 4490              		.loc 1 1831 9 is_stmt 1 view .LVU1389
1831:Middlewares/Third_Party/LwIP/src/api/api_msg.c ****         LWIP_ASSERT("msg->msg.w.len != 0", msg->msg.w.len != 0);
 4491              		.loc 1 1831 9 view .LVU1390
 4492 002e 2368     		ldr	r3, [r4]
 4493 0030 1B6A     		ldr	r3, [r3, #32]
 4494 0032 33B1     		cbz	r3, .L375
1831:Middlewares/Third_Party/LwIP/src/api/api_msg.c ****         LWIP_ASSERT("msg->msg.w.len != 0", msg->msg.w.len != 0);
 4495              		.loc 1 1831 9 discriminator 1 view .LVU1391
1831:Middlewares/Third_Party/LwIP/src/api/api_msg.c ****         LWIP_ASSERT("msg->msg.w.len != 0", msg->msg.w.len != 0);
 4496              		.loc 1 1831 9 discriminator 1 view .LVU1392
 4497 0034 204B     		ldr	r3, .L386
 4498 0036 40F22772 		movw	r2, #1831
 4499 003a 2049     		ldr	r1, .L386+4
 4500 003c 2048     		ldr	r0, .L386+8
 4501              	.LVL441:
1831:Middlewares/Third_Party/LwIP/src/api/api_msg.c ****         LWIP_ASSERT("msg->msg.w.len != 0", msg->msg.w.len != 0);
 4502              		.loc 1 1831 9 is_stmt 0 discriminator 1 view .LVU1393
 4503 003e FFF7FEFF 		bl	printf
 4504              	.LVL442:
 4505              	.L375:
1831:Middlewares/Third_Party/LwIP/src/api/api_msg.c ****         LWIP_ASSERT("msg->msg.w.len != 0", msg->msg.w.len != 0);
 4506              		.loc 1 1831 9 is_stmt 1 view .LVU1394
1831:Middlewares/Third_Party/LwIP/src/api/api_msg.c ****         LWIP_ASSERT("msg->msg.w.len != 0", msg->msg.w.len != 0);
 4507              		.loc 1 1831 9 view .LVU1395
1832:Middlewares/Third_Party/LwIP/src/api/api_msg.c ****         msg->conn->current_msg = msg;
 4508              		.loc 1 1832 9 view .LVU1396
1832:Middlewares/Third_Party/LwIP/src/api/api_msg.c ****         msg->conn->current_msg = msg;
 4509              		.loc 1 1832 9 view .LVU1397
 4510 0042 6369     		ldr	r3, [r4, #20]
 4511 0044 13B3     		cbz	r3, .L384
 4512              	.L376:
1832:Middlewares/Third_Party/LwIP/src/api/api_msg.c ****         msg->conn->current_msg = msg;
 4513              		.loc 1 1832 9 view .LVU1398
1832:Middlewares/Third_Party/LwIP/src/api/api_msg.c ****         msg->conn->current_msg = msg;
 4514              		.loc 1 1832 9 view .LVU1399
1833:Middlewares/Third_Party/LwIP/src/api/api_msg.c **** #if LWIP_TCPIP_CORE_LOCKING
 4515              		.loc 1 1833 9 view .LVU1400
1833:Middlewares/Third_Party/LwIP/src/api/api_msg.c **** #if LWIP_TCPIP_CORE_LOCKING
 4516              		.loc 1 1833 12 is_stmt 0 view .LVU1401
 4517 0046 2368     		ldr	r3, [r4]
1833:Middlewares/Third_Party/LwIP/src/api/api_msg.c **** #if LWIP_TCPIP_CORE_LOCKING
 4518              		.loc 1 1833 32 view .LVU1402
 4519 0048 1C62     		str	r4, [r3, #32]
1835:Middlewares/Third_Party/LwIP/src/api/api_msg.c ****           LWIP_ASSERT("state!", msg->conn->state == NETCONN_WRITE);
 4520              		.loc 1 1835 9 is_stmt 1 view .LVU1403
ARM GAS  C:\Users\hh\AppData\Local\Temp\ccfq6ENc.s 			page 136


1835:Middlewares/Third_Party/LwIP/src/api/api_msg.c ****           LWIP_ASSERT("state!", msg->conn->state == NETCONN_WRITE);
 4521              		.loc 1 1835 13 is_stmt 0 view .LVU1404
 4522 004a 0021     		movs	r1, #0
 4523 004c 2068     		ldr	r0, [r4]
 4524 004e FFF7FEFF 		bl	lwip_netconn_do_writemore
 4525              	.LVL443:
1835:Middlewares/Third_Party/LwIP/src/api/api_msg.c ****           LWIP_ASSERT("state!", msg->conn->state == NETCONN_WRITE);
 4526              		.loc 1 1835 12 discriminator 1 view .LVU1405
 4527 0052 0028     		cmp	r0, #0
 4528 0054 E2D0     		beq	.L373
1836:Middlewares/Third_Party/LwIP/src/api/api_msg.c ****           UNLOCK_TCPIP_CORE();
 4529              		.loc 1 1836 11 is_stmt 1 view .LVU1406
1836:Middlewares/Third_Party/LwIP/src/api/api_msg.c ****           UNLOCK_TCPIP_CORE();
 4530              		.loc 1 1836 11 view .LVU1407
 4531 0056 2368     		ldr	r3, [r4]
 4532 0058 5B78     		ldrb	r3, [r3, #1]	@ zero_extendqisi2
 4533 005a 012B     		cmp	r3, #1
 4534 005c 1ED1     		bne	.L385
 4535              	.L378:
1836:Middlewares/Third_Party/LwIP/src/api/api_msg.c ****           UNLOCK_TCPIP_CORE();
 4536              		.loc 1 1836 11 view .LVU1408
1836:Middlewares/Third_Party/LwIP/src/api/api_msg.c ****           UNLOCK_TCPIP_CORE();
 4537              		.loc 1 1836 11 view .LVU1409
1837:Middlewares/Third_Party/LwIP/src/api/api_msg.c ****           sys_arch_sem_wait(LWIP_API_MSG_SEM(msg), 0);
 4538              		.loc 1 1837 11 view .LVU1410
 4539 005e 1948     		ldr	r0, .L386+12
 4540 0060 FFF7FEFF 		bl	sys_mutex_unlock
 4541              	.LVL444:
1838:Middlewares/Third_Party/LwIP/src/api/api_msg.c ****           LOCK_TCPIP_CORE();
 4542              		.loc 1 1838 11 view .LVU1411
1838:Middlewares/Third_Party/LwIP/src/api/api_msg.c ****           LOCK_TCPIP_CORE();
 4543              		.loc 1 1838 29 is_stmt 0 view .LVU1412
 4544 0064 2068     		ldr	r0, [r4]
1838:Middlewares/Third_Party/LwIP/src/api/api_msg.c ****           LOCK_TCPIP_CORE();
 4545              		.loc 1 1838 11 view .LVU1413
 4546 0066 0021     		movs	r1, #0
 4547 0068 0C30     		adds	r0, r0, #12
 4548 006a FFF7FEFF 		bl	sys_arch_sem_wait
 4549              	.LVL445:
1839:Middlewares/Third_Party/LwIP/src/api/api_msg.c ****           LWIP_ASSERT("state!", msg->conn->state != NETCONN_WRITE);
 4550              		.loc 1 1839 11 is_stmt 1 view .LVU1414
 4551 006e 1548     		ldr	r0, .L386+12
 4552 0070 FFF7FEFF 		bl	sys_mutex_lock
 4553              	.LVL446:
1840:Middlewares/Third_Party/LwIP/src/api/api_msg.c ****         }
 4554              		.loc 1 1840 11 view .LVU1415
1840:Middlewares/Third_Party/LwIP/src/api/api_msg.c ****         }
 4555              		.loc 1 1840 11 view .LVU1416
 4556 0074 2368     		ldr	r3, [r4]
 4557 0076 5B78     		ldrb	r3, [r3, #1]	@ zero_extendqisi2
 4558 0078 012B     		cmp	r3, #1
 4559 007a CFD1     		bne	.L373
1840:Middlewares/Third_Party/LwIP/src/api/api_msg.c ****         }
 4560              		.loc 1 1840 11 discriminator 1 view .LVU1417
1840:Middlewares/Third_Party/LwIP/src/api/api_msg.c ****         }
 4561              		.loc 1 1840 11 discriminator 1 view .LVU1418
 4562 007c 0E4B     		ldr	r3, .L386
ARM GAS  C:\Users\hh\AppData\Local\Temp\ccfq6ENc.s 			page 137


 4563 007e 4FF4E662 		mov	r2, #1840
 4564 0082 1149     		ldr	r1, .L386+16
 4565 0084 0E48     		ldr	r0, .L386+8
 4566 0086 FFF7FEFF 		bl	printf
 4567              	.LVL447:
1840:Middlewares/Third_Party/LwIP/src/api/api_msg.c ****         }
 4568              		.loc 1 1840 11 view .LVU1419
1840:Middlewares/Third_Party/LwIP/src/api/api_msg.c ****         }
 4569              		.loc 1 1840 11 view .LVU1420
1847:Middlewares/Third_Party/LwIP/src/api/api_msg.c ****       } else {
 4570              		.loc 1 1847 9 view .LVU1421
 4571 008a C7E7     		b	.L373
 4572              	.L384:
1832:Middlewares/Third_Party/LwIP/src/api/api_msg.c ****         msg->conn->current_msg = msg;
 4573              		.loc 1 1832 9 discriminator 1 view .LVU1422
1832:Middlewares/Third_Party/LwIP/src/api/api_msg.c ****         msg->conn->current_msg = msg;
 4574              		.loc 1 1832 9 discriminator 1 view .LVU1423
 4575 008c 0A4B     		ldr	r3, .L386
 4576 008e 4FF4E562 		mov	r2, #1832
 4577 0092 0E49     		ldr	r1, .L386+20
 4578 0094 0A48     		ldr	r0, .L386+8
 4579 0096 FFF7FEFF 		bl	printf
 4580              	.LVL448:
 4581 009a D4E7     		b	.L376
 4582              	.L385:
1836:Middlewares/Third_Party/LwIP/src/api/api_msg.c ****           UNLOCK_TCPIP_CORE();
 4583              		.loc 1 1836 11 discriminator 1 view .LVU1424
1836:Middlewares/Third_Party/LwIP/src/api/api_msg.c ****           UNLOCK_TCPIP_CORE();
 4584              		.loc 1 1836 11 discriminator 1 view .LVU1425
 4585 009c 064B     		ldr	r3, .L386
 4586 009e 40F22C72 		movw	r2, #1836
 4587 00a2 0949     		ldr	r1, .L386+16
 4588 00a4 0648     		ldr	r0, .L386+8
 4589 00a6 FFF7FEFF 		bl	printf
 4590              	.LVL449:
 4591 00aa D8E7     		b	.L378
 4592              	.LVL450:
 4593              	.L380:
1827:Middlewares/Third_Party/LwIP/src/api/api_msg.c ****       } else if (msg->conn->pcb.tcp != NULL) {
 4594              		.loc 1 1827 13 is_stmt 0 view .LVU1426
 4595 00ac 6FF00403 		mvn	r3, #4
 4596 00b0 B3E7     		b	.L374
 4597              	.L381:
1849:Middlewares/Third_Party/LwIP/src/api/api_msg.c ****       }
 4598              		.loc 1 1849 13 view .LVU1427
 4599 00b2 6FF00A03 		mvn	r3, #10
 4600 00b6 B0E7     		b	.L374
 4601              	.L387:
 4602              		.align	2
 4603              	.L386:
 4604 00b8 00000000 		.word	.LC0
 4605 00bc 34000000 		.word	.LC33
 4606 00c0 40000000 		.word	.LC2
 4607 00c4 00000000 		.word	lock_tcpip_core
 4608 00c8 50000000 		.word	.LC34
 4609 00cc 00000000 		.word	.LC35
 4610              		.cfi_endproc
ARM GAS  C:\Users\hh\AppData\Local\Temp\ccfq6ENc.s 			page 138


 4611              	.LFE196:
 4613              		.section	.rodata.lwip_netconn_do_getaddr.str1.4,"aMS",%progbits,1
 4614              		.align	2
 4615              	.LC36:
 4616 0000 696E7661 		.ascii	"invalid netconn_type\000"
 4616      6C696420 
 4616      6E657463 
 4616      6F6E6E5F 
 4616      74797065 
 4617              		.section	.text.lwip_netconn_do_getaddr,"ax",%progbits
 4618              		.align	1
 4619              		.global	lwip_netconn_do_getaddr
 4620              		.syntax unified
 4621              		.thumb
 4622              		.thumb_func
 4624              	lwip_netconn_do_getaddr:
 4625              	.LVL451:
 4626              	.LFB197:
1863:Middlewares/Third_Party/LwIP/src/api/api_msg.c **** 
1864:Middlewares/Third_Party/LwIP/src/api/api_msg.c **** /**
1865:Middlewares/Third_Party/LwIP/src/api/api_msg.c ****  * Return a connection's local or remote address
1866:Middlewares/Third_Party/LwIP/src/api/api_msg.c ****  * Called from netconn_getaddr
1867:Middlewares/Third_Party/LwIP/src/api/api_msg.c ****  *
1868:Middlewares/Third_Party/LwIP/src/api/api_msg.c ****  * @param m the api_msg pointing to the connection
1869:Middlewares/Third_Party/LwIP/src/api/api_msg.c ****  */
1870:Middlewares/Third_Party/LwIP/src/api/api_msg.c **** void
1871:Middlewares/Third_Party/LwIP/src/api/api_msg.c **** lwip_netconn_do_getaddr(void *m)
1872:Middlewares/Third_Party/LwIP/src/api/api_msg.c **** {
 4627              		.loc 1 1872 1 is_stmt 1 view -0
 4628              		.cfi_startproc
 4629              		@ args = 0, pretend = 0, frame = 0
 4630              		@ frame_needed = 0, uses_anonymous_args = 0
 4631              		.loc 1 1872 1 is_stmt 0 view .LVU1429
 4632 0000 08B5     		push	{r3, lr}
 4633              	.LCFI32:
 4634              		.cfi_def_cfa_offset 8
 4635              		.cfi_offset 3, -8
 4636              		.cfi_offset 14, -4
1873:Middlewares/Third_Party/LwIP/src/api/api_msg.c ****   struct api_msg *msg = (struct api_msg *)m;
 4637              		.loc 1 1873 3 is_stmt 1 view .LVU1430
 4638              	.LVL452:
1874:Middlewares/Third_Party/LwIP/src/api/api_msg.c **** 
1875:Middlewares/Third_Party/LwIP/src/api/api_msg.c ****   if (msg->conn->pcb.ip != NULL) {
 4639              		.loc 1 1875 3 view .LVU1431
 4640              		.loc 1 1875 10 is_stmt 0 view .LVU1432
 4641 0002 0368     		ldr	r3, [r0]
 4642              		.loc 1 1875 21 view .LVU1433
 4643 0004 5B68     		ldr	r3, [r3, #4]
 4644              		.loc 1 1875 6 view .LVU1434
 4645 0006 53B3     		cbz	r3, .L389
1876:Middlewares/Third_Party/LwIP/src/api/api_msg.c ****     if (msg->msg.ad.local) {
 4646              		.loc 1 1876 5 is_stmt 1 view .LVU1435
 4647              		.loc 1 1876 20 is_stmt 0 view .LVU1436
 4648 0008 027C     		ldrb	r2, [r0, #16]	@ zero_extendqisi2
 4649              		.loc 1 1876 8 view .LVU1437
 4650 000a B2B1     		cbz	r2, .L390
1877:Middlewares/Third_Party/LwIP/src/api/api_msg.c ****       ip_addr_copy(API_EXPR_DEREF(msg->msg.ad.ipaddr),
ARM GAS  C:\Users\hh\AppData\Local\Temp\ccfq6ENc.s 			page 139


 4651              		.loc 1 1877 7 is_stmt 1 view .LVU1438
 4652 000c 8268     		ldr	r2, [r0, #8]
 4653 000e 1B68     		ldr	r3, [r3]
 4654 0010 1360     		str	r3, [r2]
 4655              	.L391:
1878:Middlewares/Third_Party/LwIP/src/api/api_msg.c ****                    msg->conn->pcb.ip->local_ip);
1879:Middlewares/Third_Party/LwIP/src/api/api_msg.c ****     } else {
1880:Middlewares/Third_Party/LwIP/src/api/api_msg.c ****       ip_addr_copy(API_EXPR_DEREF(msg->msg.ad.ipaddr),
1881:Middlewares/Third_Party/LwIP/src/api/api_msg.c ****                    msg->conn->pcb.ip->remote_ip);
1882:Middlewares/Third_Party/LwIP/src/api/api_msg.c ****     }
1883:Middlewares/Third_Party/LwIP/src/api/api_msg.c **** 
1884:Middlewares/Third_Party/LwIP/src/api/api_msg.c ****     msg->err = ERR_OK;
 4656              		.loc 1 1884 5 view .LVU1439
 4657              		.loc 1 1884 14 is_stmt 0 view .LVU1440
 4658 0012 0023     		movs	r3, #0
 4659 0014 0371     		strb	r3, [r0, #4]
1885:Middlewares/Third_Party/LwIP/src/api/api_msg.c ****     switch (NETCONNTYPE_GROUP(msg->conn->type)) {
 4660              		.loc 1 1885 5 is_stmt 1 view .LVU1441
 4661              		.loc 1 1885 13 is_stmt 0 view .LVU1442
 4662 0016 0268     		ldr	r2, [r0]
 4663 0018 1378     		ldrb	r3, [r2]	@ zero_extendqisi2
 4664              		.loc 1 1885 5 view .LVU1443
 4665 001a 03F0F003 		and	r3, r3, #240
 4666 001e 102B     		cmp	r3, #16
 4667 0020 15D1     		bne	.L392
1886:Middlewares/Third_Party/LwIP/src/api/api_msg.c **** #if LWIP_RAW
1887:Middlewares/Third_Party/LwIP/src/api/api_msg.c ****       case NETCONN_RAW:
1888:Middlewares/Third_Party/LwIP/src/api/api_msg.c ****         if (msg->msg.ad.local) {
1889:Middlewares/Third_Party/LwIP/src/api/api_msg.c ****           API_EXPR_DEREF(msg->msg.ad.port) = msg->conn->pcb.raw->protocol;
1890:Middlewares/Third_Party/LwIP/src/api/api_msg.c ****         } else {
1891:Middlewares/Third_Party/LwIP/src/api/api_msg.c ****           /* return an error as connecting is only a helper for upper layers */
1892:Middlewares/Third_Party/LwIP/src/api/api_msg.c ****           msg->err = ERR_CONN;
1893:Middlewares/Third_Party/LwIP/src/api/api_msg.c ****         }
1894:Middlewares/Third_Party/LwIP/src/api/api_msg.c ****         break;
1895:Middlewares/Third_Party/LwIP/src/api/api_msg.c **** #endif /* LWIP_RAW */
1896:Middlewares/Third_Party/LwIP/src/api/api_msg.c **** #if LWIP_UDP
1897:Middlewares/Third_Party/LwIP/src/api/api_msg.c ****       case NETCONN_UDP:
1898:Middlewares/Third_Party/LwIP/src/api/api_msg.c ****         if (msg->msg.ad.local) {
1899:Middlewares/Third_Party/LwIP/src/api/api_msg.c ****           API_EXPR_DEREF(msg->msg.ad.port) = msg->conn->pcb.udp->local_port;
1900:Middlewares/Third_Party/LwIP/src/api/api_msg.c ****         } else {
1901:Middlewares/Third_Party/LwIP/src/api/api_msg.c ****           if ((msg->conn->pcb.udp->flags & UDP_FLAGS_CONNECTED) == 0) {
1902:Middlewares/Third_Party/LwIP/src/api/api_msg.c ****             msg->err = ERR_CONN;
1903:Middlewares/Third_Party/LwIP/src/api/api_msg.c ****           } else {
1904:Middlewares/Third_Party/LwIP/src/api/api_msg.c ****             API_EXPR_DEREF(msg->msg.ad.port) = msg->conn->pcb.udp->remote_port;
1905:Middlewares/Third_Party/LwIP/src/api/api_msg.c ****           }
1906:Middlewares/Third_Party/LwIP/src/api/api_msg.c ****         }
1907:Middlewares/Third_Party/LwIP/src/api/api_msg.c ****         break;
1908:Middlewares/Third_Party/LwIP/src/api/api_msg.c **** #endif /* LWIP_UDP */
1909:Middlewares/Third_Party/LwIP/src/api/api_msg.c **** #if LWIP_TCP
1910:Middlewares/Third_Party/LwIP/src/api/api_msg.c ****       case NETCONN_TCP:
1911:Middlewares/Third_Party/LwIP/src/api/api_msg.c ****         if ((msg->msg.ad.local == 0) &&
 4668              		.loc 1 1911 9 is_stmt 1 view .LVU1444
 4669              		.loc 1 1911 25 is_stmt 0 view .LVU1445
 4670 0022 037C     		ldrb	r3, [r0, #16]	@ zero_extendqisi2
 4671              		.loc 1 1911 12 view .LVU1446
 4672 0024 1BB9     		cbnz	r3, .L393
1912:Middlewares/Third_Party/LwIP/src/api/api_msg.c ****             ((msg->conn->pcb.tcp->state == CLOSED) || (msg->conn->pcb.tcp->state == LISTEN))) {
ARM GAS  C:\Users\hh\AppData\Local\Temp\ccfq6ENc.s 			page 140


 4673              		.loc 1 1912 29 view .LVU1447
 4674 0026 5168     		ldr	r1, [r2, #4]
 4675              		.loc 1 1912 33 view .LVU1448
 4676 0028 097D     		ldrb	r1, [r1, #20]	@ zero_extendqisi2
1911:Middlewares/Third_Party/LwIP/src/api/api_msg.c ****             ((msg->conn->pcb.tcp->state == CLOSED) || (msg->conn->pcb.tcp->state == LISTEN))) {
 4677              		.loc 1 1911 38 discriminator 1 view .LVU1449
 4678 002a 0129     		cmp	r1, #1
 4679 002c 09D9     		bls	.L398
 4680              	.L393:
1913:Middlewares/Third_Party/LwIP/src/api/api_msg.c ****           /* pcb is not connected and remote name is requested */
1914:Middlewares/Third_Party/LwIP/src/api/api_msg.c ****           msg->err = ERR_CONN;
1915:Middlewares/Third_Party/LwIP/src/api/api_msg.c ****         } else {
1916:Middlewares/Third_Party/LwIP/src/api/api_msg.c ****           API_EXPR_DEREF(msg->msg.ad.port) = (msg->msg.ad.local ? msg->conn->pcb.tcp->local_port : 
 4681              		.loc 1 1916 11 is_stmt 1 view .LVU1450
 4682              		.loc 1 1916 44 is_stmt 0 view .LVU1451
 4683 002e 5BB1     		cbz	r3, .L395
 4684              		.loc 1 1916 81 discriminator 1 view .LVU1452
 4685 0030 5368     		ldr	r3, [r2, #4]
 4686              		.loc 1 1916 44 discriminator 1 view .LVU1453
 4687 0032 DA8A     		ldrh	r2, [r3, #22]
 4688              	.L396:
 4689              		.loc 1 1916 11 discriminator 4 view .LVU1454
 4690 0034 C368     		ldr	r3, [r0, #12]
 4691              		.loc 1 1916 44 discriminator 4 view .LVU1455
 4692 0036 1A80     		strh	r2, [r3]	@ movhi
 4693 0038 10E0     		b	.L388
 4694              	.L390:
1880:Middlewares/Third_Party/LwIP/src/api/api_msg.c ****                    msg->conn->pcb.ip->remote_ip);
 4695              		.loc 1 1880 7 is_stmt 1 view .LVU1456
 4696 003a 8268     		ldr	r2, [r0, #8]
 4697 003c 5B68     		ldr	r3, [r3, #4]
 4698 003e 1360     		str	r3, [r2]
 4699 0040 E7E7     		b	.L391
 4700              	.L398:
1914:Middlewares/Third_Party/LwIP/src/api/api_msg.c ****         } else {
 4701              		.loc 1 1914 11 view .LVU1457
1914:Middlewares/Third_Party/LwIP/src/api/api_msg.c ****         } else {
 4702              		.loc 1 1914 20 is_stmt 0 view .LVU1458
 4703 0042 F523     		movs	r3, #245
 4704 0044 0371     		strb	r3, [r0, #4]
 4705 0046 09E0     		b	.L388
 4706              	.L395:
 4707              		.loc 1 1916 114 discriminator 2 view .LVU1459
 4708 0048 5368     		ldr	r3, [r2, #4]
 4709              		.loc 1 1916 44 discriminator 2 view .LVU1460
 4710 004a 1A8B     		ldrh	r2, [r3, #24]
 4711 004c F2E7     		b	.L396
 4712              	.L392:
1917:Middlewares/Third_Party/LwIP/src/api/api_msg.c ****         }
1918:Middlewares/Third_Party/LwIP/src/api/api_msg.c ****         break;
1919:Middlewares/Third_Party/LwIP/src/api/api_msg.c **** #endif /* LWIP_TCP */
1920:Middlewares/Third_Party/LwIP/src/api/api_msg.c ****       default:
1921:Middlewares/Third_Party/LwIP/src/api/api_msg.c ****         LWIP_ASSERT("invalid netconn_type", 0);
 4713              		.loc 1 1921 9 is_stmt 1 view .LVU1461
 4714              		.loc 1 1921 9 view .LVU1462
 4715              		.loc 1 1921 9 discriminator 1 view .LVU1463
 4716              		.loc 1 1921 9 discriminator 1 view .LVU1464
ARM GAS  C:\Users\hh\AppData\Local\Temp\ccfq6ENc.s 			page 141


 4717 004e 054B     		ldr	r3, .L399
 4718 0050 40F28172 		movw	r2, #1921
 4719 0054 0449     		ldr	r1, .L399+4
 4720 0056 0548     		ldr	r0, .L399+8
 4721              	.LVL453:
 4722              		.loc 1 1921 9 is_stmt 0 discriminator 1 view .LVU1465
 4723 0058 FFF7FEFF 		bl	printf
 4724              	.LVL454:
 4725              		.loc 1 1921 9 is_stmt 1 view .LVU1466
 4726              		.loc 1 1921 9 view .LVU1467
1922:Middlewares/Third_Party/LwIP/src/api/api_msg.c ****         break;
 4727              		.loc 1 1922 9 view .LVU1468
 4728              	.L388:
1923:Middlewares/Third_Party/LwIP/src/api/api_msg.c ****     }
1924:Middlewares/Third_Party/LwIP/src/api/api_msg.c ****   } else {
1925:Middlewares/Third_Party/LwIP/src/api/api_msg.c ****     msg->err = ERR_CONN;
1926:Middlewares/Third_Party/LwIP/src/api/api_msg.c ****   }
1927:Middlewares/Third_Party/LwIP/src/api/api_msg.c ****   TCPIP_APIMSG_ACK(msg);
1928:Middlewares/Third_Party/LwIP/src/api/api_msg.c **** }
 4729              		.loc 1 1928 1 is_stmt 0 view .LVU1469
 4730 005c 08BD     		pop	{r3, pc}
 4731              	.LVL455:
 4732              	.L389:
1925:Middlewares/Third_Party/LwIP/src/api/api_msg.c ****   }
 4733              		.loc 1 1925 5 is_stmt 1 view .LVU1470
1925:Middlewares/Third_Party/LwIP/src/api/api_msg.c ****   }
 4734              		.loc 1 1925 14 is_stmt 0 view .LVU1471
 4735 005e F523     		movs	r3, #245
 4736 0060 0371     		strb	r3, [r0, #4]
1927:Middlewares/Third_Party/LwIP/src/api/api_msg.c **** }
 4737              		.loc 1 1927 24 is_stmt 1 view .LVU1472
 4738              		.loc 1 1928 1 is_stmt 0 view .LVU1473
 4739 0062 FBE7     		b	.L388
 4740              	.L400:
 4741              		.align	2
 4742              	.L399:
 4743 0064 00000000 		.word	.LC0
 4744 0068 00000000 		.word	.LC36
 4745 006c 40000000 		.word	.LC2
 4746              		.cfi_endproc
 4747              	.LFE197:
 4749              		.section	.text.lwip_netconn_do_close,"ax",%progbits
 4750              		.align	1
 4751              		.global	lwip_netconn_do_close
 4752              		.syntax unified
 4753              		.thumb
 4754              		.thumb_func
 4756              	lwip_netconn_do_close:
 4757              	.LVL456:
 4758              	.LFB198:
1929:Middlewares/Third_Party/LwIP/src/api/api_msg.c **** 
1930:Middlewares/Third_Party/LwIP/src/api/api_msg.c **** /**
1931:Middlewares/Third_Party/LwIP/src/api/api_msg.c ****  * Close or half-shutdown a TCP pcb contained in a netconn
1932:Middlewares/Third_Party/LwIP/src/api/api_msg.c ****  * Called from netconn_close
1933:Middlewares/Third_Party/LwIP/src/api/api_msg.c ****  * In contrast to closing sockets, the netconn is not deallocated.
1934:Middlewares/Third_Party/LwIP/src/api/api_msg.c ****  *
1935:Middlewares/Third_Party/LwIP/src/api/api_msg.c ****  * @param m the api_msg pointing to the connection
ARM GAS  C:\Users\hh\AppData\Local\Temp\ccfq6ENc.s 			page 142


1936:Middlewares/Third_Party/LwIP/src/api/api_msg.c ****  */
1937:Middlewares/Third_Party/LwIP/src/api/api_msg.c **** void
1938:Middlewares/Third_Party/LwIP/src/api/api_msg.c **** lwip_netconn_do_close(void *m)
1939:Middlewares/Third_Party/LwIP/src/api/api_msg.c **** {
 4759              		.loc 1 1939 1 is_stmt 1 view -0
 4760              		.cfi_startproc
 4761              		@ args = 0, pretend = 0, frame = 0
 4762              		@ frame_needed = 0, uses_anonymous_args = 0
 4763              		.loc 1 1939 1 is_stmt 0 view .LVU1475
 4764 0000 10B5     		push	{r4, lr}
 4765              	.LCFI33:
 4766              		.cfi_def_cfa_offset 8
 4767              		.cfi_offset 4, -8
 4768              		.cfi_offset 14, -4
 4769 0002 0446     		mov	r4, r0
1940:Middlewares/Third_Party/LwIP/src/api/api_msg.c ****   struct api_msg *msg = (struct api_msg *)m;
 4770              		.loc 1 1940 3 is_stmt 1 view .LVU1476
 4771              	.LVL457:
1941:Middlewares/Third_Party/LwIP/src/api/api_msg.c **** 
1942:Middlewares/Third_Party/LwIP/src/api/api_msg.c **** #if LWIP_TCP
1943:Middlewares/Third_Party/LwIP/src/api/api_msg.c ****   enum netconn_state state = msg->conn->state;
 4772              		.loc 1 1943 3 view .LVU1477
 4773              		.loc 1 1943 33 is_stmt 0 view .LVU1478
 4774 0004 0068     		ldr	r0, [r0]
 4775              	.LVL458:
 4776              		.loc 1 1943 22 view .LVU1479
 4777 0006 4278     		ldrb	r2, [r0, #1]	@ zero_extendqisi2
 4778              	.LVL459:
1944:Middlewares/Third_Party/LwIP/src/api/api_msg.c ****   /* First check if this is a TCP netconn and if it is in a correct state
1945:Middlewares/Third_Party/LwIP/src/api/api_msg.c ****       (LISTEN doesn't support half shutdown) */
1946:Middlewares/Third_Party/LwIP/src/api/api_msg.c ****   if ((msg->conn->pcb.tcp != NULL) &&
 4779              		.loc 1 1946 3 is_stmt 1 view .LVU1480
 4780              		.loc 1 1946 22 is_stmt 0 view .LVU1481
 4781 0008 4368     		ldr	r3, [r0, #4]
 4782              		.loc 1 1946 6 view .LVU1482
 4783 000a 23B1     		cbz	r3, .L402
1947:Middlewares/Third_Party/LwIP/src/api/api_msg.c ****       (NETCONNTYPE_GROUP(msg->conn->type) == NETCONN_TCP) &&
 4784              		.loc 1 1947 8 view .LVU1483
 4785 000c 0378     		ldrb	r3, [r0]	@ zero_extendqisi2
1946:Middlewares/Third_Party/LwIP/src/api/api_msg.c ****       (NETCONNTYPE_GROUP(msg->conn->type) == NETCONN_TCP) &&
 4786              		.loc 1 1946 36 discriminator 1 view .LVU1484
 4787 000e 03F0F003 		and	r3, r3, #240
 4788 0012 102B     		cmp	r3, #16
 4789 0014 02D0     		beq	.L412
 4790              	.L402:
1948:Middlewares/Third_Party/LwIP/src/api/api_msg.c ****       ((msg->msg.sd.shut == NETCONN_SHUT_RDWR) || (state != NETCONN_LISTEN))) {
1949:Middlewares/Third_Party/LwIP/src/api/api_msg.c ****     /* Check if we are in a connected state */
1950:Middlewares/Third_Party/LwIP/src/api/api_msg.c ****     if (state == NETCONN_CONNECT) {
1951:Middlewares/Third_Party/LwIP/src/api/api_msg.c ****       /* TCP connect in progress: cannot shutdown */
1952:Middlewares/Third_Party/LwIP/src/api/api_msg.c ****       msg->err = ERR_CONN;
1953:Middlewares/Third_Party/LwIP/src/api/api_msg.c ****     } else if (state == NETCONN_WRITE) {
1954:Middlewares/Third_Party/LwIP/src/api/api_msg.c **** #if LWIP_NETCONN_FULLDUPLEX
1955:Middlewares/Third_Party/LwIP/src/api/api_msg.c ****       if (msg->msg.sd.shut & NETCONN_SHUT_WR) {
1956:Middlewares/Third_Party/LwIP/src/api/api_msg.c ****         /* close requested, abort running write */
1957:Middlewares/Third_Party/LwIP/src/api/api_msg.c ****         sys_sem_t *write_completed_sem;
1958:Middlewares/Third_Party/LwIP/src/api/api_msg.c ****         LWIP_ASSERT("msg->conn->current_msg != NULL", msg->conn->current_msg != NULL);
1959:Middlewares/Third_Party/LwIP/src/api/api_msg.c ****         write_completed_sem = LWIP_API_MSG_SEM(msg->conn->current_msg);
ARM GAS  C:\Users\hh\AppData\Local\Temp\ccfq6ENc.s 			page 143


1960:Middlewares/Third_Party/LwIP/src/api/api_msg.c ****         msg->conn->current_msg->err = ERR_CLSD;
1961:Middlewares/Third_Party/LwIP/src/api/api_msg.c ****         msg->conn->current_msg = NULL;
1962:Middlewares/Third_Party/LwIP/src/api/api_msg.c ****         msg->conn->state = NETCONN_NONE;
1963:Middlewares/Third_Party/LwIP/src/api/api_msg.c ****         state = NETCONN_NONE;
1964:Middlewares/Third_Party/LwIP/src/api/api_msg.c ****         sys_sem_signal(write_completed_sem);
1965:Middlewares/Third_Party/LwIP/src/api/api_msg.c ****       } else {
1966:Middlewares/Third_Party/LwIP/src/api/api_msg.c ****         LWIP_ASSERT("msg->msg.sd.shut == NETCONN_SHUT_RD", msg->msg.sd.shut == NETCONN_SHUT_RD);
1967:Middlewares/Third_Party/LwIP/src/api/api_msg.c ****         /* In this case, let the write continue and do not interfere with
1968:Middlewares/Third_Party/LwIP/src/api/api_msg.c ****            conn->current_msg or conn->state! */
1969:Middlewares/Third_Party/LwIP/src/api/api_msg.c ****         msg->err = tcp_shutdown(msg->conn->pcb.tcp, 1, 0);
1970:Middlewares/Third_Party/LwIP/src/api/api_msg.c ****       }
1971:Middlewares/Third_Party/LwIP/src/api/api_msg.c ****     }
1972:Middlewares/Third_Party/LwIP/src/api/api_msg.c ****     if (state == NETCONN_NONE) {
1973:Middlewares/Third_Party/LwIP/src/api/api_msg.c **** #else /* LWIP_NETCONN_FULLDUPLEX */
1974:Middlewares/Third_Party/LwIP/src/api/api_msg.c ****       msg->err = ERR_INPROGRESS;
1975:Middlewares/Third_Party/LwIP/src/api/api_msg.c ****     } else {
1976:Middlewares/Third_Party/LwIP/src/api/api_msg.c **** #endif /* LWIP_NETCONN_FULLDUPLEX */
1977:Middlewares/Third_Party/LwIP/src/api/api_msg.c ****       if (msg->msg.sd.shut & NETCONN_SHUT_RD) {
1978:Middlewares/Third_Party/LwIP/src/api/api_msg.c **** #if LWIP_NETCONN_FULLDUPLEX
1979:Middlewares/Third_Party/LwIP/src/api/api_msg.c ****         /* Mark mboxes invalid */
1980:Middlewares/Third_Party/LwIP/src/api/api_msg.c ****         netconn_mark_mbox_invalid(msg->conn);
1981:Middlewares/Third_Party/LwIP/src/api/api_msg.c **** #else /* LWIP_NETCONN_FULLDUPLEX */
1982:Middlewares/Third_Party/LwIP/src/api/api_msg.c ****         netconn_drain(msg->conn);
1983:Middlewares/Third_Party/LwIP/src/api/api_msg.c **** #endif /* LWIP_NETCONN_FULLDUPLEX */
1984:Middlewares/Third_Party/LwIP/src/api/api_msg.c ****       }
1985:Middlewares/Third_Party/LwIP/src/api/api_msg.c ****       LWIP_ASSERT("already writing or closing", msg->conn->current_msg == NULL);
1986:Middlewares/Third_Party/LwIP/src/api/api_msg.c ****       msg->conn->state = NETCONN_CLOSE;
1987:Middlewares/Third_Party/LwIP/src/api/api_msg.c ****       msg->conn->current_msg = msg;
1988:Middlewares/Third_Party/LwIP/src/api/api_msg.c **** #if LWIP_TCPIP_CORE_LOCKING
1989:Middlewares/Third_Party/LwIP/src/api/api_msg.c ****       if (lwip_netconn_do_close_internal(msg->conn, 0) != ERR_OK) {
1990:Middlewares/Third_Party/LwIP/src/api/api_msg.c ****         LWIP_ASSERT("state!", msg->conn->state == NETCONN_CLOSE);
1991:Middlewares/Third_Party/LwIP/src/api/api_msg.c ****         UNLOCK_TCPIP_CORE();
1992:Middlewares/Third_Party/LwIP/src/api/api_msg.c ****         sys_arch_sem_wait(LWIP_API_MSG_SEM(msg), 0);
1993:Middlewares/Third_Party/LwIP/src/api/api_msg.c ****         LOCK_TCPIP_CORE();
1994:Middlewares/Third_Party/LwIP/src/api/api_msg.c ****         LWIP_ASSERT("state!", msg->conn->state == NETCONN_NONE);
1995:Middlewares/Third_Party/LwIP/src/api/api_msg.c ****       }
1996:Middlewares/Third_Party/LwIP/src/api/api_msg.c **** #else /* LWIP_TCPIP_CORE_LOCKING */
1997:Middlewares/Third_Party/LwIP/src/api/api_msg.c ****       lwip_netconn_do_close_internal(msg->conn);
1998:Middlewares/Third_Party/LwIP/src/api/api_msg.c **** #endif /* LWIP_TCPIP_CORE_LOCKING */
1999:Middlewares/Third_Party/LwIP/src/api/api_msg.c ****       /* for tcp netconns, lwip_netconn_do_close_internal ACKs the message */
2000:Middlewares/Third_Party/LwIP/src/api/api_msg.c ****       return;
2001:Middlewares/Third_Party/LwIP/src/api/api_msg.c ****     }
2002:Middlewares/Third_Party/LwIP/src/api/api_msg.c ****   } else
2003:Middlewares/Third_Party/LwIP/src/api/api_msg.c **** #endif /* LWIP_TCP */
2004:Middlewares/Third_Party/LwIP/src/api/api_msg.c ****   {
2005:Middlewares/Third_Party/LwIP/src/api/api_msg.c ****     msg->err = ERR_CONN;
 4791              		.loc 1 2005 5 is_stmt 1 view .LVU1485
 4792              		.loc 1 2005 14 is_stmt 0 view .LVU1486
 4793 0016 F523     		movs	r3, #245
 4794 0018 2371     		strb	r3, [r4, #4]
2006:Middlewares/Third_Party/LwIP/src/api/api_msg.c ****   }
2007:Middlewares/Third_Party/LwIP/src/api/api_msg.c ****   TCPIP_APIMSG_ACK(msg);
 4795              		.loc 1 2007 24 is_stmt 1 view .LVU1487
 4796              	.LVL460:
 4797              	.L401:
2008:Middlewares/Third_Party/LwIP/src/api/api_msg.c **** }
 4798              		.loc 1 2008 1 is_stmt 0 view .LVU1488
ARM GAS  C:\Users\hh\AppData\Local\Temp\ccfq6ENc.s 			page 144


 4799 001a 10BD     		pop	{r4, pc}
 4800              	.LVL461:
 4801              	.L412:
1948:Middlewares/Third_Party/LwIP/src/api/api_msg.c ****       ((msg->msg.sd.shut == NETCONN_SHUT_RDWR) || (state != NETCONN_LISTEN))) {
 4802              		.loc 1 1948 20 view .LVU1489
 4803 001c 237A     		ldrb	r3, [r4, #8]	@ zero_extendqisi2
1947:Middlewares/Third_Party/LwIP/src/api/api_msg.c ****       ((msg->msg.sd.shut == NETCONN_SHUT_RDWR) || (state != NETCONN_LISTEN))) {
 4804              		.loc 1 1947 59 view .LVU1490
 4805 001e 032B     		cmp	r3, #3
 4806 0020 01D0     		beq	.L403
1948:Middlewares/Third_Party/LwIP/src/api/api_msg.c ****     /* Check if we are in a connected state */
 4807              		.loc 1 1948 48 view .LVU1491
 4808 0022 022A     		cmp	r2, #2
 4809 0024 F7D0     		beq	.L402
 4810              	.L403:
1950:Middlewares/Third_Party/LwIP/src/api/api_msg.c ****       /* TCP connect in progress: cannot shutdown */
 4811              		.loc 1 1950 5 is_stmt 1 view .LVU1492
1950:Middlewares/Third_Party/LwIP/src/api/api_msg.c ****       /* TCP connect in progress: cannot shutdown */
 4812              		.loc 1 1950 8 is_stmt 0 view .LVU1493
 4813 0026 032A     		cmp	r2, #3
 4814 0028 04D0     		beq	.L413
1953:Middlewares/Third_Party/LwIP/src/api/api_msg.c **** #if LWIP_NETCONN_FULLDUPLEX
 4815              		.loc 1 1953 12 is_stmt 1 view .LVU1494
1953:Middlewares/Third_Party/LwIP/src/api/api_msg.c **** #if LWIP_NETCONN_FULLDUPLEX
 4816              		.loc 1 1953 15 is_stmt 0 view .LVU1495
 4817 002a 012A     		cmp	r2, #1
 4818 002c 05D1     		bne	.L406
1974:Middlewares/Third_Party/LwIP/src/api/api_msg.c ****     } else {
 4819              		.loc 1 1974 7 is_stmt 1 view .LVU1496
1974:Middlewares/Third_Party/LwIP/src/api/api_msg.c ****     } else {
 4820              		.loc 1 1974 16 is_stmt 0 view .LVU1497
 4821 002e FB23     		movs	r3, #251
 4822 0030 2371     		strb	r3, [r4, #4]
 4823 0032 F2E7     		b	.L401
 4824              	.L413:
1952:Middlewares/Third_Party/LwIP/src/api/api_msg.c ****     } else if (state == NETCONN_WRITE) {
 4825              		.loc 1 1952 7 is_stmt 1 view .LVU1498
1952:Middlewares/Third_Party/LwIP/src/api/api_msg.c ****     } else if (state == NETCONN_WRITE) {
 4826              		.loc 1 1952 16 is_stmt 0 view .LVU1499
 4827 0034 F523     		movs	r3, #245
 4828 0036 2371     		strb	r3, [r4, #4]
 4829 0038 EFE7     		b	.L401
 4830              	.L406:
1977:Middlewares/Third_Party/LwIP/src/api/api_msg.c **** #if LWIP_NETCONN_FULLDUPLEX
 4831              		.loc 1 1977 7 is_stmt 1 view .LVU1500
1977:Middlewares/Third_Party/LwIP/src/api/api_msg.c **** #if LWIP_NETCONN_FULLDUPLEX
 4832              		.loc 1 1977 10 is_stmt 0 view .LVU1501
 4833 003a 13F0010F 		tst	r3, #1
 4834 003e 2FD1     		bne	.L414
 4835              	.LVL462:
 4836              	.L407:
1985:Middlewares/Third_Party/LwIP/src/api/api_msg.c ****       msg->conn->state = NETCONN_CLOSE;
 4837              		.loc 1 1985 7 is_stmt 1 view .LVU1502
1985:Middlewares/Third_Party/LwIP/src/api/api_msg.c ****       msg->conn->state = NETCONN_CLOSE;
 4838              		.loc 1 1985 7 view .LVU1503
 4839 0040 2368     		ldr	r3, [r4]
 4840 0042 1B6A     		ldr	r3, [r3, #32]
ARM GAS  C:\Users\hh\AppData\Local\Temp\ccfq6ENc.s 			page 145


 4841 0044 33B1     		cbz	r3, .L408
1985:Middlewares/Third_Party/LwIP/src/api/api_msg.c ****       msg->conn->state = NETCONN_CLOSE;
 4842              		.loc 1 1985 7 discriminator 1 view .LVU1504
1985:Middlewares/Third_Party/LwIP/src/api/api_msg.c ****       msg->conn->state = NETCONN_CLOSE;
 4843              		.loc 1 1985 7 discriminator 1 view .LVU1505
 4844 0046 1C4B     		ldr	r3, .L416
 4845 0048 40F2C172 		movw	r2, #1985
 4846 004c 1B49     		ldr	r1, .L416+4
 4847 004e 1C48     		ldr	r0, .L416+8
 4848 0050 FFF7FEFF 		bl	printf
 4849              	.LVL463:
 4850              	.L408:
1985:Middlewares/Third_Party/LwIP/src/api/api_msg.c ****       msg->conn->state = NETCONN_CLOSE;
 4851              		.loc 1 1985 7 view .LVU1506
1985:Middlewares/Third_Party/LwIP/src/api/api_msg.c ****       msg->conn->state = NETCONN_CLOSE;
 4852              		.loc 1 1985 7 view .LVU1507
1986:Middlewares/Third_Party/LwIP/src/api/api_msg.c ****       msg->conn->current_msg = msg;
 4853              		.loc 1 1986 7 view .LVU1508
1986:Middlewares/Third_Party/LwIP/src/api/api_msg.c ****       msg->conn->current_msg = msg;
 4854              		.loc 1 1986 10 is_stmt 0 view .LVU1509
 4855 0054 2368     		ldr	r3, [r4]
1986:Middlewares/Third_Party/LwIP/src/api/api_msg.c ****       msg->conn->current_msg = msg;
 4856              		.loc 1 1986 24 view .LVU1510
 4857 0056 0422     		movs	r2, #4
 4858 0058 5A70     		strb	r2, [r3, #1]
1987:Middlewares/Third_Party/LwIP/src/api/api_msg.c **** #if LWIP_TCPIP_CORE_LOCKING
 4859              		.loc 1 1987 7 is_stmt 1 view .LVU1511
1987:Middlewares/Third_Party/LwIP/src/api/api_msg.c **** #if LWIP_TCPIP_CORE_LOCKING
 4860              		.loc 1 1987 10 is_stmt 0 view .LVU1512
 4861 005a 2368     		ldr	r3, [r4]
1987:Middlewares/Third_Party/LwIP/src/api/api_msg.c **** #if LWIP_TCPIP_CORE_LOCKING
 4862              		.loc 1 1987 30 view .LVU1513
 4863 005c 1C62     		str	r4, [r3, #32]
1989:Middlewares/Third_Party/LwIP/src/api/api_msg.c ****         LWIP_ASSERT("state!", msg->conn->state == NETCONN_CLOSE);
 4864              		.loc 1 1989 7 is_stmt 1 view .LVU1514
1989:Middlewares/Third_Party/LwIP/src/api/api_msg.c ****         LWIP_ASSERT("state!", msg->conn->state == NETCONN_CLOSE);
 4865              		.loc 1 1989 11 is_stmt 0 view .LVU1515
 4866 005e 0021     		movs	r1, #0
 4867 0060 2068     		ldr	r0, [r4]
 4868 0062 FFF7FEFF 		bl	lwip_netconn_do_close_internal
 4869              	.LVL464:
1989:Middlewares/Third_Party/LwIP/src/api/api_msg.c ****         LWIP_ASSERT("state!", msg->conn->state == NETCONN_CLOSE);
 4870              		.loc 1 1989 10 discriminator 1 view .LVU1516
 4871 0066 0028     		cmp	r0, #0
 4872 0068 D7D0     		beq	.L401
1990:Middlewares/Third_Party/LwIP/src/api/api_msg.c ****         UNLOCK_TCPIP_CORE();
 4873              		.loc 1 1990 9 is_stmt 1 view .LVU1517
1990:Middlewares/Third_Party/LwIP/src/api/api_msg.c ****         UNLOCK_TCPIP_CORE();
 4874              		.loc 1 1990 9 view .LVU1518
 4875 006a 2368     		ldr	r3, [r4]
 4876 006c 5B78     		ldrb	r3, [r3, #1]	@ zero_extendqisi2
 4877 006e 042B     		cmp	r3, #4
 4878 0070 19D1     		bne	.L415
 4879              	.L410:
1990:Middlewares/Third_Party/LwIP/src/api/api_msg.c ****         UNLOCK_TCPIP_CORE();
 4880              		.loc 1 1990 9 view .LVU1519
1990:Middlewares/Third_Party/LwIP/src/api/api_msg.c ****         UNLOCK_TCPIP_CORE();
ARM GAS  C:\Users\hh\AppData\Local\Temp\ccfq6ENc.s 			page 146


 4881              		.loc 1 1990 9 view .LVU1520
1991:Middlewares/Third_Party/LwIP/src/api/api_msg.c ****         sys_arch_sem_wait(LWIP_API_MSG_SEM(msg), 0);
 4882              		.loc 1 1991 9 view .LVU1521
 4883 0072 1448     		ldr	r0, .L416+12
 4884 0074 FFF7FEFF 		bl	sys_mutex_unlock
 4885              	.LVL465:
1992:Middlewares/Third_Party/LwIP/src/api/api_msg.c ****         LOCK_TCPIP_CORE();
 4886              		.loc 1 1992 9 view .LVU1522
1992:Middlewares/Third_Party/LwIP/src/api/api_msg.c ****         LOCK_TCPIP_CORE();
 4887              		.loc 1 1992 27 is_stmt 0 view .LVU1523
 4888 0078 2068     		ldr	r0, [r4]
1992:Middlewares/Third_Party/LwIP/src/api/api_msg.c ****         LOCK_TCPIP_CORE();
 4889              		.loc 1 1992 9 view .LVU1524
 4890 007a 0021     		movs	r1, #0
 4891 007c 0C30     		adds	r0, r0, #12
 4892 007e FFF7FEFF 		bl	sys_arch_sem_wait
 4893              	.LVL466:
1993:Middlewares/Third_Party/LwIP/src/api/api_msg.c ****         LWIP_ASSERT("state!", msg->conn->state == NETCONN_NONE);
 4894              		.loc 1 1993 9 is_stmt 1 view .LVU1525
 4895 0082 1048     		ldr	r0, .L416+12
 4896 0084 FFF7FEFF 		bl	sys_mutex_lock
 4897              	.LVL467:
1994:Middlewares/Third_Party/LwIP/src/api/api_msg.c ****       }
 4898              		.loc 1 1994 9 view .LVU1526
1994:Middlewares/Third_Party/LwIP/src/api/api_msg.c ****       }
 4899              		.loc 1 1994 9 view .LVU1527
 4900 0088 2368     		ldr	r3, [r4]
 4901 008a 5B78     		ldrb	r3, [r3, #1]	@ zero_extendqisi2
 4902 008c 002B     		cmp	r3, #0
 4903 008e C4D0     		beq	.L401
1994:Middlewares/Third_Party/LwIP/src/api/api_msg.c ****       }
 4904              		.loc 1 1994 9 discriminator 1 view .LVU1528
1994:Middlewares/Third_Party/LwIP/src/api/api_msg.c ****       }
 4905              		.loc 1 1994 9 discriminator 1 view .LVU1529
 4906 0090 094B     		ldr	r3, .L416
 4907 0092 40F2CA72 		movw	r2, #1994
 4908 0096 0C49     		ldr	r1, .L416+16
 4909 0098 0948     		ldr	r0, .L416+8
 4910 009a FFF7FEFF 		bl	printf
 4911              	.LVL468:
1994:Middlewares/Third_Party/LwIP/src/api/api_msg.c ****       }
 4912              		.loc 1 1994 9 view .LVU1530
1994:Middlewares/Third_Party/LwIP/src/api/api_msg.c ****       }
 4913              		.loc 1 1994 9 view .LVU1531
2000:Middlewares/Third_Party/LwIP/src/api/api_msg.c ****     }
 4914              		.loc 1 2000 7 view .LVU1532
 4915 009e BCE7     		b	.L401
 4916              	.LVL469:
 4917              	.L414:
1982:Middlewares/Third_Party/LwIP/src/api/api_msg.c **** #endif /* LWIP_NETCONN_FULLDUPLEX */
 4918              		.loc 1 1982 9 view .LVU1533
 4919 00a0 FFF7FEFF 		bl	netconn_drain
 4920              	.LVL470:
1982:Middlewares/Third_Party/LwIP/src/api/api_msg.c **** #endif /* LWIP_NETCONN_FULLDUPLEX */
 4921              		.loc 1 1982 9 is_stmt 0 view .LVU1534
 4922 00a4 CCE7     		b	.L407
 4923              	.L415:
ARM GAS  C:\Users\hh\AppData\Local\Temp\ccfq6ENc.s 			page 147


1990:Middlewares/Third_Party/LwIP/src/api/api_msg.c ****         UNLOCK_TCPIP_CORE();
 4924              		.loc 1 1990 9 is_stmt 1 discriminator 1 view .LVU1535
1990:Middlewares/Third_Party/LwIP/src/api/api_msg.c ****         UNLOCK_TCPIP_CORE();
 4925              		.loc 1 1990 9 discriminator 1 view .LVU1536
 4926 00a6 044B     		ldr	r3, .L416
 4927 00a8 40F2C672 		movw	r2, #1990
 4928 00ac 0649     		ldr	r1, .L416+16
 4929 00ae 0448     		ldr	r0, .L416+8
 4930 00b0 FFF7FEFF 		bl	printf
 4931              	.LVL471:
 4932 00b4 DDE7     		b	.L410
 4933              	.L417:
 4934 00b6 00BF     		.align	2
 4935              	.L416:
 4936 00b8 00000000 		.word	.LC0
 4937 00bc 34000000 		.word	.LC33
 4938 00c0 40000000 		.word	.LC2
 4939 00c4 00000000 		.word	lock_tcpip_core
 4940 00c8 50000000 		.word	.LC34
 4941              		.cfi_endproc
 4942              	.LFE198:
 4944              		.section	.rodata.netconn_closed,"a"
 4947              	netconn_closed:
 4948 0000 00       		.space	1
 4949              		.section	.rodata.netconn_reset,"a"
 4952              	netconn_reset:
 4953 0000 00       		.space	1
 4954              		.section	.rodata.netconn_aborted,"a"
 4957              	netconn_aborted:
 4958 0000 00       		.space	1
 4959              		.text
 4960              	.Letext0:
 4961              		.file 2 "C:/Program Files (x86)/ARM/arm-gnu-toolchain-15.2.rel1-mingw-w64-i686-arm-none-eabi/arm-n
 4962              		.file 3 "C:/Program Files (x86)/ARM/arm-gnu-toolchain-15.2.rel1-mingw-w64-i686-arm-none-eabi/arm-n
 4963              		.file 4 "C:/Program Files (x86)/ARM/arm-gnu-toolchain-15.2.rel1-mingw-w64-i686-arm-none-eabi/lib/g
 4964              		.file 5 "Middlewares/Third_Party/LwIP/system/arch/cc.h"
 4965              		.file 6 "Middlewares/Third_Party/LwIP/src/include/lwip/arch.h"
 4966              		.file 7 "Middlewares/Third_Party/LwIP/src/include/lwip/ip4_addr.h"
 4967              		.file 8 "Middlewares/Third_Party/LwIP/src/include/lwip/ip_addr.h"
 4968              		.file 9 "Middlewares/Third_Party/LwIP/src/include/lwip/err.h"
 4969              		.file 10 "Drivers/CMSIS/RTOS2/Include/cmsis_os2.h"
 4970              		.file 11 "Middlewares/Third_Party/LwIP/system/arch/sys_arch.h"
 4971              		.file 12 "Middlewares/Third_Party/LwIP/src/include/lwip/pbuf.h"
 4972              		.file 13 "Middlewares/Third_Party/LwIP/src/include/lwip/memp.h"
 4973              		.file 14 "Middlewares/Third_Party/LwIP/src/include/lwip/netif.h"
 4974              		.file 15 "Middlewares/Third_Party/LwIP/src/include/lwip/netbuf.h"
 4975              		.file 16 "Middlewares/Third_Party/LwIP/src/include/lwip/api.h"
 4976              		.file 17 "Middlewares/Third_Party/LwIP/src/include/lwip/ip.h"
 4977              		.file 18 "Middlewares/Third_Party/LwIP/src/include/lwip/tcp.h"
 4978              		.file 19 "Middlewares/Third_Party/LwIP/src/include/lwip/priv/api_msg.h"
 4979              		.file 20 "Middlewares/Third_Party/LwIP/src/include/lwip/tcpbase.h"
 4980              		.file 21 "Middlewares/Third_Party/LwIP/src/include/lwip/sys.h"
 4981              		.file 22 "C:/Program Files (x86)/ARM/arm-gnu-toolchain-15.2.rel1-mingw-w64-i686-arm-none-eabi/arm-
 4982              		.file 23 "Middlewares/Third_Party/LwIP/src/include/lwip/tcpip.h"
ARM GAS  C:\Users\hh\AppData\Local\Temp\ccfq6ENc.s 			page 148


DEFINED SYMBOLS
                            *ABS*:00000000 api_msg.c
C:\Users\hh\AppData\Local\Temp\ccfq6ENc.s:20     .rodata.lwip_netconn_err_to_msg.str1.4:00000000 $d
C:\Users\hh\AppData\Local\Temp\ccfq6ENc.s:30     .text.lwip_netconn_err_to_msg:00000000 $t
C:\Users\hh\AppData\Local\Temp\ccfq6ENc.s:35     .text.lwip_netconn_err_to_msg:00000000 lwip_netconn_err_to_msg
C:\Users\hh\AppData\Local\Temp\ccfq6ENc.s:103    .text.lwip_netconn_err_to_msg:00000034 $d
C:\Users\hh\AppData\Local\Temp\ccfq6ENc.s:4952   .rodata.netconn_reset:00000000 netconn_reset
C:\Users\hh\AppData\Local\Temp\ccfq6ENc.s:4957   .rodata.netconn_aborted:00000000 netconn_aborted
C:\Users\hh\AppData\Local\Temp\ccfq6ENc.s:4947   .rodata.netconn_closed:00000000 netconn_closed
C:\Users\hh\AppData\Local\Temp\ccfq6ENc.s:113    .text.setup_tcp:00000000 $t
C:\Users\hh\AppData\Local\Temp\ccfq6ENc.s:118    .text.setup_tcp:00000000 setup_tcp
C:\Users\hh\AppData\Local\Temp\ccfq6ENc.s:171    .text.setup_tcp:00000030 $d
C:\Users\hh\AppData\Local\Temp\ccfq6ENc.s:2279   .text.recv_tcp:00000000 recv_tcp
C:\Users\hh\AppData\Local\Temp\ccfq6ENc.s:2137   .text.sent_tcp:00000000 sent_tcp
C:\Users\hh\AppData\Local\Temp\ccfq6ENc.s:2003   .text.poll_tcp:00000000 poll_tcp
C:\Users\hh\AppData\Local\Temp\ccfq6ENc.s:302    .text.err_tcp:00000000 err_tcp
C:\Users\hh\AppData\Local\Temp\ccfq6ENc.s:179    .rodata.pcb_new.str1.4:00000000 $d
C:\Users\hh\AppData\Local\Temp\ccfq6ENc.s:183    .text.pcb_new:00000000 $t
C:\Users\hh\AppData\Local\Temp\ccfq6ENc.s:188    .text.pcb_new:00000000 pcb_new
C:\Users\hh\AppData\Local\Temp\ccfq6ENc.s:277    .text.pcb_new:0000004c $d
C:\Users\hh\AppData\Local\Temp\ccfq6ENc.s:284    .rodata.err_tcp.str1.4:00000000 $d
C:\Users\hh\AppData\Local\Temp\ccfq6ENc.s:297    .text.err_tcp:00000000 $t
C:\Users\hh\AppData\Local\Temp\ccfq6ENc.s:582    .text.err_tcp:0000010c $d
C:\Users\hh\AppData\Local\Temp\ccfq6ENc.s:594    .rodata.lwip_netconn_do_connected.str1.4:00000000 $d
C:\Users\hh\AppData\Local\Temp\ccfq6ENc.s:605    .text.lwip_netconn_do_connected:00000000 $t
C:\Users\hh\AppData\Local\Temp\ccfq6ENc.s:610    .text.lwip_netconn_do_connected:00000000 lwip_netconn_do_connected
C:\Users\hh\AppData\Local\Temp\ccfq6ENc.s:814    .text.lwip_netconn_do_connected:000000c8 $d
C:\Users\hh\AppData\Local\Temp\ccfq6ENc.s:823    .rodata.lwip_netconn_do_writemore.str1.4:00000000 $d
C:\Users\hh\AppData\Local\Temp\ccfq6ENc.s:840    .text.lwip_netconn_do_writemore:00000000 $t
C:\Users\hh\AppData\Local\Temp\ccfq6ENc.s:845    .text.lwip_netconn_do_writemore:00000000 lwip_netconn_do_writemore
C:\Users\hh\AppData\Local\Temp\ccfq6ENc.s:1484   .text.lwip_netconn_do_writemore:00000274 $d
C:\Users\hh\AppData\Local\Temp\ccfq6ENc.s:1497   .rodata.lwip_netconn_do_close_internal.str1.4:00000000 $d
C:\Users\hh\AppData\Local\Temp\ccfq6ENc.s:1513   .text.lwip_netconn_do_close_internal:00000000 $t
C:\Users\hh\AppData\Local\Temp\ccfq6ENc.s:1518   .text.lwip_netconn_do_close_internal:00000000 lwip_netconn_do_close_internal
C:\Users\hh\AppData\Local\Temp\ccfq6ENc.s:1983   .text.lwip_netconn_do_close_internal:000001e4 $d
C:\Users\hh\AppData\Local\Temp\ccfq6ENc.s:1998   .text.poll_tcp:00000000 $t
C:\Users\hh\AppData\Local\Temp\ccfq6ENc.s:2125   .text.poll_tcp:00000074 $d
C:\Users\hh\AppData\Local\Temp\ccfq6ENc.s:2132   .text.sent_tcp:00000000 $t
C:\Users\hh\AppData\Local\Temp\ccfq6ENc.s:2254   .text.sent_tcp:00000060 $d
C:\Users\hh\AppData\Local\Temp\ccfq6ENc.s:2261   .rodata.recv_tcp.str1.4:00000000 $d
C:\Users\hh\AppData\Local\Temp\ccfq6ENc.s:2274   .text.recv_tcp:00000000 $t
C:\Users\hh\AppData\Local\Temp\ccfq6ENc.s:2478   .text.recv_tcp:000000b0 $d
C:\Users\hh\AppData\Local\Temp\ccfq6ENc.s:2489   .rodata.lwip_netconn_is_err_msg.str1.4:00000000 $d
C:\Users\hh\AppData\Local\Temp\ccfq6ENc.s:2493   .text.lwip_netconn_is_err_msg:00000000 $t
C:\Users\hh\AppData\Local\Temp\ccfq6ENc.s:2499   .text.lwip_netconn_is_err_msg:00000000 lwip_netconn_is_err_msg
C:\Users\hh\AppData\Local\Temp\ccfq6ENc.s:2588   .text.lwip_netconn_is_err_msg:00000044 $d
C:\Users\hh\AppData\Local\Temp\ccfq6ENc.s:2598   .text.lwip_netconn_do_newconn:00000000 $t
C:\Users\hh\AppData\Local\Temp\ccfq6ENc.s:2604   .text.lwip_netconn_do_newconn:00000000 lwip_netconn_do_newconn
C:\Users\hh\AppData\Local\Temp\ccfq6ENc.s:2646   .rodata.netconn_alloc.str1.4:00000000 $d
C:\Users\hh\AppData\Local\Temp\ccfq6ENc.s:2650   .text.netconn_alloc:00000000 $t
C:\Users\hh\AppData\Local\Temp\ccfq6ENc.s:2656   .text.netconn_alloc:00000000 netconn_alloc
C:\Users\hh\AppData\Local\Temp\ccfq6ENc.s:2792   .text.netconn_alloc:00000078 $d
C:\Users\hh\AppData\Local\Temp\ccfq6ENc.s:2799   .rodata.netconn_free.str1.4:00000000 $d
C:\Users\hh\AppData\Local\Temp\ccfq6ENc.s:2811   .text.netconn_free:00000000 $t
C:\Users\hh\AppData\Local\Temp\ccfq6ENc.s:2817   .text.netconn_free:00000000 netconn_free
C:\Users\hh\AppData\Local\Temp\ccfq6ENc.s:2910   .text.netconn_free:00000064 $d
C:\Users\hh\AppData\Local\Temp\ccfq6ENc.s:2919   .text.netconn_drain:00000000 $t
ARM GAS  C:\Users\hh\AppData\Local\Temp\ccfq6ENc.s 			page 149


C:\Users\hh\AppData\Local\Temp\ccfq6ENc.s:2924   .text.netconn_drain:00000000 netconn_drain
C:\Users\hh\AppData\Local\Temp\ccfq6ENc.s:3100   .rodata.accept_function.str1.4:00000000 $d
C:\Users\hh\AppData\Local\Temp\ccfq6ENc.s:3104   .text.accept_function:00000000 $t
C:\Users\hh\AppData\Local\Temp\ccfq6ENc.s:3109   .text.accept_function:00000000 accept_function
C:\Users\hh\AppData\Local\Temp\ccfq6ENc.s:3348   .text.accept_function:000000fc $d
C:\Users\hh\AppData\Local\Temp\ccfq6ENc.s:3355   .rodata.lwip_netconn_do_delconn.str1.4:00000000 $d
C:\Users\hh\AppData\Local\Temp\ccfq6ENc.s:3368   .text.lwip_netconn_do_delconn:00000000 $t
C:\Users\hh\AppData\Local\Temp\ccfq6ENc.s:3374   .text.lwip_netconn_do_delconn:00000000 lwip_netconn_do_delconn
C:\Users\hh\AppData\Local\Temp\ccfq6ENc.s:3630   .text.lwip_netconn_do_delconn:00000114 $d
C:\Users\hh\AppData\Local\Temp\ccfq6ENc.s:3641   .text.lwip_netconn_do_bind:00000000 $t
C:\Users\hh\AppData\Local\Temp\ccfq6ENc.s:3647   .text.lwip_netconn_do_bind:00000000 lwip_netconn_do_bind
C:\Users\hh\AppData\Local\Temp\ccfq6ENc.s:3708   .text.lwip_netconn_do_bind_if:00000000 $t
C:\Users\hh\AppData\Local\Temp\ccfq6ENc.s:3714   .text.lwip_netconn_do_bind_if:00000000 lwip_netconn_do_bind_if
C:\Users\hh\AppData\Local\Temp\ccfq6ENc.s:3793   .text.lwip_netconn_do_connect:00000000 $t
C:\Users\hh\AppData\Local\Temp\ccfq6ENc.s:3799   .text.lwip_netconn_do_connect:00000000 lwip_netconn_do_connect
C:\Users\hh\AppData\Local\Temp\ccfq6ENc.s:4000   .text.lwip_netconn_do_connect:000000c8 $d
C:\Users\hh\AppData\Local\Temp\ccfq6ENc.s:4009   .text.lwip_netconn_do_disconnect:00000000 $t
C:\Users\hh\AppData\Local\Temp\ccfq6ENc.s:4015   .text.lwip_netconn_do_disconnect:00000000 lwip_netconn_do_disconnect
C:\Users\hh\AppData\Local\Temp\ccfq6ENc.s:4035   .text.lwip_netconn_do_listen:00000000 $t
C:\Users\hh\AppData\Local\Temp\ccfq6ENc.s:4041   .text.lwip_netconn_do_listen:00000000 lwip_netconn_do_listen
C:\Users\hh\AppData\Local\Temp\ccfq6ENc.s:4260   .text.lwip_netconn_do_listen:000000d4 $d
C:\Users\hh\AppData\Local\Temp\ccfq6ENc.s:4265   .text.lwip_netconn_do_send:00000000 $t
C:\Users\hh\AppData\Local\Temp\ccfq6ENc.s:4271   .text.lwip_netconn_do_send:00000000 lwip_netconn_do_send
C:\Users\hh\AppData\Local\Temp\ccfq6ENc.s:4313   .text.lwip_netconn_do_recv:00000000 $t
C:\Users\hh\AppData\Local\Temp\ccfq6ENc.s:4319   .text.lwip_netconn_do_recv:00000000 lwip_netconn_do_recv
C:\Users\hh\AppData\Local\Temp\ccfq6ENc.s:4417   .rodata.lwip_netconn_do_write.str1.4:00000000 $d
C:\Users\hh\AppData\Local\Temp\ccfq6ENc.s:4421   .text.lwip_netconn_do_write:00000000 $t
C:\Users\hh\AppData\Local\Temp\ccfq6ENc.s:4427   .text.lwip_netconn_do_write:00000000 lwip_netconn_do_write
C:\Users\hh\AppData\Local\Temp\ccfq6ENc.s:4604   .text.lwip_netconn_do_write:000000b8 $d
C:\Users\hh\AppData\Local\Temp\ccfq6ENc.s:4614   .rodata.lwip_netconn_do_getaddr.str1.4:00000000 $d
C:\Users\hh\AppData\Local\Temp\ccfq6ENc.s:4618   .text.lwip_netconn_do_getaddr:00000000 $t
C:\Users\hh\AppData\Local\Temp\ccfq6ENc.s:4624   .text.lwip_netconn_do_getaddr:00000000 lwip_netconn_do_getaddr
C:\Users\hh\AppData\Local\Temp\ccfq6ENc.s:4743   .text.lwip_netconn_do_getaddr:00000064 $d
C:\Users\hh\AppData\Local\Temp\ccfq6ENc.s:4750   .text.lwip_netconn_do_close:00000000 $t
C:\Users\hh\AppData\Local\Temp\ccfq6ENc.s:4756   .text.lwip_netconn_do_close:00000000 lwip_netconn_do_close
C:\Users\hh\AppData\Local\Temp\ccfq6ENc.s:4936   .text.lwip_netconn_do_close:000000b8 $d
C:\Users\hh\AppData\Local\Temp\ccfq6ENc.s:4948   .rodata.netconn_closed:00000000 $d
C:\Users\hh\AppData\Local\Temp\ccfq6ENc.s:4953   .rodata.netconn_reset:00000000 $d
C:\Users\hh\AppData\Local\Temp\ccfq6ENc.s:4958   .rodata.netconn_aborted:00000000 $d

UNDEFINED SYMBOLS
printf
tcp_arg
tcp_recv
tcp_sent
tcp_poll
tcp_err
tcp_new_ip_type
sys_arch_protect
sys_arch_unprotect
sys_mbox_valid
sys_mbox_trypost
sys_sem_valid
sys_sem_signal
tcp_write
tcp_output
tcp_shutdown
ARM GAS  C:\Users\hh\AppData\Local\Temp\ccfq6ENc.s 			page 150


tcp_accept
tcp_close
tcp_abort
tcp_recved
pbuf_free
memp_malloc
sys_mbox_new
sys_sem_new
sys_mbox_set_invalid
memp_free
sys_mbox_free
sys_sem_free
sys_sem_set_invalid
sys_arch_mbox_tryfetch
netbuf_delete
sys_mutex_unlock
sys_arch_sem_wait
sys_mutex_lock
lock_tcpip_core
tcp_bind
netif_get_by_index
tcp_bind_netif
tcp_connect
tcp_listen_with_backlog_and_err
netconn_err
