ARM GAS  C:\Users\hh\AppData\Local\Temp\ccfq6ENc.s 			page 1


   1              		.cpu cortex-m7
   2              		.arch armv7e-m
   3              		.fpu fpv5-d16
   4              		.eabi_attribute 28, 1
   5              		.eabi_attribute 20, 1
   6              		.eabi_attribute 21, 1
   7              		.eabi_attribute 23, 3
   8              		.eabi_attribute 24, 1
   9              		.eabi_attribute 25, 1
  10              		.eabi_attribute 26, 1
  11              		.eabi_attribute 30, 1
  12              		.eabi_attribute 34, 1
  13              		.eabi_attribute 18, 4
  14              		.file	"api_msg.c"
  15              		.text
  16              	.Ltext0:
  17              		.cfi_sections	.debug_frame
  18              		.file 1 "Middlewares/Third_Party/LwIP/src/api/api_msg.c"
  19              		.section	.rodata.lwip_netconn_err_to_msg.str1.4,"aMS",%progbits,1
  20              		.align	2
  21              	.LC0:
  22 0000 4D696464 		.ascii	"Middlewares/Third_Party/LwIP/src/api/api_msg.c\000"
  22      6C657761 
  22      7265732F 
  22      54686972 
  22      645F5061 
  23 002f 00       		.align	2
  24              	.LC1:
  25 0030 756E6861 		.ascii	"unhandled error\000"
  25      6E646C65 
  25      64206572 
  25      726F7200 
  26              		.align	2
  27              	.LC2:
  28 0040 41737365 		.ascii	"Assertion \"%s\" failed at line %d in %s\012\000"
  28      7274696F 
  28      6E202225 
  28      73222066 
  28      61696C65 
  29              		.section	.text.lwip_netconn_err_to_msg,"ax",%progbits
  30              		.align	1
  31              		.syntax unified
  32              		.thumb
  33              		.thumb_func
  35              	lwip_netconn_err_to_msg:
  36              	.LVL0:
  37              	.LFB172:
   1:Middlewares/Third_Party/LwIP/src/api/api_msg.c **** /**
   2:Middlewares/Third_Party/LwIP/src/api/api_msg.c ****  * @file
   3:Middlewares/Third_Party/LwIP/src/api/api_msg.c ****  * Sequential API Internal module
   4:Middlewares/Third_Party/LwIP/src/api/api_msg.c ****  *
   5:Middlewares/Third_Party/LwIP/src/api/api_msg.c ****  */
   6:Middlewares/Third_Party/LwIP/src/api/api_msg.c **** 
   7:Middlewares/Third_Party/LwIP/src/api/api_msg.c **** /*
   8:Middlewares/Third_Party/LwIP/src/api/api_msg.c ****  * Copyright (c) 2001-2004 Swedish Institute of Computer Science.
   9:Middlewares/Third_Party/LwIP/src/api/api_msg.c ****  * All rights reserved.
  10:Middlewares/Third_Party/LwIP/src/api/api_msg.c ****  *
ARM GAS  C:\Users\hh\AppData\Local\Temp\ccfq6ENc.s 			page 2


  11:Middlewares/Third_Party/LwIP/src/api/api_msg.c ****  * Redistribution and use in source and binary forms, with or without modification,
  12:Middlewares/Third_Party/LwIP/src/api/api_msg.c ****  * are permitted provided that the following conditions are met:
  13:Middlewares/Third_Party/LwIP/src/api/api_msg.c ****  *
  14:Middlewares/Third_Party/LwIP/src/api/api_msg.c ****  * 1. Redistributions of source code must retain the above copyright notice,
  15:Middlewares/Third_Party/LwIP/src/api/api_msg.c ****  *    this list of conditions and the following disclaimer.
  16:Middlewares/Third_Party/LwIP/src/api/api_msg.c ****  * 2. Redistributions in binary form must reproduce the above copyright notice,
  17:Middlewares/Third_Party/LwIP/src/api/api_msg.c ****  *    this list of conditions and the following disclaimer in the documentation
  18:Middlewares/Third_Party/LwIP/src/api/api_msg.c ****  *    and/or other materials provided with the distribution.
  19:Middlewares/Third_Party/LwIP/src/api/api_msg.c ****  * 3. The name of the author may not be used to endorse or promote products
  20:Middlewares/Third_Party/LwIP/src/api/api_msg.c ****  *    derived from this software without specific prior written permission.
  21:Middlewares/Third_Party/LwIP/src/api/api_msg.c ****  *
  22:Middlewares/Third_Party/LwIP/src/api/api_msg.c ****  * THIS SOFTWARE IS PROVIDED BY THE AUTHOR ``AS IS'' AND ANY EXPRESS OR IMPLIED
  23:Middlewares/Third_Party/LwIP/src/api/api_msg.c ****  * WARRANTIES, INCLUDING, BUT NOT LIMITED TO, THE IMPLIED WARRANTIES OF
  24:Middlewares/Third_Party/LwIP/src/api/api_msg.c ****  * MERCHANTABILITY AND FITNESS FOR A PARTICULAR PURPOSE ARE DISCLAIMED. IN NO EVENT
  25:Middlewares/Third_Party/LwIP/src/api/api_msg.c ****  * SHALL THE AUTHOR BE LIABLE FOR ANY DIRECT, INDIRECT, INCIDENTAL, SPECIAL,
  26:Middlewares/Third_Party/LwIP/src/api/api_msg.c ****  * EXEMPLARY, OR CONSEQUENTIAL DAMAGES (INCLUDING, BUT NOT LIMITED TO, PROCUREMENT
  27:Middlewares/Third_Party/LwIP/src/api/api_msg.c ****  * OF SUBSTITUTE GOODS OR SERVICES; LOSS OF USE, DATA, OR PROFITS; OR BUSINESS
  28:Middlewares/Third_Party/LwIP/src/api/api_msg.c ****  * INTERRUPTION) HOWEVER CAUSED AND ON ANY THEORY OF LIABILITY, WHETHER IN
  29:Middlewares/Third_Party/LwIP/src/api/api_msg.c ****  * CONTRACT, STRICT LIABILITY, OR TORT (INCLUDING NEGLIGENCE OR OTHERWISE) ARISING
  30:Middlewares/Third_Party/LwIP/src/api/api_msg.c ****  * IN ANY WAY OUT OF THE USE OF THIS SOFTWARE, EVEN IF ADVISED OF THE POSSIBILITY
  31:Middlewares/Third_Party/LwIP/src/api/api_msg.c ****  * OF SUCH DAMAGE.
  32:Middlewares/Third_Party/LwIP/src/api/api_msg.c ****  *
  33:Middlewares/Third_Party/LwIP/src/api/api_msg.c ****  * This file is part of the lwIP TCP/IP stack.
  34:Middlewares/Third_Party/LwIP/src/api/api_msg.c ****  *
  35:Middlewares/Third_Party/LwIP/src/api/api_msg.c ****  * Author: Adam Dunkels <adam@sics.se>
  36:Middlewares/Third_Party/LwIP/src/api/api_msg.c ****  *
  37:Middlewares/Third_Party/LwIP/src/api/api_msg.c ****  */
  38:Middlewares/Third_Party/LwIP/src/api/api_msg.c **** 
  39:Middlewares/Third_Party/LwIP/src/api/api_msg.c **** #include "lwip/opt.h"
  40:Middlewares/Third_Party/LwIP/src/api/api_msg.c **** 
  41:Middlewares/Third_Party/LwIP/src/api/api_msg.c **** #if LWIP_NETCONN /* don't build if not configured for use in lwipopts.h */
  42:Middlewares/Third_Party/LwIP/src/api/api_msg.c **** 
  43:Middlewares/Third_Party/LwIP/src/api/api_msg.c **** #include "lwip/priv/api_msg.h"
  44:Middlewares/Third_Party/LwIP/src/api/api_msg.c **** 
  45:Middlewares/Third_Party/LwIP/src/api/api_msg.c **** #include "lwip/ip.h"
  46:Middlewares/Third_Party/LwIP/src/api/api_msg.c **** #include "lwip/ip_addr.h"
  47:Middlewares/Third_Party/LwIP/src/api/api_msg.c **** #include "lwip/udp.h"
  48:Middlewares/Third_Party/LwIP/src/api/api_msg.c **** #include "lwip/tcp.h"
  49:Middlewares/Third_Party/LwIP/src/api/api_msg.c **** #include "lwip/raw.h"
  50:Middlewares/Third_Party/LwIP/src/api/api_msg.c **** 
  51:Middlewares/Third_Party/LwIP/src/api/api_msg.c **** #include "lwip/memp.h"
  52:Middlewares/Third_Party/LwIP/src/api/api_msg.c **** #include "lwip/igmp.h"
  53:Middlewares/Third_Party/LwIP/src/api/api_msg.c **** #include "lwip/dns.h"
  54:Middlewares/Third_Party/LwIP/src/api/api_msg.c **** #include "lwip/mld6.h"
  55:Middlewares/Third_Party/LwIP/src/api/api_msg.c **** #include "lwip/priv/tcpip_priv.h"
  56:Middlewares/Third_Party/LwIP/src/api/api_msg.c **** 
  57:Middlewares/Third_Party/LwIP/src/api/api_msg.c **** #include <string.h>
  58:Middlewares/Third_Party/LwIP/src/api/api_msg.c **** 
  59:Middlewares/Third_Party/LwIP/src/api/api_msg.c **** /* netconns are polled once per second (e.g. continue write on memory error) */
  60:Middlewares/Third_Party/LwIP/src/api/api_msg.c **** #define NETCONN_TCP_POLL_INTERVAL 2
  61:Middlewares/Third_Party/LwIP/src/api/api_msg.c **** 
  62:Middlewares/Third_Party/LwIP/src/api/api_msg.c **** #define SET_NONBLOCKING_CONNECT(conn, val)  do { if (val) { \
  63:Middlewares/Third_Party/LwIP/src/api/api_msg.c ****   netconn_set_flags(conn, NETCONN_FLAG_IN_NONBLOCKING_CONNECT); \
  64:Middlewares/Third_Party/LwIP/src/api/api_msg.c **** } else { \
  65:Middlewares/Third_Party/LwIP/src/api/api_msg.c ****   netconn_clear_flags(conn, NETCONN_FLAG_IN_NONBLOCKING_CONNECT); }} while(0)
  66:Middlewares/Third_Party/LwIP/src/api/api_msg.c **** #define IN_NONBLOCKING_CONNECT(conn) netconn_is_flag_set(conn, NETCONN_FLAG_IN_NONBLOCKING_CONNECT)
  67:Middlewares/Third_Party/LwIP/src/api/api_msg.c **** 
ARM GAS  C:\Users\hh\AppData\Local\Temp\ccfq6ENc.s 			page 3


  68:Middlewares/Third_Party/LwIP/src/api/api_msg.c **** #if LWIP_NETCONN_FULLDUPLEX
  69:Middlewares/Third_Party/LwIP/src/api/api_msg.c **** #define NETCONN_MBOX_VALID(conn, mbox) (sys_mbox_valid(mbox) && ((conn->flags & NETCONN_FLAG_MBOXIN
  70:Middlewares/Third_Party/LwIP/src/api/api_msg.c **** #else
  71:Middlewares/Third_Party/LwIP/src/api/api_msg.c **** #define NETCONN_MBOX_VALID(conn, mbox) sys_mbox_valid(mbox)
  72:Middlewares/Third_Party/LwIP/src/api/api_msg.c **** #endif
  73:Middlewares/Third_Party/LwIP/src/api/api_msg.c **** 
  74:Middlewares/Third_Party/LwIP/src/api/api_msg.c **** /* forward declarations */
  75:Middlewares/Third_Party/LwIP/src/api/api_msg.c **** #if LWIP_TCP
  76:Middlewares/Third_Party/LwIP/src/api/api_msg.c **** #if LWIP_TCPIP_CORE_LOCKING
  77:Middlewares/Third_Party/LwIP/src/api/api_msg.c **** #define WRITE_DELAYED         , 1
  78:Middlewares/Third_Party/LwIP/src/api/api_msg.c **** #define WRITE_DELAYED_PARAM   , u8_t delayed
  79:Middlewares/Third_Party/LwIP/src/api/api_msg.c **** #else /* LWIP_TCPIP_CORE_LOCKING */
  80:Middlewares/Third_Party/LwIP/src/api/api_msg.c **** #define WRITE_DELAYED
  81:Middlewares/Third_Party/LwIP/src/api/api_msg.c **** #define WRITE_DELAYED_PARAM
  82:Middlewares/Third_Party/LwIP/src/api/api_msg.c **** #endif /* LWIP_TCPIP_CORE_LOCKING */
  83:Middlewares/Third_Party/LwIP/src/api/api_msg.c **** static err_t lwip_netconn_do_writemore(struct netconn *conn  WRITE_DELAYED_PARAM);
  84:Middlewares/Third_Party/LwIP/src/api/api_msg.c **** static err_t lwip_netconn_do_close_internal(struct netconn *conn  WRITE_DELAYED_PARAM);
  85:Middlewares/Third_Party/LwIP/src/api/api_msg.c **** #endif
  86:Middlewares/Third_Party/LwIP/src/api/api_msg.c **** 
  87:Middlewares/Third_Party/LwIP/src/api/api_msg.c **** static void netconn_drain(struct netconn *conn);
  88:Middlewares/Third_Party/LwIP/src/api/api_msg.c **** 
  89:Middlewares/Third_Party/LwIP/src/api/api_msg.c **** #if LWIP_TCPIP_CORE_LOCKING
  90:Middlewares/Third_Party/LwIP/src/api/api_msg.c **** #define TCPIP_APIMSG_ACK(m)
  91:Middlewares/Third_Party/LwIP/src/api/api_msg.c **** #else /* LWIP_TCPIP_CORE_LOCKING */
  92:Middlewares/Third_Party/LwIP/src/api/api_msg.c **** #define TCPIP_APIMSG_ACK(m)   do { sys_sem_signal(LWIP_API_MSG_SEM(m)); } while(0)
  93:Middlewares/Third_Party/LwIP/src/api/api_msg.c **** #endif /* LWIP_TCPIP_CORE_LOCKING */
  94:Middlewares/Third_Party/LwIP/src/api/api_msg.c **** 
  95:Middlewares/Third_Party/LwIP/src/api/api_msg.c **** #if LWIP_NETCONN_FULLDUPLEX
  96:Middlewares/Third_Party/LwIP/src/api/api_msg.c **** static const u8_t netconn_deleted = 0;
  97:Middlewares/Third_Party/LwIP/src/api/api_msg.c **** 
  98:Middlewares/Third_Party/LwIP/src/api/api_msg.c **** int
  99:Middlewares/Third_Party/LwIP/src/api/api_msg.c **** lwip_netconn_is_deallocated_msg(void *msg)
 100:Middlewares/Third_Party/LwIP/src/api/api_msg.c **** {
 101:Middlewares/Third_Party/LwIP/src/api/api_msg.c ****   if (msg == &netconn_deleted) {
 102:Middlewares/Third_Party/LwIP/src/api/api_msg.c ****     return 1;
 103:Middlewares/Third_Party/LwIP/src/api/api_msg.c ****   }
 104:Middlewares/Third_Party/LwIP/src/api/api_msg.c ****   return 0;
 105:Middlewares/Third_Party/LwIP/src/api/api_msg.c **** }
 106:Middlewares/Third_Party/LwIP/src/api/api_msg.c **** #endif /* LWIP_NETCONN_FULLDUPLEX */
 107:Middlewares/Third_Party/LwIP/src/api/api_msg.c **** 
 108:Middlewares/Third_Party/LwIP/src/api/api_msg.c **** #if LWIP_TCP
 109:Middlewares/Third_Party/LwIP/src/api/api_msg.c **** static const u8_t netconn_aborted = 0;
 110:Middlewares/Third_Party/LwIP/src/api/api_msg.c **** static const u8_t netconn_reset = 0;
 111:Middlewares/Third_Party/LwIP/src/api/api_msg.c **** static const u8_t netconn_closed = 0;
 112:Middlewares/Third_Party/LwIP/src/api/api_msg.c **** 
 113:Middlewares/Third_Party/LwIP/src/api/api_msg.c **** /** Translate an error to a unique void* passed via an mbox */
 114:Middlewares/Third_Party/LwIP/src/api/api_msg.c **** static void *
 115:Middlewares/Third_Party/LwIP/src/api/api_msg.c **** lwip_netconn_err_to_msg(err_t err)
 116:Middlewares/Third_Party/LwIP/src/api/api_msg.c **** {
  38              		.loc 1 116 1 view -0
  39              		.cfi_startproc
  40              		@ args = 0, pretend = 0, frame = 0
  41              		@ frame_needed = 0, uses_anonymous_args = 0
 117:Middlewares/Third_Party/LwIP/src/api/api_msg.c ****   switch (err) {
  42              		.loc 1 117 3 view .LVU1
  43 0000 10F10E0F 		cmn	r0, #14
  44 0004 10D0     		beq	.L3
ARM GAS  C:\Users\hh\AppData\Local\Temp\ccfq6ENc.s 			page 4


  45 0006 10F10D0F 		cmn	r0, #13
  46 000a 0FD0     		beq	.L4
  47 000c 10F10F0F 		cmn	r0, #15
  48 0010 0ED0     		beq	.L5
 118:Middlewares/Third_Party/LwIP/src/api/api_msg.c ****     case ERR_ABRT:
 119:Middlewares/Third_Party/LwIP/src/api/api_msg.c ****       return LWIP_CONST_CAST(void *, &netconn_aborted);
 120:Middlewares/Third_Party/LwIP/src/api/api_msg.c ****     case ERR_RST:
 121:Middlewares/Third_Party/LwIP/src/api/api_msg.c ****       return LWIP_CONST_CAST(void *, &netconn_reset);
 122:Middlewares/Third_Party/LwIP/src/api/api_msg.c ****     case ERR_CLSD:
 123:Middlewares/Third_Party/LwIP/src/api/api_msg.c ****       return LWIP_CONST_CAST(void *, &netconn_closed);
 124:Middlewares/Third_Party/LwIP/src/api/api_msg.c ****     default:
 125:Middlewares/Third_Party/LwIP/src/api/api_msg.c ****       LWIP_ASSERT("unhandled error", err == ERR_OK);
  49              		.loc 1 125 7 view .LVU2
  50              		.loc 1 125 7 view .LVU3
  51 0012 00B9     		cbnz	r0, .L11
 126:Middlewares/Third_Party/LwIP/src/api/api_msg.c ****       return NULL;
 127:Middlewares/Third_Party/LwIP/src/api/api_msg.c ****   }
 128:Middlewares/Third_Party/LwIP/src/api/api_msg.c **** }
  52              		.loc 1 128 1 is_stmt 0 view .LVU4
  53 0014 7047     		bx	lr
  54              	.L11:
 116:Middlewares/Third_Party/LwIP/src/api/api_msg.c ****   switch (err) {
  55              		.loc 1 116 1 view .LVU5
  56 0016 08B5     		push	{r3, lr}
  57              	.LCFI0:
  58              		.cfi_def_cfa_offset 8
  59              		.cfi_offset 3, -8
  60              		.cfi_offset 14, -4
 125:Middlewares/Third_Party/LwIP/src/api/api_msg.c ****       return NULL;
  61              		.loc 1 125 7 is_stmt 1 discriminator 1 view .LVU6
 125:Middlewares/Third_Party/LwIP/src/api/api_msg.c ****       return NULL;
  62              		.loc 1 125 7 discriminator 1 view .LVU7
  63 0018 064B     		ldr	r3, .L12
  64 001a 7D22     		movs	r2, #125
  65 001c 0649     		ldr	r1, .L12+4
  66 001e 0748     		ldr	r0, .L12+8
  67              	.LVL1:
 125:Middlewares/Third_Party/LwIP/src/api/api_msg.c ****       return NULL;
  68              		.loc 1 125 7 is_stmt 0 discriminator 1 view .LVU8
  69 0020 FFF7FEFF 		bl	printf
  70              	.LVL2:
 126:Middlewares/Third_Party/LwIP/src/api/api_msg.c ****       return NULL;
  71              		.loc 1 126 14 view .LVU9
  72 0024 0020     		movs	r0, #0
  73              		.loc 1 128 1 view .LVU10
  74 0026 08BD     		pop	{r3, pc}
  75              	.LVL3:
  76              	.L3:
  77              	.LCFI1:
  78              		.cfi_def_cfa_offset 0
  79              		.cfi_restore 3
  80              		.cfi_restore 14
 121:Middlewares/Third_Party/LwIP/src/api/api_msg.c ****     case ERR_CLSD:
  81              		.loc 1 121 14 view .LVU11
  82 0028 0548     		ldr	r0, .L12+12
  83              	.LVL4:
 121:Middlewares/Third_Party/LwIP/src/api/api_msg.c ****     case ERR_CLSD:
ARM GAS  C:\Users\hh\AppData\Local\Temp\ccfq6ENc.s 			page 5


  84              		.loc 1 121 14 view .LVU12
  85 002a 7047     		bx	lr
  86              	.LVL5:
  87              	.L4:
 117:Middlewares/Third_Party/LwIP/src/api/api_msg.c ****     case ERR_ABRT:
  88              		.loc 1 117 3 view .LVU13
  89 002c 0548     		ldr	r0, .L12+16
  90              	.LVL6:
 117:Middlewares/Third_Party/LwIP/src/api/api_msg.c ****     case ERR_ABRT:
  91              		.loc 1 117 3 view .LVU14
  92 002e 7047     		bx	lr
  93              	.LVL7:
  94              	.L5:
 123:Middlewares/Third_Party/LwIP/src/api/api_msg.c ****     default:
  95              		.loc 1 123 14 view .LVU15
  96 0030 0548     		ldr	r0, .L12+20
  97              	.LVL8:
 123:Middlewares/Third_Party/LwIP/src/api/api_msg.c ****     default:
  98              		.loc 1 123 14 view .LVU16
  99 0032 7047     		bx	lr
 100              	.L13:
 101              		.align	2
 102              	.L12:
 103 0034 00000000 		.word	.LC0
 104 0038 30000000 		.word	.LC1
 105 003c 40000000 		.word	.LC2
 106 0040 00000000 		.word	netconn_reset
 107 0044 00000000 		.word	netconn_aborted
 108 0048 00000000 		.word	netconn_closed
 109              		.cfi_endproc
 110              	.LFE172:
 112              		.section	.text.setup_tcp,"ax",%progbits
 113              		.align	1
 114              		.syntax unified
 115              		.thumb
 116              		.thumb_func
 118              	setup_tcp:
 119              	.LVL9:
 120              	.LFB178:
 129:Middlewares/Third_Party/LwIP/src/api/api_msg.c **** 
 130:Middlewares/Third_Party/LwIP/src/api/api_msg.c **** int
 131:Middlewares/Third_Party/LwIP/src/api/api_msg.c **** lwip_netconn_is_err_msg(void *msg, err_t *err)
 132:Middlewares/Third_Party/LwIP/src/api/api_msg.c **** {
 133:Middlewares/Third_Party/LwIP/src/api/api_msg.c ****   LWIP_ASSERT("err != NULL", err != NULL);
 134:Middlewares/Third_Party/LwIP/src/api/api_msg.c **** 
 135:Middlewares/Third_Party/LwIP/src/api/api_msg.c ****   if (msg == &netconn_aborted) {
 136:Middlewares/Third_Party/LwIP/src/api/api_msg.c ****     *err = ERR_ABRT;
 137:Middlewares/Third_Party/LwIP/src/api/api_msg.c ****     return 1;
 138:Middlewares/Third_Party/LwIP/src/api/api_msg.c ****   } else if (msg == &netconn_reset) {
 139:Middlewares/Third_Party/LwIP/src/api/api_msg.c ****     *err = ERR_RST;
 140:Middlewares/Third_Party/LwIP/src/api/api_msg.c ****     return 1;
 141:Middlewares/Third_Party/LwIP/src/api/api_msg.c ****   } else if (msg == &netconn_closed) {
 142:Middlewares/Third_Party/LwIP/src/api/api_msg.c ****     *err = ERR_CLSD;
 143:Middlewares/Third_Party/LwIP/src/api/api_msg.c ****     return 1;
 144:Middlewares/Third_Party/LwIP/src/api/api_msg.c ****   }
 145:Middlewares/Third_Party/LwIP/src/api/api_msg.c ****   return 0;
 146:Middlewares/Third_Party/LwIP/src/api/api_msg.c **** }
ARM GAS  C:\Users\hh\AppData\Local\Temp\ccfq6ENc.s 			page 6


 147:Middlewares/Third_Party/LwIP/src/api/api_msg.c **** #endif /* LWIP_TCP */
 148:Middlewares/Third_Party/LwIP/src/api/api_msg.c **** 
 149:Middlewares/Third_Party/LwIP/src/api/api_msg.c **** 
 150:Middlewares/Third_Party/LwIP/src/api/api_msg.c **** #if LWIP_RAW
 151:Middlewares/Third_Party/LwIP/src/api/api_msg.c **** /**
 152:Middlewares/Third_Party/LwIP/src/api/api_msg.c ****  * Receive callback function for RAW netconns.
 153:Middlewares/Third_Party/LwIP/src/api/api_msg.c ****  * Doesn't 'eat' the packet, only copies it and sends it to
 154:Middlewares/Third_Party/LwIP/src/api/api_msg.c ****  * conn->recvmbox
 155:Middlewares/Third_Party/LwIP/src/api/api_msg.c ****  *
 156:Middlewares/Third_Party/LwIP/src/api/api_msg.c ****  * @see raw.h (struct raw_pcb.recv) for parameters and return value
 157:Middlewares/Third_Party/LwIP/src/api/api_msg.c ****  */
 158:Middlewares/Third_Party/LwIP/src/api/api_msg.c **** static u8_t
 159:Middlewares/Third_Party/LwIP/src/api/api_msg.c **** recv_raw(void *arg, struct raw_pcb *pcb, struct pbuf *p,
 160:Middlewares/Third_Party/LwIP/src/api/api_msg.c ****          const ip_addr_t *addr)
 161:Middlewares/Third_Party/LwIP/src/api/api_msg.c **** {
 162:Middlewares/Third_Party/LwIP/src/api/api_msg.c ****   struct pbuf *q;
 163:Middlewares/Third_Party/LwIP/src/api/api_msg.c ****   struct netbuf *buf;
 164:Middlewares/Third_Party/LwIP/src/api/api_msg.c ****   struct netconn *conn;
 165:Middlewares/Third_Party/LwIP/src/api/api_msg.c **** 
 166:Middlewares/Third_Party/LwIP/src/api/api_msg.c ****   LWIP_UNUSED_ARG(addr);
 167:Middlewares/Third_Party/LwIP/src/api/api_msg.c ****   conn = (struct netconn *)arg;
 168:Middlewares/Third_Party/LwIP/src/api/api_msg.c **** 
 169:Middlewares/Third_Party/LwIP/src/api/api_msg.c ****   if ((conn != NULL) && NETCONN_MBOX_VALID(conn, &conn->recvmbox)) {
 170:Middlewares/Third_Party/LwIP/src/api/api_msg.c **** #if LWIP_SO_RCVBUF
 171:Middlewares/Third_Party/LwIP/src/api/api_msg.c ****     int recv_avail;
 172:Middlewares/Third_Party/LwIP/src/api/api_msg.c ****     SYS_ARCH_GET(conn->recv_avail, recv_avail);
 173:Middlewares/Third_Party/LwIP/src/api/api_msg.c ****     if ((recv_avail + (int)(p->tot_len)) > conn->recv_bufsize) {
 174:Middlewares/Third_Party/LwIP/src/api/api_msg.c ****       return 0;
 175:Middlewares/Third_Party/LwIP/src/api/api_msg.c ****     }
 176:Middlewares/Third_Party/LwIP/src/api/api_msg.c **** #endif /* LWIP_SO_RCVBUF */
 177:Middlewares/Third_Party/LwIP/src/api/api_msg.c ****     /* copy the whole packet into new pbufs */
 178:Middlewares/Third_Party/LwIP/src/api/api_msg.c ****     q = pbuf_clone(PBUF_RAW, PBUF_RAM, p);
 179:Middlewares/Third_Party/LwIP/src/api/api_msg.c ****     if (q != NULL) {
 180:Middlewares/Third_Party/LwIP/src/api/api_msg.c ****       u16_t len;
 181:Middlewares/Third_Party/LwIP/src/api/api_msg.c ****       buf = (struct netbuf *)memp_malloc(MEMP_NETBUF);
 182:Middlewares/Third_Party/LwIP/src/api/api_msg.c ****       if (buf == NULL) {
 183:Middlewares/Third_Party/LwIP/src/api/api_msg.c ****         pbuf_free(q);
 184:Middlewares/Third_Party/LwIP/src/api/api_msg.c ****         return 0;
 185:Middlewares/Third_Party/LwIP/src/api/api_msg.c ****       }
 186:Middlewares/Third_Party/LwIP/src/api/api_msg.c **** 
 187:Middlewares/Third_Party/LwIP/src/api/api_msg.c ****       buf->p = q;
 188:Middlewares/Third_Party/LwIP/src/api/api_msg.c ****       buf->ptr = q;
 189:Middlewares/Third_Party/LwIP/src/api/api_msg.c ****       ip_addr_copy(buf->addr, *ip_current_src_addr());
 190:Middlewares/Third_Party/LwIP/src/api/api_msg.c ****       buf->port = pcb->protocol;
 191:Middlewares/Third_Party/LwIP/src/api/api_msg.c **** 
 192:Middlewares/Third_Party/LwIP/src/api/api_msg.c ****       len = q->tot_len;
 193:Middlewares/Third_Party/LwIP/src/api/api_msg.c ****       if (sys_mbox_trypost(&conn->recvmbox, buf) != ERR_OK) {
 194:Middlewares/Third_Party/LwIP/src/api/api_msg.c ****         netbuf_delete(buf);
 195:Middlewares/Third_Party/LwIP/src/api/api_msg.c ****         return 0;
 196:Middlewares/Third_Party/LwIP/src/api/api_msg.c ****       } else {
 197:Middlewares/Third_Party/LwIP/src/api/api_msg.c **** #if LWIP_SO_RCVBUF
 198:Middlewares/Third_Party/LwIP/src/api/api_msg.c ****         SYS_ARCH_INC(conn->recv_avail, len);
 199:Middlewares/Third_Party/LwIP/src/api/api_msg.c **** #endif /* LWIP_SO_RCVBUF */
 200:Middlewares/Third_Party/LwIP/src/api/api_msg.c ****         /* Register event with callback */
 201:Middlewares/Third_Party/LwIP/src/api/api_msg.c ****         API_EVENT(conn, NETCONN_EVT_RCVPLUS, len);
 202:Middlewares/Third_Party/LwIP/src/api/api_msg.c ****       }
 203:Middlewares/Third_Party/LwIP/src/api/api_msg.c ****     }
ARM GAS  C:\Users\hh\AppData\Local\Temp\ccfq6ENc.s 			page 7


 204:Middlewares/Third_Party/LwIP/src/api/api_msg.c ****   }
 205:Middlewares/Third_Party/LwIP/src/api/api_msg.c **** 
 206:Middlewares/Third_Party/LwIP/src/api/api_msg.c ****   return 0; /* do not eat the packet */
 207:Middlewares/Third_Party/LwIP/src/api/api_msg.c **** }
 208:Middlewares/Third_Party/LwIP/src/api/api_msg.c **** #endif /* LWIP_RAW*/
 209:Middlewares/Third_Party/LwIP/src/api/api_msg.c **** 
 210:Middlewares/Third_Party/LwIP/src/api/api_msg.c **** #if LWIP_UDP
 211:Middlewares/Third_Party/LwIP/src/api/api_msg.c **** /**
 212:Middlewares/Third_Party/LwIP/src/api/api_msg.c ****  * Receive callback function for UDP netconns.
 213:Middlewares/Third_Party/LwIP/src/api/api_msg.c ****  * Posts the packet to conn->recvmbox or deletes it on memory error.
 214:Middlewares/Third_Party/LwIP/src/api/api_msg.c ****  *
 215:Middlewares/Third_Party/LwIP/src/api/api_msg.c ****  * @see udp.h (struct udp_pcb.recv) for parameters
 216:Middlewares/Third_Party/LwIP/src/api/api_msg.c ****  */
 217:Middlewares/Third_Party/LwIP/src/api/api_msg.c **** static void
 218:Middlewares/Third_Party/LwIP/src/api/api_msg.c **** recv_udp(void *arg, struct udp_pcb *pcb, struct pbuf *p,
 219:Middlewares/Third_Party/LwIP/src/api/api_msg.c ****          const ip_addr_t *addr, u16_t port)
 220:Middlewares/Third_Party/LwIP/src/api/api_msg.c **** {
 221:Middlewares/Third_Party/LwIP/src/api/api_msg.c ****   struct netbuf *buf;
 222:Middlewares/Third_Party/LwIP/src/api/api_msg.c ****   struct netconn *conn;
 223:Middlewares/Third_Party/LwIP/src/api/api_msg.c ****   u16_t len;
 224:Middlewares/Third_Party/LwIP/src/api/api_msg.c ****   err_t err;
 225:Middlewares/Third_Party/LwIP/src/api/api_msg.c **** #if LWIP_SO_RCVBUF
 226:Middlewares/Third_Party/LwIP/src/api/api_msg.c ****   int recv_avail;
 227:Middlewares/Third_Party/LwIP/src/api/api_msg.c **** #endif /* LWIP_SO_RCVBUF */
 228:Middlewares/Third_Party/LwIP/src/api/api_msg.c **** 
 229:Middlewares/Third_Party/LwIP/src/api/api_msg.c ****   LWIP_UNUSED_ARG(pcb); /* only used for asserts... */
 230:Middlewares/Third_Party/LwIP/src/api/api_msg.c ****   LWIP_ASSERT("recv_udp must have a pcb argument", pcb != NULL);
 231:Middlewares/Third_Party/LwIP/src/api/api_msg.c ****   LWIP_ASSERT("recv_udp must have an argument", arg != NULL);
 232:Middlewares/Third_Party/LwIP/src/api/api_msg.c ****   conn = (struct netconn *)arg;
 233:Middlewares/Third_Party/LwIP/src/api/api_msg.c **** 
 234:Middlewares/Third_Party/LwIP/src/api/api_msg.c ****   if (conn == NULL) {
 235:Middlewares/Third_Party/LwIP/src/api/api_msg.c ****     pbuf_free(p);
 236:Middlewares/Third_Party/LwIP/src/api/api_msg.c ****     return;
 237:Middlewares/Third_Party/LwIP/src/api/api_msg.c ****   }
 238:Middlewares/Third_Party/LwIP/src/api/api_msg.c **** 
 239:Middlewares/Third_Party/LwIP/src/api/api_msg.c ****   LWIP_ASSERT("recv_udp: recv for wrong pcb!", conn->pcb.udp == pcb);
 240:Middlewares/Third_Party/LwIP/src/api/api_msg.c **** 
 241:Middlewares/Third_Party/LwIP/src/api/api_msg.c **** #if LWIP_SO_RCVBUF
 242:Middlewares/Third_Party/LwIP/src/api/api_msg.c ****   SYS_ARCH_GET(conn->recv_avail, recv_avail);
 243:Middlewares/Third_Party/LwIP/src/api/api_msg.c ****   if (!NETCONN_MBOX_VALID(conn, &conn->recvmbox) ||
 244:Middlewares/Third_Party/LwIP/src/api/api_msg.c ****       ((recv_avail + (int)(p->tot_len)) > conn->recv_bufsize)) {
 245:Middlewares/Third_Party/LwIP/src/api/api_msg.c **** #else  /* LWIP_SO_RCVBUF */
 246:Middlewares/Third_Party/LwIP/src/api/api_msg.c ****   if (!NETCONN_MBOX_VALID(conn, &conn->recvmbox)) {
 247:Middlewares/Third_Party/LwIP/src/api/api_msg.c **** #endif /* LWIP_SO_RCVBUF */
 248:Middlewares/Third_Party/LwIP/src/api/api_msg.c ****     pbuf_free(p);
 249:Middlewares/Third_Party/LwIP/src/api/api_msg.c ****     return;
 250:Middlewares/Third_Party/LwIP/src/api/api_msg.c ****   }
 251:Middlewares/Third_Party/LwIP/src/api/api_msg.c **** 
 252:Middlewares/Third_Party/LwIP/src/api/api_msg.c ****   buf = (struct netbuf *)memp_malloc(MEMP_NETBUF);
 253:Middlewares/Third_Party/LwIP/src/api/api_msg.c ****   if (buf == NULL) {
 254:Middlewares/Third_Party/LwIP/src/api/api_msg.c ****     pbuf_free(p);
 255:Middlewares/Third_Party/LwIP/src/api/api_msg.c ****     return;
 256:Middlewares/Third_Party/LwIP/src/api/api_msg.c ****   } else {
 257:Middlewares/Third_Party/LwIP/src/api/api_msg.c ****     buf->p = p;
 258:Middlewares/Third_Party/LwIP/src/api/api_msg.c ****     buf->ptr = p;
 259:Middlewares/Third_Party/LwIP/src/api/api_msg.c ****     ip_addr_set(&buf->addr, addr);
 260:Middlewares/Third_Party/LwIP/src/api/api_msg.c ****     buf->port = port;
ARM GAS  C:\Users\hh\AppData\Local\Temp\ccfq6ENc.s 			page 8


 261:Middlewares/Third_Party/LwIP/src/api/api_msg.c **** #if LWIP_NETBUF_RECVINFO
 262:Middlewares/Third_Party/LwIP/src/api/api_msg.c ****     if (conn->flags & NETCONN_FLAG_PKTINFO) {
 263:Middlewares/Third_Party/LwIP/src/api/api_msg.c ****       /* get the UDP header - always in the first pbuf, ensured by udp_input */
 264:Middlewares/Third_Party/LwIP/src/api/api_msg.c ****       const struct udp_hdr *udphdr = (const struct udp_hdr *)ip_next_header_ptr();
 265:Middlewares/Third_Party/LwIP/src/api/api_msg.c ****       buf->flags = NETBUF_FLAG_DESTADDR;
 266:Middlewares/Third_Party/LwIP/src/api/api_msg.c ****       ip_addr_set(&buf->toaddr, ip_current_dest_addr());
 267:Middlewares/Third_Party/LwIP/src/api/api_msg.c ****       buf->toport_chksum = udphdr->dest;
 268:Middlewares/Third_Party/LwIP/src/api/api_msg.c ****     }
 269:Middlewares/Third_Party/LwIP/src/api/api_msg.c **** #endif /* LWIP_NETBUF_RECVINFO */
 270:Middlewares/Third_Party/LwIP/src/api/api_msg.c ****   }
 271:Middlewares/Third_Party/LwIP/src/api/api_msg.c **** 
 272:Middlewares/Third_Party/LwIP/src/api/api_msg.c ****   len = p->tot_len;
 273:Middlewares/Third_Party/LwIP/src/api/api_msg.c ****   err = sys_mbox_trypost(&conn->recvmbox, buf);
 274:Middlewares/Third_Party/LwIP/src/api/api_msg.c ****   if (err != ERR_OK) {
 275:Middlewares/Third_Party/LwIP/src/api/api_msg.c ****     netbuf_delete(buf);
 276:Middlewares/Third_Party/LwIP/src/api/api_msg.c ****     LWIP_DEBUGF(API_MSG_DEBUG, ("recv_udp: sys_mbox_trypost failed, err=%d\n", err));
 277:Middlewares/Third_Party/LwIP/src/api/api_msg.c ****     return;
 278:Middlewares/Third_Party/LwIP/src/api/api_msg.c ****   } else {
 279:Middlewares/Third_Party/LwIP/src/api/api_msg.c **** #if LWIP_SO_RCVBUF
 280:Middlewares/Third_Party/LwIP/src/api/api_msg.c ****     SYS_ARCH_INC(conn->recv_avail, len);
 281:Middlewares/Third_Party/LwIP/src/api/api_msg.c **** #endif /* LWIP_SO_RCVBUF */
 282:Middlewares/Third_Party/LwIP/src/api/api_msg.c ****     /* Register event with callback */
 283:Middlewares/Third_Party/LwIP/src/api/api_msg.c ****     API_EVENT(conn, NETCONN_EVT_RCVPLUS, len);
 284:Middlewares/Third_Party/LwIP/src/api/api_msg.c ****   }
 285:Middlewares/Third_Party/LwIP/src/api/api_msg.c **** }
 286:Middlewares/Third_Party/LwIP/src/api/api_msg.c **** #endif /* LWIP_UDP */
 287:Middlewares/Third_Party/LwIP/src/api/api_msg.c **** 
 288:Middlewares/Third_Party/LwIP/src/api/api_msg.c **** #if LWIP_TCP
 289:Middlewares/Third_Party/LwIP/src/api/api_msg.c **** /**
 290:Middlewares/Third_Party/LwIP/src/api/api_msg.c ****  * Receive callback function for TCP netconns.
 291:Middlewares/Third_Party/LwIP/src/api/api_msg.c ****  * Posts the packet to conn->recvmbox, but doesn't delete it on errors.
 292:Middlewares/Third_Party/LwIP/src/api/api_msg.c ****  *
 293:Middlewares/Third_Party/LwIP/src/api/api_msg.c ****  * @see tcp.h (struct tcp_pcb.recv) for parameters and return value
 294:Middlewares/Third_Party/LwIP/src/api/api_msg.c ****  */
 295:Middlewares/Third_Party/LwIP/src/api/api_msg.c **** static err_t
 296:Middlewares/Third_Party/LwIP/src/api/api_msg.c **** recv_tcp(void *arg, struct tcp_pcb *pcb, struct pbuf *p, err_t err)
 297:Middlewares/Third_Party/LwIP/src/api/api_msg.c **** {
 298:Middlewares/Third_Party/LwIP/src/api/api_msg.c ****   struct netconn *conn;
 299:Middlewares/Third_Party/LwIP/src/api/api_msg.c ****   u16_t len;
 300:Middlewares/Third_Party/LwIP/src/api/api_msg.c ****   void *msg;
 301:Middlewares/Third_Party/LwIP/src/api/api_msg.c **** 
 302:Middlewares/Third_Party/LwIP/src/api/api_msg.c ****   LWIP_UNUSED_ARG(pcb);
 303:Middlewares/Third_Party/LwIP/src/api/api_msg.c ****   LWIP_ASSERT("recv_tcp must have a pcb argument", pcb != NULL);
 304:Middlewares/Third_Party/LwIP/src/api/api_msg.c ****   LWIP_ASSERT("recv_tcp must have an argument", arg != NULL);
 305:Middlewares/Third_Party/LwIP/src/api/api_msg.c ****   LWIP_ASSERT("err != ERR_OK unhandled", err == ERR_OK);
 306:Middlewares/Third_Party/LwIP/src/api/api_msg.c ****   LWIP_UNUSED_ARG(err); /* for LWIP_NOASSERT */
 307:Middlewares/Third_Party/LwIP/src/api/api_msg.c ****   conn = (struct netconn *)arg;
 308:Middlewares/Third_Party/LwIP/src/api/api_msg.c **** 
 309:Middlewares/Third_Party/LwIP/src/api/api_msg.c ****   if (conn == NULL) {
 310:Middlewares/Third_Party/LwIP/src/api/api_msg.c ****     return ERR_VAL;
 311:Middlewares/Third_Party/LwIP/src/api/api_msg.c ****   }
 312:Middlewares/Third_Party/LwIP/src/api/api_msg.c ****   LWIP_ASSERT("recv_tcp: recv for wrong pcb!", conn->pcb.tcp == pcb);
 313:Middlewares/Third_Party/LwIP/src/api/api_msg.c **** 
 314:Middlewares/Third_Party/LwIP/src/api/api_msg.c ****   if (!NETCONN_MBOX_VALID(conn, &conn->recvmbox)) {
 315:Middlewares/Third_Party/LwIP/src/api/api_msg.c ****     /* recvmbox already deleted */
 316:Middlewares/Third_Party/LwIP/src/api/api_msg.c ****     if (p != NULL) {
 317:Middlewares/Third_Party/LwIP/src/api/api_msg.c ****       tcp_recved(pcb, p->tot_len);
ARM GAS  C:\Users\hh\AppData\Local\Temp\ccfq6ENc.s 			page 9


 318:Middlewares/Third_Party/LwIP/src/api/api_msg.c ****       pbuf_free(p);
 319:Middlewares/Third_Party/LwIP/src/api/api_msg.c ****     }
 320:Middlewares/Third_Party/LwIP/src/api/api_msg.c ****     return ERR_OK;
 321:Middlewares/Third_Party/LwIP/src/api/api_msg.c ****   }
 322:Middlewares/Third_Party/LwIP/src/api/api_msg.c ****   /* Unlike for UDP or RAW pcbs, don't check for available space
 323:Middlewares/Third_Party/LwIP/src/api/api_msg.c ****      using recv_avail since that could break the connection
 324:Middlewares/Third_Party/LwIP/src/api/api_msg.c ****      (data is already ACKed) */
 325:Middlewares/Third_Party/LwIP/src/api/api_msg.c **** 
 326:Middlewares/Third_Party/LwIP/src/api/api_msg.c ****   if (p != NULL) {
 327:Middlewares/Third_Party/LwIP/src/api/api_msg.c ****     msg = p;
 328:Middlewares/Third_Party/LwIP/src/api/api_msg.c ****     len = p->tot_len;
 329:Middlewares/Third_Party/LwIP/src/api/api_msg.c ****   } else {
 330:Middlewares/Third_Party/LwIP/src/api/api_msg.c ****     msg = LWIP_CONST_CAST(void *, &netconn_closed);
 331:Middlewares/Third_Party/LwIP/src/api/api_msg.c ****     len = 0;
 332:Middlewares/Third_Party/LwIP/src/api/api_msg.c ****   }
 333:Middlewares/Third_Party/LwIP/src/api/api_msg.c **** 
 334:Middlewares/Third_Party/LwIP/src/api/api_msg.c ****   if (sys_mbox_trypost(&conn->recvmbox, msg) != ERR_OK) {
 335:Middlewares/Third_Party/LwIP/src/api/api_msg.c ****     /* don't deallocate p: it is presented to us later again from tcp_fasttmr! */
 336:Middlewares/Third_Party/LwIP/src/api/api_msg.c ****     return ERR_MEM;
 337:Middlewares/Third_Party/LwIP/src/api/api_msg.c ****   } else {
 338:Middlewares/Third_Party/LwIP/src/api/api_msg.c **** #if LWIP_SO_RCVBUF
 339:Middlewares/Third_Party/LwIP/src/api/api_msg.c ****     SYS_ARCH_INC(conn->recv_avail, len);
 340:Middlewares/Third_Party/LwIP/src/api/api_msg.c **** #endif /* LWIP_SO_RCVBUF */
 341:Middlewares/Third_Party/LwIP/src/api/api_msg.c ****     /* Register event with callback */
 342:Middlewares/Third_Party/LwIP/src/api/api_msg.c ****     API_EVENT(conn, NETCONN_EVT_RCVPLUS, len);
 343:Middlewares/Third_Party/LwIP/src/api/api_msg.c ****   }
 344:Middlewares/Third_Party/LwIP/src/api/api_msg.c **** 
 345:Middlewares/Third_Party/LwIP/src/api/api_msg.c ****   return ERR_OK;
 346:Middlewares/Third_Party/LwIP/src/api/api_msg.c **** }
 347:Middlewares/Third_Party/LwIP/src/api/api_msg.c **** 
 348:Middlewares/Third_Party/LwIP/src/api/api_msg.c **** /**
 349:Middlewares/Third_Party/LwIP/src/api/api_msg.c ****  * Poll callback function for TCP netconns.
 350:Middlewares/Third_Party/LwIP/src/api/api_msg.c ****  * Wakes up an application thread that waits for a connection to close
 351:Middlewares/Third_Party/LwIP/src/api/api_msg.c ****  * or data to be sent. The application thread then takes the
 352:Middlewares/Third_Party/LwIP/src/api/api_msg.c ****  * appropriate action to go on.
 353:Middlewares/Third_Party/LwIP/src/api/api_msg.c ****  *
 354:Middlewares/Third_Party/LwIP/src/api/api_msg.c ****  * Signals the conn->sem.
 355:Middlewares/Third_Party/LwIP/src/api/api_msg.c ****  * netconn_close waits for conn->sem if closing failed.
 356:Middlewares/Third_Party/LwIP/src/api/api_msg.c ****  *
 357:Middlewares/Third_Party/LwIP/src/api/api_msg.c ****  * @see tcp.h (struct tcp_pcb.poll) for parameters and return value
 358:Middlewares/Third_Party/LwIP/src/api/api_msg.c ****  */
 359:Middlewares/Third_Party/LwIP/src/api/api_msg.c **** static err_t
 360:Middlewares/Third_Party/LwIP/src/api/api_msg.c **** poll_tcp(void *arg, struct tcp_pcb *pcb)
 361:Middlewares/Third_Party/LwIP/src/api/api_msg.c **** {
 362:Middlewares/Third_Party/LwIP/src/api/api_msg.c ****   struct netconn *conn = (struct netconn *)arg;
 363:Middlewares/Third_Party/LwIP/src/api/api_msg.c **** 
 364:Middlewares/Third_Party/LwIP/src/api/api_msg.c ****   LWIP_UNUSED_ARG(pcb);
 365:Middlewares/Third_Party/LwIP/src/api/api_msg.c ****   LWIP_ASSERT("conn != NULL", (conn != NULL));
 366:Middlewares/Third_Party/LwIP/src/api/api_msg.c **** 
 367:Middlewares/Third_Party/LwIP/src/api/api_msg.c ****   if (conn->state == NETCONN_WRITE) {
 368:Middlewares/Third_Party/LwIP/src/api/api_msg.c ****     lwip_netconn_do_writemore(conn  WRITE_DELAYED);
 369:Middlewares/Third_Party/LwIP/src/api/api_msg.c ****   } else if (conn->state == NETCONN_CLOSE) {
 370:Middlewares/Third_Party/LwIP/src/api/api_msg.c **** #if !LWIP_SO_SNDTIMEO && !LWIP_SO_LINGER
 371:Middlewares/Third_Party/LwIP/src/api/api_msg.c ****     if (conn->current_msg && conn->current_msg->msg.sd.polls_left) {
 372:Middlewares/Third_Party/LwIP/src/api/api_msg.c ****       conn->current_msg->msg.sd.polls_left--;
 373:Middlewares/Third_Party/LwIP/src/api/api_msg.c ****     }
 374:Middlewares/Third_Party/LwIP/src/api/api_msg.c **** #endif /* !LWIP_SO_SNDTIMEO && !LWIP_SO_LINGER */
ARM GAS  C:\Users\hh\AppData\Local\Temp\ccfq6ENc.s 			page 10


 375:Middlewares/Third_Party/LwIP/src/api/api_msg.c ****     lwip_netconn_do_close_internal(conn  WRITE_DELAYED);
 376:Middlewares/Third_Party/LwIP/src/api/api_msg.c ****   }
 377:Middlewares/Third_Party/LwIP/src/api/api_msg.c ****   /* @todo: implement connect timeout here? */
 378:Middlewares/Third_Party/LwIP/src/api/api_msg.c **** 
 379:Middlewares/Third_Party/LwIP/src/api/api_msg.c ****   /* Did a nonblocking write fail before? Then check available write-space. */
 380:Middlewares/Third_Party/LwIP/src/api/api_msg.c ****   if (conn->flags & NETCONN_FLAG_CHECK_WRITESPACE) {
 381:Middlewares/Third_Party/LwIP/src/api/api_msg.c ****     /* If the queued byte- or pbuf-count drops below the configured low-water limit,
 382:Middlewares/Third_Party/LwIP/src/api/api_msg.c ****        let select mark this pcb as writable again. */
 383:Middlewares/Third_Party/LwIP/src/api/api_msg.c ****     if ((conn->pcb.tcp != NULL) && (tcp_sndbuf(conn->pcb.tcp) > TCP_SNDLOWAT) &&
 384:Middlewares/Third_Party/LwIP/src/api/api_msg.c ****         (tcp_sndqueuelen(conn->pcb.tcp) < TCP_SNDQUEUELOWAT)) {
 385:Middlewares/Third_Party/LwIP/src/api/api_msg.c ****       netconn_clear_flags(conn, NETCONN_FLAG_CHECK_WRITESPACE);
 386:Middlewares/Third_Party/LwIP/src/api/api_msg.c ****       API_EVENT(conn, NETCONN_EVT_SENDPLUS, 0);
 387:Middlewares/Third_Party/LwIP/src/api/api_msg.c ****     }
 388:Middlewares/Third_Party/LwIP/src/api/api_msg.c ****   }
 389:Middlewares/Third_Party/LwIP/src/api/api_msg.c **** 
 390:Middlewares/Third_Party/LwIP/src/api/api_msg.c ****   return ERR_OK;
 391:Middlewares/Third_Party/LwIP/src/api/api_msg.c **** }
 392:Middlewares/Third_Party/LwIP/src/api/api_msg.c **** 
 393:Middlewares/Third_Party/LwIP/src/api/api_msg.c **** /**
 394:Middlewares/Third_Party/LwIP/src/api/api_msg.c ****  * Sent callback function for TCP netconns.
 395:Middlewares/Third_Party/LwIP/src/api/api_msg.c ****  * Signals the conn->sem and calls API_EVENT.
 396:Middlewares/Third_Party/LwIP/src/api/api_msg.c ****  * netconn_write waits for conn->sem if send buffer is low.
 397:Middlewares/Third_Party/LwIP/src/api/api_msg.c ****  *
 398:Middlewares/Third_Party/LwIP/src/api/api_msg.c ****  * @see tcp.h (struct tcp_pcb.sent) for parameters and return value
 399:Middlewares/Third_Party/LwIP/src/api/api_msg.c ****  */
 400:Middlewares/Third_Party/LwIP/src/api/api_msg.c **** static err_t
 401:Middlewares/Third_Party/LwIP/src/api/api_msg.c **** sent_tcp(void *arg, struct tcp_pcb *pcb, u16_t len)
 402:Middlewares/Third_Party/LwIP/src/api/api_msg.c **** {
 403:Middlewares/Third_Party/LwIP/src/api/api_msg.c ****   struct netconn *conn = (struct netconn *)arg;
 404:Middlewares/Third_Party/LwIP/src/api/api_msg.c **** 
 405:Middlewares/Third_Party/LwIP/src/api/api_msg.c ****   LWIP_UNUSED_ARG(pcb);
 406:Middlewares/Third_Party/LwIP/src/api/api_msg.c ****   LWIP_ASSERT("conn != NULL", (conn != NULL));
 407:Middlewares/Third_Party/LwIP/src/api/api_msg.c **** 
 408:Middlewares/Third_Party/LwIP/src/api/api_msg.c ****   if (conn) {
 409:Middlewares/Third_Party/LwIP/src/api/api_msg.c ****     if (conn->state == NETCONN_WRITE) {
 410:Middlewares/Third_Party/LwIP/src/api/api_msg.c ****       lwip_netconn_do_writemore(conn  WRITE_DELAYED);
 411:Middlewares/Third_Party/LwIP/src/api/api_msg.c ****     } else if (conn->state == NETCONN_CLOSE) {
 412:Middlewares/Third_Party/LwIP/src/api/api_msg.c ****       lwip_netconn_do_close_internal(conn  WRITE_DELAYED);
 413:Middlewares/Third_Party/LwIP/src/api/api_msg.c ****     }
 414:Middlewares/Third_Party/LwIP/src/api/api_msg.c **** 
 415:Middlewares/Third_Party/LwIP/src/api/api_msg.c ****     /* If the queued byte- or pbuf-count drops below the configured low-water limit,
 416:Middlewares/Third_Party/LwIP/src/api/api_msg.c ****        let select mark this pcb as writable again. */
 417:Middlewares/Third_Party/LwIP/src/api/api_msg.c ****     if ((conn->pcb.tcp != NULL) && (tcp_sndbuf(conn->pcb.tcp) > TCP_SNDLOWAT) &&
 418:Middlewares/Third_Party/LwIP/src/api/api_msg.c ****         (tcp_sndqueuelen(conn->pcb.tcp) < TCP_SNDQUEUELOWAT)) {
 419:Middlewares/Third_Party/LwIP/src/api/api_msg.c ****       netconn_clear_flags(conn, NETCONN_FLAG_CHECK_WRITESPACE);
 420:Middlewares/Third_Party/LwIP/src/api/api_msg.c ****       API_EVENT(conn, NETCONN_EVT_SENDPLUS, len);
 421:Middlewares/Third_Party/LwIP/src/api/api_msg.c ****     }
 422:Middlewares/Third_Party/LwIP/src/api/api_msg.c ****   }
 423:Middlewares/Third_Party/LwIP/src/api/api_msg.c **** 
 424:Middlewares/Third_Party/LwIP/src/api/api_msg.c ****   return ERR_OK;
 425:Middlewares/Third_Party/LwIP/src/api/api_msg.c **** }
 426:Middlewares/Third_Party/LwIP/src/api/api_msg.c **** 
 427:Middlewares/Third_Party/LwIP/src/api/api_msg.c **** /**
 428:Middlewares/Third_Party/LwIP/src/api/api_msg.c ****  * Error callback function for TCP netconns.
 429:Middlewares/Third_Party/LwIP/src/api/api_msg.c ****  * Signals conn->sem, posts to all conn mboxes and calls API_EVENT.
 430:Middlewares/Third_Party/LwIP/src/api/api_msg.c ****  * The application thread has then to decide what to do.
 431:Middlewares/Third_Party/LwIP/src/api/api_msg.c ****  *
ARM GAS  C:\Users\hh\AppData\Local\Temp\ccfq6ENc.s 			page 11


 432:Middlewares/Third_Party/LwIP/src/api/api_msg.c ****  * @see tcp.h (struct tcp_pcb.err) for parameters
 433:Middlewares/Third_Party/LwIP/src/api/api_msg.c ****  */
 434:Middlewares/Third_Party/LwIP/src/api/api_msg.c **** static void
 435:Middlewares/Third_Party/LwIP/src/api/api_msg.c **** err_tcp(void *arg, err_t err)
 436:Middlewares/Third_Party/LwIP/src/api/api_msg.c **** {
 437:Middlewares/Third_Party/LwIP/src/api/api_msg.c ****   struct netconn *conn;
 438:Middlewares/Third_Party/LwIP/src/api/api_msg.c ****   enum netconn_state old_state;
 439:Middlewares/Third_Party/LwIP/src/api/api_msg.c ****   void *mbox_msg;
 440:Middlewares/Third_Party/LwIP/src/api/api_msg.c ****   SYS_ARCH_DECL_PROTECT(lev);
 441:Middlewares/Third_Party/LwIP/src/api/api_msg.c **** 
 442:Middlewares/Third_Party/LwIP/src/api/api_msg.c ****   conn = (struct netconn *)arg;
 443:Middlewares/Third_Party/LwIP/src/api/api_msg.c ****   LWIP_ASSERT("conn != NULL", (conn != NULL));
 444:Middlewares/Third_Party/LwIP/src/api/api_msg.c **** 
 445:Middlewares/Third_Party/LwIP/src/api/api_msg.c ****   SYS_ARCH_PROTECT(lev);
 446:Middlewares/Third_Party/LwIP/src/api/api_msg.c **** 
 447:Middlewares/Third_Party/LwIP/src/api/api_msg.c ****   /* when err is called, the pcb is deallocated, so delete the reference */
 448:Middlewares/Third_Party/LwIP/src/api/api_msg.c ****   conn->pcb.tcp = NULL;
 449:Middlewares/Third_Party/LwIP/src/api/api_msg.c ****   /* store pending error */
 450:Middlewares/Third_Party/LwIP/src/api/api_msg.c ****   conn->pending_err = err;
 451:Middlewares/Third_Party/LwIP/src/api/api_msg.c ****   /* prevent application threads from blocking on 'recvmbox'/'acceptmbox' */
 452:Middlewares/Third_Party/LwIP/src/api/api_msg.c ****   conn->flags |= NETCONN_FLAG_MBOXCLOSED;
 453:Middlewares/Third_Party/LwIP/src/api/api_msg.c **** 
 454:Middlewares/Third_Party/LwIP/src/api/api_msg.c ****   /* reset conn->state now before waking up other threads */
 455:Middlewares/Third_Party/LwIP/src/api/api_msg.c ****   old_state = conn->state;
 456:Middlewares/Third_Party/LwIP/src/api/api_msg.c ****   conn->state = NETCONN_NONE;
 457:Middlewares/Third_Party/LwIP/src/api/api_msg.c **** 
 458:Middlewares/Third_Party/LwIP/src/api/api_msg.c ****   SYS_ARCH_UNPROTECT(lev);
 459:Middlewares/Third_Party/LwIP/src/api/api_msg.c **** 
 460:Middlewares/Third_Party/LwIP/src/api/api_msg.c ****   /* Notify the user layer about a connection error. Used to signal select. */
 461:Middlewares/Third_Party/LwIP/src/api/api_msg.c ****   API_EVENT(conn, NETCONN_EVT_ERROR, 0);
 462:Middlewares/Third_Party/LwIP/src/api/api_msg.c ****   /* Try to release selects pending on 'read' or 'write', too.
 463:Middlewares/Third_Party/LwIP/src/api/api_msg.c ****      They will get an error if they actually try to read or write. */
 464:Middlewares/Third_Party/LwIP/src/api/api_msg.c ****   API_EVENT(conn, NETCONN_EVT_RCVPLUS, 0);
 465:Middlewares/Third_Party/LwIP/src/api/api_msg.c ****   API_EVENT(conn, NETCONN_EVT_SENDPLUS, 0);
 466:Middlewares/Third_Party/LwIP/src/api/api_msg.c **** 
 467:Middlewares/Third_Party/LwIP/src/api/api_msg.c ****   mbox_msg = lwip_netconn_err_to_msg(err);
 468:Middlewares/Third_Party/LwIP/src/api/api_msg.c ****   /* pass error message to recvmbox to wake up pending recv */
 469:Middlewares/Third_Party/LwIP/src/api/api_msg.c ****   if (NETCONN_MBOX_VALID(conn, &conn->recvmbox)) {
 470:Middlewares/Third_Party/LwIP/src/api/api_msg.c ****     /* use trypost to prevent deadlock */
 471:Middlewares/Third_Party/LwIP/src/api/api_msg.c ****     sys_mbox_trypost(&conn->recvmbox, mbox_msg);
 472:Middlewares/Third_Party/LwIP/src/api/api_msg.c ****   }
 473:Middlewares/Third_Party/LwIP/src/api/api_msg.c ****   /* pass error message to acceptmbox to wake up pending accept */
 474:Middlewares/Third_Party/LwIP/src/api/api_msg.c ****   if (NETCONN_MBOX_VALID(conn, &conn->acceptmbox)) {
 475:Middlewares/Third_Party/LwIP/src/api/api_msg.c ****     /* use trypost to prevent deadlock */
 476:Middlewares/Third_Party/LwIP/src/api/api_msg.c ****     sys_mbox_trypost(&conn->acceptmbox, mbox_msg);
 477:Middlewares/Third_Party/LwIP/src/api/api_msg.c ****   }
 478:Middlewares/Third_Party/LwIP/src/api/api_msg.c **** 
 479:Middlewares/Third_Party/LwIP/src/api/api_msg.c ****   if ((old_state == NETCONN_WRITE) || (old_state == NETCONN_CLOSE) ||
 480:Middlewares/Third_Party/LwIP/src/api/api_msg.c ****       (old_state == NETCONN_CONNECT)) {
 481:Middlewares/Third_Party/LwIP/src/api/api_msg.c ****     /* calling lwip_netconn_do_writemore/lwip_netconn_do_close_internal is not necessary
 482:Middlewares/Third_Party/LwIP/src/api/api_msg.c ****        since the pcb has already been deleted! */
 483:Middlewares/Third_Party/LwIP/src/api/api_msg.c ****     int was_nonblocking_connect = IN_NONBLOCKING_CONNECT(conn);
 484:Middlewares/Third_Party/LwIP/src/api/api_msg.c ****     SET_NONBLOCKING_CONNECT(conn, 0);
 485:Middlewares/Third_Party/LwIP/src/api/api_msg.c **** 
 486:Middlewares/Third_Party/LwIP/src/api/api_msg.c ****     if (!was_nonblocking_connect) {
 487:Middlewares/Third_Party/LwIP/src/api/api_msg.c ****       sys_sem_t *op_completed_sem;
 488:Middlewares/Third_Party/LwIP/src/api/api_msg.c ****       /* set error return code */
ARM GAS  C:\Users\hh\AppData\Local\Temp\ccfq6ENc.s 			page 12


 489:Middlewares/Third_Party/LwIP/src/api/api_msg.c ****       LWIP_ASSERT("conn->current_msg != NULL", conn->current_msg != NULL);
 490:Middlewares/Third_Party/LwIP/src/api/api_msg.c ****       if (old_state == NETCONN_CLOSE) {
 491:Middlewares/Third_Party/LwIP/src/api/api_msg.c ****         /* let close succeed: the connection is closed after all... */
 492:Middlewares/Third_Party/LwIP/src/api/api_msg.c ****         conn->current_msg->err = ERR_OK;
 493:Middlewares/Third_Party/LwIP/src/api/api_msg.c ****       } else {
 494:Middlewares/Third_Party/LwIP/src/api/api_msg.c ****         /* Write and connect fail */
 495:Middlewares/Third_Party/LwIP/src/api/api_msg.c ****         conn->current_msg->err = err;
 496:Middlewares/Third_Party/LwIP/src/api/api_msg.c ****       }
 497:Middlewares/Third_Party/LwIP/src/api/api_msg.c ****       op_completed_sem = LWIP_API_MSG_SEM(conn->current_msg);
 498:Middlewares/Third_Party/LwIP/src/api/api_msg.c ****       LWIP_ASSERT("invalid op_completed_sem", sys_sem_valid(op_completed_sem));
 499:Middlewares/Third_Party/LwIP/src/api/api_msg.c ****       conn->current_msg = NULL;
 500:Middlewares/Third_Party/LwIP/src/api/api_msg.c ****       /* wake up the waiting task */
 501:Middlewares/Third_Party/LwIP/src/api/api_msg.c ****       sys_sem_signal(op_completed_sem);
 502:Middlewares/Third_Party/LwIP/src/api/api_msg.c ****     } else {
 503:Middlewares/Third_Party/LwIP/src/api/api_msg.c ****       /* @todo: test what happens for error on nonblocking connect */
 504:Middlewares/Third_Party/LwIP/src/api/api_msg.c ****     }
 505:Middlewares/Third_Party/LwIP/src/api/api_msg.c ****   } else {
 506:Middlewares/Third_Party/LwIP/src/api/api_msg.c ****     LWIP_ASSERT("conn->current_msg == NULL", conn->current_msg == NULL);
 507:Middlewares/Third_Party/LwIP/src/api/api_msg.c ****   }
 508:Middlewares/Third_Party/LwIP/src/api/api_msg.c **** }
 509:Middlewares/Third_Party/LwIP/src/api/api_msg.c **** 
 510:Middlewares/Third_Party/LwIP/src/api/api_msg.c **** /**
 511:Middlewares/Third_Party/LwIP/src/api/api_msg.c ****  * Setup a tcp_pcb with the correct callback function pointers
 512:Middlewares/Third_Party/LwIP/src/api/api_msg.c ****  * and their arguments.
 513:Middlewares/Third_Party/LwIP/src/api/api_msg.c ****  *
 514:Middlewares/Third_Party/LwIP/src/api/api_msg.c ****  * @param conn the TCP netconn to setup
 515:Middlewares/Third_Party/LwIP/src/api/api_msg.c ****  */
 516:Middlewares/Third_Party/LwIP/src/api/api_msg.c **** static void
 517:Middlewares/Third_Party/LwIP/src/api/api_msg.c **** setup_tcp(struct netconn *conn)
 518:Middlewares/Third_Party/LwIP/src/api/api_msg.c **** {
 121              		.loc 1 518 1 is_stmt 1 view -0
 122              		.cfi_startproc
 123              		@ args = 0, pretend = 0, frame = 0
 124              		@ frame_needed = 0, uses_anonymous_args = 0
 125              		.loc 1 518 1 is_stmt 0 view .LVU18
 126 0000 10B5     		push	{r4, lr}
 127              	.LCFI2:
 128              		.cfi_def_cfa_offset 8
 129              		.cfi_offset 4, -8
 130              		.cfi_offset 14, -4
 131 0002 0146     		mov	r1, r0
 519:Middlewares/Third_Party/LwIP/src/api/api_msg.c ****   struct tcp_pcb *pcb;
 132              		.loc 1 519 3 is_stmt 1 view .LVU19
 520:Middlewares/Third_Party/LwIP/src/api/api_msg.c **** 
 521:Middlewares/Third_Party/LwIP/src/api/api_msg.c ****   pcb = conn->pcb.tcp;
 133              		.loc 1 521 3 view .LVU20
 134              		.loc 1 521 7 is_stmt 0 view .LVU21
 135 0004 4468     		ldr	r4, [r0, #4]
 136              	.LVL10:
 522:Middlewares/Third_Party/LwIP/src/api/api_msg.c ****   tcp_arg(pcb, conn);
 137              		.loc 1 522 3 is_stmt 1 view .LVU22
 138 0006 2046     		mov	r0, r4
 139              	.LVL11:
 140              		.loc 1 522 3 is_stmt 0 view .LVU23
 141 0008 FFF7FEFF 		bl	tcp_arg
 142              	.LVL12:
 523:Middlewares/Third_Party/LwIP/src/api/api_msg.c ****   tcp_recv(pcb, recv_tcp);
ARM GAS  C:\Users\hh\AppData\Local\Temp\ccfq6ENc.s 			page 13


 143              		.loc 1 523 3 is_stmt 1 view .LVU24
 144 000c 0849     		ldr	r1, .L16
 145 000e 2046     		mov	r0, r4
 146 0010 FFF7FEFF 		bl	tcp_recv
 147              	.LVL13:
 524:Middlewares/Third_Party/LwIP/src/api/api_msg.c ****   tcp_sent(pcb, sent_tcp);
 148              		.loc 1 524 3 view .LVU25
 149 0014 0749     		ldr	r1, .L16+4
 150 0016 2046     		mov	r0, r4
 151 0018 FFF7FEFF 		bl	tcp_sent
 152              	.LVL14:
 525:Middlewares/Third_Party/LwIP/src/api/api_msg.c ****   tcp_poll(pcb, poll_tcp, NETCONN_TCP_POLL_INTERVAL);
 153              		.loc 1 525 3 view .LVU26
 154 001c 0222     		movs	r2, #2
 155 001e 0649     		ldr	r1, .L16+8
 156 0020 2046     		mov	r0, r4
 157 0022 FFF7FEFF 		bl	tcp_poll
 158              	.LVL15:
 526:Middlewares/Third_Party/LwIP/src/api/api_msg.c ****   tcp_err(pcb, err_tcp);
 159              		.loc 1 526 3 view .LVU27
 160 0026 0549     		ldr	r1, .L16+12
 161 0028 2046     		mov	r0, r4
 162 002a FFF7FEFF 		bl	tcp_err
 163              	.LVL16:
 527:Middlewares/Third_Party/LwIP/src/api/api_msg.c **** }
 164              		.loc 1 527 1 is_stmt 0 view .LVU28
 165 002e 10BD     		pop	{r4, pc}
 166              	.LVL17:
 167              	.L17:
 168              		.loc 1 527 1 view .LVU29
 169              		.align	2
 170              	.L16:
 171 0030 00000000 		.word	recv_tcp
 172 0034 00000000 		.word	sent_tcp
 173 0038 00000000 		.word	poll_tcp
 174 003c 00000000 		.word	err_tcp
 175              		.cfi_endproc
 176              	.LFE178:
 178              		.section	.rodata.pcb_new.str1.4,"aMS",%progbits,1
 179              		.align	2
 180              	.LC3:
 181 0000 7063625F 		.ascii	"pcb_new: pcb already allocated\000"
 181      6E65773A 
 181      20706362 
 181      20616C72 
 181      65616479 
 182              		.section	.text.pcb_new,"ax",%progbits
 183              		.align	1
 184              		.syntax unified
 185              		.thumb
 186              		.thumb_func
 188              	pcb_new:
 189              	.LVL18:
 190              	.LFB180:
 528:Middlewares/Third_Party/LwIP/src/api/api_msg.c **** 
 529:Middlewares/Third_Party/LwIP/src/api/api_msg.c **** /**
 530:Middlewares/Third_Party/LwIP/src/api/api_msg.c ****  * Accept callback function for TCP netconns.
ARM GAS  C:\Users\hh\AppData\Local\Temp\ccfq6ENc.s 			page 14


 531:Middlewares/Third_Party/LwIP/src/api/api_msg.c ****  * Allocates a new netconn and posts that to conn->acceptmbox.
 532:Middlewares/Third_Party/LwIP/src/api/api_msg.c ****  *
 533:Middlewares/Third_Party/LwIP/src/api/api_msg.c ****  * @see tcp.h (struct tcp_pcb_listen.accept) for parameters and return value
 534:Middlewares/Third_Party/LwIP/src/api/api_msg.c ****  */
 535:Middlewares/Third_Party/LwIP/src/api/api_msg.c **** static err_t
 536:Middlewares/Third_Party/LwIP/src/api/api_msg.c **** accept_function(void *arg, struct tcp_pcb *newpcb, err_t err)
 537:Middlewares/Third_Party/LwIP/src/api/api_msg.c **** {
 538:Middlewares/Third_Party/LwIP/src/api/api_msg.c ****   struct netconn *newconn;
 539:Middlewares/Third_Party/LwIP/src/api/api_msg.c ****   struct netconn *conn = (struct netconn *)arg;
 540:Middlewares/Third_Party/LwIP/src/api/api_msg.c **** 
 541:Middlewares/Third_Party/LwIP/src/api/api_msg.c ****   if (conn == NULL) {
 542:Middlewares/Third_Party/LwIP/src/api/api_msg.c ****     return ERR_VAL;
 543:Middlewares/Third_Party/LwIP/src/api/api_msg.c ****   }
 544:Middlewares/Third_Party/LwIP/src/api/api_msg.c ****   if (!NETCONN_MBOX_VALID(conn, &conn->acceptmbox)) {
 545:Middlewares/Third_Party/LwIP/src/api/api_msg.c ****     LWIP_DEBUGF(API_MSG_DEBUG, ("accept_function: acceptmbox already deleted\n"));
 546:Middlewares/Third_Party/LwIP/src/api/api_msg.c ****     return ERR_VAL;
 547:Middlewares/Third_Party/LwIP/src/api/api_msg.c ****   }
 548:Middlewares/Third_Party/LwIP/src/api/api_msg.c **** 
 549:Middlewares/Third_Party/LwIP/src/api/api_msg.c ****   if (newpcb == NULL) {
 550:Middlewares/Third_Party/LwIP/src/api/api_msg.c ****     /* out-of-pcbs during connect: pass on this error to the application */
 551:Middlewares/Third_Party/LwIP/src/api/api_msg.c ****     if (sys_mbox_trypost(&conn->acceptmbox, lwip_netconn_err_to_msg(ERR_ABRT)) == ERR_OK) {
 552:Middlewares/Third_Party/LwIP/src/api/api_msg.c ****       /* Register event with callback */
 553:Middlewares/Third_Party/LwIP/src/api/api_msg.c ****       API_EVENT(conn, NETCONN_EVT_RCVPLUS, 0);
 554:Middlewares/Third_Party/LwIP/src/api/api_msg.c ****     }
 555:Middlewares/Third_Party/LwIP/src/api/api_msg.c ****     return ERR_VAL;
 556:Middlewares/Third_Party/LwIP/src/api/api_msg.c ****   }
 557:Middlewares/Third_Party/LwIP/src/api/api_msg.c ****   LWIP_ASSERT("expect newpcb == NULL or err == ERR_OK", err == ERR_OK);
 558:Middlewares/Third_Party/LwIP/src/api/api_msg.c ****   LWIP_UNUSED_ARG(err); /* for LWIP_NOASSERT */
 559:Middlewares/Third_Party/LwIP/src/api/api_msg.c **** 
 560:Middlewares/Third_Party/LwIP/src/api/api_msg.c ****   LWIP_DEBUGF(API_MSG_DEBUG, ("accept_function: newpcb->state: %s\n", tcp_debug_state_str(newpcb->s
 561:Middlewares/Third_Party/LwIP/src/api/api_msg.c **** 
 562:Middlewares/Third_Party/LwIP/src/api/api_msg.c ****   /* We have to set the callback here even though
 563:Middlewares/Third_Party/LwIP/src/api/api_msg.c ****    * the new socket is unknown. newconn->socket is marked as -1. */
 564:Middlewares/Third_Party/LwIP/src/api/api_msg.c ****   newconn = netconn_alloc(conn->type, conn->callback);
 565:Middlewares/Third_Party/LwIP/src/api/api_msg.c ****   if (newconn == NULL) {
 566:Middlewares/Third_Party/LwIP/src/api/api_msg.c ****     /* outof netconns: pass on this error to the application */
 567:Middlewares/Third_Party/LwIP/src/api/api_msg.c ****     if (sys_mbox_trypost(&conn->acceptmbox, lwip_netconn_err_to_msg(ERR_ABRT)) == ERR_OK) {
 568:Middlewares/Third_Party/LwIP/src/api/api_msg.c ****       /* Register event with callback */
 569:Middlewares/Third_Party/LwIP/src/api/api_msg.c ****       API_EVENT(conn, NETCONN_EVT_RCVPLUS, 0);
 570:Middlewares/Third_Party/LwIP/src/api/api_msg.c ****     }
 571:Middlewares/Third_Party/LwIP/src/api/api_msg.c ****     return ERR_MEM;
 572:Middlewares/Third_Party/LwIP/src/api/api_msg.c ****   }
 573:Middlewares/Third_Party/LwIP/src/api/api_msg.c ****   newconn->pcb.tcp = newpcb;
 574:Middlewares/Third_Party/LwIP/src/api/api_msg.c ****   setup_tcp(newconn);
 575:Middlewares/Third_Party/LwIP/src/api/api_msg.c **** 
 576:Middlewares/Third_Party/LwIP/src/api/api_msg.c ****   /* handle backlog counter */
 577:Middlewares/Third_Party/LwIP/src/api/api_msg.c ****   tcp_backlog_delayed(newpcb);
 578:Middlewares/Third_Party/LwIP/src/api/api_msg.c **** 
 579:Middlewares/Third_Party/LwIP/src/api/api_msg.c ****   if (sys_mbox_trypost(&conn->acceptmbox, newconn) != ERR_OK) {
 580:Middlewares/Third_Party/LwIP/src/api/api_msg.c ****     /* When returning != ERR_OK, the pcb is aborted in tcp_process(),
 581:Middlewares/Third_Party/LwIP/src/api/api_msg.c ****        so do nothing here! */
 582:Middlewares/Third_Party/LwIP/src/api/api_msg.c ****     /* remove all references to this netconn from the pcb */
 583:Middlewares/Third_Party/LwIP/src/api/api_msg.c ****     struct tcp_pcb *pcb = newconn->pcb.tcp;
 584:Middlewares/Third_Party/LwIP/src/api/api_msg.c ****     tcp_arg(pcb, NULL);
 585:Middlewares/Third_Party/LwIP/src/api/api_msg.c ****     tcp_recv(pcb, NULL);
 586:Middlewares/Third_Party/LwIP/src/api/api_msg.c ****     tcp_sent(pcb, NULL);
 587:Middlewares/Third_Party/LwIP/src/api/api_msg.c ****     tcp_poll(pcb, NULL, 0);
ARM GAS  C:\Users\hh\AppData\Local\Temp\ccfq6ENc.s 			page 15


 588:Middlewares/Third_Party/LwIP/src/api/api_msg.c ****     tcp_err(pcb, NULL);
 589:Middlewares/Third_Party/LwIP/src/api/api_msg.c ****     /* remove reference from to the pcb from this netconn */
 590:Middlewares/Third_Party/LwIP/src/api/api_msg.c ****     newconn->pcb.tcp = NULL;
 591:Middlewares/Third_Party/LwIP/src/api/api_msg.c ****     /* no need to drain since we know the recvmbox is empty. */
 592:Middlewares/Third_Party/LwIP/src/api/api_msg.c ****     sys_mbox_free(&newconn->recvmbox);
 593:Middlewares/Third_Party/LwIP/src/api/api_msg.c ****     sys_mbox_set_invalid(&newconn->recvmbox);
 594:Middlewares/Third_Party/LwIP/src/api/api_msg.c ****     netconn_free(newconn);
 595:Middlewares/Third_Party/LwIP/src/api/api_msg.c ****     return ERR_MEM;
 596:Middlewares/Third_Party/LwIP/src/api/api_msg.c ****   } else {
 597:Middlewares/Third_Party/LwIP/src/api/api_msg.c ****     /* Register event with callback */
 598:Middlewares/Third_Party/LwIP/src/api/api_msg.c ****     API_EVENT(conn, NETCONN_EVT_RCVPLUS, 0);
 599:Middlewares/Third_Party/LwIP/src/api/api_msg.c ****   }
 600:Middlewares/Third_Party/LwIP/src/api/api_msg.c **** 
 601:Middlewares/Third_Party/LwIP/src/api/api_msg.c ****   return ERR_OK;
 602:Middlewares/Third_Party/LwIP/src/api/api_msg.c **** }
 603:Middlewares/Third_Party/LwIP/src/api/api_msg.c **** #endif /* LWIP_TCP */
 604:Middlewares/Third_Party/LwIP/src/api/api_msg.c **** 
 605:Middlewares/Third_Party/LwIP/src/api/api_msg.c **** /**
 606:Middlewares/Third_Party/LwIP/src/api/api_msg.c ****  * Create a new pcb of a specific type.
 607:Middlewares/Third_Party/LwIP/src/api/api_msg.c ****  * Called from lwip_netconn_do_newconn().
 608:Middlewares/Third_Party/LwIP/src/api/api_msg.c ****  *
 609:Middlewares/Third_Party/LwIP/src/api/api_msg.c ****  * @param msg the api_msg describing the connection type
 610:Middlewares/Third_Party/LwIP/src/api/api_msg.c ****  */
 611:Middlewares/Third_Party/LwIP/src/api/api_msg.c **** static void
 612:Middlewares/Third_Party/LwIP/src/api/api_msg.c **** pcb_new(struct api_msg *msg)
 613:Middlewares/Third_Party/LwIP/src/api/api_msg.c **** {
 191              		.loc 1 613 1 is_stmt 1 view -0
 192              		.cfi_startproc
 193              		@ args = 0, pretend = 0, frame = 0
 194              		@ frame_needed = 0, uses_anonymous_args = 0
 195              		.loc 1 613 1 is_stmt 0 view .LVU31
 196 0000 38B5     		push	{r3, r4, r5, lr}
 197              	.LCFI3:
 198              		.cfi_def_cfa_offset 16
 199              		.cfi_offset 3, -16
 200              		.cfi_offset 4, -12
 201              		.cfi_offset 5, -8
 202              		.cfi_offset 14, -4
 203 0002 0446     		mov	r4, r0
 614:Middlewares/Third_Party/LwIP/src/api/api_msg.c ****   enum lwip_ip_addr_type iptype = IPADDR_TYPE_V4;
 204              		.loc 1 614 3 is_stmt 1 view .LVU32
 205              	.LVL19:
 615:Middlewares/Third_Party/LwIP/src/api/api_msg.c **** 
 616:Middlewares/Third_Party/LwIP/src/api/api_msg.c ****   LWIP_ASSERT("pcb_new: pcb already allocated", msg->conn->pcb.tcp == NULL);
 206              		.loc 1 616 3 view .LVU33
 207              		.loc 1 616 3 view .LVU34
 208 0004 0368     		ldr	r3, [r0]
 209 0006 5B68     		ldr	r3, [r3, #4]
 210 0008 33B1     		cbz	r3, .L19
 211              		.loc 1 616 3 discriminator 1 view .LVU35
 212              		.loc 1 616 3 discriminator 1 view .LVU36
 213 000a 104B     		ldr	r3, .L25
 214 000c 4FF41A72 		mov	r2, #616
 215 0010 0F49     		ldr	r1, .L25+4
 216 0012 1048     		ldr	r0, .L25+8
 217              	.LVL20:
 218              		.loc 1 616 3 is_stmt 0 discriminator 1 view .LVU37
ARM GAS  C:\Users\hh\AppData\Local\Temp\ccfq6ENc.s 			page 16


 219 0014 FFF7FEFF 		bl	printf
 220              	.LVL21:
 221              	.L19:
 222              		.loc 1 616 3 is_stmt 1 view .LVU38
 223              		.loc 1 616 3 view .LVU39
 617:Middlewares/Third_Party/LwIP/src/api/api_msg.c **** 
 618:Middlewares/Third_Party/LwIP/src/api/api_msg.c **** #if LWIP_IPV6 && LWIP_IPV4
 619:Middlewares/Third_Party/LwIP/src/api/api_msg.c ****   /* IPv6: Dual-stack by default, unless netconn_set_ipv6only() is called */
 620:Middlewares/Third_Party/LwIP/src/api/api_msg.c ****   if (NETCONNTYPE_ISIPV6(netconn_type(msg->conn))) {
 621:Middlewares/Third_Party/LwIP/src/api/api_msg.c ****     iptype = IPADDR_TYPE_ANY;
 622:Middlewares/Third_Party/LwIP/src/api/api_msg.c ****   }
 623:Middlewares/Third_Party/LwIP/src/api/api_msg.c **** #endif
 624:Middlewares/Third_Party/LwIP/src/api/api_msg.c **** 
 625:Middlewares/Third_Party/LwIP/src/api/api_msg.c ****   /* Allocate a PCB for this connection */
 626:Middlewares/Third_Party/LwIP/src/api/api_msg.c ****   switch (NETCONNTYPE_GROUP(msg->conn->type)) {
 224              		.loc 1 626 3 view .LVU40
 225              		.loc 1 626 11 is_stmt 0 view .LVU41
 226 0018 2568     		ldr	r5, [r4]
 227 001a 2B78     		ldrb	r3, [r5]	@ zero_extendqisi2
 228              		.loc 1 626 3 view .LVU42
 229 001c 03F0F003 		and	r3, r3, #240
 230 0020 102B     		cmp	r3, #16
 231 0022 02D0     		beq	.L24
 627:Middlewares/Third_Party/LwIP/src/api/api_msg.c **** #if LWIP_RAW
 628:Middlewares/Third_Party/LwIP/src/api/api_msg.c ****     case NETCONN_RAW:
 629:Middlewares/Third_Party/LwIP/src/api/api_msg.c ****       msg->conn->pcb.raw = raw_new_ip_type(iptype, msg->msg.n.proto);
 630:Middlewares/Third_Party/LwIP/src/api/api_msg.c ****       if (msg->conn->pcb.raw != NULL) {
 631:Middlewares/Third_Party/LwIP/src/api/api_msg.c **** #if LWIP_IPV6
 632:Middlewares/Third_Party/LwIP/src/api/api_msg.c ****         /* ICMPv6 packets should always have checksum calculated by the stack as per RFC 3542 chapt
 633:Middlewares/Third_Party/LwIP/src/api/api_msg.c ****         if (NETCONNTYPE_ISIPV6(msg->conn->type) && msg->conn->pcb.raw->protocol == IP6_NEXTH_ICMP6)
 634:Middlewares/Third_Party/LwIP/src/api/api_msg.c ****           msg->conn->pcb.raw->chksum_reqd = 1;
 635:Middlewares/Third_Party/LwIP/src/api/api_msg.c ****           msg->conn->pcb.raw->chksum_offset = 2;
 636:Middlewares/Third_Party/LwIP/src/api/api_msg.c ****         }
 637:Middlewares/Third_Party/LwIP/src/api/api_msg.c **** #endif /* LWIP_IPV6 */
 638:Middlewares/Third_Party/LwIP/src/api/api_msg.c ****         raw_recv(msg->conn->pcb.raw, recv_raw, msg->conn);
 639:Middlewares/Third_Party/LwIP/src/api/api_msg.c ****       }
 640:Middlewares/Third_Party/LwIP/src/api/api_msg.c ****       break;
 641:Middlewares/Third_Party/LwIP/src/api/api_msg.c **** #endif /* LWIP_RAW */
 642:Middlewares/Third_Party/LwIP/src/api/api_msg.c **** #if LWIP_UDP
 643:Middlewares/Third_Party/LwIP/src/api/api_msg.c ****     case NETCONN_UDP:
 644:Middlewares/Third_Party/LwIP/src/api/api_msg.c ****       msg->conn->pcb.udp = udp_new_ip_type(iptype);
 645:Middlewares/Third_Party/LwIP/src/api/api_msg.c ****       if (msg->conn->pcb.udp != NULL) {
 646:Middlewares/Third_Party/LwIP/src/api/api_msg.c **** #if LWIP_UDPLITE
 647:Middlewares/Third_Party/LwIP/src/api/api_msg.c ****         if (NETCONNTYPE_ISUDPLITE(msg->conn->type)) {
 648:Middlewares/Third_Party/LwIP/src/api/api_msg.c ****           udp_setflags(msg->conn->pcb.udp, UDP_FLAGS_UDPLITE);
 649:Middlewares/Third_Party/LwIP/src/api/api_msg.c ****         }
 650:Middlewares/Third_Party/LwIP/src/api/api_msg.c **** #endif /* LWIP_UDPLITE */
 651:Middlewares/Third_Party/LwIP/src/api/api_msg.c ****         if (NETCONNTYPE_ISUDPNOCHKSUM(msg->conn->type)) {
 652:Middlewares/Third_Party/LwIP/src/api/api_msg.c ****           udp_setflags(msg->conn->pcb.udp, UDP_FLAGS_NOCHKSUM);
 653:Middlewares/Third_Party/LwIP/src/api/api_msg.c ****         }
 654:Middlewares/Third_Party/LwIP/src/api/api_msg.c ****         udp_recv(msg->conn->pcb.udp, recv_udp, msg->conn);
 655:Middlewares/Third_Party/LwIP/src/api/api_msg.c ****       }
 656:Middlewares/Third_Party/LwIP/src/api/api_msg.c ****       break;
 657:Middlewares/Third_Party/LwIP/src/api/api_msg.c **** #endif /* LWIP_UDP */
 658:Middlewares/Third_Party/LwIP/src/api/api_msg.c **** #if LWIP_TCP
 659:Middlewares/Third_Party/LwIP/src/api/api_msg.c ****     case NETCONN_TCP:
 660:Middlewares/Third_Party/LwIP/src/api/api_msg.c ****       msg->conn->pcb.tcp = tcp_new_ip_type(iptype);
ARM GAS  C:\Users\hh\AppData\Local\Temp\ccfq6ENc.s 			page 17


 661:Middlewares/Third_Party/LwIP/src/api/api_msg.c ****       if (msg->conn->pcb.tcp != NULL) {
 662:Middlewares/Third_Party/LwIP/src/api/api_msg.c ****         setup_tcp(msg->conn);
 663:Middlewares/Third_Party/LwIP/src/api/api_msg.c ****       }
 664:Middlewares/Third_Party/LwIP/src/api/api_msg.c ****       break;
 665:Middlewares/Third_Party/LwIP/src/api/api_msg.c **** #endif /* LWIP_TCP */
 666:Middlewares/Third_Party/LwIP/src/api/api_msg.c ****     default:
 667:Middlewares/Third_Party/LwIP/src/api/api_msg.c ****       /* Unsupported netconn type, e.g. protocol disabled */
 668:Middlewares/Third_Party/LwIP/src/api/api_msg.c ****       msg->err = ERR_VAL;
 232              		.loc 1 668 7 is_stmt 1 view .LVU43
 233              		.loc 1 668 16 is_stmt 0 view .LVU44
 234 0024 FA23     		movs	r3, #250
 235 0026 2371     		strb	r3, [r4, #4]
 669:Middlewares/Third_Party/LwIP/src/api/api_msg.c ****       return;
 236              		.loc 1 669 7 is_stmt 1 view .LVU45
 237              	.L18:
 670:Middlewares/Third_Party/LwIP/src/api/api_msg.c ****   }
 671:Middlewares/Third_Party/LwIP/src/api/api_msg.c ****   if (msg->conn->pcb.ip == NULL) {
 672:Middlewares/Third_Party/LwIP/src/api/api_msg.c ****     msg->err = ERR_MEM;
 673:Middlewares/Third_Party/LwIP/src/api/api_msg.c ****   }
 674:Middlewares/Third_Party/LwIP/src/api/api_msg.c **** }
 238              		.loc 1 674 1 is_stmt 0 view .LVU46
 239 0028 38BD     		pop	{r3, r4, r5, pc}
 240              	.LVL22:
 241              	.L24:
 660:Middlewares/Third_Party/LwIP/src/api/api_msg.c ****       if (msg->conn->pcb.tcp != NULL) {
 242              		.loc 1 660 7 is_stmt 1 view .LVU47
 660:Middlewares/Third_Party/LwIP/src/api/api_msg.c ****       if (msg->conn->pcb.tcp != NULL) {
 243              		.loc 1 660 28 is_stmt 0 view .LVU48
 244 002a 0020     		movs	r0, #0
 245 002c FFF7FEFF 		bl	tcp_new_ip_type
 246              	.LVL23:
 660:Middlewares/Third_Party/LwIP/src/api/api_msg.c ****       if (msg->conn->pcb.tcp != NULL) {
 247              		.loc 1 660 26 discriminator 1 view .LVU49
 248 0030 6860     		str	r0, [r5, #4]
 661:Middlewares/Third_Party/LwIP/src/api/api_msg.c ****         setup_tcp(msg->conn);
 249              		.loc 1 661 7 is_stmt 1 view .LVU50
 661:Middlewares/Third_Party/LwIP/src/api/api_msg.c ****         setup_tcp(msg->conn);
 250              		.loc 1 661 14 is_stmt 0 view .LVU51
 251 0032 2068     		ldr	r0, [r4]
 661:Middlewares/Third_Party/LwIP/src/api/api_msg.c ****         setup_tcp(msg->conn);
 252              		.loc 1 661 25 view .LVU52
 253 0034 4368     		ldr	r3, [r0, #4]
 661:Middlewares/Third_Party/LwIP/src/api/api_msg.c ****         setup_tcp(msg->conn);
 254              		.loc 1 661 10 view .LVU53
 255 0036 0BB1     		cbz	r3, .L21
 662:Middlewares/Third_Party/LwIP/src/api/api_msg.c ****       }
 256              		.loc 1 662 9 is_stmt 1 view .LVU54
 257 0038 FFF7FEFF 		bl	setup_tcp
 258              	.LVL24:
 259              	.L21:
 664:Middlewares/Third_Party/LwIP/src/api/api_msg.c **** #endif /* LWIP_TCP */
 260              		.loc 1 664 7 view .LVU55
 671:Middlewares/Third_Party/LwIP/src/api/api_msg.c ****     msg->err = ERR_MEM;
 261              		.loc 1 671 3 view .LVU56
 671:Middlewares/Third_Party/LwIP/src/api/api_msg.c ****     msg->err = ERR_MEM;
 262              		.loc 1 671 10 is_stmt 0 view .LVU57
 263 003c 2368     		ldr	r3, [r4]
ARM GAS  C:\Users\hh\AppData\Local\Temp\ccfq6ENc.s 			page 18


 671:Middlewares/Third_Party/LwIP/src/api/api_msg.c ****     msg->err = ERR_MEM;
 264              		.loc 1 671 21 view .LVU58
 265 003e 5B68     		ldr	r3, [r3, #4]
 671:Middlewares/Third_Party/LwIP/src/api/api_msg.c ****     msg->err = ERR_MEM;
 266              		.loc 1 671 6 view .LVU59
 267 0040 002B     		cmp	r3, #0
 268 0042 F1D1     		bne	.L18
 672:Middlewares/Third_Party/LwIP/src/api/api_msg.c ****   }
 269              		.loc 1 672 5 is_stmt 1 view .LVU60
 672:Middlewares/Third_Party/LwIP/src/api/api_msg.c ****   }
 270              		.loc 1 672 14 is_stmt 0 view .LVU61
 271 0044 FF23     		movs	r3, #255
 272 0046 2371     		strb	r3, [r4, #4]
 273 0048 EEE7     		b	.L18
 274              	.L26:
 275 004a 00BF     		.align	2
 276              	.L25:
 277 004c 00000000 		.word	.LC0
 278 0050 00000000 		.word	.LC3
 279 0054 40000000 		.word	.LC2
 280              		.cfi_endproc
 281              	.LFE180:
 283              		.section	.rodata.err_tcp.str1.4,"aMS",%progbits,1
 284              		.align	2
 285              	.LC4:
 286 0000 636F6E6E 		.ascii	"conn != NULL\000"
 286      20213D20 
 286      4E554C4C 
 286      00
 287 000d 000000   		.align	2
 288              	.LC5:
 289 0010 636F6E6E 		.ascii	"conn->current_msg != NULL\000"
 289      2D3E6375 
 289      7272656E 
 289      745F6D73 
 289      6720213D 
 290 002a 0000     		.align	2
 291              	.LC6:
 292 002c 696E7661 		.ascii	"invalid op_completed_sem\000"
 292      6C696420 
 292      6F705F63 
 292      6F6D706C 
 292      65746564 
 293 0045 000000   		.align	2
 294              	.LC7:
 295 0048 636F6E6E 		.ascii	"conn->current_msg == NULL\000"
 295      2D3E6375 
 295      7272656E 
 295      745F6D73 
 295      67203D3D 
 296              		.section	.text.err_tcp,"ax",%progbits
 297              		.align	1
 298              		.syntax unified
 299              		.thumb
 300              		.thumb_func
 302              	err_tcp:
 303              	.LVL25:
ARM GAS  C:\Users\hh\AppData\Local\Temp\ccfq6ENc.s 			page 19


 304              	.LFB177:
 436:Middlewares/Third_Party/LwIP/src/api/api_msg.c ****   struct netconn *conn;
 305              		.loc 1 436 1 is_stmt 1 view -0
 306              		.cfi_startproc
 307              		@ args = 0, pretend = 0, frame = 0
 308              		@ frame_needed = 0, uses_anonymous_args = 0
 436:Middlewares/Third_Party/LwIP/src/api/api_msg.c ****   struct netconn *conn;
 309              		.loc 1 436 1 is_stmt 0 view .LVU63
 310 0000 2DE9F041 		push	{r4, r5, r6, r7, r8, lr}
 311              	.LCFI4:
 312              		.cfi_def_cfa_offset 24
 313              		.cfi_offset 4, -24
 314              		.cfi_offset 5, -20
 315              		.cfi_offset 6, -16
 316              		.cfi_offset 7, -12
 317              		.cfi_offset 8, -8
 318              		.cfi_offset 14, -4
 319 0004 0D46     		mov	r5, r1
 437:Middlewares/Third_Party/LwIP/src/api/api_msg.c ****   enum netconn_state old_state;
 320              		.loc 1 437 3 is_stmt 1 view .LVU64
 438:Middlewares/Third_Party/LwIP/src/api/api_msg.c ****   void *mbox_msg;
 321              		.loc 1 438 3 view .LVU65
 439:Middlewares/Third_Party/LwIP/src/api/api_msg.c ****   SYS_ARCH_DECL_PROTECT(lev);
 322              		.loc 1 439 3 view .LVU66
 440:Middlewares/Third_Party/LwIP/src/api/api_msg.c **** 
 323              		.loc 1 440 3 view .LVU67
 442:Middlewares/Third_Party/LwIP/src/api/api_msg.c ****   LWIP_ASSERT("conn != NULL", (conn != NULL));
 324              		.loc 1 442 3 view .LVU68
 325              	.LVL26:
 443:Middlewares/Third_Party/LwIP/src/api/api_msg.c **** 
 326              		.loc 1 443 3 view .LVU69
 443:Middlewares/Third_Party/LwIP/src/api/api_msg.c **** 
 327              		.loc 1 443 3 view .LVU70
 328 0006 0446     		mov	r4, r0
 329 0008 0028     		cmp	r0, #0
 330 000a 3ED0     		beq	.L42
 331              	.LVL27:
 332              	.L28:
 443:Middlewares/Third_Party/LwIP/src/api/api_msg.c **** 
 333              		.loc 1 443 3 view .LVU71
 443:Middlewares/Third_Party/LwIP/src/api/api_msg.c **** 
 334              		.loc 1 443 3 view .LVU72
 445:Middlewares/Third_Party/LwIP/src/api/api_msg.c **** 
 335              		.loc 1 445 3 view .LVU73
 336 000c FFF7FEFF 		bl	sys_arch_protect
 337              	.LVL28:
 448:Middlewares/Third_Party/LwIP/src/api/api_msg.c ****   /* store pending error */
 338              		.loc 1 448 3 view .LVU74
 448:Middlewares/Third_Party/LwIP/src/api/api_msg.c ****   /* store pending error */
 339              		.loc 1 448 17 is_stmt 0 view .LVU75
 340 0010 0022     		movs	r2, #0
 341 0012 6260     		str	r2, [r4, #4]
 450:Middlewares/Third_Party/LwIP/src/api/api_msg.c ****   /* prevent application threads from blocking on 'recvmbox'/'acceptmbox' */
 342              		.loc 1 450 3 is_stmt 1 view .LVU76
 450:Middlewares/Third_Party/LwIP/src/api/api_msg.c ****   /* prevent application threads from blocking on 'recvmbox'/'acceptmbox' */
 343              		.loc 1 450 21 is_stmt 0 view .LVU77
 344 0014 2572     		strb	r5, [r4, #8]
ARM GAS  C:\Users\hh\AppData\Local\Temp\ccfq6ENc.s 			page 20


 452:Middlewares/Third_Party/LwIP/src/api/api_msg.c **** 
 345              		.loc 1 452 3 is_stmt 1 view .LVU78
 452:Middlewares/Third_Party/LwIP/src/api/api_msg.c **** 
 346              		.loc 1 452 7 is_stmt 0 view .LVU79
 347 0016 237F     		ldrb	r3, [r4, #28]	@ zero_extendqisi2
 452:Middlewares/Third_Party/LwIP/src/api/api_msg.c **** 
 348              		.loc 1 452 15 view .LVU80
 349 0018 43F00103 		orr	r3, r3, #1
 350 001c 2377     		strb	r3, [r4, #28]
 455:Middlewares/Third_Party/LwIP/src/api/api_msg.c ****   conn->state = NETCONN_NONE;
 351              		.loc 1 455 3 is_stmt 1 view .LVU81
 455:Middlewares/Third_Party/LwIP/src/api/api_msg.c ****   conn->state = NETCONN_NONE;
 352              		.loc 1 455 13 is_stmt 0 view .LVU82
 353 001e 6678     		ldrb	r6, [r4, #1]	@ zero_extendqisi2
 354              	.LVL29:
 456:Middlewares/Third_Party/LwIP/src/api/api_msg.c **** 
 355              		.loc 1 456 3 is_stmt 1 view .LVU83
 456:Middlewares/Third_Party/LwIP/src/api/api_msg.c **** 
 356              		.loc 1 456 15 is_stmt 0 view .LVU84
 357 0020 6270     		strb	r2, [r4, #1]
 458:Middlewares/Third_Party/LwIP/src/api/api_msg.c **** 
 358              		.loc 1 458 3 is_stmt 1 view .LVU85
 359 0022 FFF7FEFF 		bl	sys_arch_unprotect
 360              	.LVL30:
 461:Middlewares/Third_Party/LwIP/src/api/api_msg.c ****   /* Try to release selects pending on 'read' or 'write', too.
 361              		.loc 1 461 3 view .LVU86
 362 0026 636A     		ldr	r3, [r4, #36]
 363 0028 1BB1     		cbz	r3, .L29
 461:Middlewares/Third_Party/LwIP/src/api/api_msg.c ****   /* Try to release selects pending on 'read' or 'write', too.
 364              		.loc 1 461 3 discriminator 1 view .LVU87
 365 002a 0022     		movs	r2, #0
 366 002c 0421     		movs	r1, #4
 367 002e 2046     		mov	r0, r4
 368 0030 9847     		blx	r3
 369              	.LVL31:
 370              	.L29:
 461:Middlewares/Third_Party/LwIP/src/api/api_msg.c ****   /* Try to release selects pending on 'read' or 'write', too.
 371              		.loc 1 461 40 view .LVU88
 464:Middlewares/Third_Party/LwIP/src/api/api_msg.c ****   API_EVENT(conn, NETCONN_EVT_SENDPLUS, 0);
 372              		.loc 1 464 3 view .LVU89
 373 0032 636A     		ldr	r3, [r4, #36]
 374 0034 1BB1     		cbz	r3, .L30
 464:Middlewares/Third_Party/LwIP/src/api/api_msg.c ****   API_EVENT(conn, NETCONN_EVT_SENDPLUS, 0);
 375              		.loc 1 464 3 discriminator 1 view .LVU90
 376 0036 0022     		movs	r2, #0
 377 0038 1146     		mov	r1, r2
 378 003a 2046     		mov	r0, r4
 379 003c 9847     		blx	r3
 380              	.LVL32:
 381              	.L30:
 464:Middlewares/Third_Party/LwIP/src/api/api_msg.c ****   API_EVENT(conn, NETCONN_EVT_SENDPLUS, 0);
 382              		.loc 1 464 42 view .LVU91
 465:Middlewares/Third_Party/LwIP/src/api/api_msg.c **** 
 383              		.loc 1 465 3 view .LVU92
 384 003e 636A     		ldr	r3, [r4, #36]
 385 0040 1BB1     		cbz	r3, .L31
 465:Middlewares/Third_Party/LwIP/src/api/api_msg.c **** 
ARM GAS  C:\Users\hh\AppData\Local\Temp\ccfq6ENc.s 			page 21


 386              		.loc 1 465 3 discriminator 1 view .LVU93
 387 0042 0022     		movs	r2, #0
 388 0044 0221     		movs	r1, #2
 389 0046 2046     		mov	r0, r4
 390 0048 9847     		blx	r3
 391              	.LVL33:
 392              	.L31:
 465:Middlewares/Third_Party/LwIP/src/api/api_msg.c **** 
 393              		.loc 1 465 43 view .LVU94
 467:Middlewares/Third_Party/LwIP/src/api/api_msg.c ****   /* pass error message to recvmbox to wake up pending recv */
 394              		.loc 1 467 3 view .LVU95
 467:Middlewares/Third_Party/LwIP/src/api/api_msg.c ****   /* pass error message to recvmbox to wake up pending recv */
 395              		.loc 1 467 14 is_stmt 0 view .LVU96
 396 004a 2846     		mov	r0, r5
 397 004c FFF7FEFF 		bl	lwip_netconn_err_to_msg
 398              	.LVL34:
 399 0050 8046     		mov	r8, r0
 400              	.LVL35:
 469:Middlewares/Third_Party/LwIP/src/api/api_msg.c ****     /* use trypost to prevent deadlock */
 401              		.loc 1 469 3 is_stmt 1 view .LVU97
 469:Middlewares/Third_Party/LwIP/src/api/api_msg.c ****     /* use trypost to prevent deadlock */
 402              		.loc 1 469 7 is_stmt 0 view .LVU98
 403 0052 04F11007 		add	r7, r4, #16
 404 0056 3846     		mov	r0, r7
 405              	.LVL36:
 469:Middlewares/Third_Party/LwIP/src/api/api_msg.c ****     /* use trypost to prevent deadlock */
 406              		.loc 1 469 7 view .LVU99
 407 0058 FFF7FEFF 		bl	sys_mbox_valid
 408              	.LVL37:
 469:Middlewares/Third_Party/LwIP/src/api/api_msg.c ****     /* use trypost to prevent deadlock */
 409              		.loc 1 469 6 discriminator 1 view .LVU100
 410 005c E8B9     		cbnz	r0, .L43
 411              	.L32:
 474:Middlewares/Third_Party/LwIP/src/api/api_msg.c ****     /* use trypost to prevent deadlock */
 412              		.loc 1 474 3 is_stmt 1 view .LVU101
 474:Middlewares/Third_Party/LwIP/src/api/api_msg.c ****     /* use trypost to prevent deadlock */
 413              		.loc 1 474 7 is_stmt 0 view .LVU102
 414 005e 04F11407 		add	r7, r4, #20
 415 0062 3846     		mov	r0, r7
 416 0064 FFF7FEFF 		bl	sys_mbox_valid
 417              	.LVL38:
 474:Middlewares/Third_Party/LwIP/src/api/api_msg.c ****     /* use trypost to prevent deadlock */
 418              		.loc 1 474 6 discriminator 1 view .LVU103
 419 0068 E0B9     		cbnz	r0, .L44
 420              	.L33:
 479:Middlewares/Third_Party/LwIP/src/api/api_msg.c ****       (old_state == NETCONN_CONNECT)) {
 421              		.loc 1 479 3 is_stmt 1 view .LVU104
 479:Middlewares/Third_Party/LwIP/src/api/api_msg.c ****       (old_state == NETCONN_CONNECT)) {
 422              		.loc 1 479 6 is_stmt 0 view .LVU105
 423 006a 042E     		cmp	r6, #4
 424 006c 18BF     		it	ne
 425 006e 012E     		cmpne	r6, #1
 426 0070 1DD0     		beq	.L34
 479:Middlewares/Third_Party/LwIP/src/api/api_msg.c ****       (old_state == NETCONN_CONNECT)) {
 427              		.loc 1 479 68 discriminator 1 view .LVU106
 428 0072 032E     		cmp	r6, #3
 429 0074 1BD0     		beq	.L34
ARM GAS  C:\Users\hh\AppData\Local\Temp\ccfq6ENc.s 			page 22


 506:Middlewares/Third_Party/LwIP/src/api/api_msg.c ****   }
 430              		.loc 1 506 5 is_stmt 1 view .LVU107
 506:Middlewares/Third_Party/LwIP/src/api/api_msg.c ****   }
 431              		.loc 1 506 5 view .LVU108
 432 0076 236A     		ldr	r3, [r4, #32]
 433 0078 93B3     		cbz	r3, .L27
 506:Middlewares/Third_Party/LwIP/src/api/api_msg.c ****   }
 434              		.loc 1 506 5 discriminator 1 view .LVU109
 506:Middlewares/Third_Party/LwIP/src/api/api_msg.c ****   }
 435              		.loc 1 506 5 discriminator 1 view .LVU110
 436 007a 244B     		ldr	r3, .L48
 437 007c 4FF4FD72 		mov	r2, #506
 438 0080 2349     		ldr	r1, .L48+4
 439 0082 2448     		ldr	r0, .L48+8
 440 0084 FFF7FEFF 		bl	printf
 441              	.LVL39:
 506:Middlewares/Third_Party/LwIP/src/api/api_msg.c ****   }
 442              		.loc 1 506 5 view .LVU111
 506:Middlewares/Third_Party/LwIP/src/api/api_msg.c ****   }
 443              		.loc 1 506 5 view .LVU112
 508:Middlewares/Third_Party/LwIP/src/api/api_msg.c **** 
 444              		.loc 1 508 1 is_stmt 0 view .LVU113
 445 0088 2AE0     		b	.L27
 446              	.LVL40:
 447              	.L42:
 443:Middlewares/Third_Party/LwIP/src/api/api_msg.c **** 
 448              		.loc 1 443 3 is_stmt 1 discriminator 1 view .LVU114
 443:Middlewares/Third_Party/LwIP/src/api/api_msg.c **** 
 449              		.loc 1 443 3 discriminator 1 view .LVU115
 450 008a 204B     		ldr	r3, .L48
 451 008c 40F2BB12 		movw	r2, #443
 452 0090 2149     		ldr	r1, .L48+12
 453              	.LVL41:
 443:Middlewares/Third_Party/LwIP/src/api/api_msg.c **** 
 454              		.loc 1 443 3 is_stmt 0 discriminator 1 view .LVU116
 455 0092 2048     		ldr	r0, .L48+8
 456              	.LVL42:
 443:Middlewares/Third_Party/LwIP/src/api/api_msg.c **** 
 457              		.loc 1 443 3 discriminator 1 view .LVU117
 458 0094 FFF7FEFF 		bl	printf
 459              	.LVL43:
 460 0098 B8E7     		b	.L28
 461              	.LVL44:
 462              	.L43:
 471:Middlewares/Third_Party/LwIP/src/api/api_msg.c ****   }
 463              		.loc 1 471 5 is_stmt 1 view .LVU118
 464 009a 4146     		mov	r1, r8
 465 009c 3846     		mov	r0, r7
 466 009e FFF7FEFF 		bl	sys_mbox_trypost
 467              	.LVL45:
 468 00a2 DCE7     		b	.L32
 469              	.L44:
 476:Middlewares/Third_Party/LwIP/src/api/api_msg.c ****   }
 470              		.loc 1 476 5 view .LVU119
 471 00a4 4146     		mov	r1, r8
 472 00a6 3846     		mov	r0, r7
 473 00a8 FFF7FEFF 		bl	sys_mbox_trypost
ARM GAS  C:\Users\hh\AppData\Local\Temp\ccfq6ENc.s 			page 23


 474              	.LVL46:
 475 00ac DDE7     		b	.L33
 476              	.L34:
 477              	.LBB2:
 483:Middlewares/Third_Party/LwIP/src/api/api_msg.c ****     SET_NONBLOCKING_CONNECT(conn, 0);
 478              		.loc 1 483 5 view .LVU120
 483:Middlewares/Third_Party/LwIP/src/api/api_msg.c ****     SET_NONBLOCKING_CONNECT(conn, 0);
 479              		.loc 1 483 35 is_stmt 0 view .LVU121
 480 00ae 237F     		ldrb	r3, [r4, #28]	@ zero_extendqisi2
 481              	.LVL47:
 484:Middlewares/Third_Party/LwIP/src/api/api_msg.c **** 
 482              		.loc 1 484 5 is_stmt 1 view .LVU122
 484:Middlewares/Third_Party/LwIP/src/api/api_msg.c **** 
 483              		.loc 1 484 5 view .LVU123
 484:Middlewares/Third_Party/LwIP/src/api/api_msg.c **** 
 484              		.loc 1 484 5 discriminator 2 view .LVU124
 484:Middlewares/Third_Party/LwIP/src/api/api_msg.c **** 
 485              		.loc 1 484 5 discriminator 2 view .LVU125
 486 00b0 03F0FB02 		and	r2, r3, #251
 487 00b4 2277     		strb	r2, [r4, #28]
 484:Middlewares/Third_Party/LwIP/src/api/api_msg.c **** 
 488              		.loc 1 484 5 view .LVU126
 484:Middlewares/Third_Party/LwIP/src/api/api_msg.c **** 
 489              		.loc 1 484 5 view .LVU127
 486:Middlewares/Third_Party/LwIP/src/api/api_msg.c ****       sys_sem_t *op_completed_sem;
 490              		.loc 1 486 5 view .LVU128
 486:Middlewares/Third_Party/LwIP/src/api/api_msg.c ****       sys_sem_t *op_completed_sem;
 491              		.loc 1 486 8 is_stmt 0 view .LVU129
 492 00b6 13F0040F 		tst	r3, #4
 493 00ba 11D1     		bne	.L27
 494              	.LBB3:
 487:Middlewares/Third_Party/LwIP/src/api/api_msg.c ****       /* set error return code */
 495              		.loc 1 487 7 is_stmt 1 view .LVU130
 489:Middlewares/Third_Party/LwIP/src/api/api_msg.c ****       if (old_state == NETCONN_CLOSE) {
 496              		.loc 1 489 7 view .LVU131
 489:Middlewares/Third_Party/LwIP/src/api/api_msg.c ****       if (old_state == NETCONN_CLOSE) {
 497              		.loc 1 489 7 view .LVU132
 498 00bc 236A     		ldr	r3, [r4, #32]
 499              	.LVL48:
 489:Middlewares/Third_Party/LwIP/src/api/api_msg.c ****       if (old_state == NETCONN_CLOSE) {
 500              		.loc 1 489 7 is_stmt 0 view .LVU133
 501 00be 8BB1     		cbz	r3, .L45
 502              	.L37:
 489:Middlewares/Third_Party/LwIP/src/api/api_msg.c ****       if (old_state == NETCONN_CLOSE) {
 503              		.loc 1 489 7 is_stmt 1 view .LVU134
 489:Middlewares/Third_Party/LwIP/src/api/api_msg.c ****       if (old_state == NETCONN_CLOSE) {
 504              		.loc 1 489 7 view .LVU135
 490:Middlewares/Third_Party/LwIP/src/api/api_msg.c ****         /* let close succeed: the connection is closed after all... */
 505              		.loc 1 490 7 view .LVU136
 490:Middlewares/Third_Party/LwIP/src/api/api_msg.c ****         /* let close succeed: the connection is closed after all... */
 506              		.loc 1 490 10 is_stmt 0 view .LVU137
 507 00c0 042E     		cmp	r6, #4
 508 00c2 17D0     		beq	.L46
 495:Middlewares/Third_Party/LwIP/src/api/api_msg.c ****       }
 509              		.loc 1 495 9 is_stmt 1 view .LVU138
 495:Middlewares/Third_Party/LwIP/src/api/api_msg.c ****       }
 510              		.loc 1 495 13 is_stmt 0 view .LVU139
ARM GAS  C:\Users\hh\AppData\Local\Temp\ccfq6ENc.s 			page 24


 511 00c4 236A     		ldr	r3, [r4, #32]
 495:Middlewares/Third_Party/LwIP/src/api/api_msg.c ****       }
 512              		.loc 1 495 32 view .LVU140
 513 00c6 1D71     		strb	r5, [r3, #4]
 514              	.L39:
 497:Middlewares/Third_Party/LwIP/src/api/api_msg.c ****       LWIP_ASSERT("invalid op_completed_sem", sys_sem_valid(op_completed_sem));
 515              		.loc 1 497 7 is_stmt 1 view .LVU141
 497:Middlewares/Third_Party/LwIP/src/api/api_msg.c ****       LWIP_ASSERT("invalid op_completed_sem", sys_sem_valid(op_completed_sem));
 516              		.loc 1 497 26 is_stmt 0 view .LVU142
 517 00c8 236A     		ldr	r3, [r4, #32]
 518 00ca 1D68     		ldr	r5, [r3]
 519              	.LVL49:
 497:Middlewares/Third_Party/LwIP/src/api/api_msg.c ****       LWIP_ASSERT("invalid op_completed_sem", sys_sem_valid(op_completed_sem));
 520              		.loc 1 497 24 view .LVU143
 521 00cc 0C35     		adds	r5, r5, #12
 522              	.LVL50:
 498:Middlewares/Third_Party/LwIP/src/api/api_msg.c ****       conn->current_msg = NULL;
 523              		.loc 1 498 7 is_stmt 1 view .LVU144
 498:Middlewares/Third_Party/LwIP/src/api/api_msg.c ****       conn->current_msg = NULL;
 524              		.loc 1 498 7 view .LVU145
 525 00ce 2846     		mov	r0, r5
 526 00d0 FFF7FEFF 		bl	sys_sem_valid
 527              	.LVL51:
 498:Middlewares/Third_Party/LwIP/src/api/api_msg.c ****       conn->current_msg = NULL;
 528              		.loc 1 498 7 is_stmt 0 discriminator 1 view .LVU146
 529 00d4 90B1     		cbz	r0, .L47
 530              	.L40:
 498:Middlewares/Third_Party/LwIP/src/api/api_msg.c ****       conn->current_msg = NULL;
 531              		.loc 1 498 7 is_stmt 1 view .LVU147
 498:Middlewares/Third_Party/LwIP/src/api/api_msg.c ****       conn->current_msg = NULL;
 532              		.loc 1 498 7 view .LVU148
 499:Middlewares/Third_Party/LwIP/src/api/api_msg.c ****       /* wake up the waiting task */
 533              		.loc 1 499 7 view .LVU149
 499:Middlewares/Third_Party/LwIP/src/api/api_msg.c ****       /* wake up the waiting task */
 534              		.loc 1 499 25 is_stmt 0 view .LVU150
 535 00d6 0023     		movs	r3, #0
 536 00d8 2362     		str	r3, [r4, #32]
 501:Middlewares/Third_Party/LwIP/src/api/api_msg.c ****     } else {
 537              		.loc 1 501 7 is_stmt 1 view .LVU151
 538 00da 2846     		mov	r0, r5
 539 00dc FFF7FEFF 		bl	sys_sem_signal
 540              	.LVL52:
 541              	.L27:
 501:Middlewares/Third_Party/LwIP/src/api/api_msg.c ****     } else {
 542              		.loc 1 501 7 is_stmt 0 view .LVU152
 543              	.LBE3:
 544              	.LBE2:
 508:Middlewares/Third_Party/LwIP/src/api/api_msg.c **** 
 545              		.loc 1 508 1 view .LVU153
 546 00e0 BDE8F081 		pop	{r4, r5, r6, r7, r8, pc}
 547              	.LVL53:
 548              	.L45:
 549              	.LBB5:
 550              	.LBB4:
 489:Middlewares/Third_Party/LwIP/src/api/api_msg.c ****       if (old_state == NETCONN_CLOSE) {
 551              		.loc 1 489 7 is_stmt 1 discriminator 1 view .LVU154
 489:Middlewares/Third_Party/LwIP/src/api/api_msg.c ****       if (old_state == NETCONN_CLOSE) {
ARM GAS  C:\Users\hh\AppData\Local\Temp\ccfq6ENc.s 			page 25


 552              		.loc 1 489 7 discriminator 1 view .LVU155
 553 00e4 094B     		ldr	r3, .L48
 554 00e6 40F2E912 		movw	r2, #489
 555 00ea 0C49     		ldr	r1, .L48+16
 556 00ec 0948     		ldr	r0, .L48+8
 557 00ee FFF7FEFF 		bl	printf
 558              	.LVL54:
 559 00f2 E5E7     		b	.L37
 560              	.L46:
 492:Middlewares/Third_Party/LwIP/src/api/api_msg.c ****       } else {
 561              		.loc 1 492 9 view .LVU156
 492:Middlewares/Third_Party/LwIP/src/api/api_msg.c ****       } else {
 562              		.loc 1 492 13 is_stmt 0 view .LVU157
 563 00f4 236A     		ldr	r3, [r4, #32]
 492:Middlewares/Third_Party/LwIP/src/api/api_msg.c ****       } else {
 564              		.loc 1 492 32 view .LVU158
 565 00f6 0022     		movs	r2, #0
 566 00f8 1A71     		strb	r2, [r3, #4]
 567 00fa E5E7     		b	.L39
 568              	.LVL55:
 569              	.L47:
 498:Middlewares/Third_Party/LwIP/src/api/api_msg.c ****       conn->current_msg = NULL;
 570              		.loc 1 498 7 is_stmt 1 discriminator 2 view .LVU159
 498:Middlewares/Third_Party/LwIP/src/api/api_msg.c ****       conn->current_msg = NULL;
 571              		.loc 1 498 7 discriminator 2 view .LVU160
 572 00fc 034B     		ldr	r3, .L48
 573 00fe 4FF4F972 		mov	r2, #498
 574 0102 0749     		ldr	r1, .L48+20
 575 0104 0348     		ldr	r0, .L48+8
 576 0106 FFF7FEFF 		bl	printf
 577              	.LVL56:
 578 010a E4E7     		b	.L40
 579              	.L49:
 580              		.align	2
 581              	.L48:
 582 010c 00000000 		.word	.LC0
 583 0110 48000000 		.word	.LC7
 584 0114 40000000 		.word	.LC2
 585 0118 00000000 		.word	.LC4
 586 011c 10000000 		.word	.LC5
 587 0120 2C000000 		.word	.LC6
 588              	.LBE4:
 589              	.LBE5:
 590              		.cfi_endproc
 591              	.LFE177:
 593              		.section	.rodata.lwip_netconn_do_connected.str1.4,"aMS",%progbits,1
 594              		.align	2
 595              	.LC8:
 596 0000 636F6E6E 		.ascii	"conn->state == NETCONN_CONNECT\000"
 596      2D3E7374 
 596      61746520 
 596      3D3D204E 
 596      4554434F 
 597 001f 00       		.align	2
 598              	.LC9:
 599 0020 28636F6E 		.ascii	"(conn->current_msg != NULL) || conn->in_non_blockin"
 599      6E2D3E63 
ARM GAS  C:\Users\hh\AppData\Local\Temp\ccfq6ENc.s 			page 26


 599      75727265 
 599      6E745F6D 
 599      73672021 
 600 0053 675F636F 		.ascii	"g_connect\000"
 600      6E6E6563 
 600      7400
 601 005d 000000   		.align	2
 602              	.LC10:
 603 0060 626C6F63 		.ascii	"blocking connect state error\000"
 603      6B696E67 
 603      20636F6E 
 603      6E656374 
 603      20737461 
 604              		.section	.text.lwip_netconn_do_connected,"ax",%progbits
 605              		.align	1
 606              		.syntax unified
 607              		.thumb
 608              		.thumb_func
 610              	lwip_netconn_do_connected:
 611              	.LVL57:
 612              	.LFB189:
 675:Middlewares/Third_Party/LwIP/src/api/api_msg.c **** 
 676:Middlewares/Third_Party/LwIP/src/api/api_msg.c **** /**
 677:Middlewares/Third_Party/LwIP/src/api/api_msg.c ****  * Create a new pcb of a specific type inside a netconn.
 678:Middlewares/Third_Party/LwIP/src/api/api_msg.c ****  * Called from netconn_new_with_proto_and_callback.
 679:Middlewares/Third_Party/LwIP/src/api/api_msg.c ****  *
 680:Middlewares/Third_Party/LwIP/src/api/api_msg.c ****  * @param m the api_msg describing the connection type
 681:Middlewares/Third_Party/LwIP/src/api/api_msg.c ****  */
 682:Middlewares/Third_Party/LwIP/src/api/api_msg.c **** void
 683:Middlewares/Third_Party/LwIP/src/api/api_msg.c **** lwip_netconn_do_newconn(void *m)
 684:Middlewares/Third_Party/LwIP/src/api/api_msg.c **** {
 685:Middlewares/Third_Party/LwIP/src/api/api_msg.c ****   struct api_msg *msg = (struct api_msg *)m;
 686:Middlewares/Third_Party/LwIP/src/api/api_msg.c **** 
 687:Middlewares/Third_Party/LwIP/src/api/api_msg.c ****   msg->err = ERR_OK;
 688:Middlewares/Third_Party/LwIP/src/api/api_msg.c ****   if (msg->conn->pcb.tcp == NULL) {
 689:Middlewares/Third_Party/LwIP/src/api/api_msg.c ****     pcb_new(msg);
 690:Middlewares/Third_Party/LwIP/src/api/api_msg.c ****   }
 691:Middlewares/Third_Party/LwIP/src/api/api_msg.c ****   /* Else? This "new" connection already has a PCB allocated. */
 692:Middlewares/Third_Party/LwIP/src/api/api_msg.c ****   /* Is this an error condition? Should it be deleted? */
 693:Middlewares/Third_Party/LwIP/src/api/api_msg.c ****   /* We currently just are happy and return. */
 694:Middlewares/Third_Party/LwIP/src/api/api_msg.c **** 
 695:Middlewares/Third_Party/LwIP/src/api/api_msg.c ****   TCPIP_APIMSG_ACK(msg);
 696:Middlewares/Third_Party/LwIP/src/api/api_msg.c **** }
 697:Middlewares/Third_Party/LwIP/src/api/api_msg.c **** 
 698:Middlewares/Third_Party/LwIP/src/api/api_msg.c **** /**
 699:Middlewares/Third_Party/LwIP/src/api/api_msg.c ****  * Create a new netconn (of a specific type) that has a callback function.
 700:Middlewares/Third_Party/LwIP/src/api/api_msg.c ****  * The corresponding pcb is NOT created!
 701:Middlewares/Third_Party/LwIP/src/api/api_msg.c ****  *
 702:Middlewares/Third_Party/LwIP/src/api/api_msg.c ****  * @param t the type of 'connection' to create (@see enum netconn_type)
 703:Middlewares/Third_Party/LwIP/src/api/api_msg.c ****  * @param callback a function to call on status changes (RX available, TX'ed)
 704:Middlewares/Third_Party/LwIP/src/api/api_msg.c ****  * @return a newly allocated struct netconn or
 705:Middlewares/Third_Party/LwIP/src/api/api_msg.c ****  *         NULL on memory error
 706:Middlewares/Third_Party/LwIP/src/api/api_msg.c ****  */
 707:Middlewares/Third_Party/LwIP/src/api/api_msg.c **** struct netconn *
 708:Middlewares/Third_Party/LwIP/src/api/api_msg.c **** netconn_alloc(enum netconn_type t, netconn_callback callback)
 709:Middlewares/Third_Party/LwIP/src/api/api_msg.c **** {
 710:Middlewares/Third_Party/LwIP/src/api/api_msg.c ****   struct netconn *conn;
ARM GAS  C:\Users\hh\AppData\Local\Temp\ccfq6ENc.s 			page 27


 711:Middlewares/Third_Party/LwIP/src/api/api_msg.c ****   int size;
 712:Middlewares/Third_Party/LwIP/src/api/api_msg.c ****   u8_t init_flags = 0;
 713:Middlewares/Third_Party/LwIP/src/api/api_msg.c **** 
 714:Middlewares/Third_Party/LwIP/src/api/api_msg.c ****   conn = (struct netconn *)memp_malloc(MEMP_NETCONN);
 715:Middlewares/Third_Party/LwIP/src/api/api_msg.c ****   if (conn == NULL) {
 716:Middlewares/Third_Party/LwIP/src/api/api_msg.c ****     return NULL;
 717:Middlewares/Third_Party/LwIP/src/api/api_msg.c ****   }
 718:Middlewares/Third_Party/LwIP/src/api/api_msg.c **** 
 719:Middlewares/Third_Party/LwIP/src/api/api_msg.c ****   conn->pending_err = ERR_OK;
 720:Middlewares/Third_Party/LwIP/src/api/api_msg.c ****   conn->type = t;
 721:Middlewares/Third_Party/LwIP/src/api/api_msg.c ****   conn->pcb.tcp = NULL;
 722:Middlewares/Third_Party/LwIP/src/api/api_msg.c **** #if LWIP_NETCONN_FULLDUPLEX
 723:Middlewares/Third_Party/LwIP/src/api/api_msg.c ****   conn->mbox_threads_waiting = 0;
 724:Middlewares/Third_Party/LwIP/src/api/api_msg.c **** #endif
 725:Middlewares/Third_Party/LwIP/src/api/api_msg.c **** 
 726:Middlewares/Third_Party/LwIP/src/api/api_msg.c ****   /* If all sizes are the same, every compiler should optimize this switch to nothing */
 727:Middlewares/Third_Party/LwIP/src/api/api_msg.c ****   switch (NETCONNTYPE_GROUP(t)) {
 728:Middlewares/Third_Party/LwIP/src/api/api_msg.c **** #if LWIP_RAW
 729:Middlewares/Third_Party/LwIP/src/api/api_msg.c ****     case NETCONN_RAW:
 730:Middlewares/Third_Party/LwIP/src/api/api_msg.c ****       size = DEFAULT_RAW_RECVMBOX_SIZE;
 731:Middlewares/Third_Party/LwIP/src/api/api_msg.c ****       break;
 732:Middlewares/Third_Party/LwIP/src/api/api_msg.c **** #endif /* LWIP_RAW */
 733:Middlewares/Third_Party/LwIP/src/api/api_msg.c **** #if LWIP_UDP
 734:Middlewares/Third_Party/LwIP/src/api/api_msg.c ****     case NETCONN_UDP:
 735:Middlewares/Third_Party/LwIP/src/api/api_msg.c ****       size = DEFAULT_UDP_RECVMBOX_SIZE;
 736:Middlewares/Third_Party/LwIP/src/api/api_msg.c **** #if LWIP_NETBUF_RECVINFO
 737:Middlewares/Third_Party/LwIP/src/api/api_msg.c ****       init_flags |= NETCONN_FLAG_PKTINFO;
 738:Middlewares/Third_Party/LwIP/src/api/api_msg.c **** #endif /* LWIP_NETBUF_RECVINFO */
 739:Middlewares/Third_Party/LwIP/src/api/api_msg.c ****       break;
 740:Middlewares/Third_Party/LwIP/src/api/api_msg.c **** #endif /* LWIP_UDP */
 741:Middlewares/Third_Party/LwIP/src/api/api_msg.c **** #if LWIP_TCP
 742:Middlewares/Third_Party/LwIP/src/api/api_msg.c ****     case NETCONN_TCP:
 743:Middlewares/Third_Party/LwIP/src/api/api_msg.c ****       size = DEFAULT_TCP_RECVMBOX_SIZE;
 744:Middlewares/Third_Party/LwIP/src/api/api_msg.c ****       break;
 745:Middlewares/Third_Party/LwIP/src/api/api_msg.c **** #endif /* LWIP_TCP */
 746:Middlewares/Third_Party/LwIP/src/api/api_msg.c ****     default:
 747:Middlewares/Third_Party/LwIP/src/api/api_msg.c ****       LWIP_ASSERT("netconn_alloc: undefined netconn_type", 0);
 748:Middlewares/Third_Party/LwIP/src/api/api_msg.c ****       goto free_and_return;
 749:Middlewares/Third_Party/LwIP/src/api/api_msg.c ****   }
 750:Middlewares/Third_Party/LwIP/src/api/api_msg.c **** 
 751:Middlewares/Third_Party/LwIP/src/api/api_msg.c ****   if (sys_mbox_new(&conn->recvmbox, size) != ERR_OK) {
 752:Middlewares/Third_Party/LwIP/src/api/api_msg.c ****     goto free_and_return;
 753:Middlewares/Third_Party/LwIP/src/api/api_msg.c ****   }
 754:Middlewares/Third_Party/LwIP/src/api/api_msg.c **** #if !LWIP_NETCONN_SEM_PER_THREAD
 755:Middlewares/Third_Party/LwIP/src/api/api_msg.c ****   if (sys_sem_new(&conn->op_completed, 0) != ERR_OK) {
 756:Middlewares/Third_Party/LwIP/src/api/api_msg.c ****     sys_mbox_free(&conn->recvmbox);
 757:Middlewares/Third_Party/LwIP/src/api/api_msg.c ****     goto free_and_return;
 758:Middlewares/Third_Party/LwIP/src/api/api_msg.c ****   }
 759:Middlewares/Third_Party/LwIP/src/api/api_msg.c **** #endif
 760:Middlewares/Third_Party/LwIP/src/api/api_msg.c **** 
 761:Middlewares/Third_Party/LwIP/src/api/api_msg.c **** #if LWIP_TCP
 762:Middlewares/Third_Party/LwIP/src/api/api_msg.c ****   sys_mbox_set_invalid(&conn->acceptmbox);
 763:Middlewares/Third_Party/LwIP/src/api/api_msg.c **** #endif
 764:Middlewares/Third_Party/LwIP/src/api/api_msg.c ****   conn->state        = NETCONN_NONE;
 765:Middlewares/Third_Party/LwIP/src/api/api_msg.c ****   /* initialize socket to -1 since 0 is a valid socket */
 766:Middlewares/Third_Party/LwIP/src/api/api_msg.c ****   conn->callback_arg.socket = -1;
 767:Middlewares/Third_Party/LwIP/src/api/api_msg.c ****   conn->callback     = callback;
ARM GAS  C:\Users\hh\AppData\Local\Temp\ccfq6ENc.s 			page 28


 768:Middlewares/Third_Party/LwIP/src/api/api_msg.c **** #if LWIP_TCP
 769:Middlewares/Third_Party/LwIP/src/api/api_msg.c ****   conn->current_msg  = NULL;
 770:Middlewares/Third_Party/LwIP/src/api/api_msg.c **** #endif /* LWIP_TCP */
 771:Middlewares/Third_Party/LwIP/src/api/api_msg.c **** #if LWIP_SO_SNDTIMEO
 772:Middlewares/Third_Party/LwIP/src/api/api_msg.c ****   conn->send_timeout = 0;
 773:Middlewares/Third_Party/LwIP/src/api/api_msg.c **** #endif /* LWIP_SO_SNDTIMEO */
 774:Middlewares/Third_Party/LwIP/src/api/api_msg.c **** #if LWIP_SO_RCVTIMEO
 775:Middlewares/Third_Party/LwIP/src/api/api_msg.c ****   conn->recv_timeout = 0;
 776:Middlewares/Third_Party/LwIP/src/api/api_msg.c **** #endif /* LWIP_SO_RCVTIMEO */
 777:Middlewares/Third_Party/LwIP/src/api/api_msg.c **** #if LWIP_SO_RCVBUF
 778:Middlewares/Third_Party/LwIP/src/api/api_msg.c ****   conn->recv_bufsize = RECV_BUFSIZE_DEFAULT;
 779:Middlewares/Third_Party/LwIP/src/api/api_msg.c ****   conn->recv_avail   = 0;
 780:Middlewares/Third_Party/LwIP/src/api/api_msg.c **** #endif /* LWIP_SO_RCVBUF */
 781:Middlewares/Third_Party/LwIP/src/api/api_msg.c **** #if LWIP_SO_LINGER
 782:Middlewares/Third_Party/LwIP/src/api/api_msg.c ****   conn->linger = -1;
 783:Middlewares/Third_Party/LwIP/src/api/api_msg.c **** #endif /* LWIP_SO_LINGER */
 784:Middlewares/Third_Party/LwIP/src/api/api_msg.c ****   conn->flags = init_flags;
 785:Middlewares/Third_Party/LwIP/src/api/api_msg.c ****   return conn;
 786:Middlewares/Third_Party/LwIP/src/api/api_msg.c **** free_and_return:
 787:Middlewares/Third_Party/LwIP/src/api/api_msg.c ****   memp_free(MEMP_NETCONN, conn);
 788:Middlewares/Third_Party/LwIP/src/api/api_msg.c ****   return NULL;
 789:Middlewares/Third_Party/LwIP/src/api/api_msg.c **** }
 790:Middlewares/Third_Party/LwIP/src/api/api_msg.c **** 
 791:Middlewares/Third_Party/LwIP/src/api/api_msg.c **** /**
 792:Middlewares/Third_Party/LwIP/src/api/api_msg.c ****  * Delete a netconn and all its resources.
 793:Middlewares/Third_Party/LwIP/src/api/api_msg.c ****  * The pcb is NOT freed (since we might not be in the right thread context do this).
 794:Middlewares/Third_Party/LwIP/src/api/api_msg.c ****  *
 795:Middlewares/Third_Party/LwIP/src/api/api_msg.c ****  * @param conn the netconn to free
 796:Middlewares/Third_Party/LwIP/src/api/api_msg.c ****  */
 797:Middlewares/Third_Party/LwIP/src/api/api_msg.c **** void
 798:Middlewares/Third_Party/LwIP/src/api/api_msg.c **** netconn_free(struct netconn *conn)
 799:Middlewares/Third_Party/LwIP/src/api/api_msg.c **** {
 800:Middlewares/Third_Party/LwIP/src/api/api_msg.c ****   LWIP_ASSERT("PCB must be deallocated outside this function", conn->pcb.tcp == NULL);
 801:Middlewares/Third_Party/LwIP/src/api/api_msg.c **** 
 802:Middlewares/Third_Party/LwIP/src/api/api_msg.c **** #if LWIP_NETCONN_FULLDUPLEX
 803:Middlewares/Third_Party/LwIP/src/api/api_msg.c ****   /* in fullduplex, netconn is drained here */
 804:Middlewares/Third_Party/LwIP/src/api/api_msg.c ****   netconn_drain(conn);
 805:Middlewares/Third_Party/LwIP/src/api/api_msg.c **** #endif /* LWIP_NETCONN_FULLDUPLEX */
 806:Middlewares/Third_Party/LwIP/src/api/api_msg.c **** 
 807:Middlewares/Third_Party/LwIP/src/api/api_msg.c ****   LWIP_ASSERT("recvmbox must be deallocated before calling this function",
 808:Middlewares/Third_Party/LwIP/src/api/api_msg.c ****               !sys_mbox_valid(&conn->recvmbox));
 809:Middlewares/Third_Party/LwIP/src/api/api_msg.c **** #if LWIP_TCP
 810:Middlewares/Third_Party/LwIP/src/api/api_msg.c ****   LWIP_ASSERT("acceptmbox must be deallocated before calling this function",
 811:Middlewares/Third_Party/LwIP/src/api/api_msg.c ****               !sys_mbox_valid(&conn->acceptmbox));
 812:Middlewares/Third_Party/LwIP/src/api/api_msg.c **** #endif /* LWIP_TCP */
 813:Middlewares/Third_Party/LwIP/src/api/api_msg.c **** 
 814:Middlewares/Third_Party/LwIP/src/api/api_msg.c **** #if !LWIP_NETCONN_SEM_PER_THREAD
 815:Middlewares/Third_Party/LwIP/src/api/api_msg.c ****   sys_sem_free(&conn->op_completed);
 816:Middlewares/Third_Party/LwIP/src/api/api_msg.c ****   sys_sem_set_invalid(&conn->op_completed);
 817:Middlewares/Third_Party/LwIP/src/api/api_msg.c **** #endif
 818:Middlewares/Third_Party/LwIP/src/api/api_msg.c **** 
 819:Middlewares/Third_Party/LwIP/src/api/api_msg.c ****   memp_free(MEMP_NETCONN, conn);
 820:Middlewares/Third_Party/LwIP/src/api/api_msg.c **** }
 821:Middlewares/Third_Party/LwIP/src/api/api_msg.c **** 
 822:Middlewares/Third_Party/LwIP/src/api/api_msg.c **** /**
 823:Middlewares/Third_Party/LwIP/src/api/api_msg.c ****  * Delete rcvmbox and acceptmbox of a netconn and free the left-over data in
 824:Middlewares/Third_Party/LwIP/src/api/api_msg.c ****  * these mboxes
ARM GAS  C:\Users\hh\AppData\Local\Temp\ccfq6ENc.s 			page 29


 825:Middlewares/Third_Party/LwIP/src/api/api_msg.c ****  *
 826:Middlewares/Third_Party/LwIP/src/api/api_msg.c ****  * @param conn the netconn to free
 827:Middlewares/Third_Party/LwIP/src/api/api_msg.c ****  * @bytes_drained bytes drained from recvmbox
 828:Middlewares/Third_Party/LwIP/src/api/api_msg.c ****  * @accepts_drained pending connections drained from acceptmbox
 829:Middlewares/Third_Party/LwIP/src/api/api_msg.c ****  */
 830:Middlewares/Third_Party/LwIP/src/api/api_msg.c **** static void
 831:Middlewares/Third_Party/LwIP/src/api/api_msg.c **** netconn_drain(struct netconn *conn)
 832:Middlewares/Third_Party/LwIP/src/api/api_msg.c **** {
 833:Middlewares/Third_Party/LwIP/src/api/api_msg.c ****   void *mem;
 834:Middlewares/Third_Party/LwIP/src/api/api_msg.c **** 
 835:Middlewares/Third_Party/LwIP/src/api/api_msg.c ****   /* This runs when mbox and netconn are marked as closed,
 836:Middlewares/Third_Party/LwIP/src/api/api_msg.c ****      so we don't need to lock against rx packets */
 837:Middlewares/Third_Party/LwIP/src/api/api_msg.c **** #if LWIP_NETCONN_FULLDUPLEX
 838:Middlewares/Third_Party/LwIP/src/api/api_msg.c ****   LWIP_ASSERT("netconn marked closed", conn->flags & NETCONN_FLAG_MBOXINVALID);
 839:Middlewares/Third_Party/LwIP/src/api/api_msg.c **** #endif /* LWIP_NETCONN_FULLDUPLEX */
 840:Middlewares/Third_Party/LwIP/src/api/api_msg.c **** 
 841:Middlewares/Third_Party/LwIP/src/api/api_msg.c ****   /* Delete and drain the recvmbox. */
 842:Middlewares/Third_Party/LwIP/src/api/api_msg.c ****   if (sys_mbox_valid(&conn->recvmbox)) {
 843:Middlewares/Third_Party/LwIP/src/api/api_msg.c ****     while (sys_mbox_tryfetch(&conn->recvmbox, &mem) != SYS_MBOX_EMPTY) {
 844:Middlewares/Third_Party/LwIP/src/api/api_msg.c **** #if LWIP_NETCONN_FULLDUPLEX
 845:Middlewares/Third_Party/LwIP/src/api/api_msg.c ****       if (!lwip_netconn_is_deallocated_msg(mem))
 846:Middlewares/Third_Party/LwIP/src/api/api_msg.c **** #endif /* LWIP_NETCONN_FULLDUPLEX */
 847:Middlewares/Third_Party/LwIP/src/api/api_msg.c ****       {
 848:Middlewares/Third_Party/LwIP/src/api/api_msg.c **** #if LWIP_TCP
 849:Middlewares/Third_Party/LwIP/src/api/api_msg.c ****         if (NETCONNTYPE_GROUP(conn->type) == NETCONN_TCP) {
 850:Middlewares/Third_Party/LwIP/src/api/api_msg.c ****           err_t err;
 851:Middlewares/Third_Party/LwIP/src/api/api_msg.c ****           if (!lwip_netconn_is_err_msg(mem, &err)) {
 852:Middlewares/Third_Party/LwIP/src/api/api_msg.c ****             pbuf_free((struct pbuf *)mem);
 853:Middlewares/Third_Party/LwIP/src/api/api_msg.c ****           }
 854:Middlewares/Third_Party/LwIP/src/api/api_msg.c ****         } else
 855:Middlewares/Third_Party/LwIP/src/api/api_msg.c **** #endif /* LWIP_TCP */
 856:Middlewares/Third_Party/LwIP/src/api/api_msg.c ****         {
 857:Middlewares/Third_Party/LwIP/src/api/api_msg.c ****           netbuf_delete((struct netbuf *)mem);
 858:Middlewares/Third_Party/LwIP/src/api/api_msg.c ****         }
 859:Middlewares/Third_Party/LwIP/src/api/api_msg.c ****       }
 860:Middlewares/Third_Party/LwIP/src/api/api_msg.c ****     }
 861:Middlewares/Third_Party/LwIP/src/api/api_msg.c ****     sys_mbox_free(&conn->recvmbox);
 862:Middlewares/Third_Party/LwIP/src/api/api_msg.c ****     sys_mbox_set_invalid(&conn->recvmbox);
 863:Middlewares/Third_Party/LwIP/src/api/api_msg.c ****   }
 864:Middlewares/Third_Party/LwIP/src/api/api_msg.c **** 
 865:Middlewares/Third_Party/LwIP/src/api/api_msg.c ****   /* Delete and drain the acceptmbox. */
 866:Middlewares/Third_Party/LwIP/src/api/api_msg.c **** #if LWIP_TCP
 867:Middlewares/Third_Party/LwIP/src/api/api_msg.c ****   if (sys_mbox_valid(&conn->acceptmbox)) {
 868:Middlewares/Third_Party/LwIP/src/api/api_msg.c ****     while (sys_mbox_tryfetch(&conn->acceptmbox, &mem) != SYS_MBOX_EMPTY) {
 869:Middlewares/Third_Party/LwIP/src/api/api_msg.c **** #if LWIP_NETCONN_FULLDUPLEX
 870:Middlewares/Third_Party/LwIP/src/api/api_msg.c ****       if (!lwip_netconn_is_deallocated_msg(mem))
 871:Middlewares/Third_Party/LwIP/src/api/api_msg.c **** #endif /* LWIP_NETCONN_FULLDUPLEX */
 872:Middlewares/Third_Party/LwIP/src/api/api_msg.c ****       {
 873:Middlewares/Third_Party/LwIP/src/api/api_msg.c ****         err_t err;
 874:Middlewares/Third_Party/LwIP/src/api/api_msg.c ****         if (!lwip_netconn_is_err_msg(mem, &err)) {
 875:Middlewares/Third_Party/LwIP/src/api/api_msg.c ****           struct netconn *newconn = (struct netconn *)mem;
 876:Middlewares/Third_Party/LwIP/src/api/api_msg.c ****           /* Only tcp pcbs have an acceptmbox, so no need to check conn->type */
 877:Middlewares/Third_Party/LwIP/src/api/api_msg.c ****           /* pcb might be set to NULL already by err_tcp() */
 878:Middlewares/Third_Party/LwIP/src/api/api_msg.c ****           /* drain recvmbox */
 879:Middlewares/Third_Party/LwIP/src/api/api_msg.c ****           netconn_drain(newconn);
 880:Middlewares/Third_Party/LwIP/src/api/api_msg.c ****           if (newconn->pcb.tcp != NULL) {
 881:Middlewares/Third_Party/LwIP/src/api/api_msg.c ****             tcp_abort(newconn->pcb.tcp);
ARM GAS  C:\Users\hh\AppData\Local\Temp\ccfq6ENc.s 			page 30


 882:Middlewares/Third_Party/LwIP/src/api/api_msg.c ****             newconn->pcb.tcp = NULL;
 883:Middlewares/Third_Party/LwIP/src/api/api_msg.c ****           }
 884:Middlewares/Third_Party/LwIP/src/api/api_msg.c ****           netconn_free(newconn);
 885:Middlewares/Third_Party/LwIP/src/api/api_msg.c ****         }
 886:Middlewares/Third_Party/LwIP/src/api/api_msg.c ****       }
 887:Middlewares/Third_Party/LwIP/src/api/api_msg.c ****     }
 888:Middlewares/Third_Party/LwIP/src/api/api_msg.c ****     sys_mbox_free(&conn->acceptmbox);
 889:Middlewares/Third_Party/LwIP/src/api/api_msg.c ****     sys_mbox_set_invalid(&conn->acceptmbox);
 890:Middlewares/Third_Party/LwIP/src/api/api_msg.c ****   }
 891:Middlewares/Third_Party/LwIP/src/api/api_msg.c **** #endif /* LWIP_TCP */
 892:Middlewares/Third_Party/LwIP/src/api/api_msg.c **** }
 893:Middlewares/Third_Party/LwIP/src/api/api_msg.c **** 
 894:Middlewares/Third_Party/LwIP/src/api/api_msg.c **** #if LWIP_NETCONN_FULLDUPLEX
 895:Middlewares/Third_Party/LwIP/src/api/api_msg.c **** static void
 896:Middlewares/Third_Party/LwIP/src/api/api_msg.c **** netconn_mark_mbox_invalid(struct netconn *conn)
 897:Middlewares/Third_Party/LwIP/src/api/api_msg.c **** {
 898:Middlewares/Third_Party/LwIP/src/api/api_msg.c ****   int i, num_waiting;
 899:Middlewares/Third_Party/LwIP/src/api/api_msg.c ****   void *msg = LWIP_CONST_CAST(void *, &netconn_deleted);
 900:Middlewares/Third_Party/LwIP/src/api/api_msg.c **** 
 901:Middlewares/Third_Party/LwIP/src/api/api_msg.c ****   /* Prevent new calls/threads from reading from the mbox */
 902:Middlewares/Third_Party/LwIP/src/api/api_msg.c ****   conn->flags |= NETCONN_FLAG_MBOXINVALID;
 903:Middlewares/Third_Party/LwIP/src/api/api_msg.c **** 
 904:Middlewares/Third_Party/LwIP/src/api/api_msg.c ****   SYS_ARCH_LOCKED(num_waiting = conn->mbox_threads_waiting);
 905:Middlewares/Third_Party/LwIP/src/api/api_msg.c ****   for (i = 0; i < num_waiting; i++) {
 906:Middlewares/Third_Party/LwIP/src/api/api_msg.c ****     if (sys_mbox_valid_val(conn->recvmbox)) {
 907:Middlewares/Third_Party/LwIP/src/api/api_msg.c ****       sys_mbox_trypost(&conn->recvmbox, msg);
 908:Middlewares/Third_Party/LwIP/src/api/api_msg.c ****     } else {
 909:Middlewares/Third_Party/LwIP/src/api/api_msg.c ****       sys_mbox_trypost(&conn->acceptmbox, msg);
 910:Middlewares/Third_Party/LwIP/src/api/api_msg.c ****     }
 911:Middlewares/Third_Party/LwIP/src/api/api_msg.c ****   }
 912:Middlewares/Third_Party/LwIP/src/api/api_msg.c **** }
 913:Middlewares/Third_Party/LwIP/src/api/api_msg.c **** #endif /* LWIP_NETCONN_FULLDUPLEX */
 914:Middlewares/Third_Party/LwIP/src/api/api_msg.c **** 
 915:Middlewares/Third_Party/LwIP/src/api/api_msg.c **** #if LWIP_TCP
 916:Middlewares/Third_Party/LwIP/src/api/api_msg.c **** /**
 917:Middlewares/Third_Party/LwIP/src/api/api_msg.c ****  * Internal helper function to close a TCP netconn: since this sometimes
 918:Middlewares/Third_Party/LwIP/src/api/api_msg.c ****  * doesn't work at the first attempt, this function is called from multiple
 919:Middlewares/Third_Party/LwIP/src/api/api_msg.c ****  * places.
 920:Middlewares/Third_Party/LwIP/src/api/api_msg.c ****  *
 921:Middlewares/Third_Party/LwIP/src/api/api_msg.c ****  * @param conn the TCP netconn to close
 922:Middlewares/Third_Party/LwIP/src/api/api_msg.c ****  */
 923:Middlewares/Third_Party/LwIP/src/api/api_msg.c **** static err_t
 924:Middlewares/Third_Party/LwIP/src/api/api_msg.c **** lwip_netconn_do_close_internal(struct netconn *conn  WRITE_DELAYED_PARAM)
 925:Middlewares/Third_Party/LwIP/src/api/api_msg.c **** {
 926:Middlewares/Third_Party/LwIP/src/api/api_msg.c ****   err_t err;
 927:Middlewares/Third_Party/LwIP/src/api/api_msg.c ****   u8_t shut, shut_rx, shut_tx, shut_close;
 928:Middlewares/Third_Party/LwIP/src/api/api_msg.c ****   u8_t close_finished = 0;
 929:Middlewares/Third_Party/LwIP/src/api/api_msg.c ****   struct tcp_pcb *tpcb;
 930:Middlewares/Third_Party/LwIP/src/api/api_msg.c **** #if LWIP_SO_LINGER
 931:Middlewares/Third_Party/LwIP/src/api/api_msg.c ****   u8_t linger_wait_required = 0;
 932:Middlewares/Third_Party/LwIP/src/api/api_msg.c **** #endif /* LWIP_SO_LINGER */
 933:Middlewares/Third_Party/LwIP/src/api/api_msg.c **** 
 934:Middlewares/Third_Party/LwIP/src/api/api_msg.c ****   LWIP_ASSERT("invalid conn", (conn != NULL));
 935:Middlewares/Third_Party/LwIP/src/api/api_msg.c ****   LWIP_ASSERT("this is for tcp netconns only", (NETCONNTYPE_GROUP(conn->type) == NETCONN_TCP));
 936:Middlewares/Third_Party/LwIP/src/api/api_msg.c ****   LWIP_ASSERT("conn must be in state NETCONN_CLOSE", (conn->state == NETCONN_CLOSE));
 937:Middlewares/Third_Party/LwIP/src/api/api_msg.c ****   LWIP_ASSERT("pcb already closed", (conn->pcb.tcp != NULL));
 938:Middlewares/Third_Party/LwIP/src/api/api_msg.c ****   LWIP_ASSERT("conn->current_msg != NULL", conn->current_msg != NULL);
ARM GAS  C:\Users\hh\AppData\Local\Temp\ccfq6ENc.s 			page 31


 939:Middlewares/Third_Party/LwIP/src/api/api_msg.c **** 
 940:Middlewares/Third_Party/LwIP/src/api/api_msg.c ****   tpcb = conn->pcb.tcp;
 941:Middlewares/Third_Party/LwIP/src/api/api_msg.c ****   shut = conn->current_msg->msg.sd.shut;
 942:Middlewares/Third_Party/LwIP/src/api/api_msg.c ****   shut_rx = shut & NETCONN_SHUT_RD;
 943:Middlewares/Third_Party/LwIP/src/api/api_msg.c ****   shut_tx = shut & NETCONN_SHUT_WR;
 944:Middlewares/Third_Party/LwIP/src/api/api_msg.c ****   /* shutting down both ends is the same as closing
 945:Middlewares/Third_Party/LwIP/src/api/api_msg.c ****      (also if RD or WR side was shut down before already) */
 946:Middlewares/Third_Party/LwIP/src/api/api_msg.c ****   if (shut == NETCONN_SHUT_RDWR) {
 947:Middlewares/Third_Party/LwIP/src/api/api_msg.c ****     shut_close = 1;
 948:Middlewares/Third_Party/LwIP/src/api/api_msg.c ****   } else if (shut_rx &&
 949:Middlewares/Third_Party/LwIP/src/api/api_msg.c ****              ((tpcb->state == FIN_WAIT_1) ||
 950:Middlewares/Third_Party/LwIP/src/api/api_msg.c ****               (tpcb->state == FIN_WAIT_2) ||
 951:Middlewares/Third_Party/LwIP/src/api/api_msg.c ****               (tpcb->state == CLOSING))) {
 952:Middlewares/Third_Party/LwIP/src/api/api_msg.c ****     shut_close = 1;
 953:Middlewares/Third_Party/LwIP/src/api/api_msg.c ****   } else if (shut_tx && ((tpcb->flags & TF_RXCLOSED) != 0)) {
 954:Middlewares/Third_Party/LwIP/src/api/api_msg.c ****     shut_close = 1;
 955:Middlewares/Third_Party/LwIP/src/api/api_msg.c ****   } else {
 956:Middlewares/Third_Party/LwIP/src/api/api_msg.c ****     shut_close = 0;
 957:Middlewares/Third_Party/LwIP/src/api/api_msg.c ****   }
 958:Middlewares/Third_Party/LwIP/src/api/api_msg.c **** 
 959:Middlewares/Third_Party/LwIP/src/api/api_msg.c ****   /* Set back some callback pointers */
 960:Middlewares/Third_Party/LwIP/src/api/api_msg.c ****   if (shut_close) {
 961:Middlewares/Third_Party/LwIP/src/api/api_msg.c ****     tcp_arg(tpcb, NULL);
 962:Middlewares/Third_Party/LwIP/src/api/api_msg.c ****   }
 963:Middlewares/Third_Party/LwIP/src/api/api_msg.c ****   if (tpcb->state == LISTEN) {
 964:Middlewares/Third_Party/LwIP/src/api/api_msg.c ****     tcp_accept(tpcb, NULL);
 965:Middlewares/Third_Party/LwIP/src/api/api_msg.c ****   } else {
 966:Middlewares/Third_Party/LwIP/src/api/api_msg.c ****     /* some callbacks have to be reset if tcp_close is not successful */
 967:Middlewares/Third_Party/LwIP/src/api/api_msg.c ****     if (shut_rx) {
 968:Middlewares/Third_Party/LwIP/src/api/api_msg.c ****       tcp_recv(tpcb, NULL);
 969:Middlewares/Third_Party/LwIP/src/api/api_msg.c ****       tcp_accept(tpcb, NULL);
 970:Middlewares/Third_Party/LwIP/src/api/api_msg.c ****     }
 971:Middlewares/Third_Party/LwIP/src/api/api_msg.c ****     if (shut_tx) {
 972:Middlewares/Third_Party/LwIP/src/api/api_msg.c ****       tcp_sent(tpcb, NULL);
 973:Middlewares/Third_Party/LwIP/src/api/api_msg.c ****     }
 974:Middlewares/Third_Party/LwIP/src/api/api_msg.c ****     if (shut_close) {
 975:Middlewares/Third_Party/LwIP/src/api/api_msg.c ****       tcp_poll(tpcb, NULL, 0);
 976:Middlewares/Third_Party/LwIP/src/api/api_msg.c ****       tcp_err(tpcb, NULL);
 977:Middlewares/Third_Party/LwIP/src/api/api_msg.c ****     }
 978:Middlewares/Third_Party/LwIP/src/api/api_msg.c ****   }
 979:Middlewares/Third_Party/LwIP/src/api/api_msg.c ****   /* Try to close the connection */
 980:Middlewares/Third_Party/LwIP/src/api/api_msg.c ****   if (shut_close) {
 981:Middlewares/Third_Party/LwIP/src/api/api_msg.c **** #if LWIP_SO_LINGER
 982:Middlewares/Third_Party/LwIP/src/api/api_msg.c ****     /* check linger possibilities before calling tcp_close */
 983:Middlewares/Third_Party/LwIP/src/api/api_msg.c ****     err = ERR_OK;
 984:Middlewares/Third_Party/LwIP/src/api/api_msg.c ****     /* linger enabled/required at all? (i.e. is there untransmitted data left?) */
 985:Middlewares/Third_Party/LwIP/src/api/api_msg.c ****     if ((conn->linger >= 0) && (conn->pcb.tcp->unsent || conn->pcb.tcp->unacked)) {
 986:Middlewares/Third_Party/LwIP/src/api/api_msg.c ****       if ((conn->linger == 0)) {
 987:Middlewares/Third_Party/LwIP/src/api/api_msg.c ****         /* data left but linger prevents waiting */
 988:Middlewares/Third_Party/LwIP/src/api/api_msg.c ****         tcp_abort(tpcb);
 989:Middlewares/Third_Party/LwIP/src/api/api_msg.c ****         tpcb = NULL;
 990:Middlewares/Third_Party/LwIP/src/api/api_msg.c ****       } else if (conn->linger > 0) {
 991:Middlewares/Third_Party/LwIP/src/api/api_msg.c ****         /* data left and linger says we should wait */
 992:Middlewares/Third_Party/LwIP/src/api/api_msg.c ****         if (netconn_is_nonblocking(conn)) {
 993:Middlewares/Third_Party/LwIP/src/api/api_msg.c ****           /* data left on a nonblocking netconn -> cannot linger */
 994:Middlewares/Third_Party/LwIP/src/api/api_msg.c ****           err = ERR_WOULDBLOCK;
 995:Middlewares/Third_Party/LwIP/src/api/api_msg.c ****         } else if ((s32_t)(sys_now() - conn->current_msg->msg.sd.time_started) >=
ARM GAS  C:\Users\hh\AppData\Local\Temp\ccfq6ENc.s 			page 32


 996:Middlewares/Third_Party/LwIP/src/api/api_msg.c ****                    (conn->linger * 1000)) {
 997:Middlewares/Third_Party/LwIP/src/api/api_msg.c ****           /* data left but linger timeout has expired (this happens on further
 998:Middlewares/Third_Party/LwIP/src/api/api_msg.c ****              calls to this function through poll_tcp */
 999:Middlewares/Third_Party/LwIP/src/api/api_msg.c ****           tcp_abort(tpcb);
1000:Middlewares/Third_Party/LwIP/src/api/api_msg.c ****           tpcb = NULL;
1001:Middlewares/Third_Party/LwIP/src/api/api_msg.c ****         } else {
1002:Middlewares/Third_Party/LwIP/src/api/api_msg.c ****           /* data left -> need to wait for ACK after successful close */
1003:Middlewares/Third_Party/LwIP/src/api/api_msg.c ****           linger_wait_required = 1;
1004:Middlewares/Third_Party/LwIP/src/api/api_msg.c ****         }
1005:Middlewares/Third_Party/LwIP/src/api/api_msg.c ****       }
1006:Middlewares/Third_Party/LwIP/src/api/api_msg.c ****     }
1007:Middlewares/Third_Party/LwIP/src/api/api_msg.c ****     if ((err == ERR_OK) && (tpcb != NULL))
1008:Middlewares/Third_Party/LwIP/src/api/api_msg.c **** #endif /* LWIP_SO_LINGER */
1009:Middlewares/Third_Party/LwIP/src/api/api_msg.c ****     {
1010:Middlewares/Third_Party/LwIP/src/api/api_msg.c ****       err = tcp_close(tpcb);
1011:Middlewares/Third_Party/LwIP/src/api/api_msg.c ****     }
1012:Middlewares/Third_Party/LwIP/src/api/api_msg.c ****   } else {
1013:Middlewares/Third_Party/LwIP/src/api/api_msg.c ****     err = tcp_shutdown(tpcb, shut_rx, shut_tx);
1014:Middlewares/Third_Party/LwIP/src/api/api_msg.c ****   }
1015:Middlewares/Third_Party/LwIP/src/api/api_msg.c ****   if (err == ERR_OK) {
1016:Middlewares/Third_Party/LwIP/src/api/api_msg.c ****     close_finished = 1;
1017:Middlewares/Third_Party/LwIP/src/api/api_msg.c **** #if LWIP_SO_LINGER
1018:Middlewares/Third_Party/LwIP/src/api/api_msg.c ****     if (linger_wait_required) {
1019:Middlewares/Third_Party/LwIP/src/api/api_msg.c ****       /* wait for ACK of all unsent/unacked data by just getting called again */
1020:Middlewares/Third_Party/LwIP/src/api/api_msg.c ****       close_finished = 0;
1021:Middlewares/Third_Party/LwIP/src/api/api_msg.c ****       err = ERR_INPROGRESS;
1022:Middlewares/Third_Party/LwIP/src/api/api_msg.c ****     }
1023:Middlewares/Third_Party/LwIP/src/api/api_msg.c **** #endif /* LWIP_SO_LINGER */
1024:Middlewares/Third_Party/LwIP/src/api/api_msg.c ****   } else {
1025:Middlewares/Third_Party/LwIP/src/api/api_msg.c ****     if (err == ERR_MEM) {
1026:Middlewares/Third_Party/LwIP/src/api/api_msg.c ****       /* Closing failed because of memory shortage, try again later. Even for
1027:Middlewares/Third_Party/LwIP/src/api/api_msg.c ****          nonblocking netconns, we have to wait since no standard socket application
1028:Middlewares/Third_Party/LwIP/src/api/api_msg.c ****          is prepared for close failing because of resource shortage.
1029:Middlewares/Third_Party/LwIP/src/api/api_msg.c ****          Check the timeout: this is kind of an lwip addition to the standard sockets:
1030:Middlewares/Third_Party/LwIP/src/api/api_msg.c ****          we wait for some time when failing to allocate a segment for the FIN */
1031:Middlewares/Third_Party/LwIP/src/api/api_msg.c **** #if LWIP_SO_SNDTIMEO || LWIP_SO_LINGER
1032:Middlewares/Third_Party/LwIP/src/api/api_msg.c ****       s32_t close_timeout = LWIP_TCP_CLOSE_TIMEOUT_MS_DEFAULT;
1033:Middlewares/Third_Party/LwIP/src/api/api_msg.c **** #if LWIP_SO_SNDTIMEO
1034:Middlewares/Third_Party/LwIP/src/api/api_msg.c ****       if (conn->send_timeout > 0) {
1035:Middlewares/Third_Party/LwIP/src/api/api_msg.c ****         close_timeout = conn->send_timeout;
1036:Middlewares/Third_Party/LwIP/src/api/api_msg.c ****       }
1037:Middlewares/Third_Party/LwIP/src/api/api_msg.c **** #endif /* LWIP_SO_SNDTIMEO */
1038:Middlewares/Third_Party/LwIP/src/api/api_msg.c **** #if LWIP_SO_LINGER
1039:Middlewares/Third_Party/LwIP/src/api/api_msg.c ****       if (conn->linger >= 0) {
1040:Middlewares/Third_Party/LwIP/src/api/api_msg.c ****         /* use linger timeout (seconds) */
1041:Middlewares/Third_Party/LwIP/src/api/api_msg.c ****         close_timeout = conn->linger * 1000U;
1042:Middlewares/Third_Party/LwIP/src/api/api_msg.c ****       }
1043:Middlewares/Third_Party/LwIP/src/api/api_msg.c **** #endif
1044:Middlewares/Third_Party/LwIP/src/api/api_msg.c ****       if ((s32_t)(sys_now() - conn->current_msg->msg.sd.time_started) >= close_timeout) {
1045:Middlewares/Third_Party/LwIP/src/api/api_msg.c **** #else /* LWIP_SO_SNDTIMEO || LWIP_SO_LINGER */
1046:Middlewares/Third_Party/LwIP/src/api/api_msg.c ****       if (conn->current_msg->msg.sd.polls_left == 0) {
1047:Middlewares/Third_Party/LwIP/src/api/api_msg.c **** #endif /* LWIP_SO_SNDTIMEO || LWIP_SO_LINGER */
1048:Middlewares/Third_Party/LwIP/src/api/api_msg.c ****         close_finished = 1;
1049:Middlewares/Third_Party/LwIP/src/api/api_msg.c ****         if (shut_close) {
1050:Middlewares/Third_Party/LwIP/src/api/api_msg.c ****           /* in this case, we want to RST the connection */
1051:Middlewares/Third_Party/LwIP/src/api/api_msg.c ****           tcp_abort(tpcb);
1052:Middlewares/Third_Party/LwIP/src/api/api_msg.c ****           err = ERR_OK;
ARM GAS  C:\Users\hh\AppData\Local\Temp\ccfq6ENc.s 			page 33


1053:Middlewares/Third_Party/LwIP/src/api/api_msg.c ****         }
1054:Middlewares/Third_Party/LwIP/src/api/api_msg.c ****       }
1055:Middlewares/Third_Party/LwIP/src/api/api_msg.c ****     } else {
1056:Middlewares/Third_Party/LwIP/src/api/api_msg.c ****       /* Closing failed for a non-memory error: give up */
1057:Middlewares/Third_Party/LwIP/src/api/api_msg.c ****       close_finished = 1;
1058:Middlewares/Third_Party/LwIP/src/api/api_msg.c ****     }
1059:Middlewares/Third_Party/LwIP/src/api/api_msg.c ****   }
1060:Middlewares/Third_Party/LwIP/src/api/api_msg.c ****   if (close_finished) {
1061:Middlewares/Third_Party/LwIP/src/api/api_msg.c ****     /* Closing done (succeeded, non-memory error, nonblocking error or timeout) */
1062:Middlewares/Third_Party/LwIP/src/api/api_msg.c ****     sys_sem_t *op_completed_sem = LWIP_API_MSG_SEM(conn->current_msg);
1063:Middlewares/Third_Party/LwIP/src/api/api_msg.c ****     conn->current_msg->err = err;
1064:Middlewares/Third_Party/LwIP/src/api/api_msg.c ****     conn->current_msg = NULL;
1065:Middlewares/Third_Party/LwIP/src/api/api_msg.c ****     conn->state = NETCONN_NONE;
1066:Middlewares/Third_Party/LwIP/src/api/api_msg.c ****     if (err == ERR_OK) {
1067:Middlewares/Third_Party/LwIP/src/api/api_msg.c ****       if (shut_close) {
1068:Middlewares/Third_Party/LwIP/src/api/api_msg.c ****         /* Set back some callback pointers as conn is going away */
1069:Middlewares/Third_Party/LwIP/src/api/api_msg.c ****         conn->pcb.tcp = NULL;
1070:Middlewares/Third_Party/LwIP/src/api/api_msg.c ****         /* Trigger select() in socket layer. Make sure everybody notices activity
1071:Middlewares/Third_Party/LwIP/src/api/api_msg.c ****          on the connection, error first! */
1072:Middlewares/Third_Party/LwIP/src/api/api_msg.c ****         API_EVENT(conn, NETCONN_EVT_ERROR, 0);
1073:Middlewares/Third_Party/LwIP/src/api/api_msg.c ****       }
1074:Middlewares/Third_Party/LwIP/src/api/api_msg.c ****       if (shut_rx) {
1075:Middlewares/Third_Party/LwIP/src/api/api_msg.c ****         API_EVENT(conn, NETCONN_EVT_RCVPLUS, 0);
1076:Middlewares/Third_Party/LwIP/src/api/api_msg.c ****       }
1077:Middlewares/Third_Party/LwIP/src/api/api_msg.c ****       if (shut_tx) {
1078:Middlewares/Third_Party/LwIP/src/api/api_msg.c ****         API_EVENT(conn, NETCONN_EVT_SENDPLUS, 0);
1079:Middlewares/Third_Party/LwIP/src/api/api_msg.c ****       }
1080:Middlewares/Third_Party/LwIP/src/api/api_msg.c ****     }
1081:Middlewares/Third_Party/LwIP/src/api/api_msg.c **** #if LWIP_TCPIP_CORE_LOCKING
1082:Middlewares/Third_Party/LwIP/src/api/api_msg.c ****     if (delayed)
1083:Middlewares/Third_Party/LwIP/src/api/api_msg.c **** #endif
1084:Middlewares/Third_Party/LwIP/src/api/api_msg.c ****     {
1085:Middlewares/Third_Party/LwIP/src/api/api_msg.c ****       /* wake up the application task */
1086:Middlewares/Third_Party/LwIP/src/api/api_msg.c ****       sys_sem_signal(op_completed_sem);
1087:Middlewares/Third_Party/LwIP/src/api/api_msg.c ****     }
1088:Middlewares/Third_Party/LwIP/src/api/api_msg.c ****     return ERR_OK;
1089:Middlewares/Third_Party/LwIP/src/api/api_msg.c ****   }
1090:Middlewares/Third_Party/LwIP/src/api/api_msg.c ****   if (!close_finished) {
1091:Middlewares/Third_Party/LwIP/src/api/api_msg.c ****     /* Closing failed and we want to wait: restore some of the callbacks */
1092:Middlewares/Third_Party/LwIP/src/api/api_msg.c ****     /* Closing of listen pcb will never fail! */
1093:Middlewares/Third_Party/LwIP/src/api/api_msg.c ****     LWIP_ASSERT("Closing a listen pcb may not fail!", (tpcb->state != LISTEN));
1094:Middlewares/Third_Party/LwIP/src/api/api_msg.c ****     if (shut_tx) {
1095:Middlewares/Third_Party/LwIP/src/api/api_msg.c ****       tcp_sent(tpcb, sent_tcp);
1096:Middlewares/Third_Party/LwIP/src/api/api_msg.c ****     }
1097:Middlewares/Third_Party/LwIP/src/api/api_msg.c ****     /* when waiting for close, set up poll interval to 500ms */
1098:Middlewares/Third_Party/LwIP/src/api/api_msg.c ****     tcp_poll(tpcb, poll_tcp, 1);
1099:Middlewares/Third_Party/LwIP/src/api/api_msg.c ****     tcp_err(tpcb, err_tcp);
1100:Middlewares/Third_Party/LwIP/src/api/api_msg.c ****     tcp_arg(tpcb, conn);
1101:Middlewares/Third_Party/LwIP/src/api/api_msg.c ****     /* don't restore recv callback: we don't want to receive any more data */
1102:Middlewares/Third_Party/LwIP/src/api/api_msg.c ****   }
1103:Middlewares/Third_Party/LwIP/src/api/api_msg.c ****   /* If closing didn't succeed, we get called again either
1104:Middlewares/Third_Party/LwIP/src/api/api_msg.c ****      from poll_tcp or from sent_tcp */
1105:Middlewares/Third_Party/LwIP/src/api/api_msg.c ****   LWIP_ASSERT("err != ERR_OK", err != ERR_OK);
1106:Middlewares/Third_Party/LwIP/src/api/api_msg.c ****   return err;
1107:Middlewares/Third_Party/LwIP/src/api/api_msg.c **** }
1108:Middlewares/Third_Party/LwIP/src/api/api_msg.c **** #endif /* LWIP_TCP */
1109:Middlewares/Third_Party/LwIP/src/api/api_msg.c **** 
ARM GAS  C:\Users\hh\AppData\Local\Temp\ccfq6ENc.s 			page 34


1110:Middlewares/Third_Party/LwIP/src/api/api_msg.c **** /**
1111:Middlewares/Third_Party/LwIP/src/api/api_msg.c ****  * Delete the pcb inside a netconn.
1112:Middlewares/Third_Party/LwIP/src/api/api_msg.c ****  * Called from netconn_delete.
1113:Middlewares/Third_Party/LwIP/src/api/api_msg.c ****  *
1114:Middlewares/Third_Party/LwIP/src/api/api_msg.c ****  * @param m the api_msg pointing to the connection
1115:Middlewares/Third_Party/LwIP/src/api/api_msg.c ****  */
1116:Middlewares/Third_Party/LwIP/src/api/api_msg.c **** void
1117:Middlewares/Third_Party/LwIP/src/api/api_msg.c **** lwip_netconn_do_delconn(void *m)
1118:Middlewares/Third_Party/LwIP/src/api/api_msg.c **** {
1119:Middlewares/Third_Party/LwIP/src/api/api_msg.c ****   struct api_msg *msg = (struct api_msg *)m;
1120:Middlewares/Third_Party/LwIP/src/api/api_msg.c **** 
1121:Middlewares/Third_Party/LwIP/src/api/api_msg.c ****   enum netconn_state state = msg->conn->state;
1122:Middlewares/Third_Party/LwIP/src/api/api_msg.c ****   LWIP_ASSERT("netconn state error", /* this only happens for TCP netconns */
1123:Middlewares/Third_Party/LwIP/src/api/api_msg.c ****               (state == NETCONN_NONE) || (NETCONNTYPE_GROUP(msg->conn->type) == NETCONN_TCP));
1124:Middlewares/Third_Party/LwIP/src/api/api_msg.c **** #if LWIP_NETCONN_FULLDUPLEX
1125:Middlewares/Third_Party/LwIP/src/api/api_msg.c ****   /* In full duplex mode, blocking write/connect is aborted with ERR_CLSD */
1126:Middlewares/Third_Party/LwIP/src/api/api_msg.c ****   if (state != NETCONN_NONE) {
1127:Middlewares/Third_Party/LwIP/src/api/api_msg.c ****     if ((state == NETCONN_WRITE) ||
1128:Middlewares/Third_Party/LwIP/src/api/api_msg.c ****         ((state == NETCONN_CONNECT) && !IN_NONBLOCKING_CONNECT(msg->conn))) {
1129:Middlewares/Third_Party/LwIP/src/api/api_msg.c ****       /* close requested, abort running write/connect */
1130:Middlewares/Third_Party/LwIP/src/api/api_msg.c ****       sys_sem_t *op_completed_sem;
1131:Middlewares/Third_Party/LwIP/src/api/api_msg.c ****       LWIP_ASSERT("msg->conn->current_msg != NULL", msg->conn->current_msg != NULL);
1132:Middlewares/Third_Party/LwIP/src/api/api_msg.c ****       op_completed_sem = LWIP_API_MSG_SEM(msg->conn->current_msg);
1133:Middlewares/Third_Party/LwIP/src/api/api_msg.c ****       msg->conn->current_msg->err = ERR_CLSD;
1134:Middlewares/Third_Party/LwIP/src/api/api_msg.c ****       msg->conn->current_msg = NULL;
1135:Middlewares/Third_Party/LwIP/src/api/api_msg.c ****       msg->conn->state = NETCONN_NONE;
1136:Middlewares/Third_Party/LwIP/src/api/api_msg.c ****       sys_sem_signal(op_completed_sem);
1137:Middlewares/Third_Party/LwIP/src/api/api_msg.c ****     }
1138:Middlewares/Third_Party/LwIP/src/api/api_msg.c ****   }
1139:Middlewares/Third_Party/LwIP/src/api/api_msg.c **** #else /* LWIP_NETCONN_FULLDUPLEX */
1140:Middlewares/Third_Party/LwIP/src/api/api_msg.c ****   if (((state != NETCONN_NONE) &&
1141:Middlewares/Third_Party/LwIP/src/api/api_msg.c ****        (state != NETCONN_LISTEN) &&
1142:Middlewares/Third_Party/LwIP/src/api/api_msg.c ****        (state != NETCONN_CONNECT)) ||
1143:Middlewares/Third_Party/LwIP/src/api/api_msg.c ****       ((state == NETCONN_CONNECT) && !IN_NONBLOCKING_CONNECT(msg->conn))) {
1144:Middlewares/Third_Party/LwIP/src/api/api_msg.c ****     /* This means either a blocking write or blocking connect is running
1145:Middlewares/Third_Party/LwIP/src/api/api_msg.c ****        (nonblocking write returns and sets state to NONE) */
1146:Middlewares/Third_Party/LwIP/src/api/api_msg.c ****     msg->err = ERR_INPROGRESS;
1147:Middlewares/Third_Party/LwIP/src/api/api_msg.c ****   } else
1148:Middlewares/Third_Party/LwIP/src/api/api_msg.c **** #endif /* LWIP_NETCONN_FULLDUPLEX */
1149:Middlewares/Third_Party/LwIP/src/api/api_msg.c ****   {
1150:Middlewares/Third_Party/LwIP/src/api/api_msg.c ****     LWIP_ASSERT("blocking connect in progress",
1151:Middlewares/Third_Party/LwIP/src/api/api_msg.c ****                 (state != NETCONN_CONNECT) || IN_NONBLOCKING_CONNECT(msg->conn));
1152:Middlewares/Third_Party/LwIP/src/api/api_msg.c ****     msg->err = ERR_OK;
1153:Middlewares/Third_Party/LwIP/src/api/api_msg.c **** #if LWIP_NETCONN_FULLDUPLEX
1154:Middlewares/Third_Party/LwIP/src/api/api_msg.c ****     /* Mark mboxes invalid */
1155:Middlewares/Third_Party/LwIP/src/api/api_msg.c ****     netconn_mark_mbox_invalid(msg->conn);
1156:Middlewares/Third_Party/LwIP/src/api/api_msg.c **** #else /* LWIP_NETCONN_FULLDUPLEX */
1157:Middlewares/Third_Party/LwIP/src/api/api_msg.c ****     netconn_drain(msg->conn);
1158:Middlewares/Third_Party/LwIP/src/api/api_msg.c **** #endif /* LWIP_NETCONN_FULLDUPLEX */
1159:Middlewares/Third_Party/LwIP/src/api/api_msg.c **** 
1160:Middlewares/Third_Party/LwIP/src/api/api_msg.c ****     if (msg->conn->pcb.tcp != NULL) {
1161:Middlewares/Third_Party/LwIP/src/api/api_msg.c **** 
1162:Middlewares/Third_Party/LwIP/src/api/api_msg.c ****       switch (NETCONNTYPE_GROUP(msg->conn->type)) {
1163:Middlewares/Third_Party/LwIP/src/api/api_msg.c **** #if LWIP_RAW
1164:Middlewares/Third_Party/LwIP/src/api/api_msg.c ****         case NETCONN_RAW:
1165:Middlewares/Third_Party/LwIP/src/api/api_msg.c ****           raw_remove(msg->conn->pcb.raw);
1166:Middlewares/Third_Party/LwIP/src/api/api_msg.c ****           break;
ARM GAS  C:\Users\hh\AppData\Local\Temp\ccfq6ENc.s 			page 35


1167:Middlewares/Third_Party/LwIP/src/api/api_msg.c **** #endif /* LWIP_RAW */
1168:Middlewares/Third_Party/LwIP/src/api/api_msg.c **** #if LWIP_UDP
1169:Middlewares/Third_Party/LwIP/src/api/api_msg.c ****         case NETCONN_UDP:
1170:Middlewares/Third_Party/LwIP/src/api/api_msg.c ****           msg->conn->pcb.udp->recv_arg = NULL;
1171:Middlewares/Third_Party/LwIP/src/api/api_msg.c ****           udp_remove(msg->conn->pcb.udp);
1172:Middlewares/Third_Party/LwIP/src/api/api_msg.c ****           break;
1173:Middlewares/Third_Party/LwIP/src/api/api_msg.c **** #endif /* LWIP_UDP */
1174:Middlewares/Third_Party/LwIP/src/api/api_msg.c **** #if LWIP_TCP
1175:Middlewares/Third_Party/LwIP/src/api/api_msg.c ****         case NETCONN_TCP:
1176:Middlewares/Third_Party/LwIP/src/api/api_msg.c ****           LWIP_ASSERT("already writing or closing", msg->conn->current_msg == NULL);
1177:Middlewares/Third_Party/LwIP/src/api/api_msg.c ****           msg->conn->state = NETCONN_CLOSE;
1178:Middlewares/Third_Party/LwIP/src/api/api_msg.c ****           msg->msg.sd.shut = NETCONN_SHUT_RDWR;
1179:Middlewares/Third_Party/LwIP/src/api/api_msg.c ****           msg->conn->current_msg = msg;
1180:Middlewares/Third_Party/LwIP/src/api/api_msg.c **** #if LWIP_TCPIP_CORE_LOCKING
1181:Middlewares/Third_Party/LwIP/src/api/api_msg.c ****           if (lwip_netconn_do_close_internal(msg->conn, 0) != ERR_OK) {
1182:Middlewares/Third_Party/LwIP/src/api/api_msg.c ****             LWIP_ASSERT("state!", msg->conn->state == NETCONN_CLOSE);
1183:Middlewares/Third_Party/LwIP/src/api/api_msg.c ****             UNLOCK_TCPIP_CORE();
1184:Middlewares/Third_Party/LwIP/src/api/api_msg.c ****             sys_arch_sem_wait(LWIP_API_MSG_SEM(msg), 0);
1185:Middlewares/Third_Party/LwIP/src/api/api_msg.c ****             LOCK_TCPIP_CORE();
1186:Middlewares/Third_Party/LwIP/src/api/api_msg.c ****             LWIP_ASSERT("state!", msg->conn->state == NETCONN_NONE);
1187:Middlewares/Third_Party/LwIP/src/api/api_msg.c ****           }
1188:Middlewares/Third_Party/LwIP/src/api/api_msg.c **** #else /* LWIP_TCPIP_CORE_LOCKING */
1189:Middlewares/Third_Party/LwIP/src/api/api_msg.c ****           lwip_netconn_do_close_internal(msg->conn);
1190:Middlewares/Third_Party/LwIP/src/api/api_msg.c **** #endif /* LWIP_TCPIP_CORE_LOCKING */
1191:Middlewares/Third_Party/LwIP/src/api/api_msg.c ****           /* API_EVENT is called inside lwip_netconn_do_close_internal, before releasing
1192:Middlewares/Third_Party/LwIP/src/api/api_msg.c ****              the application thread, so we can return at this point! */
1193:Middlewares/Third_Party/LwIP/src/api/api_msg.c ****           return;
1194:Middlewares/Third_Party/LwIP/src/api/api_msg.c **** #endif /* LWIP_TCP */
1195:Middlewares/Third_Party/LwIP/src/api/api_msg.c ****         default:
1196:Middlewares/Third_Party/LwIP/src/api/api_msg.c ****           break;
1197:Middlewares/Third_Party/LwIP/src/api/api_msg.c ****       }
1198:Middlewares/Third_Party/LwIP/src/api/api_msg.c ****       msg->conn->pcb.tcp = NULL;
1199:Middlewares/Third_Party/LwIP/src/api/api_msg.c ****     }
1200:Middlewares/Third_Party/LwIP/src/api/api_msg.c ****     /* tcp netconns don't come here! */
1201:Middlewares/Third_Party/LwIP/src/api/api_msg.c **** 
1202:Middlewares/Third_Party/LwIP/src/api/api_msg.c ****     /* @todo: this lets select make the socket readable and writable,
1203:Middlewares/Third_Party/LwIP/src/api/api_msg.c ****        which is wrong! errfd instead? */
1204:Middlewares/Third_Party/LwIP/src/api/api_msg.c ****     API_EVENT(msg->conn, NETCONN_EVT_RCVPLUS, 0);
1205:Middlewares/Third_Party/LwIP/src/api/api_msg.c ****     API_EVENT(msg->conn, NETCONN_EVT_SENDPLUS, 0);
1206:Middlewares/Third_Party/LwIP/src/api/api_msg.c ****   }
1207:Middlewares/Third_Party/LwIP/src/api/api_msg.c ****   if (sys_sem_valid(LWIP_API_MSG_SEM(msg))) {
1208:Middlewares/Third_Party/LwIP/src/api/api_msg.c ****     TCPIP_APIMSG_ACK(msg);
1209:Middlewares/Third_Party/LwIP/src/api/api_msg.c ****   }
1210:Middlewares/Third_Party/LwIP/src/api/api_msg.c **** }
1211:Middlewares/Third_Party/LwIP/src/api/api_msg.c **** 
1212:Middlewares/Third_Party/LwIP/src/api/api_msg.c **** /**
1213:Middlewares/Third_Party/LwIP/src/api/api_msg.c ****  * Bind a pcb contained in a netconn
1214:Middlewares/Third_Party/LwIP/src/api/api_msg.c ****  * Called from netconn_bind.
1215:Middlewares/Third_Party/LwIP/src/api/api_msg.c ****  *
1216:Middlewares/Third_Party/LwIP/src/api/api_msg.c ****  * @param m the api_msg pointing to the connection and containing
1217:Middlewares/Third_Party/LwIP/src/api/api_msg.c ****  *          the IP address and port to bind to
1218:Middlewares/Third_Party/LwIP/src/api/api_msg.c ****  */
1219:Middlewares/Third_Party/LwIP/src/api/api_msg.c **** void
1220:Middlewares/Third_Party/LwIP/src/api/api_msg.c **** lwip_netconn_do_bind(void *m)
1221:Middlewares/Third_Party/LwIP/src/api/api_msg.c **** {
1222:Middlewares/Third_Party/LwIP/src/api/api_msg.c ****   struct api_msg *msg = (struct api_msg *)m;
1223:Middlewares/Third_Party/LwIP/src/api/api_msg.c ****   err_t err;
ARM GAS  C:\Users\hh\AppData\Local\Temp\ccfq6ENc.s 			page 36


1224:Middlewares/Third_Party/LwIP/src/api/api_msg.c **** 
1225:Middlewares/Third_Party/LwIP/src/api/api_msg.c ****   if (msg->conn->pcb.tcp != NULL) {
1226:Middlewares/Third_Party/LwIP/src/api/api_msg.c ****     switch (NETCONNTYPE_GROUP(msg->conn->type)) {
1227:Middlewares/Third_Party/LwIP/src/api/api_msg.c **** #if LWIP_RAW
1228:Middlewares/Third_Party/LwIP/src/api/api_msg.c ****       case NETCONN_RAW:
1229:Middlewares/Third_Party/LwIP/src/api/api_msg.c ****         err = raw_bind(msg->conn->pcb.raw, API_EXPR_REF(msg->msg.bc.ipaddr));
1230:Middlewares/Third_Party/LwIP/src/api/api_msg.c ****         break;
1231:Middlewares/Third_Party/LwIP/src/api/api_msg.c **** #endif /* LWIP_RAW */
1232:Middlewares/Third_Party/LwIP/src/api/api_msg.c **** #if LWIP_UDP
1233:Middlewares/Third_Party/LwIP/src/api/api_msg.c ****       case NETCONN_UDP:
1234:Middlewares/Third_Party/LwIP/src/api/api_msg.c ****         err = udp_bind(msg->conn->pcb.udp, API_EXPR_REF(msg->msg.bc.ipaddr), msg->msg.bc.port);
1235:Middlewares/Third_Party/LwIP/src/api/api_msg.c ****         break;
1236:Middlewares/Third_Party/LwIP/src/api/api_msg.c **** #endif /* LWIP_UDP */
1237:Middlewares/Third_Party/LwIP/src/api/api_msg.c **** #if LWIP_TCP
1238:Middlewares/Third_Party/LwIP/src/api/api_msg.c ****       case NETCONN_TCP:
1239:Middlewares/Third_Party/LwIP/src/api/api_msg.c ****         err = tcp_bind(msg->conn->pcb.tcp, API_EXPR_REF(msg->msg.bc.ipaddr), msg->msg.bc.port);
1240:Middlewares/Third_Party/LwIP/src/api/api_msg.c ****         break;
1241:Middlewares/Third_Party/LwIP/src/api/api_msg.c **** #endif /* LWIP_TCP */
1242:Middlewares/Third_Party/LwIP/src/api/api_msg.c ****       default:
1243:Middlewares/Third_Party/LwIP/src/api/api_msg.c ****         err = ERR_VAL;
1244:Middlewares/Third_Party/LwIP/src/api/api_msg.c ****         break;
1245:Middlewares/Third_Party/LwIP/src/api/api_msg.c ****     }
1246:Middlewares/Third_Party/LwIP/src/api/api_msg.c ****   } else {
1247:Middlewares/Third_Party/LwIP/src/api/api_msg.c ****     err = ERR_VAL;
1248:Middlewares/Third_Party/LwIP/src/api/api_msg.c ****   }
1249:Middlewares/Third_Party/LwIP/src/api/api_msg.c ****   msg->err = err;
1250:Middlewares/Third_Party/LwIP/src/api/api_msg.c ****   TCPIP_APIMSG_ACK(msg);
1251:Middlewares/Third_Party/LwIP/src/api/api_msg.c **** }
1252:Middlewares/Third_Party/LwIP/src/api/api_msg.c **** /**
1253:Middlewares/Third_Party/LwIP/src/api/api_msg.c ****  * Bind a pcb contained in a netconn to an interface
1254:Middlewares/Third_Party/LwIP/src/api/api_msg.c ****  * Called from netconn_bind_if.
1255:Middlewares/Third_Party/LwIP/src/api/api_msg.c ****  *
1256:Middlewares/Third_Party/LwIP/src/api/api_msg.c ****  * @param m the api_msg pointing to the connection and containing
1257:Middlewares/Third_Party/LwIP/src/api/api_msg.c ****  *          the IP address and port to bind to
1258:Middlewares/Third_Party/LwIP/src/api/api_msg.c ****  */
1259:Middlewares/Third_Party/LwIP/src/api/api_msg.c **** void
1260:Middlewares/Third_Party/LwIP/src/api/api_msg.c **** lwip_netconn_do_bind_if(void *m)
1261:Middlewares/Third_Party/LwIP/src/api/api_msg.c **** {
1262:Middlewares/Third_Party/LwIP/src/api/api_msg.c ****   struct netif *netif;
1263:Middlewares/Third_Party/LwIP/src/api/api_msg.c ****   struct api_msg *msg = (struct api_msg *)m;
1264:Middlewares/Third_Party/LwIP/src/api/api_msg.c ****   err_t err;
1265:Middlewares/Third_Party/LwIP/src/api/api_msg.c **** 
1266:Middlewares/Third_Party/LwIP/src/api/api_msg.c ****   netif = netif_get_by_index(msg->msg.bc.if_idx);
1267:Middlewares/Third_Party/LwIP/src/api/api_msg.c **** 
1268:Middlewares/Third_Party/LwIP/src/api/api_msg.c ****   if ((netif != NULL) && (msg->conn->pcb.tcp != NULL)) {
1269:Middlewares/Third_Party/LwIP/src/api/api_msg.c ****     err = ERR_OK;
1270:Middlewares/Third_Party/LwIP/src/api/api_msg.c ****     switch (NETCONNTYPE_GROUP(msg->conn->type)) {
1271:Middlewares/Third_Party/LwIP/src/api/api_msg.c **** #if LWIP_RAW
1272:Middlewares/Third_Party/LwIP/src/api/api_msg.c ****       case NETCONN_RAW:
1273:Middlewares/Third_Party/LwIP/src/api/api_msg.c ****         raw_bind_netif(msg->conn->pcb.raw, netif);
1274:Middlewares/Third_Party/LwIP/src/api/api_msg.c ****         break;
1275:Middlewares/Third_Party/LwIP/src/api/api_msg.c **** #endif /* LWIP_RAW */
1276:Middlewares/Third_Party/LwIP/src/api/api_msg.c **** #if LWIP_UDP
1277:Middlewares/Third_Party/LwIP/src/api/api_msg.c ****       case NETCONN_UDP:
1278:Middlewares/Third_Party/LwIP/src/api/api_msg.c ****         udp_bind_netif(msg->conn->pcb.udp, netif);
1279:Middlewares/Third_Party/LwIP/src/api/api_msg.c ****         break;
1280:Middlewares/Third_Party/LwIP/src/api/api_msg.c **** #endif /* LWIP_UDP */
ARM GAS  C:\Users\hh\AppData\Local\Temp\ccfq6ENc.s 			page 37


1281:Middlewares/Third_Party/LwIP/src/api/api_msg.c **** #if LWIP_TCP
1282:Middlewares/Third_Party/LwIP/src/api/api_msg.c ****       case NETCONN_TCP:
1283:Middlewares/Third_Party/LwIP/src/api/api_msg.c ****         tcp_bind_netif(msg->conn->pcb.tcp, netif);
1284:Middlewares/Third_Party/LwIP/src/api/api_msg.c ****         break;
1285:Middlewares/Third_Party/LwIP/src/api/api_msg.c **** #endif /* LWIP_TCP */
1286:Middlewares/Third_Party/LwIP/src/api/api_msg.c ****       default:
1287:Middlewares/Third_Party/LwIP/src/api/api_msg.c ****         err = ERR_VAL;
1288:Middlewares/Third_Party/LwIP/src/api/api_msg.c ****         break;
1289:Middlewares/Third_Party/LwIP/src/api/api_msg.c ****     }
1290:Middlewares/Third_Party/LwIP/src/api/api_msg.c ****   } else {
1291:Middlewares/Third_Party/LwIP/src/api/api_msg.c ****     err = ERR_VAL;
1292:Middlewares/Third_Party/LwIP/src/api/api_msg.c ****   }
1293:Middlewares/Third_Party/LwIP/src/api/api_msg.c ****   msg->err = err;
1294:Middlewares/Third_Party/LwIP/src/api/api_msg.c ****   TCPIP_APIMSG_ACK(msg);
1295:Middlewares/Third_Party/LwIP/src/api/api_msg.c **** }
1296:Middlewares/Third_Party/LwIP/src/api/api_msg.c **** 
1297:Middlewares/Third_Party/LwIP/src/api/api_msg.c **** #if LWIP_TCP
1298:Middlewares/Third_Party/LwIP/src/api/api_msg.c **** /**
1299:Middlewares/Third_Party/LwIP/src/api/api_msg.c ****  * TCP callback function if a connection (opened by tcp_connect/lwip_netconn_do_connect) has
1300:Middlewares/Third_Party/LwIP/src/api/api_msg.c ****  * been established (or reset by the remote host).
1301:Middlewares/Third_Party/LwIP/src/api/api_msg.c ****  *
1302:Middlewares/Third_Party/LwIP/src/api/api_msg.c ****  * @see tcp.h (struct tcp_pcb.connected) for parameters and return values
1303:Middlewares/Third_Party/LwIP/src/api/api_msg.c ****  */
1304:Middlewares/Third_Party/LwIP/src/api/api_msg.c **** static err_t
1305:Middlewares/Third_Party/LwIP/src/api/api_msg.c **** lwip_netconn_do_connected(void *arg, struct tcp_pcb *pcb, err_t err)
1306:Middlewares/Third_Party/LwIP/src/api/api_msg.c **** {
 613              		.loc 1 1306 1 view -0
 614              		.cfi_startproc
 615              		@ args = 0, pretend = 0, frame = 0
 616              		@ frame_needed = 0, uses_anonymous_args = 0
1307:Middlewares/Third_Party/LwIP/src/api/api_msg.c ****   struct netconn *conn;
 617              		.loc 1 1307 3 view .LVU162
1308:Middlewares/Third_Party/LwIP/src/api/api_msg.c ****   int was_blocking;
 618              		.loc 1 1308 3 view .LVU163
1309:Middlewares/Third_Party/LwIP/src/api/api_msg.c ****   sys_sem_t *op_completed_sem = NULL;
 619              		.loc 1 1309 3 view .LVU164
1310:Middlewares/Third_Party/LwIP/src/api/api_msg.c **** 
1311:Middlewares/Third_Party/LwIP/src/api/api_msg.c ****   LWIP_UNUSED_ARG(pcb);
 620              		.loc 1 1311 3 view .LVU165
1312:Middlewares/Third_Party/LwIP/src/api/api_msg.c **** 
1313:Middlewares/Third_Party/LwIP/src/api/api_msg.c ****   conn = (struct netconn *)arg;
 621              		.loc 1 1313 3 view .LVU166
1314:Middlewares/Third_Party/LwIP/src/api/api_msg.c **** 
1315:Middlewares/Third_Party/LwIP/src/api/api_msg.c ****   if (conn == NULL) {
 622              		.loc 1 1315 3 view .LVU167
 623              		.loc 1 1315 6 is_stmt 0 view .LVU168
 624 0000 0028     		cmp	r0, #0
 625 0002 5DD0     		beq	.L58
1306:Middlewares/Third_Party/LwIP/src/api/api_msg.c ****   struct netconn *conn;
 626              		.loc 1 1306 1 view .LVU169
 627 0004 70B5     		push	{r4, r5, r6, lr}
 628              	.LCFI5:
 629              		.cfi_def_cfa_offset 16
 630              		.cfi_offset 4, -16
 631              		.cfi_offset 5, -12
 632              		.cfi_offset 6, -8
 633              		.cfi_offset 14, -4
ARM GAS  C:\Users\hh\AppData\Local\Temp\ccfq6ENc.s 			page 38


 634 0006 1646     		mov	r6, r2
 635 0008 0446     		mov	r4, r0
1316:Middlewares/Third_Party/LwIP/src/api/api_msg.c ****     return ERR_VAL;
1317:Middlewares/Third_Party/LwIP/src/api/api_msg.c ****   }
1318:Middlewares/Third_Party/LwIP/src/api/api_msg.c **** 
1319:Middlewares/Third_Party/LwIP/src/api/api_msg.c ****   LWIP_ASSERT("conn->state == NETCONN_CONNECT", conn->state == NETCONN_CONNECT);
 636              		.loc 1 1319 3 is_stmt 1 view .LVU170
 637              		.loc 1 1319 3 view .LVU171
 638 000a 4378     		ldrb	r3, [r0, #1]	@ zero_extendqisi2
 639 000c 032B     		cmp	r3, #3
 640 000e 30D1     		bne	.L64
 641              	.LVL58:
 642              	.L52:
 643              		.loc 1 1319 3 view .LVU172
 644              		.loc 1 1319 3 view .LVU173
1320:Middlewares/Third_Party/LwIP/src/api/api_msg.c ****   LWIP_ASSERT("(conn->current_msg != NULL) || conn->in_non_blocking_connect",
 645              		.loc 1 1320 3 view .LVU174
 646              		.loc 1 1320 3 view .LVU175
 647 0010 236A     		ldr	r3, [r4, #32]
 648 0012 002B     		cmp	r3, #0
 649 0014 35D0     		beq	.L65
 650              	.L53:
 651              		.loc 1 1320 3 view .LVU176
 652              		.loc 1 1320 3 view .LVU177
1321:Middlewares/Third_Party/LwIP/src/api/api_msg.c ****               (conn->current_msg != NULL) || IN_NONBLOCKING_CONNECT(conn));
1322:Middlewares/Third_Party/LwIP/src/api/api_msg.c **** 
1323:Middlewares/Third_Party/LwIP/src/api/api_msg.c ****   if (conn->current_msg != NULL) {
 653              		.loc 1 1323 3 view .LVU178
 654              		.loc 1 1323 11 is_stmt 0 view .LVU179
 655 0016 256A     		ldr	r5, [r4, #32]
 656              		.loc 1 1323 6 view .LVU180
 657 0018 1DB1     		cbz	r5, .L54
1324:Middlewares/Third_Party/LwIP/src/api/api_msg.c ****     conn->current_msg->err = err;
 658              		.loc 1 1324 5 is_stmt 1 view .LVU181
 659              		.loc 1 1324 28 is_stmt 0 view .LVU182
 660 001a 2E71     		strb	r6, [r5, #4]
1325:Middlewares/Third_Party/LwIP/src/api/api_msg.c ****     op_completed_sem = LWIP_API_MSG_SEM(conn->current_msg);
 661              		.loc 1 1325 5 is_stmt 1 view .LVU183
 662              		.loc 1 1325 24 is_stmt 0 view .LVU184
 663 001c 236A     		ldr	r3, [r4, #32]
 664 001e 1D68     		ldr	r5, [r3]
 665              		.loc 1 1325 22 view .LVU185
 666 0020 0C35     		adds	r5, r5, #12
 667              	.L54:
 668              	.LVL59:
1326:Middlewares/Third_Party/LwIP/src/api/api_msg.c ****   }
1327:Middlewares/Third_Party/LwIP/src/api/api_msg.c ****   if ((NETCONNTYPE_GROUP(conn->type) == NETCONN_TCP) && (err == ERR_OK)) {
 669              		.loc 1 1327 3 is_stmt 1 view .LVU186
 670              		.loc 1 1327 8 is_stmt 0 view .LVU187
 671 0022 2378     		ldrb	r3, [r4]	@ zero_extendqisi2
 672              		.loc 1 1327 6 view .LVU188
 673 0024 03F0F003 		and	r3, r3, #240
 674 0028 102B     		cmp	r3, #16
 675 002a 36D0     		beq	.L66
 676              	.L55:
1328:Middlewares/Third_Party/LwIP/src/api/api_msg.c ****     setup_tcp(conn);
1329:Middlewares/Third_Party/LwIP/src/api/api_msg.c ****   }
ARM GAS  C:\Users\hh\AppData\Local\Temp\ccfq6ENc.s 			page 39


1330:Middlewares/Third_Party/LwIP/src/api/api_msg.c ****   was_blocking = !IN_NONBLOCKING_CONNECT(conn);
 677              		.loc 1 1330 3 is_stmt 1 view .LVU189
 678              		.loc 1 1330 19 is_stmt 0 view .LVU190
 679 002c 237F     		ldrb	r3, [r4, #28]	@ zero_extendqisi2
 680 002e 03F00406 		and	r6, r3, #4
 681              	.LVL60:
 682              		.loc 1 1330 18 view .LVU191
 683 0032 C3F38002 		ubfx	r2, r3, #2, #1
 684 0036 82F00102 		eor	r2, r2, #1
 685 003a D2B2     		uxtb	r2, r2
 686              	.LVL61:
1331:Middlewares/Third_Party/LwIP/src/api/api_msg.c ****   SET_NONBLOCKING_CONNECT(conn, 0);
 687              		.loc 1 1331 3 is_stmt 1 view .LVU192
 688              		.loc 1 1331 3 view .LVU193
 689              		.loc 1 1331 3 discriminator 2 view .LVU194
 690              		.loc 1 1331 3 discriminator 2 view .LVU195
 691 003c 03F0FB01 		and	r1, r3, #251
 692 0040 2177     		strb	r1, [r4, #28]
 693              		.loc 1 1331 3 view .LVU196
 694              		.loc 1 1331 3 view .LVU197
1332:Middlewares/Third_Party/LwIP/src/api/api_msg.c ****   LWIP_ASSERT("blocking connect state error",
 695              		.loc 1 1332 3 view .LVU198
 696              		.loc 1 1332 3 view .LVU199
 697 0042 C3F38003 		ubfx	r3, r3, #2, #1
 698 0046 002D     		cmp	r5, #0
 699 0048 08BF     		it	eq
 700 004a 43F00103 		orreq	r3, r3, #1
 701 004e 23B1     		cbz	r3, .L56
 702              		.loc 1 1332 3 is_stmt 0 discriminator 1 view .LVU200
 703 0050 002D     		cmp	r5, #0
 704 0052 18BF     		it	ne
 705 0054 42F00102 		orrne	r2, r2, #1
 706              	.LVL62:
 707              		.loc 1 1332 3 discriminator 1 view .LVU201
 708 0058 2ABB     		cbnz	r2, .L67
 709              	.L56:
 710              		.loc 1 1332 3 is_stmt 1 view .LVU202
 711              		.loc 1 1332 3 view .LVU203
1333:Middlewares/Third_Party/LwIP/src/api/api_msg.c ****               (was_blocking && op_completed_sem != NULL) ||
1334:Middlewares/Third_Party/LwIP/src/api/api_msg.c ****               (!was_blocking && op_completed_sem == NULL));
1335:Middlewares/Third_Party/LwIP/src/api/api_msg.c ****   conn->current_msg = NULL;
 712              		.loc 1 1335 3 view .LVU204
 713              		.loc 1 1335 21 is_stmt 0 view .LVU205
 714 005a 0023     		movs	r3, #0
 715 005c 2362     		str	r3, [r4, #32]
1336:Middlewares/Third_Party/LwIP/src/api/api_msg.c ****   conn->state = NETCONN_NONE;
 716              		.loc 1 1336 3 is_stmt 1 view .LVU206
 717              		.loc 1 1336 15 is_stmt 0 view .LVU207
 718 005e 6370     		strb	r3, [r4, #1]
1337:Middlewares/Third_Party/LwIP/src/api/api_msg.c ****   API_EVENT(conn, NETCONN_EVT_SENDPLUS, 0);
 719              		.loc 1 1337 3 is_stmt 1 view .LVU208
 720 0060 636A     		ldr	r3, [r4, #36]
 721 0062 1BB1     		cbz	r3, .L57
 722              		.loc 1 1337 3 discriminator 1 view .LVU209
 723 0064 0022     		movs	r2, #0
 724 0066 0221     		movs	r1, #2
 725 0068 2046     		mov	r0, r4
ARM GAS  C:\Users\hh\AppData\Local\Temp\ccfq6ENc.s 			page 40


 726 006a 9847     		blx	r3
 727              	.LVL63:
 728              	.L57:
 729              		.loc 1 1337 43 view .LVU210
1338:Middlewares/Third_Party/LwIP/src/api/api_msg.c **** 
1339:Middlewares/Third_Party/LwIP/src/api/api_msg.c ****   if (was_blocking) {
 730              		.loc 1 1339 3 view .LVU211
 731              		.loc 1 1339 6 is_stmt 0 view .LVU212
 732 006c 1EB3     		cbz	r6, .L68
1340:Middlewares/Third_Party/LwIP/src/api/api_msg.c ****     sys_sem_signal(op_completed_sem);
1341:Middlewares/Third_Party/LwIP/src/api/api_msg.c ****   }
1342:Middlewares/Third_Party/LwIP/src/api/api_msg.c ****   return ERR_OK;
 733              		.loc 1 1342 10 view .LVU213
 734 006e 0020     		movs	r0, #0
 735              	.L51:
1343:Middlewares/Third_Party/LwIP/src/api/api_msg.c **** }
 736              		.loc 1 1343 1 view .LVU214
 737 0070 70BD     		pop	{r4, r5, r6, pc}
 738              	.LVL64:
 739              	.L64:
1319:Middlewares/Third_Party/LwIP/src/api/api_msg.c ****   LWIP_ASSERT("(conn->current_msg != NULL) || conn->in_non_blocking_connect",
 740              		.loc 1 1319 3 is_stmt 1 discriminator 1 view .LVU215
1319:Middlewares/Third_Party/LwIP/src/api/api_msg.c ****   LWIP_ASSERT("(conn->current_msg != NULL) || conn->in_non_blocking_connect",
 741              		.loc 1 1319 3 discriminator 1 view .LVU216
 742 0072 154B     		ldr	r3, .L69
 743 0074 40F22752 		movw	r2, #1319
 744              	.LVL65:
1319:Middlewares/Third_Party/LwIP/src/api/api_msg.c ****   LWIP_ASSERT("(conn->current_msg != NULL) || conn->in_non_blocking_connect",
 745              		.loc 1 1319 3 is_stmt 0 discriminator 1 view .LVU217
 746 0078 1449     		ldr	r1, .L69+4
 747              	.LVL66:
1319:Middlewares/Third_Party/LwIP/src/api/api_msg.c ****   LWIP_ASSERT("(conn->current_msg != NULL) || conn->in_non_blocking_connect",
 748              		.loc 1 1319 3 discriminator 1 view .LVU218
 749 007a 1548     		ldr	r0, .L69+8
 750              	.LVL67:
1319:Middlewares/Third_Party/LwIP/src/api/api_msg.c ****   LWIP_ASSERT("(conn->current_msg != NULL) || conn->in_non_blocking_connect",
 751              		.loc 1 1319 3 discriminator 1 view .LVU219
 752 007c FFF7FEFF 		bl	printf
 753              	.LVL68:
 754 0080 C6E7     		b	.L52
 755              	.L65:
1320:Middlewares/Third_Party/LwIP/src/api/api_msg.c ****               (conn->current_msg != NULL) || IN_NONBLOCKING_CONNECT(conn));
 756              		.loc 1 1320 3 discriminator 1 view .LVU220
 757 0082 237F     		ldrb	r3, [r4, #28]	@ zero_extendqisi2
 758 0084 13F0040F 		tst	r3, #4
 759 0088 C5D1     		bne	.L53
1320:Middlewares/Third_Party/LwIP/src/api/api_msg.c ****               (conn->current_msg != NULL) || IN_NONBLOCKING_CONNECT(conn));
 760              		.loc 1 1320 3 is_stmt 1 discriminator 2 view .LVU221
1320:Middlewares/Third_Party/LwIP/src/api/api_msg.c ****               (conn->current_msg != NULL) || IN_NONBLOCKING_CONNECT(conn));
 761              		.loc 1 1320 3 discriminator 2 view .LVU222
 762 008a 0F4B     		ldr	r3, .L69
 763 008c 4FF4A562 		mov	r2, #1320
 764 0090 1049     		ldr	r1, .L69+12
 765 0092 0F48     		ldr	r0, .L69+8
 766 0094 FFF7FEFF 		bl	printf
 767              	.LVL69:
 768 0098 BDE7     		b	.L53
ARM GAS  C:\Users\hh\AppData\Local\Temp\ccfq6ENc.s 			page 41


 769              	.LVL70:
 770              	.L66:
1327:Middlewares/Third_Party/LwIP/src/api/api_msg.c ****     setup_tcp(conn);
 771              		.loc 1 1327 54 is_stmt 0 discriminator 1 view .LVU223
 772 009a 002E     		cmp	r6, #0
 773 009c C6D1     		bne	.L55
1328:Middlewares/Third_Party/LwIP/src/api/api_msg.c ****   }
 774              		.loc 1 1328 5 is_stmt 1 view .LVU224
 775 009e 2046     		mov	r0, r4
 776 00a0 FFF7FEFF 		bl	setup_tcp
 777              	.LVL71:
 778 00a4 C2E7     		b	.L55
 779              	.LVL72:
 780              	.L67:
1332:Middlewares/Third_Party/LwIP/src/api/api_msg.c ****               (was_blocking && op_completed_sem != NULL) ||
 781              		.loc 1 1332 3 discriminator 2 view .LVU225
1332:Middlewares/Third_Party/LwIP/src/api/api_msg.c ****               (was_blocking && op_completed_sem != NULL) ||
 782              		.loc 1 1332 3 discriminator 2 view .LVU226
 783 00a6 084B     		ldr	r3, .L69
 784 00a8 40F23452 		movw	r2, #1332
 785 00ac 0A49     		ldr	r1, .L69+16
 786 00ae 0848     		ldr	r0, .L69+8
 787 00b0 FFF7FEFF 		bl	printf
 788              	.LVL73:
 789 00b4 D1E7     		b	.L56
 790              	.L68:
1340:Middlewares/Third_Party/LwIP/src/api/api_msg.c ****   }
 791              		.loc 1 1340 5 view .LVU227
 792 00b6 2846     		mov	r0, r5
 793 00b8 FFF7FEFF 		bl	sys_sem_signal
 794              	.LVL74:
1342:Middlewares/Third_Party/LwIP/src/api/api_msg.c **** }
 795              		.loc 1 1342 10 is_stmt 0 view .LVU228
 796 00bc 3046     		mov	r0, r6
 797 00be D7E7     		b	.L51
 798              	.LVL75:
 799              	.L58:
 800              	.LCFI6:
 801              		.cfi_def_cfa_offset 0
 802              		.cfi_restore 4
 803              		.cfi_restore 5
 804              		.cfi_restore 6
 805              		.cfi_restore 14
1316:Middlewares/Third_Party/LwIP/src/api/api_msg.c ****   }
 806              		.loc 1 1316 12 view .LVU229
 807 00c0 6FF00500 		mvn	r0, #5
 808              	.LVL76:
 809              		.loc 1 1343 1 view .LVU230
 810 00c4 7047     		bx	lr
 811              	.L70:
 812 00c6 00BF     		.align	2
 813              	.L69:
 814 00c8 00000000 		.word	.LC0
 815 00cc 00000000 		.word	.LC8
 816 00d0 40000000 		.word	.LC2
 817 00d4 20000000 		.word	.LC9
 818 00d8 60000000 		.word	.LC10
ARM GAS  C:\Users\hh\AppData\Local\Temp\ccfq6ENc.s 			page 42


 819              		.cfi_endproc
 820              	.LFE189:
 822              		.section	.rodata.lwip_netconn_do_writemore.str1.4,"aMS",%progbits,1
 823              		.align	2
 824              	.LC11:
 825 0000 636F6E6E 		.ascii	"conn->state == NETCONN_WRITE\000"
 825      2D3E7374 
 825      61746520 
 825      3D3D204E 
 825      4554434F 
 826 001d 000000   		.align	2
 827              	.LC12:
 828 0020 636F6E6E 		.ascii	"conn->pcb.tcp != NULL\000"
 828      2D3E7063 
 828      622E7463 
 828      7020213D 
 828      204E554C 
 829 0036 0000     		.align	2
 830              	.LC13:
 831 0038 636F6E6E 		.ascii	"conn->current_msg->msg.w.offset < conn->current_msg"
 831      2D3E6375 
 831      7272656E 
 831      745F6D73 
 831      672D3E6D 
 832 006b 2D3E6D73 		.ascii	"->msg.w.len\000"
 832      672E772E 
 832      6C656E00 
 833 0077 00       		.align	2
 834              	.LC14:
 835 0078 636F6E6E 		.ascii	"conn->current_msg->msg.w.vector_cnt > 0\000"
 835      2D3E6375 
 835      7272656E 
 835      745F6D73 
 835      672D3E6D 
 836              		.align	2
 837              	.LC15:
 838 00a0 6C776970 		.ascii	"lwip_netconn_do_writemore: invalid length!\000"
 838      5F6E6574 
 838      636F6E6E 
 838      5F646F5F 
 838      77726974 
 839              		.section	.text.lwip_netconn_do_writemore,"ax",%progbits
 840              		.align	1
 841              		.syntax unified
 842              		.thumb
 843              		.thumb_func
 845              	lwip_netconn_do_writemore:
 846              	.LVL77:
 847              	.LFB195:
1344:Middlewares/Third_Party/LwIP/src/api/api_msg.c **** #endif /* LWIP_TCP */
1345:Middlewares/Third_Party/LwIP/src/api/api_msg.c **** 
1346:Middlewares/Third_Party/LwIP/src/api/api_msg.c **** /**
1347:Middlewares/Third_Party/LwIP/src/api/api_msg.c ****  * Connect a pcb contained inside a netconn
1348:Middlewares/Third_Party/LwIP/src/api/api_msg.c ****  * Called from netconn_connect.
1349:Middlewares/Third_Party/LwIP/src/api/api_msg.c ****  *
1350:Middlewares/Third_Party/LwIP/src/api/api_msg.c ****  * @param m the api_msg pointing to the connection and containing
1351:Middlewares/Third_Party/LwIP/src/api/api_msg.c ****  *          the IP address and port to connect to
ARM GAS  C:\Users\hh\AppData\Local\Temp\ccfq6ENc.s 			page 43


1352:Middlewares/Third_Party/LwIP/src/api/api_msg.c ****  */
1353:Middlewares/Third_Party/LwIP/src/api/api_msg.c **** void
1354:Middlewares/Third_Party/LwIP/src/api/api_msg.c **** lwip_netconn_do_connect(void *m)
1355:Middlewares/Third_Party/LwIP/src/api/api_msg.c **** {
1356:Middlewares/Third_Party/LwIP/src/api/api_msg.c ****   struct api_msg *msg = (struct api_msg *)m;
1357:Middlewares/Third_Party/LwIP/src/api/api_msg.c ****   err_t err;
1358:Middlewares/Third_Party/LwIP/src/api/api_msg.c **** 
1359:Middlewares/Third_Party/LwIP/src/api/api_msg.c ****   if (msg->conn->pcb.tcp == NULL) {
1360:Middlewares/Third_Party/LwIP/src/api/api_msg.c ****     /* This may happen when calling netconn_connect() a second time */
1361:Middlewares/Third_Party/LwIP/src/api/api_msg.c ****     err = ERR_CLSD;
1362:Middlewares/Third_Party/LwIP/src/api/api_msg.c ****   } else {
1363:Middlewares/Third_Party/LwIP/src/api/api_msg.c ****     switch (NETCONNTYPE_GROUP(msg->conn->type)) {
1364:Middlewares/Third_Party/LwIP/src/api/api_msg.c **** #if LWIP_RAW
1365:Middlewares/Third_Party/LwIP/src/api/api_msg.c ****       case NETCONN_RAW:
1366:Middlewares/Third_Party/LwIP/src/api/api_msg.c ****         err = raw_connect(msg->conn->pcb.raw, API_EXPR_REF(msg->msg.bc.ipaddr));
1367:Middlewares/Third_Party/LwIP/src/api/api_msg.c ****         break;
1368:Middlewares/Third_Party/LwIP/src/api/api_msg.c **** #endif /* LWIP_RAW */
1369:Middlewares/Third_Party/LwIP/src/api/api_msg.c **** #if LWIP_UDP
1370:Middlewares/Third_Party/LwIP/src/api/api_msg.c ****       case NETCONN_UDP:
1371:Middlewares/Third_Party/LwIP/src/api/api_msg.c ****         err = udp_connect(msg->conn->pcb.udp, API_EXPR_REF(msg->msg.bc.ipaddr), msg->msg.bc.port);
1372:Middlewares/Third_Party/LwIP/src/api/api_msg.c ****         break;
1373:Middlewares/Third_Party/LwIP/src/api/api_msg.c **** #endif /* LWIP_UDP */
1374:Middlewares/Third_Party/LwIP/src/api/api_msg.c **** #if LWIP_TCP
1375:Middlewares/Third_Party/LwIP/src/api/api_msg.c ****       case NETCONN_TCP:
1376:Middlewares/Third_Party/LwIP/src/api/api_msg.c ****         /* Prevent connect while doing any other action. */
1377:Middlewares/Third_Party/LwIP/src/api/api_msg.c ****         if (msg->conn->state == NETCONN_CONNECT) {
1378:Middlewares/Third_Party/LwIP/src/api/api_msg.c ****           err = ERR_ALREADY;
1379:Middlewares/Third_Party/LwIP/src/api/api_msg.c ****         } else if (msg->conn->state != NETCONN_NONE) {
1380:Middlewares/Third_Party/LwIP/src/api/api_msg.c ****           err = ERR_ISCONN;
1381:Middlewares/Third_Party/LwIP/src/api/api_msg.c ****         } else {
1382:Middlewares/Third_Party/LwIP/src/api/api_msg.c ****           setup_tcp(msg->conn);
1383:Middlewares/Third_Party/LwIP/src/api/api_msg.c ****           err = tcp_connect(msg->conn->pcb.tcp, API_EXPR_REF(msg->msg.bc.ipaddr),
1384:Middlewares/Third_Party/LwIP/src/api/api_msg.c ****                             msg->msg.bc.port, lwip_netconn_do_connected);
1385:Middlewares/Third_Party/LwIP/src/api/api_msg.c ****           if (err == ERR_OK) {
1386:Middlewares/Third_Party/LwIP/src/api/api_msg.c ****             u8_t non_blocking = netconn_is_nonblocking(msg->conn);
1387:Middlewares/Third_Party/LwIP/src/api/api_msg.c ****             msg->conn->state = NETCONN_CONNECT;
1388:Middlewares/Third_Party/LwIP/src/api/api_msg.c ****             SET_NONBLOCKING_CONNECT(msg->conn, non_blocking);
1389:Middlewares/Third_Party/LwIP/src/api/api_msg.c ****             if (non_blocking) {
1390:Middlewares/Third_Party/LwIP/src/api/api_msg.c ****               err = ERR_INPROGRESS;
1391:Middlewares/Third_Party/LwIP/src/api/api_msg.c ****             } else {
1392:Middlewares/Third_Party/LwIP/src/api/api_msg.c ****               msg->conn->current_msg = msg;
1393:Middlewares/Third_Party/LwIP/src/api/api_msg.c ****               /* sys_sem_signal() is called from lwip_netconn_do_connected (or err_tcp()),
1394:Middlewares/Third_Party/LwIP/src/api/api_msg.c ****                  when the connection is established! */
1395:Middlewares/Third_Party/LwIP/src/api/api_msg.c **** #if LWIP_TCPIP_CORE_LOCKING
1396:Middlewares/Third_Party/LwIP/src/api/api_msg.c ****               LWIP_ASSERT("state!", msg->conn->state == NETCONN_CONNECT);
1397:Middlewares/Third_Party/LwIP/src/api/api_msg.c ****               UNLOCK_TCPIP_CORE();
1398:Middlewares/Third_Party/LwIP/src/api/api_msg.c ****               sys_arch_sem_wait(LWIP_API_MSG_SEM(msg), 0);
1399:Middlewares/Third_Party/LwIP/src/api/api_msg.c ****               LOCK_TCPIP_CORE();
1400:Middlewares/Third_Party/LwIP/src/api/api_msg.c ****               LWIP_ASSERT("state!", msg->conn->state != NETCONN_CONNECT);
1401:Middlewares/Third_Party/LwIP/src/api/api_msg.c **** #endif /* LWIP_TCPIP_CORE_LOCKING */
1402:Middlewares/Third_Party/LwIP/src/api/api_msg.c ****               return;
1403:Middlewares/Third_Party/LwIP/src/api/api_msg.c ****             }
1404:Middlewares/Third_Party/LwIP/src/api/api_msg.c ****           }
1405:Middlewares/Third_Party/LwIP/src/api/api_msg.c ****         }
1406:Middlewares/Third_Party/LwIP/src/api/api_msg.c ****         break;
1407:Middlewares/Third_Party/LwIP/src/api/api_msg.c **** #endif /* LWIP_TCP */
1408:Middlewares/Third_Party/LwIP/src/api/api_msg.c ****       default:
ARM GAS  C:\Users\hh\AppData\Local\Temp\ccfq6ENc.s 			page 44


1409:Middlewares/Third_Party/LwIP/src/api/api_msg.c ****         LWIP_ERROR("Invalid netconn type", 0, do {
1410:Middlewares/Third_Party/LwIP/src/api/api_msg.c ****           err = ERR_VAL;
1411:Middlewares/Third_Party/LwIP/src/api/api_msg.c ****         } while (0));
1412:Middlewares/Third_Party/LwIP/src/api/api_msg.c ****         break;
1413:Middlewares/Third_Party/LwIP/src/api/api_msg.c ****     }
1414:Middlewares/Third_Party/LwIP/src/api/api_msg.c ****   }
1415:Middlewares/Third_Party/LwIP/src/api/api_msg.c ****   msg->err = err;
1416:Middlewares/Third_Party/LwIP/src/api/api_msg.c ****   /* For all other protocols, netconn_connect() calls netconn_apimsg(),
1417:Middlewares/Third_Party/LwIP/src/api/api_msg.c ****      so use TCPIP_APIMSG_ACK() here. */
1418:Middlewares/Third_Party/LwIP/src/api/api_msg.c ****   TCPIP_APIMSG_ACK(msg);
1419:Middlewares/Third_Party/LwIP/src/api/api_msg.c **** }
1420:Middlewares/Third_Party/LwIP/src/api/api_msg.c **** 
1421:Middlewares/Third_Party/LwIP/src/api/api_msg.c **** /**
1422:Middlewares/Third_Party/LwIP/src/api/api_msg.c ****  * Disconnect a pcb contained inside a netconn
1423:Middlewares/Third_Party/LwIP/src/api/api_msg.c ****  * Only used for UDP netconns.
1424:Middlewares/Third_Party/LwIP/src/api/api_msg.c ****  * Called from netconn_disconnect.
1425:Middlewares/Third_Party/LwIP/src/api/api_msg.c ****  *
1426:Middlewares/Third_Party/LwIP/src/api/api_msg.c ****  * @param m the api_msg pointing to the connection to disconnect
1427:Middlewares/Third_Party/LwIP/src/api/api_msg.c ****  */
1428:Middlewares/Third_Party/LwIP/src/api/api_msg.c **** void
1429:Middlewares/Third_Party/LwIP/src/api/api_msg.c **** lwip_netconn_do_disconnect(void *m)
1430:Middlewares/Third_Party/LwIP/src/api/api_msg.c **** {
1431:Middlewares/Third_Party/LwIP/src/api/api_msg.c ****   struct api_msg *msg = (struct api_msg *)m;
1432:Middlewares/Third_Party/LwIP/src/api/api_msg.c **** 
1433:Middlewares/Third_Party/LwIP/src/api/api_msg.c **** #if LWIP_UDP
1434:Middlewares/Third_Party/LwIP/src/api/api_msg.c ****   if (NETCONNTYPE_GROUP(msg->conn->type) == NETCONN_UDP) {
1435:Middlewares/Third_Party/LwIP/src/api/api_msg.c ****     udp_disconnect(msg->conn->pcb.udp);
1436:Middlewares/Third_Party/LwIP/src/api/api_msg.c ****     msg->err = ERR_OK;
1437:Middlewares/Third_Party/LwIP/src/api/api_msg.c ****   } else
1438:Middlewares/Third_Party/LwIP/src/api/api_msg.c **** #endif /* LWIP_UDP */
1439:Middlewares/Third_Party/LwIP/src/api/api_msg.c ****   {
1440:Middlewares/Third_Party/LwIP/src/api/api_msg.c ****     msg->err = ERR_VAL;
1441:Middlewares/Third_Party/LwIP/src/api/api_msg.c ****   }
1442:Middlewares/Third_Party/LwIP/src/api/api_msg.c ****   TCPIP_APIMSG_ACK(msg);
1443:Middlewares/Third_Party/LwIP/src/api/api_msg.c **** }
1444:Middlewares/Third_Party/LwIP/src/api/api_msg.c **** 
1445:Middlewares/Third_Party/LwIP/src/api/api_msg.c **** #if LWIP_TCP
1446:Middlewares/Third_Party/LwIP/src/api/api_msg.c **** /**
1447:Middlewares/Third_Party/LwIP/src/api/api_msg.c ****  * Set a TCP pcb contained in a netconn into listen mode
1448:Middlewares/Third_Party/LwIP/src/api/api_msg.c ****  * Called from netconn_listen.
1449:Middlewares/Third_Party/LwIP/src/api/api_msg.c ****  *
1450:Middlewares/Third_Party/LwIP/src/api/api_msg.c ****  * @param m the api_msg pointing to the connection
1451:Middlewares/Third_Party/LwIP/src/api/api_msg.c ****  */
1452:Middlewares/Third_Party/LwIP/src/api/api_msg.c **** void
1453:Middlewares/Third_Party/LwIP/src/api/api_msg.c **** lwip_netconn_do_listen(void *m)
1454:Middlewares/Third_Party/LwIP/src/api/api_msg.c **** {
1455:Middlewares/Third_Party/LwIP/src/api/api_msg.c ****   struct api_msg *msg = (struct api_msg *)m;
1456:Middlewares/Third_Party/LwIP/src/api/api_msg.c ****   err_t err;
1457:Middlewares/Third_Party/LwIP/src/api/api_msg.c **** 
1458:Middlewares/Third_Party/LwIP/src/api/api_msg.c ****   if (msg->conn->pcb.tcp != NULL) {
1459:Middlewares/Third_Party/LwIP/src/api/api_msg.c ****     if (NETCONNTYPE_GROUP(msg->conn->type) == NETCONN_TCP) {
1460:Middlewares/Third_Party/LwIP/src/api/api_msg.c ****       if (msg->conn->state == NETCONN_NONE) {
1461:Middlewares/Third_Party/LwIP/src/api/api_msg.c ****         struct tcp_pcb *lpcb;
1462:Middlewares/Third_Party/LwIP/src/api/api_msg.c ****         if (msg->conn->pcb.tcp->state != CLOSED) {
1463:Middlewares/Third_Party/LwIP/src/api/api_msg.c ****           /* connection is not closed, cannot listen */
1464:Middlewares/Third_Party/LwIP/src/api/api_msg.c ****           err = ERR_VAL;
1465:Middlewares/Third_Party/LwIP/src/api/api_msg.c ****         } else {
ARM GAS  C:\Users\hh\AppData\Local\Temp\ccfq6ENc.s 			page 45


1466:Middlewares/Third_Party/LwIP/src/api/api_msg.c ****           u8_t backlog;
1467:Middlewares/Third_Party/LwIP/src/api/api_msg.c **** #if TCP_LISTEN_BACKLOG
1468:Middlewares/Third_Party/LwIP/src/api/api_msg.c ****           backlog = msg->msg.lb.backlog;
1469:Middlewares/Third_Party/LwIP/src/api/api_msg.c **** #else  /* TCP_LISTEN_BACKLOG */
1470:Middlewares/Third_Party/LwIP/src/api/api_msg.c ****           backlog = TCP_DEFAULT_LISTEN_BACKLOG;
1471:Middlewares/Third_Party/LwIP/src/api/api_msg.c **** #endif /* TCP_LISTEN_BACKLOG */
1472:Middlewares/Third_Party/LwIP/src/api/api_msg.c **** #if LWIP_IPV4 && LWIP_IPV6
1473:Middlewares/Third_Party/LwIP/src/api/api_msg.c ****           /* "Socket API like" dual-stack support: If IP to listen to is IP6_ADDR_ANY,
1474:Middlewares/Third_Party/LwIP/src/api/api_msg.c ****             * and NETCONN_FLAG_IPV6_V6ONLY is NOT set, use IP_ANY_TYPE to listen
1475:Middlewares/Third_Party/LwIP/src/api/api_msg.c ****             */
1476:Middlewares/Third_Party/LwIP/src/api/api_msg.c ****           if (ip_addr_eq(&msg->conn->pcb.ip->local_ip, IP6_ADDR_ANY) &&
1477:Middlewares/Third_Party/LwIP/src/api/api_msg.c ****               (netconn_get_ipv6only(msg->conn) == 0)) {
1478:Middlewares/Third_Party/LwIP/src/api/api_msg.c ****             /* change PCB type to IPADDR_TYPE_ANY */
1479:Middlewares/Third_Party/LwIP/src/api/api_msg.c ****             IP_SET_TYPE_VAL(msg->conn->pcb.tcp->local_ip,  IPADDR_TYPE_ANY);
1480:Middlewares/Third_Party/LwIP/src/api/api_msg.c ****             IP_SET_TYPE_VAL(msg->conn->pcb.tcp->remote_ip, IPADDR_TYPE_ANY);
1481:Middlewares/Third_Party/LwIP/src/api/api_msg.c ****           }
1482:Middlewares/Third_Party/LwIP/src/api/api_msg.c **** #endif /* LWIP_IPV4 && LWIP_IPV6 */
1483:Middlewares/Third_Party/LwIP/src/api/api_msg.c **** 
1484:Middlewares/Third_Party/LwIP/src/api/api_msg.c ****           lpcb = tcp_listen_with_backlog_and_err(msg->conn->pcb.tcp, backlog, &err);
1485:Middlewares/Third_Party/LwIP/src/api/api_msg.c **** 
1486:Middlewares/Third_Party/LwIP/src/api/api_msg.c ****           if (lpcb == NULL) {
1487:Middlewares/Third_Party/LwIP/src/api/api_msg.c ****             /* in this case, the old pcb is still allocated */
1488:Middlewares/Third_Party/LwIP/src/api/api_msg.c ****           } else {
1489:Middlewares/Third_Party/LwIP/src/api/api_msg.c ****             /* delete the recvmbox and allocate the acceptmbox */
1490:Middlewares/Third_Party/LwIP/src/api/api_msg.c ****             if (sys_mbox_valid(&msg->conn->recvmbox)) {
1491:Middlewares/Third_Party/LwIP/src/api/api_msg.c ****               /** @todo: should we drain the recvmbox here? */
1492:Middlewares/Third_Party/LwIP/src/api/api_msg.c ****               sys_mbox_free(&msg->conn->recvmbox);
1493:Middlewares/Third_Party/LwIP/src/api/api_msg.c ****               sys_mbox_set_invalid(&msg->conn->recvmbox);
1494:Middlewares/Third_Party/LwIP/src/api/api_msg.c ****             }
1495:Middlewares/Third_Party/LwIP/src/api/api_msg.c ****             err = ERR_OK;
1496:Middlewares/Third_Party/LwIP/src/api/api_msg.c ****             if (!sys_mbox_valid(&msg->conn->acceptmbox)) {
1497:Middlewares/Third_Party/LwIP/src/api/api_msg.c ****               err = sys_mbox_new(&msg->conn->acceptmbox, DEFAULT_ACCEPTMBOX_SIZE);
1498:Middlewares/Third_Party/LwIP/src/api/api_msg.c ****             }
1499:Middlewares/Third_Party/LwIP/src/api/api_msg.c ****             if (err == ERR_OK) {
1500:Middlewares/Third_Party/LwIP/src/api/api_msg.c ****               msg->conn->state = NETCONN_LISTEN;
1501:Middlewares/Third_Party/LwIP/src/api/api_msg.c ****               msg->conn->pcb.tcp = lpcb;
1502:Middlewares/Third_Party/LwIP/src/api/api_msg.c ****               tcp_arg(msg->conn->pcb.tcp, msg->conn);
1503:Middlewares/Third_Party/LwIP/src/api/api_msg.c ****               tcp_accept(msg->conn->pcb.tcp, accept_function);
1504:Middlewares/Third_Party/LwIP/src/api/api_msg.c ****             } else {
1505:Middlewares/Third_Party/LwIP/src/api/api_msg.c ****               /* since the old pcb is already deallocated, free lpcb now */
1506:Middlewares/Third_Party/LwIP/src/api/api_msg.c ****               tcp_close(lpcb);
1507:Middlewares/Third_Party/LwIP/src/api/api_msg.c ****               msg->conn->pcb.tcp = NULL;
1508:Middlewares/Third_Party/LwIP/src/api/api_msg.c ****             }
1509:Middlewares/Third_Party/LwIP/src/api/api_msg.c ****           }
1510:Middlewares/Third_Party/LwIP/src/api/api_msg.c ****         }
1511:Middlewares/Third_Party/LwIP/src/api/api_msg.c ****       } else if (msg->conn->state == NETCONN_LISTEN) {
1512:Middlewares/Third_Party/LwIP/src/api/api_msg.c ****         /* already listening, allow updating of the backlog */
1513:Middlewares/Third_Party/LwIP/src/api/api_msg.c ****         err = ERR_OK;
1514:Middlewares/Third_Party/LwIP/src/api/api_msg.c ****         tcp_backlog_set(msg->conn->pcb.tcp, msg->msg.lb.backlog);
1515:Middlewares/Third_Party/LwIP/src/api/api_msg.c ****       } else {
1516:Middlewares/Third_Party/LwIP/src/api/api_msg.c ****         err = ERR_CONN;
1517:Middlewares/Third_Party/LwIP/src/api/api_msg.c ****       }
1518:Middlewares/Third_Party/LwIP/src/api/api_msg.c ****     } else {
1519:Middlewares/Third_Party/LwIP/src/api/api_msg.c ****       err = ERR_ARG;
1520:Middlewares/Third_Party/LwIP/src/api/api_msg.c ****     }
1521:Middlewares/Third_Party/LwIP/src/api/api_msg.c ****   } else {
1522:Middlewares/Third_Party/LwIP/src/api/api_msg.c ****     err = ERR_CONN;
ARM GAS  C:\Users\hh\AppData\Local\Temp\ccfq6ENc.s 			page 46


1523:Middlewares/Third_Party/LwIP/src/api/api_msg.c ****   }
1524:Middlewares/Third_Party/LwIP/src/api/api_msg.c ****   msg->err = err;
1525:Middlewares/Third_Party/LwIP/src/api/api_msg.c ****   TCPIP_APIMSG_ACK(msg);
1526:Middlewares/Third_Party/LwIP/src/api/api_msg.c **** }
1527:Middlewares/Third_Party/LwIP/src/api/api_msg.c **** #endif /* LWIP_TCP */
1528:Middlewares/Third_Party/LwIP/src/api/api_msg.c **** 
1529:Middlewares/Third_Party/LwIP/src/api/api_msg.c **** /**
1530:Middlewares/Third_Party/LwIP/src/api/api_msg.c ****  * Send some data on a RAW or UDP pcb contained in a netconn
1531:Middlewares/Third_Party/LwIP/src/api/api_msg.c ****  * Called from netconn_send
1532:Middlewares/Third_Party/LwIP/src/api/api_msg.c ****  *
1533:Middlewares/Third_Party/LwIP/src/api/api_msg.c ****  * @param m the api_msg pointing to the connection
1534:Middlewares/Third_Party/LwIP/src/api/api_msg.c ****  */
1535:Middlewares/Third_Party/LwIP/src/api/api_msg.c **** void
1536:Middlewares/Third_Party/LwIP/src/api/api_msg.c **** lwip_netconn_do_send(void *m)
1537:Middlewares/Third_Party/LwIP/src/api/api_msg.c **** {
1538:Middlewares/Third_Party/LwIP/src/api/api_msg.c ****   struct api_msg *msg = (struct api_msg *)m;
1539:Middlewares/Third_Party/LwIP/src/api/api_msg.c **** 
1540:Middlewares/Third_Party/LwIP/src/api/api_msg.c ****   err_t err = netconn_err(msg->conn);
1541:Middlewares/Third_Party/LwIP/src/api/api_msg.c ****   if (err == ERR_OK) {
1542:Middlewares/Third_Party/LwIP/src/api/api_msg.c ****     if (msg->conn->pcb.tcp != NULL) {
1543:Middlewares/Third_Party/LwIP/src/api/api_msg.c ****       switch (NETCONNTYPE_GROUP(msg->conn->type)) {
1544:Middlewares/Third_Party/LwIP/src/api/api_msg.c **** #if LWIP_RAW
1545:Middlewares/Third_Party/LwIP/src/api/api_msg.c ****         case NETCONN_RAW:
1546:Middlewares/Third_Party/LwIP/src/api/api_msg.c ****           if (ip_addr_isany(&msg->msg.b->addr) || IP_IS_ANY_TYPE_VAL(msg->msg.b->addr)) {
1547:Middlewares/Third_Party/LwIP/src/api/api_msg.c ****             err = raw_send(msg->conn->pcb.raw, msg->msg.b->p);
1548:Middlewares/Third_Party/LwIP/src/api/api_msg.c ****           } else {
1549:Middlewares/Third_Party/LwIP/src/api/api_msg.c ****             err = raw_sendto(msg->conn->pcb.raw, msg->msg.b->p, &msg->msg.b->addr);
1550:Middlewares/Third_Party/LwIP/src/api/api_msg.c ****           }
1551:Middlewares/Third_Party/LwIP/src/api/api_msg.c ****           break;
1552:Middlewares/Third_Party/LwIP/src/api/api_msg.c **** #endif
1553:Middlewares/Third_Party/LwIP/src/api/api_msg.c **** #if LWIP_UDP
1554:Middlewares/Third_Party/LwIP/src/api/api_msg.c ****         case NETCONN_UDP:
1555:Middlewares/Third_Party/LwIP/src/api/api_msg.c **** #if LWIP_CHECKSUM_ON_COPY
1556:Middlewares/Third_Party/LwIP/src/api/api_msg.c ****           if (ip_addr_isany(&msg->msg.b->addr) || IP_IS_ANY_TYPE_VAL(msg->msg.b->addr)) {
1557:Middlewares/Third_Party/LwIP/src/api/api_msg.c ****             err = udp_send_chksum(msg->conn->pcb.udp, msg->msg.b->p,
1558:Middlewares/Third_Party/LwIP/src/api/api_msg.c ****                                   msg->msg.b->flags & NETBUF_FLAG_CHKSUM, msg->msg.b->toport_chksum
1559:Middlewares/Third_Party/LwIP/src/api/api_msg.c ****           } else {
1560:Middlewares/Third_Party/LwIP/src/api/api_msg.c ****             err = udp_sendto_chksum(msg->conn->pcb.udp, msg->msg.b->p,
1561:Middlewares/Third_Party/LwIP/src/api/api_msg.c ****                                     &msg->msg.b->addr, msg->msg.b->port,
1562:Middlewares/Third_Party/LwIP/src/api/api_msg.c ****                                     msg->msg.b->flags & NETBUF_FLAG_CHKSUM, msg->msg.b->toport_chks
1563:Middlewares/Third_Party/LwIP/src/api/api_msg.c ****           }
1564:Middlewares/Third_Party/LwIP/src/api/api_msg.c **** #else /* LWIP_CHECKSUM_ON_COPY */
1565:Middlewares/Third_Party/LwIP/src/api/api_msg.c ****           if (ip_addr_isany_val(msg->msg.b->addr) || IP_IS_ANY_TYPE_VAL(msg->msg.b->addr)) {
1566:Middlewares/Third_Party/LwIP/src/api/api_msg.c ****             err = udp_send(msg->conn->pcb.udp, msg->msg.b->p);
1567:Middlewares/Third_Party/LwIP/src/api/api_msg.c ****           } else {
1568:Middlewares/Third_Party/LwIP/src/api/api_msg.c ****             err = udp_sendto(msg->conn->pcb.udp, msg->msg.b->p, &msg->msg.b->addr, msg->msg.b->port
1569:Middlewares/Third_Party/LwIP/src/api/api_msg.c ****           }
1570:Middlewares/Third_Party/LwIP/src/api/api_msg.c **** #endif /* LWIP_CHECKSUM_ON_COPY */
1571:Middlewares/Third_Party/LwIP/src/api/api_msg.c ****           break;
1572:Middlewares/Third_Party/LwIP/src/api/api_msg.c **** #endif /* LWIP_UDP */
1573:Middlewares/Third_Party/LwIP/src/api/api_msg.c ****         default:
1574:Middlewares/Third_Party/LwIP/src/api/api_msg.c ****           err = ERR_CONN;
1575:Middlewares/Third_Party/LwIP/src/api/api_msg.c ****           break;
1576:Middlewares/Third_Party/LwIP/src/api/api_msg.c ****       }
1577:Middlewares/Third_Party/LwIP/src/api/api_msg.c ****     } else {
1578:Middlewares/Third_Party/LwIP/src/api/api_msg.c ****       err = ERR_CONN;
1579:Middlewares/Third_Party/LwIP/src/api/api_msg.c ****     }
ARM GAS  C:\Users\hh\AppData\Local\Temp\ccfq6ENc.s 			page 47


1580:Middlewares/Third_Party/LwIP/src/api/api_msg.c ****   }
1581:Middlewares/Third_Party/LwIP/src/api/api_msg.c ****   msg->err = err;
1582:Middlewares/Third_Party/LwIP/src/api/api_msg.c ****   TCPIP_APIMSG_ACK(msg);
1583:Middlewares/Third_Party/LwIP/src/api/api_msg.c **** }
1584:Middlewares/Third_Party/LwIP/src/api/api_msg.c **** 
1585:Middlewares/Third_Party/LwIP/src/api/api_msg.c **** #if LWIP_TCP
1586:Middlewares/Third_Party/LwIP/src/api/api_msg.c **** /**
1587:Middlewares/Third_Party/LwIP/src/api/api_msg.c ****  * Indicate data has been received from a TCP pcb contained in a netconn
1588:Middlewares/Third_Party/LwIP/src/api/api_msg.c ****  * Called from netconn_recv
1589:Middlewares/Third_Party/LwIP/src/api/api_msg.c ****  *
1590:Middlewares/Third_Party/LwIP/src/api/api_msg.c ****  * @param m the api_msg pointing to the connection
1591:Middlewares/Third_Party/LwIP/src/api/api_msg.c ****  */
1592:Middlewares/Third_Party/LwIP/src/api/api_msg.c **** void
1593:Middlewares/Third_Party/LwIP/src/api/api_msg.c **** lwip_netconn_do_recv(void *m)
1594:Middlewares/Third_Party/LwIP/src/api/api_msg.c **** {
1595:Middlewares/Third_Party/LwIP/src/api/api_msg.c ****   struct api_msg *msg = (struct api_msg *)m;
1596:Middlewares/Third_Party/LwIP/src/api/api_msg.c **** 
1597:Middlewares/Third_Party/LwIP/src/api/api_msg.c ****   msg->err = ERR_OK;
1598:Middlewares/Third_Party/LwIP/src/api/api_msg.c ****   if (msg->conn->pcb.tcp != NULL) {
1599:Middlewares/Third_Party/LwIP/src/api/api_msg.c ****     if (NETCONNTYPE_GROUP(msg->conn->type) == NETCONN_TCP) {
1600:Middlewares/Third_Party/LwIP/src/api/api_msg.c ****       size_t remaining = msg->msg.r.len;
1601:Middlewares/Third_Party/LwIP/src/api/api_msg.c ****       do {
1602:Middlewares/Third_Party/LwIP/src/api/api_msg.c ****         u16_t recved = (u16_t)((remaining > 0xffff) ? 0xffff : remaining);
1603:Middlewares/Third_Party/LwIP/src/api/api_msg.c ****         tcp_recved(msg->conn->pcb.tcp, recved);
1604:Middlewares/Third_Party/LwIP/src/api/api_msg.c ****         remaining -= recved;
1605:Middlewares/Third_Party/LwIP/src/api/api_msg.c ****       } while (remaining != 0);
1606:Middlewares/Third_Party/LwIP/src/api/api_msg.c ****     }
1607:Middlewares/Third_Party/LwIP/src/api/api_msg.c ****   }
1608:Middlewares/Third_Party/LwIP/src/api/api_msg.c ****   TCPIP_APIMSG_ACK(msg);
1609:Middlewares/Third_Party/LwIP/src/api/api_msg.c **** }
1610:Middlewares/Third_Party/LwIP/src/api/api_msg.c **** 
1611:Middlewares/Third_Party/LwIP/src/api/api_msg.c **** #if TCP_LISTEN_BACKLOG
1612:Middlewares/Third_Party/LwIP/src/api/api_msg.c **** /** Indicate that a TCP pcb has been accepted
1613:Middlewares/Third_Party/LwIP/src/api/api_msg.c ****  * Called from netconn_accept
1614:Middlewares/Third_Party/LwIP/src/api/api_msg.c ****  *
1615:Middlewares/Third_Party/LwIP/src/api/api_msg.c ****  * @param m the api_msg pointing to the connection
1616:Middlewares/Third_Party/LwIP/src/api/api_msg.c ****  */
1617:Middlewares/Third_Party/LwIP/src/api/api_msg.c **** void
1618:Middlewares/Third_Party/LwIP/src/api/api_msg.c **** lwip_netconn_do_accepted(void *m)
1619:Middlewares/Third_Party/LwIP/src/api/api_msg.c **** {
1620:Middlewares/Third_Party/LwIP/src/api/api_msg.c ****   struct api_msg *msg = (struct api_msg *)m;
1621:Middlewares/Third_Party/LwIP/src/api/api_msg.c **** 
1622:Middlewares/Third_Party/LwIP/src/api/api_msg.c ****   msg->err = ERR_OK;
1623:Middlewares/Third_Party/LwIP/src/api/api_msg.c ****   if (msg->conn->pcb.tcp != NULL) {
1624:Middlewares/Third_Party/LwIP/src/api/api_msg.c ****     if (NETCONNTYPE_GROUP(msg->conn->type) == NETCONN_TCP) {
1625:Middlewares/Third_Party/LwIP/src/api/api_msg.c ****       tcp_backlog_accepted(msg->conn->pcb.tcp);
1626:Middlewares/Third_Party/LwIP/src/api/api_msg.c ****     }
1627:Middlewares/Third_Party/LwIP/src/api/api_msg.c ****   }
1628:Middlewares/Third_Party/LwIP/src/api/api_msg.c ****   TCPIP_APIMSG_ACK(msg);
1629:Middlewares/Third_Party/LwIP/src/api/api_msg.c **** }
1630:Middlewares/Third_Party/LwIP/src/api/api_msg.c **** #endif /* TCP_LISTEN_BACKLOG */
1631:Middlewares/Third_Party/LwIP/src/api/api_msg.c **** 
1632:Middlewares/Third_Party/LwIP/src/api/api_msg.c **** /**
1633:Middlewares/Third_Party/LwIP/src/api/api_msg.c ****  * See if more data needs to be written from a previous call to netconn_write.
1634:Middlewares/Third_Party/LwIP/src/api/api_msg.c ****  * Called initially from lwip_netconn_do_write. If the first call can't send all data
1635:Middlewares/Third_Party/LwIP/src/api/api_msg.c ****  * (because of low memory or empty send-buffer), this function is called again
1636:Middlewares/Third_Party/LwIP/src/api/api_msg.c ****  * from sent_tcp() or poll_tcp() to send more data. If all data is sent, the
ARM GAS  C:\Users\hh\AppData\Local\Temp\ccfq6ENc.s 			page 48


1637:Middlewares/Third_Party/LwIP/src/api/api_msg.c ****  * blocking application thread (waiting in netconn_write) is released.
1638:Middlewares/Third_Party/LwIP/src/api/api_msg.c ****  *
1639:Middlewares/Third_Party/LwIP/src/api/api_msg.c ****  * @param conn netconn (that is currently in state NETCONN_WRITE) to process
1640:Middlewares/Third_Party/LwIP/src/api/api_msg.c ****  * @return ERR_OK
1641:Middlewares/Third_Party/LwIP/src/api/api_msg.c ****  *         ERR_MEM if LWIP_TCPIP_CORE_LOCKING=1 and sending hasn't yet finished
1642:Middlewares/Third_Party/LwIP/src/api/api_msg.c ****  */
1643:Middlewares/Third_Party/LwIP/src/api/api_msg.c **** static err_t
1644:Middlewares/Third_Party/LwIP/src/api/api_msg.c **** lwip_netconn_do_writemore(struct netconn *conn  WRITE_DELAYED_PARAM)
1645:Middlewares/Third_Party/LwIP/src/api/api_msg.c **** {
 848              		.loc 1 1645 1 is_stmt 1 view -0
 849              		.cfi_startproc
 850              		@ args = 0, pretend = 0, frame = 0
 851              		@ frame_needed = 0, uses_anonymous_args = 0
 852              		.loc 1 1645 1 is_stmt 0 view .LVU232
 853 0000 2DE9F84F 		push	{r3, r4, r5, r6, r7, r8, r9, r10, fp, lr}
 854              	.LCFI7:
 855              		.cfi_def_cfa_offset 40
 856              		.cfi_offset 3, -40
 857              		.cfi_offset 4, -36
 858              		.cfi_offset 5, -32
 859              		.cfi_offset 6, -28
 860              		.cfi_offset 7, -24
 861              		.cfi_offset 8, -20
 862              		.cfi_offset 9, -16
 863              		.cfi_offset 10, -12
 864              		.cfi_offset 11, -8
 865              		.cfi_offset 14, -4
 866 0004 8B46     		mov	fp, r1
1646:Middlewares/Third_Party/LwIP/src/api/api_msg.c ****   err_t err;
 867              		.loc 1 1646 3 is_stmt 1 view .LVU233
1647:Middlewares/Third_Party/LwIP/src/api/api_msg.c ****   const void *dataptr;
 868              		.loc 1 1647 3 view .LVU234
1648:Middlewares/Third_Party/LwIP/src/api/api_msg.c ****   u16_t len, available;
 869              		.loc 1 1648 3 view .LVU235
1649:Middlewares/Third_Party/LwIP/src/api/api_msg.c ****   u8_t write_finished = 0;
 870              		.loc 1 1649 3 view .LVU236
 871              	.LVL78:
1650:Middlewares/Third_Party/LwIP/src/api/api_msg.c ****   size_t diff;
 872              		.loc 1 1650 3 view .LVU237
1651:Middlewares/Third_Party/LwIP/src/api/api_msg.c ****   u8_t dontblock;
 873              		.loc 1 1651 3 view .LVU238
1652:Middlewares/Third_Party/LwIP/src/api/api_msg.c ****   u8_t apiflags;
 874              		.loc 1 1652 3 view .LVU239
1653:Middlewares/Third_Party/LwIP/src/api/api_msg.c ****   u8_t write_more;
 875              		.loc 1 1653 3 view .LVU240
1654:Middlewares/Third_Party/LwIP/src/api/api_msg.c **** 
1655:Middlewares/Third_Party/LwIP/src/api/api_msg.c ****   LWIP_ASSERT("conn != NULL", conn != NULL);
 876              		.loc 1 1655 3 view .LVU241
 877              		.loc 1 1655 3 view .LVU242
 878 0006 0546     		mov	r5, r0
 879 0008 E8B1     		cbz	r0, .L115
 880              	.LVL79:
 881              	.L72:
 882              		.loc 1 1655 3 view .LVU243
 883              		.loc 1 1655 3 view .LVU244
1656:Middlewares/Third_Party/LwIP/src/api/api_msg.c ****   LWIP_ASSERT("conn->state == NETCONN_WRITE", (conn->state == NETCONN_WRITE));
 884              		.loc 1 1656 3 view .LVU245
ARM GAS  C:\Users\hh\AppData\Local\Temp\ccfq6ENc.s 			page 49


 885              		.loc 1 1656 3 view .LVU246
 886 000a 6B78     		ldrb	r3, [r5, #1]	@ zero_extendqisi2
 887 000c 012B     		cmp	r3, #1
 888 000e 22D1     		bne	.L116
 889              	.L73:
 890              		.loc 1 1656 3 view .LVU247
 891              		.loc 1 1656 3 view .LVU248
1657:Middlewares/Third_Party/LwIP/src/api/api_msg.c ****   LWIP_ASSERT("conn->current_msg != NULL", conn->current_msg != NULL);
 892              		.loc 1 1657 3 view .LVU249
 893              		.loc 1 1657 3 view .LVU250
 894 0010 2B6A     		ldr	r3, [r5, #32]
 895 0012 43B3     		cbz	r3, .L117
 896              	.L74:
 897              		.loc 1 1657 3 view .LVU251
 898              		.loc 1 1657 3 view .LVU252
1658:Middlewares/Third_Party/LwIP/src/api/api_msg.c ****   LWIP_ASSERT("conn->pcb.tcp != NULL", conn->pcb.tcp != NULL);
 899              		.loc 1 1658 3 view .LVU253
 900              		.loc 1 1658 3 view .LVU254
 901 0014 6B68     		ldr	r3, [r5, #4]
 902 0016 002B     		cmp	r3, #0
 903 0018 2DD0     		beq	.L118
 904              	.L75:
 905              		.loc 1 1658 3 view .LVU255
 906              		.loc 1 1658 3 view .LVU256
1659:Middlewares/Third_Party/LwIP/src/api/api_msg.c ****   LWIP_ASSERT("conn->current_msg->msg.w.offset < conn->current_msg->msg.w.len",
 907              		.loc 1 1659 3 view .LVU257
 908              		.loc 1 1659 3 view .LVU258
 909 001a 2B6A     		ldr	r3, [r5, #32]
 910 001c 9A69     		ldr	r2, [r3, #24]
 911 001e 5B69     		ldr	r3, [r3, #20]
 912 0020 9A42     		cmp	r2, r3
 913 0022 30D2     		bcs	.L119
 914              	.L76:
 915              		.loc 1 1659 3 view .LVU259
 916              		.loc 1 1659 3 view .LVU260
1660:Middlewares/Third_Party/LwIP/src/api/api_msg.c ****               conn->current_msg->msg.w.offset < conn->current_msg->msg.w.len);
1661:Middlewares/Third_Party/LwIP/src/api/api_msg.c ****   LWIP_ASSERT("conn->current_msg->msg.w.vector_cnt > 0", conn->current_msg->msg.w.vector_cnt > 0);
 917              		.loc 1 1661 3 view .LVU261
 918              		.loc 1 1661 3 view .LVU262
 919 0024 2B6A     		ldr	r3, [r5, #32]
 920 0026 9B89     		ldrh	r3, [r3, #12]
 921 0028 002B     		cmp	r3, #0
 922 002a 34D0     		beq	.L120
 923              	.L77:
 924              		.loc 1 1661 3 view .LVU263
 925              		.loc 1 1661 3 view .LVU264
1662:Middlewares/Third_Party/LwIP/src/api/api_msg.c **** 
1663:Middlewares/Third_Party/LwIP/src/api/api_msg.c ****   apiflags = conn->current_msg->msg.w.apiflags;
 926              		.loc 1 1663 3 view .LVU265
 927              		.loc 1 1663 18 is_stmt 0 view .LVU266
 928 002c 2B6A     		ldr	r3, [r5, #32]
 929              		.loc 1 1663 12 view .LVU267
 930 002e 93F81C80 		ldrb	r8, [r3, #28]	@ zero_extendqisi2
 931              	.LVL80:
1664:Middlewares/Third_Party/LwIP/src/api/api_msg.c ****   dontblock = netconn_is_nonblocking(conn) || (apiflags & NETCONN_DONTBLOCK);
 932              		.loc 1 1664 3 is_stmt 1 view .LVU268
 933              		.loc 1 1664 15 is_stmt 0 view .LVU269
ARM GAS  C:\Users\hh\AppData\Local\Temp\ccfq6ENc.s 			page 50


 934 0032 2B7F     		ldrb	r3, [r5, #28]	@ zero_extendqisi2
 935              		.loc 1 1664 44 view .LVU270
 936 0034 13F0020F 		tst	r3, #2
 937 0038 35D1     		bne	.L101
 938              		.loc 1 1664 44 discriminator 2 view .LVU271
 939 003a 18F0040F 		tst	r8, #4
 940 003e 37D0     		beq	.L102
 941              		.loc 1 1664 44 discriminator 3 view .LVU272
 942 0040 4FF0010A 		mov	r10, #1
 943 0044 31E0     		b	.L78
 944              	.LVL81:
 945              	.L115:
1655:Middlewares/Third_Party/LwIP/src/api/api_msg.c ****   LWIP_ASSERT("conn->state == NETCONN_WRITE", (conn->state == NETCONN_WRITE));
 946              		.loc 1 1655 3 is_stmt 1 discriminator 1 view .LVU273
1655:Middlewares/Third_Party/LwIP/src/api/api_msg.c ****   LWIP_ASSERT("conn->state == NETCONN_WRITE", (conn->state == NETCONN_WRITE));
 947              		.loc 1 1655 3 discriminator 1 view .LVU274
 948 0046 8B4B     		ldr	r3, .L128
 949 0048 40F27762 		movw	r2, #1655
 950 004c 8A49     		ldr	r1, .L128+4
 951              	.LVL82:
1655:Middlewares/Third_Party/LwIP/src/api/api_msg.c ****   LWIP_ASSERT("conn->state == NETCONN_WRITE", (conn->state == NETCONN_WRITE));
 952              		.loc 1 1655 3 is_stmt 0 discriminator 1 view .LVU275
 953 004e 8B48     		ldr	r0, .L128+8
 954              	.LVL83:
1655:Middlewares/Third_Party/LwIP/src/api/api_msg.c ****   LWIP_ASSERT("conn->state == NETCONN_WRITE", (conn->state == NETCONN_WRITE));
 955              		.loc 1 1655 3 discriminator 1 view .LVU276
 956 0050 FFF7FEFF 		bl	printf
 957              	.LVL84:
 958 0054 D9E7     		b	.L72
 959              	.L116:
1656:Middlewares/Third_Party/LwIP/src/api/api_msg.c ****   LWIP_ASSERT("conn->current_msg != NULL", conn->current_msg != NULL);
 960              		.loc 1 1656 3 is_stmt 1 discriminator 1 view .LVU277
1656:Middlewares/Third_Party/LwIP/src/api/api_msg.c ****   LWIP_ASSERT("conn->current_msg != NULL", conn->current_msg != NULL);
 961              		.loc 1 1656 3 discriminator 1 view .LVU278
 962 0056 874B     		ldr	r3, .L128
 963 0058 4FF4CF62 		mov	r2, #1656
 964 005c 8849     		ldr	r1, .L128+12
 965 005e 8748     		ldr	r0, .L128+8
 966 0060 FFF7FEFF 		bl	printf
 967              	.LVL85:
 968 0064 D4E7     		b	.L73
 969              	.L117:
1657:Middlewares/Third_Party/LwIP/src/api/api_msg.c ****   LWIP_ASSERT("conn->pcb.tcp != NULL", conn->pcb.tcp != NULL);
 970              		.loc 1 1657 3 discriminator 1 view .LVU279
1657:Middlewares/Third_Party/LwIP/src/api/api_msg.c ****   LWIP_ASSERT("conn->pcb.tcp != NULL", conn->pcb.tcp != NULL);
 971              		.loc 1 1657 3 discriminator 1 view .LVU280
 972 0066 834B     		ldr	r3, .L128
 973 0068 40F27962 		movw	r2, #1657
 974 006c 8549     		ldr	r1, .L128+16
 975 006e 8348     		ldr	r0, .L128+8
 976 0070 FFF7FEFF 		bl	printf
 977              	.LVL86:
 978 0074 CEE7     		b	.L74
 979              	.L118:
1658:Middlewares/Third_Party/LwIP/src/api/api_msg.c ****   LWIP_ASSERT("conn->current_msg->msg.w.offset < conn->current_msg->msg.w.len",
 980              		.loc 1 1658 3 discriminator 1 view .LVU281
1658:Middlewares/Third_Party/LwIP/src/api/api_msg.c ****   LWIP_ASSERT("conn->current_msg->msg.w.offset < conn->current_msg->msg.w.len",
ARM GAS  C:\Users\hh\AppData\Local\Temp\ccfq6ENc.s 			page 51


 981              		.loc 1 1658 3 discriminator 1 view .LVU282
 982 0076 7F4B     		ldr	r3, .L128
 983 0078 40F27A62 		movw	r2, #1658
 984 007c 8249     		ldr	r1, .L128+20
 985 007e 7F48     		ldr	r0, .L128+8
 986 0080 FFF7FEFF 		bl	printf
 987              	.LVL87:
 988 0084 C9E7     		b	.L75
 989              	.L119:
1659:Middlewares/Third_Party/LwIP/src/api/api_msg.c ****               conn->current_msg->msg.w.offset < conn->current_msg->msg.w.len);
 990              		.loc 1 1659 3 discriminator 1 view .LVU283
1659:Middlewares/Third_Party/LwIP/src/api/api_msg.c ****               conn->current_msg->msg.w.offset < conn->current_msg->msg.w.len);
 991              		.loc 1 1659 3 discriminator 1 view .LVU284
 992 0086 7B4B     		ldr	r3, .L128
 993 0088 40F27B62 		movw	r2, #1659
 994 008c 7F49     		ldr	r1, .L128+24
 995 008e 7B48     		ldr	r0, .L128+8
 996 0090 FFF7FEFF 		bl	printf
 997              	.LVL88:
 998 0094 C6E7     		b	.L76
 999              	.L120:
1661:Middlewares/Third_Party/LwIP/src/api/api_msg.c **** 
 1000              		.loc 1 1661 3 discriminator 1 view .LVU285
1661:Middlewares/Third_Party/LwIP/src/api/api_msg.c **** 
 1001              		.loc 1 1661 3 discriminator 1 view .LVU286
 1002 0096 774B     		ldr	r3, .L128
 1003 0098 40F27D62 		movw	r2, #1661
 1004 009c 7C49     		ldr	r1, .L128+28
 1005 009e 7748     		ldr	r0, .L128+8
 1006 00a0 FFF7FEFF 		bl	printf
 1007              	.LVL89:
 1008 00a4 C2E7     		b	.L77
 1009              	.LVL90:
 1010              	.L101:
 1011              		.loc 1 1664 44 is_stmt 0 discriminator 3 view .LVU287
 1012 00a6 4FF0010A 		mov	r10, #1
 1013              	.L78:
 1014              		.loc 1 1664 13 discriminator 6 view .LVU288
 1015 00aa 5FFA8AFA 		uxtb	r10, r10
 1016              	.LVL91:
 1017              		.loc 1 1664 13 discriminator 6 view .LVU289
 1018 00ae 60E0     		b	.L89
 1019              	.LVL92:
 1020              	.L102:
 1021              		.loc 1 1664 44 discriminator 4 view .LVU290
 1022 00b0 4FF0000A 		mov	r10, #0
 1023 00b4 F9E7     		b	.L78
 1024              	.LVL93:
 1025              	.L79:
1665:Middlewares/Third_Party/LwIP/src/api/api_msg.c **** 
1666:Middlewares/Third_Party/LwIP/src/api/api_msg.c **** #if LWIP_SO_SNDTIMEO
1667:Middlewares/Third_Party/LwIP/src/api/api_msg.c ****   if ((conn->send_timeout != 0) &&
1668:Middlewares/Third_Party/LwIP/src/api/api_msg.c ****       ((s32_t)(sys_now() - conn->current_msg->msg.w.time_started) >= conn->send_timeout)) {
1669:Middlewares/Third_Party/LwIP/src/api/api_msg.c ****     write_finished = 1;
1670:Middlewares/Third_Party/LwIP/src/api/api_msg.c ****     if (conn->current_msg->msg.w.offset == 0) {
1671:Middlewares/Third_Party/LwIP/src/api/api_msg.c ****       /* nothing has been written */
1672:Middlewares/Third_Party/LwIP/src/api/api_msg.c ****       err = ERR_WOULDBLOCK;
ARM GAS  C:\Users\hh\AppData\Local\Temp\ccfq6ENc.s 			page 52


1673:Middlewares/Third_Party/LwIP/src/api/api_msg.c ****     } else {
1674:Middlewares/Third_Party/LwIP/src/api/api_msg.c ****       /* partial write */
1675:Middlewares/Third_Party/LwIP/src/api/api_msg.c ****       err = ERR_OK;
1676:Middlewares/Third_Party/LwIP/src/api/api_msg.c ****     }
1677:Middlewares/Third_Party/LwIP/src/api/api_msg.c ****   } else
1678:Middlewares/Third_Party/LwIP/src/api/api_msg.c **** #endif /* LWIP_SO_SNDTIMEO */
1679:Middlewares/Third_Party/LwIP/src/api/api_msg.c ****   {
1680:Middlewares/Third_Party/LwIP/src/api/api_msg.c ****     do {
1681:Middlewares/Third_Party/LwIP/src/api/api_msg.c ****       dataptr = (const u8_t *)conn->current_msg->msg.w.vector->ptr + conn->current_msg->msg.w.vecto
1682:Middlewares/Third_Party/LwIP/src/api/api_msg.c ****       diff = conn->current_msg->msg.w.vector->len - conn->current_msg->msg.w.vector_off;
1683:Middlewares/Third_Party/LwIP/src/api/api_msg.c ****       if (diff > 0xffffUL) { /* max_u16_t */
1684:Middlewares/Third_Party/LwIP/src/api/api_msg.c ****         len = 0xffff;
1685:Middlewares/Third_Party/LwIP/src/api/api_msg.c ****         apiflags |= TCP_WRITE_FLAG_MORE;
1686:Middlewares/Third_Party/LwIP/src/api/api_msg.c ****       } else {
1687:Middlewares/Third_Party/LwIP/src/api/api_msg.c ****         len = (u16_t)diff;
 1026              		.loc 1 1687 9 is_stmt 1 view .LVU291
 1027              		.loc 1 1687 13 is_stmt 0 view .LVU292
 1028 00b6 B4B2     		uxth	r4, r6
 1029 00b8 69E0     		b	.L80
 1030              	.LVL94:
 1031              	.L124:
1688:Middlewares/Third_Party/LwIP/src/api/api_msg.c ****       }
1689:Middlewares/Third_Party/LwIP/src/api/api_msg.c ****       available = tcp_sndbuf(conn->pcb.tcp);
1690:Middlewares/Third_Party/LwIP/src/api/api_msg.c ****       if (available < len) {
1691:Middlewares/Third_Party/LwIP/src/api/api_msg.c ****         /* don't try to write more than sendbuf */
1692:Middlewares/Third_Party/LwIP/src/api/api_msg.c ****         len = available;
1693:Middlewares/Third_Party/LwIP/src/api/api_msg.c ****         if (dontblock) {
1694:Middlewares/Third_Party/LwIP/src/api/api_msg.c ****           if (!len) {
1695:Middlewares/Third_Party/LwIP/src/api/api_msg.c ****             /* set error according to partial write or not */
1696:Middlewares/Third_Party/LwIP/src/api/api_msg.c ****             err = (conn->current_msg->msg.w.offset == 0) ? ERR_WOULDBLOCK : ERR_OK;
 1032              		.loc 1 1696 13 is_stmt 1 view .LVU293
 1033              		.loc 1 1696 44 is_stmt 0 view .LVU294
 1034 00ba 9369     		ldr	r3, [r2, #24]
 1035              		.loc 1 1696 17 view .LVU295
 1036 00bc B3B9     		cbnz	r3, .L104
 1037              		.loc 1 1696 17 discriminator 1 view .LVU296
 1038 00be 6FF00604 		mvn	r4, #6
 1039              	.LVL95:
 1040              	.L84:
1697:Middlewares/Third_Party/LwIP/src/api/api_msg.c ****             goto err_mem;
1698:Middlewares/Third_Party/LwIP/src/api/api_msg.c ****           }
1699:Middlewares/Third_Party/LwIP/src/api/api_msg.c ****         } else {
1700:Middlewares/Third_Party/LwIP/src/api/api_msg.c ****           apiflags |= TCP_WRITE_FLAG_MORE;
1701:Middlewares/Third_Party/LwIP/src/api/api_msg.c ****         }
1702:Middlewares/Third_Party/LwIP/src/api/api_msg.c ****       }
1703:Middlewares/Third_Party/LwIP/src/api/api_msg.c ****       LWIP_ASSERT("lwip_netconn_do_writemore: invalid length!",
1704:Middlewares/Third_Party/LwIP/src/api/api_msg.c ****                   ((conn->current_msg->msg.w.vector_off + len) <= conn->current_msg->msg.w.vector->
1705:Middlewares/Third_Party/LwIP/src/api/api_msg.c ****       /* we should loop around for more sending in the following cases:
1706:Middlewares/Third_Party/LwIP/src/api/api_msg.c ****            1) We couldn't finish the current vector because of 16-bit size limitations.
1707:Middlewares/Third_Party/LwIP/src/api/api_msg.c ****               tcp_write() and tcp_sndbuf() both are limited to 16-bit sizes
1708:Middlewares/Third_Party/LwIP/src/api/api_msg.c ****            2) We are sending the remainder of the current vector and have more */
1709:Middlewares/Third_Party/LwIP/src/api/api_msg.c ****       if ((len == 0xffff && diff > 0xffffUL) ||
1710:Middlewares/Third_Party/LwIP/src/api/api_msg.c ****           (len == (u16_t)diff && conn->current_msg->msg.w.vector_cnt > 1)) {
1711:Middlewares/Third_Party/LwIP/src/api/api_msg.c ****         write_more = 1;
1712:Middlewares/Third_Party/LwIP/src/api/api_msg.c ****         apiflags |= TCP_WRITE_FLAG_MORE;
1713:Middlewares/Third_Party/LwIP/src/api/api_msg.c ****       } else {
1714:Middlewares/Third_Party/LwIP/src/api/api_msg.c ****         write_more = 0;
ARM GAS  C:\Users\hh\AppData\Local\Temp\ccfq6ENc.s 			page 53


1715:Middlewares/Third_Party/LwIP/src/api/api_msg.c ****       }
1716:Middlewares/Third_Party/LwIP/src/api/api_msg.c ****       err = tcp_write(conn->pcb.tcp, dataptr, len, apiflags);
1717:Middlewares/Third_Party/LwIP/src/api/api_msg.c ****       if (err == ERR_OK) {
1718:Middlewares/Third_Party/LwIP/src/api/api_msg.c ****         conn->current_msg->msg.w.offset += len;
1719:Middlewares/Third_Party/LwIP/src/api/api_msg.c ****         conn->current_msg->msg.w.vector_off += len;
1720:Middlewares/Third_Party/LwIP/src/api/api_msg.c ****         /* check if current vector is finished */
1721:Middlewares/Third_Party/LwIP/src/api/api_msg.c ****         if (conn->current_msg->msg.w.vector_off == conn->current_msg->msg.w.vector->len) {
1722:Middlewares/Third_Party/LwIP/src/api/api_msg.c ****           conn->current_msg->msg.w.vector_cnt--;
1723:Middlewares/Third_Party/LwIP/src/api/api_msg.c ****           /* if we have additional vectors, move on to them */
1724:Middlewares/Third_Party/LwIP/src/api/api_msg.c ****           if (conn->current_msg->msg.w.vector_cnt > 0) {
1725:Middlewares/Third_Party/LwIP/src/api/api_msg.c ****             conn->current_msg->msg.w.vector++;
1726:Middlewares/Third_Party/LwIP/src/api/api_msg.c ****             conn->current_msg->msg.w.vector_off = 0;
1727:Middlewares/Third_Party/LwIP/src/api/api_msg.c ****           }
1728:Middlewares/Third_Party/LwIP/src/api/api_msg.c ****         }
1729:Middlewares/Third_Party/LwIP/src/api/api_msg.c ****       }
1730:Middlewares/Third_Party/LwIP/src/api/api_msg.c ****     } while (write_more && err == ERR_OK);
1731:Middlewares/Third_Party/LwIP/src/api/api_msg.c ****     /* if OK or memory error, check available space */
1732:Middlewares/Third_Party/LwIP/src/api/api_msg.c ****     if ((err == ERR_OK) || (err == ERR_MEM)) {
1733:Middlewares/Third_Party/LwIP/src/api/api_msg.c **** err_mem:
1734:Middlewares/Third_Party/LwIP/src/api/api_msg.c ****       if (dontblock && (conn->current_msg->msg.w.offset < conn->current_msg->msg.w.len)) {
 1041              		.loc 1 1734 7 is_stmt 1 view .LVU297
 1042              		.loc 1 1734 10 is_stmt 0 view .LVU298
 1043 00c2 BAF1000F 		cmp	r10, #0
 1044 00c6 00F09280 		beq	.L92
 1045              		.loc 1 1734 29 discriminator 1 view .LVU299
 1046 00ca 2B6A     		ldr	r3, [r5, #32]
 1047              		.loc 1 1734 49 discriminator 1 view .LVU300
 1048 00cc 9A69     		ldr	r2, [r3, #24]
 1049              		.loc 1 1734 83 discriminator 1 view .LVU301
 1050 00ce 5B69     		ldr	r3, [r3, #20]
 1051              		.loc 1 1734 21 discriminator 1 view .LVU302
 1052 00d0 9A42     		cmp	r2, r3
 1053 00d2 80F08C80 		bcs	.L92
1735:Middlewares/Third_Party/LwIP/src/api/api_msg.c ****         /* non-blocking write did not write everything: mark the pcb non-writable
1736:Middlewares/Third_Party/LwIP/src/api/api_msg.c ****            and let poll_tcp check writable space to mark the pcb writable again */
1737:Middlewares/Third_Party/LwIP/src/api/api_msg.c ****         API_EVENT(conn, NETCONN_EVT_SENDMINUS, 0);
 1054              		.loc 1 1737 9 is_stmt 1 view .LVU303
 1055 00d6 6B6A     		ldr	r3, [r5, #36]
 1056 00d8 1BB1     		cbz	r3, .L93
 1057              		.loc 1 1737 9 discriminator 1 view .LVU304
 1058 00da 0022     		movs	r2, #0
 1059 00dc 0321     		movs	r1, #3
 1060 00de 2846     		mov	r0, r5
 1061 00e0 9847     		blx	r3
 1062              	.LVL96:
 1063              	.L93:
 1064              		.loc 1 1737 50 view .LVU305
1738:Middlewares/Third_Party/LwIP/src/api/api_msg.c ****         conn->flags |= NETCONN_FLAG_CHECK_WRITESPACE;
 1065              		.loc 1 1738 9 view .LVU306
 1066              		.loc 1 1738 13 is_stmt 0 view .LVU307
 1067 00e2 2B7F     		ldrb	r3, [r5, #28]	@ zero_extendqisi2
 1068              		.loc 1 1738 21 view .LVU308
 1069 00e4 43F01003 		orr	r3, r3, #16
 1070 00e8 2B77     		strb	r3, [r5, #28]
 1071 00ea 90E0     		b	.L94
 1072              	.LVL97:
 1073              	.L104:
ARM GAS  C:\Users\hh\AppData\Local\Temp\ccfq6ENc.s 			page 54


1696:Middlewares/Third_Party/LwIP/src/api/api_msg.c ****             goto err_mem;
 1074              		.loc 1 1696 17 discriminator 2 view .LVU309
 1075 00ec 0024     		movs	r4, #0
 1076              	.LVL98:
1697:Middlewares/Third_Party/LwIP/src/api/api_msg.c ****           }
 1077              		.loc 1 1697 13 is_stmt 1 view .LVU310
 1078 00ee E8E7     		b	.L84
 1079              	.LVL99:
 1080              	.L82:
1700:Middlewares/Third_Party/LwIP/src/api/api_msg.c ****         }
 1081              		.loc 1 1700 11 view .LVU311
1700:Middlewares/Third_Party/LwIP/src/api/api_msg.c ****         }
 1082              		.loc 1 1700 20 is_stmt 0 view .LVU312
 1083 00f0 48F00208 		orr	r8, r8, #2
 1084              	.LVL100:
1692:Middlewares/Third_Party/LwIP/src/api/api_msg.c ****         if (dontblock) {
 1085              		.loc 1 1692 13 view .LVU313
 1086 00f4 0446     		mov	r4, r0
 1087              	.LVL101:
 1088              	.L81:
1703:Middlewares/Third_Party/LwIP/src/api/api_msg.c ****                   ((conn->current_msg->msg.w.vector_off + len) <= conn->current_msg->msg.w.vector->
 1089              		.loc 1 1703 7 is_stmt 1 view .LVU314
1703:Middlewares/Third_Party/LwIP/src/api/api_msg.c ****                   ((conn->current_msg->msg.w.vector_off + len) <= conn->current_msg->msg.w.vector->
 1090              		.loc 1 1703 7 view .LVU315
 1091 00f6 A146     		mov	r9, r4
 1092 00f8 2344     		add	r3, r3, r4
 1093 00fa 9942     		cmp	r1, r3
 1094 00fc 0ED3     		bcc	.L121
 1095              	.LVL102:
 1096              	.L85:
1703:Middlewares/Third_Party/LwIP/src/api/api_msg.c ****                   ((conn->current_msg->msg.w.vector_off + len) <= conn->current_msg->msg.w.vector->
 1097              		.loc 1 1703 7 view .LVU316
1703:Middlewares/Third_Party/LwIP/src/api/api_msg.c ****                   ((conn->current_msg->msg.w.vector_off + len) <= conn->current_msg->msg.w.vector->
 1098              		.loc 1 1703 7 view .LVU317
1709:Middlewares/Third_Party/LwIP/src/api/api_msg.c ****           (len == (u16_t)diff && conn->current_msg->msg.w.vector_cnt > 1)) {
 1099              		.loc 1 1709 7 view .LVU318
1709:Middlewares/Third_Party/LwIP/src/api/api_msg.c ****           (len == (u16_t)diff && conn->current_msg->msg.w.vector_cnt > 1)) {
 1100              		.loc 1 1709 16 is_stmt 0 view .LVU319
 1101 00fe 4FF6FF73 		movw	r3, #65535
1709:Middlewares/Third_Party/LwIP/src/api/api_msg.c ****           (len == (u16_t)diff && conn->current_msg->msg.w.vector_cnt > 1)) {
 1102              		.loc 1 1709 26 view .LVU320
 1103 0102 9C42     		cmp	r4, r3
 1104 0104 14BF     		ite	ne
 1105 0106 0022     		movne	r2, #0
 1106 0108 0122     		moveq	r2, #1
 1107 010a 9E42     		cmp	r6, r3
 1108 010c 98BF     		it	ls
 1109 010e 0022     		movls	r2, #0
1709:Middlewares/Third_Party/LwIP/src/api/api_msg.c ****           (len == (u16_t)diff && conn->current_msg->msg.w.vector_cnt > 1)) {
 1110              		.loc 1 1709 10 view .LVU321
 1111 0110 82B9     		cbnz	r2, .L86
1710:Middlewares/Third_Party/LwIP/src/api/api_msg.c ****         write_more = 1;
 1112              		.loc 1 1710 19 view .LVU322
 1113 0112 B6B2     		uxth	r6, r6
 1114              	.LVL103:
1709:Middlewares/Third_Party/LwIP/src/api/api_msg.c ****           (len == (u16_t)diff && conn->current_msg->msg.w.vector_cnt > 1)) {
 1115              		.loc 1 1709 46 discriminator 1 view .LVU323
ARM GAS  C:\Users\hh\AppData\Local\Temp\ccfq6ENc.s 			page 55


 1116 0114 A642     		cmp	r6, r4
 1117 0116 09D0     		beq	.L122
1714:Middlewares/Third_Party/LwIP/src/api/api_msg.c ****       }
 1118              		.loc 1 1714 20 view .LVU324
 1119 0118 0026     		movs	r6, #0
 1120 011a 0EE0     		b	.L87
 1121              	.LVL104:
 1122              	.L121:
1703:Middlewares/Third_Party/LwIP/src/api/api_msg.c ****                   ((conn->current_msg->msg.w.vector_off + len) <= conn->current_msg->msg.w.vector->
 1123              		.loc 1 1703 7 is_stmt 1 discriminator 1 view .LVU325
1703:Middlewares/Third_Party/LwIP/src/api/api_msg.c ****                   ((conn->current_msg->msg.w.vector_off + len) <= conn->current_msg->msg.w.vector->
 1124              		.loc 1 1703 7 discriminator 1 view .LVU326
 1125 011c 554B     		ldr	r3, .L128
 1126 011e 40F2A762 		movw	r2, #1703
 1127 0122 5C49     		ldr	r1, .L128+32
 1128 0124 5548     		ldr	r0, .L128+8
 1129              	.LVL105:
1703:Middlewares/Third_Party/LwIP/src/api/api_msg.c ****                   ((conn->current_msg->msg.w.vector_off + len) <= conn->current_msg->msg.w.vector->
 1130              		.loc 1 1703 7 is_stmt 0 discriminator 1 view .LVU327
 1131 0126 FFF7FEFF 		bl	printf
 1132              	.LVL106:
1703:Middlewares/Third_Party/LwIP/src/api/api_msg.c ****                   ((conn->current_msg->msg.w.vector_off + len) <= conn->current_msg->msg.w.vector->
 1133              		.loc 1 1703 7 discriminator 1 view .LVU328
 1134 012a E8E7     		b	.L85
 1135              	.LVL107:
 1136              	.L122:
1710:Middlewares/Third_Party/LwIP/src/api/api_msg.c ****         write_more = 1;
 1137              		.loc 1 1710 38 view .LVU329
 1138 012c 2B6A     		ldr	r3, [r5, #32]
1710:Middlewares/Third_Party/LwIP/src/api/api_msg.c ****         write_more = 1;
 1139              		.loc 1 1710 58 view .LVU330
 1140 012e 9B89     		ldrh	r3, [r3, #12]
1710:Middlewares/Third_Party/LwIP/src/api/api_msg.c ****         write_more = 1;
 1141              		.loc 1 1710 31 view .LVU331
 1142 0130 012B     		cmp	r3, #1
 1143 0132 38D9     		bls	.L106
 1144              	.L86:
1711:Middlewares/Third_Party/LwIP/src/api/api_msg.c ****         apiflags |= TCP_WRITE_FLAG_MORE;
 1145              		.loc 1 1711 9 is_stmt 1 view .LVU332
 1146              	.LVL108:
1712:Middlewares/Third_Party/LwIP/src/api/api_msg.c ****       } else {
 1147              		.loc 1 1712 9 view .LVU333
1712:Middlewares/Third_Party/LwIP/src/api/api_msg.c ****       } else {
 1148              		.loc 1 1712 18 is_stmt 0 view .LVU334
 1149 0134 48F00208 		orr	r8, r8, #2
 1150              	.LVL109:
1711:Middlewares/Third_Party/LwIP/src/api/api_msg.c ****         apiflags |= TCP_WRITE_FLAG_MORE;
 1151              		.loc 1 1711 20 view .LVU335
 1152 0138 0126     		movs	r6, #1
 1153              	.LVL110:
 1154              	.L87:
1716:Middlewares/Third_Party/LwIP/src/api/api_msg.c ****       if (err == ERR_OK) {
 1155              		.loc 1 1716 7 is_stmt 1 view .LVU336
1716:Middlewares/Third_Party/LwIP/src/api/api_msg.c ****       if (err == ERR_OK) {
 1156              		.loc 1 1716 13 is_stmt 0 view .LVU337
 1157 013a 4346     		mov	r3, r8
 1158 013c 2246     		mov	r2, r4
ARM GAS  C:\Users\hh\AppData\Local\Temp\ccfq6ENc.s 			page 56


 1159 013e 3946     		mov	r1, r7
 1160 0140 6868     		ldr	r0, [r5, #4]
 1161 0142 FFF7FEFF 		bl	tcp_write
 1162              	.LVL111:
1717:Middlewares/Third_Party/LwIP/src/api/api_msg.c ****         conn->current_msg->msg.w.offset += len;
 1163              		.loc 1 1717 7 is_stmt 1 view .LVU338
1717:Middlewares/Third_Party/LwIP/src/api/api_msg.c ****         conn->current_msg->msg.w.offset += len;
 1164              		.loc 1 1717 10 is_stmt 0 view .LVU339
 1165 0146 0446     		mov	r4, r0
 1166              	.LVL112:
1717:Middlewares/Third_Party/LwIP/src/api/api_msg.c ****         conn->current_msg->msg.w.offset += len;
 1167              		.loc 1 1717 10 view .LVU340
 1168 0148 68B9     		cbnz	r0, .L88
1718:Middlewares/Third_Party/LwIP/src/api/api_msg.c ****         conn->current_msg->msg.w.vector_off += len;
 1169              		.loc 1 1718 9 is_stmt 1 view .LVU341
1718:Middlewares/Third_Party/LwIP/src/api/api_msg.c ****         conn->current_msg->msg.w.vector_off += len;
 1170              		.loc 1 1718 13 is_stmt 0 view .LVU342
 1171 014a 2A6A     		ldr	r2, [r5, #32]
1718:Middlewares/Third_Party/LwIP/src/api/api_msg.c ****         conn->current_msg->msg.w.vector_off += len;
 1172              		.loc 1 1718 33 view .LVU343
 1173 014c 9369     		ldr	r3, [r2, #24]
1718:Middlewares/Third_Party/LwIP/src/api/api_msg.c ****         conn->current_msg->msg.w.vector_off += len;
 1174              		.loc 1 1718 41 view .LVU344
 1175 014e 4B44     		add	r3, r3, r9
 1176 0150 9361     		str	r3, [r2, #24]
1719:Middlewares/Third_Party/LwIP/src/api/api_msg.c ****         /* check if current vector is finished */
 1177              		.loc 1 1719 9 is_stmt 1 view .LVU345
1719:Middlewares/Third_Party/LwIP/src/api/api_msg.c ****         /* check if current vector is finished */
 1178              		.loc 1 1719 13 is_stmt 0 view .LVU346
 1179 0152 2A6A     		ldr	r2, [r5, #32]
1719:Middlewares/Third_Party/LwIP/src/api/api_msg.c ****         /* check if current vector is finished */
 1180              		.loc 1 1719 33 view .LVU347
 1181 0154 1369     		ldr	r3, [r2, #16]
1719:Middlewares/Third_Party/LwIP/src/api/api_msg.c ****         /* check if current vector is finished */
 1182              		.loc 1 1719 45 view .LVU348
 1183 0156 4B44     		add	r3, r3, r9
 1184 0158 1361     		str	r3, [r2, #16]
1721:Middlewares/Third_Party/LwIP/src/api/api_msg.c ****           conn->current_msg->msg.w.vector_cnt--;
 1185              		.loc 1 1721 9 is_stmt 1 view .LVU349
1721:Middlewares/Third_Party/LwIP/src/api/api_msg.c ****           conn->current_msg->msg.w.vector_cnt--;
 1186              		.loc 1 1721 17 is_stmt 0 view .LVU350
 1187 015a 2B6A     		ldr	r3, [r5, #32]
1721:Middlewares/Third_Party/LwIP/src/api/api_msg.c ****           conn->current_msg->msg.w.vector_cnt--;
 1188              		.loc 1 1721 37 view .LVU351
 1189 015c 1969     		ldr	r1, [r3, #16]
1721:Middlewares/Third_Party/LwIP/src/api/api_msg.c ****           conn->current_msg->msg.w.vector_cnt--;
 1190              		.loc 1 1721 76 view .LVU352
 1191 015e 9A68     		ldr	r2, [r3, #8]
1721:Middlewares/Third_Party/LwIP/src/api/api_msg.c ****           conn->current_msg->msg.w.vector_cnt--;
 1192              		.loc 1 1721 83 view .LVU353
 1193 0160 5268     		ldr	r2, [r2, #4]
1721:Middlewares/Third_Party/LwIP/src/api/api_msg.c ****           conn->current_msg->msg.w.vector_cnt--;
 1194              		.loc 1 1721 12 view .LVU354
 1195 0162 9142     		cmp	r1, r2
 1196 0164 21D0     		beq	.L123
 1197              	.L88:
1730:Middlewares/Third_Party/LwIP/src/api/api_msg.c ****     /* if OK or memory error, check available space */
ARM GAS  C:\Users\hh\AppData\Local\Temp\ccfq6ENc.s 			page 57


 1198              		.loc 1 1730 25 is_stmt 1 view .LVU355
1730:Middlewares/Third_Party/LwIP/src/api/api_msg.c ****     /* if OK or memory error, check available space */
 1199              		.loc 1 1730 32 is_stmt 0 view .LVU356
 1200 0166 B4FA84F3 		clz	r3, r4
 1201 016a 5B09     		lsrs	r3, r3, #5
1730:Middlewares/Third_Party/LwIP/src/api/api_msg.c ****     /* if OK or memory error, check available space */
 1202              		.loc 1 1730 25 view .LVU357
 1203 016c 002E     		cmp	r6, #0
 1204 016e 29D0     		beq	.L112
 1205 0170 43B3     		cbz	r3, .L112
 1206              	.LVL113:
 1207              	.L89:
1680:Middlewares/Third_Party/LwIP/src/api/api_msg.c ****       dataptr = (const u8_t *)conn->current_msg->msg.w.vector->ptr + conn->current_msg->msg.w.vecto
 1208              		.loc 1 1680 5 is_stmt 1 view .LVU358
1681:Middlewares/Third_Party/LwIP/src/api/api_msg.c ****       diff = conn->current_msg->msg.w.vector->len - conn->current_msg->msg.w.vector_off;
 1209              		.loc 1 1681 7 view .LVU359
1681:Middlewares/Third_Party/LwIP/src/api/api_msg.c ****       diff = conn->current_msg->msg.w.vector->len - conn->current_msg->msg.w.vector_off;
 1210              		.loc 1 1681 35 is_stmt 0 view .LVU360
 1211 0172 2A6A     		ldr	r2, [r5, #32]
1681:Middlewares/Third_Party/LwIP/src/api/api_msg.c ****       diff = conn->current_msg->msg.w.vector->len - conn->current_msg->msg.w.vector_off;
 1212              		.loc 1 1681 55 view .LVU361
 1213 0174 9168     		ldr	r1, [r2, #8]
1681:Middlewares/Third_Party/LwIP/src/api/api_msg.c ****       diff = conn->current_msg->msg.w.vector->len - conn->current_msg->msg.w.vector_off;
 1214              		.loc 1 1681 62 view .LVU362
 1215 0176 0F68     		ldr	r7, [r1]
1681:Middlewares/Third_Party/LwIP/src/api/api_msg.c ****       diff = conn->current_msg->msg.w.vector->len - conn->current_msg->msg.w.vector_off;
 1216              		.loc 1 1681 94 view .LVU363
 1217 0178 1369     		ldr	r3, [r2, #16]
1681:Middlewares/Third_Party/LwIP/src/api/api_msg.c ****       diff = conn->current_msg->msg.w.vector->len - conn->current_msg->msg.w.vector_off;
 1218              		.loc 1 1681 15 view .LVU364
 1219 017a 1F44     		add	r7, r7, r3
 1220              	.LVL114:
1682:Middlewares/Third_Party/LwIP/src/api/api_msg.c ****       if (diff > 0xffffUL) { /* max_u16_t */
 1221              		.loc 1 1682 7 is_stmt 1 view .LVU365
1682:Middlewares/Third_Party/LwIP/src/api/api_msg.c ****       if (diff > 0xffffUL) { /* max_u16_t */
 1222              		.loc 1 1682 45 is_stmt 0 view .LVU366
 1223 017c 4968     		ldr	r1, [r1, #4]
1682:Middlewares/Third_Party/LwIP/src/api/api_msg.c ****       if (diff > 0xffffUL) { /* max_u16_t */
 1224              		.loc 1 1682 12 view .LVU367
 1225 017e CE1A     		subs	r6, r1, r3
 1226              	.LVL115:
1683:Middlewares/Third_Party/LwIP/src/api/api_msg.c ****         len = 0xffff;
 1227              		.loc 1 1683 7 is_stmt 1 view .LVU368
1683:Middlewares/Third_Party/LwIP/src/api/api_msg.c ****         len = 0xffff;
 1228              		.loc 1 1683 10 is_stmt 0 view .LVU369
 1229 0180 B6F5803F 		cmp	r6, #65536
 1230 0184 97D3     		bcc	.L79
1684:Middlewares/Third_Party/LwIP/src/api/api_msg.c ****         apiflags |= TCP_WRITE_FLAG_MORE;
 1231              		.loc 1 1684 9 is_stmt 1 view .LVU370
 1232              	.LVL116:
1685:Middlewares/Third_Party/LwIP/src/api/api_msg.c ****       } else {
 1233              		.loc 1 1685 9 view .LVU371
1685:Middlewares/Third_Party/LwIP/src/api/api_msg.c ****       } else {
 1234              		.loc 1 1685 18 is_stmt 0 view .LVU372
 1235 0186 48F00208 		orr	r8, r8, #2
 1236              	.LVL117:
1684:Middlewares/Third_Party/LwIP/src/api/api_msg.c ****         apiflags |= TCP_WRITE_FLAG_MORE;
ARM GAS  C:\Users\hh\AppData\Local\Temp\ccfq6ENc.s 			page 58


 1237              		.loc 1 1684 13 view .LVU373
 1238 018a 4FF6FF74 		movw	r4, #65535
 1239              	.LVL118:
 1240              	.L80:
1689:Middlewares/Third_Party/LwIP/src/api/api_msg.c ****       if (available < len) {
 1241              		.loc 1 1689 7 is_stmt 1 view .LVU374
1689:Middlewares/Third_Party/LwIP/src/api/api_msg.c ****       if (available < len) {
 1242              		.loc 1 1689 19 is_stmt 0 view .LVU375
 1243 018e 6868     		ldr	r0, [r5, #4]
1689:Middlewares/Third_Party/LwIP/src/api/api_msg.c ****       if (available < len) {
 1244              		.loc 1 1689 17 view .LVU376
 1245 0190 B0F86400 		ldrh	r0, [r0, #100]
 1246              	.LVL119:
1690:Middlewares/Third_Party/LwIP/src/api/api_msg.c ****         /* don't try to write more than sendbuf */
 1247              		.loc 1 1690 7 is_stmt 1 view .LVU377
1690:Middlewares/Third_Party/LwIP/src/api/api_msg.c ****         /* don't try to write more than sendbuf */
 1248              		.loc 1 1690 10 is_stmt 0 view .LVU378
 1249 0194 8442     		cmp	r4, r0
 1250 0196 AED9     		bls	.L81
1692:Middlewares/Third_Party/LwIP/src/api/api_msg.c ****         if (dontblock) {
 1251              		.loc 1 1692 9 is_stmt 1 view .LVU379
 1252              	.LVL120:
1693:Middlewares/Third_Party/LwIP/src/api/api_msg.c ****           if (!len) {
 1253              		.loc 1 1693 9 view .LVU380
1693:Middlewares/Third_Party/LwIP/src/api/api_msg.c ****           if (!len) {
 1254              		.loc 1 1693 12 is_stmt 0 view .LVU381
 1255 0198 BAF1000F 		cmp	r10, #0
 1256 019c A8D0     		beq	.L82
1694:Middlewares/Third_Party/LwIP/src/api/api_msg.c ****             /* set error according to partial write or not */
 1257              		.loc 1 1694 11 is_stmt 1 view .LVU382
1694:Middlewares/Third_Party/LwIP/src/api/api_msg.c ****             /* set error according to partial write or not */
 1258              		.loc 1 1694 14 is_stmt 0 view .LVU383
 1259 019e 0028     		cmp	r0, #0
 1260 01a0 8BD0     		beq	.L124
1692:Middlewares/Third_Party/LwIP/src/api/api_msg.c ****         if (dontblock) {
 1261              		.loc 1 1692 13 view .LVU384
 1262 01a2 0446     		mov	r4, r0
 1263 01a4 A7E7     		b	.L81
 1264              	.LVL121:
 1265              	.L106:
1714:Middlewares/Third_Party/LwIP/src/api/api_msg.c ****       }
 1266              		.loc 1 1714 20 view .LVU385
 1267 01a6 0026     		movs	r6, #0
 1268 01a8 C7E7     		b	.L87
 1269              	.LVL122:
 1270              	.L123:
1722:Middlewares/Third_Party/LwIP/src/api/api_msg.c ****           /* if we have additional vectors, move on to them */
 1271              		.loc 1 1722 11 is_stmt 1 view .LVU386
1722:Middlewares/Third_Party/LwIP/src/api/api_msg.c ****           /* if we have additional vectors, move on to them */
 1272              		.loc 1 1722 35 is_stmt 0 view .LVU387
 1273 01aa 9A89     		ldrh	r2, [r3, #12]
1722:Middlewares/Third_Party/LwIP/src/api/api_msg.c ****           /* if we have additional vectors, move on to them */
 1274              		.loc 1 1722 46 view .LVU388
 1275 01ac 013A     		subs	r2, r2, #1
 1276 01ae 9A81     		strh	r2, [r3, #12]	@ movhi
1724:Middlewares/Third_Party/LwIP/src/api/api_msg.c ****             conn->current_msg->msg.w.vector++;
 1277              		.loc 1 1724 11 is_stmt 1 view .LVU389
ARM GAS  C:\Users\hh\AppData\Local\Temp\ccfq6ENc.s 			page 59


1724:Middlewares/Third_Party/LwIP/src/api/api_msg.c ****             conn->current_msg->msg.w.vector++;
 1278              		.loc 1 1724 19 is_stmt 0 view .LVU390
 1279 01b0 2B6A     		ldr	r3, [r5, #32]
1724:Middlewares/Third_Party/LwIP/src/api/api_msg.c ****             conn->current_msg->msg.w.vector++;
 1280              		.loc 1 1724 39 view .LVU391
 1281 01b2 9A89     		ldrh	r2, [r3, #12]
1724:Middlewares/Third_Party/LwIP/src/api/api_msg.c ****             conn->current_msg->msg.w.vector++;
 1282              		.loc 1 1724 14 view .LVU392
 1283 01b4 002A     		cmp	r2, #0
 1284 01b6 D6D0     		beq	.L88
1725:Middlewares/Third_Party/LwIP/src/api/api_msg.c ****             conn->current_msg->msg.w.vector_off = 0;
 1285              		.loc 1 1725 13 is_stmt 1 view .LVU393
1725:Middlewares/Third_Party/LwIP/src/api/api_msg.c ****             conn->current_msg->msg.w.vector_off = 0;
 1286              		.loc 1 1725 37 is_stmt 0 view .LVU394
 1287 01b8 9A68     		ldr	r2, [r3, #8]
1725:Middlewares/Third_Party/LwIP/src/api/api_msg.c ****             conn->current_msg->msg.w.vector_off = 0;
 1288              		.loc 1 1725 44 view .LVU395
 1289 01ba 0832     		adds	r2, r2, #8
 1290 01bc 9A60     		str	r2, [r3, #8]
1726:Middlewares/Third_Party/LwIP/src/api/api_msg.c ****           }
 1291              		.loc 1 1726 13 is_stmt 1 view .LVU396
1726:Middlewares/Third_Party/LwIP/src/api/api_msg.c ****           }
 1292              		.loc 1 1726 17 is_stmt 0 view .LVU397
 1293 01be 2B6A     		ldr	r3, [r5, #32]
1726:Middlewares/Third_Party/LwIP/src/api/api_msg.c ****           }
 1294              		.loc 1 1726 49 view .LVU398
 1295 01c0 1861     		str	r0, [r3, #16]
 1296 01c2 D0E7     		b	.L88
 1297              	.L112:
1732:Middlewares/Third_Party/LwIP/src/api/api_msg.c **** err_mem:
 1298              		.loc 1 1732 5 is_stmt 1 view .LVU399
1732:Middlewares/Third_Party/LwIP/src/api/api_msg.c **** err_mem:
 1299              		.loc 1 1732 25 is_stmt 0 view .LVU400
 1300 01c4 631C     		adds	r3, r4, #1
 1301 01c6 DBB2     		uxtb	r3, r3
1732:Middlewares/Third_Party/LwIP/src/api/api_msg.c **** err_mem:
 1302              		.loc 1 1732 8 view .LVU401
 1303 01c8 012B     		cmp	r3, #1
 1304 01ca 7FF67AAF 		bls	.L84
 1305              	.LVL123:
 1306              	.L91:
1739:Middlewares/Third_Party/LwIP/src/api/api_msg.c ****       } else if ((tcp_sndbuf(conn->pcb.tcp) <= TCP_SNDLOWAT) ||
1740:Middlewares/Third_Party/LwIP/src/api/api_msg.c ****                  (tcp_sndqueuelen(conn->pcb.tcp) >= TCP_SNDQUEUELOWAT)) {
1741:Middlewares/Third_Party/LwIP/src/api/api_msg.c ****         /* The queued byte- or pbuf-count exceeds the configured low-water limit,
1742:Middlewares/Third_Party/LwIP/src/api/api_msg.c ****            let select mark this pcb as non-writable. */
1743:Middlewares/Third_Party/LwIP/src/api/api_msg.c ****         API_EVENT(conn, NETCONN_EVT_SENDMINUS, 0);
1744:Middlewares/Third_Party/LwIP/src/api/api_msg.c ****       }
1745:Middlewares/Third_Party/LwIP/src/api/api_msg.c ****     }
1746:Middlewares/Third_Party/LwIP/src/api/api_msg.c **** 
1747:Middlewares/Third_Party/LwIP/src/api/api_msg.c ****     if (err == ERR_OK) {
1748:Middlewares/Third_Party/LwIP/src/api/api_msg.c ****       err_t out_err;
1749:Middlewares/Third_Party/LwIP/src/api/api_msg.c ****       if ((conn->current_msg->msg.w.offset == conn->current_msg->msg.w.len) || dontblock) {
1750:Middlewares/Third_Party/LwIP/src/api/api_msg.c ****         /* return sent length (caller reads length from msg.w.offset) */
1751:Middlewares/Third_Party/LwIP/src/api/api_msg.c ****         write_finished = 1;
1752:Middlewares/Third_Party/LwIP/src/api/api_msg.c ****       }
1753:Middlewares/Third_Party/LwIP/src/api/api_msg.c ****       out_err = tcp_output(conn->pcb.tcp);
1754:Middlewares/Third_Party/LwIP/src/api/api_msg.c ****       if (out_err == ERR_RTE) {
ARM GAS  C:\Users\hh\AppData\Local\Temp\ccfq6ENc.s 			page 60


1755:Middlewares/Third_Party/LwIP/src/api/api_msg.c ****         /* If tcp_output fails because no route is found,
1756:Middlewares/Third_Party/LwIP/src/api/api_msg.c ****            don't try writing any more but return the error
1757:Middlewares/Third_Party/LwIP/src/api/api_msg.c ****            to the application thread. */
1758:Middlewares/Third_Party/LwIP/src/api/api_msg.c ****         err = out_err;
1759:Middlewares/Third_Party/LwIP/src/api/api_msg.c ****         write_finished = 1;
1760:Middlewares/Third_Party/LwIP/src/api/api_msg.c ****       }
1761:Middlewares/Third_Party/LwIP/src/api/api_msg.c ****     } else if (err == ERR_MEM) {
 1307              		.loc 1 1761 12 is_stmt 1 view .LVU402
 1308              		.loc 1 1761 15 is_stmt 0 view .LVU403
 1309 01ce B4F1FF3F 		cmp	r4, #-1
 1310 01d2 37D0     		beq	.L125
 1311              	.LVL124:
 1312              	.L97:
 1313              	.LBB6:
1762:Middlewares/Third_Party/LwIP/src/api/api_msg.c ****       /* If ERR_MEM, we wait for sent_tcp or poll_tcp to be called.
1763:Middlewares/Third_Party/LwIP/src/api/api_msg.c ****          For blocking sockets, we do NOT return to the application
1764:Middlewares/Third_Party/LwIP/src/api/api_msg.c ****          thread, since ERR_MEM is only a temporary error! Non-blocking
1765:Middlewares/Third_Party/LwIP/src/api/api_msg.c ****          will remain non-writable until sent_tcp/poll_tcp is called */
1766:Middlewares/Third_Party/LwIP/src/api/api_msg.c **** 
1767:Middlewares/Third_Party/LwIP/src/api/api_msg.c ****       /* tcp_write returned ERR_MEM, try tcp_output anyway */
1768:Middlewares/Third_Party/LwIP/src/api/api_msg.c ****       err_t out_err = tcp_output(conn->pcb.tcp);
1769:Middlewares/Third_Party/LwIP/src/api/api_msg.c ****       if (out_err == ERR_RTE) {
1770:Middlewares/Third_Party/LwIP/src/api/api_msg.c ****         /* If tcp_output fails because no route is found,
1771:Middlewares/Third_Party/LwIP/src/api/api_msg.c ****            don't try writing any more but return the error
1772:Middlewares/Third_Party/LwIP/src/api/api_msg.c ****            to the application thread. */
1773:Middlewares/Third_Party/LwIP/src/api/api_msg.c ****         err = out_err;
1774:Middlewares/Third_Party/LwIP/src/api/api_msg.c ****         write_finished = 1;
1775:Middlewares/Third_Party/LwIP/src/api/api_msg.c ****       } else if (dontblock) {
1776:Middlewares/Third_Party/LwIP/src/api/api_msg.c ****         /* non-blocking write is done on ERR_MEM, set error according
1777:Middlewares/Third_Party/LwIP/src/api/api_msg.c ****            to partial write or not */
1778:Middlewares/Third_Party/LwIP/src/api/api_msg.c ****         err = (conn->current_msg->msg.w.offset == 0) ? ERR_WOULDBLOCK : ERR_OK;
1779:Middlewares/Third_Party/LwIP/src/api/api_msg.c ****         write_finished = 1;
1780:Middlewares/Third_Party/LwIP/src/api/api_msg.c ****       }
1781:Middlewares/Third_Party/LwIP/src/api/api_msg.c ****     } else {
1782:Middlewares/Third_Party/LwIP/src/api/api_msg.c ****       /* On errors != ERR_MEM, we don't try writing any more but return
1783:Middlewares/Third_Party/LwIP/src/api/api_msg.c ****          the error to the application thread. */
1784:Middlewares/Third_Party/LwIP/src/api/api_msg.c ****       write_finished = 1;
1785:Middlewares/Third_Party/LwIP/src/api/api_msg.c ****     }
1786:Middlewares/Third_Party/LwIP/src/api/api_msg.c ****   }
1787:Middlewares/Third_Party/LwIP/src/api/api_msg.c ****   if (write_finished) {
1788:Middlewares/Third_Party/LwIP/src/api/api_msg.c ****     /* everything was written: set back connection state
1789:Middlewares/Third_Party/LwIP/src/api/api_msg.c ****        and back to application task */
1790:Middlewares/Third_Party/LwIP/src/api/api_msg.c ****     sys_sem_t *op_completed_sem = LWIP_API_MSG_SEM(conn->current_msg);
 1314              		.loc 1 1790 5 is_stmt 1 view .LVU404
 1315              		.loc 1 1790 35 is_stmt 0 view .LVU405
 1316 01d4 2B6A     		ldr	r3, [r5, #32]
 1317 01d6 1868     		ldr	r0, [r3]
 1318              		.loc 1 1790 16 view .LVU406
 1319 01d8 0C30     		adds	r0, r0, #12
 1320              	.LVL125:
1791:Middlewares/Third_Party/LwIP/src/api/api_msg.c ****     conn->current_msg->err = err;
 1321              		.loc 1 1791 5 is_stmt 1 view .LVU407
 1322              		.loc 1 1791 28 is_stmt 0 view .LVU408
 1323 01da 1C71     		strb	r4, [r3, #4]
1792:Middlewares/Third_Party/LwIP/src/api/api_msg.c ****     conn->current_msg = NULL;
 1324              		.loc 1 1792 5 is_stmt 1 view .LVU409
 1325              		.loc 1 1792 23 is_stmt 0 view .LVU410
ARM GAS  C:\Users\hh\AppData\Local\Temp\ccfq6ENc.s 			page 61


 1326 01dc 0023     		movs	r3, #0
 1327 01de 2B62     		str	r3, [r5, #32]
1793:Middlewares/Third_Party/LwIP/src/api/api_msg.c ****     conn->state = NETCONN_NONE;
 1328              		.loc 1 1793 5 is_stmt 1 view .LVU411
 1329              		.loc 1 1793 17 is_stmt 0 view .LVU412
 1330 01e0 6B70     		strb	r3, [r5, #1]
1794:Middlewares/Third_Party/LwIP/src/api/api_msg.c **** #if LWIP_TCPIP_CORE_LOCKING
1795:Middlewares/Third_Party/LwIP/src/api/api_msg.c ****     if (delayed)
 1331              		.loc 1 1795 5 is_stmt 1 view .LVU413
 1332              		.loc 1 1795 8 is_stmt 0 view .LVU414
 1333 01e2 5B46     		mov	r3, fp
 1334 01e4 002B     		cmp	r3, #0
 1335 01e6 41D1     		bne	.L126
 1336              	.LVL126:
 1337              		.loc 1 1795 8 view .LVU415
 1338              	.LBE6:
1796:Middlewares/Third_Party/LwIP/src/api/api_msg.c **** #endif
1797:Middlewares/Third_Party/LwIP/src/api/api_msg.c ****     {
1798:Middlewares/Third_Party/LwIP/src/api/api_msg.c ****       sys_sem_signal(op_completed_sem);
1799:Middlewares/Third_Party/LwIP/src/api/api_msg.c ****     }
1800:Middlewares/Third_Party/LwIP/src/api/api_msg.c ****   }
1801:Middlewares/Third_Party/LwIP/src/api/api_msg.c **** #if LWIP_TCPIP_CORE_LOCKING
1802:Middlewares/Third_Party/LwIP/src/api/api_msg.c ****   else {
1803:Middlewares/Third_Party/LwIP/src/api/api_msg.c ****     return ERR_MEM;
1804:Middlewares/Third_Party/LwIP/src/api/api_msg.c ****   }
1805:Middlewares/Third_Party/LwIP/src/api/api_msg.c **** #endif
1806:Middlewares/Third_Party/LwIP/src/api/api_msg.c ****   return ERR_OK;
 1339              		.loc 1 1806 10 view .LVU416
 1340 01e8 5846     		mov	r0, fp
 1341              	.LVL127:
 1342              	.L100:
1807:Middlewares/Third_Party/LwIP/src/api/api_msg.c **** }
 1343              		.loc 1 1807 1 view .LVU417
 1344 01ea BDE8F88F 		pop	{r3, r4, r5, r6, r7, r8, r9, r10, fp, pc}
 1345              	.LVL128:
 1346              	.L92:
1739:Middlewares/Third_Party/LwIP/src/api/api_msg.c ****                  (tcp_sndqueuelen(conn->pcb.tcp) >= TCP_SNDQUEUELOWAT)) {
 1347              		.loc 1 1739 14 is_stmt 1 view .LVU418
1739:Middlewares/Third_Party/LwIP/src/api/api_msg.c ****                  (tcp_sndqueuelen(conn->pcb.tcp) >= TCP_SNDQUEUELOWAT)) {
 1348              		.loc 1 1739 19 is_stmt 0 view .LVU419
 1349 01ee 6B68     		ldr	r3, [r5, #4]
 1350 01f0 B3F86420 		ldrh	r2, [r3, #100]
1739:Middlewares/Third_Party/LwIP/src/api/api_msg.c ****                  (tcp_sndqueuelen(conn->pcb.tcp) >= TCP_SNDQUEUELOWAT)) {
 1351              		.loc 1 1739 17 view .LVU420
 1352 01f4 B2F5866F 		cmp	r2, #1072
 1353 01f8 03D3     		bcc	.L95
1740:Middlewares/Third_Party/LwIP/src/api/api_msg.c ****         /* The queued byte- or pbuf-count exceeds the configured low-water limit,
 1354              		.loc 1 1740 19 view .LVU421
 1355 01fa B3F86630 		ldrh	r3, [r3, #102]
1739:Middlewares/Third_Party/LwIP/src/api/api_msg.c ****                  (tcp_sndqueuelen(conn->pcb.tcp) >= TCP_SNDQUEUELOWAT)) {
 1356              		.loc 1 1739 62 discriminator 1 view .LVU422
 1357 01fe 042B     		cmp	r3, #4
 1358 0200 05D9     		bls	.L94
 1359              	.L95:
1743:Middlewares/Third_Party/LwIP/src/api/api_msg.c ****       }
 1360              		.loc 1 1743 9 is_stmt 1 view .LVU423
 1361 0202 6B6A     		ldr	r3, [r5, #36]
ARM GAS  C:\Users\hh\AppData\Local\Temp\ccfq6ENc.s 			page 62


 1362 0204 1BB1     		cbz	r3, .L94
1743:Middlewares/Third_Party/LwIP/src/api/api_msg.c ****       }
 1363              		.loc 1 1743 9 discriminator 1 view .LVU424
 1364 0206 0022     		movs	r2, #0
 1365 0208 0321     		movs	r1, #3
 1366 020a 2846     		mov	r0, r5
 1367 020c 9847     		blx	r3
 1368              	.LVL129:
 1369              	.L94:
1743:Middlewares/Third_Party/LwIP/src/api/api_msg.c ****       }
 1370              		.loc 1 1743 50 view .LVU425
1747:Middlewares/Third_Party/LwIP/src/api/api_msg.c ****       err_t out_err;
 1371              		.loc 1 1747 5 view .LVU426
1747:Middlewares/Third_Party/LwIP/src/api/api_msg.c ****       err_t out_err;
 1372              		.loc 1 1747 8 is_stmt 0 view .LVU427
 1373 020e 002C     		cmp	r4, #0
 1374 0210 DDD1     		bne	.L91
 1375              	.LBB7:
1748:Middlewares/Third_Party/LwIP/src/api/api_msg.c ****       if ((conn->current_msg->msg.w.offset == conn->current_msg->msg.w.len) || dontblock) {
 1376              		.loc 1 1748 7 is_stmt 1 view .LVU428
1749:Middlewares/Third_Party/LwIP/src/api/api_msg.c ****         /* return sent length (caller reads length from msg.w.offset) */
 1377              		.loc 1 1749 7 view .LVU429
1749:Middlewares/Third_Party/LwIP/src/api/api_msg.c ****         /* return sent length (caller reads length from msg.w.offset) */
 1378              		.loc 1 1749 16 is_stmt 0 view .LVU430
 1379 0212 2B6A     		ldr	r3, [r5, #32]
1749:Middlewares/Third_Party/LwIP/src/api/api_msg.c ****         /* return sent length (caller reads length from msg.w.offset) */
 1380              		.loc 1 1749 36 view .LVU431
 1381 0214 9A69     		ldr	r2, [r3, #24]
1749:Middlewares/Third_Party/LwIP/src/api/api_msg.c ****         /* return sent length (caller reads length from msg.w.offset) */
 1382              		.loc 1 1749 71 view .LVU432
 1383 0216 5B69     		ldr	r3, [r3, #20]
1749:Middlewares/Third_Party/LwIP/src/api/api_msg.c ****         /* return sent length (caller reads length from msg.w.offset) */
 1384              		.loc 1 1749 10 view .LVU433
 1385 0218 9A42     		cmp	r2, r3
 1386 021a 05D0     		beq	.L107
1749:Middlewares/Third_Party/LwIP/src/api/api_msg.c ****         /* return sent length (caller reads length from msg.w.offset) */
 1387              		.loc 1 1749 77 discriminator 1 view .LVU434
 1388 021c BAF1000F 		cmp	r10, #0
 1389 0220 04D0     		beq	.L96
1751:Middlewares/Third_Party/LwIP/src/api/api_msg.c ****       }
 1390              		.loc 1 1751 24 view .LVU435
 1391 0222 4FF0010A 		mov	r10, #1
 1392              	.LVL130:
1751:Middlewares/Third_Party/LwIP/src/api/api_msg.c ****       }
 1393              		.loc 1 1751 24 view .LVU436
 1394 0226 01E0     		b	.L96
 1395              	.LVL131:
 1396              	.L107:
1751:Middlewares/Third_Party/LwIP/src/api/api_msg.c ****       }
 1397              		.loc 1 1751 24 view .LVU437
 1398 0228 4FF0010A 		mov	r10, #1
 1399              	.LVL132:
 1400              	.L96:
1753:Middlewares/Third_Party/LwIP/src/api/api_msg.c ****       if (out_err == ERR_RTE) {
 1401              		.loc 1 1753 7 is_stmt 1 view .LVU438
1753:Middlewares/Third_Party/LwIP/src/api/api_msg.c ****       if (out_err == ERR_RTE) {
 1402              		.loc 1 1753 17 is_stmt 0 view .LVU439
ARM GAS  C:\Users\hh\AppData\Local\Temp\ccfq6ENc.s 			page 63


 1403 022c 6868     		ldr	r0, [r5, #4]
 1404 022e FFF7FEFF 		bl	tcp_output
 1405              	.LVL133:
1754:Middlewares/Third_Party/LwIP/src/api/api_msg.c ****         /* If tcp_output fails because no route is found,
 1406              		.loc 1 1754 7 is_stmt 1 view .LVU440
1754:Middlewares/Third_Party/LwIP/src/api/api_msg.c ****         /* If tcp_output fails because no route is found,
 1407              		.loc 1 1754 10 is_stmt 0 view .LVU441
 1408 0232 10F1040F 		cmn	r0, #4
 1409 0236 15D0     		beq	.L127
1754:Middlewares/Third_Party/LwIP/src/api/api_msg.c ****         /* If tcp_output fails because no route is found,
 1410              		.loc 1 1754 10 view .LVU442
 1411              	.LBE7:
1787:Middlewares/Third_Party/LwIP/src/api/api_msg.c ****     /* everything was written: set back connection state
 1412              		.loc 1 1787 3 is_stmt 1 view .LVU443
1787:Middlewares/Third_Party/LwIP/src/api/api_msg.c ****     /* everything was written: set back connection state
 1413              		.loc 1 1787 6 is_stmt 0 view .LVU444
 1414 0238 BAF1000F 		cmp	r10, #0
 1415 023c CAD1     		bne	.L97
 1416              	.LVL134:
 1417              	.L99:
1803:Middlewares/Third_Party/LwIP/src/api/api_msg.c ****   }
 1418              		.loc 1 1803 5 is_stmt 1 view .LVU445
1803:Middlewares/Third_Party/LwIP/src/api/api_msg.c ****   }
 1419              		.loc 1 1803 12 is_stmt 0 view .LVU446
 1420 023e 4FF0FF30 		mov	r0, #-1
 1421 0242 D2E7     		b	.L100
 1422              	.LVL135:
 1423              	.L125:
 1424              	.LBB8:
1768:Middlewares/Third_Party/LwIP/src/api/api_msg.c ****       if (out_err == ERR_RTE) {
 1425              		.loc 1 1768 7 is_stmt 1 view .LVU447
1768:Middlewares/Third_Party/LwIP/src/api/api_msg.c ****       if (out_err == ERR_RTE) {
 1426              		.loc 1 1768 23 is_stmt 0 view .LVU448
 1427 0244 6868     		ldr	r0, [r5, #4]
 1428 0246 FFF7FEFF 		bl	tcp_output
 1429              	.LVL136:
 1430 024a 0446     		mov	r4, r0
 1431              	.LVL137:
1769:Middlewares/Third_Party/LwIP/src/api/api_msg.c ****         /* If tcp_output fails because no route is found,
 1432              		.loc 1 1769 7 is_stmt 1 view .LVU449
1769:Middlewares/Third_Party/LwIP/src/api/api_msg.c ****         /* If tcp_output fails because no route is found,
 1433              		.loc 1 1769 10 is_stmt 0 view .LVU450
 1434 024c 10F1040F 		cmn	r0, #4
 1435 0250 C0D0     		beq	.L97
1775:Middlewares/Third_Party/LwIP/src/api/api_msg.c ****         /* non-blocking write is done on ERR_MEM, set error according
 1436              		.loc 1 1775 14 is_stmt 1 view .LVU451
1775:Middlewares/Third_Party/LwIP/src/api/api_msg.c ****         /* non-blocking write is done on ERR_MEM, set error according
 1437              		.loc 1 1775 17 is_stmt 0 view .LVU452
 1438 0252 BAF1000F 		cmp	r10, #0
 1439 0256 F2D0     		beq	.L99
1778:Middlewares/Third_Party/LwIP/src/api/api_msg.c ****         write_finished = 1;
 1440              		.loc 1 1778 9 is_stmt 1 view .LVU453
1778:Middlewares/Third_Party/LwIP/src/api/api_msg.c ****         write_finished = 1;
