ARM GAS  C:\Users\hh\AppData\Local\Temp\ccrJWwNc.s 			page 1


   1              		.cpu cortex-m7
   2              		.arch armv7e-m
   3              		.fpu fpv5-d16
   4              		.eabi_attribute 28, 1
   5              		.eabi_attribute 20, 1
   6              		.eabi_attribute 21, 1
   7              		.eabi_attribute 23, 3
   8              		.eabi_attribute 24, 1
   9              		.eabi_attribute 25, 1
  10              		.eabi_attribute 26, 1
  11              		.eabi_attribute 30, 1
  12              		.eabi_attribute 34, 1
  13              		.eabi_attribute 18, 4
  14              		.file	"bms_response_log.c"
  15              		.text
  16              	.Ltext0:
  17              		.cfi_sections	.debug_frame
  18              		.file 1 "App/Src/bms_response_log.c"
  19              		.section	.text.BmsResponseLog_FrameMatchesFilter,"ax",%progbits
  20              		.align	1
  21              		.syntax unified
  22              		.thumb
  23              		.thumb_func
  25              	BmsResponseLog_FrameMatchesFilter:
  26              	.LVL0:
  27              	.LFB154:
   1:App/Src/bms_response_log.c **** #include "bms_response_log.h"
   2:App/Src/bms_response_log.c **** 
   3:App/Src/bms_response_log.c **** #include <string.h>
   4:App/Src/bms_response_log.c **** 
   5:App/Src/bms_response_log.c **** static BmsResponseLog_Status responseLog;
   6:App/Src/bms_response_log.c **** static BmsResponseLog_Filter responseFilter;
   7:App/Src/bms_response_log.c **** 
   8:App/Src/bms_response_log.c **** void BmsResponseLog_RecordFaultTrigger(BmsResponseLog_TriggerType type,
   9:App/Src/bms_response_log.c ****                                        uint8_t primaryCell,
  10:App/Src/bms_response_log.c ****                                        uint16_t primaryMillivolts,
  11:App/Src/bms_response_log.c ****                                        uint8_t secondaryCell,
  12:App/Src/bms_response_log.c ****                                        uint16_t secondaryMillivolts)
  13:App/Src/bms_response_log.c **** {
  14:App/Src/bms_response_log.c ****   memset(&responseLog, 0, sizeof(responseLog));
  15:App/Src/bms_response_log.c **** 
  16:App/Src/bms_response_log.c ****   responseLog.filter = responseFilter;
  17:App/Src/bms_response_log.c ****   responseLog.armed = 1U;
  18:App/Src/bms_response_log.c ****   responseLog.triggerType = type;
  19:App/Src/bms_response_log.c ****   responseLog.primaryCell = primaryCell;
  20:App/Src/bms_response_log.c ****   responseLog.secondaryCell = secondaryCell;
  21:App/Src/bms_response_log.c ****   responseLog.primaryMillivolts = primaryMillivolts;
  22:App/Src/bms_response_log.c ****   responseLog.secondaryMillivolts = secondaryMillivolts;
  23:App/Src/bms_response_log.c ****   responseLog.triggerTick = HAL_GetTick();
  24:App/Src/bms_response_log.c **** }
  25:App/Src/bms_response_log.c **** 
  26:App/Src/bms_response_log.c **** void BmsResponseLog_Clear(void)
  27:App/Src/bms_response_log.c **** {
  28:App/Src/bms_response_log.c ****   BmsResponseLog_Filter filter = responseFilter;
  29:App/Src/bms_response_log.c **** 
  30:App/Src/bms_response_log.c ****   memset(&responseLog, 0, sizeof(responseLog));
  31:App/Src/bms_response_log.c ****   responseLog.filter = filter;
ARM GAS  C:\Users\hh\AppData\Local\Temp\ccrJWwNc.s 			page 2


  32:App/Src/bms_response_log.c **** }
  33:App/Src/bms_response_log.c **** 
  34:App/Src/bms_response_log.c **** BmsResponseLog_Status BmsResponseLog_GetStatus(void)
  35:App/Src/bms_response_log.c **** {
  36:App/Src/bms_response_log.c ****   return responseLog;
  37:App/Src/bms_response_log.c **** }
  38:App/Src/bms_response_log.c **** 
  39:App/Src/bms_response_log.c **** const char *BmsResponseLog_GetTriggerName(BmsResponseLog_TriggerType type)
  40:App/Src/bms_response_log.c **** {
  41:App/Src/bms_response_log.c ****   switch (type)
  42:App/Src/bms_response_log.c ****   {
  43:App/Src/bms_response_log.c ****     case BMS_RESPONSE_LOG_TRIGGER_OV:
  44:App/Src/bms_response_log.c ****       return "OV";
  45:App/Src/bms_response_log.c **** 
  46:App/Src/bms_response_log.c ****     case BMS_RESPONSE_LOG_TRIGGER_UV:
  47:App/Src/bms_response_log.c ****       return "UV";
  48:App/Src/bms_response_log.c **** 
  49:App/Src/bms_response_log.c ****     case BMS_RESPONSE_LOG_TRIGGER_DIFF:
  50:App/Src/bms_response_log.c ****       return "DIFF";
  51:App/Src/bms_response_log.c **** 
  52:App/Src/bms_response_log.c ****     case BMS_RESPONSE_LOG_TRIGGER_NONE:
  53:App/Src/bms_response_log.c ****     default:
  54:App/Src/bms_response_log.c ****       return "NONE";
  55:App/Src/bms_response_log.c ****   }
  56:App/Src/bms_response_log.c **** }
  57:App/Src/bms_response_log.c **** 
  58:App/Src/bms_response_log.c **** HAL_StatusTypeDef BmsResponseLog_SetFilter(uint8_t enabled,
  59:App/Src/bms_response_log.c ****                                            uint8_t isExtended,
  60:App/Src/bms_response_log.c ****                                            uint32_t id,
  61:App/Src/bms_response_log.c ****                                            uint32_t mask)
  62:App/Src/bms_response_log.c **** {
  63:App/Src/bms_response_log.c ****   if (((isExtended == 0U) && ((id > 0x7FFUL) || (mask > 0x7FFUL))) ||
  64:App/Src/bms_response_log.c ****       ((isExtended != 0U) && ((id > 0x1FFFFFFFUL) || (mask > 0x1FFFFFFFUL))))
  65:App/Src/bms_response_log.c ****   {
  66:App/Src/bms_response_log.c ****     return HAL_ERROR;
  67:App/Src/bms_response_log.c ****   }
  68:App/Src/bms_response_log.c **** 
  69:App/Src/bms_response_log.c ****   responseFilter.enabled = enabled;
  70:App/Src/bms_response_log.c ****   responseFilter.isExtended = (isExtended != 0U) ? 1U : 0U;
  71:App/Src/bms_response_log.c ****   responseFilter.id = id;
  72:App/Src/bms_response_log.c ****   responseFilter.mask = mask;
  73:App/Src/bms_response_log.c ****   responseLog.filter = responseFilter;
  74:App/Src/bms_response_log.c ****   return HAL_OK;
  75:App/Src/bms_response_log.c **** }
  76:App/Src/bms_response_log.c **** 
  77:App/Src/bms_response_log.c **** void BmsResponseLog_DisableFilter(void)
  78:App/Src/bms_response_log.c **** {
  79:App/Src/bms_response_log.c ****   responseFilter.enabled = 0U;
  80:App/Src/bms_response_log.c ****   responseLog.filter = responseFilter;
  81:App/Src/bms_response_log.c **** }
  82:App/Src/bms_response_log.c **** 
  83:App/Src/bms_response_log.c **** HAL_StatusTypeDef BmsResponseLog_SetDataFilter(uint8_t index, uint8_t mask, uint8_t value)
  84:App/Src/bms_response_log.c **** {
  85:App/Src/bms_response_log.c ****   if (index >= BSP_CAN_MAX_DATA_LEN)
  86:App/Src/bms_response_log.c ****   {
  87:App/Src/bms_response_log.c ****     return HAL_ERROR;
  88:App/Src/bms_response_log.c ****   }
ARM GAS  C:\Users\hh\AppData\Local\Temp\ccrJWwNc.s 			page 3


  89:App/Src/bms_response_log.c **** 
  90:App/Src/bms_response_log.c ****   responseFilter.dataMask[index] = mask;
  91:App/Src/bms_response_log.c ****   responseFilter.dataValue[index] = value;
  92:App/Src/bms_response_log.c ****   if ((mask != 0U) && ((index + 1U) > responseFilter.minLength))
  93:App/Src/bms_response_log.c ****   {
  94:App/Src/bms_response_log.c ****     responseFilter.minLength = index + 1U;
  95:App/Src/bms_response_log.c ****   }
  96:App/Src/bms_response_log.c ****   responseLog.filter = responseFilter;
  97:App/Src/bms_response_log.c ****   return HAL_OK;
  98:App/Src/bms_response_log.c **** }
  99:App/Src/bms_response_log.c **** 
 100:App/Src/bms_response_log.c **** void BmsResponseLog_ClearDataFilter(void)
 101:App/Src/bms_response_log.c **** {
 102:App/Src/bms_response_log.c ****   memset(responseFilter.dataMask, 0, sizeof(responseFilter.dataMask));
 103:App/Src/bms_response_log.c ****   memset(responseFilter.dataValue, 0, sizeof(responseFilter.dataValue));
 104:App/Src/bms_response_log.c ****   responseFilter.minLength = 0U;
 105:App/Src/bms_response_log.c ****   responseLog.filter = responseFilter;
 106:App/Src/bms_response_log.c **** }
 107:App/Src/bms_response_log.c **** 
 108:App/Src/bms_response_log.c **** static uint8_t BmsResponseLog_FrameMatchesFilter(const BspCan_RxFrame *frame)
 109:App/Src/bms_response_log.c **** {
  28              		.loc 1 109 1 view -0
  29              		.cfi_startproc
  30              		@ args = 0, pretend = 0, frame = 0
  31              		@ frame_needed = 0, uses_anonymous_args = 0
  32              		@ link register save eliminated.
 110:App/Src/bms_response_log.c ****   const BmsResponseLog_Filter *filter = &responseLog.filter;
  33              		.loc 1 110 3 view .LVU1
 111:App/Src/bms_response_log.c **** 
 112:App/Src/bms_response_log.c ****   if (filter->enabled == 0U)
  34              		.loc 1 112 3 view .LVU2
  35              		.loc 1 112 13 is_stmt 0 view .LVU3
  36 0000 1A4B     		ldr	r3, .L12
  37 0002 1B79     		ldrb	r3, [r3, #4]	@ zero_extendqisi2
  38              		.loc 1 112 6 view .LVU4
  39 0004 53B3     		cbz	r3, .L6
 113:App/Src/bms_response_log.c ****   {
 114:App/Src/bms_response_log.c ****     return 1U;
 115:App/Src/bms_response_log.c ****   }
 116:App/Src/bms_response_log.c **** 
 117:App/Src/bms_response_log.c ****   if (frame->isExtended != filter->isExtended)
  40              		.loc 1 117 3 is_stmt 1 view .LVU5
  41              		.loc 1 117 12 is_stmt 0 view .LVU6
  42 0006 027A     		ldrb	r2, [r0, #8]	@ zero_extendqisi2
  43              		.loc 1 117 34 view .LVU7
  44 0008 184B     		ldr	r3, .L12
  45 000a 5B79     		ldrb	r3, [r3, #5]	@ zero_extendqisi2
  46              		.loc 1 117 6 view .LVU8
  47 000c 9A42     		cmp	r2, r3
  48 000e 27D1     		bne	.L7
 118:App/Src/bms_response_log.c ****   {
 119:App/Src/bms_response_log.c ****     return 0U;
 120:App/Src/bms_response_log.c ****   }
 121:App/Src/bms_response_log.c **** 
 122:App/Src/bms_response_log.c ****   if ((frame->id & filter->mask) != (filter->id & filter->mask))
  49              		.loc 1 122 3 is_stmt 1 view .LVU9
  50              		.loc 1 122 13 is_stmt 0 view .LVU10
ARM GAS  C:\Users\hh\AppData\Local\Temp\ccrJWwNc.s 			page 4


  51 0010 0368     		ldr	r3, [r0]
  52              		.loc 1 122 44 view .LVU11
  53 0012 164A     		ldr	r2, .L12
  54 0014 9168     		ldr	r1, [r2, #8]
  55              		.loc 1 122 26 view .LVU12
  56 0016 D268     		ldr	r2, [r2, #12]
  57              		.loc 1 122 34 view .LVU13
  58 0018 4B40     		eors	r3, r3, r1
  59              		.loc 1 122 6 view .LVU14
  60 001a 1342     		tst	r3, r2
  61 001c 22D1     		bne	.L8
 123:App/Src/bms_response_log.c ****   {
 124:App/Src/bms_response_log.c ****     return 0U;
 125:App/Src/bms_response_log.c ****   }
 126:App/Src/bms_response_log.c **** 
 127:App/Src/bms_response_log.c ****   if (frame->length < filter->minLength)
  62              		.loc 1 127 3 is_stmt 1 view .LVU15
  63              		.loc 1 127 12 is_stmt 0 view .LVU16
  64 001e 427A     		ldrb	r2, [r0, #9]	@ zero_extendqisi2
  65              		.loc 1 127 29 view .LVU17
  66 0020 124B     		ldr	r3, .L12
  67 0022 1B7C     		ldrb	r3, [r3, #16]	@ zero_extendqisi2
  68              		.loc 1 127 6 view .LVU18
  69 0024 9A42     		cmp	r2, r3
  70 0026 1FD3     		bcc	.L9
  71              	.LBB2:
 128:App/Src/bms_response_log.c ****   {
 129:App/Src/bms_response_log.c ****     return 0U;
 130:App/Src/bms_response_log.c ****   }
 131:App/Src/bms_response_log.c **** 
 132:App/Src/bms_response_log.c ****   for (uint8_t index = 0U; index < BSP_CAN_MAX_DATA_LEN; index++)
  72              		.loc 1 132 16 view .LVU19
  73 0028 0023     		movs	r3, #0
  74 002a 01E0     		b	.L3
  75              	.LVL1:
  76              	.L4:
  77              		.loc 1 132 63 is_stmt 1 discriminator 2 view .LVU20
  78 002c 0133     		adds	r3, r3, #1
  79              	.LVL2:
  80              		.loc 1 132 63 is_stmt 0 discriminator 2 view .LVU21
  81 002e DBB2     		uxtb	r3, r3
  82              	.LVL3:
  83              	.L3:
  84              		.loc 1 132 34 is_stmt 1 discriminator 1 view .LVU22
  85 0030 072B     		cmp	r3, #7
  86 0032 11D8     		bhi	.L11
 133:App/Src/bms_response_log.c ****   {
 134:App/Src/bms_response_log.c ****     if ((filter->dataMask[index] != 0U) &&
  87              		.loc 1 134 5 view .LVU23
  88              		.loc 1 134 26 is_stmt 0 view .LVU24
  89 0034 0D4A     		ldr	r2, .L12
  90 0036 1A44     		add	r2, r2, r3
  91 0038 527C     		ldrb	r2, [r2, #17]	@ zero_extendqisi2
  92              		.loc 1 134 8 view .LVU25
  93 003a 002A     		cmp	r2, #0
  94 003c F6D0     		beq	.L4
 135:App/Src/bms_response_log.c ****         ((frame->data[index] & filter->dataMask[index]) !=
ARM GAS  C:\Users\hh\AppData\Local\Temp\ccrJWwNc.s 			page 5


  95              		.loc 1 135 22 view .LVU26
  96 003e C118     		adds	r1, r0, r3
  97 0040 897A     		ldrb	r1, [r1, #10]	@ zero_extendqisi2
 136:App/Src/bms_response_log.c ****          (filter->dataValue[index] & filter->dataMask[index])))
  98              		.loc 1 136 28 view .LVU27
  99 0042 DFF828C0 		ldr	ip, .L12
 100 0046 9C44     		add	ip, ip, r3
 101 0048 9CF819C0 		ldrb	ip, [ip, #25]	@ zero_extendqisi2
 135:App/Src/bms_response_log.c ****         ((frame->data[index] & filter->dataMask[index]) !=
 102              		.loc 1 135 57 view .LVU28
 103 004c 81EA0C01 		eor	r1, r1, ip
 134:App/Src/bms_response_log.c ****         ((frame->data[index] & filter->dataMask[index]) !=
 104              		.loc 1 134 41 discriminator 1 view .LVU29
 105 0050 0A42     		tst	r2, r1
 106 0052 EBD0     		beq	.L4
 137:App/Src/bms_response_log.c ****     {
 138:App/Src/bms_response_log.c ****       return 0U;
 107              		.loc 1 138 14 view .LVU30
 108 0054 0020     		movs	r0, #0
 109              	.LVL4:
 110              		.loc 1 138 14 view .LVU31
 111              	.LBE2:
 139:App/Src/bms_response_log.c ****     }
 140:App/Src/bms_response_log.c ****   }
 141:App/Src/bms_response_log.c **** 
 142:App/Src/bms_response_log.c ****   return 1U;
 143:App/Src/bms_response_log.c **** }
 112              		.loc 1 143 1 view .LVU32
 113 0056 7047     		bx	lr
 114              	.LVL5:
 115              	.L11:
 142:App/Src/bms_response_log.c **** }
 116              		.loc 1 142 10 view .LVU33
 117 0058 0120     		movs	r0, #1
 118              	.LVL6:
 119              	.LBB3:
 142:App/Src/bms_response_log.c **** }
 120              		.loc 1 142 10 view .LVU34
 121 005a 7047     		bx	lr
 122              	.LVL7:
 123              	.L6:
 142:App/Src/bms_response_log.c **** }
 124              		.loc 1 142 10 view .LVU35
 125              	.LBE3:
 114:App/Src/bms_response_log.c ****   }
 126              		.loc 1 114 12 view .LVU36
 127 005c 0120     		movs	r0, #1
 128              	.LVL8:
 114:App/Src/bms_response_log.c ****   }
 129              		.loc 1 114 12 view .LVU37
 130 005e 7047     		bx	lr
 131              	.LVL9:
 132              	.L7:
 119:App/Src/bms_response_log.c ****   }
 133              		.loc 1 119 12 view .LVU38
 134 0060 0020     		movs	r0, #0
 135              	.LVL10:
ARM GAS  C:\Users\hh\AppData\Local\Temp\ccrJWwNc.s 			page 6


 119:App/Src/bms_response_log.c ****   }
 136              		.loc 1 119 12 view .LVU39
 137 0062 7047     		bx	lr
 138              	.LVL11:
 139              	.L8:
 124:App/Src/bms_response_log.c ****   }
 140              		.loc 1 124 12 view .LVU40
 141 0064 0020     		movs	r0, #0
 142              	.LVL12:
 124:App/Src/bms_response_log.c ****   }
 143              		.loc 1 124 12 view .LVU41
 144 0066 7047     		bx	lr
 145              	.LVL13:
 146              	.L9:
 129:App/Src/bms_response_log.c ****   }
 147              		.loc 1 129 12 view .LVU42
 148 0068 0020     		movs	r0, #0
 149              	.LVL14:
 129:App/Src/bms_response_log.c ****   }
 150              		.loc 1 129 12 view .LVU43
 151 006a 7047     		bx	lr
 152              	.L13:
 153              		.align	2
 154              	.L12:
 155 006c 00000000 		.word	responseLog
 156              		.cfi_endproc
 157              	.LFE154:
 159              		.section	.text.BmsResponseLog_RecordFaultTrigger,"ax",%progbits
 160              		.align	1
 161              		.global	BmsResponseLog_RecordFaultTrigger
 162              		.syntax unified
 163              		.thumb
 164              		.thumb_func
 166              	BmsResponseLog_RecordFaultTrigger:
 167              	.LVL15:
 168              	.LFB146:
  13:App/Src/bms_response_log.c ****   memset(&responseLog, 0, sizeof(responseLog));
 169              		.loc 1 13 1 is_stmt 1 view -0
 170              		.cfi_startproc
 171              		@ args = 4, pretend = 0, frame = 0
 172              		@ frame_needed = 0, uses_anonymous_args = 0
  13:App/Src/bms_response_log.c ****   memset(&responseLog, 0, sizeof(responseLog));
 173              		.loc 1 13 1 is_stmt 0 view .LVU45
 174 0000 2DE9F041 		push	{r4, r5, r6, r7, r8, lr}
 175              	.LCFI0:
 176              		.cfi_def_cfa_offset 24
 177              		.cfi_offset 4, -24
 178              		.cfi_offset 5, -20
 179              		.cfi_offset 6, -16
 180              		.cfi_offset 7, -12
 181              		.cfi_offset 8, -8
 182              		.cfi_offset 14, -4
 183 0004 8046     		mov	r8, r0
 184 0006 0F46     		mov	r7, r1
 185 0008 1646     		mov	r6, r2
 186 000a 1D46     		mov	r5, r3
  14:App/Src/bms_response_log.c **** 
ARM GAS  C:\Users\hh\AppData\Local\Temp\ccrJWwNc.s 			page 7


 187              		.loc 1 14 3 is_stmt 1 view .LVU46
 188 000c 114C     		ldr	r4, .L16
 189 000e 5422     		movs	r2, #84
 190              	.LVL16:
  14:App/Src/bms_response_log.c **** 
 191              		.loc 1 14 3 is_stmt 0 view .LVU47
 192 0010 0021     		movs	r1, #0
 193              	.LVL17:
  14:App/Src/bms_response_log.c **** 
 194              		.loc 1 14 3 view .LVU48
 195 0012 2046     		mov	r0, r4
 196              	.LVL18:
  14:App/Src/bms_response_log.c **** 
 197              		.loc 1 14 3 view .LVU49
 198 0014 FFF7FEFF 		bl	memset
 199              	.LVL19:
  16:App/Src/bms_response_log.c ****   responseLog.armed = 1U;
 200              		.loc 1 16 3 is_stmt 1 view .LVU50
  16:App/Src/bms_response_log.c ****   responseLog.armed = 1U;
 201              		.loc 1 16 22 is_stmt 0 view .LVU51
 202 0018 04F1040C 		add	ip, r4, #4
 203 001c DFF838E0 		ldr	lr, .L16+4
 204 0020 BEE80F00 		ldmia	lr!, {r0, r1, r2, r3}
 205 0024 ACE80F00 		stmia	ip!, {r0, r1, r2, r3}
 206 0028 9EE80F00 		ldm	lr, {r0, r1, r2, r3}
 207 002c 8CE80F00 		stm	ip, {r0, r1, r2, r3}
  17:App/Src/bms_response_log.c ****   responseLog.triggerType = type;
 208              		.loc 1 17 3 is_stmt 1 view .LVU52
  17:App/Src/bms_response_log.c ****   responseLog.triggerType = type;
 209              		.loc 1 17 21 is_stmt 0 view .LVU53
 210 0030 0123     		movs	r3, #1
 211 0032 2370     		strb	r3, [r4]
  18:App/Src/bms_response_log.c ****   responseLog.primaryCell = primaryCell;
 212              		.loc 1 18 3 is_stmt 1 view .LVU54
  18:App/Src/bms_response_log.c ****   responseLog.primaryCell = primaryCell;
 213              		.loc 1 18 27 is_stmt 0 view .LVU55
 214 0034 84F82480 		strb	r8, [r4, #36]
  19:App/Src/bms_response_log.c ****   responseLog.secondaryCell = secondaryCell;
 215              		.loc 1 19 3 is_stmt 1 view .LVU56
  19:App/Src/bms_response_log.c ****   responseLog.secondaryCell = secondaryCell;
 216              		.loc 1 19 27 is_stmt 0 view .LVU57
 217 0038 84F82570 		strb	r7, [r4, #37]
  20:App/Src/bms_response_log.c ****   responseLog.primaryMillivolts = primaryMillivolts;
 218              		.loc 1 20 3 is_stmt 1 view .LVU58
  20:App/Src/bms_response_log.c ****   responseLog.primaryMillivolts = primaryMillivolts;
 219              		.loc 1 20 29 is_stmt 0 view .LVU59
 220 003c 84F82650 		strb	r5, [r4, #38]
  21:App/Src/bms_response_log.c ****   responseLog.secondaryMillivolts = secondaryMillivolts;
 221              		.loc 1 21 3 is_stmt 1 view .LVU60
  21:App/Src/bms_response_log.c ****   responseLog.secondaryMillivolts = secondaryMillivolts;
 222              		.loc 1 21 33 is_stmt 0 view .LVU61
 223 0040 2685     		strh	r6, [r4, #40]	@ movhi
  22:App/Src/bms_response_log.c ****   responseLog.triggerTick = HAL_GetTick();
 224              		.loc 1 22 3 is_stmt 1 view .LVU62
  22:App/Src/bms_response_log.c ****   responseLog.triggerTick = HAL_GetTick();
 225              		.loc 1 22 35 is_stmt 0 view .LVU63
 226 0042 BDF81830 		ldrh	r3, [sp, #24]
ARM GAS  C:\Users\hh\AppData\Local\Temp\ccrJWwNc.s 			page 8


 227 0046 6385     		strh	r3, [r4, #42]	@ movhi
  23:App/Src/bms_response_log.c **** }
 228              		.loc 1 23 3 is_stmt 1 view .LVU64
  23:App/Src/bms_response_log.c **** }
 229              		.loc 1 23 29 is_stmt 0 view .LVU65
 230 0048 FFF7FEFF 		bl	HAL_GetTick
 231              	.LVL20:
  23:App/Src/bms_response_log.c **** }
 232              		.loc 1 23 27 discriminator 1 view .LVU66
 233 004c E062     		str	r0, [r4, #44]
  24:App/Src/bms_response_log.c **** 
 234              		.loc 1 24 1 view .LVU67
 235 004e BDE8F081 		pop	{r4, r5, r6, r7, r8, pc}
 236              	.LVL21:
 237              	.L17:
  24:App/Src/bms_response_log.c **** 
 238              		.loc 1 24 1 view .LVU68
 239 0052 00BF     		.align	2
 240              	.L16:
 241 0054 00000000 		.word	responseLog
 242 0058 00000000 		.word	responseFilter
 243              		.cfi_endproc
 244              	.LFE146:
 246              		.section	.text.BmsResponseLog_Clear,"ax",%progbits
 247              		.align	1
 248              		.global	BmsResponseLog_Clear
 249              		.syntax unified
 250              		.thumb
 251              		.thumb_func
 253              	BmsResponseLog_Clear:
 254              	.LFB147:
  27:App/Src/bms_response_log.c ****   BmsResponseLog_Filter filter = responseFilter;
 255              		.loc 1 27 1 is_stmt 1 view -0
 256              		.cfi_startproc
 257              		@ args = 0, pretend = 0, frame = 32
 258              		@ frame_needed = 0, uses_anonymous_args = 0
 259 0000 10B5     		push	{r4, lr}
 260              	.LCFI1:
 261              		.cfi_def_cfa_offset 8
 262              		.cfi_offset 4, -8
 263              		.cfi_offset 14, -4
 264 0002 88B0     		sub	sp, sp, #32
 265              	.LCFI2:
 266              		.cfi_def_cfa_offset 40
  28:App/Src/bms_response_log.c **** 
 267              		.loc 1 28 3 view .LVU70
  28:App/Src/bms_response_log.c **** 
 268              		.loc 1 28 25 is_stmt 0 view .LVU71
 269 0004 6C46     		mov	r4, sp
 270 0006 DFF838C0 		ldr	ip, .L20+4
 271 000a BCE80F00 		ldmia	ip!, {r0, r1, r2, r3}
 272 000e 0FC4     		stmia	r4!, {r0, r1, r2, r3}
 273 0010 9CE80F00 		ldm	ip, {r0, r1, r2, r3}
 274 0014 84E80F00 		stm	r4, {r0, r1, r2, r3}
  30:App/Src/bms_response_log.c ****   responseLog.filter = filter;
 275              		.loc 1 30 3 is_stmt 1 view .LVU72
 276 0018 084C     		ldr	r4, .L20
ARM GAS  C:\Users\hh\AppData\Local\Temp\ccrJWwNc.s 			page 9


 277 001a 5422     		movs	r2, #84
 278 001c 0021     		movs	r1, #0
 279 001e 2046     		mov	r0, r4
 280 0020 FFF7FEFF 		bl	memset
 281              	.LVL22:
  31:App/Src/bms_response_log.c **** }
 282              		.loc 1 31 3 view .LVU73
  31:App/Src/bms_response_log.c **** }
 283              		.loc 1 31 22 is_stmt 0 view .LVU74
 284 0024 04F1040C 		add	ip, r4, #4
 285 0028 6C46     		mov	r4, sp
 286 002a 0FCC     		ldmia	r4!, {r0, r1, r2, r3}
 287 002c ACE80F00 		stmia	ip!, {r0, r1, r2, r3}
 288 0030 94E80F00 		ldm	r4, {r0, r1, r2, r3}
 289 0034 8CE80F00 		stm	ip, {r0, r1, r2, r3}
  32:App/Src/bms_response_log.c **** 
 290              		.loc 1 32 1 view .LVU75
 291 0038 08B0     		add	sp, sp, #32
 292              	.LCFI3:
 293              		.cfi_def_cfa_offset 8
 294              		@ sp needed
 295 003a 10BD     		pop	{r4, pc}
 296              	.L21:
 297              		.align	2
 298              	.L20:
 299 003c 00000000 		.word	responseLog
 300 0040 00000000 		.word	responseFilter
 301              		.cfi_endproc
 302              	.LFE147:
 304              		.section	.text.BmsResponseLog_GetStatus,"ax",%progbits
 305              		.align	1
 306              		.global	BmsResponseLog_GetStatus
 307              		.syntax unified
 308              		.thumb
 309              		.thumb_func
 311              	BmsResponseLog_GetStatus:
 312              	.LVL23:
 313              	.LFB148:
  35:App/Src/bms_response_log.c ****   return responseLog;
 314              		.loc 1 35 1 is_stmt 1 view -0
 315              		.cfi_startproc
 316              		@ args = 0, pretend = 0, frame = 0
 317              		@ frame_needed = 0, uses_anonymous_args = 0
  35:App/Src/bms_response_log.c ****   return responseLog;
 318              		.loc 1 35 1 is_stmt 0 view .LVU77
 319 0000 10B5     		push	{r4, lr}
 320              	.LCFI4:
 321              		.cfi_def_cfa_offset 8
 322              		.cfi_offset 4, -8
 323              		.cfi_offset 14, -4
 324 0002 0446     		mov	r4, r0
  36:App/Src/bms_response_log.c **** }
 325              		.loc 1 36 3 is_stmt 1 view .LVU78
  36:App/Src/bms_response_log.c **** }
 326              		.loc 1 36 10 is_stmt 0 view .LVU79
 327 0004 5422     		movs	r2, #84
 328 0006 0249     		ldr	r1, .L24
ARM GAS  C:\Users\hh\AppData\Local\Temp\ccrJWwNc.s 			page 10


 329 0008 FFF7FEFF 		bl	memcpy
 330              	.LVL24:
  37:App/Src/bms_response_log.c **** 
 331              		.loc 1 37 1 view .LVU80
 332 000c 2046     		mov	r0, r4
 333 000e 10BD     		pop	{r4, pc}
 334              	.LVL25:
 335              	.L25:
  37:App/Src/bms_response_log.c **** 
 336              		.loc 1 37 1 view .LVU81
 337              		.align	2
 338              	.L24:
 339 0010 00000000 		.word	responseLog
 340              		.cfi_endproc
 341              	.LFE148:
 343              		.section	.rodata.BmsResponseLog_GetTriggerName.str1.4,"aMS",%progbits,1
 344              		.align	2
 345              	.LC0:
 346 0000 4F5600   		.ascii	"OV\000"
 347 0003 00       		.align	2
 348              	.LC1:
 349 0004 555600   		.ascii	"UV\000"
 350 0007 00       		.align	2
 351              	.LC2:
 352 0008 44494646 		.ascii	"DIFF\000"
 352      00
 353 000d 000000   		.align	2
 354              	.LC3:
 355 0010 4E4F4E45 		.ascii	"NONE\000"
 355      00
 356              		.section	.text.BmsResponseLog_GetTriggerName,"ax",%progbits
 357              		.align	1
 358              		.global	BmsResponseLog_GetTriggerName
 359              		.syntax unified
 360              		.thumb
 361              		.thumb_func
 363              	BmsResponseLog_GetTriggerName:
 364              	.LVL26:
 365              	.LFB149:
  40:App/Src/bms_response_log.c ****   switch (type)
 366              		.loc 1 40 1 is_stmt 1 view -0
 367              		.cfi_startproc
 368              		@ args = 0, pretend = 0, frame = 0
 369              		@ frame_needed = 0, uses_anonymous_args = 0
 370              		@ link register save eliminated.
  41:App/Src/bms_response_log.c ****   {
 371              		.loc 1 41 3 view .LVU83
 372 0000 0228     		cmp	r0, #2
 373 0002 05D0     		beq	.L28
 374 0004 0328     		cmp	r0, #3
 375 0006 05D0     		beq	.L29
 376 0008 0128     		cmp	r0, #1
 377 000a 05D1     		bne	.L30
 378 000c 0348     		ldr	r0, .L31
 379              	.LVL27:
  41:App/Src/bms_response_log.c ****   {
 380              		.loc 1 41 3 is_stmt 0 view .LVU84
ARM GAS  C:\Users\hh\AppData\Local\Temp\ccrJWwNc.s 			page 11


 381 000e 7047     		bx	lr
 382              	.LVL28:
 383              	.L28:
  47:App/Src/bms_response_log.c **** 
 384              		.loc 1 47 14 view .LVU85
 385 0010 0348     		ldr	r0, .L31+4
 386              	.LVL29:
  47:App/Src/bms_response_log.c **** 
 387              		.loc 1 47 14 view .LVU86
 388 0012 7047     		bx	lr
 389              	.LVL30:
 390              	.L29:
  50:App/Src/bms_response_log.c **** 
 391              		.loc 1 50 14 view .LVU87
 392 0014 0348     		ldr	r0, .L31+8
 393              	.LVL31:
  50:App/Src/bms_response_log.c **** 
 394              		.loc 1 50 14 view .LVU88
 395 0016 7047     		bx	lr
 396              	.LVL32:
 397              	.L30:
  54:App/Src/bms_response_log.c ****   }
 398              		.loc 1 54 14 view .LVU89
 399 0018 0348     		ldr	r0, .L31+12
 400              	.LVL33:
  56:App/Src/bms_response_log.c **** 
 401              		.loc 1 56 1 view .LVU90
 402 001a 7047     		bx	lr
 403              	.L32:
 404              		.align	2
 405              	.L31:
 406 001c 00000000 		.word	.LC0
 407 0020 04000000 		.word	.LC1
 408 0024 08000000 		.word	.LC2
 409 0028 10000000 		.word	.LC3
 410              		.cfi_endproc
 411              	.LFE149:
 413              		.section	.text.BmsResponseLog_SetFilter,"ax",%progbits
 414              		.align	1
 415              		.global	BmsResponseLog_SetFilter
 416              		.syntax unified
 417              		.thumb
 418              		.thumb_func
 420              	BmsResponseLog_SetFilter:
 421              	.LVL34:
 422              	.LFB150:
  62:App/Src/bms_response_log.c ****   if (((isExtended == 0U) && ((id > 0x7FFUL) || (mask > 0x7FFUL))) ||
 423              		.loc 1 62 1 is_stmt 1 view -0
 424              		.cfi_startproc
 425              		@ args = 0, pretend = 0, frame = 0
 426              		@ frame_needed = 0, uses_anonymous_args = 0
  63:App/Src/bms_response_log.c ****       ((isExtended != 0U) && ((id > 0x1FFFFFFFUL) || (mask > 0x1FFFFFFFUL))))
 427              		.loc 1 63 3 view .LVU92
  63:App/Src/bms_response_log.c ****       ((isExtended != 0U) && ((id > 0x1FFFFFFFUL) || (mask > 0x1FFFFFFFUL))))
 428              		.loc 1 63 6 is_stmt 0 view .LVU93
 429 0000 8C46     		mov	ip, r1
 430 0002 D1B9     		cbnz	r1, .L34
ARM GAS  C:\Users\hh\AppData\Local\Temp\ccrJWwNc.s 			page 12


  63:App/Src/bms_response_log.c ****       ((isExtended != 0U) && ((id > 0x1FFFFFFFUL) || (mask > 0x1FFFFFFFUL))))
 431              		.loc 1 63 35 discriminator 1 view .LVU94
 432 0004 40F2FF71 		movw	r1, #2047
 433              	.LVL35:
  63:App/Src/bms_response_log.c ****       ((isExtended != 0U) && ((id > 0x1FFFFFFFUL) || (mask > 0x1FFFFFFFUL))))
 434              		.loc 1 63 27 discriminator 1 view .LVU95
 435 0008 8B42     		cmp	r3, r1
 436 000a 98BF     		it	ls
 437 000c 8A42     		cmpls	r2, r1
 438 000e 22D8     		bhi	.L46
  69:App/Src/bms_response_log.c ****   responseFilter.isExtended = (isExtended != 0U) ? 1U : 0U;
 439              		.loc 1 69 3 is_stmt 1 view .LVU96
  69:App/Src/bms_response_log.c ****   responseFilter.isExtended = (isExtended != 0U) ? 1U : 0U;
 440              		.loc 1 69 26 is_stmt 0 view .LVU97
 441 0010 1349     		ldr	r1, .L48
 442 0012 0870     		strb	r0, [r1]
  70:App/Src/bms_response_log.c ****   responseFilter.id = id;
 443              		.loc 1 70 3 is_stmt 1 view .LVU98
 444              	.LVL36:
 445              	.L38:
  62:App/Src/bms_response_log.c ****   if (((isExtended == 0U) && ((id > 0x7FFUL) || (mask > 0x7FFUL))) ||
 446              		.loc 1 62 1 is_stmt 0 view .LVU99
 447 0014 00B5     		push	{lr}
 448              	.LCFI5:
 449              		.cfi_def_cfa_offset 4
 450              		.cfi_offset 14, -4
  70:App/Src/bms_response_log.c ****   responseFilter.id = id;
 451              		.loc 1 70 29 discriminator 4 view .LVU100
 452 0016 1249     		ldr	r1, .L48
 453 0018 81F801C0 		strb	ip, [r1, #1]
  71:App/Src/bms_response_log.c ****   responseFilter.mask = mask;
 454              		.loc 1 71 3 is_stmt 1 view .LVU101
  71:App/Src/bms_response_log.c ****   responseFilter.mask = mask;
 455              		.loc 1 71 21 is_stmt 0 view .LVU102
 456 001c 4A60     		str	r2, [r1, #4]
  72:App/Src/bms_response_log.c ****   responseLog.filter = responseFilter;
 457              		.loc 1 72 3 is_stmt 1 view .LVU103
  72:App/Src/bms_response_log.c ****   responseLog.filter = responseFilter;
 458              		.loc 1 72 23 is_stmt 0 view .LVU104
 459 001e 8B60     		str	r3, [r1, #8]
  73:App/Src/bms_response_log.c ****   return HAL_OK;
 460              		.loc 1 73 3 is_stmt 1 view .LVU105
  73:App/Src/bms_response_log.c ****   return HAL_OK;
 461              		.loc 1 73 22 is_stmt 0 view .LVU106
 462 0020 DFF840E0 		ldr	lr, .L48+4
 463 0024 8C46     		mov	ip, r1
 464 0026 BCE80F00 		ldmia	ip!, {r0, r1, r2, r3}
 465              	.LVL37:
  73:App/Src/bms_response_log.c ****   return HAL_OK;
 466              		.loc 1 73 22 view .LVU107
 467 002a AEE80F00 		stmia	lr!, {r0, r1, r2, r3}
 468 002e 9CE80F00 		ldm	ip, {r0, r1, r2, r3}
 469 0032 8EE80F00 		stm	lr, {r0, r1, r2, r3}
  74:App/Src/bms_response_log.c **** }
 470              		.loc 1 74 3 is_stmt 1 view .LVU108
  74:App/Src/bms_response_log.c **** }
 471              		.loc 1 74 10 is_stmt 0 view .LVU109
ARM GAS  C:\Users\hh\AppData\Local\Temp\ccrJWwNc.s 			page 13


 472 0036 0020     		movs	r0, #0
  75:App/Src/bms_response_log.c **** 
 473              		.loc 1 75 1 view .LVU110
 474 0038 00BD     		pop	{pc}
 475              	.LVL38:
 476              	.L34:
 477              	.LCFI6:
 478              		.cfi_def_cfa_offset 0
 479              		.cfi_restore 14
  64:App/Src/bms_response_log.c ****   {
 480              		.loc 1 64 35 view .LVU111
 481 003a 6FF06041 		mvn	r1, #-536870912
 482              	.LVL39:
  64:App/Src/bms_response_log.c ****   {
 483              		.loc 1 64 27 view .LVU112
 484 003e 8B42     		cmp	r3, r1
 485 0040 98BF     		it	ls
 486 0042 8A42     		cmpls	r2, r1
 487 0044 09D8     		bhi	.L47
  69:App/Src/bms_response_log.c ****   responseFilter.isExtended = (isExtended != 0U) ? 1U : 0U;
 488              		.loc 1 69 3 is_stmt 1 view .LVU113
  69:App/Src/bms_response_log.c ****   responseFilter.isExtended = (isExtended != 0U) ? 1U : 0U;
 489              		.loc 1 69 26 is_stmt 0 view .LVU114
 490 0046 0649     		ldr	r1, .L48
 491 0048 0870     		strb	r0, [r1]
  70:App/Src/bms_response_log.c ****   responseFilter.id = id;
 492              		.loc 1 70 3 is_stmt 1 view .LVU115
  70:App/Src/bms_response_log.c ****   responseFilter.id = id;
 493              		.loc 1 70 29 is_stmt 0 view .LVU116
 494 004a BCF1000F 		cmp	ip, #0
 495 004e E1D0     		beq	.L38
  70:App/Src/bms_response_log.c ****   responseFilter.id = id;
 496              		.loc 1 70 29 discriminator 1 view .LVU117
 497 0050 4FF0010C 		mov	ip, #1
 498              	.LVL40:
  70:App/Src/bms_response_log.c ****   responseFilter.id = id;
 499              		.loc 1 70 29 discriminator 1 view .LVU118
 500 0054 DEE7     		b	.L38
 501              	.L46:
  66:App/Src/bms_response_log.c ****   }
 502              		.loc 1 66 12 view .LVU119
 503 0056 0120     		movs	r0, #1
 504              	.LVL41:
  66:App/Src/bms_response_log.c ****   }
 505              		.loc 1 66 12 view .LVU120
 506 0058 7047     		bx	lr
 507              	.LVL42:
 508              	.L47:
  66:App/Src/bms_response_log.c ****   }
 509              		.loc 1 66 12 view .LVU121
 510 005a 0120     		movs	r0, #1
 511              	.LVL43:
  75:App/Src/bms_response_log.c **** 
 512              		.loc 1 75 1 view .LVU122
 513 005c 7047     		bx	lr
 514              	.L49:
 515 005e 00BF     		.align	2
ARM GAS  C:\Users\hh\AppData\Local\Temp\ccrJWwNc.s 			page 14


 516              	.L48:
 517 0060 00000000 		.word	responseFilter
 518 0064 04000000 		.word	responseLog+4
 519              		.cfi_endproc
 520              	.LFE150:
 522              		.section	.text.BmsResponseLog_DisableFilter,"ax",%progbits
 523              		.align	1
 524              		.global	BmsResponseLog_DisableFilter
 525              		.syntax unified
 526              		.thumb
 527              		.thumb_func
 529              	BmsResponseLog_DisableFilter:
 530              	.LFB151:
  78:App/Src/bms_response_log.c ****   responseFilter.enabled = 0U;
 531              		.loc 1 78 1 is_stmt 1 view -0
 532              		.cfi_startproc
 533              		@ args = 0, pretend = 0, frame = 0
 534              		@ frame_needed = 0, uses_anonymous_args = 0
 535 0000 00B5     		push	{lr}
 536              	.LCFI7:
 537              		.cfi_def_cfa_offset 4
 538              		.cfi_offset 14, -4
  79:App/Src/bms_response_log.c ****   responseLog.filter = responseFilter;
 539              		.loc 1 79 3 view .LVU124
  79:App/Src/bms_response_log.c ****   responseLog.filter = responseFilter;
 540              		.loc 1 79 26 is_stmt 0 view .LVU125
 541 0002 074B     		ldr	r3, .L52
 542 0004 0022     		movs	r2, #0
 543 0006 1A70     		strb	r2, [r3]
  80:App/Src/bms_response_log.c **** }
 544              		.loc 1 80 3 is_stmt 1 view .LVU126
  80:App/Src/bms_response_log.c **** }
 545              		.loc 1 80 22 is_stmt 0 view .LVU127
 546 0008 DFF818E0 		ldr	lr, .L52+4
 547 000c 9C46     		mov	ip, r3
 548 000e BCE80F00 		ldmia	ip!, {r0, r1, r2, r3}
 549 0012 AEE80F00 		stmia	lr!, {r0, r1, r2, r3}
 550 0016 9CE80F00 		ldm	ip, {r0, r1, r2, r3}
 551 001a 8EE80F00 		stm	lr, {r0, r1, r2, r3}
  81:App/Src/bms_response_log.c **** 
 552              		.loc 1 81 1 view .LVU128
 553 001e 00BD     		pop	{pc}
 554              	.L53:
 555              		.align	2
 556              	.L52:
 557 0020 00000000 		.word	responseFilter
 558 0024 04000000 		.word	responseLog+4
 559              		.cfi_endproc
 560              	.LFE151:
 562              		.section	.text.BmsResponseLog_SetDataFilter,"ax",%progbits
 563              		.align	1
 564              		.global	BmsResponseLog_SetDataFilter
 565              		.syntax unified
 566              		.thumb
 567              		.thumb_func
 569              	BmsResponseLog_SetDataFilter:
 570              	.LVL44:
ARM GAS  C:\Users\hh\AppData\Local\Temp\ccrJWwNc.s 			page 15


 571              	.LFB152:
  84:App/Src/bms_response_log.c ****   if (index >= BSP_CAN_MAX_DATA_LEN)
 572              		.loc 1 84 1 is_stmt 1 view -0
 573              		.cfi_startproc
 574              		@ args = 0, pretend = 0, frame = 0
 575              		@ frame_needed = 0, uses_anonymous_args = 0
  85:App/Src/bms_response_log.c ****   {
 576              		.loc 1 85 3 view .LVU130
  85:App/Src/bms_response_log.c ****   {
 577              		.loc 1 85 6 is_stmt 0 view .LVU131
 578 0000 0728     		cmp	r0, #7
 579 0002 1BD8     		bhi	.L57
  84:App/Src/bms_response_log.c ****   if (index >= BSP_CAN_MAX_DATA_LEN)
 580              		.loc 1 84 1 view .LVU132
 581 0004 00B5     		push	{lr}
 582              	.LCFI8:
 583              		.cfi_def_cfa_offset 4
 584              		.cfi_offset 14, -4
  90:App/Src/bms_response_log.c ****   responseFilter.dataValue[index] = value;
 585              		.loc 1 90 3 is_stmt 1 view .LVU133
  90:App/Src/bms_response_log.c ****   responseFilter.dataValue[index] = value;
 586              		.loc 1 90 34 is_stmt 0 view .LVU134
 587 0006 0E4B     		ldr	r3, .L62
 588 0008 0344     		add	r3, r3, r0
 589 000a 5973     		strb	r1, [r3, #13]
  91:App/Src/bms_response_log.c ****   if ((mask != 0U) && ((index + 1U) > responseFilter.minLength))
 590              		.loc 1 91 3 is_stmt 1 view .LVU135
  91:App/Src/bms_response_log.c ****   if ((mask != 0U) && ((index + 1U) > responseFilter.minLength))
 591              		.loc 1 91 35 is_stmt 0 view .LVU136
 592 000c 5A75     		strb	r2, [r3, #21]
  92:App/Src/bms_response_log.c ****   {
 593              		.loc 1 92 3 is_stmt 1 view .LVU137
  92:App/Src/bms_response_log.c ****   {
 594              		.loc 1 92 6 is_stmt 0 view .LVU138
 595 000e 39B1     		cbz	r1, .L56
  92:App/Src/bms_response_log.c ****   {
 596              		.loc 1 92 31 discriminator 1 view .LVU139
 597 0010 431C     		adds	r3, r0, #1
  92:App/Src/bms_response_log.c ****   {
 598              		.loc 1 92 53 discriminator 1 view .LVU140
 599 0012 0B4A     		ldr	r2, .L62
 600              	.LVL45:
  92:App/Src/bms_response_log.c ****   {
 601              		.loc 1 92 53 discriminator 1 view .LVU141
 602 0014 127B     		ldrb	r2, [r2, #12]	@ zero_extendqisi2
 603              	.LVL46:
  92:App/Src/bms_response_log.c ****   {
 604              		.loc 1 92 20 discriminator 1 view .LVU142
 605 0016 9342     		cmp	r3, r2
 606 0018 02D9     		bls	.L56
  94:App/Src/bms_response_log.c ****   }
 607              		.loc 1 94 5 is_stmt 1 view .LVU143
  94:App/Src/bms_response_log.c ****   }
 608              		.loc 1 94 38 is_stmt 0 view .LVU144
 609 001a 1846     		mov	r0, r3
 610              	.LVL47:
  94:App/Src/bms_response_log.c ****   }
ARM GAS  C:\Users\hh\AppData\Local\Temp\ccrJWwNc.s 			page 16


 611              		.loc 1 94 30 view .LVU145
 612 001c 084B     		ldr	r3, .L62
 613              	.LVL48:
  94:App/Src/bms_response_log.c ****   }
 614              		.loc 1 94 30 view .LVU146
 615 001e 1873     		strb	r0, [r3, #12]
 616              	.LVL49:
 617              	.L56:
  96:App/Src/bms_response_log.c ****   return HAL_OK;
 618              		.loc 1 96 3 is_stmt 1 view .LVU147
  96:App/Src/bms_response_log.c ****   return HAL_OK;
 619              		.loc 1 96 22 is_stmt 0 view .LVU148
 620 0020 DFF820C0 		ldr	ip, .L62+4
 621 0024 DFF818E0 		ldr	lr, .L62
 622              	.LVL50:
  96:App/Src/bms_response_log.c ****   return HAL_OK;
 623              		.loc 1 96 22 view .LVU149
 624 0028 BEE80F00 		ldmia	lr!, {r0, r1, r2, r3}
 625              	.LVL51:
  96:App/Src/bms_response_log.c ****   return HAL_OK;
 626              		.loc 1 96 22 view .LVU150
 627 002c ACE80F00 		stmia	ip!, {r0, r1, r2, r3}
 628 0030 9EE80F00 		ldm	lr, {r0, r1, r2, r3}
 629 0034 8CE80F00 		stm	ip, {r0, r1, r2, r3}
  97:App/Src/bms_response_log.c **** }
 630              		.loc 1 97 3 is_stmt 1 view .LVU151
  97:App/Src/bms_response_log.c **** }
 631              		.loc 1 97 10 is_stmt 0 view .LVU152
 632 0038 0020     		movs	r0, #0
  98:App/Src/bms_response_log.c **** 
 633              		.loc 1 98 1 view .LVU153
 634 003a 00BD     		pop	{pc}
 635              	.LVL52:
 636              	.L57:
 637              	.LCFI9:
 638              		.cfi_def_cfa_offset 0
 639              		.cfi_restore 14
  87:App/Src/bms_response_log.c ****   }
 640              		.loc 1 87 12 view .LVU154
 641 003c 0120     		movs	r0, #1
 642              	.LVL53:
  98:App/Src/bms_response_log.c **** 
 643              		.loc 1 98 1 view .LVU155
 644 003e 7047     		bx	lr
 645              	.L63:
 646              		.align	2
 647              	.L62:
 648 0040 00000000 		.word	responseFilter
 649 0044 04000000 		.word	responseLog+4
 650              		.cfi_endproc
 651              	.LFE152:
 653              		.section	.text.BmsResponseLog_ClearDataFilter,"ax",%progbits
 654              		.align	1
 655              		.global	BmsResponseLog_ClearDataFilter
 656              		.syntax unified
 657              		.thumb
 658              		.thumb_func
ARM GAS  C:\Users\hh\AppData\Local\Temp\ccrJWwNc.s 			page 17


 660              	BmsResponseLog_ClearDataFilter:
 661              	.LFB153:
 101:App/Src/bms_response_log.c ****   memset(responseFilter.dataMask, 0, sizeof(responseFilter.dataMask));
 662              		.loc 1 101 1 is_stmt 1 view -0
 663              		.cfi_startproc
 664              		@ args = 0, pretend = 0, frame = 0
 665              		@ frame_needed = 0, uses_anonymous_args = 0
 666 0000 00B5     		push	{lr}
 667              	.LCFI10:
 668              		.cfi_def_cfa_offset 4
 669              		.cfi_offset 14, -4
 102:App/Src/bms_response_log.c ****   memset(responseFilter.dataValue, 0, sizeof(responseFilter.dataValue));
 670              		.loc 1 102 3 view .LVU157
 671 0002 0A4B     		ldr	r3, .L66
 672 0004 0022     		movs	r2, #0
 673 0006 1A60     		str	r2, [r3]	@ unaligned
 674 0008 5A60     		str	r2, [r3, #4]	@ unaligned
 103:App/Src/bms_response_log.c ****   responseFilter.minLength = 0U;
 675              		.loc 1 103 3 view .LVU158
 676 000a 9A60     		str	r2, [r3, #8]	@ unaligned
 677 000c DA60     		str	r2, [r3, #12]	@ unaligned
 104:App/Src/bms_response_log.c ****   responseLog.filter = responseFilter;
 678              		.loc 1 104 3 view .LVU159
 104:App/Src/bms_response_log.c ****   responseLog.filter = responseFilter;
 679              		.loc 1 104 28 is_stmt 0 view .LVU160
 680 000e A3F10D0C 		sub	ip, r3, #13
 681 0012 03F8012C 		strb	r2, [r3, #-1]
 105:App/Src/bms_response_log.c **** }
 682              		.loc 1 105 3 is_stmt 1 view .LVU161
 105:App/Src/bms_response_log.c **** }
 683              		.loc 1 105 22 is_stmt 0 view .LVU162
 684 0016 DFF818E0 		ldr	lr, .L66+4
 685 001a BCE80F00 		ldmia	ip!, {r0, r1, r2, r3}
 686 001e AEE80F00 		stmia	lr!, {r0, r1, r2, r3}
 687 0022 9CE80F00 		ldm	ip, {r0, r1, r2, r3}
 688 0026 8EE80F00 		stm	lr, {r0, r1, r2, r3}
 106:App/Src/bms_response_log.c **** 
 689              		.loc 1 106 1 view .LVU163
 690 002a 00BD     		pop	{pc}
 691              	.L67:
 692              		.align	2
 693              	.L66:
 694 002c 0D000000 		.word	responseFilter+13
 695 0030 04000000 		.word	responseLog+4
 696              		.cfi_endproc
 697              	.LFE153:
 699              		.section	.text.BspCan_OnRxFrame,"ax",%progbits
 700              		.align	1
 701              		.global	BspCan_OnRxFrame
 702              		.syntax unified
 703              		.thumb
 704              		.thumb_func
 706              	BspCan_OnRxFrame:
 707              	.LVL54:
 708              	.LFB155:
 144:App/Src/bms_response_log.c **** 
 145:App/Src/bms_response_log.c **** void BspCan_OnRxFrame(const BspCan_RxFrame *frame)
ARM GAS  C:\Users\hh\AppData\Local\Temp\ccrJWwNc.s 			page 18


 146:App/Src/bms_response_log.c **** {
 709              		.loc 1 146 1 is_stmt 1 view -0
 710              		.cfi_startproc
 711              		@ args = 0, pretend = 0, frame = 0
 712              		@ frame_needed = 0, uses_anonymous_args = 0
 147:App/Src/bms_response_log.c ****   if ((frame == NULL) || (responseLog.armed == 0U))
 713              		.loc 1 147 3 view .LVU165
 714              		.loc 1 147 6 is_stmt 0 view .LVU166
 715 0000 50B3     		cbz	r0, .L72
 146:App/Src/bms_response_log.c ****   if ((frame == NULL) || (responseLog.armed == 0U))
 716              		.loc 1 146 1 view .LVU167
 717 0002 10B5     		push	{r4, lr}
 718              	.LCFI11:
 719              		.cfi_def_cfa_offset 8
 720              		.cfi_offset 4, -8
 721              		.cfi_offset 14, -4
 722 0004 0446     		mov	r4, r0
 723              		.loc 1 147 38 discriminator 1 view .LVU168
 724 0006 154B     		ldr	r3, .L75
 725 0008 1B78     		ldrb	r3, [r3]	@ zero_extendqisi2
 726              		.loc 1 147 23 discriminator 1 view .LVU169
 727 000a 6BB1     		cbz	r3, .L68
 148:App/Src/bms_response_log.c ****   {
 149:App/Src/bms_response_log.c ****     return;
 150:App/Src/bms_response_log.c ****   }
 151:App/Src/bms_response_log.c **** 
 152:App/Src/bms_response_log.c ****   responseLog.canFramesAfterTrigger++;
 728              		.loc 1 152 3 is_stmt 1 view .LVU170
 729              		.loc 1 152 14 is_stmt 0 view .LVU171
 730 000c 134B     		ldr	r3, .L75
 731 000e 1A6B     		ldr	r2, [r3, #48]
 732              		.loc 1 152 36 view .LVU172
 733 0010 0132     		adds	r2, r2, #1
 734 0012 1A63     		str	r2, [r3, #48]
 153:App/Src/bms_response_log.c **** 
 154:App/Src/bms_response_log.c ****   if (responseLog.responseCaptured != 0U)
 735              		.loc 1 154 3 is_stmt 1 view .LVU173
 736              		.loc 1 154 18 is_stmt 0 view .LVU174
 737 0014 93F83830 		ldrb	r3, [r3, #56]	@ zero_extendqisi2
 738              		.loc 1 154 6 view .LVU175
 739 0018 33B9     		cbnz	r3, .L68
 155:App/Src/bms_response_log.c ****   {
 156:App/Src/bms_response_log.c ****     return;
 157:App/Src/bms_response_log.c ****   }
 158:App/Src/bms_response_log.c **** 
 159:App/Src/bms_response_log.c ****   if (BmsResponseLog_FrameMatchesFilter(frame) == 0U)
 740              		.loc 1 159 3 is_stmt 1 view .LVU176
 741              		.loc 1 159 7 is_stmt 0 view .LVU177
 742 001a FFF7FEFF 		bl	BmsResponseLog_FrameMatchesFilter
 743              	.LVL55:
 744              		.loc 1 159 6 discriminator 1 view .LVU178
 745 001e 20B9     		cbnz	r0, .L70
 160:App/Src/bms_response_log.c ****   {
 161:App/Src/bms_response_log.c ****     responseLog.filterMissCount++;
 746              		.loc 1 161 5 is_stmt 1 view .LVU179
 747              		.loc 1 161 16 is_stmt 0 view .LVU180
 748 0020 0E4A     		ldr	r2, .L75
ARM GAS  C:\Users\hh\AppData\Local\Temp\ccrJWwNc.s 			page 19


 749 0022 536B     		ldr	r3, [r2, #52]
 750              		.loc 1 161 32 view .LVU181
 751 0024 0133     		adds	r3, r3, #1
 752 0026 5363     		str	r3, [r2, #52]
 162:App/Src/bms_response_log.c ****     return;
 753              		.loc 1 162 5 is_stmt 1 view .LVU182
 754              	.L68:
 163:App/Src/bms_response_log.c ****   }
 164:App/Src/bms_response_log.c **** 
 165:App/Src/bms_response_log.c ****   responseLog.responseCaptured = 1U;
 166:App/Src/bms_response_log.c ****   responseLog.responseTick = frame->tick;
 167:App/Src/bms_response_log.c ****   responseLog.responseDelayMs = frame->tick - responseLog.triggerTick;
 168:App/Src/bms_response_log.c ****   responseLog.responseCanId = frame->id;
 169:App/Src/bms_response_log.c ****   responseLog.responseCanIsExtended = frame->isExtended;
 170:App/Src/bms_response_log.c ****   responseLog.responseCanLength = frame->length;
 171:App/Src/bms_response_log.c ****   memcpy(responseLog.responseCanData, frame->data, frame->length);
 172:App/Src/bms_response_log.c **** }
 755              		.loc 1 172 1 is_stmt 0 view .LVU183
 756 0028 10BD     		pop	{r4, pc}
 757              	.LVL56:
 758              	.L70:
 165:App/Src/bms_response_log.c ****   responseLog.responseTick = frame->tick;
 759              		.loc 1 165 3 is_stmt 1 view .LVU184
 165:App/Src/bms_response_log.c ****   responseLog.responseTick = frame->tick;
 760              		.loc 1 165 32 is_stmt 0 view .LVU185
 761 002a 0C48     		ldr	r0, .L75
 762 002c 0123     		movs	r3, #1
 763 002e 80F83830 		strb	r3, [r0, #56]
 166:App/Src/bms_response_log.c ****   responseLog.responseDelayMs = frame->tick - responseLog.triggerTick;
 764              		.loc 1 166 3 is_stmt 1 view .LVU186
 166:App/Src/bms_response_log.c ****   responseLog.responseDelayMs = frame->tick - responseLog.triggerTick;
 765              		.loc 1 166 35 is_stmt 0 view .LVU187
 766 0032 2146     		mov	r1, r4
 767 0034 6368     		ldr	r3, [r4, #4]
 166:App/Src/bms_response_log.c ****   responseLog.responseDelayMs = frame->tick - responseLog.triggerTick;
 768              		.loc 1 166 28 view .LVU188
 769 0036 C363     		str	r3, [r0, #60]
 167:App/Src/bms_response_log.c ****   responseLog.responseCanId = frame->id;
 770              		.loc 1 167 3 is_stmt 1 view .LVU189
 167:App/Src/bms_response_log.c ****   responseLog.responseCanId = frame->id;
 771              		.loc 1 167 58 is_stmt 0 view .LVU190
 772 0038 C26A     		ldr	r2, [r0, #44]
 167:App/Src/bms_response_log.c ****   responseLog.responseCanId = frame->id;
 773              		.loc 1 167 45 view .LVU191
 774 003a 9B1A     		subs	r3, r3, r2
 167:App/Src/bms_response_log.c ****   responseLog.responseCanId = frame->id;
 775              		.loc 1 167 31 view .LVU192
 776 003c 0364     		str	r3, [r0, #64]
 168:App/Src/bms_response_log.c ****   responseLog.responseCanIsExtended = frame->isExtended;
 777              		.loc 1 168 3 is_stmt 1 view .LVU193
 168:App/Src/bms_response_log.c ****   responseLog.responseCanIsExtended = frame->isExtended;
 778              		.loc 1 168 36 is_stmt 0 view .LVU194
 779 003e 2368     		ldr	r3, [r4]
 168:App/Src/bms_response_log.c ****   responseLog.responseCanIsExtended = frame->isExtended;
 780              		.loc 1 168 29 view .LVU195
 781 0040 4364     		str	r3, [r0, #68]
 169:App/Src/bms_response_log.c ****   responseLog.responseCanLength = frame->length;
ARM GAS  C:\Users\hh\AppData\Local\Temp\ccrJWwNc.s 			page 20


 782              		.loc 1 169 3 is_stmt 1 view .LVU196
 169:App/Src/bms_response_log.c ****   responseLog.responseCanLength = frame->length;
 783              		.loc 1 169 44 is_stmt 0 view .LVU197
 784 0042 237A     		ldrb	r3, [r4, #8]	@ zero_extendqisi2
 169:App/Src/bms_response_log.c ****   responseLog.responseCanLength = frame->length;
 785              		.loc 1 169 37 view .LVU198
 786 0044 80F84830 		strb	r3, [r0, #72]
 170:App/Src/bms_response_log.c ****   memcpy(responseLog.responseCanData, frame->data, frame->length);
 787              		.loc 1 170 3 is_stmt 1 view .LVU199
 170:App/Src/bms_response_log.c ****   memcpy(responseLog.responseCanData, frame->data, frame->length);
 788              		.loc 1 170 40 is_stmt 0 view .LVU200
 789 0048 627A     		ldrb	r2, [r4, #9]	@ zero_extendqisi2
 170:App/Src/bms_response_log.c ****   memcpy(responseLog.responseCanData, frame->data, frame->length);
 790              		.loc 1 170 33 view .LVU201
 791 004a 80F84920 		strb	r2, [r0, #73]
 171:App/Src/bms_response_log.c **** }
 792              		.loc 1 171 3 is_stmt 1 view .LVU202
 793 004e 0A31     		adds	r1, r1, #10
 794 0050 4A30     		adds	r0, r0, #74
 795 0052 FFF7FEFF 		bl	memcpy
 796              	.LVL57:
 797 0056 E7E7     		b	.L68
 798              	.LVL58:
 799              	.L72:
 800              	.LCFI12:
 801              		.cfi_def_cfa_offset 0
 802              		.cfi_restore 4
 803              		.cfi_restore 14
 171:App/Src/bms_response_log.c **** }
 804              		.loc 1 171 3 is_stmt 0 view .LVU203
 805 0058 7047     		bx	lr
 806              	.L76:
 807 005a 00BF     		.align	2
 808              	.L75:
 809 005c 00000000 		.word	responseLog
 810              		.cfi_endproc
 811              	.LFE155:
 813              		.section	.bss.responseFilter,"aw",%nobits
 814              		.align	2
 817              	responseFilter:
 818 0000 00000000 		.space	32
 818      00000000 
 818      00000000 
 818      00000000 
 818      00000000 
 819              		.section	.bss.responseLog,"aw",%nobits
 820              		.align	2
 823              	responseLog:
 824 0000 00000000 		.space	84
 824      00000000 
 824      00000000 
 824      00000000 
 824      00000000 
 825              		.text
 826              	.Letext0:
 827              		.file 2 "C:/Program Files (x86)/ARM/arm-gnu-toolchain-15.2.rel1-mingw-w64-i686-arm-none-eabi/arm-n
 828              		.file 3 "C:/Program Files (x86)/ARM/arm-gnu-toolchain-15.2.rel1-mingw-w64-i686-arm-none-eabi/arm-n
ARM GAS  C:\Users\hh\AppData\Local\Temp\ccrJWwNc.s 			page 21


 829              		.file 4 "Drivers/STM32H7xx_HAL_Driver/Inc/stm32h7xx_hal_def.h"
 830              		.file 5 "BSP/Inc/bsp_can.h"
 831              		.file 6 "App/Inc/bms_response_log.h"
 832              		.file 7 "C:/Program Files (x86)/ARM/arm-gnu-toolchain-15.2.rel1-mingw-w64-i686-arm-none-eabi/arm-n
 833              		.file 8 "<built-in>"
 834              		.file 9 "Drivers/STM32H7xx_HAL_Driver/Inc/stm32h7xx_hal.h"
ARM GAS  C:\Users\hh\AppData\Local\Temp\ccrJWwNc.s 			page 22

