ARM GAS  C:\Users\hh\AppData\Local\Temp\cc8tXCby.s 			page 1


   1              		.cpu cortex-m7
   2              		.arch armv7e-m
   3              		.fpu fpv5-d16
   4              		.eabi_attribute 28, 1
   5              		.eabi_attribute 20, 1
   6              		.eabi_attribute 21, 1
   7              		.eabi_attribute 23, 3
   8              		.eabi_attribute 24, 1
   9              		.eabi_attribute 25, 1
  10              		.eabi_attribute 26, 1
  11              		.eabi_attribute 30, 1
  12              		.eabi_attribute 34, 1
  13              		.eabi_attribute 18, 4
  14              		.file	"bridgeif_fdb.c"
  15              		.text
  16              	.Ltext0:
  17              		.cfi_sections	.debug_frame
  18              		.file 1 "Middlewares/Third_Party/LwIP/src/netif/bridgeif_fdb.c"
  19              		.section	.text.bridgeif_fdb_age_one_second,"ax",%progbits
  20              		.align	1
  21              		.syntax unified
  22              		.thumb
  23              		.thumb_func
  25              	bridgeif_fdb_age_one_second:
  26              	.LVL0:
  27              	.LFB174:
   1:Middlewares/Third_Party/LwIP/src/netif/bridgeif_fdb.c **** /**
   2:Middlewares/Third_Party/LwIP/src/netif/bridgeif_fdb.c ****  * @file
   3:Middlewares/Third_Party/LwIP/src/netif/bridgeif_fdb.c ****  * lwIP netif implementing an FDB for IEEE 802.1D MAC Bridge
   4:Middlewares/Third_Party/LwIP/src/netif/bridgeif_fdb.c ****  */
   5:Middlewares/Third_Party/LwIP/src/netif/bridgeif_fdb.c **** 
   6:Middlewares/Third_Party/LwIP/src/netif/bridgeif_fdb.c **** /*
   7:Middlewares/Third_Party/LwIP/src/netif/bridgeif_fdb.c ****  * Copyright (c) 2017 Simon Goldschmidt.
   8:Middlewares/Third_Party/LwIP/src/netif/bridgeif_fdb.c ****  * All rights reserved.
   9:Middlewares/Third_Party/LwIP/src/netif/bridgeif_fdb.c ****  *
  10:Middlewares/Third_Party/LwIP/src/netif/bridgeif_fdb.c ****  * Redistribution and use in source and binary forms, with or without modification,
  11:Middlewares/Third_Party/LwIP/src/netif/bridgeif_fdb.c ****  * are permitted provided that the following conditions are met:
  12:Middlewares/Third_Party/LwIP/src/netif/bridgeif_fdb.c ****  *
  13:Middlewares/Third_Party/LwIP/src/netif/bridgeif_fdb.c ****  * 1. Redistributions of source code must retain the above copyright notice,
  14:Middlewares/Third_Party/LwIP/src/netif/bridgeif_fdb.c ****  *    this list of conditions and the following disclaimer.
  15:Middlewares/Third_Party/LwIP/src/netif/bridgeif_fdb.c ****  * 2. Redistributions in binary form must reproduce the above copyright notice,
  16:Middlewares/Third_Party/LwIP/src/netif/bridgeif_fdb.c ****  *    this list of conditions and the following disclaimer in the documentation
  17:Middlewares/Third_Party/LwIP/src/netif/bridgeif_fdb.c ****  *    and/or other materials provided with the distribution.
  18:Middlewares/Third_Party/LwIP/src/netif/bridgeif_fdb.c ****  * 3. The name of the author may not be used to endorse or promote products
  19:Middlewares/Third_Party/LwIP/src/netif/bridgeif_fdb.c ****  *    derived from this software without specific prior written permission.
  20:Middlewares/Third_Party/LwIP/src/netif/bridgeif_fdb.c ****  *
  21:Middlewares/Third_Party/LwIP/src/netif/bridgeif_fdb.c ****  * THIS SOFTWARE IS PROVIDED BY THE AUTHOR ``AS IS'' AND ANY EXPRESS OR IMPLIED
  22:Middlewares/Third_Party/LwIP/src/netif/bridgeif_fdb.c ****  * WARRANTIES, INCLUDING, BUT NOT LIMITED TO, THE IMPLIED WARRANTIES OF
  23:Middlewares/Third_Party/LwIP/src/netif/bridgeif_fdb.c ****  * MERCHANTABILITY AND FITNESS FOR A PARTICULAR PURPOSE ARE DISCLAIMED. IN NO EVENT
  24:Middlewares/Third_Party/LwIP/src/netif/bridgeif_fdb.c ****  * SHALL THE AUTHOR BE LIABLE FOR ANY DIRECT, INDIRECT, INCIDENTAL, SPECIAL,
  25:Middlewares/Third_Party/LwIP/src/netif/bridgeif_fdb.c ****  * EXEMPLARY, OR CONSEQUENTIAL DAMAGES (INCLUDING, BUT NOT LIMITED TO, PROCUREMENT
  26:Middlewares/Third_Party/LwIP/src/netif/bridgeif_fdb.c ****  * OF SUBSTITUTE GOODS OR SERVICES; LOSS OF USE, DATA, OR PROFITS; OR BUSINESS
  27:Middlewares/Third_Party/LwIP/src/netif/bridgeif_fdb.c ****  * INTERRUPTION) HOWEVER CAUSED AND ON ANY THEORY OF LIABILITY, WHETHER IN
  28:Middlewares/Third_Party/LwIP/src/netif/bridgeif_fdb.c ****  * CONTRACT, STRICT LIABILITY, OR TORT (INCLUDING NEGLIGENCE OR OTHERWISE) ARISING
  29:Middlewares/Third_Party/LwIP/src/netif/bridgeif_fdb.c ****  * IN ANY WAY OUT OF THE USE OF THIS SOFTWARE, EVEN IF ADVISED OF THE POSSIBILITY
  30:Middlewares/Third_Party/LwIP/src/netif/bridgeif_fdb.c ****  * OF SUCH DAMAGE.
  31:Middlewares/Third_Party/LwIP/src/netif/bridgeif_fdb.c ****  *
ARM GAS  C:\Users\hh\AppData\Local\Temp\cc8tXCby.s 			page 2


  32:Middlewares/Third_Party/LwIP/src/netif/bridgeif_fdb.c ****  * This file is part of the lwIP TCP/IP stack.
  33:Middlewares/Third_Party/LwIP/src/netif/bridgeif_fdb.c ****  *
  34:Middlewares/Third_Party/LwIP/src/netif/bridgeif_fdb.c ****  * Author: Simon Goldschmidt <goldsimon@gmx.de>
  35:Middlewares/Third_Party/LwIP/src/netif/bridgeif_fdb.c ****  *
  36:Middlewares/Third_Party/LwIP/src/netif/bridgeif_fdb.c ****  */
  37:Middlewares/Third_Party/LwIP/src/netif/bridgeif_fdb.c **** 
  38:Middlewares/Third_Party/LwIP/src/netif/bridgeif_fdb.c **** /**
  39:Middlewares/Third_Party/LwIP/src/netif/bridgeif_fdb.c ****  * @defgroup bridgeif_fdb FDB example code
  40:Middlewares/Third_Party/LwIP/src/netif/bridgeif_fdb.c ****  * @ingroup bridgeif
  41:Middlewares/Third_Party/LwIP/src/netif/bridgeif_fdb.c ****  * This file implements an example for an FDB (Forwarding DataBase)
  42:Middlewares/Third_Party/LwIP/src/netif/bridgeif_fdb.c ****  */
  43:Middlewares/Third_Party/LwIP/src/netif/bridgeif_fdb.c **** 
  44:Middlewares/Third_Party/LwIP/src/netif/bridgeif_fdb.c **** #include "netif/bridgeif.h"
  45:Middlewares/Third_Party/LwIP/src/netif/bridgeif_fdb.c **** #include "lwip/sys.h"
  46:Middlewares/Third_Party/LwIP/src/netif/bridgeif_fdb.c **** #include "lwip/mem.h"
  47:Middlewares/Third_Party/LwIP/src/netif/bridgeif_fdb.c **** #include "lwip/timeouts.h"
  48:Middlewares/Third_Party/LwIP/src/netif/bridgeif_fdb.c **** #include <string.h>
  49:Middlewares/Third_Party/LwIP/src/netif/bridgeif_fdb.c **** 
  50:Middlewares/Third_Party/LwIP/src/netif/bridgeif_fdb.c **** #define BRIDGEIF_AGE_TIMER_MS 1000
  51:Middlewares/Third_Party/LwIP/src/netif/bridgeif_fdb.c **** 
  52:Middlewares/Third_Party/LwIP/src/netif/bridgeif_fdb.c **** #define BR_FDB_TIMEOUT_SEC  (60*5) /* 5 minutes FDB timeout */
  53:Middlewares/Third_Party/LwIP/src/netif/bridgeif_fdb.c **** 
  54:Middlewares/Third_Party/LwIP/src/netif/bridgeif_fdb.c **** typedef struct bridgeif_dfdb_entry_s {
  55:Middlewares/Third_Party/LwIP/src/netif/bridgeif_fdb.c ****   u8_t used;
  56:Middlewares/Third_Party/LwIP/src/netif/bridgeif_fdb.c ****   u8_t port;
  57:Middlewares/Third_Party/LwIP/src/netif/bridgeif_fdb.c ****   u32_t ts;
  58:Middlewares/Third_Party/LwIP/src/netif/bridgeif_fdb.c ****   struct eth_addr addr;
  59:Middlewares/Third_Party/LwIP/src/netif/bridgeif_fdb.c **** } bridgeif_dfdb_entry_t;
  60:Middlewares/Third_Party/LwIP/src/netif/bridgeif_fdb.c **** 
  61:Middlewares/Third_Party/LwIP/src/netif/bridgeif_fdb.c **** typedef struct bridgeif_dfdb_s {
  62:Middlewares/Third_Party/LwIP/src/netif/bridgeif_fdb.c ****   u16_t max_fdb_entries;
  63:Middlewares/Third_Party/LwIP/src/netif/bridgeif_fdb.c ****   bridgeif_dfdb_entry_t *fdb;
  64:Middlewares/Third_Party/LwIP/src/netif/bridgeif_fdb.c **** } bridgeif_dfdb_t;
  65:Middlewares/Third_Party/LwIP/src/netif/bridgeif_fdb.c **** 
  66:Middlewares/Third_Party/LwIP/src/netif/bridgeif_fdb.c **** /**
  67:Middlewares/Third_Party/LwIP/src/netif/bridgeif_fdb.c ****  * @ingroup bridgeif_fdb
  68:Middlewares/Third_Party/LwIP/src/netif/bridgeif_fdb.c ****  * A real simple and slow implementation of an auto-learning forwarding database that
  69:Middlewares/Third_Party/LwIP/src/netif/bridgeif_fdb.c ****  * remembers known src mac addresses to know which port to send frames destined for that
  70:Middlewares/Third_Party/LwIP/src/netif/bridgeif_fdb.c ****  * mac address.
  71:Middlewares/Third_Party/LwIP/src/netif/bridgeif_fdb.c ****  *
  72:Middlewares/Third_Party/LwIP/src/netif/bridgeif_fdb.c ****  * ATTENTION: This is meant as an example only, in real-world use, you should
  73:Middlewares/Third_Party/LwIP/src/netif/bridgeif_fdb.c ****  * provide a better implementation :-)
  74:Middlewares/Third_Party/LwIP/src/netif/bridgeif_fdb.c ****  */
  75:Middlewares/Third_Party/LwIP/src/netif/bridgeif_fdb.c **** void
  76:Middlewares/Third_Party/LwIP/src/netif/bridgeif_fdb.c **** bridgeif_fdb_update_src(void *fdb_ptr, struct eth_addr *src_addr, u8_t port_idx)
  77:Middlewares/Third_Party/LwIP/src/netif/bridgeif_fdb.c **** {
  78:Middlewares/Third_Party/LwIP/src/netif/bridgeif_fdb.c ****   int i;
  79:Middlewares/Third_Party/LwIP/src/netif/bridgeif_fdb.c ****   bridgeif_dfdb_t *fdb = (bridgeif_dfdb_t *)fdb_ptr;
  80:Middlewares/Third_Party/LwIP/src/netif/bridgeif_fdb.c ****   BRIDGEIF_DECL_PROTECT(lev);
  81:Middlewares/Third_Party/LwIP/src/netif/bridgeif_fdb.c ****   BRIDGEIF_READ_PROTECT(lev);
  82:Middlewares/Third_Party/LwIP/src/netif/bridgeif_fdb.c ****   for (i = 0; i < fdb->max_fdb_entries; i++) {
  83:Middlewares/Third_Party/LwIP/src/netif/bridgeif_fdb.c ****     bridgeif_dfdb_entry_t *e = &fdb->fdb[i];
  84:Middlewares/Third_Party/LwIP/src/netif/bridgeif_fdb.c ****     if (e->used && e->ts) {
  85:Middlewares/Third_Party/LwIP/src/netif/bridgeif_fdb.c ****       if (!memcmp(&e->addr, src_addr, sizeof(struct eth_addr))) {
  86:Middlewares/Third_Party/LwIP/src/netif/bridgeif_fdb.c ****         LWIP_DEBUGF(BRIDGEIF_FDB_DEBUG, ("br: update src %02x:%02x:%02x:%02x:%02x:%02x (from %d) @ 
  87:Middlewares/Third_Party/LwIP/src/netif/bridgeif_fdb.c ****                                          src_addr->addr[0], src_addr->addr[1], src_addr->addr[2], s
  88:Middlewares/Third_Party/LwIP/src/netif/bridgeif_fdb.c ****                                          port_idx, i));
ARM GAS  C:\Users\hh\AppData\Local\Temp\cc8tXCby.s 			page 3


  89:Middlewares/Third_Party/LwIP/src/netif/bridgeif_fdb.c ****         BRIDGEIF_WRITE_PROTECT(lev);
  90:Middlewares/Third_Party/LwIP/src/netif/bridgeif_fdb.c ****         e->ts = BR_FDB_TIMEOUT_SEC;
  91:Middlewares/Third_Party/LwIP/src/netif/bridgeif_fdb.c ****         e->port = port_idx;
  92:Middlewares/Third_Party/LwIP/src/netif/bridgeif_fdb.c ****         BRIDGEIF_WRITE_UNPROTECT(lev);
  93:Middlewares/Third_Party/LwIP/src/netif/bridgeif_fdb.c ****         BRIDGEIF_READ_UNPROTECT(lev);
  94:Middlewares/Third_Party/LwIP/src/netif/bridgeif_fdb.c ****         return;
  95:Middlewares/Third_Party/LwIP/src/netif/bridgeif_fdb.c ****       }
  96:Middlewares/Third_Party/LwIP/src/netif/bridgeif_fdb.c ****     }
  97:Middlewares/Third_Party/LwIP/src/netif/bridgeif_fdb.c ****   }
  98:Middlewares/Third_Party/LwIP/src/netif/bridgeif_fdb.c ****   /* not found, allocate new entry from free */
  99:Middlewares/Third_Party/LwIP/src/netif/bridgeif_fdb.c ****   for (i = 0; i < fdb->max_fdb_entries; i++) {
 100:Middlewares/Third_Party/LwIP/src/netif/bridgeif_fdb.c ****     bridgeif_dfdb_entry_t *e = &fdb->fdb[i];
 101:Middlewares/Third_Party/LwIP/src/netif/bridgeif_fdb.c ****     if (!e->used || !e->ts) {
 102:Middlewares/Third_Party/LwIP/src/netif/bridgeif_fdb.c ****       BRIDGEIF_WRITE_PROTECT(lev);
 103:Middlewares/Third_Party/LwIP/src/netif/bridgeif_fdb.c ****       /* check again when protected */
 104:Middlewares/Third_Party/LwIP/src/netif/bridgeif_fdb.c ****       if (!e->used || !e->ts) {
 105:Middlewares/Third_Party/LwIP/src/netif/bridgeif_fdb.c ****         LWIP_DEBUGF(BRIDGEIF_FDB_DEBUG, ("br: create src %02x:%02x:%02x:%02x:%02x:%02x (from %d) @ 
 106:Middlewares/Third_Party/LwIP/src/netif/bridgeif_fdb.c ****                                          src_addr->addr[0], src_addr->addr[1], src_addr->addr[2], s
 107:Middlewares/Third_Party/LwIP/src/netif/bridgeif_fdb.c ****                                          port_idx, i));
 108:Middlewares/Third_Party/LwIP/src/netif/bridgeif_fdb.c ****         memcpy(&e->addr, src_addr, sizeof(struct eth_addr));
 109:Middlewares/Third_Party/LwIP/src/netif/bridgeif_fdb.c ****         e->ts = BR_FDB_TIMEOUT_SEC;
 110:Middlewares/Third_Party/LwIP/src/netif/bridgeif_fdb.c ****         e->port = port_idx;
 111:Middlewares/Third_Party/LwIP/src/netif/bridgeif_fdb.c ****         e->used = 1;
 112:Middlewares/Third_Party/LwIP/src/netif/bridgeif_fdb.c ****         BRIDGEIF_WRITE_UNPROTECT(lev);
 113:Middlewares/Third_Party/LwIP/src/netif/bridgeif_fdb.c ****         BRIDGEIF_READ_UNPROTECT(lev);
 114:Middlewares/Third_Party/LwIP/src/netif/bridgeif_fdb.c ****         return;
 115:Middlewares/Third_Party/LwIP/src/netif/bridgeif_fdb.c ****       }
 116:Middlewares/Third_Party/LwIP/src/netif/bridgeif_fdb.c ****       BRIDGEIF_WRITE_UNPROTECT(lev);
 117:Middlewares/Third_Party/LwIP/src/netif/bridgeif_fdb.c ****     }
 118:Middlewares/Third_Party/LwIP/src/netif/bridgeif_fdb.c ****   }
 119:Middlewares/Third_Party/LwIP/src/netif/bridgeif_fdb.c ****   BRIDGEIF_READ_UNPROTECT(lev);
 120:Middlewares/Third_Party/LwIP/src/netif/bridgeif_fdb.c ****   /* not found, no free entry -> flood */
 121:Middlewares/Third_Party/LwIP/src/netif/bridgeif_fdb.c **** }
 122:Middlewares/Third_Party/LwIP/src/netif/bridgeif_fdb.c **** 
 123:Middlewares/Third_Party/LwIP/src/netif/bridgeif_fdb.c **** /**
 124:Middlewares/Third_Party/LwIP/src/netif/bridgeif_fdb.c ****  * @ingroup bridgeif_fdb
 125:Middlewares/Third_Party/LwIP/src/netif/bridgeif_fdb.c ****  * Walk our list of auto-learnt fdb entries and return a port to forward or BR_FLOOD if unknown
 126:Middlewares/Third_Party/LwIP/src/netif/bridgeif_fdb.c ****  */
 127:Middlewares/Third_Party/LwIP/src/netif/bridgeif_fdb.c **** bridgeif_portmask_t
 128:Middlewares/Third_Party/LwIP/src/netif/bridgeif_fdb.c **** bridgeif_fdb_get_dst_ports(void *fdb_ptr, struct eth_addr *dst_addr)
 129:Middlewares/Third_Party/LwIP/src/netif/bridgeif_fdb.c **** {
 130:Middlewares/Third_Party/LwIP/src/netif/bridgeif_fdb.c ****   int i;
 131:Middlewares/Third_Party/LwIP/src/netif/bridgeif_fdb.c ****   bridgeif_dfdb_t *fdb = (bridgeif_dfdb_t *)fdb_ptr;
 132:Middlewares/Third_Party/LwIP/src/netif/bridgeif_fdb.c ****   BRIDGEIF_DECL_PROTECT(lev);
 133:Middlewares/Third_Party/LwIP/src/netif/bridgeif_fdb.c ****   BRIDGEIF_READ_PROTECT(lev);
 134:Middlewares/Third_Party/LwIP/src/netif/bridgeif_fdb.c ****   for (i = 0; i < fdb->max_fdb_entries; i++) {
 135:Middlewares/Third_Party/LwIP/src/netif/bridgeif_fdb.c ****     bridgeif_dfdb_entry_t *e = &fdb->fdb[i];
 136:Middlewares/Third_Party/LwIP/src/netif/bridgeif_fdb.c ****     if (e->used && e->ts) {
 137:Middlewares/Third_Party/LwIP/src/netif/bridgeif_fdb.c ****       if (!memcmp(&e->addr, dst_addr, sizeof(struct eth_addr))) {
 138:Middlewares/Third_Party/LwIP/src/netif/bridgeif_fdb.c ****         bridgeif_portmask_t ret = (bridgeif_portmask_t)(1 << e->port);
 139:Middlewares/Third_Party/LwIP/src/netif/bridgeif_fdb.c ****         BRIDGEIF_READ_UNPROTECT(lev);
 140:Middlewares/Third_Party/LwIP/src/netif/bridgeif_fdb.c ****         return ret;
 141:Middlewares/Third_Party/LwIP/src/netif/bridgeif_fdb.c ****       }
 142:Middlewares/Third_Party/LwIP/src/netif/bridgeif_fdb.c ****     }
 143:Middlewares/Third_Party/LwIP/src/netif/bridgeif_fdb.c ****   }
 144:Middlewares/Third_Party/LwIP/src/netif/bridgeif_fdb.c ****   BRIDGEIF_READ_UNPROTECT(lev);
 145:Middlewares/Third_Party/LwIP/src/netif/bridgeif_fdb.c ****   return BR_FLOOD;
ARM GAS  C:\Users\hh\AppData\Local\Temp\cc8tXCby.s 			page 4


 146:Middlewares/Third_Party/LwIP/src/netif/bridgeif_fdb.c **** }
 147:Middlewares/Third_Party/LwIP/src/netif/bridgeif_fdb.c **** 
 148:Middlewares/Third_Party/LwIP/src/netif/bridgeif_fdb.c **** /**
 149:Middlewares/Third_Party/LwIP/src/netif/bridgeif_fdb.c ****  * @ingroup bridgeif_fdb
 150:Middlewares/Third_Party/LwIP/src/netif/bridgeif_fdb.c ****  * Aging implementation of our simple fdb
 151:Middlewares/Third_Party/LwIP/src/netif/bridgeif_fdb.c ****  */
 152:Middlewares/Third_Party/LwIP/src/netif/bridgeif_fdb.c **** static void
 153:Middlewares/Third_Party/LwIP/src/netif/bridgeif_fdb.c **** bridgeif_fdb_age_one_second(void *fdb_ptr)
 154:Middlewares/Third_Party/LwIP/src/netif/bridgeif_fdb.c **** {
  28              		.loc 1 154 1 view -0
  29              		.cfi_startproc
  30              		@ args = 0, pretend = 0, frame = 0
  31              		@ frame_needed = 0, uses_anonymous_args = 0
 155:Middlewares/Third_Party/LwIP/src/netif/bridgeif_fdb.c ****   int i;
  32              		.loc 1 155 3 view .LVU1
 156:Middlewares/Third_Party/LwIP/src/netif/bridgeif_fdb.c ****   bridgeif_dfdb_t *fdb;
  33              		.loc 1 156 3 view .LVU2
 157:Middlewares/Third_Party/LwIP/src/netif/bridgeif_fdb.c ****   BRIDGEIF_DECL_PROTECT(lev);
  34              		.loc 1 157 29 view .LVU3
 158:Middlewares/Third_Party/LwIP/src/netif/bridgeif_fdb.c **** 
 159:Middlewares/Third_Party/LwIP/src/netif/bridgeif_fdb.c ****   fdb = (bridgeif_dfdb_t *)fdb_ptr;
  35              		.loc 1 159 3 view .LVU4
 160:Middlewares/Third_Party/LwIP/src/netif/bridgeif_fdb.c ****   BRIDGEIF_READ_PROTECT(lev);
  36              		.loc 1 160 29 view .LVU5
 161:Middlewares/Third_Party/LwIP/src/netif/bridgeif_fdb.c **** 
 162:Middlewares/Third_Party/LwIP/src/netif/bridgeif_fdb.c ****   for (i = 0; i < fdb->max_fdb_entries; i++) {
  37              		.loc 1 162 3 view .LVU6
  38              		.loc 1 162 10 is_stmt 0 view .LVU7
  39 0000 0023     		movs	r3, #0
  40              	.LVL1:
  41              		.loc 1 162 17 is_stmt 1 discriminator 1 view .LVU8
  42              		.loc 1 162 22 is_stmt 0 discriminator 1 view .LVU9
  43 0002 0288     		ldrh	r2, [r0]
  44              		.loc 1 162 17 discriminator 1 view .LVU10
  45 0004 9A42     		cmp	r2, r3
  46 0006 1EDD     		ble	.L8
 154:Middlewares/Third_Party/LwIP/src/netif/bridgeif_fdb.c ****   int i;
  47              		.loc 1 154 1 view .LVU11
  48 0008 00B5     		push	{lr}
  49              	.LCFI0:
  50              		.cfi_def_cfa_offset 4
  51              		.cfi_offset 14, -4
  52 000a 03E0     		b	.L4
  53              	.LVL2:
  54              	.L3:
  55              	.LBB2:
 163:Middlewares/Third_Party/LwIP/src/netif/bridgeif_fdb.c ****     bridgeif_dfdb_entry_t *e = &fdb->fdb[i];
 164:Middlewares/Third_Party/LwIP/src/netif/bridgeif_fdb.c ****     if (e->used && e->ts) {
 165:Middlewares/Third_Party/LwIP/src/netif/bridgeif_fdb.c ****       BRIDGEIF_WRITE_PROTECT(lev);
 166:Middlewares/Third_Party/LwIP/src/netif/bridgeif_fdb.c ****       /* check again when protected */
 167:Middlewares/Third_Party/LwIP/src/netif/bridgeif_fdb.c ****       if (e->used && e->ts) {
 168:Middlewares/Third_Party/LwIP/src/netif/bridgeif_fdb.c ****         if (--e->ts == 0) {
 169:Middlewares/Third_Party/LwIP/src/netif/bridgeif_fdb.c ****           e->used = 0;
 170:Middlewares/Third_Party/LwIP/src/netif/bridgeif_fdb.c ****         }
 171:Middlewares/Third_Party/LwIP/src/netif/bridgeif_fdb.c ****       }
 172:Middlewares/Third_Party/LwIP/src/netif/bridgeif_fdb.c ****       BRIDGEIF_WRITE_UNPROTECT(lev);
  56              		.loc 1 172 36 is_stmt 1 view .LVU12
ARM GAS  C:\Users\hh\AppData\Local\Temp\cc8tXCby.s 			page 5


  57              	.LBE2:
 162:Middlewares/Third_Party/LwIP/src/netif/bridgeif_fdb.c ****     bridgeif_dfdb_entry_t *e = &fdb->fdb[i];
  58              		.loc 1 162 42 discriminator 2 view .LVU13
  59 000c 0133     		adds	r3, r3, #1
  60              	.LVL3:
 162:Middlewares/Third_Party/LwIP/src/netif/bridgeif_fdb.c ****     bridgeif_dfdb_entry_t *e = &fdb->fdb[i];
  61              		.loc 1 162 17 discriminator 1 view .LVU14
 162:Middlewares/Third_Party/LwIP/src/netif/bridgeif_fdb.c ****     bridgeif_dfdb_entry_t *e = &fdb->fdb[i];
  62              		.loc 1 162 22 is_stmt 0 discriminator 1 view .LVU15
  63 000e 0288     		ldrh	r2, [r0]
 162:Middlewares/Third_Party/LwIP/src/netif/bridgeif_fdb.c ****     bridgeif_dfdb_entry_t *e = &fdb->fdb[i];
  64              		.loc 1 162 17 discriminator 1 view .LVU16
  65 0010 9A42     		cmp	r2, r3
  66 0012 17DD     		ble	.L9
  67              	.LVL4:
  68              	.L4:
  69              	.LBB3:
 163:Middlewares/Third_Party/LwIP/src/netif/bridgeif_fdb.c ****     bridgeif_dfdb_entry_t *e = &fdb->fdb[i];
  70              		.loc 1 163 5 is_stmt 1 view .LVU17
 163:Middlewares/Third_Party/LwIP/src/netif/bridgeif_fdb.c ****     bridgeif_dfdb_entry_t *e = &fdb->fdb[i];
  71              		.loc 1 163 36 is_stmt 0 view .LVU18
  72 0014 4268     		ldr	r2, [r0, #4]
 163:Middlewares/Third_Party/LwIP/src/netif/bridgeif_fdb.c ****     bridgeif_dfdb_entry_t *e = &fdb->fdb[i];
  73              		.loc 1 163 41 view .LVU19
  74 0016 1901     		lsls	r1, r3, #4
 163:Middlewares/Third_Party/LwIP/src/netif/bridgeif_fdb.c ****     bridgeif_dfdb_entry_t *e = &fdb->fdb[i];
  75              		.loc 1 163 28 view .LVU20
  76 0018 02EB031E 		add	lr, r2, r3, lsl #4
  77              	.LVL5:
 164:Middlewares/Third_Party/LwIP/src/netif/bridgeif_fdb.c ****       BRIDGEIF_WRITE_PROTECT(lev);
  78              		.loc 1 164 5 is_stmt 1 view .LVU21
 164:Middlewares/Third_Party/LwIP/src/netif/bridgeif_fdb.c ****       BRIDGEIF_WRITE_PROTECT(lev);
  79              		.loc 1 164 10 is_stmt 0 view .LVU22
  80 001c 12F801C0 		ldrb	ip, [r2, r1]	@ zero_extendqisi2
 164:Middlewares/Third_Party/LwIP/src/netif/bridgeif_fdb.c ****       BRIDGEIF_WRITE_PROTECT(lev);
  81              		.loc 1 164 8 view .LVU23
  82 0020 BCF1000F 		cmp	ip, #0
  83 0024 F2D0     		beq	.L3
 164:Middlewares/Third_Party/LwIP/src/netif/bridgeif_fdb.c ****       BRIDGEIF_WRITE_PROTECT(lev);
  84              		.loc 1 164 21 discriminator 1 view .LVU24
  85 0026 DEF804C0 		ldr	ip, [lr, #4]
 164:Middlewares/Third_Party/LwIP/src/netif/bridgeif_fdb.c ****       BRIDGEIF_WRITE_PROTECT(lev);
  86              		.loc 1 164 17 discriminator 1 view .LVU25
  87 002a BCF1000F 		cmp	ip, #0
  88 002e EDD0     		beq	.L3
 165:Middlewares/Third_Party/LwIP/src/netif/bridgeif_fdb.c ****       /* check again when protected */
  89              		.loc 1 165 34 is_stmt 1 view .LVU26
 167:Middlewares/Third_Party/LwIP/src/netif/bridgeif_fdb.c ****         if (--e->ts == 0) {
  90              		.loc 1 167 7 view .LVU27
 168:Middlewares/Third_Party/LwIP/src/netif/bridgeif_fdb.c ****           e->used = 0;
  91              		.loc 1 168 9 view .LVU28
 168:Middlewares/Third_Party/LwIP/src/netif/bridgeif_fdb.c ****           e->used = 0;
  92              		.loc 1 168 13 is_stmt 0 view .LVU29
  93 0030 0CF1FF3C 		add	ip, ip, #-1
 168:Middlewares/Third_Party/LwIP/src/netif/bridgeif_fdb.c ****           e->used = 0;
  94              		.loc 1 168 12 view .LVU30
  95 0034 CEF804C0 		str	ip, [lr, #4]
ARM GAS  C:\Users\hh\AppData\Local\Temp\cc8tXCby.s 			page 6


  96 0038 BCF1000F 		cmp	ip, #0
  97 003c E6D1     		bne	.L3
 169:Middlewares/Third_Party/LwIP/src/netif/bridgeif_fdb.c ****         }
  98              		.loc 1 169 11 is_stmt 1 view .LVU31
 169:Middlewares/Third_Party/LwIP/src/netif/bridgeif_fdb.c ****         }
  99              		.loc 1 169 19 is_stmt 0 view .LVU32
 100 003e 02F801C0 		strb	ip, [r2, r1]
 101 0042 E3E7     		b	.L3
 102              	.L9:
 169:Middlewares/Third_Party/LwIP/src/netif/bridgeif_fdb.c ****         }
 103              		.loc 1 169 19 view .LVU33
 104              	.LBE3:
 173:Middlewares/Third_Party/LwIP/src/netif/bridgeif_fdb.c ****     }
 174:Middlewares/Third_Party/LwIP/src/netif/bridgeif_fdb.c ****   }
 175:Middlewares/Third_Party/LwIP/src/netif/bridgeif_fdb.c ****   BRIDGEIF_READ_UNPROTECT(lev);
 176:Middlewares/Third_Party/LwIP/src/netif/bridgeif_fdb.c **** }
 105              		.loc 1 176 1 view .LVU34
 106 0044 00BD     		pop	{pc}
 107              	.LVL6:
 108              	.L8:
 109              	.LCFI1:
 110              		.cfi_def_cfa_offset 0
 111              		.cfi_restore 14
 112              		.loc 1 176 1 view .LVU35
 113 0046 7047     		bx	lr
 114              		.cfi_endproc
 115              	.LFE174:
 117              		.section	.rodata.bridgeif_age_tmr.str1.4,"aMS",%progbits,1
 118              		.align	2
 119              	.LC0:
 120 0000 4D696464 		.ascii	"Middlewares/Third_Party/LwIP/src/netif/bridgeif_fdb"
 120      6C657761 
 120      7265732F 
 120      54686972 
 120      645F5061 
 121 0033 2E6300   		.ascii	".c\000"
 122 0036 0000     		.align	2
 123              	.LC1:
 124 0038 696E7661 		.ascii	"invalid arg\000"
 124      6C696420 
 124      61726700 
 125              		.align	2
 126              	.LC2:
 127 0044 41737365 		.ascii	"Assertion \"%s\" failed at line %d in %s\012\000"
 127      7274696F 
 127      6E202225 
 127      73222066 
 127      61696C65 
 128              		.section	.text.bridgeif_age_tmr,"ax",%progbits
 129              		.align	1
 130              		.syntax unified
 131              		.thumb
 132              		.thumb_func
 134              	bridgeif_age_tmr:
 135              	.LVL7:
 136              	.LFB175:
 177:Middlewares/Third_Party/LwIP/src/netif/bridgeif_fdb.c **** 
ARM GAS  C:\Users\hh\AppData\Local\Temp\cc8tXCby.s 			page 7


 178:Middlewares/Third_Party/LwIP/src/netif/bridgeif_fdb.c **** /** Timer callback for fdb aging, called once per second */
 179:Middlewares/Third_Party/LwIP/src/netif/bridgeif_fdb.c **** static void
 180:Middlewares/Third_Party/LwIP/src/netif/bridgeif_fdb.c **** bridgeif_age_tmr(void *arg)
 181:Middlewares/Third_Party/LwIP/src/netif/bridgeif_fdb.c **** {
 137              		.loc 1 181 1 is_stmt 1 view -0
 138              		.cfi_startproc
 139              		@ args = 0, pretend = 0, frame = 0
 140              		@ frame_needed = 0, uses_anonymous_args = 0
 141              		.loc 1 181 1 is_stmt 0 view .LVU37
 142 0000 10B5     		push	{r4, lr}
 143              	.LCFI2:
 144              		.cfi_def_cfa_offset 8
 145              		.cfi_offset 4, -8
 146              		.cfi_offset 14, -4
 182:Middlewares/Third_Party/LwIP/src/netif/bridgeif_fdb.c ****   bridgeif_dfdb_t *fdb = (bridgeif_dfdb_t *)arg;
 147              		.loc 1 182 3 is_stmt 1 view .LVU38
 148              	.LVL8:
 183:Middlewares/Third_Party/LwIP/src/netif/bridgeif_fdb.c **** 
 184:Middlewares/Third_Party/LwIP/src/netif/bridgeif_fdb.c ****   LWIP_ASSERT("invalid arg", arg != NULL);
 149              		.loc 1 184 3 view .LVU39
 150              		.loc 1 184 3 view .LVU40
 151 0002 0446     		mov	r4, r0
 152 0004 48B1     		cbz	r0, .L13
 153              	.LVL9:
 154              	.L11:
 155              		.loc 1 184 3 view .LVU41
 156              		.loc 1 184 3 view .LVU42
 185:Middlewares/Third_Party/LwIP/src/netif/bridgeif_fdb.c **** 
 186:Middlewares/Third_Party/LwIP/src/netif/bridgeif_fdb.c ****   bridgeif_fdb_age_one_second(fdb);
 157              		.loc 1 186 3 view .LVU43
 158 0006 2046     		mov	r0, r4
 159 0008 FFF7FEFF 		bl	bridgeif_fdb_age_one_second
 160              	.LVL10:
 187:Middlewares/Third_Party/LwIP/src/netif/bridgeif_fdb.c ****   sys_timeout(BRIDGEIF_AGE_TIMER_MS, bridgeif_age_tmr, arg);
 161              		.loc 1 187 3 view .LVU44
 162 000c 2246     		mov	r2, r4
 163 000e 0649     		ldr	r1, .L14
 164 0010 4FF47A70 		mov	r0, #1000
 165 0014 FFF7FEFF 		bl	sys_timeout
 166              	.LVL11:
 188:Middlewares/Third_Party/LwIP/src/netif/bridgeif_fdb.c **** }
 167              		.loc 1 188 1 is_stmt 0 view .LVU45
 168 0018 10BD     		pop	{r4, pc}
 169              	.LVL12:
 170              	.L13:
 184:Middlewares/Third_Party/LwIP/src/netif/bridgeif_fdb.c **** 
 171              		.loc 1 184 3 is_stmt 1 discriminator 1 view .LVU46
 184:Middlewares/Third_Party/LwIP/src/netif/bridgeif_fdb.c **** 
 172              		.loc 1 184 3 discriminator 1 view .LVU47
 173 001a 044B     		ldr	r3, .L14+4
 174 001c B822     		movs	r2, #184
 175 001e 0449     		ldr	r1, .L14+8
 176 0020 0448     		ldr	r0, .L14+12
 177              	.LVL13:
 184:Middlewares/Third_Party/LwIP/src/netif/bridgeif_fdb.c **** 
 178              		.loc 1 184 3 is_stmt 0 discriminator 1 view .LVU48
 179 0022 FFF7FEFF 		bl	printf
ARM GAS  C:\Users\hh\AppData\Local\Temp\cc8tXCby.s 			page 8


 180              	.LVL14:
 181 0026 EEE7     		b	.L11
 182              	.L15:
 183              		.align	2
 184              	.L14:
 185 0028 00000000 		.word	bridgeif_age_tmr
 186 002c 00000000 		.word	.LC0
 187 0030 38000000 		.word	.LC1
 188 0034 44000000 		.word	.LC2
 189              		.cfi_endproc
 190              	.LFE175:
 192              		.section	.text.bridgeif_fdb_update_src,"ax",%progbits
 193              		.align	1
 194              		.global	bridgeif_fdb_update_src
 195              		.syntax unified
 196              		.thumb
 197              		.thumb_func
 199              	bridgeif_fdb_update_src:
 200              	.LVL15:
 201              	.LFB172:
  77:Middlewares/Third_Party/LwIP/src/netif/bridgeif_fdb.c ****   int i;
 202              		.loc 1 77 1 is_stmt 1 view -0
 203              		.cfi_startproc
 204              		@ args = 0, pretend = 0, frame = 0
 205              		@ frame_needed = 0, uses_anonymous_args = 0
  77:Middlewares/Third_Party/LwIP/src/netif/bridgeif_fdb.c ****   int i;
 206              		.loc 1 77 1 is_stmt 0 view .LVU50
 207 0000 2DE9F041 		push	{r4, r5, r6, r7, r8, lr}
 208              	.LCFI3:
 209              		.cfi_def_cfa_offset 24
 210              		.cfi_offset 4, -24
 211              		.cfi_offset 5, -20
 212              		.cfi_offset 6, -16
 213              		.cfi_offset 7, -12
 214              		.cfi_offset 8, -8
 215              		.cfi_offset 14, -4
 216 0004 0546     		mov	r5, r0
 217 0006 0E46     		mov	r6, r1
 218 0008 9046     		mov	r8, r2
  78:Middlewares/Third_Party/LwIP/src/netif/bridgeif_fdb.c ****   bridgeif_dfdb_t *fdb = (bridgeif_dfdb_t *)fdb_ptr;
 219              		.loc 1 78 3 is_stmt 1 view .LVU51
  79:Middlewares/Third_Party/LwIP/src/netif/bridgeif_fdb.c ****   BRIDGEIF_DECL_PROTECT(lev);
 220              		.loc 1 79 3 view .LVU52
 221              	.LVL16:
  80:Middlewares/Third_Party/LwIP/src/netif/bridgeif_fdb.c ****   BRIDGEIF_READ_PROTECT(lev);
 222              		.loc 1 80 29 view .LVU53
  81:Middlewares/Third_Party/LwIP/src/netif/bridgeif_fdb.c ****   for (i = 0; i < fdb->max_fdb_entries; i++) {
 223              		.loc 1 81 29 view .LVU54
  82:Middlewares/Third_Party/LwIP/src/netif/bridgeif_fdb.c ****     bridgeif_dfdb_entry_t *e = &fdb->fdb[i];
 224              		.loc 1 82 3 view .LVU55
  82:Middlewares/Third_Party/LwIP/src/netif/bridgeif_fdb.c ****     bridgeif_dfdb_entry_t *e = &fdb->fdb[i];
 225              		.loc 1 82 10 is_stmt 0 view .LVU56
 226 000a 0024     		movs	r4, #0
  82:Middlewares/Third_Party/LwIP/src/netif/bridgeif_fdb.c ****     bridgeif_dfdb_entry_t *e = &fdb->fdb[i];
 227              		.loc 1 82 3 view .LVU57
 228 000c 00E0     		b	.L17
 229              	.LVL17:
ARM GAS  C:\Users\hh\AppData\Local\Temp\cc8tXCby.s 			page 9


 230              	.L18:
  82:Middlewares/Third_Party/LwIP/src/netif/bridgeif_fdb.c ****     bridgeif_dfdb_entry_t *e = &fdb->fdb[i];
 231              		.loc 1 82 42 is_stmt 1 discriminator 2 view .LVU58
 232 000e 0134     		adds	r4, r4, #1
 233              	.LVL18:
 234              	.L17:
  82:Middlewares/Third_Party/LwIP/src/netif/bridgeif_fdb.c ****     bridgeif_dfdb_entry_t *e = &fdb->fdb[i];
 235              		.loc 1 82 17 discriminator 1 view .LVU59
  82:Middlewares/Third_Party/LwIP/src/netif/bridgeif_fdb.c ****     bridgeif_dfdb_entry_t *e = &fdb->fdb[i];
 236              		.loc 1 82 22 is_stmt 0 discriminator 1 view .LVU60
 237 0010 2A88     		ldrh	r2, [r5]
  82:Middlewares/Third_Party/LwIP/src/netif/bridgeif_fdb.c ****     bridgeif_dfdb_entry_t *e = &fdb->fdb[i];
 238              		.loc 1 82 17 discriminator 1 view .LVU61
 239 0012 A242     		cmp	r2, r4
 240 0014 17DD     		ble	.L27
 241              	.LBB4:
  83:Middlewares/Third_Party/LwIP/src/netif/bridgeif_fdb.c ****     if (e->used && e->ts) {
 242              		.loc 1 83 5 is_stmt 1 view .LVU62
  83:Middlewares/Third_Party/LwIP/src/netif/bridgeif_fdb.c ****     if (e->used && e->ts) {
 243              		.loc 1 83 36 is_stmt 0 view .LVU63
 244 0016 6A68     		ldr	r2, [r5, #4]
  83:Middlewares/Third_Party/LwIP/src/netif/bridgeif_fdb.c ****     if (e->used && e->ts) {
 245              		.loc 1 83 41 view .LVU64
 246 0018 2301     		lsls	r3, r4, #4
  83:Middlewares/Third_Party/LwIP/src/netif/bridgeif_fdb.c ****     if (e->used && e->ts) {
 247              		.loc 1 83 28 view .LVU65
 248 001a 02EB0417 		add	r7, r2, r4, lsl #4
 249              	.LVL19:
  84:Middlewares/Third_Party/LwIP/src/netif/bridgeif_fdb.c ****       if (!memcmp(&e->addr, src_addr, sizeof(struct eth_addr))) {
 250              		.loc 1 84 5 is_stmt 1 view .LVU66
  84:Middlewares/Third_Party/LwIP/src/netif/bridgeif_fdb.c ****       if (!memcmp(&e->addr, src_addr, sizeof(struct eth_addr))) {
 251              		.loc 1 84 10 is_stmt 0 view .LVU67
 252 001e D35C     		ldrb	r3, [r2, r3]	@ zero_extendqisi2
  84:Middlewares/Third_Party/LwIP/src/netif/bridgeif_fdb.c ****       if (!memcmp(&e->addr, src_addr, sizeof(struct eth_addr))) {
 253              		.loc 1 84 8 view .LVU68
 254 0020 002B     		cmp	r3, #0
 255 0022 F4D0     		beq	.L18
  84:Middlewares/Third_Party/LwIP/src/netif/bridgeif_fdb.c ****       if (!memcmp(&e->addr, src_addr, sizeof(struct eth_addr))) {
 256              		.loc 1 84 21 discriminator 1 view .LVU69
 257 0024 7B68     		ldr	r3, [r7, #4]
  84:Middlewares/Third_Party/LwIP/src/netif/bridgeif_fdb.c ****       if (!memcmp(&e->addr, src_addr, sizeof(struct eth_addr))) {
 258              		.loc 1 84 17 discriminator 1 view .LVU70
 259 0026 002B     		cmp	r3, #0
 260 0028 F1D0     		beq	.L18
  85:Middlewares/Third_Party/LwIP/src/netif/bridgeif_fdb.c ****         LWIP_DEBUGF(BRIDGEIF_FDB_DEBUG, ("br: update src %02x:%02x:%02x:%02x:%02x:%02x (from %d) @ 
 261              		.loc 1 85 7 is_stmt 1 view .LVU71
  85:Middlewares/Third_Party/LwIP/src/netif/bridgeif_fdb.c ****         LWIP_DEBUGF(BRIDGEIF_FDB_DEBUG, ("br: update src %02x:%02x:%02x:%02x:%02x:%02x (from %d) @ 
 262              		.loc 1 85 12 is_stmt 0 view .LVU72
 263 002a 0622     		movs	r2, #6
 264 002c 3146     		mov	r1, r6
 265 002e 07F10800 		add	r0, r7, #8
 266 0032 FFF7FEFF 		bl	memcmp
 267              	.LVL20:
  85:Middlewares/Third_Party/LwIP/src/netif/bridgeif_fdb.c ****         LWIP_DEBUGF(BRIDGEIF_FDB_DEBUG, ("br: update src %02x:%02x:%02x:%02x:%02x:%02x (from %d) @ 
 268              		.loc 1 85 10 discriminator 1 view .LVU73
 269 0036 0028     		cmp	r0, #0
 270 0038 E9D1     		bne	.L18
ARM GAS  C:\Users\hh\AppData\Local\Temp\cc8tXCby.s 			page 10


  88:Middlewares/Third_Party/LwIP/src/netif/bridgeif_fdb.c ****         BRIDGEIF_WRITE_PROTECT(lev);
 271              		.loc 1 88 55 is_stmt 1 view .LVU74
  89:Middlewares/Third_Party/LwIP/src/netif/bridgeif_fdb.c ****         e->ts = BR_FDB_TIMEOUT_SEC;
 272              		.loc 1 89 36 view .LVU75
  90:Middlewares/Third_Party/LwIP/src/netif/bridgeif_fdb.c ****         e->port = port_idx;
 273              		.loc 1 90 9 view .LVU76
  90:Middlewares/Third_Party/LwIP/src/netif/bridgeif_fdb.c ****         e->port = port_idx;
 274              		.loc 1 90 15 is_stmt 0 view .LVU77
 275 003a 4FF49673 		mov	r3, #300
 276 003e 7B60     		str	r3, [r7, #4]
  91:Middlewares/Third_Party/LwIP/src/netif/bridgeif_fdb.c ****         BRIDGEIF_WRITE_UNPROTECT(lev);
 277              		.loc 1 91 9 is_stmt 1 view .LVU78
  91:Middlewares/Third_Party/LwIP/src/netif/bridgeif_fdb.c ****         BRIDGEIF_WRITE_UNPROTECT(lev);
 278              		.loc 1 91 17 is_stmt 0 view .LVU79
 279 0040 87F80180 		strb	r8, [r7, #1]
  92:Middlewares/Third_Party/LwIP/src/netif/bridgeif_fdb.c ****         BRIDGEIF_READ_UNPROTECT(lev);
 280              		.loc 1 92 38 is_stmt 1 view .LVU80
  93:Middlewares/Third_Party/LwIP/src/netif/bridgeif_fdb.c ****         return;
 281              		.loc 1 93 37 view .LVU81
  94:Middlewares/Third_Party/LwIP/src/netif/bridgeif_fdb.c ****       }
 282              		.loc 1 94 9 view .LVU82
 283 0044 20E0     		b	.L16
 284              	.LVL21:
 285              	.L27:
  94:Middlewares/Third_Party/LwIP/src/netif/bridgeif_fdb.c ****       }
 286              		.loc 1 94 9 is_stmt 0 view .LVU83
 287              	.LBE4:
  99:Middlewares/Third_Party/LwIP/src/netif/bridgeif_fdb.c ****     bridgeif_dfdb_entry_t *e = &fdb->fdb[i];
 288              		.loc 1 99 10 view .LVU84
 289 0046 0023     		movs	r3, #0
 290 0048 03E0     		b	.L21
 291              	.LVL22:
 292              	.L22:
 293              	.LBB5:
 102:Middlewares/Third_Party/LwIP/src/netif/bridgeif_fdb.c ****       /* check again when protected */
 294              		.loc 1 102 34 is_stmt 1 view .LVU85
 104:Middlewares/Third_Party/LwIP/src/netif/bridgeif_fdb.c ****         LWIP_DEBUGF(BRIDGEIF_FDB_DEBUG, ("br: create src %02x:%02x:%02x:%02x:%02x:%02x (from %d) @ 
 295              		.loc 1 104 7 view .LVU86
 104:Middlewares/Third_Party/LwIP/src/netif/bridgeif_fdb.c ****         LWIP_DEBUGF(BRIDGEIF_FDB_DEBUG, ("br: create src %02x:%02x:%02x:%02x:%02x:%02x (from %d) @ 
 296              		.loc 1 104 10 is_stmt 0 view .LVU87
 297 004a 88B1     		cbz	r0, .L24
 104:Middlewares/Third_Party/LwIP/src/netif/bridgeif_fdb.c ****         LWIP_DEBUGF(BRIDGEIF_FDB_DEBUG, ("br: create src %02x:%02x:%02x:%02x:%02x:%02x (from %d) @ 
 298              		.loc 1 104 25 discriminator 1 view .LVU88
 299 004c 7868     		ldr	r0, [r7, #4]
 104:Middlewares/Third_Party/LwIP/src/netif/bridgeif_fdb.c ****         LWIP_DEBUGF(BRIDGEIF_FDB_DEBUG, ("br: create src %02x:%02x:%02x:%02x:%02x:%02x (from %d) @ 
 300              		.loc 1 104 20 discriminator 1 view .LVU89
 301 004e 78B1     		cbz	r0, .L24
 302              	.L23:
 116:Middlewares/Third_Party/LwIP/src/netif/bridgeif_fdb.c ****     }
 303              		.loc 1 116 36 is_stmt 1 view .LVU90
 304              	.LBE5:
  99:Middlewares/Third_Party/LwIP/src/netif/bridgeif_fdb.c ****     bridgeif_dfdb_entry_t *e = &fdb->fdb[i];
 305              		.loc 1 99 42 discriminator 2 view .LVU91
 306 0050 0133     		adds	r3, r3, #1
 307              	.LVL23:
 308              	.L21:
  99:Middlewares/Third_Party/LwIP/src/netif/bridgeif_fdb.c ****     bridgeif_dfdb_entry_t *e = &fdb->fdb[i];
ARM GAS  C:\Users\hh\AppData\Local\Temp\cc8tXCby.s 			page 11


 309              		.loc 1 99 17 discriminator 1 view .LVU92
 310 0052 9A42     		cmp	r2, r3
 311 0054 18DD     		ble	.L16
 312              	.LBB6:
 100:Middlewares/Third_Party/LwIP/src/netif/bridgeif_fdb.c ****     if (!e->used || !e->ts) {
 313              		.loc 1 100 5 view .LVU93
 100:Middlewares/Third_Party/LwIP/src/netif/bridgeif_fdb.c ****     if (!e->used || !e->ts) {
 314              		.loc 1 100 36 is_stmt 0 view .LVU94
 315 0056 6968     		ldr	r1, [r5, #4]
 100:Middlewares/Third_Party/LwIP/src/netif/bridgeif_fdb.c ****     if (!e->used || !e->ts) {
 316              		.loc 1 100 41 view .LVU95
 317 0058 4FEA031C 		lsl	ip, r3, #4
 100:Middlewares/Third_Party/LwIP/src/netif/bridgeif_fdb.c ****     if (!e->used || !e->ts) {
 318              		.loc 1 100 28 view .LVU96
 319 005c 01EB0317 		add	r7, r1, r3, lsl #4
 320              	.LVL24:
 101:Middlewares/Third_Party/LwIP/src/netif/bridgeif_fdb.c ****       BRIDGEIF_WRITE_PROTECT(lev);
 321              		.loc 1 101 5 is_stmt 1 view .LVU97
 101:Middlewares/Third_Party/LwIP/src/netif/bridgeif_fdb.c ****       BRIDGEIF_WRITE_PROTECT(lev);
 322              		.loc 1 101 11 is_stmt 0 view .LVU98
 323 0060 11F80C00 		ldrb	r0, [r1, ip]	@ zero_extendqisi2
 101:Middlewares/Third_Party/LwIP/src/netif/bridgeif_fdb.c ****       BRIDGEIF_WRITE_PROTECT(lev);
 324              		.loc 1 101 8 view .LVU99
 325 0064 0028     		cmp	r0, #0
 326 0066 F0D0     		beq	.L22
 101:Middlewares/Third_Party/LwIP/src/netif/bridgeif_fdb.c ****       BRIDGEIF_WRITE_PROTECT(lev);
 327              		.loc 1 101 23 discriminator 1 view .LVU100
 328 0068 7C68     		ldr	r4, [r7, #4]
 101:Middlewares/Third_Party/LwIP/src/netif/bridgeif_fdb.c ****       BRIDGEIF_WRITE_PROTECT(lev);
 329              		.loc 1 101 18 discriminator 1 view .LVU101
 330 006a 002C     		cmp	r4, #0
 331 006c F0D1     		bne	.L23
 332 006e ECE7     		b	.L22
 333              	.L24:
 107:Middlewares/Third_Party/LwIP/src/netif/bridgeif_fdb.c ****         memcpy(&e->addr, src_addr, sizeof(struct eth_addr));
 334              		.loc 1 107 55 is_stmt 1 view .LVU102
 108:Middlewares/Third_Party/LwIP/src/netif/bridgeif_fdb.c ****         e->ts = BR_FDB_TIMEOUT_SEC;
 335              		.loc 1 108 9 view .LVU103
 336 0070 3368     		ldr	r3, [r6]	@ unaligned
 337              	.LVL25:
 108:Middlewares/Third_Party/LwIP/src/netif/bridgeif_fdb.c ****         e->ts = BR_FDB_TIMEOUT_SEC;
 338              		.loc 1 108 9 is_stmt 0 view .LVU104
 339 0072 BB60     		str	r3, [r7, #8]	@ unaligned
 340 0074 B388     		ldrh	r3, [r6, #4]	@ unaligned
 341 0076 BB81     		strh	r3, [r7, #12]	@ unaligned
 109:Middlewares/Third_Party/LwIP/src/netif/bridgeif_fdb.c ****         e->port = port_idx;
 342              		.loc 1 109 9 is_stmt 1 view .LVU105
 109:Middlewares/Third_Party/LwIP/src/netif/bridgeif_fdb.c ****         e->port = port_idx;
 343              		.loc 1 109 15 is_stmt 0 view .LVU106
 344 0078 4FF49673 		mov	r3, #300
 345 007c 7B60     		str	r3, [r7, #4]
 110:Middlewares/Third_Party/LwIP/src/netif/bridgeif_fdb.c ****         e->used = 1;
 346              		.loc 1 110 9 is_stmt 1 view .LVU107
 110:Middlewares/Third_Party/LwIP/src/netif/bridgeif_fdb.c ****         e->used = 1;
 347              		.loc 1 110 17 is_stmt 0 view .LVU108
 348 007e 87F80180 		strb	r8, [r7, #1]
 111:Middlewares/Third_Party/LwIP/src/netif/bridgeif_fdb.c ****         BRIDGEIF_WRITE_UNPROTECT(lev);
ARM GAS  C:\Users\hh\AppData\Local\Temp\cc8tXCby.s 			page 12


 349              		.loc 1 111 9 is_stmt 1 view .LVU109
 111:Middlewares/Third_Party/LwIP/src/netif/bridgeif_fdb.c ****         BRIDGEIF_WRITE_UNPROTECT(lev);
 350              		.loc 1 111 17 is_stmt 0 view .LVU110
 351 0082 0123     		movs	r3, #1
 352 0084 01F80C30 		strb	r3, [r1, ip]
 112:Middlewares/Third_Party/LwIP/src/netif/bridgeif_fdb.c ****         BRIDGEIF_READ_UNPROTECT(lev);
 353              		.loc 1 112 38 is_stmt 1 view .LVU111
 113:Middlewares/Third_Party/LwIP/src/netif/bridgeif_fdb.c ****         return;
 354              		.loc 1 113 37 view .LVU112
 114:Middlewares/Third_Party/LwIP/src/netif/bridgeif_fdb.c ****       }
 355              		.loc 1 114 9 view .LVU113
 356              	.LVL26:
 357              	.L16:
 114:Middlewares/Third_Party/LwIP/src/netif/bridgeif_fdb.c ****       }
 358              		.loc 1 114 9 is_stmt 0 view .LVU114
 359              	.LBE6:
 121:Middlewares/Third_Party/LwIP/src/netif/bridgeif_fdb.c **** 
 360              		.loc 1 121 1 view .LVU115
 361 0088 BDE8F081 		pop	{r4, r5, r6, r7, r8, pc}
 121:Middlewares/Third_Party/LwIP/src/netif/bridgeif_fdb.c **** 
 362              		.loc 1 121 1 view .LVU116
 363              		.cfi_endproc
 364              	.LFE172:
 366              		.section	.text.bridgeif_fdb_get_dst_ports,"ax",%progbits
 367              		.align	1
 368              		.global	bridgeif_fdb_get_dst_ports
 369              		.syntax unified
 370              		.thumb
 371              		.thumb_func
 373              	bridgeif_fdb_get_dst_ports:
 374              	.LVL27:
 375              	.LFB173:
 129:Middlewares/Third_Party/LwIP/src/netif/bridgeif_fdb.c ****   int i;
 376              		.loc 1 129 1 is_stmt 1 view -0
 377              		.cfi_startproc
 378              		@ args = 0, pretend = 0, frame = 0
 379              		@ frame_needed = 0, uses_anonymous_args = 0
 129:Middlewares/Third_Party/LwIP/src/netif/bridgeif_fdb.c ****   int i;
 380              		.loc 1 129 1 is_stmt 0 view .LVU118
 381 0000 F8B5     		push	{r3, r4, r5, r6, r7, lr}
 382              	.LCFI4:
 383              		.cfi_def_cfa_offset 24
 384              		.cfi_offset 3, -24
 385              		.cfi_offset 4, -20
 386              		.cfi_offset 5, -16
 387              		.cfi_offset 6, -12
 388              		.cfi_offset 7, -8
 389              		.cfi_offset 14, -4
 390 0002 0546     		mov	r5, r0
 391 0004 0E46     		mov	r6, r1
 130:Middlewares/Third_Party/LwIP/src/netif/bridgeif_fdb.c ****   bridgeif_dfdb_t *fdb = (bridgeif_dfdb_t *)fdb_ptr;
 392              		.loc 1 130 3 is_stmt 1 view .LVU119
 131:Middlewares/Third_Party/LwIP/src/netif/bridgeif_fdb.c ****   BRIDGEIF_DECL_PROTECT(lev);
 393              		.loc 1 131 3 view .LVU120
 394              	.LVL28:
 132:Middlewares/Third_Party/LwIP/src/netif/bridgeif_fdb.c ****   BRIDGEIF_READ_PROTECT(lev);
 395              		.loc 1 132 29 view .LVU121
ARM GAS  C:\Users\hh\AppData\Local\Temp\cc8tXCby.s 			page 13


 133:Middlewares/Third_Party/LwIP/src/netif/bridgeif_fdb.c ****   for (i = 0; i < fdb->max_fdb_entries; i++) {
 396              		.loc 1 133 29 view .LVU122
 134:Middlewares/Third_Party/LwIP/src/netif/bridgeif_fdb.c ****     bridgeif_dfdb_entry_t *e = &fdb->fdb[i];
 397              		.loc 1 134 3 view .LVU123
 134:Middlewares/Third_Party/LwIP/src/netif/bridgeif_fdb.c ****     bridgeif_dfdb_entry_t *e = &fdb->fdb[i];
 398              		.loc 1 134 10 is_stmt 0 view .LVU124
 399 0006 0024     		movs	r4, #0
 134:Middlewares/Third_Party/LwIP/src/netif/bridgeif_fdb.c ****     bridgeif_dfdb_entry_t *e = &fdb->fdb[i];
 400              		.loc 1 134 3 view .LVU125
 401 0008 00E0     		b	.L29
 402              	.LVL29:
 403              	.L30:
 134:Middlewares/Third_Party/LwIP/src/netif/bridgeif_fdb.c ****     bridgeif_dfdb_entry_t *e = &fdb->fdb[i];
 404              		.loc 1 134 42 is_stmt 1 discriminator 2 view .LVU126
 405 000a 0134     		adds	r4, r4, #1
 406              	.LVL30:
 407              	.L29:
 134:Middlewares/Third_Party/LwIP/src/netif/bridgeif_fdb.c ****     bridgeif_dfdb_entry_t *e = &fdb->fdb[i];
 408              		.loc 1 134 17 discriminator 1 view .LVU127
 134:Middlewares/Third_Party/LwIP/src/netif/bridgeif_fdb.c ****     bridgeif_dfdb_entry_t *e = &fdb->fdb[i];
 409              		.loc 1 134 22 is_stmt 0 discriminator 1 view .LVU128
 410 000c 2B88     		ldrh	r3, [r5]
 134:Middlewares/Third_Party/LwIP/src/netif/bridgeif_fdb.c ****     bridgeif_dfdb_entry_t *e = &fdb->fdb[i];
 411              		.loc 1 134 17 discriminator 1 view .LVU129
 412 000e A342     		cmp	r3, r4
 413 0010 16DD     		ble	.L34
 414              	.LBB7:
 135:Middlewares/Third_Party/LwIP/src/netif/bridgeif_fdb.c ****     if (e->used && e->ts) {
 415              		.loc 1 135 5 is_stmt 1 view .LVU130
 135:Middlewares/Third_Party/LwIP/src/netif/bridgeif_fdb.c ****     if (e->used && e->ts) {
 416              		.loc 1 135 36 is_stmt 0 view .LVU131
 417 0012 6A68     		ldr	r2, [r5, #4]
 135:Middlewares/Third_Party/LwIP/src/netif/bridgeif_fdb.c ****     if (e->used && e->ts) {
 418              		.loc 1 135 41 view .LVU132
 419 0014 2301     		lsls	r3, r4, #4
 135:Middlewares/Third_Party/LwIP/src/netif/bridgeif_fdb.c ****     if (e->used && e->ts) {
 420              		.loc 1 135 28 view .LVU133
 421 0016 02EB0417 		add	r7, r2, r4, lsl #4
 422              	.LVL31:
 136:Middlewares/Third_Party/LwIP/src/netif/bridgeif_fdb.c ****       if (!memcmp(&e->addr, dst_addr, sizeof(struct eth_addr))) {
 423              		.loc 1 136 5 is_stmt 1 view .LVU134
 136:Middlewares/Third_Party/LwIP/src/netif/bridgeif_fdb.c ****       if (!memcmp(&e->addr, dst_addr, sizeof(struct eth_addr))) {
 424              		.loc 1 136 10 is_stmt 0 view .LVU135
 425 001a D35C     		ldrb	r3, [r2, r3]	@ zero_extendqisi2
 136:Middlewares/Third_Party/LwIP/src/netif/bridgeif_fdb.c ****       if (!memcmp(&e->addr, dst_addr, sizeof(struct eth_addr))) {
 426              		.loc 1 136 8 view .LVU136
 427 001c 002B     		cmp	r3, #0
 428 001e F4D0     		beq	.L30
 136:Middlewares/Third_Party/LwIP/src/netif/bridgeif_fdb.c ****       if (!memcmp(&e->addr, dst_addr, sizeof(struct eth_addr))) {
 429              		.loc 1 136 21 discriminator 1 view .LVU137
 430 0020 7B68     		ldr	r3, [r7, #4]
 136:Middlewares/Third_Party/LwIP/src/netif/bridgeif_fdb.c ****       if (!memcmp(&e->addr, dst_addr, sizeof(struct eth_addr))) {
 431              		.loc 1 136 17 discriminator 1 view .LVU138
 432 0022 002B     		cmp	r3, #0
 433 0024 F1D0     		beq	.L30
 137:Middlewares/Third_Party/LwIP/src/netif/bridgeif_fdb.c ****         bridgeif_portmask_t ret = (bridgeif_portmask_t)(1 << e->port);
 434              		.loc 1 137 7 is_stmt 1 view .LVU139
ARM GAS  C:\Users\hh\AppData\Local\Temp\cc8tXCby.s 			page 14


 137:Middlewares/Third_Party/LwIP/src/netif/bridgeif_fdb.c ****         bridgeif_portmask_t ret = (bridgeif_portmask_t)(1 << e->port);
 435              		.loc 1 137 12 is_stmt 0 view .LVU140
 436 0026 0622     		movs	r2, #6
 437 0028 3146     		mov	r1, r6
 438 002a 07F10800 		add	r0, r7, #8
 439 002e FFF7FEFF 		bl	memcmp
 440              	.LVL32:
 137:Middlewares/Third_Party/LwIP/src/netif/bridgeif_fdb.c ****         bridgeif_portmask_t ret = (bridgeif_portmask_t)(1 << e->port);
 441              		.loc 1 137 10 discriminator 1 view .LVU141
 442 0032 0028     		cmp	r0, #0
 443 0034 E9D1     		bne	.L30
 444              	.LBB8:
 138:Middlewares/Third_Party/LwIP/src/netif/bridgeif_fdb.c ****         BRIDGEIF_READ_UNPROTECT(lev);
 445              		.loc 1 138 9 is_stmt 1 view .LVU142
 138:Middlewares/Third_Party/LwIP/src/netif/bridgeif_fdb.c ****         BRIDGEIF_READ_UNPROTECT(lev);
 446              		.loc 1 138 63 is_stmt 0 view .LVU143
 447 0036 7B78     		ldrb	r3, [r7, #1]	@ zero_extendqisi2
 138:Middlewares/Third_Party/LwIP/src/netif/bridgeif_fdb.c ****         BRIDGEIF_READ_UNPROTECT(lev);
 448              		.loc 1 138 59 view .LVU144
 449 0038 0120     		movs	r0, #1
 450 003a 9840     		lsls	r0, r0, r3
 138:Middlewares/Third_Party/LwIP/src/netif/bridgeif_fdb.c ****         BRIDGEIF_READ_UNPROTECT(lev);
 451              		.loc 1 138 29 view .LVU145
 452 003c C0B2     		uxtb	r0, r0
 453              	.LVL33:
 139:Middlewares/Third_Party/LwIP/src/netif/bridgeif_fdb.c ****         return ret;
 454              		.loc 1 139 37 is_stmt 1 view .LVU146
 140:Middlewares/Third_Party/LwIP/src/netif/bridgeif_fdb.c ****       }
 455              		.loc 1 140 9 view .LVU147
 140:Middlewares/Third_Party/LwIP/src/netif/bridgeif_fdb.c ****       }
 456              		.loc 1 140 16 is_stmt 0 view .LVU148
 457 003e 00E0     		b	.L31
 458              	.LVL34:
 459              	.L34:
 140:Middlewares/Third_Party/LwIP/src/netif/bridgeif_fdb.c ****       }
 460              		.loc 1 140 16 view .LVU149
 461              	.LBE8:
 462              	.LBE7:
 145:Middlewares/Third_Party/LwIP/src/netif/bridgeif_fdb.c **** }
 463              		.loc 1 145 10 view .LVU150
 464 0040 FF20     		movs	r0, #255
 465              	.L31:
 146:Middlewares/Third_Party/LwIP/src/netif/bridgeif_fdb.c **** 
 466              		.loc 1 146 1 view .LVU151
 467 0042 F8BD     		pop	{r3, r4, r5, r6, r7, pc}
 146:Middlewares/Third_Party/LwIP/src/netif/bridgeif_fdb.c **** 
 468              		.loc 1 146 1 view .LVU152
 469              		.cfi_endproc
 470              	.LFE173:
 472              		.section	.rodata.bridgeif_fdb_init.str1.4,"aMS",%progbits,1
 473              		.align	2
 474              	.LC3:
 475 0000 616C6C6F 		.ascii	"alloc_len == alloc_len_sizet\000"
 475      635F6C65 
 475      6E203D3D 
 475      20616C6C 
 475      6F635F6C 
ARM GAS  C:\Users\hh\AppData\Local\Temp\cc8tXCby.s 			page 15


 476              		.section	.text.bridgeif_fdb_init,"ax",%progbits
 477              		.align	1
 478              		.global	bridgeif_fdb_init
 479              		.syntax unified
 480              		.thumb
 481              		.thumb_func
 483              	bridgeif_fdb_init:
 484              	.LVL35:
 485              	.LFB176:
 189:Middlewares/Third_Party/LwIP/src/netif/bridgeif_fdb.c **** 
 190:Middlewares/Third_Party/LwIP/src/netif/bridgeif_fdb.c **** /**
 191:Middlewares/Third_Party/LwIP/src/netif/bridgeif_fdb.c ****  * @ingroup bridgeif_fdb
 192:Middlewares/Third_Party/LwIP/src/netif/bridgeif_fdb.c ****  * Init our simple fdb list
 193:Middlewares/Third_Party/LwIP/src/netif/bridgeif_fdb.c ****  */
 194:Middlewares/Third_Party/LwIP/src/netif/bridgeif_fdb.c **** void *
 195:Middlewares/Third_Party/LwIP/src/netif/bridgeif_fdb.c **** bridgeif_fdb_init(u16_t max_fdb_entries)
 196:Middlewares/Third_Party/LwIP/src/netif/bridgeif_fdb.c **** {
 486              		.loc 1 196 1 is_stmt 1 view -0
 487              		.cfi_startproc
 488              		@ args = 0, pretend = 0, frame = 0
 489              		@ frame_needed = 0, uses_anonymous_args = 0
 490              		.loc 1 196 1 is_stmt 0 view .LVU154
 491 0000 38B5     		push	{r3, r4, r5, lr}
 492              	.LCFI5:
 493              		.cfi_def_cfa_offset 16
 494              		.cfi_offset 3, -16
 495              		.cfi_offset 4, -12
 496              		.cfi_offset 5, -8
 497              		.cfi_offset 14, -4
 498 0002 0546     		mov	r5, r0
 197:Middlewares/Third_Party/LwIP/src/netif/bridgeif_fdb.c ****   bridgeif_dfdb_t *fdb;
 499              		.loc 1 197 3 is_stmt 1 view .LVU155
 198:Middlewares/Third_Party/LwIP/src/netif/bridgeif_fdb.c ****   size_t alloc_len_sizet = sizeof(bridgeif_dfdb_t) + (max_fdb_entries * sizeof(bridgeif_dfdb_entry_
 500              		.loc 1 198 3 view .LVU156
 501              		.loc 1 198 71 is_stmt 0 view .LVU157
 502 0004 0301     		lsls	r3, r0, #4
 503              		.loc 1 198 10 view .LVU158
 504 0006 0833     		adds	r3, r3, #8
 505              	.LVL36:
 199:Middlewares/Third_Party/LwIP/src/netif/bridgeif_fdb.c ****   mem_size_t alloc_len = (mem_size_t)alloc_len_sizet;
 506              		.loc 1 199 3 is_stmt 1 view .LVU159
 507              		.loc 1 199 14 is_stmt 0 view .LVU160
 508 0008 9CB2     		uxth	r4, r3
 509              	.LVL37:
 200:Middlewares/Third_Party/LwIP/src/netif/bridgeif_fdb.c ****   LWIP_ASSERT("alloc_len == alloc_len_sizet", alloc_len == alloc_len_sizet);
 510              		.loc 1 200 3 is_stmt 1 view .LVU161
 511              		.loc 1 200 3 view .LVU162
 512 000a B3F5803F 		cmp	r3, #65536
 513 000e 11D2     		bcs	.L39
 514              	.LVL38:
 515              	.L36:
 516              		.loc 1 200 3 view .LVU163
 517              		.loc 1 200 3 view .LVU164
 201:Middlewares/Third_Party/LwIP/src/netif/bridgeif_fdb.c ****   LWIP_DEBUGF(BRIDGEIF_DEBUG, ("bridgeif_fdb_init: allocating %d bytes for private FDB data\n", (in
 518              		.loc 1 201 113 view .LVU165
 202:Middlewares/Third_Party/LwIP/src/netif/bridgeif_fdb.c ****   fdb = (bridgeif_dfdb_t *)mem_calloc(1, alloc_len);
 519              		.loc 1 202 3 view .LVU166
ARM GAS  C:\Users\hh\AppData\Local\Temp\cc8tXCby.s 			page 16


 520              		.loc 1 202 28 is_stmt 0 view .LVU167
 521 0010 2146     		mov	r1, r4
 522 0012 0120     		movs	r0, #1
 523 0014 FFF7FEFF 		bl	mem_calloc
 524              	.LVL39:
 203:Middlewares/Third_Party/LwIP/src/netif/bridgeif_fdb.c ****   if (fdb == NULL) {
 525              		.loc 1 203 3 is_stmt 1 view .LVU168
 526              		.loc 1 203 6 is_stmt 0 view .LVU169
 527 0018 0446     		mov	r4, r0
 528              	.LVL40:
 529              		.loc 1 203 6 view .LVU170
 530 001a 48B1     		cbz	r0, .L35
 204:Middlewares/Third_Party/LwIP/src/netif/bridgeif_fdb.c ****     return NULL;
 205:Middlewares/Third_Party/LwIP/src/netif/bridgeif_fdb.c ****   }
 206:Middlewares/Third_Party/LwIP/src/netif/bridgeif_fdb.c ****   fdb->max_fdb_entries = max_fdb_entries;
 531              		.loc 1 206 3 is_stmt 1 view .LVU171
 532              		.loc 1 206 24 is_stmt 0 view .LVU172
 533 001c 0346     		mov	r3, r0
 534 001e 23F8085B 		strh	r5, [r3], #8	@ movhi
 207:Middlewares/Third_Party/LwIP/src/netif/bridgeif_fdb.c ****   fdb->fdb = (bridgeif_dfdb_entry_t *)(fdb + 1);
 535              		.loc 1 207 3 is_stmt 1 view .LVU173
 536              		.loc 1 207 12 is_stmt 0 view .LVU174
 537 0022 4360     		str	r3, [r0, #4]
 208:Middlewares/Third_Party/LwIP/src/netif/bridgeif_fdb.c **** 
 209:Middlewares/Third_Party/LwIP/src/netif/bridgeif_fdb.c ****   sys_timeout(BRIDGEIF_AGE_TIMER_MS, bridgeif_age_tmr, fdb);
 538              		.loc 1 209 3 is_stmt 1 view .LVU175
 539 0024 0246     		mov	r2, r0
 540 0026 0749     		ldr	r1, .L40
 541 0028 4FF47A70 		mov	r0, #1000
 542              	.LVL41:
 543              		.loc 1 209 3 is_stmt 0 view .LVU176
 544 002c FFF7FEFF 		bl	sys_timeout
 545              	.LVL42:
 210:Middlewares/Third_Party/LwIP/src/netif/bridgeif_fdb.c **** 
 211:Middlewares/Third_Party/LwIP/src/netif/bridgeif_fdb.c ****   return fdb;
 546              		.loc 1 211 3 is_stmt 1 view .LVU177
 547              	.L35:
 212:Middlewares/Third_Party/LwIP/src/netif/bridgeif_fdb.c **** }
 548              		.loc 1 212 1 is_stmt 0 view .LVU178
 549 0030 2046     		mov	r0, r4
 550 0032 38BD     		pop	{r3, r4, r5, pc}
 551              	.LVL43:
 552              	.L39:
 200:Middlewares/Third_Party/LwIP/src/netif/bridgeif_fdb.c ****   LWIP_DEBUGF(BRIDGEIF_DEBUG, ("bridgeif_fdb_init: allocating %d bytes for private FDB data\n", (in
 553              		.loc 1 200 3 is_stmt 1 discriminator 1 view .LVU179
 200:Middlewares/Third_Party/LwIP/src/netif/bridgeif_fdb.c ****   LWIP_DEBUGF(BRIDGEIF_DEBUG, ("bridgeif_fdb_init: allocating %d bytes for private FDB data\n", (in
 554              		.loc 1 200 3 discriminator 1 view .LVU180
 555 0034 044B     		ldr	r3, .L40+4
 556              	.LVL44:
 200:Middlewares/Third_Party/LwIP/src/netif/bridgeif_fdb.c ****   LWIP_DEBUGF(BRIDGEIF_DEBUG, ("bridgeif_fdb_init: allocating %d bytes for private FDB data\n", (in
 557              		.loc 1 200 3 is_stmt 0 discriminator 1 view .LVU181
 558 0036 C822     		movs	r2, #200
 559 0038 0449     		ldr	r1, .L40+8
 560 003a 0548     		ldr	r0, .L40+12
 561              	.LVL45:
 200:Middlewares/Third_Party/LwIP/src/netif/bridgeif_fdb.c ****   LWIP_DEBUGF(BRIDGEIF_DEBUG, ("bridgeif_fdb_init: allocating %d bytes for private FDB data\n", (in
 562              		.loc 1 200 3 discriminator 1 view .LVU182
ARM GAS  C:\Users\hh\AppData\Local\Temp\cc8tXCby.s 			page 17


 563 003c FFF7FEFF 		bl	printf
 564              	.LVL46:
 565 0040 E6E7     		b	.L36
 566              	.L41:
 567 0042 00BF     		.align	2
 568              	.L40:
 569 0044 00000000 		.word	bridgeif_age_tmr
 570 0048 00000000 		.word	.LC0
 571 004c 00000000 		.word	.LC3
 572 0050 44000000 		.word	.LC2
 573              		.cfi_endproc
 574              	.LFE176:
 576              		.text
 577              	.Letext0:
 578              		.file 2 "C:/Program Files (x86)/ARM/arm-gnu-toolchain-15.2.rel1-mingw-w64-i686-arm-none-eabi/arm-n
 579              		.file 3 "C:/Program Files (x86)/ARM/arm-gnu-toolchain-15.2.rel1-mingw-w64-i686-arm-none-eabi/arm-n
 580              		.file 4 "C:/Program Files (x86)/ARM/arm-gnu-toolchain-15.2.rel1-mingw-w64-i686-arm-none-eabi/lib/g
 581              		.file 5 "Middlewares/Third_Party/LwIP/src/include/lwip/arch.h"
 582              		.file 6 "Middlewares/Third_Party/LwIP/src/include/netif/bridgeif.h"
 583              		.file 7 "Middlewares/Third_Party/LwIP/src/include/lwip/timeouts.h"
 584              		.file 8 "Middlewares/Third_Party/LwIP/src/include/lwip/mem.h"
 585              		.file 9 "Middlewares/Third_Party/LwIP/src/include/lwip/prot/ethernet.h"
 586              		.file 10 "C:/Program Files (x86)/ARM/arm-gnu-toolchain-15.2.rel1-mingw-w64-i686-arm-none-eabi/arm-
 587              		.file 11 "C:/Program Files (x86)/ARM/arm-gnu-toolchain-15.2.rel1-mingw-w64-i686-arm-none-eabi/arm-
ARM GAS  C:\Users\hh\AppData\Local\Temp\cc8tXCby.s 			page 18

