ARM GAS  C:\Users\hh\AppData\Local\Temp\ccQfex2J.s 			page 1


   1              		.cpu cortex-m7
   2              		.arch armv7e-m
   3              		.fpu fpv5-d16
   4              		.eabi_attribute 28, 1
   5              		.eabi_attribute 20, 1
   6              		.eabi_attribute 21, 1
   7              		.eabi_attribute 23, 3
   8              		.eabi_attribute 24, 1
   9              		.eabi_attribute 25, 1
  10              		.eabi_attribute 26, 1
  11              		.eabi_attribute 30, 1
  12              		.eabi_attribute 34, 1
  13              		.eabi_attribute 18, 4
  14              		.file	"def.c"
  15              		.text
  16              	.Ltext0:
  17              		.cfi_sections	.debug_frame
  18              		.file 1 "Middlewares/Third_Party/LwIP/src/core/def.c"
  19              		.section	.text.lwip_htons,"ax",%progbits
  20              		.align	1
  21              		.global	lwip_htons
  22              		.syntax unified
  23              		.thumb
  24              		.thumb_func
  26              	lwip_htons:
  27              	.LVL0:
  28              	.LFB172:
   1:Middlewares/Third_Party/LwIP/src/core/def.c **** /**
   2:Middlewares/Third_Party/LwIP/src/core/def.c ****  * @file
   3:Middlewares/Third_Party/LwIP/src/core/def.c ****  * Common functions used throughout the stack.
   4:Middlewares/Third_Party/LwIP/src/core/def.c ****  *
   5:Middlewares/Third_Party/LwIP/src/core/def.c ****  * These are reference implementations of the byte swapping functions.
   6:Middlewares/Third_Party/LwIP/src/core/def.c ****  * Again with the aim of being simple, correct and fully portable.
   7:Middlewares/Third_Party/LwIP/src/core/def.c ****  * Byte swapping is the second thing you would want to optimize. You will
   8:Middlewares/Third_Party/LwIP/src/core/def.c ****  * need to port it to your architecture and in your cc.h:
   9:Middlewares/Third_Party/LwIP/src/core/def.c ****  *
  10:Middlewares/Third_Party/LwIP/src/core/def.c ****  * \#define lwip_htons(x) your_htons
  11:Middlewares/Third_Party/LwIP/src/core/def.c ****  * \#define lwip_htonl(x) your_htonl
  12:Middlewares/Third_Party/LwIP/src/core/def.c ****  *
  13:Middlewares/Third_Party/LwIP/src/core/def.c ****  * Note lwip_ntohs() and lwip_ntohl() are merely references to the htonx counterparts.
  14:Middlewares/Third_Party/LwIP/src/core/def.c ****  *
  15:Middlewares/Third_Party/LwIP/src/core/def.c ****  * If you \#define them to htons() and htonl(), you should
  16:Middlewares/Third_Party/LwIP/src/core/def.c ****  * \#define LWIP_DONT_PROVIDE_BYTEORDER_FUNCTIONS to prevent lwIP from
  17:Middlewares/Third_Party/LwIP/src/core/def.c ****  * defining htonx/ntohx compatibility macros.
  18:Middlewares/Third_Party/LwIP/src/core/def.c **** 
  19:Middlewares/Third_Party/LwIP/src/core/def.c ****  * @defgroup sys_nonstandard Non-standard functions
  20:Middlewares/Third_Party/LwIP/src/core/def.c ****  * @ingroup sys_layer
  21:Middlewares/Third_Party/LwIP/src/core/def.c ****  * lwIP provides default implementations for non-standard functions.
  22:Middlewares/Third_Party/LwIP/src/core/def.c ****  * These can be mapped to OS functions to reduce code footprint if desired.
  23:Middlewares/Third_Party/LwIP/src/core/def.c ****  * All defines related to this section must not be placed in lwipopts.h,
  24:Middlewares/Third_Party/LwIP/src/core/def.c ****  * but in arch/cc.h!
  25:Middlewares/Third_Party/LwIP/src/core/def.c ****  * These options cannot be \#defined in lwipopts.h since they are not options
  26:Middlewares/Third_Party/LwIP/src/core/def.c ****  * of lwIP itself, but options of the lwIP port to your system.
  27:Middlewares/Third_Party/LwIP/src/core/def.c ****  */
  28:Middlewares/Third_Party/LwIP/src/core/def.c **** 
  29:Middlewares/Third_Party/LwIP/src/core/def.c **** /*
  30:Middlewares/Third_Party/LwIP/src/core/def.c ****  * Copyright (c) 2001-2004 Swedish Institute of Computer Science.
ARM GAS  C:\Users\hh\AppData\Local\Temp\ccQfex2J.s 			page 2


  31:Middlewares/Third_Party/LwIP/src/core/def.c ****  * All rights reserved.
  32:Middlewares/Third_Party/LwIP/src/core/def.c ****  *
  33:Middlewares/Third_Party/LwIP/src/core/def.c ****  * Redistribution and use in source and binary forms, with or without modification,
  34:Middlewares/Third_Party/LwIP/src/core/def.c ****  * are permitted provided that the following conditions are met:
  35:Middlewares/Third_Party/LwIP/src/core/def.c ****  *
  36:Middlewares/Third_Party/LwIP/src/core/def.c ****  * 1. Redistributions of source code must retain the above copyright notice,
  37:Middlewares/Third_Party/LwIP/src/core/def.c ****  *    this list of conditions and the following disclaimer.
  38:Middlewares/Third_Party/LwIP/src/core/def.c ****  * 2. Redistributions in binary form must reproduce the above copyright notice,
  39:Middlewares/Third_Party/LwIP/src/core/def.c ****  *    this list of conditions and the following disclaimer in the documentation
  40:Middlewares/Third_Party/LwIP/src/core/def.c ****  *    and/or other materials provided with the distribution.
  41:Middlewares/Third_Party/LwIP/src/core/def.c ****  * 3. The name of the author may not be used to endorse or promote products
  42:Middlewares/Third_Party/LwIP/src/core/def.c ****  *    derived from this software without specific prior written permission.
  43:Middlewares/Third_Party/LwIP/src/core/def.c ****  *
  44:Middlewares/Third_Party/LwIP/src/core/def.c ****  * THIS SOFTWARE IS PROVIDED BY THE AUTHOR ``AS IS'' AND ANY EXPRESS OR IMPLIED
  45:Middlewares/Third_Party/LwIP/src/core/def.c ****  * WARRANTIES, INCLUDING, BUT NOT LIMITED TO, THE IMPLIED WARRANTIES OF
  46:Middlewares/Third_Party/LwIP/src/core/def.c ****  * MERCHANTABILITY AND FITNESS FOR A PARTICULAR PURPOSE ARE DISCLAIMED. IN NO EVENT
  47:Middlewares/Third_Party/LwIP/src/core/def.c ****  * SHALL THE AUTHOR BE LIABLE FOR ANY DIRECT, INDIRECT, INCIDENTAL, SPECIAL,
  48:Middlewares/Third_Party/LwIP/src/core/def.c ****  * EXEMPLARY, OR CONSEQUENTIAL DAMAGES (INCLUDING, BUT NOT LIMITED TO, PROCUREMENT
  49:Middlewares/Third_Party/LwIP/src/core/def.c ****  * OF SUBSTITUTE GOODS OR SERVICES; LOSS OF USE, DATA, OR PROFITS; OR BUSINESS
  50:Middlewares/Third_Party/LwIP/src/core/def.c ****  * INTERRUPTION) HOWEVER CAUSED AND ON ANY THEORY OF LIABILITY, WHETHER IN
  51:Middlewares/Third_Party/LwIP/src/core/def.c ****  * CONTRACT, STRICT LIABILITY, OR TORT (INCLUDING NEGLIGENCE OR OTHERWISE) ARISING
  52:Middlewares/Third_Party/LwIP/src/core/def.c ****  * IN ANY WAY OUT OF THE USE OF THIS SOFTWARE, EVEN IF ADVISED OF THE POSSIBILITY
  53:Middlewares/Third_Party/LwIP/src/core/def.c ****  * OF SUCH DAMAGE.
  54:Middlewares/Third_Party/LwIP/src/core/def.c ****  *
  55:Middlewares/Third_Party/LwIP/src/core/def.c ****  * This file is part of the lwIP TCP/IP stack.
  56:Middlewares/Third_Party/LwIP/src/core/def.c ****  *
  57:Middlewares/Third_Party/LwIP/src/core/def.c ****  * Author: Simon Goldschmidt
  58:Middlewares/Third_Party/LwIP/src/core/def.c ****  *
  59:Middlewares/Third_Party/LwIP/src/core/def.c ****  */
  60:Middlewares/Third_Party/LwIP/src/core/def.c **** 
  61:Middlewares/Third_Party/LwIP/src/core/def.c **** #include "lwip/opt.h"
  62:Middlewares/Third_Party/LwIP/src/core/def.c **** #include "lwip/def.h"
  63:Middlewares/Third_Party/LwIP/src/core/def.c **** 
  64:Middlewares/Third_Party/LwIP/src/core/def.c **** #include <string.h>
  65:Middlewares/Third_Party/LwIP/src/core/def.c **** 
  66:Middlewares/Third_Party/LwIP/src/core/def.c **** #if BYTE_ORDER == LITTLE_ENDIAN
  67:Middlewares/Third_Party/LwIP/src/core/def.c **** 
  68:Middlewares/Third_Party/LwIP/src/core/def.c **** #if !defined(lwip_htons)
  69:Middlewares/Third_Party/LwIP/src/core/def.c **** /**
  70:Middlewares/Third_Party/LwIP/src/core/def.c ****  * Convert an u16_t from host- to network byte order.
  71:Middlewares/Third_Party/LwIP/src/core/def.c ****  *
  72:Middlewares/Third_Party/LwIP/src/core/def.c ****  * @param n u16_t in host byte order
  73:Middlewares/Third_Party/LwIP/src/core/def.c ****  * @return n in network byte order
  74:Middlewares/Third_Party/LwIP/src/core/def.c ****  */
  75:Middlewares/Third_Party/LwIP/src/core/def.c **** u16_t
  76:Middlewares/Third_Party/LwIP/src/core/def.c **** lwip_htons(u16_t n)
  77:Middlewares/Third_Party/LwIP/src/core/def.c **** {
  29              		.loc 1 77 1 view -0
  30              		.cfi_startproc
  31              		@ args = 0, pretend = 0, frame = 0
  32              		@ frame_needed = 0, uses_anonymous_args = 0
  33              		@ link register save eliminated.
  78:Middlewares/Third_Party/LwIP/src/core/def.c ****   return PP_HTONS(n);
  34              		.loc 1 78 3 view .LVU1
  35              		.loc 1 78 10 is_stmt 0 view .LVU2
  36 0000 0302     		lsls	r3, r0, #8
  37 0002 43EA1020 		orr	r0, r3, r0, lsr #8
ARM GAS  C:\Users\hh\AppData\Local\Temp\ccQfex2J.s 			page 3


  38              	.LVL1:
  79:Middlewares/Third_Party/LwIP/src/core/def.c **** }
  39              		.loc 1 79 1 view .LVU3
  40 0006 80B2     		uxth	r0, r0
  41 0008 7047     		bx	lr
  42              		.cfi_endproc
  43              	.LFE172:
  45              		.section	.text.lwip_htonl,"ax",%progbits
  46              		.align	1
  47              		.global	lwip_htonl
  48              		.syntax unified
  49              		.thumb
  50              		.thumb_func
  52              	lwip_htonl:
  53              	.LVL2:
  54              	.LFB173:
  80:Middlewares/Third_Party/LwIP/src/core/def.c **** #endif /* lwip_htons */
  81:Middlewares/Third_Party/LwIP/src/core/def.c **** 
  82:Middlewares/Third_Party/LwIP/src/core/def.c **** #if !defined(lwip_htonl)
  83:Middlewares/Third_Party/LwIP/src/core/def.c **** /**
  84:Middlewares/Third_Party/LwIP/src/core/def.c ****  * Convert an u32_t from host- to network byte order.
  85:Middlewares/Third_Party/LwIP/src/core/def.c ****  *
  86:Middlewares/Third_Party/LwIP/src/core/def.c ****  * @param n u32_t in host byte order
  87:Middlewares/Third_Party/LwIP/src/core/def.c ****  * @return n in network byte order
  88:Middlewares/Third_Party/LwIP/src/core/def.c ****  */
  89:Middlewares/Third_Party/LwIP/src/core/def.c **** u32_t
  90:Middlewares/Third_Party/LwIP/src/core/def.c **** lwip_htonl(u32_t n)
  91:Middlewares/Third_Party/LwIP/src/core/def.c **** {
  55              		.loc 1 91 1 is_stmt 1 view -0
  56              		.cfi_startproc
  57              		@ args = 0, pretend = 0, frame = 0
  58              		@ frame_needed = 0, uses_anonymous_args = 0
  59              		@ link register save eliminated.
  92:Middlewares/Third_Party/LwIP/src/core/def.c ****   return PP_HTONL(n);
  60              		.loc 1 92 3 view .LVU5
  61              		.loc 1 92 10 is_stmt 0 view .LVU6
  62 0000 0302     		lsls	r3, r0, #8
  63 0002 03F47F03 		and	r3, r3, #16711680
  64 0006 43EA0063 		orr	r3, r3, r0, lsl #24
  65 000a 020A     		lsrs	r2, r0, #8
  66 000c 02F47F42 		and	r2, r2, #65280
  67 0010 1343     		orrs	r3, r3, r2
  93:Middlewares/Third_Party/LwIP/src/core/def.c **** }
  68              		.loc 1 93 1 view .LVU7
  69 0012 43EA1060 		orr	r0, r3, r0, lsr #24
  70              	.LVL3:
  71              		.loc 1 93 1 view .LVU8
  72 0016 7047     		bx	lr
  73              		.cfi_endproc
  74              	.LFE173:
  76              		.section	.text.lwip_strnstr,"ax",%progbits
  77              		.align	1
  78              		.global	lwip_strnstr
  79              		.syntax unified
  80              		.thumb
  81              		.thumb_func
  83              	lwip_strnstr:
ARM GAS  C:\Users\hh\AppData\Local\Temp\ccQfex2J.s 			page 4


  84              	.LVL4:
  85              	.LFB174:
  94:Middlewares/Third_Party/LwIP/src/core/def.c **** #endif /* lwip_htonl */
  95:Middlewares/Third_Party/LwIP/src/core/def.c **** 
  96:Middlewares/Third_Party/LwIP/src/core/def.c **** #endif /* BYTE_ORDER == LITTLE_ENDIAN */
  97:Middlewares/Third_Party/LwIP/src/core/def.c **** 
  98:Middlewares/Third_Party/LwIP/src/core/def.c **** #ifndef lwip_strnstr
  99:Middlewares/Third_Party/LwIP/src/core/def.c **** /**
 100:Middlewares/Third_Party/LwIP/src/core/def.c ****  * @ingroup sys_nonstandard
 101:Middlewares/Third_Party/LwIP/src/core/def.c ****  * lwIP default implementation for strnstr() non-standard function.
 102:Middlewares/Third_Party/LwIP/src/core/def.c ****  * This can be \#defined to strnstr() depending on your platform port.
 103:Middlewares/Third_Party/LwIP/src/core/def.c ****  */
 104:Middlewares/Third_Party/LwIP/src/core/def.c **** char *
 105:Middlewares/Third_Party/LwIP/src/core/def.c **** lwip_strnstr(const char *buffer, const char *token, size_t n)
 106:Middlewares/Third_Party/LwIP/src/core/def.c **** {
  86              		.loc 1 106 1 is_stmt 1 view -0
  87              		.cfi_startproc
  88              		@ args = 0, pretend = 0, frame = 0
  89              		@ frame_needed = 0, uses_anonymous_args = 0
  90              		.loc 1 106 1 is_stmt 0 view .LVU10
  91 0000 2DE9F041 		push	{r4, r5, r6, r7, r8, lr}
  92              	.LCFI0:
  93              		.cfi_def_cfa_offset 24
  94              		.cfi_offset 4, -24
  95              		.cfi_offset 5, -20
  96              		.cfi_offset 6, -16
  97              		.cfi_offset 7, -12
  98              		.cfi_offset 8, -8
  99              		.cfi_offset 14, -4
 100 0004 0646     		mov	r6, r0
 101 0006 0D46     		mov	r5, r1
 102 0008 9046     		mov	r8, r2
 107:Middlewares/Third_Party/LwIP/src/core/def.c ****   const char *p;
 103              		.loc 1 107 3 is_stmt 1 view .LVU11
 108:Middlewares/Third_Party/LwIP/src/core/def.c ****   size_t tokenlen = strlen(token);
 104              		.loc 1 108 3 view .LVU12
 105              		.loc 1 108 21 is_stmt 0 view .LVU13
 106 000a 0846     		mov	r0, r1
 107              	.LVL5:
 108              		.loc 1 108 21 view .LVU14
 109 000c FFF7FEFF 		bl	strlen
 110              	.LVL6:
 109:Middlewares/Third_Party/LwIP/src/core/def.c ****   if (tokenlen == 0) {
 111              		.loc 1 109 3 is_stmt 1 view .LVU15
 112              		.loc 1 109 6 is_stmt 0 view .LVU16
 113 0010 B8B1     		cbz	r0, .L8
 114 0012 0746     		mov	r7, r0
 110:Middlewares/Third_Party/LwIP/src/core/def.c ****     return LWIP_CONST_CAST(char *, buffer);
 111:Middlewares/Third_Party/LwIP/src/core/def.c ****   }
 112:Middlewares/Third_Party/LwIP/src/core/def.c ****   for (p = buffer; *p && (p + tokenlen <= buffer + n); p++) {
 115              		.loc 1 112 10 view .LVU17
 116 0014 3446     		mov	r4, r6
 117 0016 00E0     		b	.L5
 118              	.LVL7:
 119              	.L6:
 120              		.loc 1 112 57 is_stmt 1 discriminator 2 view .LVU18
 121 0018 0134     		adds	r4, r4, #1
ARM GAS  C:\Users\hh\AppData\Local\Temp\ccQfex2J.s 			page 5


 122              	.LVL8:
 123              	.L5:
 124              		.loc 1 112 23 discriminator 1 view .LVU19
 125              		.loc 1 112 20 is_stmt 0 discriminator 1 view .LVU20
 126 001a 2278     		ldrb	r2, [r4]	@ zero_extendqisi2
 127              		.loc 1 112 23 discriminator 1 view .LVU21
 128 001c AAB1     		cbz	r2, .L9
 129              		.loc 1 112 29 discriminator 3 view .LVU22
 130 001e E319     		adds	r3, r4, r7
 131              		.loc 1 112 50 discriminator 3 view .LVU23
 132 0020 06EB0801 		add	r1, r6, r8
 133              		.loc 1 112 23 discriminator 3 view .LVU24
 134 0024 8B42     		cmp	r3, r1
 135 0026 0AD8     		bhi	.L11
 113:Middlewares/Third_Party/LwIP/src/core/def.c ****     if ((*p == *token) && (strncmp(p, token, tokenlen) == 0)) {
 136              		.loc 1 113 5 is_stmt 1 view .LVU25
 137              		.loc 1 113 16 is_stmt 0 view .LVU26
 138 0028 2B78     		ldrb	r3, [r5]	@ zero_extendqisi2
 139              		.loc 1 113 8 view .LVU27
 140 002a 9342     		cmp	r3, r2
 141 002c F4D1     		bne	.L6
 142              		.loc 1 113 28 discriminator 1 view .LVU28
 143 002e 3A46     		mov	r2, r7
 144 0030 2946     		mov	r1, r5
 145 0032 2046     		mov	r0, r4
 146 0034 FFF7FEFF 		bl	strncmp
 147              	.LVL9:
 148              		.loc 1 113 24 discriminator 2 view .LVU29
 149 0038 0028     		cmp	r0, #0
 150 003a EDD1     		bne	.L6
 151 003c 02E0     		b	.L3
 152              	.L11:
 114:Middlewares/Third_Party/LwIP/src/core/def.c ****       return LWIP_CONST_CAST(char *, p);
 115:Middlewares/Third_Party/LwIP/src/core/def.c ****     }
 116:Middlewares/Third_Party/LwIP/src/core/def.c ****   }
 117:Middlewares/Third_Party/LwIP/src/core/def.c ****   return NULL;
 153              		.loc 1 117 10 view .LVU30
 154 003e 0024     		movs	r4, #0
 155              	.LVL10:
 156              		.loc 1 117 10 view .LVU31
 157 0040 00E0     		b	.L3
 158              	.LVL11:
 159              	.L8:
 110:Middlewares/Third_Party/LwIP/src/core/def.c ****   }
 160              		.loc 1 110 12 view .LVU32
 161 0042 3446     		mov	r4, r6
 162              	.LVL12:
 163              	.L3:
 118:Middlewares/Third_Party/LwIP/src/core/def.c **** }
 164              		.loc 1 118 1 view .LVU33
 165 0044 2046     		mov	r0, r4
 166 0046 BDE8F081 		pop	{r4, r5, r6, r7, r8, pc}
 167              	.LVL13:
 168              	.L9:
 117:Middlewares/Third_Party/LwIP/src/core/def.c **** }
 169              		.loc 1 117 10 view .LVU34
 170 004a 1446     		mov	r4, r2
ARM GAS  C:\Users\hh\AppData\Local\Temp\ccQfex2J.s 			page 6


 171              	.LVL14:
 117:Middlewares/Third_Party/LwIP/src/core/def.c **** }
 172              		.loc 1 117 10 view .LVU35
 173 004c FAE7     		b	.L3
 174              		.cfi_endproc
 175              	.LFE174:
 177              		.section	.text.lwip_stricmp,"ax",%progbits
 178              		.align	1
 179              		.global	lwip_stricmp
 180              		.syntax unified
 181              		.thumb
 182              		.thumb_func
 184              	lwip_stricmp:
 185              	.LFB176:
 119:Middlewares/Third_Party/LwIP/src/core/def.c **** #endif
 120:Middlewares/Third_Party/LwIP/src/core/def.c **** 
 121:Middlewares/Third_Party/LwIP/src/core/def.c **** #ifndef lwip_strnistr
 122:Middlewares/Third_Party/LwIP/src/core/def.c **** /**
 123:Middlewares/Third_Party/LwIP/src/core/def.c ****  * @ingroup sys_nonstandard
 124:Middlewares/Third_Party/LwIP/src/core/def.c ****  * lwIP default implementation for strnistr() non-standard function.
 125:Middlewares/Third_Party/LwIP/src/core/def.c ****  * This can be \#defined to strnistr() depending on your platform port.
 126:Middlewares/Third_Party/LwIP/src/core/def.c ****  */
 127:Middlewares/Third_Party/LwIP/src/core/def.c **** char *
 128:Middlewares/Third_Party/LwIP/src/core/def.c **** lwip_strnistr(const char *buffer, const char *token, size_t n)
 129:Middlewares/Third_Party/LwIP/src/core/def.c **** {
 130:Middlewares/Third_Party/LwIP/src/core/def.c ****   const char *p;
 131:Middlewares/Third_Party/LwIP/src/core/def.c ****   size_t tokenlen = strlen(token);
 132:Middlewares/Third_Party/LwIP/src/core/def.c ****   if (tokenlen == 0) {
 133:Middlewares/Third_Party/LwIP/src/core/def.c ****     return LWIP_CONST_CAST(char *, buffer);
 134:Middlewares/Third_Party/LwIP/src/core/def.c ****   }
 135:Middlewares/Third_Party/LwIP/src/core/def.c ****   for (p = buffer; *p && (p + tokenlen <= buffer + n); p++) {
 136:Middlewares/Third_Party/LwIP/src/core/def.c ****     if (lwip_strnicmp(p, token, tokenlen) == 0) {
 137:Middlewares/Third_Party/LwIP/src/core/def.c ****       return LWIP_CONST_CAST(char *, p);
 138:Middlewares/Third_Party/LwIP/src/core/def.c ****     }
 139:Middlewares/Third_Party/LwIP/src/core/def.c ****   }
 140:Middlewares/Third_Party/LwIP/src/core/def.c ****   return NULL;
 141:Middlewares/Third_Party/LwIP/src/core/def.c **** }
 142:Middlewares/Third_Party/LwIP/src/core/def.c **** #endif
 143:Middlewares/Third_Party/LwIP/src/core/def.c **** 
 144:Middlewares/Third_Party/LwIP/src/core/def.c **** #ifndef lwip_stricmp
 145:Middlewares/Third_Party/LwIP/src/core/def.c **** /**
 146:Middlewares/Third_Party/LwIP/src/core/def.c ****  * @ingroup sys_nonstandard
 147:Middlewares/Third_Party/LwIP/src/core/def.c ****  * lwIP default implementation for stricmp() non-standard function.
 148:Middlewares/Third_Party/LwIP/src/core/def.c ****  * This can be \#defined to stricmp() depending on your platform port.
 149:Middlewares/Third_Party/LwIP/src/core/def.c ****  */
 150:Middlewares/Third_Party/LwIP/src/core/def.c **** int
 151:Middlewares/Third_Party/LwIP/src/core/def.c **** lwip_stricmp(const char *str1, const char *str2)
 152:Middlewares/Third_Party/LwIP/src/core/def.c **** {
 186              		.loc 1 152 1 is_stmt 1 view -0
 187              		.cfi_startproc
 188              		@ args = 0, pretend = 0, frame = 0
 189              		@ frame_needed = 0, uses_anonymous_args = 0
 190              	.LVL15:
 191              		.loc 1 152 1 is_stmt 0 view .LVU37
 192 0000 00B5     		push	{lr}
 193              	.LCFI1:
 194              		.cfi_def_cfa_offset 4
ARM GAS  C:\Users\hh\AppData\Local\Temp\ccQfex2J.s 			page 7


 195              		.cfi_offset 14, -4
 196 0002 00E0     		b	.L15
 197              	.LVL16:
 198              	.L13:
 153:Middlewares/Third_Party/LwIP/src/core/def.c ****   char c1, c2;
 154:Middlewares/Third_Party/LwIP/src/core/def.c **** 
 155:Middlewares/Third_Party/LwIP/src/core/def.c ****   do {
 156:Middlewares/Third_Party/LwIP/src/core/def.c ****     c1 = *str1++;
 157:Middlewares/Third_Party/LwIP/src/core/def.c ****     c2 = *str2++;
 158:Middlewares/Third_Party/LwIP/src/core/def.c ****     if (c1 != c2) {
 159:Middlewares/Third_Party/LwIP/src/core/def.c ****       char c1_upc = c1 | 0x20;
 160:Middlewares/Third_Party/LwIP/src/core/def.c ****       if ((c1_upc >= 'a') && (c1_upc <= 'z')) {
 161:Middlewares/Third_Party/LwIP/src/core/def.c ****         /* characters are not equal an one is in the alphabet range:
 162:Middlewares/Third_Party/LwIP/src/core/def.c ****         downcase both chars and check again */
 163:Middlewares/Third_Party/LwIP/src/core/def.c ****         char c2_upc = c2 | 0x20;
 164:Middlewares/Third_Party/LwIP/src/core/def.c ****         if (c1_upc != c2_upc) {
 165:Middlewares/Third_Party/LwIP/src/core/def.c ****           /* still not equal */
 166:Middlewares/Third_Party/LwIP/src/core/def.c ****           /* don't care for < or > */
 167:Middlewares/Third_Party/LwIP/src/core/def.c ****           return 1;
 168:Middlewares/Third_Party/LwIP/src/core/def.c ****         }
 169:Middlewares/Third_Party/LwIP/src/core/def.c ****       } else {
 170:Middlewares/Third_Party/LwIP/src/core/def.c ****         /* characters are not equal but none is in the alphabet range */
 171:Middlewares/Third_Party/LwIP/src/core/def.c ****         return 1;
 172:Middlewares/Third_Party/LwIP/src/core/def.c ****       }
 173:Middlewares/Third_Party/LwIP/src/core/def.c ****     }
 174:Middlewares/Third_Party/LwIP/src/core/def.c ****   } while (c1 != 0);
 199              		.loc 1 174 15 is_stmt 1 view .LVU38
 200 0004 A2B1     		cbz	r2, .L19
 201              	.LVL17:
 202              	.L15:
 153:Middlewares/Third_Party/LwIP/src/core/def.c ****   char c1, c2;
 203              		.loc 1 153 3 view .LVU39
 155:Middlewares/Third_Party/LwIP/src/core/def.c ****     c1 = *str1++;
 204              		.loc 1 155 3 view .LVU40
 156:Middlewares/Third_Party/LwIP/src/core/def.c ****     c2 = *str2++;
 205              		.loc 1 156 5 view .LVU41
 156:Middlewares/Third_Party/LwIP/src/core/def.c ****     c2 = *str2++;
 206              		.loc 1 156 8 is_stmt 0 view .LVU42
 207 0006 0278     		ldrb	r2, [r0]	@ zero_extendqisi2
 208 0008 0130     		adds	r0, r0, #1
 209              	.LVL18:
 157:Middlewares/Third_Party/LwIP/src/core/def.c ****     if (c1 != c2) {
 210              		.loc 1 157 5 is_stmt 1 view .LVU43
 157:Middlewares/Third_Party/LwIP/src/core/def.c ****     if (c1 != c2) {
 211              		.loc 1 157 8 is_stmt 0 view .LVU44
 212 000a 0B78     		ldrb	r3, [r1]	@ zero_extendqisi2
 213 000c 0131     		adds	r1, r1, #1
 214              	.LVL19:
 158:Middlewares/Third_Party/LwIP/src/core/def.c ****       char c1_upc = c1 | 0x20;
 215              		.loc 1 158 5 is_stmt 1 view .LVU45
 158:Middlewares/Third_Party/LwIP/src/core/def.c ****       char c1_upc = c1 | 0x20;
 216              		.loc 1 158 8 is_stmt 0 view .LVU46
 217 000e 9A42     		cmp	r2, r3
 218 0010 F8D0     		beq	.L13
 219              	.LBB2:
 159:Middlewares/Third_Party/LwIP/src/core/def.c ****       if ((c1_upc >= 'a') && (c1_upc <= 'z')) {
 220              		.loc 1 159 7 is_stmt 1 view .LVU47
ARM GAS  C:\Users\hh\AppData\Local\Temp\ccQfex2J.s 			page 8


 159:Middlewares/Third_Party/LwIP/src/core/def.c ****       if ((c1_upc >= 'a') && (c1_upc <= 'z')) {
 221              		.loc 1 159 12 is_stmt 0 view .LVU48
 222 0012 42F0200E 		orr	lr, r2, #32
 223              	.LVL20:
 160:Middlewares/Third_Party/LwIP/src/core/def.c ****         /* characters are not equal an one is in the alphabet range:
 224              		.loc 1 160 7 is_stmt 1 view .LVU49
 160:Middlewares/Third_Party/LwIP/src/core/def.c ****         /* characters are not equal an one is in the alphabet range:
 225              		.loc 1 160 27 is_stmt 0 view .LVU50
 226 0016 AEF1610C 		sub	ip, lr, #97
 227 001a 5FFA8CFC 		uxtb	ip, ip
 160:Middlewares/Third_Party/LwIP/src/core/def.c ****         /* characters are not equal an one is in the alphabet range:
 228              		.loc 1 160 10 view .LVU51
 229 001e BCF1190F 		cmp	ip, #25
 230 0022 07D8     		bhi	.L16
 231              	.LBB3:
 163:Middlewares/Third_Party/LwIP/src/core/def.c ****         if (c1_upc != c2_upc) {
 232              		.loc 1 163 9 is_stmt 1 view .LVU52
 163:Middlewares/Third_Party/LwIP/src/core/def.c ****         if (c1_upc != c2_upc) {
 233              		.loc 1 163 14 is_stmt 0 view .LVU53
 234 0024 43F02003 		orr	r3, r3, #32
 235              	.LVL21:
 164:Middlewares/Third_Party/LwIP/src/core/def.c ****           /* still not equal */
 236              		.loc 1 164 9 is_stmt 1 view .LVU54
 164:Middlewares/Third_Party/LwIP/src/core/def.c ****           /* still not equal */
 237              		.loc 1 164 12 is_stmt 0 view .LVU55
 238 0028 9E45     		cmp	lr, r3
 239 002a EBD0     		beq	.L13
 167:Middlewares/Third_Party/LwIP/src/core/def.c ****         }
 240              		.loc 1 167 18 view .LVU56
 241 002c 0120     		movs	r0, #1
 242              	.LVL22:
 167:Middlewares/Third_Party/LwIP/src/core/def.c ****         }
 243              		.loc 1 167 18 view .LVU57
 244 002e 00E0     		b	.L12
 245              	.LVL23:
 246              	.L19:
 167:Middlewares/Third_Party/LwIP/src/core/def.c ****         }
 247              		.loc 1 167 18 view .LVU58
 248              	.LBE3:
 249              	.LBE2:
 175:Middlewares/Third_Party/LwIP/src/core/def.c ****   return 0;
 250              		.loc 1 175 10 view .LVU59
 251 0030 1046     		mov	r0, r2
 252              	.LVL24:
 253              	.L12:
 176:Middlewares/Third_Party/LwIP/src/core/def.c **** }
 254              		.loc 1 176 1 view .LVU60
 255 0032 00BD     		pop	{pc}
 256              	.LVL25:
 257              	.L16:
 258              	.LBB4:
 171:Middlewares/Third_Party/LwIP/src/core/def.c ****       }
 259              		.loc 1 171 16 view .LVU61
 260 0034 0120     		movs	r0, #1
 261              	.LVL26:
 171:Middlewares/Third_Party/LwIP/src/core/def.c ****       }
 262              		.loc 1 171 16 view .LVU62
ARM GAS  C:\Users\hh\AppData\Local\Temp\ccQfex2J.s 			page 9


 263 0036 FCE7     		b	.L12
 264              	.LBE4:
 265              		.cfi_endproc
 266              	.LFE176:
 268              		.section	.text.lwip_strnicmp,"ax",%progbits
 269              		.align	1
 270              		.global	lwip_strnicmp
 271              		.syntax unified
 272              		.thumb
 273              		.thumb_func
 275              	lwip_strnicmp:
 276              	.LFB177:
 177:Middlewares/Third_Party/LwIP/src/core/def.c **** #endif
 178:Middlewares/Third_Party/LwIP/src/core/def.c **** 
 179:Middlewares/Third_Party/LwIP/src/core/def.c **** #ifndef lwip_strnicmp
 180:Middlewares/Third_Party/LwIP/src/core/def.c **** /**
 181:Middlewares/Third_Party/LwIP/src/core/def.c ****  * @ingroup sys_nonstandard
 182:Middlewares/Third_Party/LwIP/src/core/def.c ****  * lwIP default implementation for strnicmp() non-standard function.
 183:Middlewares/Third_Party/LwIP/src/core/def.c ****  * This can be \#defined to strnicmp() depending on your platform port.
 184:Middlewares/Third_Party/LwIP/src/core/def.c ****  */
 185:Middlewares/Third_Party/LwIP/src/core/def.c **** int
 186:Middlewares/Third_Party/LwIP/src/core/def.c **** lwip_strnicmp(const char *str1, const char *str2, size_t len)
 187:Middlewares/Third_Party/LwIP/src/core/def.c **** {
 277              		.loc 1 187 1 is_stmt 1 view -0
 278              		.cfi_startproc
 279              		@ args = 0, pretend = 0, frame = 0
 280              		@ frame_needed = 0, uses_anonymous_args = 0
 281              	.LVL27:
 282              		.loc 1 187 1 is_stmt 0 view .LVU64
 283 0000 10B5     		push	{r4, lr}
 284              	.LCFI2:
 285              		.cfi_def_cfa_offset 8
 286              		.cfi_offset 4, -8
 287              		.cfi_offset 14, -4
 288 0002 08E0     		b	.L23
 289              	.LVL28:
 290              	.L21:
 188:Middlewares/Third_Party/LwIP/src/core/def.c ****   char c1, c2;
 189:Middlewares/Third_Party/LwIP/src/core/def.c **** 
 190:Middlewares/Third_Party/LwIP/src/core/def.c ****   do {
 191:Middlewares/Third_Party/LwIP/src/core/def.c ****     c1 = *str1++;
 192:Middlewares/Third_Party/LwIP/src/core/def.c ****     c2 = *str2++;
 193:Middlewares/Third_Party/LwIP/src/core/def.c ****     if (c1 != c2) {
 194:Middlewares/Third_Party/LwIP/src/core/def.c ****       char c1_upc = c1 | 0x20;
 195:Middlewares/Third_Party/LwIP/src/core/def.c ****       if ((c1_upc >= 'a') && (c1_upc <= 'z')) {
 196:Middlewares/Third_Party/LwIP/src/core/def.c ****         /* characters are not equal an one is in the alphabet range:
 197:Middlewares/Third_Party/LwIP/src/core/def.c ****         downcase both chars and check again */
 198:Middlewares/Third_Party/LwIP/src/core/def.c ****         char c2_upc = c2 | 0x20;
 199:Middlewares/Third_Party/LwIP/src/core/def.c ****         if (c1_upc != c2_upc) {
 200:Middlewares/Third_Party/LwIP/src/core/def.c ****           /* still not equal */
 201:Middlewares/Third_Party/LwIP/src/core/def.c ****           /* don't care for < or > */
 202:Middlewares/Third_Party/LwIP/src/core/def.c ****           return 1;
 203:Middlewares/Third_Party/LwIP/src/core/def.c ****         }
 204:Middlewares/Third_Party/LwIP/src/core/def.c ****       } else {
 205:Middlewares/Third_Party/LwIP/src/core/def.c ****         /* characters are not equal but none is in the alphabet range */
 206:Middlewares/Third_Party/LwIP/src/core/def.c ****         return 1;
 207:Middlewares/Third_Party/LwIP/src/core/def.c ****       }
ARM GAS  C:\Users\hh\AppData\Local\Temp\ccQfex2J.s 			page 10


 208:Middlewares/Third_Party/LwIP/src/core/def.c ****     }
 209:Middlewares/Third_Party/LwIP/src/core/def.c ****     len--;
 291              		.loc 1 209 5 is_stmt 1 view .LVU65
 210:Middlewares/Third_Party/LwIP/src/core/def.c ****   } while ((len != 0) && (c1 != 0));
 292              		.loc 1 210 23 view .LVU66
 293              		.loc 1 210 17 is_stmt 0 view .LVU67
 294 0004 013A     		subs	r2, r2, #1
 295              	.LVL29:
 296              		.loc 1 210 17 view .LVU68
 297 0006 14BF     		ite	ne
 298 0008 0124     		movne	r4, #1
 299 000a 0024     		moveq	r4, #0
 300              		.loc 1 210 30 view .LVU69
 301 000c 003B     		subs	r3, r3, #0
 302              		.loc 1 210 30 view .LVU70
 303 000e 18BF     		it	ne
 304 0010 0123     		movne	r3, #1
 305              	.LVL30:
 306              		.loc 1 210 23 view .LVU71
 307 0012 B4B1     		cbz	r4, .L27
 308 0014 ABB1     		cbz	r3, .L27
 309              	.LVL31:
 310              	.L23:
 188:Middlewares/Third_Party/LwIP/src/core/def.c ****   char c1, c2;
 311              		.loc 1 188 3 is_stmt 1 view .LVU72
 190:Middlewares/Third_Party/LwIP/src/core/def.c ****     c1 = *str1++;
 312              		.loc 1 190 3 view .LVU73
 191:Middlewares/Third_Party/LwIP/src/core/def.c ****     c2 = *str2++;
 313              		.loc 1 191 5 view .LVU74
 191:Middlewares/Third_Party/LwIP/src/core/def.c ****     c2 = *str2++;
 314              		.loc 1 191 8 is_stmt 0 view .LVU75
 315 0016 0378     		ldrb	r3, [r0]	@ zero_extendqisi2
 316 0018 0130     		adds	r0, r0, #1
 317              	.LVL32:
 192:Middlewares/Third_Party/LwIP/src/core/def.c ****     if (c1 != c2) {
 318              		.loc 1 192 5 is_stmt 1 view .LVU76
 192:Middlewares/Third_Party/LwIP/src/core/def.c ****     if (c1 != c2) {
 319              		.loc 1 192 8 is_stmt 0 view .LVU77
 320 001a 91F800C0 		ldrb	ip, [r1]	@ zero_extendqisi2
 321 001e 0131     		adds	r1, r1, #1
 322              	.LVL33:
 193:Middlewares/Third_Party/LwIP/src/core/def.c ****       char c1_upc = c1 | 0x20;
 323              		.loc 1 193 5 is_stmt 1 view .LVU78
 193:Middlewares/Third_Party/LwIP/src/core/def.c ****       char c1_upc = c1 | 0x20;
 324              		.loc 1 193 8 is_stmt 0 view .LVU79
 325 0020 6345     		cmp	r3, ip
 326 0022 EFD0     		beq	.L21
 327              	.LBB5:
 194:Middlewares/Third_Party/LwIP/src/core/def.c ****       if ((c1_upc >= 'a') && (c1_upc <= 'z')) {
 328              		.loc 1 194 7 is_stmt 1 view .LVU80
 194:Middlewares/Third_Party/LwIP/src/core/def.c ****       if ((c1_upc >= 'a') && (c1_upc <= 'z')) {
 329              		.loc 1 194 12 is_stmt 0 view .LVU81
 330 0024 43F02004 		orr	r4, r3, #32
 331              	.LVL34:
 195:Middlewares/Third_Party/LwIP/src/core/def.c ****         /* characters are not equal an one is in the alphabet range:
 332              		.loc 1 195 7 is_stmt 1 view .LVU82
 195:Middlewares/Third_Party/LwIP/src/core/def.c ****         /* characters are not equal an one is in the alphabet range:
ARM GAS  C:\Users\hh\AppData\Local\Temp\ccQfex2J.s 			page 11


 333              		.loc 1 195 27 is_stmt 0 view .LVU83
 334 0028 A4F1610E 		sub	lr, r4, #97
 335 002c 5FFA8EFE 		uxtb	lr, lr
 195:Middlewares/Third_Party/LwIP/src/core/def.c ****         /* characters are not equal an one is in the alphabet range:
 336              		.loc 1 195 10 view .LVU84
 337 0030 BEF1190F 		cmp	lr, #25
 338 0034 07D8     		bhi	.L25
 339              	.LBB6:
 198:Middlewares/Third_Party/LwIP/src/core/def.c ****         if (c1_upc != c2_upc) {
 340              		.loc 1 198 9 is_stmt 1 view .LVU85
 198:Middlewares/Third_Party/LwIP/src/core/def.c ****         if (c1_upc != c2_upc) {
 341              		.loc 1 198 14 is_stmt 0 view .LVU86
 342 0036 4CF0200C 		orr	ip, ip, #32
 343              	.LVL35:
 199:Middlewares/Third_Party/LwIP/src/core/def.c ****           /* still not equal */
 344              		.loc 1 199 9 is_stmt 1 view .LVU87
 199:Middlewares/Third_Party/LwIP/src/core/def.c ****           /* still not equal */
 345              		.loc 1 199 12 is_stmt 0 view .LVU88
 346 003a 6445     		cmp	r4, ip
 347 003c E2D0     		beq	.L21
 202:Middlewares/Third_Party/LwIP/src/core/def.c ****         }
 348              		.loc 1 202 18 view .LVU89
 349 003e 0120     		movs	r0, #1
 350              	.LVL36:
 202:Middlewares/Third_Party/LwIP/src/core/def.c ****         }
 351              		.loc 1 202 18 view .LVU90
 352 0040 00E0     		b	.L20
 353              	.LVL37:
 354              	.L27:
 202:Middlewares/Third_Party/LwIP/src/core/def.c ****         }
 355              		.loc 1 202 18 view .LVU91
 356              	.LBE6:
 357              	.LBE5:
 211:Middlewares/Third_Party/LwIP/src/core/def.c ****   return 0;
 358              		.loc 1 211 10 view .LVU92
 359 0042 0020     		movs	r0, #0
 360              	.LVL38:
 361              	.L20:
 212:Middlewares/Third_Party/LwIP/src/core/def.c **** }
 362              		.loc 1 212 1 view .LVU93
 363 0044 10BD     		pop	{r4, pc}
 364              	.LVL39:
 365              	.L25:
 366              	.LBB7:
 206:Middlewares/Third_Party/LwIP/src/core/def.c ****       }
 367              		.loc 1 206 16 view .LVU94
 368 0046 0120     		movs	r0, #1
 369              	.LVL40:
 206:Middlewares/Third_Party/LwIP/src/core/def.c ****       }
 370              		.loc 1 206 16 view .LVU95
 371 0048 FCE7     		b	.L20
 372              	.LBE7:
 373              		.cfi_endproc
 374              	.LFE177:
 376              		.section	.text.lwip_strnistr,"ax",%progbits
 377              		.align	1
 378              		.global	lwip_strnistr
ARM GAS  C:\Users\hh\AppData\Local\Temp\ccQfex2J.s 			page 12


 379              		.syntax unified
 380              		.thumb
 381              		.thumb_func
 383              	lwip_strnistr:
 384              	.LVL41:
 385              	.LFB175:
 129:Middlewares/Third_Party/LwIP/src/core/def.c ****   const char *p;
 386              		.loc 1 129 1 is_stmt 1 view -0
 387              		.cfi_startproc
 388              		@ args = 0, pretend = 0, frame = 0
 389              		@ frame_needed = 0, uses_anonymous_args = 0
 129:Middlewares/Third_Party/LwIP/src/core/def.c ****   const char *p;
 390              		.loc 1 129 1 is_stmt 0 view .LVU97
 391 0000 2DE9F041 		push	{r4, r5, r6, r7, r8, lr}
 392              	.LCFI3:
 393              		.cfi_def_cfa_offset 24
 394              		.cfi_offset 4, -24
 395              		.cfi_offset 5, -20
 396              		.cfi_offset 6, -16
 397              		.cfi_offset 7, -12
 398              		.cfi_offset 8, -8
 399              		.cfi_offset 14, -4
 400 0004 0646     		mov	r6, r0
 401 0006 0F46     		mov	r7, r1
 402 0008 9046     		mov	r8, r2
 130:Middlewares/Third_Party/LwIP/src/core/def.c ****   size_t tokenlen = strlen(token);
 403              		.loc 1 130 3 is_stmt 1 view .LVU98
 131:Middlewares/Third_Party/LwIP/src/core/def.c ****   if (tokenlen == 0) {
 404              		.loc 1 131 3 view .LVU99
 131:Middlewares/Third_Party/LwIP/src/core/def.c ****   if (tokenlen == 0) {
 405              		.loc 1 131 21 is_stmt 0 view .LVU100
 406 000a 0846     		mov	r0, r1
 407              	.LVL42:
 131:Middlewares/Third_Party/LwIP/src/core/def.c ****   if (tokenlen == 0) {
 408              		.loc 1 131 21 view .LVU101
 409 000c FFF7FEFF 		bl	strlen
 410              	.LVL43:
 132:Middlewares/Third_Party/LwIP/src/core/def.c ****     return LWIP_CONST_CAST(char *, buffer);
 411              		.loc 1 132 3 is_stmt 1 view .LVU102
 132:Middlewares/Third_Party/LwIP/src/core/def.c ****     return LWIP_CONST_CAST(char *, buffer);
 412              		.loc 1 132 6 is_stmt 0 view .LVU103
 413 0010 A0B1     		cbz	r0, .L33
 414 0012 0546     		mov	r5, r0
 135:Middlewares/Third_Party/LwIP/src/core/def.c ****     if (lwip_strnicmp(p, token, tokenlen) == 0) {
 415              		.loc 1 135 10 view .LVU104
 416 0014 3446     		mov	r4, r6
 417 0016 00E0     		b	.L31
 418              	.LVL44:
 419              	.L37:
 135:Middlewares/Third_Party/LwIP/src/core/def.c ****     if (lwip_strnicmp(p, token, tokenlen) == 0) {
 420              		.loc 1 135 57 is_stmt 1 discriminator 2 view .LVU105
 421 0018 0134     		adds	r4, r4, #1
 422              	.LVL45:
 423              	.L31:
 135:Middlewares/Third_Party/LwIP/src/core/def.c ****     if (lwip_strnicmp(p, token, tokenlen) == 0) {
 424              		.loc 1 135 23 discriminator 1 view .LVU106
 135:Middlewares/Third_Party/LwIP/src/core/def.c ****     if (lwip_strnicmp(p, token, tokenlen) == 0) {
ARM GAS  C:\Users\hh\AppData\Local\Temp\ccQfex2J.s 			page 13


 425              		.loc 1 135 20 is_stmt 0 discriminator 1 view .LVU107
 426 001a 2378     		ldrb	r3, [r4]	@ zero_extendqisi2
 135:Middlewares/Third_Party/LwIP/src/core/def.c ****     if (lwip_strnicmp(p, token, tokenlen) == 0) {
 427              		.loc 1 135 23 discriminator 1 view .LVU108
 428 001c 93B1     		cbz	r3, .L34
 135:Middlewares/Third_Party/LwIP/src/core/def.c ****     if (lwip_strnicmp(p, token, tokenlen) == 0) {
 429              		.loc 1 135 29 discriminator 3 view .LVU109
 430 001e 6319     		adds	r3, r4, r5
 135:Middlewares/Third_Party/LwIP/src/core/def.c ****     if (lwip_strnicmp(p, token, tokenlen) == 0) {
 431              		.loc 1 135 50 discriminator 3 view .LVU110
 432 0020 06EB0802 		add	r2, r6, r8
 135:Middlewares/Third_Party/LwIP/src/core/def.c ****     if (lwip_strnicmp(p, token, tokenlen) == 0) {
 433              		.loc 1 135 23 discriminator 3 view .LVU111
 434 0024 9342     		cmp	r3, r2
 435 0026 07D8     		bhi	.L36
 136:Middlewares/Third_Party/LwIP/src/core/def.c ****       return LWIP_CONST_CAST(char *, p);
 436              		.loc 1 136 5 is_stmt 1 view .LVU112
 136:Middlewares/Third_Party/LwIP/src/core/def.c ****       return LWIP_CONST_CAST(char *, p);
 437              		.loc 1 136 9 is_stmt 0 view .LVU113
 438 0028 2A46     		mov	r2, r5
 439 002a 3946     		mov	r1, r7
 440 002c 2046     		mov	r0, r4
 441 002e FFF7FEFF 		bl	lwip_strnicmp
 442              	.LVL46:
 136:Middlewares/Third_Party/LwIP/src/core/def.c ****       return LWIP_CONST_CAST(char *, p);
 443              		.loc 1 136 8 discriminator 1 view .LVU114
 444 0032 0028     		cmp	r0, #0
 445 0034 F0D1     		bne	.L37
 446 0036 02E0     		b	.L29
 447              	.L36:
 140:Middlewares/Third_Party/LwIP/src/core/def.c **** }
 448              		.loc 1 140 10 view .LVU115
 449 0038 0024     		movs	r4, #0
 450              	.LVL47:
 140:Middlewares/Third_Party/LwIP/src/core/def.c **** }
 451              		.loc 1 140 10 view .LVU116
 452 003a 00E0     		b	.L29
 453              	.LVL48:
 454              	.L33:
 133:Middlewares/Third_Party/LwIP/src/core/def.c ****   }
 455              		.loc 1 133 12 view .LVU117
 456 003c 3446     		mov	r4, r6
 457              	.LVL49:
 458              	.L29:
 141:Middlewares/Third_Party/LwIP/src/core/def.c **** #endif
 459              		.loc 1 141 1 view .LVU118
 460 003e 2046     		mov	r0, r4
 461 0040 BDE8F081 		pop	{r4, r5, r6, r7, r8, pc}
 462              	.LVL50:
 463              	.L34:
 140:Middlewares/Third_Party/LwIP/src/core/def.c **** }
 464              		.loc 1 140 10 view .LVU119
 465 0044 1C46     		mov	r4, r3
 466              	.LVL51:
 140:Middlewares/Third_Party/LwIP/src/core/def.c **** }
 467              		.loc 1 140 10 view .LVU120
 468 0046 FAE7     		b	.L29
ARM GAS  C:\Users\hh\AppData\Local\Temp\ccQfex2J.s 			page 14


 469              		.cfi_endproc
 470              	.LFE175:
 472              		.section	.text.lwip_itoa,"ax",%progbits
 473              		.align	1
 474              		.global	lwip_itoa
 475              		.syntax unified
 476              		.thumb
 477              		.thumb_func
 479              	lwip_itoa:
 480              	.LVL52:
 481              	.LFB178:
 213:Middlewares/Third_Party/LwIP/src/core/def.c **** #endif
 214:Middlewares/Third_Party/LwIP/src/core/def.c **** 
 215:Middlewares/Third_Party/LwIP/src/core/def.c **** #ifndef lwip_itoa
 216:Middlewares/Third_Party/LwIP/src/core/def.c **** /**
 217:Middlewares/Third_Party/LwIP/src/core/def.c ****  * @ingroup sys_nonstandard
 218:Middlewares/Third_Party/LwIP/src/core/def.c ****  * lwIP default implementation for itoa() non-standard function.
 219:Middlewares/Third_Party/LwIP/src/core/def.c ****  * This can be \#defined to itoa() or snprintf(result, bufsize, "%d", number) depending on your pla
 220:Middlewares/Third_Party/LwIP/src/core/def.c ****  */
 221:Middlewares/Third_Party/LwIP/src/core/def.c **** void
 222:Middlewares/Third_Party/LwIP/src/core/def.c **** lwip_itoa(char *result, size_t bufsize, int number)
 223:Middlewares/Third_Party/LwIP/src/core/def.c **** {
 482              		.loc 1 223 1 is_stmt 1 view -0
 483              		.cfi_startproc
 484              		@ args = 0, pretend = 0, frame = 0
 485              		@ frame_needed = 0, uses_anonymous_args = 0
 486              		.loc 1 223 1 is_stmt 0 view .LVU122
 487 0000 10B5     		push	{r4, lr}
 488              	.LCFI4:
 489              		.cfi_def_cfa_offset 8
 490              		.cfi_offset 4, -8
 491              		.cfi_offset 14, -4
 492 0002 8646     		mov	lr, r0
 493 0004 0C46     		mov	r4, r1
 494 0006 1346     		mov	r3, r2
 224:Middlewares/Third_Party/LwIP/src/core/def.c ****   char *res = result;
 495              		.loc 1 224 3 is_stmt 1 view .LVU123
 496              	.LVL53:
 225:Middlewares/Third_Party/LwIP/src/core/def.c ****   char *tmp = result + bufsize - 1;
 497              		.loc 1 225 3 view .LVU124
 498              		.loc 1 225 32 is_stmt 0 view .LVU125
 499 0008 01F1FF3C 		add	ip, r1, #-1
 500              		.loc 1 225 9 view .LVU126
 501 000c 00EB0C01 		add	r1, r0, ip
 502              	.LVL54:
 226:Middlewares/Third_Party/LwIP/src/core/def.c ****   int n = (number >= 0) ? number : -number;
 503              		.loc 1 226 3 is_stmt 1 view .LVU127
 504              		.loc 1 226 7 is_stmt 0 view .LVU128
 505 0010 82EAE272 		eor	r2, r2, r2, asr #31
 506              	.LVL55:
 507              		.loc 1 226 7 view .LVU129
 508 0014 A2EBE372 		sub	r2, r2, r3, asr #31
 509              	.LVL56:
 227:Middlewares/Third_Party/LwIP/src/core/def.c **** 
 228:Middlewares/Third_Party/LwIP/src/core/def.c ****   /* handle invalid bufsize */
 229:Middlewares/Third_Party/LwIP/src/core/def.c ****   if (bufsize < 2) {
 510              		.loc 1 229 3 is_stmt 1 view .LVU130
ARM GAS  C:\Users\hh\AppData\Local\Temp\ccQfex2J.s 			page 15


 511              		.loc 1 229 6 is_stmt 0 view .LVU131
 512 0018 012C     		cmp	r4, #1
 513 001a 05D9     		bls	.L51
 230:Middlewares/Third_Party/LwIP/src/core/def.c ****     if (bufsize == 1) {
 231:Middlewares/Third_Party/LwIP/src/core/def.c ****       *result = 0;
 232:Middlewares/Third_Party/LwIP/src/core/def.c ****     }
 233:Middlewares/Third_Party/LwIP/src/core/def.c ****     return;
 234:Middlewares/Third_Party/LwIP/src/core/def.c ****   }
 235:Middlewares/Third_Party/LwIP/src/core/def.c **** 
 236:Middlewares/Third_Party/LwIP/src/core/def.c ****   /* First, add sign */
 237:Middlewares/Third_Party/LwIP/src/core/def.c ****   if (number < 0) {
 514              		.loc 1 237 3 is_stmt 1 view .LVU132
 515              		.loc 1 237 6 is_stmt 0 view .LVU133
 516 001c 002B     		cmp	r3, #0
 517 001e 07DB     		blt	.L52
 518              	.LVL57:
 519              	.L42:
 238:Middlewares/Third_Party/LwIP/src/core/def.c ****     *res++ = '-';
 239:Middlewares/Third_Party/LwIP/src/core/def.c ****   }
 240:Middlewares/Third_Party/LwIP/src/core/def.c ****   /* Then create the string from the end and stop if buffer full,
 241:Middlewares/Third_Party/LwIP/src/core/def.c ****      and ensure output string is zero terminated */
 242:Middlewares/Third_Party/LwIP/src/core/def.c ****   *tmp = 0;
 520              		.loc 1 242 3 is_stmt 1 view .LVU134
 521              		.loc 1 242 8 is_stmt 0 view .LVU135
 522 0020 0023     		movs	r3, #0
 523 0022 0EF80C30 		strb	r3, [lr, ip]
 243:Middlewares/Third_Party/LwIP/src/core/def.c ****   while ((n != 0) && (tmp > res)) {
 524              		.loc 1 243 3 is_stmt 1 view .LVU136
 525              		.loc 1 243 9 is_stmt 0 view .LVU137
 526 0026 17E0     		b	.L43
 527              	.LVL58:
 528              	.L51:
 230:Middlewares/Third_Party/LwIP/src/core/def.c ****     if (bufsize == 1) {
 529              		.loc 1 230 5 is_stmt 1 view .LVU138
 230:Middlewares/Third_Party/LwIP/src/core/def.c ****     if (bufsize == 1) {
 530              		.loc 1 230 8 is_stmt 0 view .LVU139
 531 0028 27D1     		bne	.L38
 231:Middlewares/Third_Party/LwIP/src/core/def.c ****     }
 532              		.loc 1 231 7 is_stmt 1 view .LVU140
 231:Middlewares/Third_Party/LwIP/src/core/def.c ****     }
 533              		.loc 1 231 15 is_stmt 0 view .LVU141
 534 002a 0023     		movs	r3, #0
 535              	.LVL59:
 231:Middlewares/Third_Party/LwIP/src/core/def.c ****     }
 536              		.loc 1 231 15 view .LVU142
 537 002c 0370     		strb	r3, [r0]
 233:Middlewares/Third_Party/LwIP/src/core/def.c ****   }
 538              		.loc 1 233 5 is_stmt 1 view .LVU143
 539 002e 24E0     		b	.L38
 540              	.LVL60:
 541              	.L52:
 238:Middlewares/Third_Party/LwIP/src/core/def.c ****   }
 542              		.loc 1 238 5 view .LVU144
 238:Middlewares/Third_Party/LwIP/src/core/def.c ****   }
 543              		.loc 1 238 12 is_stmt 0 view .LVU145
 544 0030 2D23     		movs	r3, #45
 545              	.LVL61:
ARM GAS  C:\Users\hh\AppData\Local\Temp\ccQfex2J.s 			page 16


 238:Middlewares/Third_Party/LwIP/src/core/def.c ****   }
 546              		.loc 1 238 12 view .LVU146
 547 0032 00F8013B 		strb	r3, [r0], #1
 548              	.LVL62:
 238:Middlewares/Third_Party/LwIP/src/core/def.c ****   }
 549              		.loc 1 238 12 view .LVU147
 550 0036 F3E7     		b	.L42
 551              	.L44:
 552              	.LBB8:
 244:Middlewares/Third_Party/LwIP/src/core/def.c ****     char val = (char)('0' + (n % 10));
 553              		.loc 1 244 5 is_stmt 1 view .LVU148
 554              		.loc 1 244 32 is_stmt 0 view .LVU149
 555 0038 134B     		ldr	r3, .L54
 556 003a 83FB023C 		smull	r3, ip, r3, r2
 557 003e D317     		asrs	r3, r2, #31
 558 0040 C3EBAC03 		rsb	r3, r3, ip, asr #2
 559 0044 9C46     		mov	ip, r3
 560 0046 03EB8303 		add	r3, r3, r3, lsl #2
 561 004a A2EB4303 		sub	r3, r2, r3, lsl #1
 562              		.loc 1 244 16 view .LVU150
 563 004e DBB2     		uxtb	r3, r3
 564              		.loc 1 244 10 view .LVU151
 565 0050 3033     		adds	r3, r3, #48
 566              	.LVL63:
 245:Middlewares/Third_Party/LwIP/src/core/def.c ****     tmp--;
 567              		.loc 1 245 5 is_stmt 1 view .LVU152
 246:Middlewares/Third_Party/LwIP/src/core/def.c ****     *tmp = val;
 568              		.loc 1 246 5 view .LVU153
 569              		.loc 1 246 10 is_stmt 0 view .LVU154
 570 0052 01F8013D 		strb	r3, [r1, #-1]!
 571              	.LVL64:
 247:Middlewares/Third_Party/LwIP/src/core/def.c ****     n = n / 10;
 572              		.loc 1 247 5 is_stmt 1 view .LVU155
 573              		.loc 1 247 7 is_stmt 0 view .LVU156
 574 0056 6246     		mov	r2, ip
 575              	.LVL65:
 576              	.L43:
 577              		.loc 1 247 7 view .LVU157
 578              	.LBE8:
 243:Middlewares/Third_Party/LwIP/src/core/def.c ****     char val = (char)('0' + (n % 10));
 579              		.loc 1 243 19 is_stmt 1 view .LVU158
 243:Middlewares/Third_Party/LwIP/src/core/def.c ****     char val = (char)('0' + (n % 10));
 580              		.loc 1 243 27 is_stmt 0 view .LVU159
 581 0058 8842     		cmp	r0, r1
 582 005a 2CBF     		ite	cs
 583 005c 0023     		movcs	r3, #0
 584 005e 0123     		movcc	r3, #1
 243:Middlewares/Third_Party/LwIP/src/core/def.c ****     char val = (char)('0' + (n % 10));
 585              		.loc 1 243 19 view .LVU160
 586 0060 0AB1     		cbz	r2, .L49
 243:Middlewares/Third_Party/LwIP/src/core/def.c ****     char val = (char)('0' + (n % 10));
 587              		.loc 1 243 19 view .LVU161
 588 0062 002B     		cmp	r3, #0
 589 0064 E8D1     		bne	.L44
 590              	.L49:
 248:Middlewares/Third_Party/LwIP/src/core/def.c ****   }
 249:Middlewares/Third_Party/LwIP/src/core/def.c ****   if (n) {
ARM GAS  C:\Users\hh\AppData\Local\Temp\ccQfex2J.s 			page 17


 591              		.loc 1 249 3 is_stmt 1 view .LVU162
 592              		.loc 1 249 6 is_stmt 0 view .LVU163
 593 0066 2AB9     		cbnz	r2, .L53
 250:Middlewares/Third_Party/LwIP/src/core/def.c ****     /* buffer is too small */
 251:Middlewares/Third_Party/LwIP/src/core/def.c ****     *result = 0;
 252:Middlewares/Third_Party/LwIP/src/core/def.c ****     return;
 253:Middlewares/Third_Party/LwIP/src/core/def.c ****   }
 254:Middlewares/Third_Party/LwIP/src/core/def.c ****   if (*tmp == 0) {
 594              		.loc 1 254 3 is_stmt 1 view .LVU164
 595              		.loc 1 254 7 is_stmt 0 view .LVU165
 596 0068 0B78     		ldrb	r3, [r1]	@ zero_extendqisi2
 597              		.loc 1 254 6 view .LVU166
 598 006a 3BB9     		cbnz	r3, .L47
 255:Middlewares/Third_Party/LwIP/src/core/def.c ****     /* Nothing added? */
 256:Middlewares/Third_Party/LwIP/src/core/def.c ****     *res++ = '0';
 599              		.loc 1 256 5 is_stmt 1 view .LVU167
 600              	.LVL66:
 601              		.loc 1 256 12 is_stmt 0 view .LVU168
 602 006c 3023     		movs	r3, #48
 603 006e 0370     		strb	r3, [r0]
 257:Middlewares/Third_Party/LwIP/src/core/def.c ****     *res++ = 0;
 604              		.loc 1 257 5 is_stmt 1 view .LVU169
 605              	.LVL67:
 606              		.loc 1 257 12 is_stmt 0 view .LVU170
 607 0070 4270     		strb	r2, [r0, #1]
 258:Middlewares/Third_Party/LwIP/src/core/def.c ****     return;
 608              		.loc 1 258 5 is_stmt 1 view .LVU171
 609 0072 02E0     		b	.L38
 610              	.LVL68:
 611              	.L53:
 251:Middlewares/Third_Party/LwIP/src/core/def.c ****     return;
 612              		.loc 1 251 5 view .LVU172
 251:Middlewares/Third_Party/LwIP/src/core/def.c ****     return;
 613              		.loc 1 251 13 is_stmt 0 view .LVU173
 614 0074 0023     		movs	r3, #0
 615 0076 8EF80030 		strb	r3, [lr]
 252:Middlewares/Third_Party/LwIP/src/core/def.c ****   }
 616              		.loc 1 252 5 is_stmt 1 view .LVU174
 617              	.LVL69:
 618              	.L38:
 259:Middlewares/Third_Party/LwIP/src/core/def.c ****   }
 260:Middlewares/Third_Party/LwIP/src/core/def.c ****   /* move from temporary buffer to output buffer (sign is not moved) */
 261:Middlewares/Third_Party/LwIP/src/core/def.c ****   memmove(res, tmp, (size_t)((result + bufsize) - tmp));
 262:Middlewares/Third_Party/LwIP/src/core/def.c **** }
 619              		.loc 1 262 1 is_stmt 0 view .LVU175
 620 007a 10BD     		pop	{r4, pc}
 621              	.LVL70:
 622              	.L47:
 261:Middlewares/Third_Party/LwIP/src/core/def.c **** }
 623              		.loc 1 261 3 is_stmt 1 view .LVU176
 261:Middlewares/Third_Party/LwIP/src/core/def.c **** }
 624              		.loc 1 261 38 is_stmt 0 view .LVU177
 625 007c 0EEB0402 		add	r2, lr, r4
 626              	.LVL71:
 261:Middlewares/Third_Party/LwIP/src/core/def.c **** }
 627              		.loc 1 261 3 view .LVU178
 628 0080 521A     		subs	r2, r2, r1
ARM GAS  C:\Users\hh\AppData\Local\Temp\ccQfex2J.s 			page 18


 629 0082 FFF7FEFF 		bl	memmove
 630              	.LVL72:
 261:Middlewares/Third_Party/LwIP/src/core/def.c **** }
 631              		.loc 1 261 3 view .LVU179
 632 0086 F8E7     		b	.L38
 633              	.L55:
 634              		.align	2
 635              	.L54:
 636 0088 67666666 		.word	1717986919
 637              		.cfi_endproc
 638              	.LFE178:
 640              		.section	.text.lwip_memcmp_consttime,"ax",%progbits
 641              		.align	1
 642              		.global	lwip_memcmp_consttime
 643              		.syntax unified
 644              		.thumb
 645              		.thumb_func
 647              	lwip_memcmp_consttime:
 648              	.LVL73:
 649              	.LFB179:
 263:Middlewares/Third_Party/LwIP/src/core/def.c **** #endif
 264:Middlewares/Third_Party/LwIP/src/core/def.c **** 
 265:Middlewares/Third_Party/LwIP/src/core/def.c **** #ifndef lwip_memcmp_consttime
 266:Middlewares/Third_Party/LwIP/src/core/def.c **** /**
 267:Middlewares/Third_Party/LwIP/src/core/def.c ****  * @ingroup sys_nonstandard
 268:Middlewares/Third_Party/LwIP/src/core/def.c ****  * The goal of this function is to compare memory with constant runtime in order to prevent
 269:Middlewares/Third_Party/LwIP/src/core/def.c ****  * timing attacks to various parts in the stack.
 270:Middlewares/Third_Party/LwIP/src/core/def.c ****  * To do that, in contrast to memcmp(), it only returns:
 271:Middlewares/Third_Party/LwIP/src/core/def.c ****  * 0: equal
 272:Middlewares/Third_Party/LwIP/src/core/def.c ****  * != 0: not equal
 273:Middlewares/Third_Party/LwIP/src/core/def.c ****  */
 274:Middlewares/Third_Party/LwIP/src/core/def.c **** int lwip_memcmp_consttime(const void* s1, const void* s2, size_t len)
 275:Middlewares/Third_Party/LwIP/src/core/def.c **** {
 650              		.loc 1 275 1 is_stmt 1 view -0
 651              		.cfi_startproc
 652              		@ args = 0, pretend = 0, frame = 0
 653              		@ frame_needed = 0, uses_anonymous_args = 0
 654              		.loc 1 275 1 is_stmt 0 view .LVU181
 655 0000 10B5     		push	{r4, lr}
 656              	.LCFI5:
 657              		.cfi_def_cfa_offset 8
 658              		.cfi_offset 4, -8
 659              		.cfi_offset 14, -4
 660 0002 0446     		mov	r4, r0
 276:Middlewares/Third_Party/LwIP/src/core/def.c ****   size_t i;
 661              		.loc 1 276 3 is_stmt 1 view .LVU182
 277:Middlewares/Third_Party/LwIP/src/core/def.c ****   const unsigned char* a1 = (const unsigned char*)s1;
 662              		.loc 1 277 3 view .LVU183
 663              	.LVL74:
 278:Middlewares/Third_Party/LwIP/src/core/def.c ****   const unsigned char* a2 = (const unsigned char*)s2;
 664              		.loc 1 278 3 view .LVU184
 279:Middlewares/Third_Party/LwIP/src/core/def.c ****   unsigned char ret = 0;
 665              		.loc 1 279 3 view .LVU185
 280:Middlewares/Third_Party/LwIP/src/core/def.c **** 
 281:Middlewares/Third_Party/LwIP/src/core/def.c ****   for (i = 0; i < len; i++) {
 666              		.loc 1 281 3 view .LVU186
 279:Middlewares/Third_Party/LwIP/src/core/def.c ****   unsigned char ret = 0;
ARM GAS  C:\Users\hh\AppData\Local\Temp\ccQfex2J.s 			page 19


 667              		.loc 1 279 17 is_stmt 0 view .LVU187
 668 0004 0020     		movs	r0, #0
 669              	.LVL75:
 670              		.loc 1 281 10 view .LVU188
 671 0006 0346     		mov	r3, r0
 672              		.loc 1 281 3 view .LVU189
 673 0008 08E0     		b	.L57
 674              	.LVL76:
 675              	.L58:
 282:Middlewares/Third_Party/LwIP/src/core/def.c ****     ret |= a1[i] ^ a2[i];
 676              		.loc 1 282 5 is_stmt 1 view .LVU190
 677              		.loc 1 282 14 is_stmt 0 view .LVU191
 678 000a 14F803C0 		ldrb	ip, [r4, r3]	@ zero_extendqisi2
 679              		.loc 1 282 22 view .LVU192
 680 000e 11F803E0 		ldrb	lr, [r1, r3]	@ zero_extendqisi2
 681              		.loc 1 282 9 view .LVU193
 682 0012 8CEA0E0C 		eor	ip, ip, lr
 683 0016 40EA0C00 		orr	r0, r0, ip
 684              	.LVL77:
 281:Middlewares/Third_Party/LwIP/src/core/def.c ****     ret |= a1[i] ^ a2[i];
 685              		.loc 1 281 25 is_stmt 1 discriminator 3 view .LVU194
 686 001a 0133     		adds	r3, r3, #1
 687              	.LVL78:
 688              	.L57:
 281:Middlewares/Third_Party/LwIP/src/core/def.c ****     ret |= a1[i] ^ a2[i];
 689              		.loc 1 281 17 discriminator 1 view .LVU195
 690 001c 9342     		cmp	r3, r2
 691 001e F4D3     		bcc	.L58
 283:Middlewares/Third_Party/LwIP/src/core/def.c ****   }
 284:Middlewares/Third_Party/LwIP/src/core/def.c ****   return ret;
 692              		.loc 1 284 3 view .LVU196
 285:Middlewares/Third_Party/LwIP/src/core/def.c **** }
 693              		.loc 1 285 1 is_stmt 0 view .LVU197
 694 0020 10BD     		pop	{r4, pc}
 695              		.loc 1 285 1 view .LVU198
 696              		.cfi_endproc
 697              	.LFE179:
 699              		.text
 700              	.Letext0:
 701              		.file 2 "C:/Program Files (x86)/ARM/arm-gnu-toolchain-15.2.rel1-mingw-w64-i686-arm-none-eabi/arm-n
 702              		.file 3 "C:/Program Files (x86)/ARM/arm-gnu-toolchain-15.2.rel1-mingw-w64-i686-arm-none-eabi/arm-n
 703              		.file 4 "C:/Program Files (x86)/ARM/arm-gnu-toolchain-15.2.rel1-mingw-w64-i686-arm-none-eabi/lib/g
 704              		.file 5 "Middlewares/Third_Party/LwIP/src/include/lwip/arch.h"
 705              		.file 6 "C:/Program Files (x86)/ARM/arm-gnu-toolchain-15.2.rel1-mingw-w64-i686-arm-none-eabi/arm-n
ARM GAS  C:\Users\hh\AppData\Local\Temp\ccQfex2J.s 			page 20

