ARM GAS  C:\Users\hh\AppData\Local\Temp\ccCKtegN.s 			page 1


   1              		.cpu cortex-m7
   2              		.arch armv7e-m
   3              		.fpu fpv5-d16
   4              		.eabi_attribute 28, 1
   5              		.eabi_attribute 20, 1
   6              		.eabi_attribute 21, 1
   7              		.eabi_attribute 23, 3
   8              		.eabi_attribute 24, 1
   9              		.eabi_attribute 25, 1
  10              		.eabi_attribute 26, 1
  11              		.eabi_attribute 30, 1
  12              		.eabi_attribute 34, 1
  13              		.eabi_attribute 18, 4
  14              		.file	"ethernetif.c"
  15              		.text
  16              	.Ltext0:
  17              		.cfi_sections	.debug_frame
  18              		.file 1 "LWIP/Target/ethernetif.c"
  19              		.section	.text.low_level_input,"ax",%progbits
  20              		.align	1
  21              		.syntax unified
  22              		.thumb
  23              		.thumb_func
  25              	low_level_input:
  26              	.LVL0:
  27              	.LFB177:
   1:LWIP/Target/ethernetif.c **** /* USER CODE BEGIN Header */
   2:LWIP/Target/ethernetif.c **** /**
   3:LWIP/Target/ethernetif.c ****   ******************************************************************************
   4:LWIP/Target/ethernetif.c ****   * File Name          : ethernetif.c
   5:LWIP/Target/ethernetif.c ****   * Description        : This file provides code for the configuration
   6:LWIP/Target/ethernetif.c ****   *                      of the ethernetif.c MiddleWare.
   7:LWIP/Target/ethernetif.c ****   ******************************************************************************
   8:LWIP/Target/ethernetif.c ****   * @attention
   9:LWIP/Target/ethernetif.c ****   *
  10:LWIP/Target/ethernetif.c ****   * Copyright (c) 2026 STMicroelectronics.
  11:LWIP/Target/ethernetif.c ****   * All rights reserved.
  12:LWIP/Target/ethernetif.c ****   *
  13:LWIP/Target/ethernetif.c ****   * This software is licensed under terms that can be found in the LICENSE file
  14:LWIP/Target/ethernetif.c ****   * in the root directory of this software component.
  15:LWIP/Target/ethernetif.c ****   * If no LICENSE file comes with this software, it is provided AS-IS.
  16:LWIP/Target/ethernetif.c ****   *
  17:LWIP/Target/ethernetif.c ****   ******************************************************************************
  18:LWIP/Target/ethernetif.c ****   */
  19:LWIP/Target/ethernetif.c **** /* USER CODE END Header */
  20:LWIP/Target/ethernetif.c **** 
  21:LWIP/Target/ethernetif.c **** /* Includes ------------------------------------------------------------------*/
  22:LWIP/Target/ethernetif.c **** #include "main.h"
  23:LWIP/Target/ethernetif.c **** #include "lwip/opt.h"
  24:LWIP/Target/ethernetif.c **** #include "lwip/timeouts.h"
  25:LWIP/Target/ethernetif.c **** #include "netif/ethernet.h"
  26:LWIP/Target/ethernetif.c **** #include "netif/etharp.h"
  27:LWIP/Target/ethernetif.c **** #include "lwip/ethip6.h"
  28:LWIP/Target/ethernetif.c **** #include "ethernetif.h"
  29:LWIP/Target/ethernetif.c **** /* USER CODE BEGIN Include for User BSP */
  30:LWIP/Target/ethernetif.c **** #include "bsp_eth.h"
  31:LWIP/Target/ethernetif.c **** #include <stdio.h>
ARM GAS  C:\Users\hh\AppData\Local\Temp\ccCKtegN.s 			page 2


  32:LWIP/Target/ethernetif.c **** 
  33:LWIP/Target/ethernetif.c **** /* USER CODE END Include for User BSP */
  34:LWIP/Target/ethernetif.c **** #include <string.h>
  35:LWIP/Target/ethernetif.c **** #include "cmsis_os.h"
  36:LWIP/Target/ethernetif.c **** #include "lwip/tcpip.h"
  37:LWIP/Target/ethernetif.c **** 
  38:LWIP/Target/ethernetif.c **** /* Within 'USER CODE' section, code will be kept by default at each generation */
  39:LWIP/Target/ethernetif.c **** /* USER CODE BEGIN 0 */
  40:LWIP/Target/ethernetif.c **** 
  41:LWIP/Target/ethernetif.c **** /* USER CODE END 0 */
  42:LWIP/Target/ethernetif.c **** 
  43:LWIP/Target/ethernetif.c **** /* Private define ------------------------------------------------------------*/
  44:LWIP/Target/ethernetif.c **** /* The time to block waiting for input. */
  45:LWIP/Target/ethernetif.c **** #define TIME_WAITING_FOR_INPUT ( osWaitForever )
  46:LWIP/Target/ethernetif.c **** /* Time to block waiting for transmissions to finish */
  47:LWIP/Target/ethernetif.c **** #define ETHIF_TX_TIMEOUT (2000U)
  48:LWIP/Target/ethernetif.c **** /* USER CODE BEGIN OS_THREAD_STACK_SIZE_WITH_RTOS */
  49:LWIP/Target/ethernetif.c **** /* Stack size of the interface thread */
  50:LWIP/Target/ethernetif.c **** #define INTERFACE_THREAD_STACK_SIZE ( 350 )
  51:LWIP/Target/ethernetif.c **** /* USER CODE END OS_THREAD_STACK_SIZE_WITH_RTOS */
  52:LWIP/Target/ethernetif.c **** /* Network interface name */
  53:LWIP/Target/ethernetif.c **** #define IFNAME0 's'
  54:LWIP/Target/ethernetif.c **** #define IFNAME1 't'
  55:LWIP/Target/ethernetif.c **** 
  56:LWIP/Target/ethernetif.c **** /* ETH Setting  */
  57:LWIP/Target/ethernetif.c **** #define ETH_DMA_TRANSMIT_TIMEOUT               ( 20U )
  58:LWIP/Target/ethernetif.c **** #define ETH_TX_BUFFER_MAX             ((ETH_TX_DESC_CNT) * 2U)
  59:LWIP/Target/ethernetif.c **** /* ETH_RX_BUFFER_SIZE parameter is defined in lwipopts.h */
  60:LWIP/Target/ethernetif.c **** 
  61:LWIP/Target/ethernetif.c **** /* USER CODE BEGIN 1 */
  62:LWIP/Target/ethernetif.c **** #define LAN8720_PHY_ADDR_INVALID          0xFFFFFFFFU
  63:LWIP/Target/ethernetif.c **** #define LAN8720_PHY_ADDR_MAX              31U
  64:LWIP/Target/ethernetif.c **** 
  65:LWIP/Target/ethernetif.c **** #define LAN8720_REG_BMCR                  0x00U
  66:LWIP/Target/ethernetif.c **** #define LAN8720_REG_BSR                   0x01U
  67:LWIP/Target/ethernetif.c **** #define LAN8720_REG_PHYID1                0x02U
  68:LWIP/Target/ethernetif.c **** #define LAN8720_REG_SCSR                  0x1FU
  69:LWIP/Target/ethernetif.c **** 
  70:LWIP/Target/ethernetif.c **** #define LAN8720_BMCR_SOFTWARE_RESET       0x8000U
  71:LWIP/Target/ethernetif.c **** #define LAN8720_PHYID1_VALUE              0x0007U
  72:LWIP/Target/ethernetif.c **** #define LAN8720_BSR_LINK_STATUS           0x0004U
  73:LWIP/Target/ethernetif.c **** 
  74:LWIP/Target/ethernetif.c **** #define LAN8720_SCSR_HCDSPEED_MASK        0x001CU
  75:LWIP/Target/ethernetif.c **** #define LAN8720_SCSR_HCDSPEED_10HD        0x0004U
  76:LWIP/Target/ethernetif.c **** #define LAN8720_SCSR_HCDSPEED_100HD       0x0008U
  77:LWIP/Target/ethernetif.c **** #define LAN8720_SCSR_HCDSPEED_10FD        0x0014U
  78:LWIP/Target/ethernetif.c **** #define LAN8720_SCSR_HCDSPEED_100FD       0x0018U
  79:LWIP/Target/ethernetif.c **** 
  80:LWIP/Target/ethernetif.c **** /* USER CODE END 1 */
  81:LWIP/Target/ethernetif.c **** 
  82:LWIP/Target/ethernetif.c **** /* Private variables ---------------------------------------------------------*/
  83:LWIP/Target/ethernetif.c **** /*
  84:LWIP/Target/ethernetif.c **** @Note: This interface is implemented to operate in zero-copy mode only:
  85:LWIP/Target/ethernetif.c ****         - Rx Buffers will be allocated from LwIP stack Rx memory pool,
  86:LWIP/Target/ethernetif.c ****           then passed to ETH HAL driver.
  87:LWIP/Target/ethernetif.c ****         - Tx Buffers will be allocated from LwIP stack memory heap,
  88:LWIP/Target/ethernetif.c ****           then passed to ETH HAL driver.
ARM GAS  C:\Users\hh\AppData\Local\Temp\ccCKtegN.s 			page 3


  89:LWIP/Target/ethernetif.c **** 
  90:LWIP/Target/ethernetif.c **** @Notes:
  91:LWIP/Target/ethernetif.c ****   1.a. ETH DMA Rx descriptors must be contiguous, the default count is 4,
  92:LWIP/Target/ethernetif.c ****        to customize it please redefine ETH_RX_DESC_CNT in ETH GUI (Rx Descriptor Length)
  93:LWIP/Target/ethernetif.c ****        so that updated value will be generated in stm32xxxx_hal_conf.h
  94:LWIP/Target/ethernetif.c ****   1.b. ETH DMA Tx descriptors must be contiguous, the default count is 4,
  95:LWIP/Target/ethernetif.c ****        to customize it please redefine ETH_TX_DESC_CNT in ETH GUI (Tx Descriptor Length)
  96:LWIP/Target/ethernetif.c ****        so that updated value will be generated in stm32xxxx_hal_conf.h
  97:LWIP/Target/ethernetif.c **** 
  98:LWIP/Target/ethernetif.c ****   2.a. Rx Buffers number must be between ETH_RX_DESC_CNT and 2*ETH_RX_DESC_CNT
  99:LWIP/Target/ethernetif.c ****   2.b. Rx Buffers must have the same size: ETH_RX_BUFFER_SIZE, this value must
 100:LWIP/Target/ethernetif.c ****        passed to ETH DMA in the init field (heth.Init.RxBuffLen)
 101:LWIP/Target/ethernetif.c ****   2.c  The RX Ruffers addresses and sizes must be properly defined to be aligned
 102:LWIP/Target/ethernetif.c ****        to L1-CACHE line size (32 bytes).
 103:LWIP/Target/ethernetif.c **** */
 104:LWIP/Target/ethernetif.c **** 
 105:LWIP/Target/ethernetif.c **** /* Data Type Definitions */
 106:LWIP/Target/ethernetif.c **** typedef enum
 107:LWIP/Target/ethernetif.c **** {
 108:LWIP/Target/ethernetif.c ****   RX_ALLOC_OK       = 0x00,
 109:LWIP/Target/ethernetif.c ****   RX_ALLOC_ERROR    = 0x01
 110:LWIP/Target/ethernetif.c **** } RxAllocStatusTypeDef;
 111:LWIP/Target/ethernetif.c **** 
 112:LWIP/Target/ethernetif.c **** typedef struct
 113:LWIP/Target/ethernetif.c **** {
 114:LWIP/Target/ethernetif.c ****   struct pbuf_custom pbuf_custom;
 115:LWIP/Target/ethernetif.c ****   uint8_t buff[(ETH_RX_BUFFER_SIZE + 31) & ~31] __ALIGNED(32);
 116:LWIP/Target/ethernetif.c **** } RxBuff_t;
 117:LWIP/Target/ethernetif.c **** 
 118:LWIP/Target/ethernetif.c **** /* Memory Pool Declaration */
 119:LWIP/Target/ethernetif.c **** #define ETH_RX_BUFFER_CNT             12U
 120:LWIP/Target/ethernetif.c **** LWIP_MEMPOOL_DECLARE(RX_POOL, ETH_RX_BUFFER_CNT, sizeof(RxBuff_t), "Zero-copy RX PBUF pool");
 121:LWIP/Target/ethernetif.c **** 
 122:LWIP/Target/ethernetif.c **** /* Variable Definitions */
 123:LWIP/Target/ethernetif.c **** static uint8_t RxAllocStatus;
 124:LWIP/Target/ethernetif.c **** #if defined ( __ICCARM__ ) /*!< IAR Compiler */
 125:LWIP/Target/ethernetif.c **** 
 126:LWIP/Target/ethernetif.c **** #pragma location=0x30000000
 127:LWIP/Target/ethernetif.c **** ETH_DMADescTypeDef  DMARxDscrTab[ETH_RX_DESC_CNT]; /* Ethernet Rx DMA Descriptors */
 128:LWIP/Target/ethernetif.c **** #pragma location=0x30000080
 129:LWIP/Target/ethernetif.c **** ETH_DMADescTypeDef  DMATxDscrTab[ETH_TX_DESC_CNT]; /* Ethernet Tx DMA Descriptors */
 130:LWIP/Target/ethernetif.c **** 
 131:LWIP/Target/ethernetif.c **** #elif defined ( __CC_ARM )  /* MDK ARM Compiler */
 132:LWIP/Target/ethernetif.c **** 
 133:LWIP/Target/ethernetif.c **** __attribute__((at(0x30000000))) ETH_DMADescTypeDef  DMARxDscrTab[ETH_RX_DESC_CNT]; /* Ethernet Rx D
 134:LWIP/Target/ethernetif.c **** __attribute__((at(0x30000080))) ETH_DMADescTypeDef  DMATxDscrTab[ETH_TX_DESC_CNT]; /* Ethernet Tx D
 135:LWIP/Target/ethernetif.c **** 
 136:LWIP/Target/ethernetif.c **** #elif (defined ( __GNUC__ ) || defined ( __ARMCC_VERSION )) /* GNU Compiler */
 137:LWIP/Target/ethernetif.c **** 
 138:LWIP/Target/ethernetif.c **** ETH_DMADescTypeDef DMARxDscrTab[ETH_RX_DESC_CNT] __attribute__((section(".RxDescripSection"))); /* 
 139:LWIP/Target/ethernetif.c **** ETH_DMADescTypeDef DMATxDscrTab[ETH_TX_DESC_CNT] __attribute__((section(".TxDescripSection")));   /
 140:LWIP/Target/ethernetif.c **** 
 141:LWIP/Target/ethernetif.c **** #endif
 142:LWIP/Target/ethernetif.c **** 
 143:LWIP/Target/ethernetif.c **** #if defined ( __ICCARM__ ) /*!< IAR Compiler */
 144:LWIP/Target/ethernetif.c **** #pragma location = 0x30000100
 145:LWIP/Target/ethernetif.c **** extern u8_t memp_memory_RX_POOL_base[];
ARM GAS  C:\Users\hh\AppData\Local\Temp\ccCKtegN.s 			page 4


 146:LWIP/Target/ethernetif.c **** 
 147:LWIP/Target/ethernetif.c **** #elif defined (__ARMCC_VERSION) /* MDK ARM Compiler */
 148:LWIP/Target/ethernetif.c **** __attribute__((section(".Rx_PoolSection"))) u8_t memp_memory_RX_POOL_base[];
 149:LWIP/Target/ethernetif.c **** 
 150:LWIP/Target/ethernetif.c **** #elif defined ( __GNUC__ ) /* GNU */
 151:LWIP/Target/ethernetif.c **** __attribute__((section(".Rx_PoolSection"))) extern u8_t memp_memory_RX_POOL_base[];
 152:LWIP/Target/ethernetif.c **** #endif
 153:LWIP/Target/ethernetif.c **** 
 154:LWIP/Target/ethernetif.c **** /* USER CODE BEGIN 2 */
 155:LWIP/Target/ethernetif.c **** static uint32_t lan8720PhyAddress = LAN8720_PHY_ADDR_INVALID;
 156:LWIP/Target/ethernetif.c **** static uint8_t lan8720SoftwareResetDone = 0U;
 157:LWIP/Target/ethernetif.c **** 
 158:LWIP/Target/ethernetif.c **** /* USER CODE END 2 */
 159:LWIP/Target/ethernetif.c **** 
 160:LWIP/Target/ethernetif.c **** osSemaphoreId_t RxPktSemaphore = NULL;   /* Semaphore to signal incoming packets */
 161:LWIP/Target/ethernetif.c **** osSemaphoreId_t TxPktSemaphore = NULL;   /* Semaphore to signal transmit packet complete */
 162:LWIP/Target/ethernetif.c **** 
 163:LWIP/Target/ethernetif.c **** /* Global Ethernet handle */
 164:LWIP/Target/ethernetif.c **** ETH_HandleTypeDef heth;
 165:LWIP/Target/ethernetif.c **** 
 166:LWIP/Target/ethernetif.c **** /* Private function prototypes -----------------------------------------------*/
 167:LWIP/Target/ethernetif.c **** 
 168:LWIP/Target/ethernetif.c **** /* USER CODE BEGIN 3 */
 169:LWIP/Target/ethernetif.c **** static HAL_StatusTypeDef LAN8720_ReadReg(uint32_t phyAddress, uint32_t reg, uint32_t *value);
 170:LWIP/Target/ethernetif.c **** static HAL_StatusTypeDef LAN8720_WriteReg(uint32_t phyAddress, uint32_t reg, uint32_t value);
 171:LWIP/Target/ethernetif.c **** static uint32_t LAN8720_FindPhyAddress(void);
 172:LWIP/Target/ethernetif.c **** static HAL_StatusTypeDef LAN8720_SoftwareReset(uint32_t phyAddress);
 173:LWIP/Target/ethernetif.c **** static uint8_t LAN8720_IsLinkUp(uint32_t phyAddress);
 174:LWIP/Target/ethernetif.c **** static void LAN8720_ApplyLinkMode(uint32_t phyAddress);
 175:LWIP/Target/ethernetif.c **** 
 176:LWIP/Target/ethernetif.c **** /* USER CODE END 3 */
 177:LWIP/Target/ethernetif.c **** 
 178:LWIP/Target/ethernetif.c **** /* Private functions ---------------------------------------------------------*/
 179:LWIP/Target/ethernetif.c **** void pbuf_free_custom(struct pbuf *p);
 180:LWIP/Target/ethernetif.c **** 
 181:LWIP/Target/ethernetif.c **** /**
 182:LWIP/Target/ethernetif.c ****   * @brief  Ethernet Rx Transfer completed callback
 183:LWIP/Target/ethernetif.c ****   * @param  handlerEth: ETH handler
 184:LWIP/Target/ethernetif.c ****   * @retval None
 185:LWIP/Target/ethernetif.c ****   */
 186:LWIP/Target/ethernetif.c **** void HAL_ETH_RxCpltCallback(ETH_HandleTypeDef *handlerEth)
 187:LWIP/Target/ethernetif.c **** {
 188:LWIP/Target/ethernetif.c ****   osSemaphoreRelease(RxPktSemaphore);
 189:LWIP/Target/ethernetif.c **** }
 190:LWIP/Target/ethernetif.c **** /**
 191:LWIP/Target/ethernetif.c ****   * @brief  Ethernet Tx Transfer completed callback
 192:LWIP/Target/ethernetif.c ****   * @param  handlerEth: ETH handler
 193:LWIP/Target/ethernetif.c ****   * @retval None
 194:LWIP/Target/ethernetif.c ****   */
 195:LWIP/Target/ethernetif.c **** void HAL_ETH_TxCpltCallback(ETH_HandleTypeDef *handlerEth)
 196:LWIP/Target/ethernetif.c **** {
 197:LWIP/Target/ethernetif.c ****   osSemaphoreRelease(TxPktSemaphore);
 198:LWIP/Target/ethernetif.c **** }
 199:LWIP/Target/ethernetif.c **** /**
 200:LWIP/Target/ethernetif.c ****   * @brief  Ethernet DMA transfer error callback
 201:LWIP/Target/ethernetif.c ****   * @param  handlerEth: ETH handler
 202:LWIP/Target/ethernetif.c ****   * @retval None
ARM GAS  C:\Users\hh\AppData\Local\Temp\ccCKtegN.s 			page 5


 203:LWIP/Target/ethernetif.c ****   */
 204:LWIP/Target/ethernetif.c **** void HAL_ETH_ErrorCallback(ETH_HandleTypeDef *handlerEth)
 205:LWIP/Target/ethernetif.c **** {
 206:LWIP/Target/ethernetif.c ****   if((HAL_ETH_GetDMAError(handlerEth) & ETH_DMACSR_RBU) == ETH_DMACSR_RBU)
 207:LWIP/Target/ethernetif.c ****   {
 208:LWIP/Target/ethernetif.c ****      osSemaphoreRelease(RxPktSemaphore);
 209:LWIP/Target/ethernetif.c ****   }
 210:LWIP/Target/ethernetif.c **** }
 211:LWIP/Target/ethernetif.c **** 
 212:LWIP/Target/ethernetif.c **** /* USER CODE BEGIN 4 */
 213:LWIP/Target/ethernetif.c **** 
 214:LWIP/Target/ethernetif.c **** /* USER CODE END 4 */
 215:LWIP/Target/ethernetif.c **** 
 216:LWIP/Target/ethernetif.c **** /*******************************************************************************
 217:LWIP/Target/ethernetif.c ****                        LL Driver Interface ( LwIP stack --> ETH)
 218:LWIP/Target/ethernetif.c **** *******************************************************************************/
 219:LWIP/Target/ethernetif.c **** /**
 220:LWIP/Target/ethernetif.c ****  * @brief In this function, the hardware should be initialized.
 221:LWIP/Target/ethernetif.c ****  * Called from ethernetif_init().
 222:LWIP/Target/ethernetif.c ****  *
 223:LWIP/Target/ethernetif.c ****  * @param netif the already initialized lwip network interface structure
 224:LWIP/Target/ethernetif.c ****  *        for this ethernetif
 225:LWIP/Target/ethernetif.c ****  */
 226:LWIP/Target/ethernetif.c **** static void low_level_init(struct netif *netif)
 227:LWIP/Target/ethernetif.c **** {
 228:LWIP/Target/ethernetif.c ****   HAL_StatusTypeDef hal_eth_init_status = HAL_OK;
 229:LWIP/Target/ethernetif.c **** /* USER CODE BEGIN OS_THREAD_ATTR_CMSIS_RTOS_V2 */
 230:LWIP/Target/ethernetif.c ****   osThreadAttr_t attributes;
 231:LWIP/Target/ethernetif.c **** /* USER CODE END OS_THREAD_ATTR_CMSIS_RTOS_V2 */
 232:LWIP/Target/ethernetif.c **** /* USER CODE BEGIN low_level_init Variables Initialization for User BSP */
 233:LWIP/Target/ethernetif.c ****   BSP_ETH_PHY_Reset();
 234:LWIP/Target/ethernetif.c **** 
 235:LWIP/Target/ethernetif.c **** /* USER CODE END low_level_init Variables Initialization for User BSP */
 236:LWIP/Target/ethernetif.c ****   /* Start ETH HAL Init */
 237:LWIP/Target/ethernetif.c **** 
 238:LWIP/Target/ethernetif.c ****    uint8_t MACAddr[6] ;
 239:LWIP/Target/ethernetif.c ****   heth.Instance = ETH;
 240:LWIP/Target/ethernetif.c ****   MACAddr[0] = 0x00;
 241:LWIP/Target/ethernetif.c ****   MACAddr[1] = 0x80;
 242:LWIP/Target/ethernetif.c ****   MACAddr[2] = 0xE1;
 243:LWIP/Target/ethernetif.c ****   MACAddr[3] = 0x00;
 244:LWIP/Target/ethernetif.c ****   MACAddr[4] = 0x00;
 245:LWIP/Target/ethernetif.c ****   MACAddr[5] = 0x00;
 246:LWIP/Target/ethernetif.c ****   heth.Init.MACAddr = &MACAddr[0];
 247:LWIP/Target/ethernetif.c ****   heth.Init.MediaInterface = HAL_ETH_RMII_MODE;
 248:LWIP/Target/ethernetif.c ****   heth.Init.TxDesc = DMATxDscrTab;
 249:LWIP/Target/ethernetif.c ****   heth.Init.RxDesc = DMARxDscrTab;
 250:LWIP/Target/ethernetif.c ****   heth.Init.RxBuffLen = 1536;
 251:LWIP/Target/ethernetif.c **** 
 252:LWIP/Target/ethernetif.c ****   /* USER CODE BEGIN MACADDRESS */
 253:LWIP/Target/ethernetif.c **** 
 254:LWIP/Target/ethernetif.c ****   /* USER CODE END MACADDRESS */
 255:LWIP/Target/ethernetif.c **** 
 256:LWIP/Target/ethernetif.c ****   hal_eth_init_status = HAL_ETH_Init(&heth);
 257:LWIP/Target/ethernetif.c **** 
 258:LWIP/Target/ethernetif.c ****   /* End ETH HAL Init */
 259:LWIP/Target/ethernetif.c **** 
ARM GAS  C:\Users\hh\AppData\Local\Temp\ccCKtegN.s 			page 6


 260:LWIP/Target/ethernetif.c ****   /* Initialize the RX POOL */
 261:LWIP/Target/ethernetif.c ****   LWIP_MEMPOOL_INIT(RX_POOL);
 262:LWIP/Target/ethernetif.c **** 
 263:LWIP/Target/ethernetif.c **** #if LWIP_ARP || LWIP_ETHERNET
 264:LWIP/Target/ethernetif.c ****   /* set MAC hardware address length */
 265:LWIP/Target/ethernetif.c ****   netif->hwaddr_len = ETH_HWADDR_LEN;
 266:LWIP/Target/ethernetif.c **** 
 267:LWIP/Target/ethernetif.c ****   /* set MAC hardware address */
 268:LWIP/Target/ethernetif.c ****   netif->hwaddr[0] =  heth.Init.MACAddr[0];
 269:LWIP/Target/ethernetif.c ****   netif->hwaddr[1] =  heth.Init.MACAddr[1];
 270:LWIP/Target/ethernetif.c ****   netif->hwaddr[2] =  heth.Init.MACAddr[2];
 271:LWIP/Target/ethernetif.c ****   netif->hwaddr[3] =  heth.Init.MACAddr[3];
 272:LWIP/Target/ethernetif.c ****   netif->hwaddr[4] =  heth.Init.MACAddr[4];
 273:LWIP/Target/ethernetif.c ****   netif->hwaddr[5] =  heth.Init.MACAddr[5];
 274:LWIP/Target/ethernetif.c **** 
 275:LWIP/Target/ethernetif.c ****   /* maximum transfer unit */
 276:LWIP/Target/ethernetif.c ****   netif->mtu = ETH_MAX_PAYLOAD;
 277:LWIP/Target/ethernetif.c **** 
 278:LWIP/Target/ethernetif.c ****   /* Accept broadcast address and ARP traffic */
 279:LWIP/Target/ethernetif.c ****   /* don't set NETIF_FLAG_ETHARP if this device is not an ethernet one */
 280:LWIP/Target/ethernetif.c ****   #if LWIP_ARP
 281:LWIP/Target/ethernetif.c ****     netif->flags |= NETIF_FLAG_BROADCAST | NETIF_FLAG_ETHARP;
 282:LWIP/Target/ethernetif.c ****   #else
 283:LWIP/Target/ethernetif.c ****     netif->flags |= NETIF_FLAG_BROADCAST;
 284:LWIP/Target/ethernetif.c ****   #endif /* LWIP_ARP */
 285:LWIP/Target/ethernetif.c **** 
 286:LWIP/Target/ethernetif.c ****   /* create a binary semaphore used for informing ethernetif of frame reception */
 287:LWIP/Target/ethernetif.c ****   RxPktSemaphore = osSemaphoreNew(1, 0, NULL);
 288:LWIP/Target/ethernetif.c **** 
 289:LWIP/Target/ethernetif.c ****   /* create a binary semaphore used for informing ethernetif of frame transmission */
 290:LWIP/Target/ethernetif.c ****   TxPktSemaphore = osSemaphoreNew(1, 0, NULL);
 291:LWIP/Target/ethernetif.c **** 
 292:LWIP/Target/ethernetif.c ****   /* create the task that handles the ETH_MAC */
 293:LWIP/Target/ethernetif.c **** /* USER CODE BEGIN OS_THREAD_NEW_CMSIS_RTOS_V2 */
 294:LWIP/Target/ethernetif.c ****   memset(&attributes, 0x0, sizeof(osThreadAttr_t));
 295:LWIP/Target/ethernetif.c ****   attributes.name = "EthIf";
 296:LWIP/Target/ethernetif.c ****   attributes.stack_size = INTERFACE_THREAD_STACK_SIZE;
 297:LWIP/Target/ethernetif.c ****   attributes.priority = osPriorityRealtime;
 298:LWIP/Target/ethernetif.c ****   osThreadNew(ethernetif_input, netif, &attributes);
 299:LWIP/Target/ethernetif.c **** /* USER CODE END OS_THREAD_NEW_CMSIS_RTOS_V2 */
 300:LWIP/Target/ethernetif.c **** 
 301:LWIP/Target/ethernetif.c **** /* USER CODE BEGIN low_level_init Code 1 for User BSP */
 302:LWIP/Target/ethernetif.c **** 
 303:LWIP/Target/ethernetif.c **** /* USER CODE END low_level_init Code 1 for User BSP */
 304:LWIP/Target/ethernetif.c **** 
 305:LWIP/Target/ethernetif.c ****   if (hal_eth_init_status == HAL_OK)
 306:LWIP/Target/ethernetif.c ****   {
 307:LWIP/Target/ethernetif.c **** /* USER CODE BEGIN low_level_init Code 2 for User BSP */
 308:LWIP/Target/ethernetif.c **** 
 309:LWIP/Target/ethernetif.c **** /* USER CODE END low_level_init Code 2 for User BSP */
 310:LWIP/Target/ethernetif.c **** 
 311:LWIP/Target/ethernetif.c ****   }
 312:LWIP/Target/ethernetif.c ****   else
 313:LWIP/Target/ethernetif.c ****   {
 314:LWIP/Target/ethernetif.c ****     Error_Handler();
 315:LWIP/Target/ethernetif.c ****   }
 316:LWIP/Target/ethernetif.c **** #endif /* LWIP_ARP || LWIP_ETHERNET */
ARM GAS  C:\Users\hh\AppData\Local\Temp\ccCKtegN.s 			page 7


 317:LWIP/Target/ethernetif.c **** 
 318:LWIP/Target/ethernetif.c **** /* USER CODE BEGIN LOW_LEVEL_INIT */
 319:LWIP/Target/ethernetif.c **** 
 320:LWIP/Target/ethernetif.c **** /* USER CODE END LOW_LEVEL_INIT */
 321:LWIP/Target/ethernetif.c **** }
 322:LWIP/Target/ethernetif.c **** 
 323:LWIP/Target/ethernetif.c **** /**
 324:LWIP/Target/ethernetif.c ****  * @brief This function should do the actual transmission of the packet. The packet is
 325:LWIP/Target/ethernetif.c ****  * contained in the pbuf that is passed to the function. This pbuf
 326:LWIP/Target/ethernetif.c ****  * might be chained.
 327:LWIP/Target/ethernetif.c ****  *
 328:LWIP/Target/ethernetif.c ****  * @param netif the lwip network interface structure for this ethernetif
 329:LWIP/Target/ethernetif.c ****  * @param p the MAC packet to send (e.g. IP packet including MAC addresses and type)
 330:LWIP/Target/ethernetif.c ****  * @return ERR_OK if the packet could be sent
 331:LWIP/Target/ethernetif.c ****  *         an err_t value if the packet couldn't be sent
 332:LWIP/Target/ethernetif.c ****  *
 333:LWIP/Target/ethernetif.c ****  * @note Returning ERR_MEM here if a DMA queue of your MAC is full can lead to
 334:LWIP/Target/ethernetif.c ****  *       strange results. You might consider waiting for space in the DMA queue
 335:LWIP/Target/ethernetif.c ****  *       to become available since the stack doesn't retry to send a packet
 336:LWIP/Target/ethernetif.c ****  *       dropped because of memory failure (except for the TCP timers).
 337:LWIP/Target/ethernetif.c ****  */
 338:LWIP/Target/ethernetif.c **** 
 339:LWIP/Target/ethernetif.c **** static err_t low_level_output(struct netif *netif, struct pbuf *p)
 340:LWIP/Target/ethernetif.c **** {
 341:LWIP/Target/ethernetif.c ****   uint32_t i = 0U;
 342:LWIP/Target/ethernetif.c ****   struct pbuf *q = NULL;
 343:LWIP/Target/ethernetif.c ****   err_t errval = ERR_OK;
 344:LWIP/Target/ethernetif.c ****   ETH_BufferTypeDef Txbuffer[ETH_TX_DESC_CNT] = {0};
 345:LWIP/Target/ethernetif.c ****   ETH_TxPacketConfig tx_config;
 346:LWIP/Target/ethernetif.c **** 
 347:LWIP/Target/ethernetif.c ****   memset(Txbuffer, 0 , ETH_TX_DESC_CNT*sizeof(ETH_BufferTypeDef));
 348:LWIP/Target/ethernetif.c **** 
 349:LWIP/Target/ethernetif.c ****   /* Set Tx packet config common parameters */
 350:LWIP/Target/ethernetif.c ****   memset(&tx_config, 0 , sizeof(ETH_TxPacketConfig));
 351:LWIP/Target/ethernetif.c ****   tx_config.Attributes = ETH_TX_PACKETS_FEATURES_CSUM | ETH_TX_PACKETS_FEATURES_CRCPAD;
 352:LWIP/Target/ethernetif.c ****   tx_config.ChecksumCtrl = ETH_CHECKSUM_IPHDR_PAYLOAD_INSERT_PHDR_CALC;
 353:LWIP/Target/ethernetif.c ****   tx_config.CRCPadCtrl = ETH_CRC_PAD_INSERT;
 354:LWIP/Target/ethernetif.c **** 
 355:LWIP/Target/ethernetif.c ****   for(q = p; q != NULL; q = q->next)
 356:LWIP/Target/ethernetif.c ****   {
 357:LWIP/Target/ethernetif.c ****     if(i >= ETH_TX_DESC_CNT)
 358:LWIP/Target/ethernetif.c ****       return ERR_IF;
 359:LWIP/Target/ethernetif.c **** 
 360:LWIP/Target/ethernetif.c ****     Txbuffer[i].buffer = q->payload;
 361:LWIP/Target/ethernetif.c ****     Txbuffer[i].len = q->len;
 362:LWIP/Target/ethernetif.c **** 
 363:LWIP/Target/ethernetif.c ****     if(i>0)
 364:LWIP/Target/ethernetif.c ****     {
 365:LWIP/Target/ethernetif.c ****       Txbuffer[i-1].next = &Txbuffer[i];
 366:LWIP/Target/ethernetif.c ****     }
 367:LWIP/Target/ethernetif.c **** 
 368:LWIP/Target/ethernetif.c ****     if(q->next == NULL)
 369:LWIP/Target/ethernetif.c ****     {
 370:LWIP/Target/ethernetif.c ****       Txbuffer[i].next = NULL;
 371:LWIP/Target/ethernetif.c ****     }
 372:LWIP/Target/ethernetif.c **** 
 373:LWIP/Target/ethernetif.c ****     i++;
ARM GAS  C:\Users\hh\AppData\Local\Temp\ccCKtegN.s 			page 8


 374:LWIP/Target/ethernetif.c ****   }
 375:LWIP/Target/ethernetif.c **** 
 376:LWIP/Target/ethernetif.c ****   tx_config.Length = p->tot_len;
 377:LWIP/Target/ethernetif.c ****   tx_config.TxBuffer = Txbuffer;
 378:LWIP/Target/ethernetif.c ****   tx_config.pData = p;
 379:LWIP/Target/ethernetif.c **** 
 380:LWIP/Target/ethernetif.c ****   pbuf_ref(p);
 381:LWIP/Target/ethernetif.c **** 
 382:LWIP/Target/ethernetif.c ****   do
 383:LWIP/Target/ethernetif.c ****   {
 384:LWIP/Target/ethernetif.c ****     if(HAL_ETH_Transmit_IT(&heth, &tx_config) == HAL_OK)
 385:LWIP/Target/ethernetif.c ****     {
 386:LWIP/Target/ethernetif.c ****       errval = ERR_OK;
 387:LWIP/Target/ethernetif.c ****     }
 388:LWIP/Target/ethernetif.c ****     else
 389:LWIP/Target/ethernetif.c ****     {
 390:LWIP/Target/ethernetif.c **** 
 391:LWIP/Target/ethernetif.c ****       if(HAL_ETH_GetError(&heth) & HAL_ETH_ERROR_BUSY)
 392:LWIP/Target/ethernetif.c ****       {
 393:LWIP/Target/ethernetif.c ****         /* Wait for descriptors to become available */
 394:LWIP/Target/ethernetif.c ****         osSemaphoreAcquire(TxPktSemaphore, ETHIF_TX_TIMEOUT);
 395:LWIP/Target/ethernetif.c ****         HAL_ETH_ReleaseTxPacket(&heth);
 396:LWIP/Target/ethernetif.c ****         errval = ERR_BUF;
 397:LWIP/Target/ethernetif.c ****       }
 398:LWIP/Target/ethernetif.c ****       else
 399:LWIP/Target/ethernetif.c ****       {
 400:LWIP/Target/ethernetif.c ****         /* Other error */
 401:LWIP/Target/ethernetif.c ****         pbuf_free(p);
 402:LWIP/Target/ethernetif.c ****         errval =  ERR_IF;
 403:LWIP/Target/ethernetif.c ****       }
 404:LWIP/Target/ethernetif.c ****     }
 405:LWIP/Target/ethernetif.c ****   }while(errval == ERR_BUF);
 406:LWIP/Target/ethernetif.c **** 
 407:LWIP/Target/ethernetif.c ****   return errval;
 408:LWIP/Target/ethernetif.c **** }
 409:LWIP/Target/ethernetif.c **** 
 410:LWIP/Target/ethernetif.c **** /**
 411:LWIP/Target/ethernetif.c ****  * @brief Should allocate a pbuf and transfer the bytes of the incoming
 412:LWIP/Target/ethernetif.c ****  * packet from the interface into the pbuf.
 413:LWIP/Target/ethernetif.c ****  *
 414:LWIP/Target/ethernetif.c ****  * @param netif the lwip network interface structure for this ethernetif
 415:LWIP/Target/ethernetif.c ****  * @return a pbuf filled with the received packet (including MAC header)
 416:LWIP/Target/ethernetif.c ****  *         NULL on memory error
 417:LWIP/Target/ethernetif.c ****    */
 418:LWIP/Target/ethernetif.c **** static struct pbuf * low_level_input(struct netif *netif)
 419:LWIP/Target/ethernetif.c **** {
  28              		.loc 1 419 1 view -0
  29              		.cfi_startproc
  30              		@ args = 0, pretend = 0, frame = 8
  31              		@ frame_needed = 0, uses_anonymous_args = 0
  32              		.loc 1 419 1 is_stmt 0 view .LVU1
  33 0000 00B5     		push	{lr}
  34              	.LCFI0:
  35              		.cfi_def_cfa_offset 4
  36              		.cfi_offset 14, -4
  37 0002 83B0     		sub	sp, sp, #12
  38              	.LCFI1:
ARM GAS  C:\Users\hh\AppData\Local\Temp\ccCKtegN.s 			page 9


  39              		.cfi_def_cfa_offset 16
 420:LWIP/Target/ethernetif.c ****   struct pbuf *p = NULL;
  40              		.loc 1 420 3 is_stmt 1 view .LVU2
  41              		.loc 1 420 16 is_stmt 0 view .LVU3
  42 0004 0023     		movs	r3, #0
  43 0006 0193     		str	r3, [sp, #4]
 421:LWIP/Target/ethernetif.c **** 
 422:LWIP/Target/ethernetif.c ****   if(RxAllocStatus == RX_ALLOC_OK)
  44              		.loc 1 422 3 is_stmt 1 view .LVU4
  45              		.loc 1 422 20 is_stmt 0 view .LVU5
  46 0008 054B     		ldr	r3, .L5
  47 000a 1B78     		ldrb	r3, [r3]	@ zero_extendqisi2
  48              		.loc 1 422 5 view .LVU6
  49 000c 13B1     		cbz	r3, .L4
  50              	.LVL1:
  51              	.L2:
 423:LWIP/Target/ethernetif.c ****   {
 424:LWIP/Target/ethernetif.c ****     HAL_ETH_ReadData(&heth, (void **)&p);
 425:LWIP/Target/ethernetif.c ****   }
 426:LWIP/Target/ethernetif.c **** 
 427:LWIP/Target/ethernetif.c ****   return p;
  52              		.loc 1 427 3 is_stmt 1 view .LVU7
 428:LWIP/Target/ethernetif.c **** }
  53              		.loc 1 428 1 is_stmt 0 view .LVU8
  54 000e 0198     		ldr	r0, [sp, #4]
  55 0010 03B0     		add	sp, sp, #12
  56              	.LCFI2:
  57              		.cfi_remember_state
  58              		.cfi_def_cfa_offset 4
  59              		@ sp needed
  60 0012 00BD     		pop	{pc}
  61              	.LVL2:
  62              	.L4:
  63              	.LCFI3:
  64              		.cfi_restore_state
 424:LWIP/Target/ethernetif.c ****   }
  65              		.loc 1 424 5 is_stmt 1 view .LVU9
  66 0014 01A9     		add	r1, sp, #4
  67 0016 0348     		ldr	r0, .L5+4
  68              	.LVL3:
 424:LWIP/Target/ethernetif.c ****   }
  69              		.loc 1 424 5 is_stmt 0 view .LVU10
  70 0018 FFF7FEFF 		bl	HAL_ETH_ReadData
  71              	.LVL4:
  72 001c F7E7     		b	.L2
  73              	.L6:
  74 001e 00BF     		.align	2
  75              	.L5:
  76 0020 00000000 		.word	RxAllocStatus
  77 0024 00000000 		.word	heth
  78              		.cfi_endproc
  79              	.LFE177:
  81              		.section	.text.ethernetif_input,"ax",%progbits
  82              		.align	1
  83              		.global	ethernetif_input
  84              		.syntax unified
  85              		.thumb
ARM GAS  C:\Users\hh\AppData\Local\Temp\ccCKtegN.s 			page 10


  86              		.thumb_func
  88              	ethernetif_input:
  89              	.LVL5:
  90              	.LFB178:
 429:LWIP/Target/ethernetif.c **** 
 430:LWIP/Target/ethernetif.c **** /**
 431:LWIP/Target/ethernetif.c ****  * @brief This function should be called when a packet is ready to be read
 432:LWIP/Target/ethernetif.c ****  * from the interface. It uses the function low_level_input() that
 433:LWIP/Target/ethernetif.c ****  * should handle the actual reception of bytes from the network
 434:LWIP/Target/ethernetif.c ****  * interface. Then the type of the received packet is determined and
 435:LWIP/Target/ethernetif.c ****  * the appropriate input function is called.
 436:LWIP/Target/ethernetif.c ****  *
 437:LWIP/Target/ethernetif.c ****  * @param netif the lwip network interface structure for this ethernetif
 438:LWIP/Target/ethernetif.c ****  */
 439:LWIP/Target/ethernetif.c **** void ethernetif_input(void* argument)
 440:LWIP/Target/ethernetif.c **** {
  91              		.loc 1 440 1 is_stmt 1 view -0
  92              		.cfi_startproc
  93              		@ args = 0, pretend = 0, frame = 0
  94              		@ frame_needed = 0, uses_anonymous_args = 0
  95              		.loc 1 440 1 is_stmt 0 view .LVU12
  96 0000 38B5     		push	{r3, r4, r5, lr}
  97              	.LCFI4:
  98              		.cfi_def_cfa_offset 16
  99              		.cfi_offset 3, -16
 100              		.cfi_offset 4, -12
 101              		.cfi_offset 5, -8
 102              		.cfi_offset 14, -4
 103 0002 0546     		mov	r5, r0
 441:LWIP/Target/ethernetif.c ****   struct pbuf *p = NULL;
 104              		.loc 1 441 3 is_stmt 1 view .LVU13
 105              	.LVL6:
 442:LWIP/Target/ethernetif.c ****   struct netif *netif = (struct netif *) argument;
 106              		.loc 1 442 3 view .LVU14
 107              	.L8:
 443:LWIP/Target/ethernetif.c **** 
 444:LWIP/Target/ethernetif.c ****   for( ;; )
 108              		.loc 1 444 3 view .LVU15
 445:LWIP/Target/ethernetif.c ****   {
 446:LWIP/Target/ethernetif.c ****     if (osSemaphoreAcquire(RxPktSemaphore, TIME_WAITING_FOR_INPUT) == osOK)
 109              		.loc 1 446 5 view .LVU16
 110              		.loc 1 446 9 is_stmt 0 view .LVU17
 111 0004 4FF0FF31 		mov	r1, #-1
 112 0008 0B4B     		ldr	r3, .L13
 113 000a 1868     		ldr	r0, [r3]
 114 000c FFF7FEFF 		bl	osSemaphoreAcquire
 115              	.LVL7:
 116              		.loc 1 446 8 discriminator 1 view .LVU18
 117 0010 0028     		cmp	r0, #0
 118 0012 F7D1     		bne	.L8
 119 0014 01E0     		b	.L10
 120              	.LVL8:
 121              	.L9:
 447:LWIP/Target/ethernetif.c ****     {
 448:LWIP/Target/ethernetif.c ****       do
 449:LWIP/Target/ethernetif.c ****       {
 450:LWIP/Target/ethernetif.c ****         p = low_level_input( netif );
ARM GAS  C:\Users\hh\AppData\Local\Temp\ccCKtegN.s 			page 11


 451:LWIP/Target/ethernetif.c ****         if (p != NULL)
 452:LWIP/Target/ethernetif.c ****         {
 453:LWIP/Target/ethernetif.c ****           if (netif->input( p, netif) != ERR_OK )
 454:LWIP/Target/ethernetif.c ****           {
 455:LWIP/Target/ethernetif.c ****             pbuf_free(p);
 456:LWIP/Target/ethernetif.c ****           }
 457:LWIP/Target/ethernetif.c ****         }
 458:LWIP/Target/ethernetif.c ****       } while(p!=NULL);
 122              		.loc 1 458 16 is_stmt 1 view .LVU19
 123 0016 002C     		cmp	r4, #0
 124 0018 F4D0     		beq	.L8
 125              	.LVL9:
 126              	.L10:
 448:LWIP/Target/ethernetif.c ****       {
 127              		.loc 1 448 7 view .LVU20
 450:LWIP/Target/ethernetif.c ****         if (p != NULL)
 128              		.loc 1 450 9 view .LVU21
 450:LWIP/Target/ethernetif.c ****         if (p != NULL)
 129              		.loc 1 450 13 is_stmt 0 view .LVU22
 130 001a 2846     		mov	r0, r5
 131 001c FFF7FEFF 		bl	low_level_input
 132              	.LVL10:
 451:LWIP/Target/ethernetif.c ****         {
 133              		.loc 1 451 9 is_stmt 1 view .LVU23
 451:LWIP/Target/ethernetif.c ****         {
 134              		.loc 1 451 12 is_stmt 0 view .LVU24
 135 0020 0446     		mov	r4, r0
 136 0022 0028     		cmp	r0, #0
 137 0024 F7D0     		beq	.L9
 453:LWIP/Target/ethernetif.c ****           {
 138              		.loc 1 453 11 is_stmt 1 view .LVU25
 453:LWIP/Target/ethernetif.c ****           {
 139              		.loc 1 453 20 is_stmt 0 view .LVU26
 140 0026 2B69     		ldr	r3, [r5, #16]
 453:LWIP/Target/ethernetif.c ****           {
 141              		.loc 1 453 15 view .LVU27
 142 0028 2946     		mov	r1, r5
 143 002a 9847     		blx	r3
 144              	.LVL11:
 453:LWIP/Target/ethernetif.c ****           {
 145              		.loc 1 453 14 discriminator 1 view .LVU28
 146 002c 0028     		cmp	r0, #0
 147 002e F2D0     		beq	.L9
 455:LWIP/Target/ethernetif.c ****           }
 148              		.loc 1 455 13 is_stmt 1 view .LVU29
 149 0030 2046     		mov	r0, r4
 150 0032 FFF7FEFF 		bl	pbuf_free
 151              	.LVL12:
 152 0036 EEE7     		b	.L9
 153              	.L14:
 154              		.align	2
 155              	.L13:
 156 0038 00000000 		.word	RxPktSemaphore
 157              		.cfi_endproc
 158              	.LFE178:
 160              		.section	.text.low_level_output,"ax",%progbits
 161              		.align	1
ARM GAS  C:\Users\hh\AppData\Local\Temp\ccCKtegN.s 			page 12


 162              		.syntax unified
 163              		.thumb
 164              		.thumb_func
 166              	low_level_output:
 167              	.LVL13:
 168              	.LFB176:
 340:LWIP/Target/ethernetif.c ****   uint32_t i = 0U;
 169              		.loc 1 340 1 view -0
 170              		.cfi_startproc
 171              		@ args = 0, pretend = 0, frame = 104
 172              		@ frame_needed = 0, uses_anonymous_args = 0
 340:LWIP/Target/ethernetif.c ****   uint32_t i = 0U;
 173              		.loc 1 340 1 is_stmt 0 view .LVU31
 174 0000 70B5     		push	{r4, r5, r6, lr}
 175              	.LCFI5:
 176              		.cfi_def_cfa_offset 16
 177              		.cfi_offset 4, -16
 178              		.cfi_offset 5, -12
 179              		.cfi_offset 6, -8
 180              		.cfi_offset 14, -4
 181 0002 9AB0     		sub	sp, sp, #104
 182              	.LCFI6:
 183              		.cfi_def_cfa_offset 120
 184 0004 0E46     		mov	r6, r1
 341:LWIP/Target/ethernetif.c ****   struct pbuf *q = NULL;
 185              		.loc 1 341 3 is_stmt 1 view .LVU32
 186              	.LVL14:
 342:LWIP/Target/ethernetif.c ****   err_t errval = ERR_OK;
 187              		.loc 1 342 3 view .LVU33
 343:LWIP/Target/ethernetif.c ****   ETH_BufferTypeDef Txbuffer[ETH_TX_DESC_CNT] = {0};
 188              		.loc 1 343 3 view .LVU34
 344:LWIP/Target/ethernetif.c ****   ETH_TxPacketConfig tx_config;
 189              		.loc 1 344 3 view .LVU35
 344:LWIP/Target/ethernetif.c ****   ETH_TxPacketConfig tx_config;
 190              		.loc 1 344 21 is_stmt 0 view .LVU36
 191 0006 0EAC     		add	r4, sp, #56
 192 0008 3025     		movs	r5, #48
 193 000a 2A46     		mov	r2, r5
 194 000c 0021     		movs	r1, #0
 195              	.LVL15:
 344:LWIP/Target/ethernetif.c ****   ETH_TxPacketConfig tx_config;
 196              		.loc 1 344 21 view .LVU37
 197 000e 2046     		mov	r0, r4
 198              	.LVL16:
 344:LWIP/Target/ethernetif.c ****   ETH_TxPacketConfig tx_config;
 199              		.loc 1 344 21 view .LVU38
 200 0010 FFF7FEFF 		bl	memset
 201              	.LVL17:
 345:LWIP/Target/ethernetif.c **** 
 202              		.loc 1 345 3 is_stmt 1 view .LVU39
 347:LWIP/Target/ethernetif.c **** 
 203              		.loc 1 347 3 view .LVU40
 204 0014 2A46     		mov	r2, r5
 205 0016 0021     		movs	r1, #0
 206 0018 2046     		mov	r0, r4
 207 001a FFF7FEFF 		bl	memset
 208              	.LVL18:
ARM GAS  C:\Users\hh\AppData\Local\Temp\ccCKtegN.s 			page 13


 350:LWIP/Target/ethernetif.c ****   tx_config.Attributes = ETH_TX_PACKETS_FEATURES_CSUM | ETH_TX_PACKETS_FEATURES_CRCPAD;
 209              		.loc 1 350 3 view .LVU41
 210 001e 3822     		movs	r2, #56
 211 0020 0021     		movs	r1, #0
 212 0022 6846     		mov	r0, sp
 213 0024 FFF7FEFF 		bl	memset
 214              	.LVL19:
 351:LWIP/Target/ethernetif.c ****   tx_config.ChecksumCtrl = ETH_CHECKSUM_IPHDR_PAYLOAD_INSERT_PHDR_CALC;
 215              		.loc 1 351 3 view .LVU42
 351:LWIP/Target/ethernetif.c ****   tx_config.ChecksumCtrl = ETH_CHECKSUM_IPHDR_PAYLOAD_INSERT_PHDR_CALC;
 216              		.loc 1 351 24 is_stmt 0 view .LVU43
 217 0028 2123     		movs	r3, #33
 218 002a 0093     		str	r3, [sp]
 352:LWIP/Target/ethernetif.c ****   tx_config.CRCPadCtrl = ETH_CRC_PAD_INSERT;
 219              		.loc 1 352 3 is_stmt 1 view .LVU44
 352:LWIP/Target/ethernetif.c ****   tx_config.CRCPadCtrl = ETH_CRC_PAD_INSERT;
 220              		.loc 1 352 26 is_stmt 0 view .LVU45
 221 002c 4FF44033 		mov	r3, #196608
 222 0030 0593     		str	r3, [sp, #20]
 353:LWIP/Target/ethernetif.c **** 
 223              		.loc 1 353 3 is_stmt 1 view .LVU46
 355:LWIP/Target/ethernetif.c ****   {
 224              		.loc 1 355 3 view .LVU47
 225              	.LVL20:
 355:LWIP/Target/ethernetif.c ****   {
 226              		.loc 1 355 9 is_stmt 0 view .LVU48
 227 0032 3246     		mov	r2, r6
 341:LWIP/Target/ethernetif.c ****   struct pbuf *q = NULL;
 228              		.loc 1 341 12 view .LVU49
 229 0034 0023     		movs	r3, #0
 355:LWIP/Target/ethernetif.c ****   {
 230              		.loc 1 355 3 view .LVU50
 231 0036 03E0     		b	.L16
 232              	.LVL21:
 233              	.L18:
 368:LWIP/Target/ethernetif.c ****     {
 234              		.loc 1 368 5 is_stmt 1 view .LVU51
 368:LWIP/Target/ethernetif.c ****     {
 235              		.loc 1 368 9 is_stmt 0 view .LVU52
 236 0038 1168     		ldr	r1, [r2]
 368:LWIP/Target/ethernetif.c ****     {
 237              		.loc 1 368 7 view .LVU53
 238 003a 01B3     		cbz	r1, .L27
 239              	.L19:
 373:LWIP/Target/ethernetif.c ****   }
 240              		.loc 1 373 5 is_stmt 1 view .LVU54
 373:LWIP/Target/ethernetif.c ****   }
 241              		.loc 1 373 6 is_stmt 0 view .LVU55
 242 003c 0133     		adds	r3, r3, #1
 243              	.LVL22:
 355:LWIP/Target/ethernetif.c ****   {
 244              		.loc 1 355 27 is_stmt 1 discriminator 2 view .LVU56
 245 003e 1268     		ldr	r2, [r2]
 246              	.LVL23:
 247              	.L16:
 355:LWIP/Target/ethernetif.c ****   {
 248              		.loc 1 355 16 discriminator 1 view .LVU57
ARM GAS  C:\Users\hh\AppData\Local\Temp\ccCKtegN.s 			page 14


 249 0040 32B3     		cbz	r2, .L28
 357:LWIP/Target/ethernetif.c ****       return ERR_IF;
 250              		.loc 1 357 5 view .LVU58
 357:LWIP/Target/ethernetif.c ****       return ERR_IF;
 251              		.loc 1 357 7 is_stmt 0 view .LVU59
 252 0042 032B     		cmp	r3, #3
 253 0044 4DD8     		bhi	.L24
 360:LWIP/Target/ethernetif.c ****     Txbuffer[i].len = q->len;
 254              		.loc 1 360 5 is_stmt 1 view .LVU60
 360:LWIP/Target/ethernetif.c ****     Txbuffer[i].len = q->len;
 255              		.loc 1 360 27 is_stmt 0 view .LVU61
 256 0046 5168     		ldr	r1, [r2, #4]
 360:LWIP/Target/ethernetif.c ****     Txbuffer[i].len = q->len;
 257              		.loc 1 360 24 view .LVU62
 258 0048 03EB430C 		add	ip, r3, r3, lsl #1
 259 004c 1AA8     		add	r0, sp, #104
 260 004e 00EB8C0C 		add	ip, r0, ip, lsl #2
 261 0052 4CF8301C 		str	r1, [ip, #-48]
 361:LWIP/Target/ethernetif.c **** 
 262              		.loc 1 361 5 is_stmt 1 view .LVU63
 361:LWIP/Target/ethernetif.c **** 
 263              		.loc 1 361 24 is_stmt 0 view .LVU64
 264 0056 5189     		ldrh	r1, [r2, #10]
 361:LWIP/Target/ethernetif.c **** 
 265              		.loc 1 361 21 view .LVU65
 266 0058 4CF82C1C 		str	r1, [ip, #-44]
 363:LWIP/Target/ethernetif.c ****     {
 267              		.loc 1 363 5 is_stmt 1 view .LVU66
 363:LWIP/Target/ethernetif.c ****     {
 268              		.loc 1 363 7 is_stmt 0 view .LVU67
 269 005c 002B     		cmp	r3, #0
 270 005e EBD0     		beq	.L18
 365:LWIP/Target/ethernetif.c ****     }
 271              		.loc 1 365 7 is_stmt 1 view .LVU68
 365:LWIP/Target/ethernetif.c ****     }
 272              		.loc 1 365 17 is_stmt 0 view .LVU69
 273 0060 03F1FF3C 		add	ip, r3, #-1
 365:LWIP/Target/ethernetif.c ****     }
 274              		.loc 1 365 28 view .LVU70
 275 0064 03EB4300 		add	r0, r3, r3, lsl #1
 276 0068 0EA9     		add	r1, sp, #56
 277 006a 01EB8001 		add	r1, r1, r0, lsl #2
 365:LWIP/Target/ethernetif.c ****     }
 278              		.loc 1 365 26 view .LVU71
 279 006e 0CEB4C0C 		add	ip, ip, ip, lsl #1
 280 0072 1AA8     		add	r0, sp, #104
 281 0074 00EB8C0C 		add	ip, r0, ip, lsl #2
 282 0078 4CF8281C 		str	r1, [ip, #-40]
 283 007c DCE7     		b	.L18
 284              	.L27:
 370:LWIP/Target/ethernetif.c ****     }
 285              		.loc 1 370 7 is_stmt 1 view .LVU72
 370:LWIP/Target/ethernetif.c ****     }
 286              		.loc 1 370 24 is_stmt 0 view .LVU73
 287 007e 03EB4301 		add	r1, r3, r3, lsl #1
 288 0082 1AA8     		add	r0, sp, #104
 289 0084 00EB8101 		add	r1, r0, r1, lsl #2
ARM GAS  C:\Users\hh\AppData\Local\Temp\ccCKtegN.s 			page 15


 290 0088 0020     		movs	r0, #0
 291 008a 41F8280C 		str	r0, [r1, #-40]
 292 008e D5E7     		b	.L19
 293              	.L28:
 376:LWIP/Target/ethernetif.c ****   tx_config.TxBuffer = Txbuffer;
 294              		.loc 1 376 3 is_stmt 1 view .LVU74
 376:LWIP/Target/ethernetif.c ****   tx_config.TxBuffer = Txbuffer;
 295              		.loc 1 376 23 is_stmt 0 view .LVU75
 296 0090 3389     		ldrh	r3, [r6, #8]
 297              	.LVL24:
 376:LWIP/Target/ethernetif.c ****   tx_config.TxBuffer = Txbuffer;
 298              		.loc 1 376 20 view .LVU76
 299 0092 0193     		str	r3, [sp, #4]
 377:LWIP/Target/ethernetif.c ****   tx_config.pData = p;
 300              		.loc 1 377 3 is_stmt 1 view .LVU77
 377:LWIP/Target/ethernetif.c ****   tx_config.pData = p;
 301              		.loc 1 377 22 is_stmt 0 view .LVU78
 302 0094 0EAB     		add	r3, sp, #56
 303 0096 0293     		str	r3, [sp, #8]
 378:LWIP/Target/ethernetif.c **** 
 304              		.loc 1 378 3 is_stmt 1 view .LVU79
 378:LWIP/Target/ethernetif.c **** 
 305              		.loc 1 378 19 is_stmt 0 view .LVU80
 306 0098 0D96     		str	r6, [sp, #52]
 380:LWIP/Target/ethernetif.c **** 
 307              		.loc 1 380 3 is_stmt 1 view .LVU81
 308 009a 3046     		mov	r0, r6
 309 009c FFF7FEFF 		bl	pbuf_ref
 310              	.LVL25:
 380:LWIP/Target/ethernetif.c **** 
 311              		.loc 1 380 3 is_stmt 0 view .LVU82
 312 00a0 07E0     		b	.L23
 313              	.LVL26:
 314              	.L22:
 401:LWIP/Target/ethernetif.c ****         errval =  ERR_IF;
 315              		.loc 1 401 9 is_stmt 1 view .LVU83
 316 00a2 3046     		mov	r0, r6
 317 00a4 FFF7FEFF 		bl	pbuf_free
 318              	.LVL27:
 402:LWIP/Target/ethernetif.c ****       }
 319              		.loc 1 402 9 view .LVU84
 402:LWIP/Target/ethernetif.c ****       }
 320              		.loc 1 402 16 is_stmt 0 view .LVU85
 321 00a8 6FF00B00 		mvn	r0, #11
 322              	.LVL28:
 323              	.L21:
 405:LWIP/Target/ethernetif.c **** 
 324              		.loc 1 405 17 is_stmt 1 view .LVU86
 325 00ac 10F1020F 		cmn	r0, #2
 326 00b0 19D1     		bne	.L17
 327              	.LVL29:
 328              	.L23:
 382:LWIP/Target/ethernetif.c ****   {
 329              		.loc 1 382 3 view .LVU87
 384:LWIP/Target/ethernetif.c ****     {
 330              		.loc 1 384 5 view .LVU88
 384:LWIP/Target/ethernetif.c ****     {
ARM GAS  C:\Users\hh\AppData\Local\Temp\ccCKtegN.s 			page 16


 331              		.loc 1 384 8 is_stmt 0 view .LVU89
 332 00b2 6946     		mov	r1, sp
 333 00b4 0D48     		ldr	r0, .L29
 334 00b6 FFF7FEFF 		bl	HAL_ETH_Transmit_IT
 335              	.LVL30:
 384:LWIP/Target/ethernetif.c ****     {
 336              		.loc 1 384 7 discriminator 1 view .LVU90
 337 00ba 0028     		cmp	r0, #0
 338 00bc F6D0     		beq	.L21
 391:LWIP/Target/ethernetif.c ****       {
 339              		.loc 1 391 7 is_stmt 1 view .LVU91
 391:LWIP/Target/ethernetif.c ****       {
 340              		.loc 1 391 10 is_stmt 0 view .LVU92
 341 00be 0B48     		ldr	r0, .L29
 342 00c0 FFF7FEFF 		bl	HAL_ETH_GetError
 343              	.LVL31:
 391:LWIP/Target/ethernetif.c ****       {
 344              		.loc 1 391 9 discriminator 1 view .LVU93
 345 00c4 10F0020F 		tst	r0, #2
 346 00c8 EBD0     		beq	.L22
 394:LWIP/Target/ethernetif.c ****         HAL_ETH_ReleaseTxPacket(&heth);
 347              		.loc 1 394 9 is_stmt 1 view .LVU94
 348 00ca 4FF4FA61 		mov	r1, #2000
 349 00ce 084B     		ldr	r3, .L29+4
 350 00d0 1868     		ldr	r0, [r3]
 351 00d2 FFF7FEFF 		bl	osSemaphoreAcquire
 352              	.LVL32:
 395:LWIP/Target/ethernetif.c ****         errval = ERR_BUF;
 353              		.loc 1 395 9 view .LVU95
 354 00d6 0548     		ldr	r0, .L29
 355 00d8 FFF7FEFF 		bl	HAL_ETH_ReleaseTxPacket
 356              	.LVL33:
 396:LWIP/Target/ethernetif.c ****       }
 357              		.loc 1 396 9 view .LVU96
 396:LWIP/Target/ethernetif.c ****       }
 358              		.loc 1 396 16 is_stmt 0 view .LVU97
 359 00dc 6FF00100 		mvn	r0, #1
 360 00e0 E4E7     		b	.L21
 361              	.LVL34:
 362              	.L24:
 358:LWIP/Target/ethernetif.c **** 
 363              		.loc 1 358 14 view .LVU98
 364 00e2 6FF00B00 		mvn	r0, #11
 365              	.LVL35:
 366              	.L17:
 408:LWIP/Target/ethernetif.c **** 
 367              		.loc 1 408 1 view .LVU99
 368 00e6 1AB0     		add	sp, sp, #104
 369              	.LCFI7:
 370              		.cfi_def_cfa_offset 16
 371              		@ sp needed
 372 00e8 70BD     		pop	{r4, r5, r6, pc}
 373              	.LVL36:
 374              	.L30:
 408:LWIP/Target/ethernetif.c **** 
 375              		.loc 1 408 1 view .LVU100
 376 00ea 00BF     		.align	2
ARM GAS  C:\Users\hh\AppData\Local\Temp\ccCKtegN.s 			page 17


 377              	.L29:
 378 00ec 00000000 		.word	heth
 379 00f0 00000000 		.word	TxPktSemaphore
 380              		.cfi_endproc
 381              	.LFE176:
 383              		.section	.rodata.low_level_init.str1.4,"aMS",%progbits,1
 384              		.align	2
 385              	.LC0:
 386 0000 45746849 		.ascii	"EthIf\000"
 386      6600
 387              		.section	.text.low_level_init,"ax",%progbits
 388              		.align	1
 389              		.syntax unified
 390              		.thumb
 391              		.thumb_func
 393              	low_level_init:
 394              	.LVL37:
 395              	.LFB175:
 227:LWIP/Target/ethernetif.c ****   HAL_StatusTypeDef hal_eth_init_status = HAL_OK;
 396              		.loc 1 227 1 is_stmt 1 view -0
 397              		.cfi_startproc
 398              		@ args = 0, pretend = 0, frame = 48
 399              		@ frame_needed = 0, uses_anonymous_args = 0
 227:LWIP/Target/ethernetif.c ****   HAL_StatusTypeDef hal_eth_init_status = HAL_OK;
 400              		.loc 1 227 1 is_stmt 0 view .LVU102
 401 0000 2DE9F041 		push	{r4, r5, r6, r7, r8, lr}
 402              	.LCFI8:
 403              		.cfi_def_cfa_offset 24
 404              		.cfi_offset 4, -24
 405              		.cfi_offset 5, -20
 406              		.cfi_offset 6, -16
 407              		.cfi_offset 7, -12
 408              		.cfi_offset 8, -8
 409              		.cfi_offset 14, -4
 410 0004 8CB0     		sub	sp, sp, #48
 411              	.LCFI9:
 412              		.cfi_def_cfa_offset 72
 413 0006 0446     		mov	r4, r0
 228:LWIP/Target/ethernetif.c **** /* USER CODE BEGIN OS_THREAD_ATTR_CMSIS_RTOS_V2 */
 414              		.loc 1 228 3 is_stmt 1 view .LVU103
 415              	.LVL38:
 230:LWIP/Target/ethernetif.c **** /* USER CODE END OS_THREAD_ATTR_CMSIS_RTOS_V2 */
 416              		.loc 1 230 3 view .LVU104
 233:LWIP/Target/ethernetif.c **** 
 417              		.loc 1 233 3 view .LVU105
 418 0008 FFF7FEFF 		bl	BSP_ETH_PHY_Reset
 419              	.LVL39:
 238:LWIP/Target/ethernetif.c ****   heth.Instance = ETH;
 420              		.loc 1 238 4 view .LVU106
 239:LWIP/Target/ethernetif.c ****   MACAddr[0] = 0x00;
 421              		.loc 1 239 3 view .LVU107
 239:LWIP/Target/ethernetif.c ****   MACAddr[0] = 0x00;
 422              		.loc 1 239 17 is_stmt 0 view .LVU108
 423 000c 354E     		ldr	r6, .L35
 424 000e 364B     		ldr	r3, .L35+4
 425 0010 3360     		str	r3, [r6]
 240:LWIP/Target/ethernetif.c ****   MACAddr[1] = 0x80;
ARM GAS  C:\Users\hh\AppData\Local\Temp\ccCKtegN.s 			page 18


 426              		.loc 1 240 3 is_stmt 1 view .LVU109
 240:LWIP/Target/ethernetif.c ****   MACAddr[1] = 0x80;
 427              		.loc 1 240 14 is_stmt 0 view .LVU110
 428 0012 0025     		movs	r5, #0
 429 0014 8DF80450 		strb	r5, [sp, #4]
 241:LWIP/Target/ethernetif.c ****   MACAddr[2] = 0xE1;
 430              		.loc 1 241 3 is_stmt 1 view .LVU111
 241:LWIP/Target/ethernetif.c ****   MACAddr[2] = 0xE1;
 431              		.loc 1 241 14 is_stmt 0 view .LVU112
 432 0018 8023     		movs	r3, #128
 433 001a 8DF80530 		strb	r3, [sp, #5]
 242:LWIP/Target/ethernetif.c ****   MACAddr[3] = 0x00;
 434              		.loc 1 242 3 is_stmt 1 view .LVU113
 242:LWIP/Target/ethernetif.c ****   MACAddr[3] = 0x00;
 435              		.loc 1 242 14 is_stmt 0 view .LVU114
 436 001e E123     		movs	r3, #225
 437 0020 8DF80630 		strb	r3, [sp, #6]
 243:LWIP/Target/ethernetif.c ****   MACAddr[4] = 0x00;
 438              		.loc 1 243 3 is_stmt 1 view .LVU115
 243:LWIP/Target/ethernetif.c ****   MACAddr[4] = 0x00;
 439              		.loc 1 243 14 is_stmt 0 view .LVU116
 440 0024 8DF80750 		strb	r5, [sp, #7]
 244:LWIP/Target/ethernetif.c ****   MACAddr[5] = 0x00;
 441              		.loc 1 244 3 is_stmt 1 view .LVU117
 244:LWIP/Target/ethernetif.c ****   MACAddr[5] = 0x00;
 442              		.loc 1 244 14 is_stmt 0 view .LVU118
 443 0028 8DF80850 		strb	r5, [sp, #8]
 245:LWIP/Target/ethernetif.c ****   heth.Init.MACAddr = &MACAddr[0];
 444              		.loc 1 245 3 is_stmt 1 view .LVU119
 245:LWIP/Target/ethernetif.c ****   heth.Init.MACAddr = &MACAddr[0];
 445              		.loc 1 245 14 is_stmt 0 view .LVU120
 446 002c 8DF80950 		strb	r5, [sp, #9]
 246:LWIP/Target/ethernetif.c ****   heth.Init.MediaInterface = HAL_ETH_RMII_MODE;
 447              		.loc 1 246 3 is_stmt 1 view .LVU121
 246:LWIP/Target/ethernetif.c ****   heth.Init.MediaInterface = HAL_ETH_RMII_MODE;
 448              		.loc 1 246 21 is_stmt 0 view .LVU122
 449 0030 01AB     		add	r3, sp, #4
 450 0032 7360     		str	r3, [r6, #4]
 247:LWIP/Target/ethernetif.c ****   heth.Init.TxDesc = DMATxDscrTab;
 451              		.loc 1 247 3 is_stmt 1 view .LVU123
 247:LWIP/Target/ethernetif.c ****   heth.Init.TxDesc = DMATxDscrTab;
 452              		.loc 1 247 28 is_stmt 0 view .LVU124
 453 0034 0127     		movs	r7, #1
 454 0036 3772     		strb	r7, [r6, #8]
 248:LWIP/Target/ethernetif.c ****   heth.Init.RxDesc = DMARxDscrTab;
 455              		.loc 1 248 3 is_stmt 1 view .LVU125
 248:LWIP/Target/ethernetif.c ****   heth.Init.RxDesc = DMARxDscrTab;
 456              		.loc 1 248 20 is_stmt 0 view .LVU126
 457 0038 2C4B     		ldr	r3, .L35+8
 458 003a F360     		str	r3, [r6, #12]
 249:LWIP/Target/ethernetif.c ****   heth.Init.RxBuffLen = 1536;
 459              		.loc 1 249 3 is_stmt 1 view .LVU127
 249:LWIP/Target/ethernetif.c ****   heth.Init.RxBuffLen = 1536;
 460              		.loc 1 249 20 is_stmt 0 view .LVU128
 461 003c 2C4B     		ldr	r3, .L35+12
 462 003e 3361     		str	r3, [r6, #16]
 250:LWIP/Target/ethernetif.c **** 
ARM GAS  C:\Users\hh\AppData\Local\Temp\ccCKtegN.s 			page 19


 463              		.loc 1 250 3 is_stmt 1 view .LVU129
 250:LWIP/Target/ethernetif.c **** 
 464              		.loc 1 250 23 is_stmt 0 view .LVU130
 465 0040 4FF4C063 		mov	r3, #1536
 466 0044 7361     		str	r3, [r6, #20]
 256:LWIP/Target/ethernetif.c **** 
 467              		.loc 1 256 3 is_stmt 1 view .LVU131
 256:LWIP/Target/ethernetif.c **** 
 468              		.loc 1 256 25 is_stmt 0 view .LVU132
 469 0046 3046     		mov	r0, r6
 470 0048 FFF7FEFF 		bl	HAL_ETH_Init
 471              	.LVL40:
 472 004c 8046     		mov	r8, r0
 473              	.LVL41:
 261:LWIP/Target/ethernetif.c **** 
 474              		.loc 1 261 3 is_stmt 1 view .LVU133
 475 004e 2948     		ldr	r0, .L35+16
 476 0050 FFF7FEFF 		bl	memp_init_pool
 477              	.LVL42:
 265:LWIP/Target/ethernetif.c **** 
 478              		.loc 1 265 3 view .LVU134
 265:LWIP/Target/ethernetif.c **** 
 479              		.loc 1 265 21 is_stmt 0 view .LVU135
 480 0054 0623     		movs	r3, #6
 481 0056 84F82C30 		strb	r3, [r4, #44]
 268:LWIP/Target/ethernetif.c ****   netif->hwaddr[1] =  heth.Init.MACAddr[1];
 482              		.loc 1 268 3 is_stmt 1 view .LVU136
 268:LWIP/Target/ethernetif.c ****   netif->hwaddr[1] =  heth.Init.MACAddr[1];
 483              		.loc 1 268 32 is_stmt 0 view .LVU137
 484 005a 7368     		ldr	r3, [r6, #4]
 268:LWIP/Target/ethernetif.c ****   netif->hwaddr[1] =  heth.Init.MACAddr[1];
 485              		.loc 1 268 40 view .LVU138
 486 005c 1A78     		ldrb	r2, [r3]	@ zero_extendqisi2
 268:LWIP/Target/ethernetif.c ****   netif->hwaddr[1] =  heth.Init.MACAddr[1];
 487              		.loc 1 268 20 view .LVU139
 488 005e 84F82620 		strb	r2, [r4, #38]
 269:LWIP/Target/ethernetif.c ****   netif->hwaddr[2] =  heth.Init.MACAddr[2];
 489              		.loc 1 269 3 is_stmt 1 view .LVU140
 269:LWIP/Target/ethernetif.c ****   netif->hwaddr[2] =  heth.Init.MACAddr[2];
 490              		.loc 1 269 40 is_stmt 0 view .LVU141
 491 0062 5A78     		ldrb	r2, [r3, #1]	@ zero_extendqisi2
 269:LWIP/Target/ethernetif.c ****   netif->hwaddr[2] =  heth.Init.MACAddr[2];
 492              		.loc 1 269 20 view .LVU142
 493 0064 84F82720 		strb	r2, [r4, #39]
 270:LWIP/Target/ethernetif.c ****   netif->hwaddr[3] =  heth.Init.MACAddr[3];
 494              		.loc 1 270 3 is_stmt 1 view .LVU143
 270:LWIP/Target/ethernetif.c ****   netif->hwaddr[3] =  heth.Init.MACAddr[3];
 495              		.loc 1 270 40 is_stmt 0 view .LVU144
 496 0068 9A78     		ldrb	r2, [r3, #2]	@ zero_extendqisi2
 270:LWIP/Target/ethernetif.c ****   netif->hwaddr[3] =  heth.Init.MACAddr[3];
 497              		.loc 1 270 20 view .LVU145
 498 006a 84F82820 		strb	r2, [r4, #40]
 271:LWIP/Target/ethernetif.c ****   netif->hwaddr[4] =  heth.Init.MACAddr[4];
 499              		.loc 1 271 3 is_stmt 1 view .LVU146
 271:LWIP/Target/ethernetif.c ****   netif->hwaddr[4] =  heth.Init.MACAddr[4];
 500              		.loc 1 271 40 is_stmt 0 view .LVU147
 501 006e DA78     		ldrb	r2, [r3, #3]	@ zero_extendqisi2
ARM GAS  C:\Users\hh\AppData\Local\Temp\ccCKtegN.s 			page 20


 271:LWIP/Target/ethernetif.c ****   netif->hwaddr[4] =  heth.Init.MACAddr[4];
 502              		.loc 1 271 20 view .LVU148
 503 0070 84F82920 		strb	r2, [r4, #41]
 272:LWIP/Target/ethernetif.c ****   netif->hwaddr[5] =  heth.Init.MACAddr[5];
 504              		.loc 1 272 3 is_stmt 1 view .LVU149
 272:LWIP/Target/ethernetif.c ****   netif->hwaddr[5] =  heth.Init.MACAddr[5];
 505              		.loc 1 272 40 is_stmt 0 view .LVU150
 506 0074 1A79     		ldrb	r2, [r3, #4]	@ zero_extendqisi2
 272:LWIP/Target/ethernetif.c ****   netif->hwaddr[5] =  heth.Init.MACAddr[5];
 507              		.loc 1 272 20 view .LVU151
 508 0076 84F82A20 		strb	r2, [r4, #42]
 273:LWIP/Target/ethernetif.c **** 
 509              		.loc 1 273 3 is_stmt 1 view .LVU152
 273:LWIP/Target/ethernetif.c **** 
 510              		.loc 1 273 40 is_stmt 0 view .LVU153
 511 007a 5B79     		ldrb	r3, [r3, #5]	@ zero_extendqisi2
 273:LWIP/Target/ethernetif.c **** 
 512              		.loc 1 273 20 view .LVU154
 513 007c 84F82B30 		strb	r3, [r4, #43]
 276:LWIP/Target/ethernetif.c **** 
 514              		.loc 1 276 3 is_stmt 1 view .LVU155
 276:LWIP/Target/ethernetif.c **** 
 515              		.loc 1 276 14 is_stmt 0 view .LVU156
 516 0080 40F2DC53 		movw	r3, #1500
 517 0084 A384     		strh	r3, [r4, #36]	@ movhi
 281:LWIP/Target/ethernetif.c ****   #else
 518              		.loc 1 281 5 is_stmt 1 view .LVU157
 281:LWIP/Target/ethernetif.c ****   #else
 519              		.loc 1 281 10 is_stmt 0 view .LVU158
 520 0086 94F82D30 		ldrb	r3, [r4, #45]	@ zero_extendqisi2
 281:LWIP/Target/ethernetif.c ****   #else
 521              		.loc 1 281 18 view .LVU159
 522 008a 43F00A03 		orr	r3, r3, #10
 523 008e 84F82D30 		strb	r3, [r4, #45]
 287:LWIP/Target/ethernetif.c **** 
 524              		.loc 1 287 3 is_stmt 1 view .LVU160
 287:LWIP/Target/ethernetif.c **** 
 525              		.loc 1 287 20 is_stmt 0 view .LVU161
 526 0092 2A46     		mov	r2, r5
 527 0094 2946     		mov	r1, r5
 528 0096 3846     		mov	r0, r7
 529 0098 FFF7FEFF 		bl	osSemaphoreNew
 530              	.LVL43:
 287:LWIP/Target/ethernetif.c **** 
 531              		.loc 1 287 18 discriminator 1 view .LVU162
 532 009c 164B     		ldr	r3, .L35+20
 533 009e 1860     		str	r0, [r3]
 290:LWIP/Target/ethernetif.c **** 
 534              		.loc 1 290 3 is_stmt 1 view .LVU163
 290:LWIP/Target/ethernetif.c **** 
 535              		.loc 1 290 20 is_stmt 0 view .LVU164
 536 00a0 2A46     		mov	r2, r5
 537 00a2 2946     		mov	r1, r5
 538 00a4 3846     		mov	r0, r7
 539 00a6 FFF7FEFF 		bl	osSemaphoreNew
 540              	.LVL44:
 290:LWIP/Target/ethernetif.c **** 
ARM GAS  C:\Users\hh\AppData\Local\Temp\ccCKtegN.s 			page 21


 541              		.loc 1 290 18 discriminator 1 view .LVU165
 542 00aa 144B     		ldr	r3, .L35+24
 543 00ac 1860     		str	r0, [r3]
 294:LWIP/Target/ethernetif.c ****   attributes.name = "EthIf";
 544              		.loc 1 294 3 is_stmt 1 view .LVU166
 545 00ae 03AE     		add	r6, sp, #12
 546 00b0 2422     		movs	r2, #36
 547 00b2 2946     		mov	r1, r5
 548 00b4 3046     		mov	r0, r6
 549 00b6 FFF7FEFF 		bl	memset
 550              	.LVL45:
 295:LWIP/Target/ethernetif.c ****   attributes.stack_size = INTERFACE_THREAD_STACK_SIZE;
 551              		.loc 1 295 3 view .LVU167
 295:LWIP/Target/ethernetif.c ****   attributes.stack_size = INTERFACE_THREAD_STACK_SIZE;
 552              		.loc 1 295 19 is_stmt 0 view .LVU168
 553 00ba 114B     		ldr	r3, .L35+28
 554 00bc 0393     		str	r3, [sp, #12]
 296:LWIP/Target/ethernetif.c ****   attributes.priority = osPriorityRealtime;
 555              		.loc 1 296 3 is_stmt 1 view .LVU169
 296:LWIP/Target/ethernetif.c ****   attributes.priority = osPriorityRealtime;
 556              		.loc 1 296 25 is_stmt 0 view .LVU170
 557 00be 4FF4AF73 		mov	r3, #350
 558 00c2 0893     		str	r3, [sp, #32]
 297:LWIP/Target/ethernetif.c ****   osThreadNew(ethernetif_input, netif, &attributes);
 559              		.loc 1 297 3 is_stmt 1 view .LVU171
 297:LWIP/Target/ethernetif.c ****   osThreadNew(ethernetif_input, netif, &attributes);
 560              		.loc 1 297 23 is_stmt 0 view .LVU172
 561 00c4 3023     		movs	r3, #48
 562 00c6 0993     		str	r3, [sp, #36]
 298:LWIP/Target/ethernetif.c **** /* USER CODE END OS_THREAD_NEW_CMSIS_RTOS_V2 */
 563              		.loc 1 298 3 is_stmt 1 view .LVU173
 564 00c8 3246     		mov	r2, r6
 565 00ca 2146     		mov	r1, r4
 566 00cc 0D48     		ldr	r0, .L35+32
 567 00ce FFF7FEFF 		bl	osThreadNew
 568              	.LVL46:
 305:LWIP/Target/ethernetif.c ****   {
 569              		.loc 1 305 3 view .LVU174
 305:LWIP/Target/ethernetif.c ****   {
 570              		.loc 1 305 6 is_stmt 0 view .LVU175
 571 00d2 4346     		mov	r3, r8
 572 00d4 13B9     		cbnz	r3, .L34
 573              	.L31:
 321:LWIP/Target/ethernetif.c **** 
 574              		.loc 1 321 1 view .LVU176
 575 00d6 0CB0     		add	sp, sp, #48
 576              	.LCFI10:
 577              		.cfi_remember_state
 578              		.cfi_def_cfa_offset 24
 579              		@ sp needed
 580 00d8 BDE8F081 		pop	{r4, r5, r6, r7, r8, pc}
 581              	.LVL47:
 582              	.L34:
 583              	.LCFI11:
 584              		.cfi_restore_state
 314:LWIP/Target/ethernetif.c ****   }
 585              		.loc 1 314 5 is_stmt 1 view .LVU177
ARM GAS  C:\Users\hh\AppData\Local\Temp\ccCKtegN.s 			page 22


 586 00dc FFF7FEFF 		bl	Error_Handler
 587              	.LVL48:
 321:LWIP/Target/ethernetif.c **** 
 588              		.loc 1 321 1 is_stmt 0 view .LVU178
 589 00e0 F9E7     		b	.L31
 590              	.L36:
 591 00e2 00BF     		.align	2
 592              	.L35:
 593 00e4 00000000 		.word	heth
 594 00e8 00800240 		.word	1073905664
 595 00ec 00000000 		.word	DMATxDscrTab
 596 00f0 00000000 		.word	DMARxDscrTab
 597 00f4 00000000 		.word	memp_RX_POOL
 598 00f8 00000000 		.word	RxPktSemaphore
 599 00fc 00000000 		.word	TxPktSemaphore
 600 0100 00000000 		.word	.LC0
 601 0104 00000000 		.word	ethernetif_input
 602              		.cfi_endproc
 603              	.LFE175:
 605              		.section	.text.pbuf_free_custom,"ax",%progbits
 606              		.align	1
 607              		.global	pbuf_free_custom
 608              		.syntax unified
 609              		.thumb
 610              		.thumb_func
 612              	pbuf_free_custom:
 613              	.LVL49:
 614              	.LFB180:
 459:LWIP/Target/ethernetif.c ****     }
 460:LWIP/Target/ethernetif.c ****   }
 461:LWIP/Target/ethernetif.c **** }
 462:LWIP/Target/ethernetif.c **** 
 463:LWIP/Target/ethernetif.c **** #if !LWIP_ARP
 464:LWIP/Target/ethernetif.c **** /**
 465:LWIP/Target/ethernetif.c ****  * This function has to be completed by user in case of ARP OFF.
 466:LWIP/Target/ethernetif.c ****  *
 467:LWIP/Target/ethernetif.c ****  * @param netif the lwip network interface structure for this ethernetif
 468:LWIP/Target/ethernetif.c ****  * @return ERR_OK if ...
 469:LWIP/Target/ethernetif.c ****  */
 470:LWIP/Target/ethernetif.c **** static err_t low_level_output_arp_off(struct netif *netif, struct pbuf *q, const ip4_addr_t *ipaddr
 471:LWIP/Target/ethernetif.c **** {
 472:LWIP/Target/ethernetif.c ****   err_t errval;
 473:LWIP/Target/ethernetif.c ****   errval = ERR_OK;
 474:LWIP/Target/ethernetif.c **** 
 475:LWIP/Target/ethernetif.c **** /* USER CODE BEGIN 5 */
 476:LWIP/Target/ethernetif.c **** 
 477:LWIP/Target/ethernetif.c **** /* USER CODE END 5 */
 478:LWIP/Target/ethernetif.c **** 
 479:LWIP/Target/ethernetif.c ****   return errval;
 480:LWIP/Target/ethernetif.c **** 
 481:LWIP/Target/ethernetif.c **** }
 482:LWIP/Target/ethernetif.c **** #endif /* LWIP_ARP */
 483:LWIP/Target/ethernetif.c **** 
 484:LWIP/Target/ethernetif.c **** /**
 485:LWIP/Target/ethernetif.c ****  * @brief Should be called at the beginning of the program to set up the
 486:LWIP/Target/ethernetif.c ****  * network interface. It calls the function low_level_init() to do the
 487:LWIP/Target/ethernetif.c ****  * actual setup of the hardware.
ARM GAS  C:\Users\hh\AppData\Local\Temp\ccCKtegN.s 			page 23


 488:LWIP/Target/ethernetif.c ****  *
 489:LWIP/Target/ethernetif.c ****  * This function should be passed as a parameter to netif_add().
 490:LWIP/Target/ethernetif.c ****  *
 491:LWIP/Target/ethernetif.c ****  * @param netif the lwip network interface structure for this ethernetif
 492:LWIP/Target/ethernetif.c ****  * @return ERR_OK if the loopif is initialized
 493:LWIP/Target/ethernetif.c ****  *         ERR_MEM if private data couldn't be allocated
 494:LWIP/Target/ethernetif.c ****  *         any other err_t on error
 495:LWIP/Target/ethernetif.c ****  */
 496:LWIP/Target/ethernetif.c **** err_t ethernetif_init(struct netif *netif)
 497:LWIP/Target/ethernetif.c **** {
 498:LWIP/Target/ethernetif.c ****   LWIP_ASSERT("netif != NULL", (netif != NULL));
 499:LWIP/Target/ethernetif.c **** 
 500:LWIP/Target/ethernetif.c **** #if LWIP_NETIF_HOSTNAME
 501:LWIP/Target/ethernetif.c ****   /* Initialize interface hostname */
 502:LWIP/Target/ethernetif.c ****   netif->hostname = "lwip";
 503:LWIP/Target/ethernetif.c **** #endif /* LWIP_NETIF_HOSTNAME */
 504:LWIP/Target/ethernetif.c **** 
 505:LWIP/Target/ethernetif.c ****   /*
 506:LWIP/Target/ethernetif.c ****    * Initialize the snmp variables and counters inside the struct netif.
 507:LWIP/Target/ethernetif.c ****    * The last argument should be replaced with your link speed, in units
 508:LWIP/Target/ethernetif.c ****    * of bits per second.
 509:LWIP/Target/ethernetif.c ****    */
 510:LWIP/Target/ethernetif.c ****   // MIB2_INIT_NETIF(netif, snmp_ifType_ethernet_csmacd, LINK_SPEED_OF_YOUR_NETIF_IN_BPS);
 511:LWIP/Target/ethernetif.c **** 
 512:LWIP/Target/ethernetif.c ****   netif->name[0] = IFNAME0;
 513:LWIP/Target/ethernetif.c ****   netif->name[1] = IFNAME1;
 514:LWIP/Target/ethernetif.c ****   /* We directly use etharp_output() here to save a function call.
 515:LWIP/Target/ethernetif.c ****    * You can instead declare your own function an call etharp_output()
 516:LWIP/Target/ethernetif.c ****    * from it if you have to do some checks before sending (e.g. if link
 517:LWIP/Target/ethernetif.c ****    * is available...) */
 518:LWIP/Target/ethernetif.c **** 
 519:LWIP/Target/ethernetif.c **** #if LWIP_IPV4
 520:LWIP/Target/ethernetif.c **** #if LWIP_ARP || LWIP_ETHERNET
 521:LWIP/Target/ethernetif.c **** #if LWIP_ARP
 522:LWIP/Target/ethernetif.c ****   netif->output = etharp_output;
 523:LWIP/Target/ethernetif.c **** #else
 524:LWIP/Target/ethernetif.c ****   /* The user should write its own code in low_level_output_arp_off function */
 525:LWIP/Target/ethernetif.c ****   netif->output = low_level_output_arp_off;
 526:LWIP/Target/ethernetif.c **** #endif /* LWIP_ARP */
 527:LWIP/Target/ethernetif.c **** #endif /* LWIP_ARP || LWIP_ETHERNET */
 528:LWIP/Target/ethernetif.c **** #endif /* LWIP_IPV4 */
 529:LWIP/Target/ethernetif.c **** 
 530:LWIP/Target/ethernetif.c **** #if LWIP_IPV6
 531:LWIP/Target/ethernetif.c ****   netif->output_ip6 = ethip6_output;
 532:LWIP/Target/ethernetif.c **** #endif /* LWIP_IPV6 */
 533:LWIP/Target/ethernetif.c **** 
 534:LWIP/Target/ethernetif.c ****   netif->linkoutput = low_level_output;
 535:LWIP/Target/ethernetif.c **** 
 536:LWIP/Target/ethernetif.c ****   /* initialize the hardware */
 537:LWIP/Target/ethernetif.c ****   low_level_init(netif);
 538:LWIP/Target/ethernetif.c **** 
 539:LWIP/Target/ethernetif.c ****   return ERR_OK;
 540:LWIP/Target/ethernetif.c **** }
 541:LWIP/Target/ethernetif.c **** 
 542:LWIP/Target/ethernetif.c **** /**
 543:LWIP/Target/ethernetif.c ****   * @brief  Custom Rx pbuf free callback
 544:LWIP/Target/ethernetif.c ****   * @param  pbuf: pbuf to be freed
ARM GAS  C:\Users\hh\AppData\Local\Temp\ccCKtegN.s 			page 24


 545:LWIP/Target/ethernetif.c ****   * @retval None
 546:LWIP/Target/ethernetif.c ****   */
 547:LWIP/Target/ethernetif.c **** void pbuf_free_custom(struct pbuf *p)
 548:LWIP/Target/ethernetif.c **** {
 615              		.loc 1 548 1 is_stmt 1 view -0
 616              		.cfi_startproc
 617              		@ args = 0, pretend = 0, frame = 0
 618              		@ frame_needed = 0, uses_anonymous_args = 0
 619              		.loc 1 548 1 is_stmt 0 view .LVU180
 620 0000 08B5     		push	{r3, lr}
 621              	.LCFI12:
 622              		.cfi_def_cfa_offset 8
 623              		.cfi_offset 3, -8
 624              		.cfi_offset 14, -4
 625 0002 0146     		mov	r1, r0
 549:LWIP/Target/ethernetif.c ****   struct pbuf_custom* custom_pbuf = (struct pbuf_custom*)p;
 626              		.loc 1 549 3 is_stmt 1 view .LVU181
 627              	.LVL50:
 550:LWIP/Target/ethernetif.c ****   LWIP_MEMPOOL_FREE(RX_POOL, custom_pbuf);
 628              		.loc 1 550 3 view .LVU182
 629 0004 0748     		ldr	r0, .L41
 630              	.LVL51:
 631              		.loc 1 550 3 is_stmt 0 view .LVU183
 632 0006 FFF7FEFF 		bl	memp_free_pool
 633              	.LVL52:
 551:LWIP/Target/ethernetif.c **** 
 552:LWIP/Target/ethernetif.c ****   /* If the Rx Buffer Pool was exhausted, signal the ethernetif_input task to
 553:LWIP/Target/ethernetif.c ****    * call HAL_ETH_GetRxDataBuffer to rebuild the Rx descriptors. */
 554:LWIP/Target/ethernetif.c **** 
 555:LWIP/Target/ethernetif.c ****   if (RxAllocStatus == RX_ALLOC_ERROR)
 634              		.loc 1 555 3 is_stmt 1 view .LVU184
 635              		.loc 1 555 21 is_stmt 0 view .LVU185
 636 000a 074B     		ldr	r3, .L41+4
 637 000c 1B78     		ldrb	r3, [r3]	@ zero_extendqisi2
 638              		.loc 1 555 6 view .LVU186
 639 000e 012B     		cmp	r3, #1
 640 0010 00D0     		beq	.L40
 641              	.L37:
 556:LWIP/Target/ethernetif.c ****   {
 557:LWIP/Target/ethernetif.c ****     RxAllocStatus = RX_ALLOC_OK;
 558:LWIP/Target/ethernetif.c ****     osSemaphoreRelease(RxPktSemaphore);
 559:LWIP/Target/ethernetif.c ****   }
 560:LWIP/Target/ethernetif.c **** }
 642              		.loc 1 560 1 view .LVU187
 643 0012 08BD     		pop	{r3, pc}
 644              	.L40:
 557:LWIP/Target/ethernetif.c ****     osSemaphoreRelease(RxPktSemaphore);
 645              		.loc 1 557 5 is_stmt 1 view .LVU188
 557:LWIP/Target/ethernetif.c ****     osSemaphoreRelease(RxPktSemaphore);
 646              		.loc 1 557 19 is_stmt 0 view .LVU189
 647 0014 044B     		ldr	r3, .L41+4
 648 0016 0022     		movs	r2, #0
 649 0018 1A70     		strb	r2, [r3]
 558:LWIP/Target/ethernetif.c ****   }
 650              		.loc 1 558 5 is_stmt 1 view .LVU190
 651 001a 044B     		ldr	r3, .L41+8
 652 001c 1868     		ldr	r0, [r3]
ARM GAS  C:\Users\hh\AppData\Local\Temp\ccCKtegN.s 			page 25


 653 001e FFF7FEFF 		bl	osSemaphoreRelease
 654              	.LVL53:
 655              		.loc 1 560 1 is_stmt 0 view .LVU191
 656 0022 F6E7     		b	.L37
 657              	.L42:
 658              		.align	2
 659              	.L41:
 660 0024 00000000 		.word	memp_RX_POOL
 661 0028 00000000 		.word	RxAllocStatus
 662 002c 00000000 		.word	RxPktSemaphore
 663              		.cfi_endproc
 664              	.LFE180:
 666              		.section	.text.LAN8720_ReadReg,"ax",%progbits
 667              		.align	1
 668              		.syntax unified
 669              		.thumb
 670              		.thumb_func
 672              	LAN8720_ReadReg:
 673              	.LVL54:
 674              	.LFB181:
 561:LWIP/Target/ethernetif.c **** 
 562:LWIP/Target/ethernetif.c **** /* USER CODE BEGIN 6 */
 563:LWIP/Target/ethernetif.c **** 
 564:LWIP/Target/ethernetif.c **** static HAL_StatusTypeDef LAN8720_ReadReg(uint32_t phyAddress, uint32_t reg, uint32_t *value)
 565:LWIP/Target/ethernetif.c **** {
 675              		.loc 1 565 1 is_stmt 1 view -0
 676              		.cfi_startproc
 677              		@ args = 0, pretend = 0, frame = 0
 678              		@ frame_needed = 0, uses_anonymous_args = 0
 679              		.loc 1 565 1 is_stmt 0 view .LVU193
 680 0000 08B5     		push	{r3, lr}
 681              	.LCFI13:
 682              		.cfi_def_cfa_offset 8
 683              		.cfi_offset 3, -8
 684              		.cfi_offset 14, -4
 685 0002 1346     		mov	r3, r2
 566:LWIP/Target/ethernetif.c ****   return HAL_ETH_ReadPHYRegister(&heth, phyAddress, reg, value);
 686              		.loc 1 566 3 is_stmt 1 view .LVU194
 687              		.loc 1 566 10 is_stmt 0 view .LVU195
 688 0004 0A46     		mov	r2, r1
 689              	.LVL55:
 690              		.loc 1 566 10 view .LVU196
 691 0006 0146     		mov	r1, r0
 692              	.LVL56:
 693              		.loc 1 566 10 view .LVU197
 694 0008 0148     		ldr	r0, .L45
 695              	.LVL57:
 696              		.loc 1 566 10 view .LVU198
 697 000a FFF7FEFF 		bl	HAL_ETH_ReadPHYRegister
 698              	.LVL58:
 567:LWIP/Target/ethernetif.c **** }
 699              		.loc 1 567 1 view .LVU199
 700 000e 08BD     		pop	{r3, pc}
 701              	.L46:
 702              		.align	2
 703              	.L45:
 704 0010 00000000 		.word	heth
ARM GAS  C:\Users\hh\AppData\Local\Temp\ccCKtegN.s 			page 26


 705              		.cfi_endproc
 706              	.LFE181:
 708              		.section	.rodata.LAN8720_FindPhyAddress.str1.4,"aMS",%progbits,1
 709              		.align	2
 710              	.LC1:
 711 0000 5B657468 		.ascii	"[eth] LAN8720A PHY found, addr=%lu\015\012\000"
 711      5D204C41 
 711      4E383732 
 711      30412050 
 711      48592066 
 712              		.section	.text.LAN8720_FindPhyAddress,"ax",%progbits
 713              		.align	1
 714              		.syntax unified
 715              		.thumb
 716              		.thumb_func
 718              	LAN8720_FindPhyAddress:
 719              	.LFB183:
 568:LWIP/Target/ethernetif.c **** 
 569:LWIP/Target/ethernetif.c **** static HAL_StatusTypeDef LAN8720_WriteReg(uint32_t phyAddress, uint32_t reg, uint32_t value)
 570:LWIP/Target/ethernetif.c **** {
 571:LWIP/Target/ethernetif.c ****   return HAL_ETH_WritePHYRegister(&heth, phyAddress, reg, value);
 572:LWIP/Target/ethernetif.c **** }
 573:LWIP/Target/ethernetif.c **** 
 574:LWIP/Target/ethernetif.c **** static uint32_t LAN8720_FindPhyAddress(void)
 575:LWIP/Target/ethernetif.c **** {
 720              		.loc 1 575 1 is_stmt 1 view -0
 721              		.cfi_startproc
 722              		@ args = 0, pretend = 0, frame = 8
 723              		@ frame_needed = 0, uses_anonymous_args = 0
 724 0000 30B5     		push	{r4, r5, lr}
 725              	.LCFI14:
 726              		.cfi_def_cfa_offset 12
 727              		.cfi_offset 4, -12
 728              		.cfi_offset 5, -8
 729              		.cfi_offset 14, -4
 730 0002 83B0     		sub	sp, sp, #12
 731              	.LCFI15:
 732              		.cfi_def_cfa_offset 24
 576:LWIP/Target/ethernetif.c ****   uint32_t phyId1;
 733              		.loc 1 576 3 view .LVU201
 577:LWIP/Target/ethernetif.c **** 
 578:LWIP/Target/ethernetif.c ****   if (lan8720PhyAddress != LAN8720_PHY_ADDR_INVALID)
 734              		.loc 1 578 3 view .LVU202
 735              		.loc 1 578 25 is_stmt 0 view .LVU203
 736 0004 0E4B     		ldr	r3, .L53
 737 0006 1D68     		ldr	r5, [r3]
 738              		.loc 1 578 6 view .LVU204
 739 0008 B5F1FF3F 		cmp	r5, #-1
 740 000c 15D1     		bne	.L47
 741              	.LBB18:
 579:LWIP/Target/ethernetif.c ****   {
 580:LWIP/Target/ethernetif.c ****     return lan8720PhyAddress;
 581:LWIP/Target/ethernetif.c ****   }
 582:LWIP/Target/ethernetif.c **** 
 583:LWIP/Target/ethernetif.c ****   for (uint32_t address = 0U; address <= LAN8720_PHY_ADDR_MAX; address++)
 742              		.loc 1 583 17 view .LVU205
 743 000e 0024     		movs	r4, #0
ARM GAS  C:\Users\hh\AppData\Local\Temp\ccCKtegN.s 			page 27


 744 0010 00E0     		b	.L49
 745              	.LVL59:
 746              	.L50:
 747              		.loc 1 583 71 is_stmt 1 discriminator 2 view .LVU206
 748 0012 0134     		adds	r4, r4, #1
 749              	.LVL60:
 750              	.L49:
 751              		.loc 1 583 39 discriminator 1 view .LVU207
 752 0014 1F2C     		cmp	r4, #31
 753 0016 10D8     		bhi	.L47
 584:LWIP/Target/ethernetif.c ****   {
 585:LWIP/Target/ethernetif.c ****     if ((LAN8720_ReadReg(address, LAN8720_REG_PHYID1, &phyId1) == HAL_OK) &&
 754              		.loc 1 585 5 view .LVU208
 755              		.loc 1 585 10 is_stmt 0 view .LVU209
 756 0018 01AA     		add	r2, sp, #4
 757 001a 0221     		movs	r1, #2
 758 001c 2046     		mov	r0, r4
 759 001e FFF7FEFF 		bl	LAN8720_ReadReg
 760              	.LVL61:
 761              		.loc 1 585 8 discriminator 1 view .LVU210
 762 0022 0028     		cmp	r0, #0
 763 0024 F5D1     		bne	.L50
 586:LWIP/Target/ethernetif.c ****         (phyId1 == LAN8720_PHYID1_VALUE))
 764              		.loc 1 586 17 view .LVU211
 765 0026 019B     		ldr	r3, [sp, #4]
 585:LWIP/Target/ethernetif.c ****         (phyId1 == LAN8720_PHYID1_VALUE))
 766              		.loc 1 585 75 discriminator 2 view .LVU212
 767 0028 072B     		cmp	r3, #7
 768 002a F2D1     		bne	.L50
 587:LWIP/Target/ethernetif.c ****     {
 588:LWIP/Target/ethernetif.c ****       lan8720PhyAddress = address;
 769              		.loc 1 588 7 is_stmt 1 view .LVU213
 770              		.loc 1 588 25 is_stmt 0 view .LVU214
 771 002c 044D     		ldr	r5, .L53
 772 002e 2C60     		str	r4, [r5]
 589:LWIP/Target/ethernetif.c ****       printf("[eth] LAN8720A PHY found, addr=%lu\r\n", address);
 773              		.loc 1 589 7 is_stmt 1 view .LVU215
 774 0030 2146     		mov	r1, r4
 775 0032 0448     		ldr	r0, .L53+4
 776 0034 FFF7FEFF 		bl	printf
 777              	.LVL62:
 590:LWIP/Target/ethernetif.c ****       return lan8720PhyAddress;
 778              		.loc 1 590 7 view .LVU216
 779              		.loc 1 590 14 is_stmt 0 view .LVU217
 780 0038 2D68     		ldr	r5, [r5]
 781              	.LVL63:
 782              	.L47:
 783              		.loc 1 590 14 view .LVU218
 784              	.LBE18:
 591:LWIP/Target/ethernetif.c ****     }
 592:LWIP/Target/ethernetif.c ****   }
 593:LWIP/Target/ethernetif.c **** 
 594:LWIP/Target/ethernetif.c ****   return LAN8720_PHY_ADDR_INVALID;
 595:LWIP/Target/ethernetif.c **** }
 785              		.loc 1 595 1 view .LVU219
 786 003a 2846     		mov	r0, r5
 787 003c 03B0     		add	sp, sp, #12
ARM GAS  C:\Users\hh\AppData\Local\Temp\ccCKtegN.s 			page 28


 788              	.LCFI16:
 789              		.cfi_def_cfa_offset 12
 790              		@ sp needed
 791 003e 30BD     		pop	{r4, r5, pc}
 792              	.L54:
 793              		.align	2
 794              	.L53:
 795 0040 00000000 		.word	lan8720PhyAddress
 796 0044 00000000 		.word	.LC1
 797              		.cfi_endproc
 798              	.LFE183:
 800              		.section	.text.LAN8720_IsLinkUp,"ax",%progbits
 801              		.align	1
 802              		.syntax unified
 803              		.thumb
 804              		.thumb_func
 806              	LAN8720_IsLinkUp:
 807              	.LVL64:
 808              	.LFB185:
 596:LWIP/Target/ethernetif.c **** 
 597:LWIP/Target/ethernetif.c **** static HAL_StatusTypeDef LAN8720_SoftwareReset(uint32_t phyAddress)
 598:LWIP/Target/ethernetif.c **** {
 599:LWIP/Target/ethernetif.c ****   uint32_t bmcr;
 600:LWIP/Target/ethernetif.c ****   uint32_t startTick;
 601:LWIP/Target/ethernetif.c **** 
 602:LWIP/Target/ethernetif.c ****   if (LAN8720_WriteReg(phyAddress,
 603:LWIP/Target/ethernetif.c ****                        LAN8720_REG_BMCR,
 604:LWIP/Target/ethernetif.c ****                        LAN8720_BMCR_SOFTWARE_RESET) != HAL_OK)
 605:LWIP/Target/ethernetif.c ****   {
 606:LWIP/Target/ethernetif.c ****     return HAL_ERROR;
 607:LWIP/Target/ethernetif.c ****   }
 608:LWIP/Target/ethernetif.c **** 
 609:LWIP/Target/ethernetif.c ****   startTick = HAL_GetTick();
 610:LWIP/Target/ethernetif.c ****   do
 611:LWIP/Target/ethernetif.c ****   {
 612:LWIP/Target/ethernetif.c ****     osDelay(10U);
 613:LWIP/Target/ethernetif.c **** 
 614:LWIP/Target/ethernetif.c ****     if (LAN8720_ReadReg(phyAddress, LAN8720_REG_BMCR, &bmcr) != HAL_OK)
 615:LWIP/Target/ethernetif.c ****     {
 616:LWIP/Target/ethernetif.c ****       return HAL_ERROR;
 617:LWIP/Target/ethernetif.c ****     }
 618:LWIP/Target/ethernetif.c **** 
 619:LWIP/Target/ethernetif.c ****     if ((bmcr & LAN8720_BMCR_SOFTWARE_RESET) == 0U)
 620:LWIP/Target/ethernetif.c ****     {
 621:LWIP/Target/ethernetif.c ****       printf("[eth] LAN8720A software reset done\r\n");
 622:LWIP/Target/ethernetif.c ****       return HAL_OK;
 623:LWIP/Target/ethernetif.c ****     }
 624:LWIP/Target/ethernetif.c ****   } while ((HAL_GetTick() - startTick) < 500U);
 625:LWIP/Target/ethernetif.c **** 
 626:LWIP/Target/ethernetif.c ****   printf("[eth] LAN8720A software reset timeout\r\n");
 627:LWIP/Target/ethernetif.c ****   return HAL_TIMEOUT;
 628:LWIP/Target/ethernetif.c **** }
 629:LWIP/Target/ethernetif.c **** 
 630:LWIP/Target/ethernetif.c **** static uint8_t LAN8720_IsLinkUp(uint32_t phyAddress)
 631:LWIP/Target/ethernetif.c **** {
 809              		.loc 1 631 1 is_stmt 1 view -0
 810              		.cfi_startproc
ARM GAS  C:\Users\hh\AppData\Local\Temp\ccCKtegN.s 			page 29


 811              		@ args = 0, pretend = 0, frame = 8
 812              		@ frame_needed = 0, uses_anonymous_args = 0
 813              		.loc 1 631 1 is_stmt 0 view .LVU221
 814 0000 30B5     		push	{r4, r5, lr}
 815              	.LCFI17:
 816              		.cfi_def_cfa_offset 12
 817              		.cfi_offset 4, -12
 818              		.cfi_offset 5, -8
 819              		.cfi_offset 14, -4
 820 0002 83B0     		sub	sp, sp, #12
 821              	.LCFI18:
 822              		.cfi_def_cfa_offset 24
 823 0004 0446     		mov	r4, r0
 632:LWIP/Target/ethernetif.c ****   uint32_t bsr;
 824              		.loc 1 632 3 is_stmt 1 view .LVU222
 633:LWIP/Target/ethernetif.c **** 
 634:LWIP/Target/ethernetif.c ****   /*
 635:LWIP/Target/ethernetif.c ****    * BSR link status is latch-low, so read it twice and use the fresh value.
 636:LWIP/Target/ethernetif.c ****    */
 637:LWIP/Target/ethernetif.c ****   if (LAN8720_ReadReg(phyAddress, LAN8720_REG_BSR, &bsr) != HAL_OK)
 825              		.loc 1 637 3 view .LVU223
 826              		.loc 1 637 7 is_stmt 0 view .LVU224
 827 0006 01AA     		add	r2, sp, #4
 828 0008 0121     		movs	r1, #1
 829 000a FFF7FEFF 		bl	LAN8720_ReadReg
 830              	.LVL65:
 831              		.loc 1 637 6 discriminator 1 view .LVU225
 832 000e 20B1     		cbz	r0, .L59
 638:LWIP/Target/ethernetif.c ****   {
 639:LWIP/Target/ethernetif.c ****     return 0U;
 833              		.loc 1 639 12 view .LVU226
 834 0010 0023     		movs	r3, #0
 835 0012 1D46     		mov	r5, r3
 836              	.L56:
 640:LWIP/Target/ethernetif.c ****   }
 641:LWIP/Target/ethernetif.c **** 
 642:LWIP/Target/ethernetif.c ****   if (LAN8720_ReadReg(phyAddress, LAN8720_REG_BSR, &bsr) != HAL_OK)
 643:LWIP/Target/ethernetif.c ****   {
 644:LWIP/Target/ethernetif.c ****     return 0U;
 645:LWIP/Target/ethernetif.c ****   }
 646:LWIP/Target/ethernetif.c **** 
 647:LWIP/Target/ethernetif.c ****   return ((bsr & LAN8720_BSR_LINK_STATUS) != 0U) ? 1U : 0U;
 648:LWIP/Target/ethernetif.c **** }
 837              		.loc 1 648 1 view .LVU227
 838 0014 2846     		mov	r0, r5
 839 0016 03B0     		add	sp, sp, #12
 840              	.LCFI19:
 841              		.cfi_remember_state
 842              		.cfi_def_cfa_offset 12
 843              		@ sp needed
 844 0018 30BD     		pop	{r4, r5, pc}
 845              	.LVL66:
 846              	.L59:
 847              	.LCFI20:
 848              		.cfi_restore_state
 849              		.loc 1 648 1 view .LVU228
 850 001a 0546     		mov	r5, r0
ARM GAS  C:\Users\hh\AppData\Local\Temp\ccCKtegN.s 			page 30


 642:LWIP/Target/ethernetif.c ****   {
 851              		.loc 1 642 3 is_stmt 1 view .LVU229
 642:LWIP/Target/ethernetif.c ****   {
 852              		.loc 1 642 7 is_stmt 0 view .LVU230
 853 001c 01AA     		add	r2, sp, #4
 854 001e 0121     		movs	r1, #1
 855 0020 2046     		mov	r0, r4
 856 0022 FFF7FEFF 		bl	LAN8720_ReadReg
 857              	.LVL67:
 642:LWIP/Target/ethernetif.c ****   {
 858              		.loc 1 642 6 discriminator 1 view .LVU231
 859 0026 0028     		cmp	r0, #0
 860 0028 F4D1     		bne	.L56
 647:LWIP/Target/ethernetif.c **** }
 861              		.loc 1 647 3 is_stmt 1 view .LVU232
 647:LWIP/Target/ethernetif.c **** }
 862              		.loc 1 647 55 is_stmt 0 view .LVU233
 863 002a 019B     		ldr	r3, [sp, #4]
 864 002c C3F38003 		ubfx	r3, r3, #2, #1
 865 0030 1D46     		mov	r5, r3
 866 0032 EFE7     		b	.L56
 867              		.cfi_endproc
 868              	.LFE185:
 870              		.section	.text.LAN8720_WriteReg,"ax",%progbits
 871              		.align	1
 872              		.syntax unified
 873              		.thumb
 874              		.thumb_func
 876              	LAN8720_WriteReg:
 877              	.LVL68:
 878              	.LFB182:
 570:LWIP/Target/ethernetif.c ****   return HAL_ETH_WritePHYRegister(&heth, phyAddress, reg, value);
 879              		.loc 1 570 1 is_stmt 1 view -0
 880              		.cfi_startproc
 881              		@ args = 0, pretend = 0, frame = 0
 882              		@ frame_needed = 0, uses_anonymous_args = 0
 570:LWIP/Target/ethernetif.c ****   return HAL_ETH_WritePHYRegister(&heth, phyAddress, reg, value);
 883              		.loc 1 570 1 is_stmt 0 view .LVU235
 884 0000 08B5     		push	{r3, lr}
 885              	.LCFI21:
 886              		.cfi_def_cfa_offset 8
 887              		.cfi_offset 3, -8
 888              		.cfi_offset 14, -4
 889 0002 1346     		mov	r3, r2
 571:LWIP/Target/ethernetif.c **** }
 890              		.loc 1 571 3 is_stmt 1 view .LVU236
 571:LWIP/Target/ethernetif.c **** }
 891              		.loc 1 571 10 is_stmt 0 view .LVU237
 892 0004 0A46     		mov	r2, r1
 893              	.LVL69:
 571:LWIP/Target/ethernetif.c **** }
 894              		.loc 1 571 10 view .LVU238
 895 0006 0146     		mov	r1, r0
 896              	.LVL70:
 571:LWIP/Target/ethernetif.c **** }
 897              		.loc 1 571 10 view .LVU239
 898 0008 0148     		ldr	r0, .L62
ARM GAS  C:\Users\hh\AppData\Local\Temp\ccCKtegN.s 			page 31


 899              	.LVL71:
 571:LWIP/Target/ethernetif.c **** }
 900              		.loc 1 571 10 view .LVU240
 901 000a FFF7FEFF 		bl	HAL_ETH_WritePHYRegister
 902              	.LVL72:
 572:LWIP/Target/ethernetif.c **** 
 903              		.loc 1 572 1 view .LVU241
 904 000e 08BD     		pop	{r3, pc}
 905              	.L63:
 906              		.align	2
 907              	.L62:
 908 0010 00000000 		.word	heth
 909              		.cfi_endproc
 910              	.LFE182:
 912              		.section	.rodata.LAN8720_SoftwareReset.str1.4,"aMS",%progbits,1
 913              		.align	2
 914              	.LC2:
 915 0000 5B657468 		.ascii	"[eth] LAN8720A software reset done\015\000"
 915      5D204C41 
 915      4E383732 
 915      30412073 
 915      6F667477 
 916              		.align	2
 917              	.LC3:
 918 0024 5B657468 		.ascii	"[eth] LAN8720A software reset timeout\015\000"
 918      5D204C41 
 918      4E383732 
 918      30412073 
 918      6F667477 
 919              		.section	.text.LAN8720_SoftwareReset,"ax",%progbits
 920              		.align	1
 921              		.syntax unified
 922              		.thumb
 923              		.thumb_func
 925              	LAN8720_SoftwareReset:
 926              	.LVL73:
 927              	.LFB184:
 598:LWIP/Target/ethernetif.c ****   uint32_t bmcr;
 928              		.loc 1 598 1 is_stmt 1 view -0
 929              		.cfi_startproc
 930              		@ args = 0, pretend = 0, frame = 8
 931              		@ frame_needed = 0, uses_anonymous_args = 0
 598:LWIP/Target/ethernetif.c ****   uint32_t bmcr;
 932              		.loc 1 598 1 is_stmt 0 view .LVU243
 933 0000 70B5     		push	{r4, r5, r6, lr}
 934              	.LCFI22:
 935              		.cfi_def_cfa_offset 16
 936              		.cfi_offset 4, -16
 937              		.cfi_offset 5, -12
 938              		.cfi_offset 6, -8
 939              		.cfi_offset 14, -4
 940 0002 82B0     		sub	sp, sp, #8
 941              	.LCFI23:
 942              		.cfi_def_cfa_offset 24
 943 0004 0446     		mov	r4, r0
 599:LWIP/Target/ethernetif.c ****   uint32_t startTick;
 944              		.loc 1 599 3 is_stmt 1 view .LVU244
ARM GAS  C:\Users\hh\AppData\Local\Temp\ccCKtegN.s 			page 32


 600:LWIP/Target/ethernetif.c **** 
 945              		.loc 1 600 3 view .LVU245
 602:LWIP/Target/ethernetif.c ****                        LAN8720_REG_BMCR,
 946              		.loc 1 602 3 view .LVU246
 602:LWIP/Target/ethernetif.c ****                        LAN8720_REG_BMCR,
 947              		.loc 1 602 7 is_stmt 0 view .LVU247
 948 0006 4FF40042 		mov	r2, #32768
 949 000a 0021     		movs	r1, #0
 950 000c FFF7FEFF 		bl	LAN8720_WriteReg
 951              	.LVL74:
 602:LWIP/Target/ethernetif.c ****                        LAN8720_REG_BMCR,
 952              		.loc 1 602 6 discriminator 1 view .LVU248
 953 0010 20B1     		cbz	r0, .L71
 606:LWIP/Target/ethernetif.c ****   }
 954              		.loc 1 606 12 view .LVU249
 955 0012 0123     		movs	r3, #1
 956 0014 1E46     		mov	r6, r3
 957              	.L65:
 628:LWIP/Target/ethernetif.c **** 
 958              		.loc 1 628 1 view .LVU250
 959 0016 3046     		mov	r0, r6
 960 0018 02B0     		add	sp, sp, #8
 961              	.LCFI24:
 962              		.cfi_remember_state
 963              		.cfi_def_cfa_offset 16
 964              		@ sp needed
 965 001a 70BD     		pop	{r4, r5, r6, pc}
 966              	.LVL75:
 967              	.L71:
 968              	.LCFI25:
 969              		.cfi_restore_state
 609:LWIP/Target/ethernetif.c ****   do
 970              		.loc 1 609 3 is_stmt 1 view .LVU251
 609:LWIP/Target/ethernetif.c ****   do
 971              		.loc 1 609 15 is_stmt 0 view .LVU252
 972 001c FFF7FEFF 		bl	HAL_GetTick
 973              	.LVL76:
 974 0020 0546     		mov	r5, r0
 975              	.LVL77:
 976              	.L67:
 610:LWIP/Target/ethernetif.c ****   {
 977              		.loc 1 610 3 is_stmt 1 view .LVU253
 612:LWIP/Target/ethernetif.c **** 
 978              		.loc 1 612 5 view .LVU254
 979 0022 0A20     		movs	r0, #10
 980 0024 FFF7FEFF 		bl	osDelay
 981              	.LVL78:
 614:LWIP/Target/ethernetif.c ****     {
 982              		.loc 1 614 5 view .LVU255
 614:LWIP/Target/ethernetif.c ****     {
 983              		.loc 1 614 9 is_stmt 0 view .LVU256
 984 0028 01AA     		add	r2, sp, #4
 985 002a 0021     		movs	r1, #0
 986 002c 2046     		mov	r0, r4
 987 002e FFF7FEFF 		bl	LAN8720_ReadReg
 988              	.LVL79:
 614:LWIP/Target/ethernetif.c ****     {
ARM GAS  C:\Users\hh\AppData\Local\Temp\ccCKtegN.s 			page 33


 989              		.loc 1 614 8 discriminator 1 view .LVU257
 990 0032 0646     		mov	r6, r0
 991 0034 98B9     		cbnz	r0, .L69
 619:LWIP/Target/ethernetif.c ****     {
 992              		.loc 1 619 5 is_stmt 1 view .LVU258
 619:LWIP/Target/ethernetif.c ****     {
 993              		.loc 1 619 8 is_stmt 0 view .LVU259
 994 0036 019B     		ldr	r3, [sp, #4]
 995 0038 13F4004F 		tst	r3, #32768
 996 003c 0BD0     		beq	.L72
 624:LWIP/Target/ethernetif.c **** 
 997              		.loc 1 624 40 is_stmt 1 view .LVU260
 624:LWIP/Target/ethernetif.c **** 
 998              		.loc 1 624 13 is_stmt 0 view .LVU261
 999 003e FFF7FEFF 		bl	HAL_GetTick
 1000              	.LVL80:
 624:LWIP/Target/ethernetif.c **** 
 1001              		.loc 1 624 27 discriminator 1 view .LVU262
 1002 0042 431B     		subs	r3, r0, r5
 624:LWIP/Target/ethernetif.c **** 
 1003              		.loc 1 624 40 discriminator 1 view .LVU263
 1004 0044 B3F5FA7F 		cmp	r3, #500
 1005 0048 EBD3     		bcc	.L67
 626:LWIP/Target/ethernetif.c ****   return HAL_TIMEOUT;
 1006              		.loc 1 626 3 is_stmt 1 view .LVU264
 1007 004a 0648     		ldr	r0, .L73
 1008 004c FFF7FEFF 		bl	puts
 1009              	.LVL81:
 627:LWIP/Target/ethernetif.c **** }
 1010              		.loc 1 627 3 view .LVU265
 627:LWIP/Target/ethernetif.c **** }
 1011              		.loc 1 627 10 is_stmt 0 view .LVU266
 1012 0050 0323     		movs	r3, #3
 1013 0052 1E46     		mov	r6, r3
 1014 0054 DFE7     		b	.L65
 1015              	.L72:
 621:LWIP/Target/ethernetif.c ****       return HAL_OK;
 1016              		.loc 1 621 7 is_stmt 1 view .LVU267
 1017 0056 0448     		ldr	r0, .L73+4
 1018 0058 FFF7FEFF 		bl	puts
 1019              	.LVL82:
 622:LWIP/Target/ethernetif.c ****     }
 1020              		.loc 1 622 7 view .LVU268
 622:LWIP/Target/ethernetif.c ****     }
 1021              		.loc 1 622 14 is_stmt 0 view .LVU269
 1022 005c DBE7     		b	.L65
 1023              	.L69:
 616:LWIP/Target/ethernetif.c ****     }
 1024              		.loc 1 616 14 view .LVU270
 1025 005e 0123     		movs	r3, #1
 1026 0060 1E46     		mov	r6, r3
 1027 0062 D8E7     		b	.L65
 1028              	.L74:
 1029              		.align	2
 1030              	.L73:
 1031 0064 24000000 		.word	.LC3
 1032 0068 00000000 		.word	.LC2
ARM GAS  C:\Users\hh\AppData\Local\Temp\ccCKtegN.s 			page 34


 1033              		.cfi_endproc
 1034              	.LFE184:
 1036              		.section	.rodata.LAN8720_ApplyLinkMode.str1.4,"aMS",%progbits,1
 1037              		.align	2
 1038              	.LC4:
 1039 0000 66756C6C 		.ascii	"full\000"
 1039      00
 1040 0005 000000   		.align	2
 1041              	.LC5:
 1042 0008 3130304D 		.ascii	"100M\000"
 1042      00
 1043 000d 000000   		.align	2
 1044              	.LC6:
 1045 0010 68616C66 		.ascii	"half\000"
 1045      00
 1046 0015 000000   		.align	2
 1047              	.LC7:
 1048 0018 31304D00 		.ascii	"10M\000"
 1049              		.align	2
 1050              	.LC8:
 1051 001c 5B657468 		.ascii	"[eth] link mode %s %s-duplex\015\012\000"
 1051      5D206C69 
 1051      6E6B206D 
 1051      6F646520 
 1051      25732025 
 1052              		.section	.text.LAN8720_ApplyLinkMode,"ax",%progbits
 1053              		.align	1
 1054              		.syntax unified
 1055              		.thumb
 1056              		.thumb_func
 1058              	LAN8720_ApplyLinkMode:
 1059              	.LVL83:
 1060              	.LFB186:
 649:LWIP/Target/ethernetif.c **** 
 650:LWIP/Target/ethernetif.c **** static void LAN8720_ApplyLinkMode(uint32_t phyAddress)
 651:LWIP/Target/ethernetif.c **** {
 1061              		.loc 1 651 1 is_stmt 1 view -0
 1062              		.cfi_startproc
 1063              		@ args = 0, pretend = 0, frame = 104
 1064              		@ frame_needed = 0, uses_anonymous_args = 0
 1065              		.loc 1 651 1 is_stmt 0 view .LVU272
 1066 0000 30B5     		push	{r4, r5, lr}
 1067              	.LCFI26:
 1068              		.cfi_def_cfa_offset 12
 1069              		.cfi_offset 4, -12
 1070              		.cfi_offset 5, -8
 1071              		.cfi_offset 14, -4
 1072 0002 9BB0     		sub	sp, sp, #108
 1073              	.LCFI27:
 1074              		.cfi_def_cfa_offset 120
 1075 0004 0446     		mov	r4, r0
 652:LWIP/Target/ethernetif.c ****   ETH_MACConfigTypeDef macConfig;
 1076              		.loc 1 652 3 is_stmt 1 view .LVU273
 653:LWIP/Target/ethernetif.c ****   uint32_t scsr;
 1077              		.loc 1 653 3 view .LVU274
 654:LWIP/Target/ethernetif.c ****   const char *speedText = "100M";
 1078              		.loc 1 654 3 view .LVU275
ARM GAS  C:\Users\hh\AppData\Local\Temp\ccCKtegN.s 			page 35


 1079              	.LVL84:
 655:LWIP/Target/ethernetif.c ****   const char *duplexText = "full";
 1080              		.loc 1 655 3 view .LVU276
 656:LWIP/Target/ethernetif.c **** 
 657:LWIP/Target/ethernetif.c ****   if (HAL_ETH_GetMACConfig(&heth, &macConfig) != HAL_OK)
 1081              		.loc 1 657 3 view .LVU277
 1082              		.loc 1 657 7 is_stmt 0 view .LVU278
 1083 0006 01A9     		add	r1, sp, #4
 1084 0008 2748     		ldr	r0, .L85
 1085              	.LVL85:
 1086              		.loc 1 657 7 view .LVU279
 1087 000a FFF7FEFF 		bl	HAL_ETH_GetMACConfig
 1088              	.LVL86:
 1089              		.loc 1 657 6 discriminator 1 view .LVU280
 1090 000e 08B1     		cbz	r0, .L84
 1091              	.LVL87:
 1092              	.L75:
 658:LWIP/Target/ethernetif.c ****   {
 659:LWIP/Target/ethernetif.c ****     return;
 660:LWIP/Target/ethernetif.c ****   }
 661:LWIP/Target/ethernetif.c **** 
 662:LWIP/Target/ethernetif.c ****   macConfig.Speed = ETH_SPEED_100M;
 663:LWIP/Target/ethernetif.c ****   macConfig.DuplexMode = ETH_FULLDUPLEX_MODE;
 664:LWIP/Target/ethernetif.c **** 
 665:LWIP/Target/ethernetif.c ****   if (LAN8720_ReadReg(phyAddress, LAN8720_REG_SCSR, &scsr) == HAL_OK)
 666:LWIP/Target/ethernetif.c ****   {
 667:LWIP/Target/ethernetif.c ****     switch (scsr & LAN8720_SCSR_HCDSPEED_MASK)
 668:LWIP/Target/ethernetif.c ****     {
 669:LWIP/Target/ethernetif.c ****       case LAN8720_SCSR_HCDSPEED_10HD:
 670:LWIP/Target/ethernetif.c ****         macConfig.Speed = ETH_SPEED_10M;
 671:LWIP/Target/ethernetif.c ****         macConfig.DuplexMode = ETH_HALFDUPLEX_MODE;
 672:LWIP/Target/ethernetif.c ****         speedText = "10M";
 673:LWIP/Target/ethernetif.c ****         duplexText = "half";
 674:LWIP/Target/ethernetif.c ****         break;
 675:LWIP/Target/ethernetif.c **** 
 676:LWIP/Target/ethernetif.c ****       case LAN8720_SCSR_HCDSPEED_10FD:
 677:LWIP/Target/ethernetif.c ****         macConfig.Speed = ETH_SPEED_10M;
 678:LWIP/Target/ethernetif.c ****         macConfig.DuplexMode = ETH_FULLDUPLEX_MODE;
 679:LWIP/Target/ethernetif.c ****         speedText = "10M";
 680:LWIP/Target/ethernetif.c ****         duplexText = "full";
 681:LWIP/Target/ethernetif.c ****         break;
 682:LWIP/Target/ethernetif.c **** 
 683:LWIP/Target/ethernetif.c ****       case LAN8720_SCSR_HCDSPEED_100HD:
 684:LWIP/Target/ethernetif.c ****         macConfig.Speed = ETH_SPEED_100M;
 685:LWIP/Target/ethernetif.c ****         macConfig.DuplexMode = ETH_HALFDUPLEX_MODE;
 686:LWIP/Target/ethernetif.c ****         speedText = "100M";
 687:LWIP/Target/ethernetif.c ****         duplexText = "half";
 688:LWIP/Target/ethernetif.c ****         break;
 689:LWIP/Target/ethernetif.c **** 
 690:LWIP/Target/ethernetif.c ****       case LAN8720_SCSR_HCDSPEED_100FD:
 691:LWIP/Target/ethernetif.c ****       default:
 692:LWIP/Target/ethernetif.c ****         macConfig.Speed = ETH_SPEED_100M;
 693:LWIP/Target/ethernetif.c ****         macConfig.DuplexMode = ETH_FULLDUPLEX_MODE;
 694:LWIP/Target/ethernetif.c ****         speedText = "100M";
 695:LWIP/Target/ethernetif.c ****         duplexText = "full";
 696:LWIP/Target/ethernetif.c ****         break;
 697:LWIP/Target/ethernetif.c ****     }
ARM GAS  C:\Users\hh\AppData\Local\Temp\ccCKtegN.s 			page 36


 698:LWIP/Target/ethernetif.c ****   }
 699:LWIP/Target/ethernetif.c **** 
 700:LWIP/Target/ethernetif.c ****   (void)HAL_ETH_SetMACConfig(&heth, &macConfig);
 701:LWIP/Target/ethernetif.c ****   printf("[eth] link mode %s %s-duplex\r\n", speedText, duplexText);
 702:LWIP/Target/ethernetif.c **** }
 1093              		.loc 1 702 1 view .LVU281
 1094 0010 1BB0     		add	sp, sp, #108
 1095              	.LCFI28:
 1096              		.cfi_remember_state
 1097              		.cfi_def_cfa_offset 12
 1098              		@ sp needed
 1099 0012 30BD     		pop	{r4, r5, pc}
 1100              	.LVL88:
 1101              	.L84:
 1102              	.LCFI29:
 1103              		.cfi_restore_state
 662:LWIP/Target/ethernetif.c ****   macConfig.DuplexMode = ETH_FULLDUPLEX_MODE;
 1104              		.loc 1 662 3 is_stmt 1 view .LVU282
 662:LWIP/Target/ethernetif.c ****   macConfig.DuplexMode = ETH_FULLDUPLEX_MODE;
 1105              		.loc 1 662 19 is_stmt 0 view .LVU283
 1106 0014 4FF48043 		mov	r3, #16384
 1107 0018 0693     		str	r3, [sp, #24]
 663:LWIP/Target/ethernetif.c **** 
 1108              		.loc 1 663 3 is_stmt 1 view .LVU284
 663:LWIP/Target/ethernetif.c **** 
 1109              		.loc 1 663 24 is_stmt 0 view .LVU285
 1110 001a 4FF40053 		mov	r3, #8192
 1111 001e 0793     		str	r3, [sp, #28]
 665:LWIP/Target/ethernetif.c ****   {
 1112              		.loc 1 665 3 is_stmt 1 view .LVU286
 665:LWIP/Target/ethernetif.c ****   {
 1113              		.loc 1 665 7 is_stmt 0 view .LVU287
 1114 0020 6A46     		mov	r2, sp
 1115 0022 1F21     		movs	r1, #31
 1116 0024 2046     		mov	r0, r4
 1117 0026 FFF7FEFF 		bl	LAN8720_ReadReg
 1118              	.LVL89:
 665:LWIP/Target/ethernetif.c ****   {
 1119              		.loc 1 665 6 discriminator 1 view .LVU288
 1120 002a 70BB     		cbnz	r0, .L82
 667:LWIP/Target/ethernetif.c ****     {
 1121              		.loc 1 667 5 is_stmt 1 view .LVU289
 667:LWIP/Target/ethernetif.c ****     {
 1122              		.loc 1 667 18 is_stmt 0 view .LVU290
 1123 002c 009B     		ldr	r3, [sp]
 1124 002e 03F01C03 		and	r3, r3, #28
 667:LWIP/Target/ethernetif.c ****     {
 1125              		.loc 1 667 5 view .LVU291
 1126 0032 082B     		cmp	r3, #8
 1127 0034 14D0     		beq	.L79
 1128 0036 142B     		cmp	r3, #20
 1129 0038 08D0     		beq	.L80
 1130 003a 042B     		cmp	r3, #4
 1131 003c 1AD1     		bne	.L81
 670:LWIP/Target/ethernetif.c ****         macConfig.DuplexMode = ETH_HALFDUPLEX_MODE;
 1132              		.loc 1 670 9 is_stmt 1 view .LVU292
 670:LWIP/Target/ethernetif.c ****         macConfig.DuplexMode = ETH_HALFDUPLEX_MODE;
ARM GAS  C:\Users\hh\AppData\Local\Temp\ccCKtegN.s 			page 37


 1133              		.loc 1 670 25 is_stmt 0 view .LVU293
 1134 003e 0690     		str	r0, [sp, #24]
 671:LWIP/Target/ethernetif.c ****         speedText = "10M";
 1135              		.loc 1 671 9 is_stmt 1 view .LVU294
 671:LWIP/Target/ethernetif.c ****         speedText = "10M";
 1136              		.loc 1 671 30 is_stmt 0 view .LVU295
 1137 0040 0790     		str	r0, [sp, #28]
 672:LWIP/Target/ethernetif.c ****         duplexText = "half";
 1138              		.loc 1 672 9 is_stmt 1 view .LVU296
 1139              	.LVL90:
 673:LWIP/Target/ethernetif.c ****         break;
 1140              		.loc 1 673 9 view .LVU297
 674:LWIP/Target/ethernetif.c **** 
 1141              		.loc 1 674 9 view .LVU298
 673:LWIP/Target/ethernetif.c ****         break;
 1142              		.loc 1 673 20 is_stmt 0 view .LVU299
 1143 0042 1A4B     		ldr	r3, .L85+4
 1144 0044 1D46     		mov	r5, r3
 672:LWIP/Target/ethernetif.c ****         duplexText = "half";
 1145              		.loc 1 672 19 view .LVU300
 1146 0046 1A4B     		ldr	r3, .L85+8
 1147 0048 1C46     		mov	r4, r3
 1148              	.LVL91:
 674:LWIP/Target/ethernetif.c **** 
 1149              		.loc 1 674 9 view .LVU301
 1150 004a 22E0     		b	.L78
 1151              	.LVL92:
 1152              	.L80:
 677:LWIP/Target/ethernetif.c ****         macConfig.DuplexMode = ETH_FULLDUPLEX_MODE;
 1153              		.loc 1 677 9 is_stmt 1 view .LVU302
 677:LWIP/Target/ethernetif.c ****         macConfig.DuplexMode = ETH_FULLDUPLEX_MODE;
 1154              		.loc 1 677 25 is_stmt 0 view .LVU303
 1155 004c 0023     		movs	r3, #0
 1156 004e 0693     		str	r3, [sp, #24]
 678:LWIP/Target/ethernetif.c ****         speedText = "10M";
 1157              		.loc 1 678 9 is_stmt 1 view .LVU304
 678:LWIP/Target/ethernetif.c ****         speedText = "10M";
 1158              		.loc 1 678 30 is_stmt 0 view .LVU305
 1159 0050 4FF40053 		mov	r3, #8192
 1160 0054 0793     		str	r3, [sp, #28]
 679:LWIP/Target/ethernetif.c ****         duplexText = "full";
 1161              		.loc 1 679 9 is_stmt 1 view .LVU306
 1162              	.LVL93:
 680:LWIP/Target/ethernetif.c ****         break;
 1163              		.loc 1 680 9 view .LVU307
 681:LWIP/Target/ethernetif.c **** 
 1164              		.loc 1 681 9 view .LVU308
 680:LWIP/Target/ethernetif.c ****         break;
 1165              		.loc 1 680 20 is_stmt 0 view .LVU309
 1166 0056 174B     		ldr	r3, .L85+12
 1167 0058 1D46     		mov	r5, r3
 679:LWIP/Target/ethernetif.c ****         duplexText = "full";
 1168              		.loc 1 679 19 view .LVU310
 1169 005a 154B     		ldr	r3, .L85+8
 1170 005c 1C46     		mov	r4, r3
 1171              	.LVL94:
 681:LWIP/Target/ethernetif.c **** 
ARM GAS  C:\Users\hh\AppData\Local\Temp\ccCKtegN.s 			page 38


 1172              		.loc 1 681 9 view .LVU311
 1173 005e 18E0     		b	.L78
 1174              	.LVL95:
 1175              	.L79:
 684:LWIP/Target/ethernetif.c ****         macConfig.DuplexMode = ETH_HALFDUPLEX_MODE;
 1176              		.loc 1 684 9 is_stmt 1 view .LVU312
 684:LWIP/Target/ethernetif.c ****         macConfig.DuplexMode = ETH_HALFDUPLEX_MODE;
 1177              		.loc 1 684 25 is_stmt 0 view .LVU313
 1178 0060 4FF48043 		mov	r3, #16384
 1179 0064 0693     		str	r3, [sp, #24]
 685:LWIP/Target/ethernetif.c ****         speedText = "100M";
 1180              		.loc 1 685 9 is_stmt 1 view .LVU314
 685:LWIP/Target/ethernetif.c ****         speedText = "100M";
 1181              		.loc 1 685 30 is_stmt 0 view .LVU315
 1182 0066 0023     		movs	r3, #0
 1183 0068 0793     		str	r3, [sp, #28]
 686:LWIP/Target/ethernetif.c ****         duplexText = "half";
 1184              		.loc 1 686 9 is_stmt 1 view .LVU316
 687:LWIP/Target/ethernetif.c ****         break;
 1185              		.loc 1 687 9 view .LVU317
 1186              	.LVL96:
 688:LWIP/Target/ethernetif.c **** 
 1187              		.loc 1 688 9 view .LVU318
 687:LWIP/Target/ethernetif.c ****         break;
 1188              		.loc 1 687 20 is_stmt 0 view .LVU319
 1189 006a 104B     		ldr	r3, .L85+4
 1190 006c 1D46     		mov	r5, r3
 686:LWIP/Target/ethernetif.c ****         duplexText = "half";
 1191              		.loc 1 686 19 view .LVU320
 1192 006e 124B     		ldr	r3, .L85+16
 1193 0070 1C46     		mov	r4, r3
 1194              	.LVL97:
 688:LWIP/Target/ethernetif.c **** 
 1195              		.loc 1 688 9 view .LVU321
 1196 0072 0EE0     		b	.L78
 1197              	.LVL98:
 1198              	.L81:
 692:LWIP/Target/ethernetif.c ****         macConfig.DuplexMode = ETH_FULLDUPLEX_MODE;
 1199              		.loc 1 692 9 is_stmt 1 view .LVU322
 692:LWIP/Target/ethernetif.c ****         macConfig.DuplexMode = ETH_FULLDUPLEX_MODE;
 1200              		.loc 1 692 25 is_stmt 0 view .LVU323
 1201 0074 4FF48043 		mov	r3, #16384
 1202 0078 0693     		str	r3, [sp, #24]
 693:LWIP/Target/ethernetif.c ****         speedText = "100M";
 1203              		.loc 1 693 9 is_stmt 1 view .LVU324
 693:LWIP/Target/ethernetif.c ****         speedText = "100M";
 1204              		.loc 1 693 30 is_stmt 0 view .LVU325
 1205 007a 4FF40053 		mov	r3, #8192
 1206 007e 0793     		str	r3, [sp, #28]
 694:LWIP/Target/ethernetif.c ****         duplexText = "full";
 1207              		.loc 1 694 9 is_stmt 1 view .LVU326
 695:LWIP/Target/ethernetif.c ****         break;
 1208              		.loc 1 695 9 view .LVU327
 696:LWIP/Target/ethernetif.c ****     }
 1209              		.loc 1 696 9 view .LVU328
 695:LWIP/Target/ethernetif.c ****         break;
 1210              		.loc 1 695 20 is_stmt 0 view .LVU329
ARM GAS  C:\Users\hh\AppData\Local\Temp\ccCKtegN.s 			page 39


 1211 0080 0C4B     		ldr	r3, .L85+12
 1212 0082 1D46     		mov	r5, r3
 694:LWIP/Target/ethernetif.c ****         duplexText = "full";
 1213              		.loc 1 694 19 view .LVU330
 1214 0084 0C4B     		ldr	r3, .L85+16
 1215 0086 1C46     		mov	r4, r3
 1216              	.LVL99:
 696:LWIP/Target/ethernetif.c ****     }
 1217              		.loc 1 696 9 view .LVU331
 1218 0088 03E0     		b	.L78
 1219              	.LVL100:
 1220              	.L82:
 655:LWIP/Target/ethernetif.c **** 
 1221              		.loc 1 655 15 view .LVU332
 1222 008a 0A4B     		ldr	r3, .L85+12
 1223 008c 1D46     		mov	r5, r3
 654:LWIP/Target/ethernetif.c ****   const char *duplexText = "full";
 1224              		.loc 1 654 15 view .LVU333
 1225 008e 0A4B     		ldr	r3, .L85+16
 1226 0090 1C46     		mov	r4, r3
 1227              	.LVL101:
 1228              	.L78:
 700:LWIP/Target/ethernetif.c ****   printf("[eth] link mode %s %s-duplex\r\n", speedText, duplexText);
 1229              		.loc 1 700 3 is_stmt 1 view .LVU334
 700:LWIP/Target/ethernetif.c ****   printf("[eth] link mode %s %s-duplex\r\n", speedText, duplexText);
 1230              		.loc 1 700 9 is_stmt 0 view .LVU335
 1231 0092 01A9     		add	r1, sp, #4
 1232 0094 0448     		ldr	r0, .L85
 1233 0096 FFF7FEFF 		bl	HAL_ETH_SetMACConfig
 1234              	.LVL102:
 701:LWIP/Target/ethernetif.c **** }
 1235              		.loc 1 701 3 is_stmt 1 view .LVU336
 1236 009a 2A46     		mov	r2, r5
 1237 009c 2146     		mov	r1, r4
 1238 009e 0748     		ldr	r0, .L85+20
 1239 00a0 FFF7FEFF 		bl	printf
 1240              	.LVL103:
 1241 00a4 B4E7     		b	.L75
 1242              	.L86:
 1243 00a6 00BF     		.align	2
 1244              	.L85:
 1245 00a8 00000000 		.word	heth
 1246 00ac 10000000 		.word	.LC6
 1247 00b0 18000000 		.word	.LC7
 1248 00b4 00000000 		.word	.LC4
 1249 00b8 08000000 		.word	.LC5
 1250 00bc 1C000000 		.word	.LC8
 1251              		.cfi_endproc
 1252              	.LFE186:
 1254              		.section	.text.HAL_ETH_RxCpltCallback,"ax",%progbits
 1255              		.align	1
 1256              		.global	HAL_ETH_RxCpltCallback
 1257              		.syntax unified
 1258              		.thumb
 1259              		.thumb_func
 1261              	HAL_ETH_RxCpltCallback:
 1262              	.LVL104:
ARM GAS  C:\Users\hh\AppData\Local\Temp\ccCKtegN.s 			page 40


 1263              	.LFB172:
 187:LWIP/Target/ethernetif.c ****   osSemaphoreRelease(RxPktSemaphore);
 1264              		.loc 1 187 1 view -0
 1265              		.cfi_startproc
 1266              		@ args = 0, pretend = 0, frame = 0
 1267              		@ frame_needed = 0, uses_anonymous_args = 0
 187:LWIP/Target/ethernetif.c ****   osSemaphoreRelease(RxPktSemaphore);
 1268              		.loc 1 187 1 is_stmt 0 view .LVU338
 1269 0000 08B5     		push	{r3, lr}
 1270              	.LCFI30:
 1271              		.cfi_def_cfa_offset 8
 1272              		.cfi_offset 3, -8
 1273              		.cfi_offset 14, -4
 188:LWIP/Target/ethernetif.c **** }
 1274              		.loc 1 188 3 is_stmt 1 view .LVU339
 1275 0002 024B     		ldr	r3, .L89
 1276 0004 1868     		ldr	r0, [r3]
 1277              	.LVL105:
 188:LWIP/Target/ethernetif.c **** }
 1278              		.loc 1 188 3 is_stmt 0 view .LVU340
 1279 0006 FFF7FEFF 		bl	osSemaphoreRelease
 1280              	.LVL106:
 189:LWIP/Target/ethernetif.c **** /**
 1281              		.loc 1 189 1 view .LVU341
 1282 000a 08BD     		pop	{r3, pc}
 1283              	.L90:
 1284              		.align	2
 1285              	.L89:
 1286 000c 00000000 		.word	RxPktSemaphore
 1287              		.cfi_endproc
 1288              	.LFE172:
 1290              		.section	.text.HAL_ETH_TxCpltCallback,"ax",%progbits
 1291              		.align	1
 1292              		.global	HAL_ETH_TxCpltCallback
 1293              		.syntax unified
 1294              		.thumb
 1295              		.thumb_func
 1297              	HAL_ETH_TxCpltCallback:
 1298              	.LVL107:
 1299              	.LFB173:
 196:LWIP/Target/ethernetif.c ****   osSemaphoreRelease(TxPktSemaphore);
 1300              		.loc 1 196 1 is_stmt 1 view -0
 1301              		.cfi_startproc
 1302              		@ args = 0, pretend = 0, frame = 0
 1303              		@ frame_needed = 0, uses_anonymous_args = 0
 196:LWIP/Target/ethernetif.c ****   osSemaphoreRelease(TxPktSemaphore);
 1304              		.loc 1 196 1 is_stmt 0 view .LVU343
 1305 0000 08B5     		push	{r3, lr}
 1306              	.LCFI31:
 1307              		.cfi_def_cfa_offset 8
 1308              		.cfi_offset 3, -8
 1309              		.cfi_offset 14, -4
 197:LWIP/Target/ethernetif.c **** }
 1310              		.loc 1 197 3 is_stmt 1 view .LVU344
 1311 0002 024B     		ldr	r3, .L93
 1312 0004 1868     		ldr	r0, [r3]
 1313              	.LVL108:
ARM GAS  C:\Users\hh\AppData\Local\Temp\ccCKtegN.s 			page 41


 197:LWIP/Target/ethernetif.c **** }
 1314              		.loc 1 197 3 is_stmt 0 view .LVU345
 1315 0006 FFF7FEFF 		bl	osSemaphoreRelease
 1316              	.LVL109:
 198:LWIP/Target/ethernetif.c **** /**
 1317              		.loc 1 198 1 view .LVU346
 1318 000a 08BD     		pop	{r3, pc}
 1319              	.L94:
 1320              		.align	2
 1321              	.L93:
 1322 000c 00000000 		.word	TxPktSemaphore
 1323              		.cfi_endproc
 1324              	.LFE173:
 1326              		.section	.text.HAL_ETH_ErrorCallback,"ax",%progbits
 1327              		.align	1
 1328              		.global	HAL_ETH_ErrorCallback
 1329              		.syntax unified
 1330              		.thumb
 1331              		.thumb_func
 1333              	HAL_ETH_ErrorCallback:
 1334              	.LVL110:
 1335              	.LFB174:
 205:LWIP/Target/ethernetif.c ****   if((HAL_ETH_GetDMAError(handlerEth) & ETH_DMACSR_RBU) == ETH_DMACSR_RBU)
 1336              		.loc 1 205 1 is_stmt 1 view -0
 1337              		.cfi_startproc
 1338              		@ args = 0, pretend = 0, frame = 0
 1339              		@ frame_needed = 0, uses_anonymous_args = 0
 205:LWIP/Target/ethernetif.c ****   if((HAL_ETH_GetDMAError(handlerEth) & ETH_DMACSR_RBU) == ETH_DMACSR_RBU)
 1340              		.loc 1 205 1 is_stmt 0 view .LVU348
 1341 0000 08B5     		push	{r3, lr}
 1342              	.LCFI32:
 1343              		.cfi_def_cfa_offset 8
 1344              		.cfi_offset 3, -8
 1345              		.cfi_offset 14, -4
 206:LWIP/Target/ethernetif.c ****   {
 1346              		.loc 1 206 3 is_stmt 1 view .LVU349
 206:LWIP/Target/ethernetif.c ****   {
 1347              		.loc 1 206 7 is_stmt 0 view .LVU350
 1348 0002 FFF7FEFF 		bl	HAL_ETH_GetDMAError
 1349              	.LVL111:
 206:LWIP/Target/ethernetif.c ****   {
 1350              		.loc 1 206 5 discriminator 1 view .LVU351
 1351 0006 10F0800F 		tst	r0, #128
 1352 000a 00D1     		bne	.L98
 1353              	.L95:
 210:LWIP/Target/ethernetif.c **** 
 1354              		.loc 1 210 1 view .LVU352
 1355 000c 08BD     		pop	{r3, pc}
 1356              	.L98:
 208:LWIP/Target/ethernetif.c ****   }
 1357              		.loc 1 208 6 is_stmt 1 view .LVU353
 1358 000e 024B     		ldr	r3, .L99
 1359 0010 1868     		ldr	r0, [r3]
 1360 0012 FFF7FEFF 		bl	osSemaphoreRelease
 1361              	.LVL112:
 210:LWIP/Target/ethernetif.c **** 
 1362              		.loc 1 210 1 is_stmt 0 view .LVU354
ARM GAS  C:\Users\hh\AppData\Local\Temp\ccCKtegN.s 			page 42


 1363 0016 F9E7     		b	.L95
 1364              	.L100:
 1365              		.align	2
 1366              	.L99:
 1367 0018 00000000 		.word	RxPktSemaphore
 1368              		.cfi_endproc
 1369              	.LFE174:
 1371              		.section	.rodata.ethernetif_init.str1.4,"aMS",%progbits,1
 1372              		.align	2
 1373              	.LC9:
 1374 0000 4C574950 		.ascii	"LWIP/Target/ethernetif.c\000"
 1374      2F546172 
 1374      6765742F 
 1374      65746865 
 1374      726E6574 
 1375 0019 000000   		.align	2
 1376              	.LC10:
 1377 001c 6E657469 		.ascii	"netif != NULL\000"
 1377      6620213D 
 1377      204E554C 
 1377      4C00
 1378 002a 0000     		.align	2
 1379              	.LC11:
 1380 002c 41737365 		.ascii	"Assertion \"%s\" failed at line %d in %s\012\000"
 1380      7274696F 
 1380      6E202225 
 1380      73222066 
 1380      61696C65 
 1381              		.section	.text.ethernetif_init,"ax",%progbits
 1382              		.align	1
 1383              		.global	ethernetif_init
 1384              		.syntax unified
 1385              		.thumb
 1386              		.thumb_func
 1388              	ethernetif_init:
 1389              	.LVL113:
 1390              	.LFB179:
 497:LWIP/Target/ethernetif.c ****   LWIP_ASSERT("netif != NULL", (netif != NULL));
 1391              		.loc 1 497 1 is_stmt 1 view -0
 1392              		.cfi_startproc
 1393              		@ args = 0, pretend = 0, frame = 0
 1394              		@ frame_needed = 0, uses_anonymous_args = 0
 497:LWIP/Target/ethernetif.c ****   LWIP_ASSERT("netif != NULL", (netif != NULL));
 1395              		.loc 1 497 1 is_stmt 0 view .LVU356
 1396 0000 10B5     		push	{r4, lr}
 1397              	.LCFI33:
 1398              		.cfi_def_cfa_offset 8
 1399              		.cfi_offset 4, -8
 1400              		.cfi_offset 14, -4
 498:LWIP/Target/ethernetif.c **** 
 1401              		.loc 1 498 3 is_stmt 1 view .LVU357
 498:LWIP/Target/ethernetif.c **** 
 1402              		.loc 1 498 3 view .LVU358
 1403 0002 0446     		mov	r4, r0
 1404 0004 70B1     		cbz	r0, .L104
 1405              	.LVL114:
 1406              	.L102:
ARM GAS  C:\Users\hh\AppData\Local\Temp\ccCKtegN.s 			page 43


 498:LWIP/Target/ethernetif.c **** 
 1407              		.loc 1 498 3 view .LVU359
 498:LWIP/Target/ethernetif.c **** 
 1408              		.loc 1 498 3 view .LVU360
 512:LWIP/Target/ethernetif.c ****   netif->name[1] = IFNAME1;
 1409              		.loc 1 512 3 view .LVU361
 512:LWIP/Target/ethernetif.c ****   netif->name[1] = IFNAME1;
 1410              		.loc 1 512 18 is_stmt 0 view .LVU362
 1411 0006 7323     		movs	r3, #115
 1412 0008 84F82E30 		strb	r3, [r4, #46]
 513:LWIP/Target/ethernetif.c ****   /* We directly use etharp_output() here to save a function call.
 1413              		.loc 1 513 3 is_stmt 1 view .LVU363
 513:LWIP/Target/ethernetif.c ****   /* We directly use etharp_output() here to save a function call.
 1414              		.loc 1 513 18 is_stmt 0 view .LVU364
 1415 000c 7423     		movs	r3, #116
 1416 000e 84F82F30 		strb	r3, [r4, #47]
 522:LWIP/Target/ethernetif.c **** #else
 1417              		.loc 1 522 3 is_stmt 1 view .LVU365
 522:LWIP/Target/ethernetif.c **** #else
 1418              		.loc 1 522 17 is_stmt 0 view .LVU366
 1419 0012 084B     		ldr	r3, .L105
 1420 0014 6361     		str	r3, [r4, #20]
 534:LWIP/Target/ethernetif.c **** 
 1421              		.loc 1 534 3 is_stmt 1 view .LVU367
 534:LWIP/Target/ethernetif.c **** 
 1422              		.loc 1 534 21 is_stmt 0 view .LVU368
 1423 0016 084B     		ldr	r3, .L105+4
 1424 0018 A361     		str	r3, [r4, #24]
 537:LWIP/Target/ethernetif.c **** 
 1425              		.loc 1 537 3 is_stmt 1 view .LVU369
 1426 001a 2046     		mov	r0, r4
 1427 001c FFF7FEFF 		bl	low_level_init
 1428              	.LVL115:
 539:LWIP/Target/ethernetif.c **** }
 1429              		.loc 1 539 3 view .LVU370
 540:LWIP/Target/ethernetif.c **** 
 1430              		.loc 1 540 1 is_stmt 0 view .LVU371
 1431 0020 0020     		movs	r0, #0
 1432 0022 10BD     		pop	{r4, pc}
 1433              	.LVL116:
 1434              	.L104:
 498:LWIP/Target/ethernetif.c **** 
 1435              		.loc 1 498 3 is_stmt 1 discriminator 1 view .LVU372
 498:LWIP/Target/ethernetif.c **** 
 1436              		.loc 1 498 3 discriminator 1 view .LVU373
 1437 0024 054B     		ldr	r3, .L105+8
 1438 0026 4FF4F972 		mov	r2, #498
 1439 002a 0549     		ldr	r1, .L105+12
 1440 002c 0548     		ldr	r0, .L105+16
 1441              	.LVL117:
 498:LWIP/Target/ethernetif.c **** 
 1442              		.loc 1 498 3 is_stmt 0 discriminator 1 view .LVU374
 1443 002e FFF7FEFF 		bl	printf
 1444              	.LVL118:
 1445 0032 E8E7     		b	.L102
 1446              	.L106:
 1447              		.align	2
ARM GAS  C:\Users\hh\AppData\Local\Temp\ccCKtegN.s 			page 44


 1448              	.L105:
 1449 0034 00000000 		.word	etharp_output
 1450 0038 00000000 		.word	low_level_output
 1451 003c 00000000 		.word	.LC9
 1452 0040 1C000000 		.word	.LC10
 1453 0044 2C000000 		.word	.LC11
 1454              		.cfi_endproc
 1455              	.LFE179:
 1457              		.section	.text.sys_now,"ax",%progbits
 1458              		.align	1
 1459              		.global	sys_now
 1460              		.syntax unified
 1461              		.thumb
 1462              		.thumb_func
 1464              	sys_now:
 1465              	.LFB187:
 703:LWIP/Target/ethernetif.c **** 
 704:LWIP/Target/ethernetif.c **** /**
 705:LWIP/Target/ethernetif.c **** * @brief  Returns the current time in milliseconds
 706:LWIP/Target/ethernetif.c **** *         when LWIP_TIMERS == 1 and NO_SYS == 1
 707:LWIP/Target/ethernetif.c **** * @param  None
 708:LWIP/Target/ethernetif.c **** * @retval Current Time value
 709:LWIP/Target/ethernetif.c **** */
 710:LWIP/Target/ethernetif.c **** u32_t sys_now(void)
 711:LWIP/Target/ethernetif.c **** {
 1466              		.loc 1 711 1 is_stmt 1 view -0
 1467              		.cfi_startproc
 1468              		@ args = 0, pretend = 0, frame = 0
 1469              		@ frame_needed = 0, uses_anonymous_args = 0
 1470 0000 08B5     		push	{r3, lr}
 1471              	.LCFI34:
 1472              		.cfi_def_cfa_offset 8
 1473              		.cfi_offset 3, -8
 1474              		.cfi_offset 14, -4
 712:LWIP/Target/ethernetif.c ****   return HAL_GetTick();
 1475              		.loc 1 712 3 view .LVU376
 1476              		.loc 1 712 10 is_stmt 0 view .LVU377
 1477 0002 FFF7FEFF 		bl	HAL_GetTick
 1478              	.LVL119:
 713:LWIP/Target/ethernetif.c **** }
 1479              		.loc 1 713 1 view .LVU378
 1480 0006 08BD     		pop	{r3, pc}
 1481              		.cfi_endproc
 1482              	.LFE187:
 1484              		.section	.rodata.ethernet_link_thread.str1.4,"aMS",%progbits,1
 1485              		.align	2
 1486              	.LC12:
 1487 0000 5B657468 		.ascii	"[eth] LAN8720A PHY not found on MDIO\015\000"
 1487      5D204C41 
 1487      4E383732 
 1487      30412050 
 1487      4859206E 
 1488 0026 0000     		.align	2
 1489              	.LC13:
 1490 0028 5B657468 		.ascii	"[eth] link up\015\000"
 1490      5D206C69 
 1490      6E6B2075 
ARM GAS  C:\Users\hh\AppData\Local\Temp\ccCKtegN.s 			page 45


 1490      700D00
 1491 0037 00       		.align	2
 1492              	.LC14:
 1493 0038 5B657468 		.ascii	"[eth] HAL_ETH_Start_IT failed\015\000"
 1493      5D204841 
 1493      4C5F4554 
 1493      485F5374 
 1493      6172745F 
 1494 0057 00       		.align	2
 1495              	.LC15:
 1496 0058 5B657468 		.ascii	"[eth] link down\015\000"
 1496      5D206C69 
 1496      6E6B2064 
 1496      6F776E0D 
 1496      00
 1497              		.section	.text.ethernet_link_thread,"ax",%progbits
 1498              		.align	1
 1499              		.global	ethernet_link_thread
 1500              		.syntax unified
 1501              		.thumb
 1502              		.thumb_func
 1504              	ethernet_link_thread:
 1505              	.LVL120:
 1506              	.LFB188:
 714:LWIP/Target/ethernetif.c **** 
 715:LWIP/Target/ethernetif.c **** /* USER CODE END 6 */
 716:LWIP/Target/ethernetif.c **** 
 717:LWIP/Target/ethernetif.c **** /* USER CODE BEGIN PHI IO Functions for User BSP */
 718:LWIP/Target/ethernetif.c **** 
 719:LWIP/Target/ethernetif.c **** /* USER CODE END PHI IO Functions for User BSP */
 720:LWIP/Target/ethernetif.c **** 
 721:LWIP/Target/ethernetif.c **** /**
 722:LWIP/Target/ethernetif.c ****   * @brief  Check the ETH link state then update ETH driver and netif link accordingly.
 723:LWIP/Target/ethernetif.c ****   * @retval None
 724:LWIP/Target/ethernetif.c ****   */
 725:LWIP/Target/ethernetif.c **** void ethernet_link_thread(void* argument)
 726:LWIP/Target/ethernetif.c **** {
 1507              		.loc 1 726 1 is_stmt 1 view -0
 1508              		.cfi_startproc
 1509              		@ args = 0, pretend = 0, frame = 0
 1510              		@ frame_needed = 0, uses_anonymous_args = 0
 1511              		.loc 1 726 1 is_stmt 0 view .LVU380
 1512 0000 70B5     		push	{r4, r5, r6, lr}
 1513              	.LCFI35:
 1514              		.cfi_def_cfa_offset 16
 1515              		.cfi_offset 4, -16
 1516              		.cfi_offset 5, -12
 1517              		.cfi_offset 6, -8
 1518              		.cfi_offset 14, -4
 1519 0002 0546     		mov	r5, r0
 727:LWIP/Target/ethernetif.c ****   struct netif *netif = (struct netif *)argument;
 1520              		.loc 1 727 3 is_stmt 1 view .LVU381
 1521              	.LVL121:
 728:LWIP/Target/ethernetif.c ****   uint32_t lastPhyMissingLogTick = 0U;
 1522              		.loc 1 728 3 view .LVU382
 729:LWIP/Target/ethernetif.c **** 
 730:LWIP/Target/ethernetif.c **** /* USER CODE BEGIN ETH link init */
ARM GAS  C:\Users\hh\AppData\Local\Temp\ccCKtegN.s 			page 46


 731:LWIP/Target/ethernetif.c ****   netif_set_link_down(netif);
 1523              		.loc 1 731 3 view .LVU383
 1524 0004 FFF7FEFF 		bl	netif_set_link_down
 1525              	.LVL122:
 728:LWIP/Target/ethernetif.c ****   uint32_t lastPhyMissingLogTick = 0U;
 1526              		.loc 1 728 12 is_stmt 0 view .LVU384
 1527 0008 0026     		movs	r6, #0
 1528 000a 22E0     		b	.L110
 1529              	.LVL123:
 1530              	.L122:
 1531              	.LBB19:
 1532              	.LBB20:
 732:LWIP/Target/ethernetif.c **** 
 733:LWIP/Target/ethernetif.c **** /* USER CODE END ETH link init */
 734:LWIP/Target/ethernetif.c **** 
 735:LWIP/Target/ethernetif.c ****   for(;;)
 736:LWIP/Target/ethernetif.c ****   {
 737:LWIP/Target/ethernetif.c **** 
 738:LWIP/Target/ethernetif.c **** /* USER CODE BEGIN ETH link Thread core code for User BSP */
 739:LWIP/Target/ethernetif.c ****     uint32_t phyAddress = LAN8720_FindPhyAddress();
 740:LWIP/Target/ethernetif.c **** 
 741:LWIP/Target/ethernetif.c ****     if (phyAddress == LAN8720_PHY_ADDR_INVALID)
 742:LWIP/Target/ethernetif.c ****     {
 743:LWIP/Target/ethernetif.c ****       uint32_t now = HAL_GetTick();
 1533              		.loc 1 743 7 is_stmt 1 view .LVU385
 1534              		.loc 1 743 22 is_stmt 0 view .LVU386
 1535 000c FFF7FEFF 		bl	HAL_GetTick
 1536              	.LVL124:
 1537              		.loc 1 743 22 view .LVU387
 1538 0010 0446     		mov	r4, r0
 1539              	.LVL125:
 744:LWIP/Target/ethernetif.c ****       if ((now - lastPhyMissingLogTick) >= 5000U)
 1540              		.loc 1 744 7 is_stmt 1 view .LVU388
 1541              		.loc 1 744 16 is_stmt 0 view .LVU389
 1542 0012 821B     		subs	r2, r0, r6
 1543              		.loc 1 744 10 view .LVU390
 1544 0014 41F28733 		movw	r3, #4999
 1545 0018 9A42     		cmp	r2, r3
 1546 001a 04D8     		bhi	.L120
 1547              	.LVL126:
 1548              	.L112:
 745:LWIP/Target/ethernetif.c ****       {
 746:LWIP/Target/ethernetif.c ****         printf("[eth] LAN8720A PHY not found on MDIO\r\n");
 747:LWIP/Target/ethernetif.c ****         lastPhyMissingLogTick = now;
 748:LWIP/Target/ethernetif.c ****       }
 749:LWIP/Target/ethernetif.c ****       osDelay(500U);
 1549              		.loc 1 749 7 is_stmt 1 view .LVU391
 1550 001c 4FF4FA70 		mov	r0, #500
 1551 0020 FFF7FEFF 		bl	osDelay
 1552              	.LVL127:
 750:LWIP/Target/ethernetif.c ****       continue;
 1553              		.loc 1 750 7 view .LVU392
 1554 0024 15E0     		b	.L110
 1555              	.LVL128:
 1556              	.L120:
 746:LWIP/Target/ethernetif.c ****         lastPhyMissingLogTick = now;
 1557              		.loc 1 746 9 view .LVU393
ARM GAS  C:\Users\hh\AppData\Local\Temp\ccCKtegN.s 			page 47


 1558 0026 2448     		ldr	r0, .L123
 1559              	.LVL129:
 746:LWIP/Target/ethernetif.c ****         lastPhyMissingLogTick = now;
 1560              		.loc 1 746 9 is_stmt 0 view .LVU394
 1561 0028 FFF7FEFF 		bl	puts
 1562              	.LVL130:
 747:LWIP/Target/ethernetif.c ****       }
 1563              		.loc 1 747 9 is_stmt 1 view .LVU395
 747:LWIP/Target/ethernetif.c ****       }
 1564              		.loc 1 747 31 is_stmt 0 view .LVU396
 1565 002c 2646     		mov	r6, r4
 1566 002e F5E7     		b	.L112
 1567              	.LVL131:
 1568              	.L115:
 747:LWIP/Target/ethernetif.c ****       }
 1569              		.loc 1 747 31 view .LVU397
 1570              	.LBE20:
 751:LWIP/Target/ethernetif.c ****     }
 752:LWIP/Target/ethernetif.c **** 
 753:LWIP/Target/ethernetif.c ****     if (lan8720SoftwareResetDone == 0U)
 754:LWIP/Target/ethernetif.c ****     {
 755:LWIP/Target/ethernetif.c ****       if (LAN8720_SoftwareReset(phyAddress) == HAL_OK)
 756:LWIP/Target/ethernetif.c ****       {
 757:LWIP/Target/ethernetif.c ****         lan8720SoftwareResetDone = 1U;
 758:LWIP/Target/ethernetif.c ****       }
 759:LWIP/Target/ethernetif.c ****       else
 760:LWIP/Target/ethernetif.c ****       {
 761:LWIP/Target/ethernetif.c ****         osDelay(500U);
 1571              		.loc 1 761 9 is_stmt 1 view .LVU398
 1572 0030 4FF4FA70 		mov	r0, #500
 1573 0034 FFF7FEFF 		bl	osDelay
 1574              	.LVL132:
 762:LWIP/Target/ethernetif.c ****         continue;
 1575              		.loc 1 762 9 view .LVU399
 1576 0038 0BE0     		b	.L110
 1577              	.L118:
 763:LWIP/Target/ethernetif.c ****       }
 764:LWIP/Target/ethernetif.c ****     }
 765:LWIP/Target/ethernetif.c **** 
 766:LWIP/Target/ethernetif.c ****     if (LAN8720_IsLinkUp(phyAddress) != 0U)
 767:LWIP/Target/ethernetif.c ****     {
 768:LWIP/Target/ethernetif.c ****       if (!netif_is_link_up(netif))
 769:LWIP/Target/ethernetif.c ****       {
 770:LWIP/Target/ethernetif.c ****         LAN8720_ApplyLinkMode(phyAddress);
 771:LWIP/Target/ethernetif.c ****         if (HAL_ETH_Start_IT(&heth) == HAL_OK)
 772:LWIP/Target/ethernetif.c ****         {
 773:LWIP/Target/ethernetif.c ****           netif_set_link_up(netif);
 774:LWIP/Target/ethernetif.c ****           printf("[eth] link up\r\n");
 775:LWIP/Target/ethernetif.c ****         }
 776:LWIP/Target/ethernetif.c ****         else
 777:LWIP/Target/ethernetif.c ****         {
 778:LWIP/Target/ethernetif.c ****           printf("[eth] HAL_ETH_Start_IT failed\r\n");
 1578              		.loc 1 778 11 view .LVU400
 1579 003a 2048     		ldr	r0, .L123+4
 1580 003c FFF7FEFF 		bl	puts
 1581              	.LVL133:
 1582 0040 04E0     		b	.L117
ARM GAS  C:\Users\hh\AppData\Local\Temp\ccCKtegN.s 			page 48


 1583              	.L116:
 779:LWIP/Target/ethernetif.c ****         }
 780:LWIP/Target/ethernetif.c ****       }
 781:LWIP/Target/ethernetif.c ****     }
 782:LWIP/Target/ethernetif.c ****     else
 783:LWIP/Target/ethernetif.c ****     {
 784:LWIP/Target/ethernetif.c ****       if (netif_is_link_up(netif))
 1584              		.loc 1 784 7 view .LVU401
 1585              		.loc 1 784 11 is_stmt 0 view .LVU402
 1586 0042 95F82D30 		ldrb	r3, [r5, #45]	@ zero_extendqisi2
 1587              		.loc 1 784 10 view .LVU403
 1588 0046 13F0040F 		tst	r3, #4
 1589 004a 2BD1     		bne	.L121
 1590              	.L117:
 785:LWIP/Target/ethernetif.c ****       {
 786:LWIP/Target/ethernetif.c ****         (void)HAL_ETH_Stop_IT(&heth);
 787:LWIP/Target/ethernetif.c ****         netif_set_link_down(netif);
 788:LWIP/Target/ethernetif.c ****         printf("[eth] link down\r\n");
 789:LWIP/Target/ethernetif.c ****       }
 790:LWIP/Target/ethernetif.c ****     }
 791:LWIP/Target/ethernetif.c **** 
 792:LWIP/Target/ethernetif.c **** /* USER CODE END ETH link Thread core code for User BSP */
 793:LWIP/Target/ethernetif.c **** 
 794:LWIP/Target/ethernetif.c ****     osDelay(100);
 1591              		.loc 1 794 5 is_stmt 1 view .LVU404
 1592 004c 6420     		movs	r0, #100
 1593 004e FFF7FEFF 		bl	osDelay
 1594              	.LVL134:
 1595              	.L110:
 1596              		.loc 1 794 5 is_stmt 0 view .LVU405
 1597              	.LBE19:
 735:LWIP/Target/ethernetif.c ****   {
 1598              		.loc 1 735 3 is_stmt 1 view .LVU406
 1599              	.LBB21:
 739:LWIP/Target/ethernetif.c **** 
 1600              		.loc 1 739 5 view .LVU407
 739:LWIP/Target/ethernetif.c **** 
 1601              		.loc 1 739 27 is_stmt 0 view .LVU408
 1602 0052 FFF7FEFF 		bl	LAN8720_FindPhyAddress
 1603              	.LVL135:
 1604 0056 0446     		mov	r4, r0
 1605              	.LVL136:
 741:LWIP/Target/ethernetif.c ****     {
 1606              		.loc 1 741 5 is_stmt 1 view .LVU409
 741:LWIP/Target/ethernetif.c ****     {
 1607              		.loc 1 741 8 is_stmt 0 view .LVU410
 1608 0058 B0F1FF3F 		cmp	r0, #-1
 1609 005c D6D0     		beq	.L122
 753:LWIP/Target/ethernetif.c ****     {
 1610              		.loc 1 753 5 is_stmt 1 view .LVU411
 753:LWIP/Target/ethernetif.c ****     {
 1611              		.loc 1 753 34 is_stmt 0 view .LVU412
 1612 005e 184B     		ldr	r3, .L123+8
 1613 0060 1B78     		ldrb	r3, [r3]	@ zero_extendqisi2
 753:LWIP/Target/ethernetif.c ****     {
 1614              		.loc 1 753 8 view .LVU413
 1615 0062 33B9     		cbnz	r3, .L114
ARM GAS  C:\Users\hh\AppData\Local\Temp\ccCKtegN.s 			page 49


 755:LWIP/Target/ethernetif.c ****       {
 1616              		.loc 1 755 7 is_stmt 1 view .LVU414
 755:LWIP/Target/ethernetif.c ****       {
 1617              		.loc 1 755 11 is_stmt 0 view .LVU415
 1618 0064 FFF7FEFF 		bl	LAN8720_SoftwareReset
 1619              	.LVL137:
 755:LWIP/Target/ethernetif.c ****       {
 1620              		.loc 1 755 10 discriminator 1 view .LVU416
 1621 0068 0028     		cmp	r0, #0
 1622 006a E1D1     		bne	.L115
 757:LWIP/Target/ethernetif.c ****       }
 1623              		.loc 1 757 9 is_stmt 1 view .LVU417
 757:LWIP/Target/ethernetif.c ****       }
 1624              		.loc 1 757 34 is_stmt 0 view .LVU418
 1625 006c 144B     		ldr	r3, .L123+8
 1626 006e 0122     		movs	r2, #1
 1627 0070 1A70     		strb	r2, [r3]
 1628              	.L114:
 766:LWIP/Target/ethernetif.c ****     {
 1629              		.loc 1 766 5 is_stmt 1 view .LVU419
 766:LWIP/Target/ethernetif.c ****     {
 1630              		.loc 1 766 9 is_stmt 0 view .LVU420
 1631 0072 2046     		mov	r0, r4
 1632 0074 FFF7FEFF 		bl	LAN8720_IsLinkUp
 1633              	.LVL138:
 766:LWIP/Target/ethernetif.c ****     {
 1634              		.loc 1 766 8 discriminator 1 view .LVU421
 1635 0078 0028     		cmp	r0, #0
 1636 007a E2D0     		beq	.L116
 768:LWIP/Target/ethernetif.c ****       {
 1637              		.loc 1 768 7 is_stmt 1 view .LVU422
 768:LWIP/Target/ethernetif.c ****       {
 1638              		.loc 1 768 12 is_stmt 0 view .LVU423
 1639 007c 95F82D30 		ldrb	r3, [r5, #45]	@ zero_extendqisi2
 768:LWIP/Target/ethernetif.c ****       {
 1640              		.loc 1 768 10 view .LVU424
 1641 0080 13F0040F 		tst	r3, #4
 1642 0084 E2D1     		bne	.L117
 770:LWIP/Target/ethernetif.c ****         if (HAL_ETH_Start_IT(&heth) == HAL_OK)
 1643              		.loc 1 770 9 is_stmt 1 view .LVU425
 1644 0086 2046     		mov	r0, r4
 1645 0088 FFF7FEFF 		bl	LAN8720_ApplyLinkMode
 1646              	.LVL139:
 771:LWIP/Target/ethernetif.c ****         {
 1647              		.loc 1 771 9 view .LVU426
 771:LWIP/Target/ethernetif.c ****         {
 1648              		.loc 1 771 13 is_stmt 0 view .LVU427
 1649 008c 0D48     		ldr	r0, .L123+12
 1650 008e FFF7FEFF 		bl	HAL_ETH_Start_IT
 1651              	.LVL140:
 771:LWIP/Target/ethernetif.c ****         {
 1652              		.loc 1 771 12 discriminator 1 view .LVU428
 1653 0092 0028     		cmp	r0, #0
 1654 0094 D1D1     		bne	.L118
 773:LWIP/Target/ethernetif.c ****           printf("[eth] link up\r\n");
 1655              		.loc 1 773 11 is_stmt 1 view .LVU429
 1656 0096 2846     		mov	r0, r5
ARM GAS  C:\Users\hh\AppData\Local\Temp\ccCKtegN.s 			page 50


 1657 0098 FFF7FEFF 		bl	netif_set_link_up
 1658              	.LVL141:
 774:LWIP/Target/ethernetif.c ****         }
 1659              		.loc 1 774 11 view .LVU430
 1660 009c 0A48     		ldr	r0, .L123+16
 1661 009e FFF7FEFF 		bl	puts
 1662              	.LVL142:
 1663 00a2 D3E7     		b	.L117
 1664              	.L121:
 786:LWIP/Target/ethernetif.c ****         netif_set_link_down(netif);
 1665              		.loc 1 786 9 view .LVU431
 786:LWIP/Target/ethernetif.c ****         netif_set_link_down(netif);
 1666              		.loc 1 786 15 is_stmt 0 view .LVU432
 1667 00a4 0748     		ldr	r0, .L123+12
 1668 00a6 FFF7FEFF 		bl	HAL_ETH_Stop_IT
 1669              	.LVL143:
 787:LWIP/Target/ethernetif.c ****         printf("[eth] link down\r\n");
 1670              		.loc 1 787 9 is_stmt 1 view .LVU433
 1671 00aa 2846     		mov	r0, r5
 1672 00ac FFF7FEFF 		bl	netif_set_link_down
 1673              	.LVL144:
 788:LWIP/Target/ethernetif.c ****       }
 1674              		.loc 1 788 9 view .LVU434
 1675 00b0 0648     		ldr	r0, .L123+20
 1676 00b2 FFF7FEFF 		bl	puts
 1677              	.LVL145:
 1678 00b6 C9E7     		b	.L117
 1679              	.L124:
 1680              		.align	2
 1681              	.L123:
 1682 00b8 00000000 		.word	.LC12
 1683 00bc 38000000 		.word	.LC14
 1684 00c0 00000000 		.word	lan8720SoftwareResetDone
 1685 00c4 00000000 		.word	heth
 1686 00c8 28000000 		.word	.LC13
 1687 00cc 58000000 		.word	.LC15
 1688              	.LBE21:
 1689              		.cfi_endproc
 1690              	.LFE188:
 1692              		.section	.text.HAL_ETH_RxAllocateCallback,"ax",%progbits
 1693              		.align	1
 1694              		.global	HAL_ETH_RxAllocateCallback
 1695              		.syntax unified
 1696              		.thumb
 1697              		.thumb_func
 1699              	HAL_ETH_RxAllocateCallback:
 1700              	.LVL146:
 1701              	.LFB189:
 795:LWIP/Target/ethernetif.c ****   }
 796:LWIP/Target/ethernetif.c **** }
 797:LWIP/Target/ethernetif.c **** 
 798:LWIP/Target/ethernetif.c **** void HAL_ETH_RxAllocateCallback(uint8_t **buff)
 799:LWIP/Target/ethernetif.c **** {
 1702              		.loc 1 799 1 view -0
 1703              		.cfi_startproc
 1704              		@ args = 0, pretend = 0, frame = 0
 1705              		@ frame_needed = 0, uses_anonymous_args = 0
ARM GAS  C:\Users\hh\AppData\Local\Temp\ccCKtegN.s 			page 51


 1706              		.loc 1 799 1 is_stmt 0 view .LVU436
 1707 0000 10B5     		push	{r4, lr}
 1708              	.LCFI36:
 1709              		.cfi_def_cfa_offset 8
 1710              		.cfi_offset 4, -8
 1711              		.cfi_offset 14, -4
 1712 0002 82B0     		sub	sp, sp, #8
 1713              	.LCFI37:
 1714              		.cfi_def_cfa_offset 16
 1715 0004 0446     		mov	r4, r0
 800:LWIP/Target/ethernetif.c **** /* USER CODE BEGIN HAL ETH RxAllocateCallback */
 801:LWIP/Target/ethernetif.c ****   struct pbuf_custom *p = LWIP_MEMPOOL_ALLOC(RX_POOL);
 1716              		.loc 1 801 3 is_stmt 1 view .LVU437
 1717              		.loc 1 801 27 is_stmt 0 view .LVU438
 1718 0006 0D48     		ldr	r0, .L129
 1719              	.LVL147:
 1720              		.loc 1 801 27 view .LVU439
 1721 0008 FFF7FEFF 		bl	memp_malloc_pool
 1722              	.LVL148:
 802:LWIP/Target/ethernetif.c ****   if (p)
 1723              		.loc 1 802 3 is_stmt 1 view .LVU440
 1724              		.loc 1 802 6 is_stmt 0 view .LVU441
 1725 000c 88B1     		cbz	r0, .L126
 1726 000e 0346     		mov	r3, r0
 803:LWIP/Target/ethernetif.c ****   {
 804:LWIP/Target/ethernetif.c ****     /* Get the buff from the struct pbuf address. */
 805:LWIP/Target/ethernetif.c ****     *buff = (uint8_t *)p + offsetof(RxBuff_t, buff);
 1727              		.loc 1 805 5 is_stmt 1 view .LVU442
 1728              		.loc 1 805 26 is_stmt 0 view .LVU443
 1729 0010 00F12002 		add	r2, r0, #32
 1730              		.loc 1 805 11 view .LVU444
 1731 0014 2260     		str	r2, [r4]
 806:LWIP/Target/ethernetif.c ****     p->custom_free_function = pbuf_free_custom;
 1732              		.loc 1 806 5 is_stmt 1 view .LVU445
 1733              		.loc 1 806 29 is_stmt 0 view .LVU446
 1734 0016 0A4A     		ldr	r2, .L129+4
 1735 0018 0261     		str	r2, [r0, #16]
 807:LWIP/Target/ethernetif.c ****     /* Initialize the struct pbuf.
 808:LWIP/Target/ethernetif.c ****     * This must be performed whenever a buffer's allocated because it may be
 809:LWIP/Target/ethernetif.c ****     * changed by lwIP or the app, e.g., pbuf_free decrements ref. */
 810:LWIP/Target/ethernetif.c ****     pbuf_alloced_custom(PBUF_RAW, 0, PBUF_REF, p, *buff, ETH_RX_BUFFER_SIZE);
 1736              		.loc 1 810 5 is_stmt 1 view .LVU447
 1737 001a 4FF4C062 		mov	r2, #1536
 1738 001e 0192     		str	r2, [sp, #4]
 1739 0020 2268     		ldr	r2, [r4]
 1740 0022 0092     		str	r2, [sp]
 1741 0024 4122     		movs	r2, #65
 1742 0026 0021     		movs	r1, #0
 1743 0028 0846     		mov	r0, r1
 1744              	.LVL149:
 1745              		.loc 1 810 5 is_stmt 0 view .LVU448
 1746 002a FFF7FEFF 		bl	pbuf_alloced_custom
 1747              	.LVL150:
 1748              	.L125:
 811:LWIP/Target/ethernetif.c ****   }
 812:LWIP/Target/ethernetif.c ****   else
 813:LWIP/Target/ethernetif.c ****   {
ARM GAS  C:\Users\hh\AppData\Local\Temp\ccCKtegN.s 			page 52


 814:LWIP/Target/ethernetif.c ****     RxAllocStatus = RX_ALLOC_ERROR;
 815:LWIP/Target/ethernetif.c ****     *buff = NULL;
 816:LWIP/Target/ethernetif.c ****   }
 817:LWIP/Target/ethernetif.c **** /* USER CODE END HAL ETH RxAllocateCallback */
 818:LWIP/Target/ethernetif.c **** }
 1749              		.loc 1 818 1 view .LVU449
 1750 002e 02B0     		add	sp, sp, #8
 1751              	.LCFI38:
 1752              		.cfi_remember_state
 1753              		.cfi_def_cfa_offset 8
 1754              		@ sp needed
 1755 0030 10BD     		pop	{r4, pc}
 1756              	.LVL151:
 1757              	.L126:
 1758              	.LCFI39:
 1759              		.cfi_restore_state
 814:LWIP/Target/ethernetif.c ****     *buff = NULL;
 1760              		.loc 1 814 5 is_stmt 1 view .LVU450
 814:LWIP/Target/ethernetif.c ****     *buff = NULL;
 1761              		.loc 1 814 19 is_stmt 0 view .LVU451
 1762 0032 044B     		ldr	r3, .L129+8
 1763 0034 0122     		movs	r2, #1
 1764 0036 1A70     		strb	r2, [r3]
 815:LWIP/Target/ethernetif.c ****   }
 1765              		.loc 1 815 5 is_stmt 1 view .LVU452
 815:LWIP/Target/ethernetif.c ****   }
 1766              		.loc 1 815 11 is_stmt 0 view .LVU453
 1767 0038 2060     		str	r0, [r4]
 1768              		.loc 1 818 1 view .LVU454
 1769 003a F8E7     		b	.L125
 1770              	.L130:
 1771              		.align	2
 1772              	.L129:
 1773 003c 00000000 		.word	memp_RX_POOL
 1774 0040 00000000 		.word	pbuf_free_custom
 1775 0044 00000000 		.word	RxAllocStatus
 1776              		.cfi_endproc
 1777              	.LFE189:
 1779              		.section	.text.HAL_ETH_RxLinkCallback,"ax",%progbits
 1780              		.align	1
 1781              		.global	HAL_ETH_RxLinkCallback
 1782              		.syntax unified
 1783              		.thumb
 1784              		.thumb_func
 1786              	HAL_ETH_RxLinkCallback:
 1787              	.LVL152:
 1788              	.LFB190:
 819:LWIP/Target/ethernetif.c **** 
 820:LWIP/Target/ethernetif.c **** void HAL_ETH_RxLinkCallback(void **pStart, void **pEnd, uint8_t *buff, uint16_t Length)
 821:LWIP/Target/ethernetif.c **** {
 1789              		.loc 1 821 1 is_stmt 1 view -0
 1790              		.cfi_startproc
 1791              		@ args = 0, pretend = 0, frame = 0
 1792              		@ frame_needed = 0, uses_anonymous_args = 0
 1793              		.loc 1 821 1 is_stmt 0 view .LVU456
 1794 0000 10B5     		push	{r4, lr}
 1795              	.LCFI40:
ARM GAS  C:\Users\hh\AppData\Local\Temp\ccCKtegN.s 			page 53


 1796              		.cfi_def_cfa_offset 8
 1797              		.cfi_offset 4, -8
 1798              		.cfi_offset 14, -4
 822:LWIP/Target/ethernetif.c **** /* USER CODE BEGIN HAL ETH RxLinkCallback */
 823:LWIP/Target/ethernetif.c **** 
 824:LWIP/Target/ethernetif.c ****   struct pbuf **ppStart = (struct pbuf **)pStart;
 1799              		.loc 1 824 3 is_stmt 1 view .LVU457
 1800              	.LVL153:
 825:LWIP/Target/ethernetif.c ****   struct pbuf **ppEnd = (struct pbuf **)pEnd;
 1801              		.loc 1 825 3 view .LVU458
 826:LWIP/Target/ethernetif.c ****   struct pbuf *p = NULL;
 1802              		.loc 1 826 3 view .LVU459
 827:LWIP/Target/ethernetif.c **** 
 828:LWIP/Target/ethernetif.c ****   /* Get the struct pbuf from the buff address. */
 829:LWIP/Target/ethernetif.c ****   p = (struct pbuf *)(buff - offsetof(RxBuff_t, buff));
 1803              		.loc 1 829 3 view .LVU460
 1804              		.loc 1 829 5 is_stmt 0 view .LVU461
 1805 0002 A2F1200C 		sub	ip, r2, #32
 1806              	.LVL154:
 830:LWIP/Target/ethernetif.c ****   p->next = NULL;
 1807              		.loc 1 830 3 is_stmt 1 view .LVU462
 1808              		.loc 1 830 11 is_stmt 0 view .LVU463
 1809 0006 4FF0000E 		mov	lr, #0
 1810 000a 42F820EC 		str	lr, [r2, #-32]
 831:LWIP/Target/ethernetif.c ****   p->tot_len = 0;
 1811              		.loc 1 831 3 is_stmt 1 view .LVU464
 1812              		.loc 1 831 14 is_stmt 0 view .LVU465
 1813 000e 22F818EC 		strh	lr, [r2, #-24]	@ movhi
 832:LWIP/Target/ethernetif.c ****   p->len = Length;
 1814              		.loc 1 832 3 is_stmt 1 view .LVU466
 1815              		.loc 1 832 10 is_stmt 0 view .LVU467
 1816 0012 22F8163C 		strh	r3, [r2, #-22]	@ movhi
 833:LWIP/Target/ethernetif.c **** 
 834:LWIP/Target/ethernetif.c ****   /* Chain the buffer. */
 835:LWIP/Target/ethernetif.c ****   if (!*ppStart)
 1817              		.loc 1 835 3 is_stmt 1 view .LVU468
 1818              		.loc 1 835 6 is_stmt 0 view .LVU469
 1819 0016 0468     		ldr	r4, [r0]
 1820 0018 34B1     		cbz	r4, .L139
 836:LWIP/Target/ethernetif.c ****   {
 837:LWIP/Target/ethernetif.c ****     /* The first buffer of the packet. */
 838:LWIP/Target/ethernetif.c ****     *ppStart = p;
 839:LWIP/Target/ethernetif.c ****   }
 840:LWIP/Target/ethernetif.c ****   else
 841:LWIP/Target/ethernetif.c ****   {
 842:LWIP/Target/ethernetif.c ****     /* Chain the buffer to the end of the packet. */
 843:LWIP/Target/ethernetif.c ****     (*ppEnd)->next = p;
 1821              		.loc 1 843 5 is_stmt 1 view .LVU470
 1822              		.loc 1 843 20 is_stmt 0 view .LVU471
 1823 001a 0C68     		ldr	r4, [r1]
 1824 001c C4F800C0 		str	ip, [r4]
 1825              	.L133:
 844:LWIP/Target/ethernetif.c ****   }
 845:LWIP/Target/ethernetif.c ****   *ppEnd  = p;
 1826              		.loc 1 845 3 is_stmt 1 view .LVU472
 1827              		.loc 1 845 11 is_stmt 0 view .LVU473
 1828 0020 C1F800C0 		str	ip, [r1]
ARM GAS  C:\Users\hh\AppData\Local\Temp\ccCKtegN.s 			page 54


 846:LWIP/Target/ethernetif.c **** 
 847:LWIP/Target/ethernetif.c ****   /* Update the total length of all the buffers of the chain. Each pbuf in the chain should have it
 848:LWIP/Target/ethernetif.c ****    * set to its own length, plus the length of all the following pbufs in the chain. */
 849:LWIP/Target/ethernetif.c ****   for (p = *ppStart; p != NULL; p = p->next)
 1829              		.loc 1 849 3 is_stmt 1 view .LVU474
 1830              		.loc 1 849 10 is_stmt 0 view .LVU475
 1831 0024 0168     		ldr	r1, [r0]
 1832              	.LVL155:
 1833              		.loc 1 849 3 view .LVU476
 1834 0026 06E0     		b	.L134
 1835              	.LVL156:
 1836              	.L139:
 838:LWIP/Target/ethernetif.c ****   }
 1837              		.loc 1 838 5 is_stmt 1 view .LVU477
 838:LWIP/Target/ethernetif.c ****   }
 1838              		.loc 1 838 14 is_stmt 0 view .LVU478
 1839 0028 C0F800C0 		str	ip, [r0]
 1840 002c F8E7     		b	.L133
 1841              	.LVL157:
 1842              	.L135:
 850:LWIP/Target/ethernetif.c ****   {
 851:LWIP/Target/ethernetif.c ****     p->tot_len += Length;
 1843              		.loc 1 851 5 is_stmt 1 view .LVU479
 1844              		.loc 1 851 6 is_stmt 0 view .LVU480
 1845 002e 0889     		ldrh	r0, [r1, #8]
 1846              		.loc 1 851 16 view .LVU481
 1847 0030 1844     		add	r0, r0, r3
 1848 0032 0881     		strh	r0, [r1, #8]	@ movhi
 849:LWIP/Target/ethernetif.c ****   {
 1849              		.loc 1 849 35 is_stmt 1 discriminator 3 view .LVU482
 1850 0034 0968     		ldr	r1, [r1]
 1851              	.LVL158:
 1852              	.L134:
 849:LWIP/Target/ethernetif.c ****   {
 1853              		.loc 1 849 24 discriminator 1 view .LVU483
 1854 0036 0029     		cmp	r1, #0
 1855 0038 F9D1     		bne	.L135
 852:LWIP/Target/ethernetif.c ****   }
 853:LWIP/Target/ethernetif.c **** 
 854:LWIP/Target/ethernetif.c ****   /* Invalidate data cache because Rx DMA's writing to physical memory makes it stale. */
 855:LWIP/Target/ethernetif.c ****   SCB_InvalidateDCache_by_Addr((uint32_t *)buff, Length);
 1856              		.loc 1 855 3 view .LVU484
 1857              	.LVL159:
 1858              	.LBB22:
 1859              	.LBI22:
 1860              		.file 2 "Drivers/CMSIS/Include/cachel1_armv7.h"
   1:Drivers/CMSIS/Include/cachel1_armv7.h **** /******************************************************************************
   2:Drivers/CMSIS/Include/cachel1_armv7.h ****  * @file     cachel1_armv7.h
   3:Drivers/CMSIS/Include/cachel1_armv7.h ****  * @brief    CMSIS Level 1 Cache API for Armv7-M and later
   4:Drivers/CMSIS/Include/cachel1_armv7.h ****  * @version  V1.0.3
   5:Drivers/CMSIS/Include/cachel1_armv7.h ****  * @date     17. March 2023
   6:Drivers/CMSIS/Include/cachel1_armv7.h ****  ******************************************************************************/
   7:Drivers/CMSIS/Include/cachel1_armv7.h **** /*
   8:Drivers/CMSIS/Include/cachel1_armv7.h ****  * Copyright (c) 2020-2021 Arm Limited. All rights reserved.
   9:Drivers/CMSIS/Include/cachel1_armv7.h ****  *
  10:Drivers/CMSIS/Include/cachel1_armv7.h ****  * SPDX-License-Identifier: Apache-2.0
  11:Drivers/CMSIS/Include/cachel1_armv7.h ****  *
ARM GAS  C:\Users\hh\AppData\Local\Temp\ccCKtegN.s 			page 55


  12:Drivers/CMSIS/Include/cachel1_armv7.h ****  * Licensed under the Apache License, Version 2.0 (the License); you may
  13:Drivers/CMSIS/Include/cachel1_armv7.h ****  * not use this file except in compliance with the License.
  14:Drivers/CMSIS/Include/cachel1_armv7.h ****  * You may obtain a copy of the License at
  15:Drivers/CMSIS/Include/cachel1_armv7.h ****  *
  16:Drivers/CMSIS/Include/cachel1_armv7.h ****  * www.apache.org/licenses/LICENSE-2.0
  17:Drivers/CMSIS/Include/cachel1_armv7.h ****  *
  18:Drivers/CMSIS/Include/cachel1_armv7.h ****  * Unless required by applicable law or agreed to in writing, software
  19:Drivers/CMSIS/Include/cachel1_armv7.h ****  * distributed under the License is distributed on an AS IS BASIS, WITHOUT
  20:Drivers/CMSIS/Include/cachel1_armv7.h ****  * WARRANTIES OR CONDITIONS OF ANY KIND, either express or implied.
  21:Drivers/CMSIS/Include/cachel1_armv7.h ****  * See the License for the specific language governing permissions and
  22:Drivers/CMSIS/Include/cachel1_armv7.h ****  * limitations under the License.
  23:Drivers/CMSIS/Include/cachel1_armv7.h ****  */
  24:Drivers/CMSIS/Include/cachel1_armv7.h **** 
  25:Drivers/CMSIS/Include/cachel1_armv7.h **** #if   defined ( __ICCARM__ )
  26:Drivers/CMSIS/Include/cachel1_armv7.h ****   #pragma system_include         /* treat file as system include file for MISRA check */
  27:Drivers/CMSIS/Include/cachel1_armv7.h **** #elif defined (__clang__)
  28:Drivers/CMSIS/Include/cachel1_armv7.h ****   #pragma clang system_header    /* treat file as system include file */
  29:Drivers/CMSIS/Include/cachel1_armv7.h **** #endif
  30:Drivers/CMSIS/Include/cachel1_armv7.h **** 
  31:Drivers/CMSIS/Include/cachel1_armv7.h **** #ifndef ARM_CACHEL1_ARMV7_H
  32:Drivers/CMSIS/Include/cachel1_armv7.h **** #define ARM_CACHEL1_ARMV7_H
  33:Drivers/CMSIS/Include/cachel1_armv7.h **** 
  34:Drivers/CMSIS/Include/cachel1_armv7.h **** /**
  35:Drivers/CMSIS/Include/cachel1_armv7.h ****   \ingroup  CMSIS_Core_FunctionInterface
  36:Drivers/CMSIS/Include/cachel1_armv7.h ****   \defgroup CMSIS_Core_CacheFunctions Cache Functions
  37:Drivers/CMSIS/Include/cachel1_armv7.h ****   \brief    Functions that configure Instruction and Data cache.
  38:Drivers/CMSIS/Include/cachel1_armv7.h ****   @{
  39:Drivers/CMSIS/Include/cachel1_armv7.h ****  */
  40:Drivers/CMSIS/Include/cachel1_armv7.h **** 
  41:Drivers/CMSIS/Include/cachel1_armv7.h **** /* Cache Size ID Register Macros */
  42:Drivers/CMSIS/Include/cachel1_armv7.h **** #define CCSIDR_WAYS(x)         (((x) & SCB_CCSIDR_ASSOCIATIVITY_Msk) >> SCB_CCSIDR_ASSOCIATIVITY_Po
  43:Drivers/CMSIS/Include/cachel1_armv7.h **** #define CCSIDR_SETS(x)         (((x) & SCB_CCSIDR_NUMSETS_Msk      ) >> SCB_CCSIDR_NUMSETS_Pos     
  44:Drivers/CMSIS/Include/cachel1_armv7.h **** 
  45:Drivers/CMSIS/Include/cachel1_armv7.h **** #ifndef __SCB_DCACHE_LINE_SIZE
  46:Drivers/CMSIS/Include/cachel1_armv7.h **** #define __SCB_DCACHE_LINE_SIZE  32U /*!< Cortex-M7 cache line size is fixed to 32 bytes (8 words). 
  47:Drivers/CMSIS/Include/cachel1_armv7.h **** #endif
  48:Drivers/CMSIS/Include/cachel1_armv7.h **** 
  49:Drivers/CMSIS/Include/cachel1_armv7.h **** #ifndef __SCB_ICACHE_LINE_SIZE
  50:Drivers/CMSIS/Include/cachel1_armv7.h **** #define __SCB_ICACHE_LINE_SIZE  32U /*!< Cortex-M7 cache line size is fixed to 32 bytes (8 words). 
  51:Drivers/CMSIS/Include/cachel1_armv7.h **** #endif
  52:Drivers/CMSIS/Include/cachel1_armv7.h **** 
  53:Drivers/CMSIS/Include/cachel1_armv7.h **** /**
  54:Drivers/CMSIS/Include/cachel1_armv7.h ****   \brief   Enable I-Cache
  55:Drivers/CMSIS/Include/cachel1_armv7.h ****   \details Turns on I-Cache
  56:Drivers/CMSIS/Include/cachel1_armv7.h ****   */
  57:Drivers/CMSIS/Include/cachel1_armv7.h **** __STATIC_FORCEINLINE void SCB_EnableICache (void)
  58:Drivers/CMSIS/Include/cachel1_armv7.h **** {
  59:Drivers/CMSIS/Include/cachel1_armv7.h ****   #if defined (__ICACHE_PRESENT) && (__ICACHE_PRESENT == 1U)
  60:Drivers/CMSIS/Include/cachel1_armv7.h ****     if (SCB->CCR & SCB_CCR_IC_Msk) return;  /* return if ICache is already enabled */
  61:Drivers/CMSIS/Include/cachel1_armv7.h **** 
  62:Drivers/CMSIS/Include/cachel1_armv7.h ****     __DSB();
  63:Drivers/CMSIS/Include/cachel1_armv7.h ****     __ISB();
  64:Drivers/CMSIS/Include/cachel1_armv7.h ****     SCB->ICIALLU = 0UL;                     /* invalidate I-Cache */
  65:Drivers/CMSIS/Include/cachel1_armv7.h ****     __DSB();
  66:Drivers/CMSIS/Include/cachel1_armv7.h ****     __ISB();
  67:Drivers/CMSIS/Include/cachel1_armv7.h ****     SCB->CCR |=  (uint32_t)SCB_CCR_IC_Msk;  /* enable I-Cache */
  68:Drivers/CMSIS/Include/cachel1_armv7.h ****     __DSB();
ARM GAS  C:\Users\hh\AppData\Local\Temp\ccCKtegN.s 			page 56


  69:Drivers/CMSIS/Include/cachel1_armv7.h ****     __ISB();
  70:Drivers/CMSIS/Include/cachel1_armv7.h ****   #endif
  71:Drivers/CMSIS/Include/cachel1_armv7.h **** }
  72:Drivers/CMSIS/Include/cachel1_armv7.h **** 
  73:Drivers/CMSIS/Include/cachel1_armv7.h **** 
  74:Drivers/CMSIS/Include/cachel1_armv7.h **** /**
  75:Drivers/CMSIS/Include/cachel1_armv7.h ****   \brief   Disable I-Cache
  76:Drivers/CMSIS/Include/cachel1_armv7.h ****   \details Turns off I-Cache
  77:Drivers/CMSIS/Include/cachel1_armv7.h ****   */
  78:Drivers/CMSIS/Include/cachel1_armv7.h **** __STATIC_FORCEINLINE void SCB_DisableICache (void)
  79:Drivers/CMSIS/Include/cachel1_armv7.h **** {
  80:Drivers/CMSIS/Include/cachel1_armv7.h ****   #if defined (__ICACHE_PRESENT) && (__ICACHE_PRESENT == 1U)
  81:Drivers/CMSIS/Include/cachel1_armv7.h ****     __DSB();
  82:Drivers/CMSIS/Include/cachel1_armv7.h ****     __ISB();
  83:Drivers/CMSIS/Include/cachel1_armv7.h ****     SCB->CCR &= ~(uint32_t)SCB_CCR_IC_Msk;  /* disable I-Cache */
  84:Drivers/CMSIS/Include/cachel1_armv7.h ****     SCB->ICIALLU = 0UL;                     /* invalidate I-Cache */
  85:Drivers/CMSIS/Include/cachel1_armv7.h ****     __DSB();
  86:Drivers/CMSIS/Include/cachel1_armv7.h ****     __ISB();
  87:Drivers/CMSIS/Include/cachel1_armv7.h ****   #endif
  88:Drivers/CMSIS/Include/cachel1_armv7.h **** }
  89:Drivers/CMSIS/Include/cachel1_armv7.h **** 
  90:Drivers/CMSIS/Include/cachel1_armv7.h **** 
  91:Drivers/CMSIS/Include/cachel1_armv7.h **** /**
  92:Drivers/CMSIS/Include/cachel1_armv7.h ****   \brief   Invalidate I-Cache
  93:Drivers/CMSIS/Include/cachel1_armv7.h ****   \details Invalidates I-Cache
  94:Drivers/CMSIS/Include/cachel1_armv7.h ****   */
  95:Drivers/CMSIS/Include/cachel1_armv7.h **** __STATIC_FORCEINLINE void SCB_InvalidateICache (void)
  96:Drivers/CMSIS/Include/cachel1_armv7.h **** {
  97:Drivers/CMSIS/Include/cachel1_armv7.h ****   #if defined (__ICACHE_PRESENT) && (__ICACHE_PRESENT == 1U)
  98:Drivers/CMSIS/Include/cachel1_armv7.h ****     __DSB();
  99:Drivers/CMSIS/Include/cachel1_armv7.h ****     __ISB();
 100:Drivers/CMSIS/Include/cachel1_armv7.h ****     SCB->ICIALLU = 0UL;
 101:Drivers/CMSIS/Include/cachel1_armv7.h ****     __DSB();
 102:Drivers/CMSIS/Include/cachel1_armv7.h ****     __ISB();
 103:Drivers/CMSIS/Include/cachel1_armv7.h ****   #endif
 104:Drivers/CMSIS/Include/cachel1_armv7.h **** }
 105:Drivers/CMSIS/Include/cachel1_armv7.h **** 
 106:Drivers/CMSIS/Include/cachel1_armv7.h **** 
 107:Drivers/CMSIS/Include/cachel1_armv7.h **** /**
 108:Drivers/CMSIS/Include/cachel1_armv7.h ****   \brief   I-Cache Invalidate by address
 109:Drivers/CMSIS/Include/cachel1_armv7.h ****   \details Invalidates I-Cache for the given address.
 110:Drivers/CMSIS/Include/cachel1_armv7.h ****            I-Cache is invalidated starting from a 32 byte aligned address in 32 byte granularity.
 111:Drivers/CMSIS/Include/cachel1_armv7.h ****            I-Cache memory blocks which are part of given address + given size are invalidated.
 112:Drivers/CMSIS/Include/cachel1_armv7.h ****   \param[in]   addr    address
 113:Drivers/CMSIS/Include/cachel1_armv7.h ****   \param[in]   isize   size of memory block (in number of bytes)
 114:Drivers/CMSIS/Include/cachel1_armv7.h **** */
 115:Drivers/CMSIS/Include/cachel1_armv7.h **** __STATIC_FORCEINLINE void SCB_InvalidateICache_by_Addr (volatile void *addr, int32_t isize)
 116:Drivers/CMSIS/Include/cachel1_armv7.h **** {
 117:Drivers/CMSIS/Include/cachel1_armv7.h ****   #if defined (__ICACHE_PRESENT) && (__ICACHE_PRESENT == 1U)
 118:Drivers/CMSIS/Include/cachel1_armv7.h ****     if ( isize > 0 ) {
 119:Drivers/CMSIS/Include/cachel1_armv7.h ****        int32_t op_size = isize + (((uint32_t)addr) & (__SCB_ICACHE_LINE_SIZE - 1U));
 120:Drivers/CMSIS/Include/cachel1_armv7.h ****       uint32_t op_addr = (uint32_t)addr /* & ~(__SCB_ICACHE_LINE_SIZE - 1U) */;
 121:Drivers/CMSIS/Include/cachel1_armv7.h **** 
 122:Drivers/CMSIS/Include/cachel1_armv7.h ****       __DSB();
 123:Drivers/CMSIS/Include/cachel1_armv7.h **** 
 124:Drivers/CMSIS/Include/cachel1_armv7.h ****       do {
 125:Drivers/CMSIS/Include/cachel1_armv7.h ****         SCB->ICIMVAU = op_addr;             /* register accepts only 32byte aligned values, only bi
ARM GAS  C:\Users\hh\AppData\Local\Temp\ccCKtegN.s 			page 57


 126:Drivers/CMSIS/Include/cachel1_armv7.h ****         op_addr += __SCB_ICACHE_LINE_SIZE;
 127:Drivers/CMSIS/Include/cachel1_armv7.h ****         op_size -= __SCB_ICACHE_LINE_SIZE;
 128:Drivers/CMSIS/Include/cachel1_armv7.h ****       } while ( op_size > 0 );
 129:Drivers/CMSIS/Include/cachel1_armv7.h **** 
 130:Drivers/CMSIS/Include/cachel1_armv7.h ****       __DSB();
 131:Drivers/CMSIS/Include/cachel1_armv7.h ****       __ISB();
 132:Drivers/CMSIS/Include/cachel1_armv7.h ****     }
 133:Drivers/CMSIS/Include/cachel1_armv7.h ****   #endif
 134:Drivers/CMSIS/Include/cachel1_armv7.h **** }
 135:Drivers/CMSIS/Include/cachel1_armv7.h **** 
 136:Drivers/CMSIS/Include/cachel1_armv7.h **** 
 137:Drivers/CMSIS/Include/cachel1_armv7.h **** /**
 138:Drivers/CMSIS/Include/cachel1_armv7.h ****   \brief   Enable D-Cache
 139:Drivers/CMSIS/Include/cachel1_armv7.h ****   \details Turns on D-Cache
 140:Drivers/CMSIS/Include/cachel1_armv7.h ****   */
 141:Drivers/CMSIS/Include/cachel1_armv7.h **** __STATIC_FORCEINLINE void SCB_EnableDCache (void)
 142:Drivers/CMSIS/Include/cachel1_armv7.h **** {
 143:Drivers/CMSIS/Include/cachel1_armv7.h ****   #if defined (__DCACHE_PRESENT) && (__DCACHE_PRESENT == 1U)
 144:Drivers/CMSIS/Include/cachel1_armv7.h ****     uint32_t ccsidr;
 145:Drivers/CMSIS/Include/cachel1_armv7.h ****     uint32_t sets;
 146:Drivers/CMSIS/Include/cachel1_armv7.h ****     uint32_t ways;
 147:Drivers/CMSIS/Include/cachel1_armv7.h **** 
 148:Drivers/CMSIS/Include/cachel1_armv7.h ****     if (SCB->CCR & SCB_CCR_DC_Msk) return;  /* return if DCache is already enabled */
 149:Drivers/CMSIS/Include/cachel1_armv7.h **** 
 150:Drivers/CMSIS/Include/cachel1_armv7.h ****     SCB->CSSELR = 0U;                       /* select Level 1 data cache */
 151:Drivers/CMSIS/Include/cachel1_armv7.h ****     __DSB();
 152:Drivers/CMSIS/Include/cachel1_armv7.h **** 
 153:Drivers/CMSIS/Include/cachel1_armv7.h ****     ccsidr = SCB->CCSIDR;
 154:Drivers/CMSIS/Include/cachel1_armv7.h **** 
 155:Drivers/CMSIS/Include/cachel1_armv7.h ****                                             /* invalidate D-Cache */
 156:Drivers/CMSIS/Include/cachel1_armv7.h ****     sets = (uint32_t)(CCSIDR_SETS(ccsidr));
 157:Drivers/CMSIS/Include/cachel1_armv7.h ****     do {
 158:Drivers/CMSIS/Include/cachel1_armv7.h ****       ways = (uint32_t)(CCSIDR_WAYS(ccsidr));
 159:Drivers/CMSIS/Include/cachel1_armv7.h ****       do {
 160:Drivers/CMSIS/Include/cachel1_armv7.h ****         SCB->DCISW = (((sets << SCB_DCISW_SET_Pos) & SCB_DCISW_SET_Msk) |
 161:Drivers/CMSIS/Include/cachel1_armv7.h ****                       ((ways << SCB_DCISW_WAY_Pos) & SCB_DCISW_WAY_Msk)  );
 162:Drivers/CMSIS/Include/cachel1_armv7.h ****         #if defined ( __CC_ARM )
 163:Drivers/CMSIS/Include/cachel1_armv7.h ****           __schedule_barrier();
 164:Drivers/CMSIS/Include/cachel1_armv7.h ****         #endif
 165:Drivers/CMSIS/Include/cachel1_armv7.h ****       } while (ways-- != 0U);
 166:Drivers/CMSIS/Include/cachel1_armv7.h ****     } while(sets-- != 0U);
 167:Drivers/CMSIS/Include/cachel1_armv7.h ****     __DSB();
 168:Drivers/CMSIS/Include/cachel1_armv7.h **** 
 169:Drivers/CMSIS/Include/cachel1_armv7.h ****     SCB->CCR |=  (uint32_t)SCB_CCR_DC_Msk;  /* enable D-Cache */
 170:Drivers/CMSIS/Include/cachel1_armv7.h **** 
 171:Drivers/CMSIS/Include/cachel1_armv7.h ****     __DSB();
 172:Drivers/CMSIS/Include/cachel1_armv7.h ****     __ISB();
 173:Drivers/CMSIS/Include/cachel1_armv7.h ****   #endif
 174:Drivers/CMSIS/Include/cachel1_armv7.h **** }
 175:Drivers/CMSIS/Include/cachel1_armv7.h **** 
 176:Drivers/CMSIS/Include/cachel1_armv7.h **** 
 177:Drivers/CMSIS/Include/cachel1_armv7.h **** /**
 178:Drivers/CMSIS/Include/cachel1_armv7.h ****   \brief   Disable D-Cache
 179:Drivers/CMSIS/Include/cachel1_armv7.h ****   \details Turns off D-Cache
 180:Drivers/CMSIS/Include/cachel1_armv7.h ****   */
 181:Drivers/CMSIS/Include/cachel1_armv7.h **** __STATIC_FORCEINLINE void SCB_DisableDCache (void)
 182:Drivers/CMSIS/Include/cachel1_armv7.h **** {
ARM GAS  C:\Users\hh\AppData\Local\Temp\ccCKtegN.s 			page 58


 183:Drivers/CMSIS/Include/cachel1_armv7.h ****   #if defined (__DCACHE_PRESENT) && (__DCACHE_PRESENT == 1U)
 184:Drivers/CMSIS/Include/cachel1_armv7.h ****     struct {
 185:Drivers/CMSIS/Include/cachel1_armv7.h ****     uint32_t ccsidr;
 186:Drivers/CMSIS/Include/cachel1_armv7.h ****     uint32_t sets;
 187:Drivers/CMSIS/Include/cachel1_armv7.h ****     uint32_t ways;
 188:Drivers/CMSIS/Include/cachel1_armv7.h ****     } locals
 189:Drivers/CMSIS/Include/cachel1_armv7.h ****     #if ((defined(__GNUC__) || defined(__clang__)) && !defined(__OPTIMIZE__))
 190:Drivers/CMSIS/Include/cachel1_armv7.h ****        __ALIGNED(__SCB_DCACHE_LINE_SIZE)
 191:Drivers/CMSIS/Include/cachel1_armv7.h ****     #endif
 192:Drivers/CMSIS/Include/cachel1_armv7.h ****     ;
 193:Drivers/CMSIS/Include/cachel1_armv7.h **** 
 194:Drivers/CMSIS/Include/cachel1_armv7.h ****     SCB->CSSELR = 0U;                       /* select Level 1 data cache */
 195:Drivers/CMSIS/Include/cachel1_armv7.h ****     __DSB();
 196:Drivers/CMSIS/Include/cachel1_armv7.h **** 
 197:Drivers/CMSIS/Include/cachel1_armv7.h ****     SCB->CCR &= ~(uint32_t)SCB_CCR_DC_Msk;  /* disable D-Cache */
 198:Drivers/CMSIS/Include/cachel1_armv7.h ****     __DSB();
 199:Drivers/CMSIS/Include/cachel1_armv7.h **** 
 200:Drivers/CMSIS/Include/cachel1_armv7.h ****     #if !defined(__OPTIMIZE__)
 201:Drivers/CMSIS/Include/cachel1_armv7.h ****       /*
 202:Drivers/CMSIS/Include/cachel1_armv7.h ****        * For the endless loop issue with no optimization builds.
 203:Drivers/CMSIS/Include/cachel1_armv7.h ****        * More details, see https://github.com/ARM-software/CMSIS_5/issues/620
 204:Drivers/CMSIS/Include/cachel1_armv7.h ****        *
 205:Drivers/CMSIS/Include/cachel1_armv7.h ****        * The issue only happens when local variables are in stack. If
 206:Drivers/CMSIS/Include/cachel1_armv7.h ****        * local variables are saved in general purpose register, then the function
 207:Drivers/CMSIS/Include/cachel1_armv7.h ****        * is OK.
 208:Drivers/CMSIS/Include/cachel1_armv7.h ****        *
 209:Drivers/CMSIS/Include/cachel1_armv7.h ****        * When local variables are in stack, after disabling the cache, flush the
 210:Drivers/CMSIS/Include/cachel1_armv7.h ****        * local variables cache line for data consistency.
 211:Drivers/CMSIS/Include/cachel1_armv7.h ****        */
 212:Drivers/CMSIS/Include/cachel1_armv7.h ****       /* Clean and invalidate the local variable cache. */
 213:Drivers/CMSIS/Include/cachel1_armv7.h ****     #if defined(__ICCARM__)
 214:Drivers/CMSIS/Include/cachel1_armv7.h ****     /* As we can't align the stack to the cache line size, invalidate each of the variables */
 215:Drivers/CMSIS/Include/cachel1_armv7.h ****       SCB->DCCIMVAC = (uint32_t)&locals.sets;
 216:Drivers/CMSIS/Include/cachel1_armv7.h ****       SCB->DCCIMVAC = (uint32_t)&locals.ways;
 217:Drivers/CMSIS/Include/cachel1_armv7.h ****       SCB->DCCIMVAC = (uint32_t)&locals.ccsidr;
 218:Drivers/CMSIS/Include/cachel1_armv7.h ****     #else
 219:Drivers/CMSIS/Include/cachel1_armv7.h ****       SCB->DCCIMVAC = (uint32_t)&locals;
 220:Drivers/CMSIS/Include/cachel1_armv7.h ****     #endif
 221:Drivers/CMSIS/Include/cachel1_armv7.h ****       __DSB();
 222:Drivers/CMSIS/Include/cachel1_armv7.h ****       __ISB();
 223:Drivers/CMSIS/Include/cachel1_armv7.h ****     #endif
 224:Drivers/CMSIS/Include/cachel1_armv7.h **** 
 225:Drivers/CMSIS/Include/cachel1_armv7.h ****     locals.ccsidr = SCB->CCSIDR;
 226:Drivers/CMSIS/Include/cachel1_armv7.h ****                                             /* clean & invalidate D-Cache */
 227:Drivers/CMSIS/Include/cachel1_armv7.h ****     locals.sets = (uint32_t)(CCSIDR_SETS(locals.ccsidr));
 228:Drivers/CMSIS/Include/cachel1_armv7.h ****     do {
 229:Drivers/CMSIS/Include/cachel1_armv7.h ****       locals.ways = (uint32_t)(CCSIDR_WAYS(locals.ccsidr));
 230:Drivers/CMSIS/Include/cachel1_armv7.h ****       do {
 231:Drivers/CMSIS/Include/cachel1_armv7.h ****         SCB->DCCISW = (((locals.sets << SCB_DCCISW_SET_Pos) & SCB_DCCISW_SET_Msk) |
 232:Drivers/CMSIS/Include/cachel1_armv7.h ****                        ((locals.ways << SCB_DCCISW_WAY_Pos) & SCB_DCCISW_WAY_Msk)  );
 233:Drivers/CMSIS/Include/cachel1_armv7.h ****         #if defined ( __CC_ARM )
 234:Drivers/CMSIS/Include/cachel1_armv7.h ****           __schedule_barrier();
 235:Drivers/CMSIS/Include/cachel1_armv7.h ****         #endif
 236:Drivers/CMSIS/Include/cachel1_armv7.h ****       } while (locals.ways-- != 0U);
 237:Drivers/CMSIS/Include/cachel1_armv7.h ****     } while(locals.sets-- != 0U);
 238:Drivers/CMSIS/Include/cachel1_armv7.h **** 
 239:Drivers/CMSIS/Include/cachel1_armv7.h ****     __DSB();
ARM GAS  C:\Users\hh\AppData\Local\Temp\ccCKtegN.s 			page 59


 240:Drivers/CMSIS/Include/cachel1_armv7.h ****     __ISB();
 241:Drivers/CMSIS/Include/cachel1_armv7.h ****   #endif
 242:Drivers/CMSIS/Include/cachel1_armv7.h **** }
 243:Drivers/CMSIS/Include/cachel1_armv7.h **** 
 244:Drivers/CMSIS/Include/cachel1_armv7.h **** 
 245:Drivers/CMSIS/Include/cachel1_armv7.h **** /**
 246:Drivers/CMSIS/Include/cachel1_armv7.h ****   \brief   Invalidate D-Cache
 247:Drivers/CMSIS/Include/cachel1_armv7.h ****   \details Invalidates D-Cache
 248:Drivers/CMSIS/Include/cachel1_armv7.h ****   */
 249:Drivers/CMSIS/Include/cachel1_armv7.h **** __STATIC_FORCEINLINE void SCB_InvalidateDCache (void)
 250:Drivers/CMSIS/Include/cachel1_armv7.h **** {
 251:Drivers/CMSIS/Include/cachel1_armv7.h ****   #if defined (__DCACHE_PRESENT) && (__DCACHE_PRESENT == 1U)
 252:Drivers/CMSIS/Include/cachel1_armv7.h ****     uint32_t ccsidr;
 253:Drivers/CMSIS/Include/cachel1_armv7.h ****     uint32_t sets;
 254:Drivers/CMSIS/Include/cachel1_armv7.h ****     uint32_t ways;
 255:Drivers/CMSIS/Include/cachel1_armv7.h **** 
 256:Drivers/CMSIS/Include/cachel1_armv7.h ****     SCB->CSSELR = 0U;                       /* select Level 1 data cache */
 257:Drivers/CMSIS/Include/cachel1_armv7.h ****     __DSB();
 258:Drivers/CMSIS/Include/cachel1_armv7.h **** 
 259:Drivers/CMSIS/Include/cachel1_armv7.h ****     ccsidr = SCB->CCSIDR;
 260:Drivers/CMSIS/Include/cachel1_armv7.h **** 
 261:Drivers/CMSIS/Include/cachel1_armv7.h ****                                             /* invalidate D-Cache */
 262:Drivers/CMSIS/Include/cachel1_armv7.h ****     sets = (uint32_t)(CCSIDR_SETS(ccsidr));
 263:Drivers/CMSIS/Include/cachel1_armv7.h ****     do {
 264:Drivers/CMSIS/Include/cachel1_armv7.h ****       ways = (uint32_t)(CCSIDR_WAYS(ccsidr));
 265:Drivers/CMSIS/Include/cachel1_armv7.h ****       do {
 266:Drivers/CMSIS/Include/cachel1_armv7.h ****         SCB->DCISW = (((sets << SCB_DCISW_SET_Pos) & SCB_DCISW_SET_Msk) |
 267:Drivers/CMSIS/Include/cachel1_armv7.h ****                       ((ways << SCB_DCISW_WAY_Pos) & SCB_DCISW_WAY_Msk)  );
 268:Drivers/CMSIS/Include/cachel1_armv7.h ****         #if defined ( __CC_ARM )
 269:Drivers/CMSIS/Include/cachel1_armv7.h ****           __schedule_barrier();
 270:Drivers/CMSIS/Include/cachel1_armv7.h ****         #endif
 271:Drivers/CMSIS/Include/cachel1_armv7.h ****       } while (ways-- != 0U);
 272:Drivers/CMSIS/Include/cachel1_armv7.h ****     } while(sets-- != 0U);
 273:Drivers/CMSIS/Include/cachel1_armv7.h **** 
 274:Drivers/CMSIS/Include/cachel1_armv7.h ****     __DSB();
 275:Drivers/CMSIS/Include/cachel1_armv7.h ****     __ISB();
 276:Drivers/CMSIS/Include/cachel1_armv7.h ****   #endif
 277:Drivers/CMSIS/Include/cachel1_armv7.h **** }
 278:Drivers/CMSIS/Include/cachel1_armv7.h **** 
 279:Drivers/CMSIS/Include/cachel1_armv7.h **** 
 280:Drivers/CMSIS/Include/cachel1_armv7.h **** /**
 281:Drivers/CMSIS/Include/cachel1_armv7.h ****   \brief   Clean D-Cache
 282:Drivers/CMSIS/Include/cachel1_armv7.h ****   \details Cleans D-Cache
 283:Drivers/CMSIS/Include/cachel1_armv7.h ****   */
 284:Drivers/CMSIS/Include/cachel1_armv7.h **** __STATIC_FORCEINLINE void SCB_CleanDCache (void)
 285:Drivers/CMSIS/Include/cachel1_armv7.h **** {
 286:Drivers/CMSIS/Include/cachel1_armv7.h ****   #if defined (__DCACHE_PRESENT) && (__DCACHE_PRESENT == 1U)
 287:Drivers/CMSIS/Include/cachel1_armv7.h ****     uint32_t ccsidr;
 288:Drivers/CMSIS/Include/cachel1_armv7.h ****     uint32_t sets;
 289:Drivers/CMSIS/Include/cachel1_armv7.h ****     uint32_t ways;
 290:Drivers/CMSIS/Include/cachel1_armv7.h **** 
 291:Drivers/CMSIS/Include/cachel1_armv7.h ****     SCB->CSSELR = 0U;                       /* select Level 1 data cache */
 292:Drivers/CMSIS/Include/cachel1_armv7.h ****     __DSB();
 293:Drivers/CMSIS/Include/cachel1_armv7.h **** 
 294:Drivers/CMSIS/Include/cachel1_armv7.h ****     ccsidr = SCB->CCSIDR;
 295:Drivers/CMSIS/Include/cachel1_armv7.h **** 
 296:Drivers/CMSIS/Include/cachel1_armv7.h ****                                             /* clean D-Cache */
ARM GAS  C:\Users\hh\AppData\Local\Temp\ccCKtegN.s 			page 60


 297:Drivers/CMSIS/Include/cachel1_armv7.h ****     sets = (uint32_t)(CCSIDR_SETS(ccsidr));
 298:Drivers/CMSIS/Include/cachel1_armv7.h ****     do {
 299:Drivers/CMSIS/Include/cachel1_armv7.h ****       ways = (uint32_t)(CCSIDR_WAYS(ccsidr));
 300:Drivers/CMSIS/Include/cachel1_armv7.h ****       do {
 301:Drivers/CMSIS/Include/cachel1_armv7.h ****         SCB->DCCSW = (((sets << SCB_DCCSW_SET_Pos) & SCB_DCCSW_SET_Msk) |
 302:Drivers/CMSIS/Include/cachel1_armv7.h ****                       ((ways << SCB_DCCSW_WAY_Pos) & SCB_DCCSW_WAY_Msk)  );
 303:Drivers/CMSIS/Include/cachel1_armv7.h ****         #if defined ( __CC_ARM )
 304:Drivers/CMSIS/Include/cachel1_armv7.h ****           __schedule_barrier();
 305:Drivers/CMSIS/Include/cachel1_armv7.h ****         #endif
 306:Drivers/CMSIS/Include/cachel1_armv7.h ****       } while (ways-- != 0U);
 307:Drivers/CMSIS/Include/cachel1_armv7.h ****     } while(sets-- != 0U);
 308:Drivers/CMSIS/Include/cachel1_armv7.h **** 
 309:Drivers/CMSIS/Include/cachel1_armv7.h ****     __DSB();
 310:Drivers/CMSIS/Include/cachel1_armv7.h ****     __ISB();
 311:Drivers/CMSIS/Include/cachel1_armv7.h ****   #endif
 312:Drivers/CMSIS/Include/cachel1_armv7.h **** }
 313:Drivers/CMSIS/Include/cachel1_armv7.h **** 
 314:Drivers/CMSIS/Include/cachel1_armv7.h **** 
 315:Drivers/CMSIS/Include/cachel1_armv7.h **** /**
 316:Drivers/CMSIS/Include/cachel1_armv7.h ****   \brief   Clean & Invalidate D-Cache
 317:Drivers/CMSIS/Include/cachel1_armv7.h ****   \details Cleans and Invalidates D-Cache
 318:Drivers/CMSIS/Include/cachel1_armv7.h ****   */
 319:Drivers/CMSIS/Include/cachel1_armv7.h **** __STATIC_FORCEINLINE void SCB_CleanInvalidateDCache (void)
 320:Drivers/CMSIS/Include/cachel1_armv7.h **** {
 321:Drivers/CMSIS/Include/cachel1_armv7.h ****   #if defined (__DCACHE_PRESENT) && (__DCACHE_PRESENT == 1U)
 322:Drivers/CMSIS/Include/cachel1_armv7.h ****     uint32_t ccsidr;
 323:Drivers/CMSIS/Include/cachel1_armv7.h ****     uint32_t sets;
 324:Drivers/CMSIS/Include/cachel1_armv7.h ****     uint32_t ways;
 325:Drivers/CMSIS/Include/cachel1_armv7.h **** 
 326:Drivers/CMSIS/Include/cachel1_armv7.h ****     SCB->CSSELR = 0U;                       /* select Level 1 data cache */
 327:Drivers/CMSIS/Include/cachel1_armv7.h ****     __DSB();
 328:Drivers/CMSIS/Include/cachel1_armv7.h **** 
 329:Drivers/CMSIS/Include/cachel1_armv7.h ****     ccsidr = SCB->CCSIDR;
 330:Drivers/CMSIS/Include/cachel1_armv7.h **** 
 331:Drivers/CMSIS/Include/cachel1_armv7.h ****                                             /* clean & invalidate D-Cache */
 332:Drivers/CMSIS/Include/cachel1_armv7.h ****     sets = (uint32_t)(CCSIDR_SETS(ccsidr));
 333:Drivers/CMSIS/Include/cachel1_armv7.h ****     do {
 334:Drivers/CMSIS/Include/cachel1_armv7.h ****       ways = (uint32_t)(CCSIDR_WAYS(ccsidr));
 335:Drivers/CMSIS/Include/cachel1_armv7.h ****       do {
 336:Drivers/CMSIS/Include/cachel1_armv7.h ****         SCB->DCCISW = (((sets << SCB_DCCISW_SET_Pos) & SCB_DCCISW_SET_Msk) |
 337:Drivers/CMSIS/Include/cachel1_armv7.h ****                        ((ways << SCB_DCCISW_WAY_Pos) & SCB_DCCISW_WAY_Msk)  );
 338:Drivers/CMSIS/Include/cachel1_armv7.h ****         #if defined ( __CC_ARM )
 339:Drivers/CMSIS/Include/cachel1_armv7.h ****           __schedule_barrier();
 340:Drivers/CMSIS/Include/cachel1_armv7.h ****         #endif
 341:Drivers/CMSIS/Include/cachel1_armv7.h ****       } while (ways-- != 0U);
 342:Drivers/CMSIS/Include/cachel1_armv7.h ****     } while(sets-- != 0U);
 343:Drivers/CMSIS/Include/cachel1_armv7.h **** 
 344:Drivers/CMSIS/Include/cachel1_armv7.h ****     __DSB();
 345:Drivers/CMSIS/Include/cachel1_armv7.h ****     __ISB();
 346:Drivers/CMSIS/Include/cachel1_armv7.h ****   #endif
 347:Drivers/CMSIS/Include/cachel1_armv7.h **** }
 348:Drivers/CMSIS/Include/cachel1_armv7.h **** 
 349:Drivers/CMSIS/Include/cachel1_armv7.h **** 
 350:Drivers/CMSIS/Include/cachel1_armv7.h **** /**
 351:Drivers/CMSIS/Include/cachel1_armv7.h ****   \brief   D-Cache Invalidate by address
 352:Drivers/CMSIS/Include/cachel1_armv7.h ****   \details Invalidates D-Cache for the given address.
 353:Drivers/CMSIS/Include/cachel1_armv7.h ****            D-Cache is invalidated starting from a 32 byte aligned address in 32 byte granularity.
ARM GAS  C:\Users\hh\AppData\Local\Temp\ccCKtegN.s 			page 61


 354:Drivers/CMSIS/Include/cachel1_armv7.h ****            D-Cache memory blocks which are part of given address + given size are invalidated.
 355:Drivers/CMSIS/Include/cachel1_armv7.h ****   \param[in]   addr    address
 356:Drivers/CMSIS/Include/cachel1_armv7.h ****   \param[in]   dsize   size of memory block (in number of bytes)
 357:Drivers/CMSIS/Include/cachel1_armv7.h **** */
 358:Drivers/CMSIS/Include/cachel1_armv7.h **** __STATIC_FORCEINLINE void SCB_InvalidateDCache_by_Addr (volatile void *addr, int32_t dsize)
 1861              		.loc 2 358 27 view .LVU485
 1862              	.LBB23:
 359:Drivers/CMSIS/Include/cachel1_armv7.h **** {
 360:Drivers/CMSIS/Include/cachel1_armv7.h ****   #if defined (__DCACHE_PRESENT) && (__DCACHE_PRESENT == 1U)
 361:Drivers/CMSIS/Include/cachel1_armv7.h ****     if ( dsize > 0 ) {
 1863              		.loc 2 361 5 view .LVU486
 1864              		.loc 2 361 8 is_stmt 0 view .LVU487
 1865 003a 83B1     		cbz	r3, .L131
 1866              	.LBB24:
 362:Drivers/CMSIS/Include/cachel1_armv7.h ****        int32_t op_size = dsize + (((uint32_t)addr) & (__SCB_DCACHE_LINE_SIZE - 1U));
 1867              		.loc 2 362 8 is_stmt 1 view .LVU488
 1868              		.loc 2 362 36 is_stmt 0 view .LVU489
 1869 003c 1146     		mov	r1, r2
 1870              	.LVL160:
 1871              		.loc 2 362 52 view .LVU490
 1872 003e 02F01F02 		and	r2, r2, #31
 1873              	.LVL161:
 1874              		.loc 2 362 32 view .LVU491
 1875 0042 1344     		add	r3, r3, r2
 1876              	.LVL162:
 363:Drivers/CMSIS/Include/cachel1_armv7.h ****       uint32_t op_addr = (uint32_t)addr /* & ~(__SCB_DCACHE_LINE_SIZE - 1U) */;
 1877              		.loc 2 363 7 is_stmt 1 view .LVU492
 364:Drivers/CMSIS/Include/cachel1_armv7.h **** 
 365:Drivers/CMSIS/Include/cachel1_armv7.h ****       __DSB();
 1878              		.loc 2 365 7 view .LVU493
 1879              	.LBB25:
 1880              	.LBI25:
 1881              		.file 3 "Drivers/CMSIS/Include/cmsis_gcc.h"
   1:Drivers/CMSIS/Include/cmsis_gcc.h **** /**************************************************************************//**
   2:Drivers/CMSIS/Include/cmsis_gcc.h ****  * @file     cmsis_gcc.h
   3:Drivers/CMSIS/Include/cmsis_gcc.h ****  * @brief    CMSIS compiler GCC header file
   4:Drivers/CMSIS/Include/cmsis_gcc.h ****  * @version  V5.4.1
   5:Drivers/CMSIS/Include/cmsis_gcc.h ****  * @date     27. May 2021
   6:Drivers/CMSIS/Include/cmsis_gcc.h ****  ******************************************************************************/
   7:Drivers/CMSIS/Include/cmsis_gcc.h **** /*
   8:Drivers/CMSIS/Include/cmsis_gcc.h ****  * Copyright (c) 2009-2021 Arm Limited. All rights reserved.
   9:Drivers/CMSIS/Include/cmsis_gcc.h ****  *
  10:Drivers/CMSIS/Include/cmsis_gcc.h ****  * SPDX-License-Identifier: Apache-2.0
  11:Drivers/CMSIS/Include/cmsis_gcc.h ****  *
  12:Drivers/CMSIS/Include/cmsis_gcc.h ****  * Licensed under the Apache License, Version 2.0 (the License); you may
  13:Drivers/CMSIS/Include/cmsis_gcc.h ****  * not use this file except in compliance with the License.
  14:Drivers/CMSIS/Include/cmsis_gcc.h ****  * You may obtain a copy of the License at
  15:Drivers/CMSIS/Include/cmsis_gcc.h ****  *
  16:Drivers/CMSIS/Include/cmsis_gcc.h ****  * www.apache.org/licenses/LICENSE-2.0
  17:Drivers/CMSIS/Include/cmsis_gcc.h ****  *
  18:Drivers/CMSIS/Include/cmsis_gcc.h ****  * Unless required by applicable law or agreed to in writing, software
  19:Drivers/CMSIS/Include/cmsis_gcc.h ****  * distributed under the License is distributed on an AS IS BASIS, WITHOUT
  20:Drivers/CMSIS/Include/cmsis_gcc.h ****  * WARRANTIES OR CONDITIONS OF ANY KIND, either express or implied.
  21:Drivers/CMSIS/Include/cmsis_gcc.h ****  * See the License for the specific language governing permissions and
  22:Drivers/CMSIS/Include/cmsis_gcc.h ****  * limitations under the License.
  23:Drivers/CMSIS/Include/cmsis_gcc.h ****  */
  24:Drivers/CMSIS/Include/cmsis_gcc.h **** 
ARM GAS  C:\Users\hh\AppData\Local\Temp\ccCKtegN.s 			page 62


  25:Drivers/CMSIS/Include/cmsis_gcc.h **** #ifndef __CMSIS_GCC_H
  26:Drivers/CMSIS/Include/cmsis_gcc.h **** #define __CMSIS_GCC_H
  27:Drivers/CMSIS/Include/cmsis_gcc.h **** 
  28:Drivers/CMSIS/Include/cmsis_gcc.h **** /* ignore some GCC warnings */
  29:Drivers/CMSIS/Include/cmsis_gcc.h **** #pragma GCC diagnostic push
  30:Drivers/CMSIS/Include/cmsis_gcc.h **** #pragma GCC diagnostic ignored "-Wsign-conversion"
  31:Drivers/CMSIS/Include/cmsis_gcc.h **** #pragma GCC diagnostic ignored "-Wconversion"
  32:Drivers/CMSIS/Include/cmsis_gcc.h **** #pragma GCC diagnostic ignored "-Wunused-parameter"
  33:Drivers/CMSIS/Include/cmsis_gcc.h **** 
  34:Drivers/CMSIS/Include/cmsis_gcc.h **** /* Fallback for __has_builtin */
  35:Drivers/CMSIS/Include/cmsis_gcc.h **** #ifndef __has_builtin
  36:Drivers/CMSIS/Include/cmsis_gcc.h ****   #define __has_builtin(x) (0)
  37:Drivers/CMSIS/Include/cmsis_gcc.h **** #endif
  38:Drivers/CMSIS/Include/cmsis_gcc.h **** 
  39:Drivers/CMSIS/Include/cmsis_gcc.h **** /* CMSIS compiler specific defines */
  40:Drivers/CMSIS/Include/cmsis_gcc.h **** #ifndef   __ASM
  41:Drivers/CMSIS/Include/cmsis_gcc.h ****   #define __ASM                                  __asm
  42:Drivers/CMSIS/Include/cmsis_gcc.h **** #endif
  43:Drivers/CMSIS/Include/cmsis_gcc.h **** #ifndef   __INLINE
  44:Drivers/CMSIS/Include/cmsis_gcc.h ****   #define __INLINE                               inline
  45:Drivers/CMSIS/Include/cmsis_gcc.h **** #endif
  46:Drivers/CMSIS/Include/cmsis_gcc.h **** #ifndef   __STATIC_INLINE
  47:Drivers/CMSIS/Include/cmsis_gcc.h ****   #define __STATIC_INLINE                        static inline
  48:Drivers/CMSIS/Include/cmsis_gcc.h **** #endif
  49:Drivers/CMSIS/Include/cmsis_gcc.h **** #ifndef   __STATIC_FORCEINLINE
  50:Drivers/CMSIS/Include/cmsis_gcc.h ****   #define __STATIC_FORCEINLINE                   __attribute__((always_inline)) static inline
  51:Drivers/CMSIS/Include/cmsis_gcc.h **** #endif
  52:Drivers/CMSIS/Include/cmsis_gcc.h **** #ifndef   __NO_RETURN
  53:Drivers/CMSIS/Include/cmsis_gcc.h ****   #define __NO_RETURN                            __attribute__((__noreturn__))
  54:Drivers/CMSIS/Include/cmsis_gcc.h **** #endif
  55:Drivers/CMSIS/Include/cmsis_gcc.h **** #ifndef   __USED
  56:Drivers/CMSIS/Include/cmsis_gcc.h ****   #define __USED                                 __attribute__((used))
  57:Drivers/CMSIS/Include/cmsis_gcc.h **** #endif
  58:Drivers/CMSIS/Include/cmsis_gcc.h **** #ifndef   __WEAK
  59:Drivers/CMSIS/Include/cmsis_gcc.h ****   #define __WEAK                                 __attribute__((weak))
  60:Drivers/CMSIS/Include/cmsis_gcc.h **** #endif
  61:Drivers/CMSIS/Include/cmsis_gcc.h **** #ifndef   __PACKED
  62:Drivers/CMSIS/Include/cmsis_gcc.h ****   #define __PACKED                               __attribute__((packed, aligned(1)))
  63:Drivers/CMSIS/Include/cmsis_gcc.h **** #endif
  64:Drivers/CMSIS/Include/cmsis_gcc.h **** #ifndef   __PACKED_STRUCT
  65:Drivers/CMSIS/Include/cmsis_gcc.h ****   #define __PACKED_STRUCT                        struct __attribute__((packed, aligned(1)))
  66:Drivers/CMSIS/Include/cmsis_gcc.h **** #endif
  67:Drivers/CMSIS/Include/cmsis_gcc.h **** #ifndef   __PACKED_UNION
  68:Drivers/CMSIS/Include/cmsis_gcc.h ****   #define __PACKED_UNION                         union __attribute__((packed, aligned(1)))
  69:Drivers/CMSIS/Include/cmsis_gcc.h **** #endif
  70:Drivers/CMSIS/Include/cmsis_gcc.h **** #ifndef   __UNALIGNED_UINT32        /* deprecated */
  71:Drivers/CMSIS/Include/cmsis_gcc.h ****   #pragma GCC diagnostic push
  72:Drivers/CMSIS/Include/cmsis_gcc.h ****   #pragma GCC diagnostic ignored "-Wpacked"
  73:Drivers/CMSIS/Include/cmsis_gcc.h ****   #pragma GCC diagnostic ignored "-Wattributes"
  74:Drivers/CMSIS/Include/cmsis_gcc.h ****   struct __attribute__((packed)) T_UINT32 { uint32_t v; };
  75:Drivers/CMSIS/Include/cmsis_gcc.h ****   #pragma GCC diagnostic pop
  76:Drivers/CMSIS/Include/cmsis_gcc.h ****   #define __UNALIGNED_UINT32(x)                  (((struct T_UINT32 *)(x))->v)
  77:Drivers/CMSIS/Include/cmsis_gcc.h **** #endif
  78:Drivers/CMSIS/Include/cmsis_gcc.h **** #ifndef   __UNALIGNED_UINT16_WRITE
  79:Drivers/CMSIS/Include/cmsis_gcc.h ****   #pragma GCC diagnostic push
  80:Drivers/CMSIS/Include/cmsis_gcc.h ****   #pragma GCC diagnostic ignored "-Wpacked"
  81:Drivers/CMSIS/Include/cmsis_gcc.h ****   #pragma GCC diagnostic ignored "-Wattributes"
ARM GAS  C:\Users\hh\AppData\Local\Temp\ccCKtegN.s 			page 63


  82:Drivers/CMSIS/Include/cmsis_gcc.h ****   __PACKED_STRUCT T_UINT16_WRITE { uint16_t v; };
  83:Drivers/CMSIS/Include/cmsis_gcc.h ****   #pragma GCC diagnostic pop
  84:Drivers/CMSIS/Include/cmsis_gcc.h ****   #define __UNALIGNED_UINT16_WRITE(addr, val)    (void)((((struct T_UINT16_WRITE *)(void *)(addr))-
  85:Drivers/CMSIS/Include/cmsis_gcc.h **** #endif
  86:Drivers/CMSIS/Include/cmsis_gcc.h **** #ifndef   __UNALIGNED_UINT16_READ
  87:Drivers/CMSIS/Include/cmsis_gcc.h ****   #pragma GCC diagnostic push
  88:Drivers/CMSIS/Include/cmsis_gcc.h ****   #pragma GCC diagnostic ignored "-Wpacked"
  89:Drivers/CMSIS/Include/cmsis_gcc.h ****   #pragma GCC diagnostic ignored "-Wattributes"
  90:Drivers/CMSIS/Include/cmsis_gcc.h ****   __PACKED_STRUCT T_UINT16_READ { uint16_t v; };
  91:Drivers/CMSIS/Include/cmsis_gcc.h ****   #pragma GCC diagnostic pop
  92:Drivers/CMSIS/Include/cmsis_gcc.h ****   #define __UNALIGNED_UINT16_READ(addr)          (((const struct T_UINT16_READ *)(const void *)(add
  93:Drivers/CMSIS/Include/cmsis_gcc.h **** #endif
  94:Drivers/CMSIS/Include/cmsis_gcc.h **** #ifndef   __UNALIGNED_UINT32_WRITE
  95:Drivers/CMSIS/Include/cmsis_gcc.h ****   #pragma GCC diagnostic push
  96:Drivers/CMSIS/Include/cmsis_gcc.h ****   #pragma GCC diagnostic ignored "-Wpacked"
  97:Drivers/CMSIS/Include/cmsis_gcc.h ****   #pragma GCC diagnostic ignored "-Wattributes"
  98:Drivers/CMSIS/Include/cmsis_gcc.h ****   __PACKED_STRUCT T_UINT32_WRITE { uint32_t v; };
  99:Drivers/CMSIS/Include/cmsis_gcc.h ****   #pragma GCC diagnostic pop
 100:Drivers/CMSIS/Include/cmsis_gcc.h ****   #define __UNALIGNED_UINT32_WRITE(addr, val)    (void)((((struct T_UINT32_WRITE *)(void *)(addr))-
 101:Drivers/CMSIS/Include/cmsis_gcc.h **** #endif
 102:Drivers/CMSIS/Include/cmsis_gcc.h **** #ifndef   __UNALIGNED_UINT32_READ
 103:Drivers/CMSIS/Include/cmsis_gcc.h ****   #pragma GCC diagnostic push
 104:Drivers/CMSIS/Include/cmsis_gcc.h ****   #pragma GCC diagnostic ignored "-Wpacked"
 105:Drivers/CMSIS/Include/cmsis_gcc.h ****   #pragma GCC diagnostic ignored "-Wattributes"
 106:Drivers/CMSIS/Include/cmsis_gcc.h ****   __PACKED_STRUCT T_UINT32_READ { uint32_t v; };
 107:Drivers/CMSIS/Include/cmsis_gcc.h ****   #pragma GCC diagnostic pop
 108:Drivers/CMSIS/Include/cmsis_gcc.h ****   #define __UNALIGNED_UINT32_READ(addr)          (((const struct T_UINT32_READ *)(const void *)(add
 109:Drivers/CMSIS/Include/cmsis_gcc.h **** #endif
 110:Drivers/CMSIS/Include/cmsis_gcc.h **** #ifndef   __ALIGNED
 111:Drivers/CMSIS/Include/cmsis_gcc.h ****   #define __ALIGNED(x)                           __attribute__((aligned(x)))
 112:Drivers/CMSIS/Include/cmsis_gcc.h **** #endif
 113:Drivers/CMSIS/Include/cmsis_gcc.h **** #ifndef   __RESTRICT
 114:Drivers/CMSIS/Include/cmsis_gcc.h ****   #define __RESTRICT                             __restrict
 115:Drivers/CMSIS/Include/cmsis_gcc.h **** #endif
 116:Drivers/CMSIS/Include/cmsis_gcc.h **** #ifndef   __COMPILER_BARRIER
 117:Drivers/CMSIS/Include/cmsis_gcc.h ****   #define __COMPILER_BARRIER()                   __ASM volatile("":::"memory")
 118:Drivers/CMSIS/Include/cmsis_gcc.h **** #endif
 119:Drivers/CMSIS/Include/cmsis_gcc.h **** 
 120:Drivers/CMSIS/Include/cmsis_gcc.h **** /* #########################  Startup and Lowlevel Init  ######################## */
 121:Drivers/CMSIS/Include/cmsis_gcc.h **** 
 122:Drivers/CMSIS/Include/cmsis_gcc.h **** #ifndef __PROGRAM_START
 123:Drivers/CMSIS/Include/cmsis_gcc.h **** 
 124:Drivers/CMSIS/Include/cmsis_gcc.h **** /**
 125:Drivers/CMSIS/Include/cmsis_gcc.h ****   \brief   Initializes data and bss sections
 126:Drivers/CMSIS/Include/cmsis_gcc.h ****   \details This default implementations initialized all data and additional bss
 127:Drivers/CMSIS/Include/cmsis_gcc.h ****            sections relying on .copy.table and .zero.table specified properly
 128:Drivers/CMSIS/Include/cmsis_gcc.h ****            in the used linker script.
 129:Drivers/CMSIS/Include/cmsis_gcc.h **** 
 130:Drivers/CMSIS/Include/cmsis_gcc.h ****  */
 131:Drivers/CMSIS/Include/cmsis_gcc.h **** __STATIC_FORCEINLINE __NO_RETURN void __cmsis_start(void)
 132:Drivers/CMSIS/Include/cmsis_gcc.h **** {
 133:Drivers/CMSIS/Include/cmsis_gcc.h ****   extern void _start(void) __NO_RETURN;
 134:Drivers/CMSIS/Include/cmsis_gcc.h **** 
 135:Drivers/CMSIS/Include/cmsis_gcc.h ****   typedef struct {
 136:Drivers/CMSIS/Include/cmsis_gcc.h ****     uint32_t const* src;
 137:Drivers/CMSIS/Include/cmsis_gcc.h ****     uint32_t* dest;
 138:Drivers/CMSIS/Include/cmsis_gcc.h ****     uint32_t  wlen;
ARM GAS  C:\Users\hh\AppData\Local\Temp\ccCKtegN.s 			page 64


 139:Drivers/CMSIS/Include/cmsis_gcc.h ****   } __copy_table_t;
 140:Drivers/CMSIS/Include/cmsis_gcc.h **** 
 141:Drivers/CMSIS/Include/cmsis_gcc.h ****   typedef struct {
 142:Drivers/CMSIS/Include/cmsis_gcc.h ****     uint32_t* dest;
 143:Drivers/CMSIS/Include/cmsis_gcc.h ****     uint32_t  wlen;
 144:Drivers/CMSIS/Include/cmsis_gcc.h ****   } __zero_table_t;
 145:Drivers/CMSIS/Include/cmsis_gcc.h **** 
 146:Drivers/CMSIS/Include/cmsis_gcc.h ****   extern const __copy_table_t __copy_table_start__;
 147:Drivers/CMSIS/Include/cmsis_gcc.h ****   extern const __copy_table_t __copy_table_end__;
 148:Drivers/CMSIS/Include/cmsis_gcc.h ****   extern const __zero_table_t __zero_table_start__;
 149:Drivers/CMSIS/Include/cmsis_gcc.h ****   extern const __zero_table_t __zero_table_end__;
 150:Drivers/CMSIS/Include/cmsis_gcc.h **** 
 151:Drivers/CMSIS/Include/cmsis_gcc.h ****   for (__copy_table_t const* pTable = &__copy_table_start__; pTable < &__copy_table_end__; ++pTable
 152:Drivers/CMSIS/Include/cmsis_gcc.h ****     for(uint32_t i=0u; i<pTable->wlen; ++i) {
 153:Drivers/CMSIS/Include/cmsis_gcc.h ****       pTable->dest[i] = pTable->src[i];
 154:Drivers/CMSIS/Include/cmsis_gcc.h ****     }
 155:Drivers/CMSIS/Include/cmsis_gcc.h ****   }
 156:Drivers/CMSIS/Include/cmsis_gcc.h **** 
 157:Drivers/CMSIS/Include/cmsis_gcc.h ****   for (__zero_table_t const* pTable = &__zero_table_start__; pTable < &__zero_table_end__; ++pTable
 158:Drivers/CMSIS/Include/cmsis_gcc.h ****     for(uint32_t i=0u; i<pTable->wlen; ++i) {
 159:Drivers/CMSIS/Include/cmsis_gcc.h ****       pTable->dest[i] = 0u;
 160:Drivers/CMSIS/Include/cmsis_gcc.h ****     }
 161:Drivers/CMSIS/Include/cmsis_gcc.h ****   }
 162:Drivers/CMSIS/Include/cmsis_gcc.h **** 
 163:Drivers/CMSIS/Include/cmsis_gcc.h ****   _start();
 164:Drivers/CMSIS/Include/cmsis_gcc.h **** }
 165:Drivers/CMSIS/Include/cmsis_gcc.h **** 
 166:Drivers/CMSIS/Include/cmsis_gcc.h **** #define __PROGRAM_START           __cmsis_start
 167:Drivers/CMSIS/Include/cmsis_gcc.h **** #endif
 168:Drivers/CMSIS/Include/cmsis_gcc.h **** 
 169:Drivers/CMSIS/Include/cmsis_gcc.h **** #ifndef __INITIAL_SP
 170:Drivers/CMSIS/Include/cmsis_gcc.h **** #define __INITIAL_SP              __StackTop
 171:Drivers/CMSIS/Include/cmsis_gcc.h **** #endif
 172:Drivers/CMSIS/Include/cmsis_gcc.h **** 
 173:Drivers/CMSIS/Include/cmsis_gcc.h **** #ifndef __STACK_LIMIT
 174:Drivers/CMSIS/Include/cmsis_gcc.h **** #define __STACK_LIMIT             __StackLimit
 175:Drivers/CMSIS/Include/cmsis_gcc.h **** #endif
 176:Drivers/CMSIS/Include/cmsis_gcc.h **** 
 177:Drivers/CMSIS/Include/cmsis_gcc.h **** #ifndef __VECTOR_TABLE
 178:Drivers/CMSIS/Include/cmsis_gcc.h **** #define __VECTOR_TABLE            __Vectors
 179:Drivers/CMSIS/Include/cmsis_gcc.h **** #endif
 180:Drivers/CMSIS/Include/cmsis_gcc.h **** 
 181:Drivers/CMSIS/Include/cmsis_gcc.h **** #ifndef __VECTOR_TABLE_ATTRIBUTE
 182:Drivers/CMSIS/Include/cmsis_gcc.h **** #define __VECTOR_TABLE_ATTRIBUTE  __attribute__((used, section(".vectors")))
 183:Drivers/CMSIS/Include/cmsis_gcc.h **** #endif
 184:Drivers/CMSIS/Include/cmsis_gcc.h **** 
 185:Drivers/CMSIS/Include/cmsis_gcc.h **** #if defined (__ARM_FEATURE_CMSE) && (__ARM_FEATURE_CMSE == 3U)
 186:Drivers/CMSIS/Include/cmsis_gcc.h **** #ifndef __STACK_SEAL
 187:Drivers/CMSIS/Include/cmsis_gcc.h **** #define __STACK_SEAL              __StackSeal
 188:Drivers/CMSIS/Include/cmsis_gcc.h **** #endif
 189:Drivers/CMSIS/Include/cmsis_gcc.h **** 
 190:Drivers/CMSIS/Include/cmsis_gcc.h **** #ifndef __TZ_STACK_SEAL_SIZE
 191:Drivers/CMSIS/Include/cmsis_gcc.h **** #define __TZ_STACK_SEAL_SIZE      8U
 192:Drivers/CMSIS/Include/cmsis_gcc.h **** #endif
 193:Drivers/CMSIS/Include/cmsis_gcc.h **** 
 194:Drivers/CMSIS/Include/cmsis_gcc.h **** #ifndef __TZ_STACK_SEAL_VALUE
 195:Drivers/CMSIS/Include/cmsis_gcc.h **** #define __TZ_STACK_SEAL_VALUE     0xFEF5EDA5FEF5EDA5ULL
ARM GAS  C:\Users\hh\AppData\Local\Temp\ccCKtegN.s 			page 65


 196:Drivers/CMSIS/Include/cmsis_gcc.h **** #endif
 197:Drivers/CMSIS/Include/cmsis_gcc.h **** 
 198:Drivers/CMSIS/Include/cmsis_gcc.h **** 
 199:Drivers/CMSIS/Include/cmsis_gcc.h **** __STATIC_FORCEINLINE void __TZ_set_STACKSEAL_S (uint32_t* stackTop) {
 200:Drivers/CMSIS/Include/cmsis_gcc.h ****   *((uint64_t *)stackTop) = __TZ_STACK_SEAL_VALUE;
 201:Drivers/CMSIS/Include/cmsis_gcc.h **** }
 202:Drivers/CMSIS/Include/cmsis_gcc.h **** #endif
 203:Drivers/CMSIS/Include/cmsis_gcc.h **** 
 204:Drivers/CMSIS/Include/cmsis_gcc.h **** 
 205:Drivers/CMSIS/Include/cmsis_gcc.h **** /* ##########################  Core Instruction Access  ######################### */
 206:Drivers/CMSIS/Include/cmsis_gcc.h **** /** \defgroup CMSIS_Core_InstructionInterface CMSIS Core Instruction Interface
 207:Drivers/CMSIS/Include/cmsis_gcc.h ****   Access to dedicated instructions
 208:Drivers/CMSIS/Include/cmsis_gcc.h ****   @{
 209:Drivers/CMSIS/Include/cmsis_gcc.h **** */
 210:Drivers/CMSIS/Include/cmsis_gcc.h **** 
 211:Drivers/CMSIS/Include/cmsis_gcc.h **** /* Define macros for porting to both thumb1 and thumb2.
 212:Drivers/CMSIS/Include/cmsis_gcc.h ****  * For thumb1, use low register (r0-r7), specified by constraint "l"
 213:Drivers/CMSIS/Include/cmsis_gcc.h ****  * Otherwise, use general registers, specified by constraint "r" */
 214:Drivers/CMSIS/Include/cmsis_gcc.h **** #if defined (__thumb__) && !defined (__thumb2__)
 215:Drivers/CMSIS/Include/cmsis_gcc.h **** #define __CMSIS_GCC_OUT_REG(r) "=l" (r)
 216:Drivers/CMSIS/Include/cmsis_gcc.h **** #define __CMSIS_GCC_RW_REG(r) "+l" (r)
 217:Drivers/CMSIS/Include/cmsis_gcc.h **** #define __CMSIS_GCC_USE_REG(r) "l" (r)
 218:Drivers/CMSIS/Include/cmsis_gcc.h **** #else
 219:Drivers/CMSIS/Include/cmsis_gcc.h **** #define __CMSIS_GCC_OUT_REG(r) "=r" (r)
 220:Drivers/CMSIS/Include/cmsis_gcc.h **** #define __CMSIS_GCC_RW_REG(r) "+r" (r)
 221:Drivers/CMSIS/Include/cmsis_gcc.h **** #define __CMSIS_GCC_USE_REG(r) "r" (r)
 222:Drivers/CMSIS/Include/cmsis_gcc.h **** #endif
 223:Drivers/CMSIS/Include/cmsis_gcc.h **** 
 224:Drivers/CMSIS/Include/cmsis_gcc.h **** /**
 225:Drivers/CMSIS/Include/cmsis_gcc.h ****   \brief   No Operation
 226:Drivers/CMSIS/Include/cmsis_gcc.h ****   \details No Operation does nothing. This instruction can be used for code alignment purposes.
 227:Drivers/CMSIS/Include/cmsis_gcc.h ****  */
 228:Drivers/CMSIS/Include/cmsis_gcc.h **** #define __NOP()                             __ASM volatile ("nop")
 229:Drivers/CMSIS/Include/cmsis_gcc.h **** 
 230:Drivers/CMSIS/Include/cmsis_gcc.h **** /**
 231:Drivers/CMSIS/Include/cmsis_gcc.h ****   \brief   Wait For Interrupt
 232:Drivers/CMSIS/Include/cmsis_gcc.h ****   \details Wait For Interrupt is a hint instruction that suspends execution until one of a number o
 233:Drivers/CMSIS/Include/cmsis_gcc.h ****  */
 234:Drivers/CMSIS/Include/cmsis_gcc.h **** #define __WFI()                             __ASM volatile ("wfi":::"memory")
 235:Drivers/CMSIS/Include/cmsis_gcc.h **** 
 236:Drivers/CMSIS/Include/cmsis_gcc.h **** 
 237:Drivers/CMSIS/Include/cmsis_gcc.h **** /**
 238:Drivers/CMSIS/Include/cmsis_gcc.h ****   \brief   Wait For Event
 239:Drivers/CMSIS/Include/cmsis_gcc.h ****   \details Wait For Event is a hint instruction that permits the processor to enter
 240:Drivers/CMSIS/Include/cmsis_gcc.h ****            a low-power state until one of a number of events occurs.
 241:Drivers/CMSIS/Include/cmsis_gcc.h ****  */
 242:Drivers/CMSIS/Include/cmsis_gcc.h **** #define __WFE()                             __ASM volatile ("wfe":::"memory")
 243:Drivers/CMSIS/Include/cmsis_gcc.h **** 
 244:Drivers/CMSIS/Include/cmsis_gcc.h **** 
 245:Drivers/CMSIS/Include/cmsis_gcc.h **** /**
 246:Drivers/CMSIS/Include/cmsis_gcc.h ****   \brief   Send Event
 247:Drivers/CMSIS/Include/cmsis_gcc.h ****   \details Send Event is a hint instruction. It causes an event to be signaled to the CPU.
 248:Drivers/CMSIS/Include/cmsis_gcc.h ****  */
 249:Drivers/CMSIS/Include/cmsis_gcc.h **** #define __SEV()                             __ASM volatile ("sev")
 250:Drivers/CMSIS/Include/cmsis_gcc.h **** 
 251:Drivers/CMSIS/Include/cmsis_gcc.h **** 
 252:Drivers/CMSIS/Include/cmsis_gcc.h **** /**
ARM GAS  C:\Users\hh\AppData\Local\Temp\ccCKtegN.s 			page 66


 253:Drivers/CMSIS/Include/cmsis_gcc.h ****   \brief   Instruction Synchronization Barrier
 254:Drivers/CMSIS/Include/cmsis_gcc.h ****   \details Instruction Synchronization Barrier flushes the pipeline in the processor,
 255:Drivers/CMSIS/Include/cmsis_gcc.h ****            so that all instructions following the ISB are fetched from cache or memory,
 256:Drivers/CMSIS/Include/cmsis_gcc.h ****            after the instruction has been completed.
 257:Drivers/CMSIS/Include/cmsis_gcc.h ****  */
 258:Drivers/CMSIS/Include/cmsis_gcc.h **** __STATIC_FORCEINLINE void __ISB(void)
 259:Drivers/CMSIS/Include/cmsis_gcc.h **** {
 260:Drivers/CMSIS/Include/cmsis_gcc.h ****   __ASM volatile ("isb 0xF":::"memory");
 261:Drivers/CMSIS/Include/cmsis_gcc.h **** }
 262:Drivers/CMSIS/Include/cmsis_gcc.h **** 
 263:Drivers/CMSIS/Include/cmsis_gcc.h **** 
 264:Drivers/CMSIS/Include/cmsis_gcc.h **** /**
 265:Drivers/CMSIS/Include/cmsis_gcc.h ****   \brief   Data Synchronization Barrier
 266:Drivers/CMSIS/Include/cmsis_gcc.h ****   \details Acts as a special kind of Data Memory Barrier.
 267:Drivers/CMSIS/Include/cmsis_gcc.h ****            It completes when all explicit memory accesses before this instruction complete.
 268:Drivers/CMSIS/Include/cmsis_gcc.h ****  */
 269:Drivers/CMSIS/Include/cmsis_gcc.h **** __STATIC_FORCEINLINE void __DSB(void)
 1882              		.loc 3 269 27 view .LVU494
 1883              	.LBB26:
 270:Drivers/CMSIS/Include/cmsis_gcc.h **** {
 271:Drivers/CMSIS/Include/cmsis_gcc.h ****   __ASM volatile ("dsb 0xF":::"memory");
 1884              		.loc 3 271 3 view .LVU495
 1885              		.syntax unified
 1886              	@ 271 "Drivers/CMSIS/Include/cmsis_gcc.h" 1
 1887 0044 BFF34F8F 		dsb 0xF
 1888              	@ 0 "" 2
 1889              	.LVL163:
 1890              		.thumb
 1891              		.syntax unified
 1892              	.L137:
 1893              		.loc 3 271 3 is_stmt 0 view .LVU496
 1894              	.LBE26:
 1895              	.LBE25:
 366:Drivers/CMSIS/Include/cachel1_armv7.h **** 
 367:Drivers/CMSIS/Include/cachel1_armv7.h ****       do {
 1896              		.loc 2 367 7 is_stmt 1 view .LVU497
 368:Drivers/CMSIS/Include/cachel1_armv7.h ****         SCB->DCIMVAC = op_addr;             /* register accepts only 32byte aligned values, only bi
 1897              		.loc 2 368 9 view .LVU498
 1898              		.loc 2 368 22 is_stmt 0 view .LVU499
 1899 0048 054A     		ldr	r2, .L140
 1900 004a C2F85C12 		str	r1, [r2, #604]
 369:Drivers/CMSIS/Include/cachel1_armv7.h ****         op_addr += __SCB_DCACHE_LINE_SIZE;
 1901              		.loc 2 369 9 is_stmt 1 view .LVU500
 1902              		.loc 2 369 17 is_stmt 0 view .LVU501
 1903 004e 2031     		adds	r1, r1, #32
 1904              	.LVL164:
 370:Drivers/CMSIS/Include/cachel1_armv7.h ****         op_size -= __SCB_DCACHE_LINE_SIZE;
 1905              		.loc 2 370 9 is_stmt 1 view .LVU502
 1906              		.loc 2 370 17 is_stmt 0 view .LVU503
 1907 0050 203B     		subs	r3, r3, #32
 1908              	.LVL165:
 371:Drivers/CMSIS/Include/cachel1_armv7.h ****       } while ( op_size > 0 );
 1909              		.loc 2 371 25 is_stmt 1 discriminator 1 view .LVU504
 1910 0052 002B     		cmp	r3, #0
 1911 0054 F8DC     		bgt	.L137
 372:Drivers/CMSIS/Include/cachel1_armv7.h **** 
 373:Drivers/CMSIS/Include/cachel1_armv7.h ****       __DSB();
ARM GAS  C:\Users\hh\AppData\Local\Temp\ccCKtegN.s 			page 67


 1912              		.loc 2 373 7 view .LVU505
 1913              	.LBB27:
 1914              	.LBI27:
 269:Drivers/CMSIS/Include/cmsis_gcc.h **** {
 1915              		.loc 3 269 27 view .LVU506
 1916              	.LBB28:
 1917              		.loc 3 271 3 view .LVU507
 1918              		.syntax unified
 1919              	@ 271 "Drivers/CMSIS/Include/cmsis_gcc.h" 1
 1920 0056 BFF34F8F 		dsb 0xF
 1921              	@ 0 "" 2
 1922              		.thumb
 1923              		.syntax unified
 1924              	.LBE28:
 1925              	.LBE27:
 374:Drivers/CMSIS/Include/cachel1_armv7.h ****       __ISB();
 1926              		.loc 2 374 7 view .LVU508
 1927              	.LBB29:
 1928              	.LBI29:
 258:Drivers/CMSIS/Include/cmsis_gcc.h **** {
 1929              		.loc 3 258 27 view .LVU509
 1930              	.LBB30:
 260:Drivers/CMSIS/Include/cmsis_gcc.h **** }
 1931              		.loc 3 260 3 view .LVU510
 1932              		.syntax unified
 1933              	@ 260 "Drivers/CMSIS/Include/cmsis_gcc.h" 1
 1934 005a BFF36F8F 		isb 0xF
 1935              	@ 0 "" 2
 1936              	.LVL166:
 1937              		.thumb
 1938              		.syntax unified
 1939              	.L131:
 260:Drivers/CMSIS/Include/cmsis_gcc.h **** }
 1940              		.loc 3 260 3 is_stmt 0 view .LVU511
 1941              	.LBE30:
 1942              	.LBE29:
 1943              	.LBE24:
 1944              	.LBE23:
 1945              	.LBE22:
 856:LWIP/Target/ethernetif.c **** 
 857:LWIP/Target/ethernetif.c **** /* USER CODE END HAL ETH RxLinkCallback */
 858:LWIP/Target/ethernetif.c **** }
 1946              		.loc 1 858 1 view .LVU512
 1947 005e 10BD     		pop	{r4, pc}
 1948              	.L141:
 1949              		.align	2
 1950              	.L140:
 1951 0060 00ED00E0 		.word	-536810240
 1952              		.cfi_endproc
 1953              	.LFE190:
 1955              		.section	.text.HAL_ETH_TxFreeCallback,"ax",%progbits
 1956              		.align	1
 1957              		.global	HAL_ETH_TxFreeCallback
 1958              		.syntax unified
 1959              		.thumb
 1960              		.thumb_func
 1962              	HAL_ETH_TxFreeCallback:
ARM GAS  C:\Users\hh\AppData\Local\Temp\ccCKtegN.s 			page 68


 1963              	.LVL167:
 1964              	.LFB191:
 859:LWIP/Target/ethernetif.c **** 
 860:LWIP/Target/ethernetif.c **** void HAL_ETH_TxFreeCallback(uint32_t * buff)
 861:LWIP/Target/ethernetif.c **** {
 1965              		.loc 1 861 1 is_stmt 1 view -0
 1966              		.cfi_startproc
 1967              		@ args = 0, pretend = 0, frame = 0
 1968              		@ frame_needed = 0, uses_anonymous_args = 0
 1969              		.loc 1 861 1 is_stmt 0 view .LVU514
 1970 0000 08B5     		push	{r3, lr}
 1971              	.LCFI41:
 1972              		.cfi_def_cfa_offset 8
 1973              		.cfi_offset 3, -8
 1974              		.cfi_offset 14, -4
 862:LWIP/Target/ethernetif.c **** /* USER CODE BEGIN HAL ETH TxFreeCallback */
 863:LWIP/Target/ethernetif.c **** 
 864:LWIP/Target/ethernetif.c ****   pbuf_free((struct pbuf *)buff);
 1975              		.loc 1 864 3 is_stmt 1 view .LVU515
 1976 0002 FFF7FEFF 		bl	pbuf_free
 1977              	.LVL168:
 865:LWIP/Target/ethernetif.c **** 
 866:LWIP/Target/ethernetif.c **** /* USER CODE END HAL ETH TxFreeCallback */
 867:LWIP/Target/ethernetif.c **** }
 1978              		.loc 1 867 1 is_stmt 0 view .LVU516
 1979 0006 08BD     		pop	{r3, pc}
 1980              		.cfi_endproc
 1981              	.LFE191:
 1983              		.global	heth
 1984              		.section	.bss.heth,"aw",%nobits
 1985              		.align	2
 1988              	heth:
 1989 0000 00000000 		.space	176
 1989      00000000 
 1989      00000000 
 1989      00000000 
 1989      00000000 
 1990              		.global	TxPktSemaphore
 1991              		.section	.bss.TxPktSemaphore,"aw",%nobits
 1992              		.align	2
 1995              	TxPktSemaphore:
 1996 0000 00000000 		.space	4
 1997              		.global	RxPktSemaphore
 1998              		.section	.bss.RxPktSemaphore,"aw",%nobits
 1999              		.align	2
 2002              	RxPktSemaphore:
 2003 0000 00000000 		.space	4
 2004              		.section	.bss.lan8720SoftwareResetDone,"aw",%nobits
 2007              	lan8720SoftwareResetDone:
 2008 0000 00       		.space	1
 2009              		.section	.data.lan8720PhyAddress,"aw"
 2010              		.align	2
 2013              	lan8720PhyAddress:
 2014 0000 FFFFFFFF 		.word	-1
 2015              		.global	DMATxDscrTab
 2016              		.section	.TxDescripSection,"aw"
 2017              		.align	2
ARM GAS  C:\Users\hh\AppData\Local\Temp\ccCKtegN.s 			page 69


 2020              	DMATxDscrTab:
 2021 0000 00000000 		.space	96
 2021      00000000 
 2021      00000000 
 2021      00000000 
 2021      00000000 
 2022              		.global	DMARxDscrTab
 2023              		.section	.RxDescripSection,"aw"
 2024              		.align	2
 2027              	DMARxDscrTab:
 2028 0000 00000000 		.space	96
 2028      00000000 
 2028      00000000 
 2028      00000000 
 2028      00000000 
 2029              		.section	.bss.RxAllocStatus,"aw",%nobits
 2032              	RxAllocStatus:
 2033 0000 00       		.space	1
 2034              		.global	memp_RX_POOL
 2035              		.section	.rodata.memp_RX_POOL,"a"
 2036              		.align	2
 2039              	memp_RX_POOL:
 2040 0000 2006     		.short	1568
 2041 0002 0C00     		.short	12
 2042 0004 00000000 		.word	memp_memory_RX_POOL_base
 2043 0008 00000000 		.word	memp_tab_RX_POOL
 2044              		.section	.bss.memp_tab_RX_POOL,"aw",%nobits
 2045              		.align	2
 2048              	memp_tab_RX_POOL:
 2049 0000 00000000 		.space	4
 2050              		.global	memp_memory_RX_POOL_base
 2051              		.section	.Rx_PoolSection,"aw"
 2052              		.align	2
 2055              	memp_memory_RX_POOL_base:
 2056 0000 00000000 		.space	18819
 2056      00000000 
 2056      00000000 
 2056      00000000 
 2056      00000000 
 2057              		.text
 2058              	.Letext0:
 2059              		.file 4 "C:/Program Files (x86)/ARM/arm-gnu-toolchain-15.2.rel1-mingw-w64-i686-arm-none-eabi/arm-n
 2060              		.file 5 "C:/Program Files (x86)/ARM/arm-gnu-toolchain-15.2.rel1-mingw-w64-i686-arm-none-eabi/arm-n
 2061              		.file 6 "Drivers/CMSIS/Include/core_cm7.h"
 2062              		.file 7 "Drivers/CMSIS/Device/ST/STM32H7xx/Include/stm32h743xx.h"
 2063              		.file 8 "Drivers/CMSIS/Device/ST/STM32H7xx/Include/stm32h7xx.h"
 2064              		.file 9 "Drivers/STM32H7xx_HAL_Driver/Inc/stm32h7xx_hal_def.h"
 2065              		.file 10 "Drivers/STM32H7xx_HAL_Driver/Inc/stm32h7xx_hal_eth.h"
 2066              		.file 11 "Middlewares/Third_Party/LwIP/src/include/lwip/arch.h"
 2067              		.file 12 "Middlewares/Third_Party/LwIP/src/include/lwip/err.h"
 2068              		.file 13 "Drivers/CMSIS/RTOS2/Include/cmsis_os2.h"
 2069              		.file 14 "Middlewares/Third_Party/LwIP/src/include/lwip/pbuf.h"
 2070              		.file 15 "Middlewares/Third_Party/LwIP/src/include/lwip/ip4_addr.h"
 2071              		.file 16 "Middlewares/Third_Party/LwIP/src/include/lwip/ip_addr.h"
 2072              		.file 17 "Middlewares/Third_Party/LwIP/src/include/lwip/memp.h"
 2073              		.file 18 "Middlewares/Third_Party/LwIP/src/include/lwip/priv/memp_priv.h"
 2074              		.file 19 "Middlewares/Third_Party/LwIP/src/include/lwip/netif.h"
ARM GAS  C:\Users\hh\AppData\Local\Temp\ccCKtegN.s 			page 70


 2075              		.file 20 "LWIP/Target/ethernetif.h"
 2076              		.file 21 "BSP/Inc/bsp_eth.h"
 2077              		.file 22 "C:/Program Files (x86)/ARM/arm-gnu-toolchain-15.2.rel1-mingw-w64-i686-arm-none-eabi/arm-
 2078              		.file 23 "Middlewares/Third_Party/LwIP/src/include/lwip/etharp.h"
 2079              		.file 24 "C:/Program Files (x86)/ARM/arm-gnu-toolchain-15.2.rel1-mingw-w64-i686-arm-none-eabi/arm-
 2080              		.file 25 "<built-in>"
 2081              		.file 26 "Drivers/STM32H7xx_HAL_Driver/Inc/stm32h7xx_hal.h"
ARM GAS  C:\Users\hh\AppData\Local\Temp\ccCKtegN.s 			page 71

