ARM GAS  C:\Users\hh\AppData\Local\Temp\cc8MU7EM.s 			page 1


   1              		.cpu cortex-m7
   2              		.arch armv7e-m
   3              		.fpu fpv5-d16
   4              		.eabi_attribute 28, 1
   5              		.eabi_attribute 20, 1
   6              		.eabi_attribute 21, 1
   7              		.eabi_attribute 23, 3
   8              		.eabi_attribute 24, 1
   9              		.eabi_attribute 25, 1
  10              		.eabi_attribute 26, 1
  11              		.eabi_attribute 30, 1
  12              		.eabi_attribute 34, 1
  13              		.eabi_attribute 18, 4
  14              		.file	"fault_command.c"
  15              		.text
  16              	.Ltext0:
  17              		.cfi_sections	.debug_frame
  18              		.file 1 "App/Src/fault_command.c"
  19              		.section	.text.FaultCommand_Write,"ax",%progbits
  20              		.align	1
  21              		.syntax unified
  22              		.thumb
  23              		.thumb_func
  25              	FaultCommand_Write:
  26              	.LVL0:
  27              	.LFB149:
   1:App/Src/fault_command.c **** #include "fault_command.h"
   2:App/Src/fault_command.c **** 
   3:App/Src/fault_command.c **** #include <stdarg.h>
   4:App/Src/fault_command.c **** #include <stdio.h>
   5:App/Src/fault_command.c **** #include <stdlib.h>
   6:App/Src/fault_command.c **** #include <string.h>
   7:App/Src/fault_command.c **** 
   8:App/Src/fault_command.c **** #include "bms_response_log.h"
   9:App/Src/fault_command.c **** #include "bsp_can.h"
  10:App/Src/fault_command.c **** #include "voltage_sim.h"
  11:App/Src/fault_command.c **** #include "waveform_gen.h"
  12:App/Src/fault_command.c **** 
  13:App/Src/fault_command.c **** #define FAULT_COMMAND_DEFAULT_DURATION_MS 100U
  14:App/Src/fault_command.c **** #define FAULT_COMMAND_DEFAULT_SLEW_MV_PER_MS 3000U
  15:App/Src/fault_command.c **** 
  16:App/Src/fault_command.c **** static void FaultCommand_Write(FaultCommand_WriteFn write, void *context, const char *text)
  17:App/Src/fault_command.c **** {
  28              		.loc 1 17 1 view -0
  29              		.cfi_startproc
  30              		@ args = 0, pretend = 0, frame = 0
  31              		@ frame_needed = 0, uses_anonymous_args = 0
  18:App/Src/fault_command.c ****   if ((write != NULL) && (text != NULL))
  32              		.loc 1 18 3 view .LVU1
  33              		.loc 1 18 6 is_stmt 0 view .LVU2
  34 0000 0028     		cmp	r0, #0
  35 0002 18BF     		it	ne
  36 0004 002A     		cmpne	r2, #0
  37 0006 04D0     		beq	.L4
  17:App/Src/fault_command.c ****   if ((write != NULL) && (text != NULL))
  38              		.loc 1 17 1 view .LVU3
  39 0008 08B5     		push	{r3, lr}
ARM GAS  C:\Users\hh\AppData\Local\Temp\cc8MU7EM.s 			page 2


  40              	.LCFI0:
  41              		.cfi_def_cfa_offset 8
  42              		.cfi_offset 3, -8
  43              		.cfi_offset 14, -4
  44 000a 0346     		mov	r3, r0
  19:App/Src/fault_command.c ****   {
  20:App/Src/fault_command.c ****     write(text, context);
  45              		.loc 1 20 5 is_stmt 1 view .LVU4
  46 000c 1046     		mov	r0, r2
  47              	.LVL1:
  48              		.loc 1 20 5 is_stmt 0 view .LVU5
  49 000e 9847     		blx	r3
  50              	.LVL2:
  21:App/Src/fault_command.c ****   }
  22:App/Src/fault_command.c **** }
  51              		.loc 1 22 1 view .LVU6
  52 0010 08BD     		pop	{r3, pc}
  53              	.LVL3:
  54              	.L4:
  55              	.LCFI1:
  56              		.cfi_def_cfa_offset 0
  57              		.cfi_restore 3
  58              		.cfi_restore 14
  59              		.loc 1 22 1 view .LVU7
  60 0012 7047     		bx	lr
  61              		.cfi_endproc
  62              	.LFE149:
  64              		.section	.text.FaultCommand_SkipSpaces,"ax",%progbits
  65              		.align	1
  66              		.syntax unified
  67              		.thumb
  68              		.thumb_func
  70              	FaultCommand_SkipSpaces:
  71              	.LVL4:
  72              	.LFB151:
  23:App/Src/fault_command.c **** 
  24:App/Src/fault_command.c **** static void FaultCommand_WriteFormat(FaultCommand_WriteFn write,
  25:App/Src/fault_command.c ****                                      void *context,
  26:App/Src/fault_command.c ****                                      const char *format,
  27:App/Src/fault_command.c ****                                      ...)
  28:App/Src/fault_command.c **** {
  29:App/Src/fault_command.c ****   char buffer[192];
  30:App/Src/fault_command.c ****   va_list args;
  31:App/Src/fault_command.c **** 
  32:App/Src/fault_command.c ****   va_start(args, format);
  33:App/Src/fault_command.c ****   (void)vsnprintf(buffer, sizeof(buffer), format, args);
  34:App/Src/fault_command.c ****   va_end(args);
  35:App/Src/fault_command.c **** 
  36:App/Src/fault_command.c ****   FaultCommand_Write(write, context, buffer);
  37:App/Src/fault_command.c **** }
  38:App/Src/fault_command.c **** 
  39:App/Src/fault_command.c **** static const char *FaultCommand_SkipSpaces(const char *text)
  40:App/Src/fault_command.c **** {
  73              		.loc 1 40 1 is_stmt 1 view -0
  74              		.cfi_startproc
  75              		@ args = 0, pretend = 0, frame = 0
  76              		@ frame_needed = 0, uses_anonymous_args = 0
ARM GAS  C:\Users\hh\AppData\Local\Temp\cc8MU7EM.s 			page 3


  77              		@ link register save eliminated.
  41:App/Src/fault_command.c ****   while ((text != NULL) && (*text == ' '))
  78              		.loc 1 41 3 view .LVU9
  79              		.loc 1 41 9 is_stmt 0 view .LVU10
  80 0000 00E0     		b	.L8
  81              	.L10:
  42:App/Src/fault_command.c ****   {
  43:App/Src/fault_command.c ****     text++;
  82              		.loc 1 43 5 is_stmt 1 view .LVU11
  83              		.loc 1 43 9 is_stmt 0 view .LVU12
  84 0002 0130     		adds	r0, r0, #1
  85              	.LVL5:
  86              	.L8:
  41:App/Src/fault_command.c ****   while ((text != NULL) && (*text == ' '))
  87              		.loc 1 41 25 is_stmt 1 view .LVU13
  88 0004 10B1     		cbz	r0, .L9
  41:App/Src/fault_command.c ****   while ((text != NULL) && (*text == ' '))
  89              		.loc 1 41 29 is_stmt 0 discriminator 1 view .LVU14
  90 0006 0378     		ldrb	r3, [r0]	@ zero_extendqisi2
  41:App/Src/fault_command.c ****   while ((text != NULL) && (*text == ' '))
  91              		.loc 1 41 25 discriminator 1 view .LVU15
  92 0008 202B     		cmp	r3, #32
  93 000a FAD0     		beq	.L10
  94              	.L9:
  44:App/Src/fault_command.c ****   }
  45:App/Src/fault_command.c **** 
  46:App/Src/fault_command.c ****   return text;
  95              		.loc 1 46 3 is_stmt 1 view .LVU16
  47:App/Src/fault_command.c **** }
  96              		.loc 1 47 1 is_stmt 0 view .LVU17
  97 000c 7047     		bx	lr
  98              		.cfi_endproc
  99              	.LFE151:
 101              		.section	.rodata.FaultCommand_WriteTextHelp.str1.4,"aMS",%progbits,1
 102              		.align	2
 103              	.LC0:
 104 0000 0D0A5B63 		.ascii	"\015\012[cmd] help\015\012\000"
 104      6D645D20 
 104      68656C70 
 104      0D0A00
 105 000f 00       		.align	2
 106              	.LC1:
 107 0010 20206865 		.ascii	"  help\015\012\000"
 107      6C700D0A 
 107      00
 108 0019 000000   		.align	2
 109              	.LC2:
 110 001c 20207374 		.ascii	"  status\015\012\000"
 110      61747573 
 110      0D0A00
 111 0027 00       		.align	2
 112              	.LC3:
 113 0028 20206E6F 		.ascii	"  normal [mv]\015\012\000"
 113      726D616C 
 113      205B6D76 
 113      5D0D0A00 
 114              		.align	2
ARM GAS  C:\Users\hh\AppData\Local\Temp\cc8MU7EM.s 			page 4


 115              	.LC4:
 116 0038 20207365 		.ascii	"  set <cell> <mv>\015\012\000"
 116      74203C63 
 116      656C6C3E 
 116      203C6D76 
 116      3E0D0A00 
 117              		.align	2
 118              	.LC5:
 119 004c 20206F76 		.ascii	"  ov <cell> [mv] [duration_ms] [slew_mv_per_ms]\015"
 119      203C6365 
 119      6C6C3E20 
 119      5B6D765D 
 119      205B6475 
 120 007c 0A00     		.ascii	"\012\000"
 121 007e 0000     		.align	2
 122              	.LC6:
 123 0080 20207576 		.ascii	"  uv <cell> [mv] [duration_ms] [slew_mv_per_ms]\015"
 123      203C6365 
 123      6C6C3E20 
 123      5B6D765D 
 123      205B6475 
 124 00b0 0A00     		.ascii	"\012\000"
 125 00b2 0000     		.align	2
 126              	.LC7:
 127 00b4 20206469 		.ascii	"  diff <high_cell> <high_mv> <low_cell> <low_mv> [d"
 127      6666203C 
 127      68696768 
 127      5F63656C 
 127      6C3E203C 
 128 00e7 75726174 		.ascii	"uration_ms] [slew_mv_per_ms]\015\012\000"
 128      696F6E5F 
 128      6D735D20 
 128      5B736C65 
 128      775F6D76 
 129 0106 0000     		.align	2
 130              	.LC8:
 131 0108 20207761 		.ascii	"  wave status\015\012\000"
 131      76652073 
 131      74617475 
 131      730D0A00 
 132              		.align	2
 133              	.LC9:
 134 0118 20207761 		.ascii	"  wave stop\015\012\000"
 134      76652073 
 134      746F700D 
 134      0A00
 135 0126 0000     		.align	2
 136              	.LC10:
 137 0128 20207761 		.ascii	"  wave square <cell> <low_mv> <high_mv> <period_ms>"
 137      76652073 
 137      71756172 
 137      65203C63 
 137      656C6C3E 
 138 015b 0D0A00   		.ascii	"\015\012\000"
 139 015e 0000     		.align	2
 140              	.LC11:
 141 0160 20207761 		.ascii	"  wave sine <cell> <offset_mv> <amplitude_mv> <peri"
ARM GAS  C:\Users\hh\AppData\Local\Temp\cc8MU7EM.s 			page 5


 141      76652073 
 141      696E6520 
 141      3C63656C 
 141      6C3E203C 
 142 0193 6F645F6D 		.ascii	"od_ms>\015\012\000"
 142      733E0D0A 
 142      00
 143              		.align	2
 144              	.LC12:
 145 019c 20207761 		.ascii	"  wave sine all <offset_mv> <amplitude_mv> <period_"
 145      76652073 
 145      696E6520 
 145      616C6C20 
 145      3C6F6666 
 146 01cf 6D733E0D 		.ascii	"ms>\015\012\000"
 146      0A00
 147 01d5 000000   		.align	2
 148              	.LC13:
 149 01d8 20206361 		.ascii	"  cal status\015\012\000"
 149      6C207374 
 149      61747573 
 149      0D0A00
 150 01e7 00       		.align	2
 151              	.LC14:
 152 01e8 20206361 		.ascii	"  cal set <cell> <offset_mv>\015\012\000"
 152      6C207365 
 152      74203C63 
 152      656C6C3E 
 152      203C6F66 
 153 0207 00       		.align	2
 154              	.LC15:
 155 0208 20206361 		.ascii	"  cal trim <cell> <target_mv> <measured_mv>\015\012"
 155      6C207472 
 155      696D203C 
 155      63656C6C 
 155      3E203C74 
 156 0235 00       		.ascii	"\000"
 157 0236 0000     		.align	2
 158              	.LC16:
 159 0238 20206361 		.ascii	"  cal clear [cell]\015\012\000"
 159      6C20636C 
 159      65617220 
 159      5B63656C 
 159      6C5D0D0A 
 160 024d 000000   		.align	2
 161              	.LC17:
 162 0250 20207465 		.ascii	"  test static <mv>\015\012\000"
 162      73742073 
 162      74617469 
 162      63203C6D 
 162      763E0D0A 
 163 0265 000000   		.align	2
 164              	.LC18:
 165 0268 20207465 		.ascii	"  test slew <cell> <low_mv> <high_mv> <period_ms>\015"
 165      73742073 
 165      6C657720 
 165      3C63656C 
ARM GAS  C:\Users\hh\AppData\Local\Temp\cc8MU7EM.s 			page 6


 165      6C3E203C 
 166 029a 0A00     		.ascii	"\012\000"
 167              		.align	2
 168              	.LC19:
 169 029c 20206361 		.ascii	"  can status\015\012\000"
 169      6E207374 
 169      61747573 
 169      0D0A00
 170 02ab 00       		.align	2
 171              	.LC20:
 172 02ac 20206361 		.ascii	"  can send <std_id_hex> <len> [byte_hex ...]\015\012"
 172      6E207365 
 172      6E64203C 
 172      7374645F 
 172      69645F68 
 173 02da 00       		.ascii	"\000"
 174 02db 00       		.align	2
 175              	.LC21:
 176 02dc 20206C6F 		.ascii	"  log status\015\012\000"
 176      67207374 
 176      61747573 
 176      0D0A00
 177 02eb 00       		.align	2
 178              	.LC22:
 179 02ec 20206C6F 		.ascii	"  log clear\015\012\000"
 179      6720636C 
 179      6561720D 
 179      0A00
 180 02fa 0000     		.align	2
 181              	.LC23:
 182 02fc 2020636C 		.ascii	"  clear [cell]\015\012\000"
 182      65617220 
 182      5B63656C 
 182      6C5D0D0A 
 182      00
 183 030d 000000   		.align	2
 184              	.LC24:
 185 0310 20204A53 		.ascii	"  JSON examples: {\"cmd\":\"status\"}, {\"cmd\":\"c"
 185      4F4E2065 
 185      78616D70 
 185      6C65733A 
 185      207B2263 
 186 033c 616C222C 		.ascii	"al\",\"action\":\"trim\",\"cell\":1,\"target_mv\":2"
 186      22616374 
 186      696F6E22 
 186      3A227472 
 186      696D222C 
 187 0366 3530302C 		.ascii	"500,\"measured_mv\":2485}\015\012\000"
 187      226D6561 
 187      73757265 
 187      645F6D76 
 187      223A3234 
 188              		.section	.text.FaultCommand_WriteTextHelp,"ax",%progbits
 189              		.align	1
 190              		.syntax unified
 191              		.thumb
 192              		.thumb_func
ARM GAS  C:\Users\hh\AppData\Local\Temp\cc8MU7EM.s 			page 7


 194              	FaultCommand_WriteTextHelp:
 195              	.LVL6:
 196              	.LFB152:
  48:App/Src/fault_command.c **** 
  49:App/Src/fault_command.c **** static void FaultCommand_WriteTextHelp(FaultCommand_WriteFn write, void *context)
  50:App/Src/fault_command.c **** {
 197              		.loc 1 50 1 is_stmt 1 view -0
 198              		.cfi_startproc
 199              		@ args = 0, pretend = 0, frame = 0
 200              		@ frame_needed = 0, uses_anonymous_args = 0
 201              		.loc 1 50 1 is_stmt 0 view .LVU19
 202 0000 38B5     		push	{r3, r4, r5, lr}
 203              	.LCFI2:
 204              		.cfi_def_cfa_offset 16
 205              		.cfi_offset 3, -16
 206              		.cfi_offset 4, -12
 207              		.cfi_offset 5, -8
 208              		.cfi_offset 14, -4
 209 0002 0446     		mov	r4, r0
 210 0004 0D46     		mov	r5, r1
  51:App/Src/fault_command.c ****   FaultCommand_Write(write, context, "\r\n[cmd] help\r\n");
 211              		.loc 1 51 3 is_stmt 1 view .LVU20
 212 0006 3E4A     		ldr	r2, .L13
 213 0008 FFF7FEFF 		bl	FaultCommand_Write
 214              	.LVL7:
  52:App/Src/fault_command.c ****   FaultCommand_Write(write, context, "  help\r\n");
 215              		.loc 1 52 3 view .LVU21
 216 000c 3D4A     		ldr	r2, .L13+4
 217 000e 2946     		mov	r1, r5
 218 0010 2046     		mov	r0, r4
 219 0012 FFF7FEFF 		bl	FaultCommand_Write
 220              	.LVL8:
  53:App/Src/fault_command.c ****   FaultCommand_Write(write, context, "  status\r\n");
 221              		.loc 1 53 3 view .LVU22
 222 0016 3C4A     		ldr	r2, .L13+8
 223 0018 2946     		mov	r1, r5
 224 001a 2046     		mov	r0, r4
 225 001c FFF7FEFF 		bl	FaultCommand_Write
 226              	.LVL9:
  54:App/Src/fault_command.c ****   FaultCommand_Write(write, context, "  normal [mv]\r\n");
 227              		.loc 1 54 3 view .LVU23
 228 0020 3A4A     		ldr	r2, .L13+12
 229 0022 2946     		mov	r1, r5
 230 0024 2046     		mov	r0, r4
 231 0026 FFF7FEFF 		bl	FaultCommand_Write
 232              	.LVL10:
  55:App/Src/fault_command.c ****   FaultCommand_Write(write, context, "  set <cell> <mv>\r\n");
 233              		.loc 1 55 3 view .LVU24
 234 002a 394A     		ldr	r2, .L13+16
 235 002c 2946     		mov	r1, r5
 236 002e 2046     		mov	r0, r4
 237 0030 FFF7FEFF 		bl	FaultCommand_Write
 238              	.LVL11:
  56:App/Src/fault_command.c ****   FaultCommand_Write(write, context, "  ov <cell> [mv] [duration_ms] [slew_mv_per_ms]\r\n");
 239              		.loc 1 56 3 view .LVU25
 240 0034 374A     		ldr	r2, .L13+20
 241 0036 2946     		mov	r1, r5
ARM GAS  C:\Users\hh\AppData\Local\Temp\cc8MU7EM.s 			page 8


 242 0038 2046     		mov	r0, r4
 243 003a FFF7FEFF 		bl	FaultCommand_Write
 244              	.LVL12:
  57:App/Src/fault_command.c ****   FaultCommand_Write(write, context, "  uv <cell> [mv] [duration_ms] [slew_mv_per_ms]\r\n");
 245              		.loc 1 57 3 view .LVU26
 246 003e 364A     		ldr	r2, .L13+24
 247 0040 2946     		mov	r1, r5
 248 0042 2046     		mov	r0, r4
 249 0044 FFF7FEFF 		bl	FaultCommand_Write
 250              	.LVL13:
  58:App/Src/fault_command.c ****   FaultCommand_Write(write, context, "  diff <high_cell> <high_mv> <low_cell> <low_mv> [duration_ms
 251              		.loc 1 58 3 view .LVU27
 252 0048 344A     		ldr	r2, .L13+28
 253 004a 2946     		mov	r1, r5
 254 004c 2046     		mov	r0, r4
 255 004e FFF7FEFF 		bl	FaultCommand_Write
 256              	.LVL14:
  59:App/Src/fault_command.c ****   FaultCommand_Write(write, context, "  wave status\r\n");
 257              		.loc 1 59 3 view .LVU28
 258 0052 334A     		ldr	r2, .L13+32
 259 0054 2946     		mov	r1, r5
 260 0056 2046     		mov	r0, r4
 261 0058 FFF7FEFF 		bl	FaultCommand_Write
 262              	.LVL15:
  60:App/Src/fault_command.c ****   FaultCommand_Write(write, context, "  wave stop\r\n");
 263              		.loc 1 60 3 view .LVU29
 264 005c 314A     		ldr	r2, .L13+36
 265 005e 2946     		mov	r1, r5
 266 0060 2046     		mov	r0, r4
 267 0062 FFF7FEFF 		bl	FaultCommand_Write
 268              	.LVL16:
  61:App/Src/fault_command.c ****   FaultCommand_Write(write, context, "  wave square <cell> <low_mv> <high_mv> <period_ms>\r\n");
 269              		.loc 1 61 3 view .LVU30
 270 0066 304A     		ldr	r2, .L13+40
 271 0068 2946     		mov	r1, r5
 272 006a 2046     		mov	r0, r4
 273 006c FFF7FEFF 		bl	FaultCommand_Write
 274              	.LVL17:
  62:App/Src/fault_command.c ****   FaultCommand_Write(write, context, "  wave sine <cell> <offset_mv> <amplitude_mv> <period_ms>\r\n
 275              		.loc 1 62 3 view .LVU31
 276 0070 2E4A     		ldr	r2, .L13+44
 277 0072 2946     		mov	r1, r5
 278 0074 2046     		mov	r0, r4
 279 0076 FFF7FEFF 		bl	FaultCommand_Write
 280              	.LVL18:
  63:App/Src/fault_command.c ****   FaultCommand_Write(write, context, "  wave sine all <offset_mv> <amplitude_mv> <period_ms>\r\n");
 281              		.loc 1 63 3 view .LVU32
 282 007a 2D4A     		ldr	r2, .L13+48
 283 007c 2946     		mov	r1, r5
 284 007e 2046     		mov	r0, r4
 285 0080 FFF7FEFF 		bl	FaultCommand_Write
 286              	.LVL19:
  64:App/Src/fault_command.c ****   FaultCommand_Write(write, context, "  cal status\r\n");
 287              		.loc 1 64 3 view .LVU33
 288 0084 2B4A     		ldr	r2, .L13+52
 289 0086 2946     		mov	r1, r5
 290 0088 2046     		mov	r0, r4
ARM GAS  C:\Users\hh\AppData\Local\Temp\cc8MU7EM.s 			page 9


 291 008a FFF7FEFF 		bl	FaultCommand_Write
 292              	.LVL20:
  65:App/Src/fault_command.c ****   FaultCommand_Write(write, context, "  cal set <cell> <offset_mv>\r\n");
 293              		.loc 1 65 3 view .LVU34
 294 008e 2A4A     		ldr	r2, .L13+56
 295 0090 2946     		mov	r1, r5
 296 0092 2046     		mov	r0, r4
 297 0094 FFF7FEFF 		bl	FaultCommand_Write
 298              	.LVL21:
  66:App/Src/fault_command.c ****   FaultCommand_Write(write, context, "  cal trim <cell> <target_mv> <measured_mv>\r\n");
 299              		.loc 1 66 3 view .LVU35
 300 0098 284A     		ldr	r2, .L13+60
 301 009a 2946     		mov	r1, r5
 302 009c 2046     		mov	r0, r4
 303 009e FFF7FEFF 		bl	FaultCommand_Write
 304              	.LVL22:
  67:App/Src/fault_command.c ****   FaultCommand_Write(write, context, "  cal clear [cell]\r\n");
 305              		.loc 1 67 3 view .LVU36
 306 00a2 274A     		ldr	r2, .L13+64
 307 00a4 2946     		mov	r1, r5
 308 00a6 2046     		mov	r0, r4
 309 00a8 FFF7FEFF 		bl	FaultCommand_Write
 310              	.LVL23:
  68:App/Src/fault_command.c ****   FaultCommand_Write(write, context, "  test static <mv>\r\n");
 311              		.loc 1 68 3 view .LVU37
 312 00ac 254A     		ldr	r2, .L13+68
 313 00ae 2946     		mov	r1, r5
 314 00b0 2046     		mov	r0, r4
 315 00b2 FFF7FEFF 		bl	FaultCommand_Write
 316              	.LVL24:
  69:App/Src/fault_command.c ****   FaultCommand_Write(write, context, "  test slew <cell> <low_mv> <high_mv> <period_ms>\r\n");
 317              		.loc 1 69 3 view .LVU38
 318 00b6 244A     		ldr	r2, .L13+72
 319 00b8 2946     		mov	r1, r5
 320 00ba 2046     		mov	r0, r4
 321 00bc FFF7FEFF 		bl	FaultCommand_Write
 322              	.LVL25:
  70:App/Src/fault_command.c ****   FaultCommand_Write(write, context, "  can status\r\n");
 323              		.loc 1 70 3 view .LVU39
 324 00c0 224A     		ldr	r2, .L13+76
 325 00c2 2946     		mov	r1, r5
 326 00c4 2046     		mov	r0, r4
 327 00c6 FFF7FEFF 		bl	FaultCommand_Write
 328              	.LVL26:
  71:App/Src/fault_command.c ****   FaultCommand_Write(write, context, "  can send <std_id_hex> <len> [byte_hex ...]\r\n");
 329              		.loc 1 71 3 view .LVU40
 330 00ca 214A     		ldr	r2, .L13+80
 331 00cc 2946     		mov	r1, r5
 332 00ce 2046     		mov	r0, r4
 333 00d0 FFF7FEFF 		bl	FaultCommand_Write
 334              	.LVL27:
  72:App/Src/fault_command.c ****   FaultCommand_Write(write, context, "  log status\r\n");
 335              		.loc 1 72 3 view .LVU41
 336 00d4 1F4A     		ldr	r2, .L13+84
 337 00d6 2946     		mov	r1, r5
 338 00d8 2046     		mov	r0, r4
 339 00da FFF7FEFF 		bl	FaultCommand_Write
ARM GAS  C:\Users\hh\AppData\Local\Temp\cc8MU7EM.s 			page 10


 340              	.LVL28:
  73:App/Src/fault_command.c ****   FaultCommand_Write(write, context, "  log clear\r\n");
 341              		.loc 1 73 3 view .LVU42
 342 00de 1E4A     		ldr	r2, .L13+88
 343 00e0 2946     		mov	r1, r5
 344 00e2 2046     		mov	r0, r4
 345 00e4 FFF7FEFF 		bl	FaultCommand_Write
 346              	.LVL29:
  74:App/Src/fault_command.c ****   FaultCommand_Write(write, context, "  clear [cell]\r\n");
 347              		.loc 1 74 3 view .LVU43
 348 00e8 1C4A     		ldr	r2, .L13+92
 349 00ea 2946     		mov	r1, r5
 350 00ec 2046     		mov	r0, r4
 351 00ee FFF7FEFF 		bl	FaultCommand_Write
 352              	.LVL30:
  75:App/Src/fault_command.c ****   FaultCommand_Write(write, context, "  JSON examples: {\"cmd\":\"status\"}, {\"cmd\":\"cal\",\"act
 353              		.loc 1 75 3 view .LVU44
 354 00f2 1B4A     		ldr	r2, .L13+96
 355 00f4 2946     		mov	r1, r5
 356 00f6 2046     		mov	r0, r4
 357 00f8 FFF7FEFF 		bl	FaultCommand_Write
 358              	.LVL31:
  76:App/Src/fault_command.c **** }
 359              		.loc 1 76 1 is_stmt 0 view .LVU45
 360 00fc 38BD     		pop	{r3, r4, r5, pc}
 361              	.LVL32:
 362              	.L14:
 363              		.loc 1 76 1 view .LVU46
 364 00fe 00BF     		.align	2
 365              	.L13:
 366 0100 00000000 		.word	.LC0
 367 0104 10000000 		.word	.LC1
 368 0108 1C000000 		.word	.LC2
 369 010c 28000000 		.word	.LC3
 370 0110 38000000 		.word	.LC4
 371 0114 4C000000 		.word	.LC5
 372 0118 80000000 		.word	.LC6
 373 011c B4000000 		.word	.LC7
 374 0120 08010000 		.word	.LC8
 375 0124 18010000 		.word	.LC9
 376 0128 28010000 		.word	.LC10
 377 012c 60010000 		.word	.LC11
 378 0130 9C010000 		.word	.LC12
 379 0134 D8010000 		.word	.LC13
 380 0138 E8010000 		.word	.LC14
 381 013c 08020000 		.word	.LC15
 382 0140 38020000 		.word	.LC16
 383 0144 50020000 		.word	.LC17
 384 0148 68020000 		.word	.LC18
 385 014c 9C020000 		.word	.LC19
 386 0150 AC020000 		.word	.LC20
 387 0154 DC020000 		.word	.LC21
 388 0158 EC020000 		.word	.LC22
 389 015c FC020000 		.word	.LC23
 390 0160 10030000 		.word	.LC24
 391              		.cfi_endproc
 392              	.LFE152:
ARM GAS  C:\Users\hh\AppData\Local\Temp\cc8MU7EM.s 			page 11


 394              		.section	.text.FaultCommand_RunCalibrationTrim,"ax",%progbits
 395              		.align	1
 396              		.syntax unified
 397              		.thumb
 398              		.thumb_func
 400              	FaultCommand_RunCalibrationTrim:
 401              	.LVL33:
 402              	.LFB165:
  77:App/Src/fault_command.c **** 
  78:App/Src/fault_command.c **** static void FaultCommand_WriteTextWaveStatus(FaultCommand_WriteFn write, void *context)
  79:App/Src/fault_command.c **** {
  80:App/Src/fault_command.c ****   WaveformGen_Status status = WaveformGen_GetStatus();
  81:App/Src/fault_command.c **** 
  82:App/Src/fault_command.c ****   FaultCommand_WriteFormat(write,
  83:App/Src/fault_command.c ****                            context,
  84:App/Src/fault_command.c ****                            "[wave] active=%u type=%s cell=%u period=%lums last=%umV\r\n",
  85:App/Src/fault_command.c ****                            status.active,
  86:App/Src/fault_command.c ****                            WaveformGen_GetTypeName(status.type),
  87:App/Src/fault_command.c ****                            status.cell,
  88:App/Src/fault_command.c ****                            (unsigned long)status.periodMs,
  89:App/Src/fault_command.c ****                            status.lastMillivolts);
  90:App/Src/fault_command.c **** }
  91:App/Src/fault_command.c **** 
  92:App/Src/fault_command.c **** static void FaultCommand_WriteTextCanStatus(FaultCommand_WriteFn write, void *context)
  93:App/Src/fault_command.c **** {
  94:App/Src/fault_command.c ****   BspCan_Status status = BspCan_GetStatus();
  95:App/Src/fault_command.c **** 
  96:App/Src/fault_command.c ****   FaultCommand_WriteFormat(write,
  97:App/Src/fault_command.c ****                            context,
  98:App/Src/fault_command.c ****                            "\r\n[can] started=%u tx=%lu rx=%lu err=%lu last_id=0x%lX last_len=%u la
  99:App/Src/fault_command.c ****                            status.started,
 100:App/Src/fault_command.c ****                            (unsigned long)status.txCount,
 101:App/Src/fault_command.c ****                            (unsigned long)status.rxCount,
 102:App/Src/fault_command.c ****                            (unsigned long)status.errorCount,
 103:App/Src/fault_command.c ****                            (unsigned long)status.lastRxId,
 104:App/Src/fault_command.c ****                            status.lastRxLength,
 105:App/Src/fault_command.c ****                            (unsigned long)status.lastRxTick);
 106:App/Src/fault_command.c **** 
 107:App/Src/fault_command.c ****   for (uint8_t index = 0U; index < status.lastRxLength; index++)
 108:App/Src/fault_command.c ****   {
 109:App/Src/fault_command.c ****     FaultCommand_WriteFormat(write,
 110:App/Src/fault_command.c ****                              context,
 111:App/Src/fault_command.c ****                              "%02X%s",
 112:App/Src/fault_command.c ****                              status.lastRxData[index],
 113:App/Src/fault_command.c ****                              (index + 1U == status.lastRxLength) ? "" : " ");
 114:App/Src/fault_command.c ****   }
 115:App/Src/fault_command.c ****   FaultCommand_Write(write, context, "\r\n");
 116:App/Src/fault_command.c **** }
 117:App/Src/fault_command.c **** 
 118:App/Src/fault_command.c **** static void FaultCommand_WriteTextBmsResponseLog(FaultCommand_WriteFn write, void *context)
 119:App/Src/fault_command.c **** {
 120:App/Src/fault_command.c ****   BmsResponseLog_Status status = BmsResponseLog_GetStatus();
 121:App/Src/fault_command.c **** 
 122:App/Src/fault_command.c ****   FaultCommand_WriteFormat(write,
 123:App/Src/fault_command.c ****                            context,
 124:App/Src/fault_command.c ****                            "\r\n[log] armed=%u trigger=%s t1=%lums primary=C%02u/%umV secondary=C%0
 125:App/Src/fault_command.c ****                            status.armed,
ARM GAS  C:\Users\hh\AppData\Local\Temp\cc8MU7EM.s 			page 12


 126:App/Src/fault_command.c ****                            BmsResponseLog_GetTriggerName(status.triggerType),
 127:App/Src/fault_command.c ****                            (unsigned long)status.triggerTick,
 128:App/Src/fault_command.c ****                            status.primaryCell,
 129:App/Src/fault_command.c ****                            status.primaryMillivolts,
 130:App/Src/fault_command.c ****                            status.secondaryCell,
 131:App/Src/fault_command.c ****                            status.secondaryMillivolts,
 132:App/Src/fault_command.c ****                            (unsigned long)status.canFramesAfterTrigger,
 133:App/Src/fault_command.c ****                            status.responseCaptured);
 134:App/Src/fault_command.c **** 
 135:App/Src/fault_command.c ****   if (status.responseCaptured != 0U)
 136:App/Src/fault_command.c ****   {
 137:App/Src/fault_command.c ****     FaultCommand_WriteFormat(write,
 138:App/Src/fault_command.c ****                              context,
 139:App/Src/fault_command.c ****                              " t2=%lums delay=%lums id=0x%lX ext=%u len=%u data=",
 140:App/Src/fault_command.c ****                              (unsigned long)status.responseTick,
 141:App/Src/fault_command.c ****                              (unsigned long)status.responseDelayMs,
 142:App/Src/fault_command.c ****                              (unsigned long)status.responseCanId,
 143:App/Src/fault_command.c ****                              status.responseCanIsExtended,
 144:App/Src/fault_command.c ****                              status.responseCanLength);
 145:App/Src/fault_command.c ****     for (uint8_t index = 0U; index < status.responseCanLength; index++)
 146:App/Src/fault_command.c ****     {
 147:App/Src/fault_command.c ****       FaultCommand_WriteFormat(write,
 148:App/Src/fault_command.c ****                                context,
 149:App/Src/fault_command.c ****                                "%02X%s",
 150:App/Src/fault_command.c ****                                status.responseCanData[index],
 151:App/Src/fault_command.c ****                                (index + 1U == status.responseCanLength) ? "" : " ");
 152:App/Src/fault_command.c ****     }
 153:App/Src/fault_command.c ****   }
 154:App/Src/fault_command.c **** 
 155:App/Src/fault_command.c ****   FaultCommand_Write(write, context, "\r\n");
 156:App/Src/fault_command.c **** }
 157:App/Src/fault_command.c **** 
 158:App/Src/fault_command.c **** static void FaultCommand_WriteTextStatus(FaultCommand_WriteFn write, void *context)
 159:App/Src/fault_command.c **** {
 160:App/Src/fault_command.c ****   FaultCommand_WriteFormat(write, context, "\r\n[status] active_faults=%u\r\n",
 161:App/Src/fault_command.c ****                            VoltageSim_GetActiveFaultCount());
 162:App/Src/fault_command.c **** 
 163:App/Src/fault_command.c ****   for (uint8_t cell = 1U; cell <= VOLTAGE_SIM_CELL_COUNT; cell++)
 164:App/Src/fault_command.c ****   {
 165:App/Src/fault_command.c ****     VoltageSim_CellFaultInfo info = VoltageSim_GetCellFaultInfo(cell);
 166:App/Src/fault_command.c **** 
 167:App/Src/fault_command.c ****     FaultCommand_WriteFormat(write, context, "  C%02u=%umV",
 168:App/Src/fault_command.c ****                              cell,
 169:App/Src/fault_command.c ****                              VoltageSim_GetLastCellVoltageMv(cell));
 170:App/Src/fault_command.c ****     if (VoltageSim_GetCellCalibrationOffsetMv(cell) != 0)
 171:App/Src/fault_command.c ****     {
 172:App/Src/fault_command.c ****       FaultCommand_WriteFormat(write,
 173:App/Src/fault_command.c ****                                context,
 174:App/Src/fault_command.c ****                                " cal=%dmV",
 175:App/Src/fault_command.c ****                                (int)VoltageSim_GetCellCalibrationOffsetMv(cell));
 176:App/Src/fault_command.c ****     }
 177:App/Src/fault_command.c ****     if (info.type != VOLTAGE_SIM_FAULT_NONE)
 178:App/Src/fault_command.c ****     {
 179:App/Src/fault_command.c ****       FaultCommand_WriteFormat(write,
 180:App/Src/fault_command.c ****                                context,
 181:App/Src/fault_command.c ****                                " fault=%s target=%umV restore=%umV duration=%lums slew=%umV/ms",
 182:App/Src/fault_command.c ****                                VoltageSim_GetFaultTypeName(info.type),
ARM GAS  C:\Users\hh\AppData\Local\Temp\cc8MU7EM.s 			page 13


 183:App/Src/fault_command.c ****                                info.targetMillivolts,
 184:App/Src/fault_command.c ****                                info.restoreMillivolts,
 185:App/Src/fault_command.c ****                                (unsigned long)info.durationMs,
 186:App/Src/fault_command.c ****                                info.slewRateMvPerMs);
 187:App/Src/fault_command.c ****     }
 188:App/Src/fault_command.c ****     FaultCommand_Write(write, context, "\r\n");
 189:App/Src/fault_command.c ****   }
 190:App/Src/fault_command.c **** }
 191:App/Src/fault_command.c **** 
 192:App/Src/fault_command.c **** static void FaultCommand_WriteTextCalibrationStatus(FaultCommand_WriteFn write, void *context)
 193:App/Src/fault_command.c **** {
 194:App/Src/fault_command.c ****   FaultCommand_Write(write, context, "\r\n[cal]\r\n");
 195:App/Src/fault_command.c **** 
 196:App/Src/fault_command.c ****   for (uint8_t cell = 1U; cell <= VOLTAGE_SIM_CELL_COUNT; cell++)
 197:App/Src/fault_command.c ****   {
 198:App/Src/fault_command.c ****     FaultCommand_WriteFormat(write,
 199:App/Src/fault_command.c ****                              context,
 200:App/Src/fault_command.c ****                              "  C%02u offset=%dmV\r\n",
 201:App/Src/fault_command.c ****                              cell,
 202:App/Src/fault_command.c ****                              (int)VoltageSim_GetCellCalibrationOffsetMv(cell));
 203:App/Src/fault_command.c ****   }
 204:App/Src/fault_command.c **** }
 205:App/Src/fault_command.c **** 
 206:App/Src/fault_command.c **** static void FaultCommand_WriteTextResult(FaultCommand_WriteFn write,
 207:App/Src/fault_command.c ****                                          void *context,
 208:App/Src/fault_command.c ****                                          const char *name,
 209:App/Src/fault_command.c ****                                          HAL_StatusTypeDef status)
 210:App/Src/fault_command.c **** {
 211:App/Src/fault_command.c ****   FaultCommand_WriteFormat(write, context, "[cmd] %s %s\r\n",
 212:App/Src/fault_command.c ****                            name,
 213:App/Src/fault_command.c ****                            (status == HAL_OK) ? "OK" : "ERR");
 214:App/Src/fault_command.c **** }
 215:App/Src/fault_command.c **** 
 216:App/Src/fault_command.c **** static void FaultCommand_WriteJsonResult(FaultCommand_WriteFn write,
 217:App/Src/fault_command.c ****                                          void *context,
 218:App/Src/fault_command.c ****                                          const char *cmd,
 219:App/Src/fault_command.c ****                                          HAL_StatusTypeDef status)
 220:App/Src/fault_command.c **** {
 221:App/Src/fault_command.c ****   FaultCommand_WriteFormat(write, context, "{\"ok\":%s,\"cmd\":\"%s\"}\r\n",
 222:App/Src/fault_command.c ****                            (status == HAL_OK) ? "true" : "false",
 223:App/Src/fault_command.c ****                            cmd);
 224:App/Src/fault_command.c **** }
 225:App/Src/fault_command.c **** 
 226:App/Src/fault_command.c **** static void FaultCommand_WriteJsonStatus(FaultCommand_WriteFn write, void *context)
 227:App/Src/fault_command.c **** {
 228:App/Src/fault_command.c ****   WaveformGen_Status waveform = WaveformGen_GetStatus();
 229:App/Src/fault_command.c **** 
 230:App/Src/fault_command.c ****   FaultCommand_WriteFormat(write,
 231:App/Src/fault_command.c ****                            context,
 232:App/Src/fault_command.c ****                            "{\"ok\":true,\"active_faults\":%u,\"waveform\":{\"active\":%u,\"type\":
 233:App/Src/fault_command.c ****                            VoltageSim_GetActiveFaultCount(),
 234:App/Src/fault_command.c ****                            waveform.active,
 235:App/Src/fault_command.c ****                            WaveformGen_GetTypeName(waveform.type),
 236:App/Src/fault_command.c ****                            waveform.cell,
 237:App/Src/fault_command.c ****                            (unsigned long)waveform.periodMs,
 238:App/Src/fault_command.c ****                            waveform.lastMillivolts);
 239:App/Src/fault_command.c **** 
ARM GAS  C:\Users\hh\AppData\Local\Temp\cc8MU7EM.s 			page 14


 240:App/Src/fault_command.c ****   for (uint8_t cell = 1U; cell <= VOLTAGE_SIM_CELL_COUNT; cell++)
 241:App/Src/fault_command.c ****   {
 242:App/Src/fault_command.c ****     VoltageSim_CellFaultInfo info = VoltageSim_GetCellFaultInfo(cell);
 243:App/Src/fault_command.c **** 
 244:App/Src/fault_command.c ****     FaultCommand_WriteFormat(write,
 245:App/Src/fault_command.c ****                              context,
 246:App/Src/fault_command.c ****                              "%s{\"cell\":%u,\"mv\":%u,\"cal_mv\":%d,\"fault\":\"%s\",\"target_mv\"
 247:App/Src/fault_command.c ****                              (cell == 1U) ? "" : ",",
 248:App/Src/fault_command.c ****                              cell,
 249:App/Src/fault_command.c ****                              VoltageSim_GetLastCellVoltageMv(cell),
 250:App/Src/fault_command.c ****                              (int)VoltageSim_GetCellCalibrationOffsetMv(cell),
 251:App/Src/fault_command.c ****                              VoltageSim_GetFaultTypeName(info.type),
 252:App/Src/fault_command.c ****                              info.targetMillivolts,
 253:App/Src/fault_command.c ****                              info.restoreMillivolts,
 254:App/Src/fault_command.c ****                              (unsigned long)info.durationMs,
 255:App/Src/fault_command.c ****                              info.slewRateMvPerMs);
 256:App/Src/fault_command.c ****   }
 257:App/Src/fault_command.c **** 
 258:App/Src/fault_command.c ****   FaultCommand_Write(write, context, "]}\r\n");
 259:App/Src/fault_command.c **** }
 260:App/Src/fault_command.c **** 
 261:App/Src/fault_command.c **** static void FaultCommand_WriteJsonCanStatus(FaultCommand_WriteFn write, void *context)
 262:App/Src/fault_command.c **** {
 263:App/Src/fault_command.c ****   BspCan_Status status = BspCan_GetStatus();
 264:App/Src/fault_command.c **** 
 265:App/Src/fault_command.c ****   FaultCommand_WriteFormat(write,
 266:App/Src/fault_command.c ****                            context,
 267:App/Src/fault_command.c ****                            "{\"ok\":true,\"can\":{\"started\":%u,\"tx\":%lu,\"rx\":%lu,\"err\":%lu,
 268:App/Src/fault_command.c ****                            status.started,
 269:App/Src/fault_command.c ****                            (unsigned long)status.txCount,
 270:App/Src/fault_command.c ****                            (unsigned long)status.rxCount,
 271:App/Src/fault_command.c ****                            (unsigned long)status.errorCount,
 272:App/Src/fault_command.c ****                            (unsigned long)status.lastRxId,
 273:App/Src/fault_command.c ****                            (unsigned long)status.lastRxId,
 274:App/Src/fault_command.c ****                            status.lastRxIsExtended,
 275:App/Src/fault_command.c ****                            status.lastRxLength,
 276:App/Src/fault_command.c ****                            (unsigned long)status.lastRxTick);
 277:App/Src/fault_command.c **** 
 278:App/Src/fault_command.c ****   for (uint8_t index = 0U; index < status.lastRxLength; index++)
 279:App/Src/fault_command.c ****   {
 280:App/Src/fault_command.c ****     FaultCommand_WriteFormat(write,
 281:App/Src/fault_command.c ****                              context,
 282:App/Src/fault_command.c ****                              "%s%u",
 283:App/Src/fault_command.c ****                              (index == 0U) ? "" : ",",
 284:App/Src/fault_command.c ****                              status.lastRxData[index]);
 285:App/Src/fault_command.c ****   }
 286:App/Src/fault_command.c ****   FaultCommand_Write(write, context, "]}}\r\n");
 287:App/Src/fault_command.c **** }
 288:App/Src/fault_command.c **** 
 289:App/Src/fault_command.c **** static void FaultCommand_WriteJsonBmsResponseLog(FaultCommand_WriteFn write, void *context)
 290:App/Src/fault_command.c **** {
 291:App/Src/fault_command.c ****   BmsResponseLog_Status status = BmsResponseLog_GetStatus();
 292:App/Src/fault_command.c **** 
 293:App/Src/fault_command.c ****   FaultCommand_WriteFormat(write,
 294:App/Src/fault_command.c ****                            context,
 295:App/Src/fault_command.c ****                            "{\"ok\":true,\"log\":{\"armed\":%u,\"trigger\":\"%s\",\"trigger_tick\":
 296:App/Src/fault_command.c ****                            status.armed,
ARM GAS  C:\Users\hh\AppData\Local\Temp\cc8MU7EM.s 			page 15


 297:App/Src/fault_command.c ****                            BmsResponseLog_GetTriggerName(status.triggerType),
 298:App/Src/fault_command.c ****                            (unsigned long)status.triggerTick,
 299:App/Src/fault_command.c ****                            status.primaryCell,
 300:App/Src/fault_command.c ****                            status.primaryMillivolts,
 301:App/Src/fault_command.c ****                            status.secondaryCell,
 302:App/Src/fault_command.c ****                            status.secondaryMillivolts,
 303:App/Src/fault_command.c ****                            (unsigned long)status.canFramesAfterTrigger,
 304:App/Src/fault_command.c ****                            status.responseCaptured,
 305:App/Src/fault_command.c ****                            (unsigned long)status.responseTick,
 306:App/Src/fault_command.c ****                            (unsigned long)status.responseDelayMs,
 307:App/Src/fault_command.c ****                            (unsigned long)status.responseCanId,
 308:App/Src/fault_command.c ****                            (unsigned long)status.responseCanId,
 309:App/Src/fault_command.c ****                            status.responseCanIsExtended,
 310:App/Src/fault_command.c ****                            status.responseCanLength);
 311:App/Src/fault_command.c **** 
 312:App/Src/fault_command.c ****   for (uint8_t index = 0U; index < status.responseCanLength; index++)
 313:App/Src/fault_command.c ****   {
 314:App/Src/fault_command.c ****     FaultCommand_WriteFormat(write,
 315:App/Src/fault_command.c ****                              context,
 316:App/Src/fault_command.c ****                              "%s%u",
 317:App/Src/fault_command.c ****                              (index == 0U) ? "" : ",",
 318:App/Src/fault_command.c ****                              status.responseCanData[index]);
 319:App/Src/fault_command.c ****   }
 320:App/Src/fault_command.c ****   FaultCommand_Write(write, context, "]}}\r\n");
 321:App/Src/fault_command.c **** }
 322:App/Src/fault_command.c **** 
 323:App/Src/fault_command.c **** static HAL_StatusTypeDef FaultCommand_RunNormal(uint16_t millivolts)
 324:App/Src/fault_command.c **** {
 325:App/Src/fault_command.c ****   WaveformGen_Stop();
 326:App/Src/fault_command.c ****   return VoltageSim_SetAllCellsVoltageMv(millivolts);
 327:App/Src/fault_command.c **** }
 328:App/Src/fault_command.c **** 
 329:App/Src/fault_command.c **** static HAL_StatusTypeDef FaultCommand_RunSet(uint8_t cell, uint16_t millivolts)
 330:App/Src/fault_command.c **** {
 331:App/Src/fault_command.c ****   WaveformGen_Stop();
 332:App/Src/fault_command.c ****   return VoltageSim_SetCellVoltageMv(cell, millivolts);
 333:App/Src/fault_command.c **** }
 334:App/Src/fault_command.c **** 
 335:App/Src/fault_command.c **** static HAL_StatusTypeDef FaultCommand_RunCalibrationTrim(uint8_t cell,
 336:App/Src/fault_command.c ****                                                          uint16_t targetMillivolts,
 337:App/Src/fault_command.c ****                                                          uint16_t measuredMillivolts)
 338:App/Src/fault_command.c **** {
 403              		.loc 1 338 1 is_stmt 1 view -0
 404              		.cfi_startproc
 405              		@ args = 0, pretend = 0, frame = 0
 406              		@ frame_needed = 0, uses_anonymous_args = 0
 407              		.loc 1 338 1 is_stmt 0 view .LVU48
 408 0000 70B5     		push	{r4, r5, r6, lr}
 409              	.LCFI3:
 410              		.cfi_def_cfa_offset 16
 411              		.cfi_offset 4, -16
 412              		.cfi_offset 5, -12
 413              		.cfi_offset 6, -8
 414              		.cfi_offset 14, -4
 415 0002 0646     		mov	r6, r0
 416 0004 0D46     		mov	r5, r1
 417 0006 1446     		mov	r4, r2
ARM GAS  C:\Users\hh\AppData\Local\Temp\cc8MU7EM.s 			page 16


 339:App/Src/fault_command.c ****   int32_t offset;
 418              		.loc 1 339 3 is_stmt 1 view .LVU49
 340:App/Src/fault_command.c **** 
 341:App/Src/fault_command.c ****   offset = (int32_t)VoltageSim_GetCellCalibrationOffsetMv(cell) +
 419              		.loc 1 341 3 view .LVU50
 420              		.loc 1 341 21 is_stmt 0 view .LVU51
 421 0008 FFF7FEFF 		bl	VoltageSim_GetCellCalibrationOffsetMv
 422              	.LVL34:
 423              		.loc 1 341 65 view .LVU52
 424 000c 2946     		mov	r1, r5
 425 000e 0144     		add	r1, r1, r0
 426              		.loc 1 341 10 view .LVU53
 427 0010 091B     		subs	r1, r1, r4
 428              	.LVL35:
 342:App/Src/fault_command.c ****            (int32_t)targetMillivolts -
 343:App/Src/fault_command.c ****            (int32_t)measuredMillivolts;
 344:App/Src/fault_command.c **** 
 345:App/Src/fault_command.c ****   if ((offset < -VOLTAGE_SIM_CAL_OFFSET_LIMIT_MV) ||
 429              		.loc 1 345 3 is_stmt 1 view .LVU54
 430              		.loc 1 345 51 is_stmt 0 view .LVU55
 431 0012 01F5FA73 		add	r3, r1, #500
 432              		.loc 1 345 6 view .LVU56
 433 0016 B3F57A7F 		cmp	r3, #1000
 434 001a 01D9     		bls	.L19
 346:App/Src/fault_command.c ****       (offset > VOLTAGE_SIM_CAL_OFFSET_LIMIT_MV))
 347:App/Src/fault_command.c ****   {
 348:App/Src/fault_command.c ****     return HAL_ERROR;
 435              		.loc 1 348 12 view .LVU57
 436 001c 0120     		movs	r0, #1
 437              	.LVL36:
 438              	.L16:
 349:App/Src/fault_command.c ****   }
 350:App/Src/fault_command.c **** 
 351:App/Src/fault_command.c ****   return VoltageSim_SetCellCalibrationOffsetMv(cell, (int16_t)offset);
 352:App/Src/fault_command.c **** }
 439              		.loc 1 352 1 view .LVU58
 440 001e 70BD     		pop	{r4, r5, r6, pc}
 441              	.LVL37:
 442              	.L19:
 351:App/Src/fault_command.c **** }
 443              		.loc 1 351 3 is_stmt 1 view .LVU59
 351:App/Src/fault_command.c **** }
 444              		.loc 1 351 10 is_stmt 0 view .LVU60
 445 0020 09B2     		sxth	r1, r1
 446              	.LVL38:
 351:App/Src/fault_command.c **** }
 447              		.loc 1 351 10 view .LVU61
 448 0022 3046     		mov	r0, r6
 449 0024 FFF7FEFF 		bl	VoltageSim_SetCellCalibrationOffsetMv
 450              	.LVL39:
 351:App/Src/fault_command.c **** }
 451              		.loc 1 351 10 view .LVU62
 452 0028 F9E7     		b	.L16
 453              		.cfi_endproc
 454              	.LFE165:
 456              		.section	.text.FaultCommand_RunSet,"ax",%progbits
 457              		.align	1
ARM GAS  C:\Users\hh\AppData\Local\Temp\cc8MU7EM.s 			page 17


 458              		.syntax unified
 459              		.thumb
 460              		.thumb_func
 462              	FaultCommand_RunSet:
 463              	.LVL40:
 464              	.LFB164:
 330:App/Src/fault_command.c ****   WaveformGen_Stop();
 465              		.loc 1 330 1 is_stmt 1 view -0
 466              		.cfi_startproc
 467              		@ args = 0, pretend = 0, frame = 0
 468              		@ frame_needed = 0, uses_anonymous_args = 0
 330:App/Src/fault_command.c ****   WaveformGen_Stop();
 469              		.loc 1 330 1 is_stmt 0 view .LVU64
 470 0000 38B5     		push	{r3, r4, r5, lr}
 471              	.LCFI4:
 472              		.cfi_def_cfa_offset 16
 473              		.cfi_offset 3, -16
 474              		.cfi_offset 4, -12
 475              		.cfi_offset 5, -8
 476              		.cfi_offset 14, -4
 477 0002 0546     		mov	r5, r0
 478 0004 0C46     		mov	r4, r1
 331:App/Src/fault_command.c ****   return VoltageSim_SetCellVoltageMv(cell, millivolts);
 479              		.loc 1 331 3 is_stmt 1 view .LVU65
 480 0006 FFF7FEFF 		bl	WaveformGen_Stop
 481              	.LVL41:
 332:App/Src/fault_command.c **** }
 482              		.loc 1 332 3 view .LVU66
 332:App/Src/fault_command.c **** }
 483              		.loc 1 332 10 is_stmt 0 view .LVU67
 484 000a 2146     		mov	r1, r4
 485 000c 2846     		mov	r0, r5
 486 000e FFF7FEFF 		bl	VoltageSim_SetCellVoltageMv
 487              	.LVL42:
 333:App/Src/fault_command.c **** 
 488              		.loc 1 333 1 view .LVU68
 489 0012 38BD     		pop	{r3, r4, r5, pc}
 333:App/Src/fault_command.c **** 
 490              		.loc 1 333 1 view .LVU69
 491              		.cfi_endproc
 492              	.LFE164:
 494              		.section	.text.FaultCommand_RunOverVoltage,"ax",%progbits
 495              		.align	1
 496              		.syntax unified
 497              		.thumb
 498              		.thumb_func
 500              	FaultCommand_RunOverVoltage:
 501              	.LVL43:
 502              	.LFB166:
 353:App/Src/fault_command.c **** 
 354:App/Src/fault_command.c **** static HAL_StatusTypeDef FaultCommand_RunOverVoltage(uint8_t cell,
 355:App/Src/fault_command.c ****                                                      uint16_t target,
 356:App/Src/fault_command.c ****                                                      uint32_t duration,
 357:App/Src/fault_command.c ****                                                      uint16_t slew)
 358:App/Src/fault_command.c **** {
 503              		.loc 1 358 1 is_stmt 1 view -0
 504              		.cfi_startproc
ARM GAS  C:\Users\hh\AppData\Local\Temp\cc8MU7EM.s 			page 18


 505              		@ args = 0, pretend = 0, frame = 0
 506              		@ frame_needed = 0, uses_anonymous_args = 0
 507              		.loc 1 358 1 is_stmt 0 view .LVU71
 508 0000 2DE9F041 		push	{r4, r5, r6, r7, r8, lr}
 509              	.LCFI5:
 510              		.cfi_def_cfa_offset 24
 511              		.cfi_offset 4, -24
 512              		.cfi_offset 5, -20
 513              		.cfi_offset 6, -16
 514              		.cfi_offset 7, -12
 515              		.cfi_offset 8, -8
 516              		.cfi_offset 14, -4
 517 0004 82B0     		sub	sp, sp, #8
 518              	.LCFI6:
 519              		.cfi_def_cfa_offset 32
 520 0006 0546     		mov	r5, r0
 521 0008 0C46     		mov	r4, r1
 522 000a 8846     		mov	r8, r1
 523 000c 1746     		mov	r7, r2
 524 000e 1E46     		mov	r6, r3
 359:App/Src/fault_command.c ****   HAL_StatusTypeDef status;
 525              		.loc 1 359 3 is_stmt 1 view .LVU72
 360:App/Src/fault_command.c **** 
 361:App/Src/fault_command.c ****   WaveformGen_Stop();
 526              		.loc 1 361 3 view .LVU73
 527 0010 FFF7FEFF 		bl	WaveformGen_Stop
 528              	.LVL44:
 362:App/Src/fault_command.c ****   status = VoltageSim_InjectCellOverVoltageRamp(cell, target, duration, slew);
 529              		.loc 1 362 3 view .LVU74
 530              		.loc 1 362 12 is_stmt 0 view .LVU75
 531 0014 3346     		mov	r3, r6
 532 0016 3A46     		mov	r2, r7
 533 0018 2146     		mov	r1, r4
 534 001a 2846     		mov	r0, r5
 535 001c FFF7FEFF 		bl	VoltageSim_InjectCellOverVoltageRamp
 536              	.LVL45:
 363:App/Src/fault_command.c ****   if (status == HAL_OK)
 537              		.loc 1 363 3 is_stmt 1 view .LVU76
 538              		.loc 1 363 6 is_stmt 0 view .LVU77
 539 0020 0446     		mov	r4, r0
 540              	.LVL46:
 541              		.loc 1 363 6 view .LVU78
 542 0022 18B1     		cbz	r0, .L25
 543              	.LVL47:
 544              	.L23:
 364:App/Src/fault_command.c ****   {
 365:App/Src/fault_command.c ****     BmsResponseLog_RecordFaultTrigger(BMS_RESPONSE_LOG_TRIGGER_OV, cell, target, 0U, 0U);
 366:App/Src/fault_command.c ****   }
 367:App/Src/fault_command.c **** 
 368:App/Src/fault_command.c ****   return status;
 545              		.loc 1 368 3 is_stmt 1 view .LVU79
 369:App/Src/fault_command.c **** }
 546              		.loc 1 369 1 is_stmt 0 view .LVU80
 547 0024 2046     		mov	r0, r4
 548 0026 02B0     		add	sp, sp, #8
 549              	.LCFI7:
 550              		.cfi_remember_state
ARM GAS  C:\Users\hh\AppData\Local\Temp\cc8MU7EM.s 			page 19


 551              		.cfi_def_cfa_offset 24
 552              		@ sp needed
 553 0028 BDE8F081 		pop	{r4, r5, r6, r7, r8, pc}
 554              	.LVL48:
 555              	.L25:
 556              	.LCFI8:
 557              		.cfi_restore_state
 365:App/Src/fault_command.c ****   }
 558              		.loc 1 365 5 is_stmt 1 view .LVU81
 559 002c 0346     		mov	r3, r0
 560 002e 0090     		str	r0, [sp]
 561 0030 4246     		mov	r2, r8
 562 0032 2946     		mov	r1, r5
 563 0034 0120     		movs	r0, #1
 564              	.LVL49:
 365:App/Src/fault_command.c ****   }
 565              		.loc 1 365 5 is_stmt 0 view .LVU82
 566 0036 FFF7FEFF 		bl	BmsResponseLog_RecordFaultTrigger
 567              	.LVL50:
 568 003a F3E7     		b	.L23
 569              		.cfi_endproc
 570              	.LFE166:
 572              		.section	.text.FaultCommand_RunUnderVoltage,"ax",%progbits
 573              		.align	1
 574              		.syntax unified
 575              		.thumb
 576              		.thumb_func
 578              	FaultCommand_RunUnderVoltage:
 579              	.LVL51:
 580              	.LFB167:
 370:App/Src/fault_command.c **** 
 371:App/Src/fault_command.c **** static HAL_StatusTypeDef FaultCommand_RunUnderVoltage(uint8_t cell,
 372:App/Src/fault_command.c ****                                                       uint16_t target,
 373:App/Src/fault_command.c ****                                                       uint32_t duration,
 374:App/Src/fault_command.c ****                                                       uint16_t slew)
 375:App/Src/fault_command.c **** {
 581              		.loc 1 375 1 is_stmt 1 view -0
 582              		.cfi_startproc
 583              		@ args = 0, pretend = 0, frame = 0
 584              		@ frame_needed = 0, uses_anonymous_args = 0
 585              		.loc 1 375 1 is_stmt 0 view .LVU84
 586 0000 2DE9F041 		push	{r4, r5, r6, r7, r8, lr}
 587              	.LCFI9:
 588              		.cfi_def_cfa_offset 24
 589              		.cfi_offset 4, -24
 590              		.cfi_offset 5, -20
 591              		.cfi_offset 6, -16
 592              		.cfi_offset 7, -12
 593              		.cfi_offset 8, -8
 594              		.cfi_offset 14, -4
 595 0004 82B0     		sub	sp, sp, #8
 596              	.LCFI10:
 597              		.cfi_def_cfa_offset 32
 598 0006 0546     		mov	r5, r0
 599 0008 0C46     		mov	r4, r1
 600 000a 8846     		mov	r8, r1
 601 000c 1746     		mov	r7, r2
ARM GAS  C:\Users\hh\AppData\Local\Temp\cc8MU7EM.s 			page 20


 602 000e 1E46     		mov	r6, r3
 376:App/Src/fault_command.c ****   HAL_StatusTypeDef status;
 603              		.loc 1 376 3 is_stmt 1 view .LVU85
 377:App/Src/fault_command.c **** 
 378:App/Src/fault_command.c ****   WaveformGen_Stop();
 604              		.loc 1 378 3 view .LVU86
 605 0010 FFF7FEFF 		bl	WaveformGen_Stop
 606              	.LVL52:
 379:App/Src/fault_command.c ****   status = VoltageSim_InjectCellUnderVoltageRamp(cell, target, duration, slew);
 607              		.loc 1 379 3 view .LVU87
 608              		.loc 1 379 12 is_stmt 0 view .LVU88
 609 0014 3346     		mov	r3, r6
 610 0016 3A46     		mov	r2, r7
 611 0018 2146     		mov	r1, r4
 612 001a 2846     		mov	r0, r5
 613 001c FFF7FEFF 		bl	VoltageSim_InjectCellUnderVoltageRamp
 614              	.LVL53:
 380:App/Src/fault_command.c ****   if (status == HAL_OK)
 615              		.loc 1 380 3 is_stmt 1 view .LVU89
 616              		.loc 1 380 6 is_stmt 0 view .LVU90
 617 0020 0446     		mov	r4, r0
 618              	.LVL54:
 619              		.loc 1 380 6 view .LVU91
 620 0022 18B1     		cbz	r0, .L29
 621              	.LVL55:
 622              	.L27:
 381:App/Src/fault_command.c ****   {
 382:App/Src/fault_command.c ****     BmsResponseLog_RecordFaultTrigger(BMS_RESPONSE_LOG_TRIGGER_UV, cell, target, 0U, 0U);
 383:App/Src/fault_command.c ****   }
 384:App/Src/fault_command.c **** 
 385:App/Src/fault_command.c ****   return status;
 623              		.loc 1 385 3 is_stmt 1 view .LVU92
 386:App/Src/fault_command.c **** }
 624              		.loc 1 386 1 is_stmt 0 view .LVU93
 625 0024 2046     		mov	r0, r4
 626 0026 02B0     		add	sp, sp, #8
 627              	.LCFI11:
 628              		.cfi_remember_state
 629              		.cfi_def_cfa_offset 24
 630              		@ sp needed
 631 0028 BDE8F081 		pop	{r4, r5, r6, r7, r8, pc}
 632              	.LVL56:
 633              	.L29:
 634              	.LCFI12:
 635              		.cfi_restore_state
 382:App/Src/fault_command.c ****   }
 636              		.loc 1 382 5 is_stmt 1 view .LVU94
 637 002c 0346     		mov	r3, r0
 638 002e 0090     		str	r0, [sp]
 639 0030 4246     		mov	r2, r8
 640 0032 2946     		mov	r1, r5
 641 0034 0220     		movs	r0, #2
 642              	.LVL57:
 382:App/Src/fault_command.c ****   }
 643              		.loc 1 382 5 is_stmt 0 view .LVU95
 644 0036 FFF7FEFF 		bl	BmsResponseLog_RecordFaultTrigger
 645              	.LVL58:
ARM GAS  C:\Users\hh\AppData\Local\Temp\cc8MU7EM.s 			page 21


 646 003a F3E7     		b	.L27
 647              		.cfi_endproc
 648              	.LFE167:
 650              		.section	.text.FaultCommand_RunDiff,"ax",%progbits
 651              		.align	1
 652              		.syntax unified
 653              		.thumb
 654              		.thumb_func
 656              	FaultCommand_RunDiff:
 657              	.LVL59:
 658              	.LFB168:
 387:App/Src/fault_command.c **** 
 388:App/Src/fault_command.c **** static HAL_StatusTypeDef FaultCommand_RunDiff(uint8_t highCell,
 389:App/Src/fault_command.c ****                                               uint16_t highMv,
 390:App/Src/fault_command.c ****                                               uint8_t lowCell,
 391:App/Src/fault_command.c ****                                               uint16_t lowMv,
 392:App/Src/fault_command.c ****                                               uint32_t duration,
 393:App/Src/fault_command.c ****                                               uint16_t slew)
 394:App/Src/fault_command.c **** {
 659              		.loc 1 394 1 is_stmt 1 view -0
 660              		.cfi_startproc
 661              		@ args = 8, pretend = 0, frame = 0
 662              		@ frame_needed = 0, uses_anonymous_args = 0
 663              		.loc 1 394 1 is_stmt 0 view .LVU97
 664 0000 2DE9F041 		push	{r4, r5, r6, r7, r8, lr}
 665              	.LCFI13:
 666              		.cfi_def_cfa_offset 24
 667              		.cfi_offset 4, -24
 668              		.cfi_offset 5, -20
 669              		.cfi_offset 6, -16
 670              		.cfi_offset 7, -12
 671              		.cfi_offset 8, -8
 672              		.cfi_offset 14, -4
 673 0004 82B0     		sub	sp, sp, #8
 674              	.LCFI14:
 675              		.cfi_def_cfa_offset 32
 676 0006 0746     		mov	r7, r0
 677 0008 0E46     		mov	r6, r1
 678 000a 1546     		mov	r5, r2
 679 000c 1C46     		mov	r4, r3
 680 000e 9846     		mov	r8, r3
 395:App/Src/fault_command.c ****   HAL_StatusTypeDef status;
 681              		.loc 1 395 3 is_stmt 1 view .LVU98
 396:App/Src/fault_command.c **** 
 397:App/Src/fault_command.c ****   WaveformGen_Stop();
 682              		.loc 1 397 3 view .LVU99
 683 0010 FFF7FEFF 		bl	WaveformGen_Stop
 684              	.LVL60:
 398:App/Src/fault_command.c ****   status = VoltageSim_InjectVoltageDifference(highCell, highMv, lowCell, lowMv, duration, slew);
 685              		.loc 1 398 3 view .LVU100
 686              		.loc 1 398 12 is_stmt 0 view .LVU101
 687 0014 BDF82430 		ldrh	r3, [sp, #36]
 688 0018 0193     		str	r3, [sp, #4]
 689 001a 089B     		ldr	r3, [sp, #32]
 690 001c 0093     		str	r3, [sp]
 691 001e 2346     		mov	r3, r4
 692 0020 2A46     		mov	r2, r5
ARM GAS  C:\Users\hh\AppData\Local\Temp\cc8MU7EM.s 			page 22


 693 0022 3146     		mov	r1, r6
 694 0024 3846     		mov	r0, r7
 695 0026 FFF7FEFF 		bl	VoltageSim_InjectVoltageDifference
 696              	.LVL61:
 399:App/Src/fault_command.c ****   if (status == HAL_OK)
 697              		.loc 1 399 3 is_stmt 1 view .LVU102
 698              		.loc 1 399 6 is_stmt 0 view .LVU103
 699 002a 0446     		mov	r4, r0
 700              	.LVL62:
 701              		.loc 1 399 6 view .LVU104
 702 002c 18B1     		cbz	r0, .L33
 703              	.LVL63:
 704              	.L31:
 400:App/Src/fault_command.c ****   {
 401:App/Src/fault_command.c ****     BmsResponseLog_RecordFaultTrigger(BMS_RESPONSE_LOG_TRIGGER_DIFF,
 402:App/Src/fault_command.c ****                                       highCell,
 403:App/Src/fault_command.c ****                                       highMv,
 404:App/Src/fault_command.c ****                                       lowCell,
 405:App/Src/fault_command.c ****                                       lowMv);
 406:App/Src/fault_command.c ****   }
 407:App/Src/fault_command.c **** 
 408:App/Src/fault_command.c ****   return status;
 705              		.loc 1 408 3 is_stmt 1 view .LVU105
 409:App/Src/fault_command.c **** }
 706              		.loc 1 409 1 is_stmt 0 view .LVU106
 707 002e 2046     		mov	r0, r4
 708 0030 02B0     		add	sp, sp, #8
 709              	.LCFI15:
 710              		.cfi_remember_state
 711              		.cfi_def_cfa_offset 24
 712              		@ sp needed
 713 0032 BDE8F081 		pop	{r4, r5, r6, r7, r8, pc}
 714              	.LVL64:
 715              	.L33:
 716              	.LCFI16:
 717              		.cfi_restore_state
 401:App/Src/fault_command.c ****                                       highCell,
 718              		.loc 1 401 5 is_stmt 1 view .LVU107
 719 0036 CDF80080 		str	r8, [sp]
 720 003a 2B46     		mov	r3, r5
 721 003c 3246     		mov	r2, r6
 722 003e 3946     		mov	r1, r7
 723 0040 0320     		movs	r0, #3
 724              	.LVL65:
 401:App/Src/fault_command.c ****                                       highCell,
 725              		.loc 1 401 5 is_stmt 0 view .LVU108
 726 0042 FFF7FEFF 		bl	BmsResponseLog_RecordFaultTrigger
 727              	.LVL66:
 728 0046 F2E7     		b	.L31
 729              		.cfi_endproc
 730              	.LFE168:
 732              		.section	.text.FaultCommand_WriteFormat,"ax",%progbits
 733              		.align	1
 734              		.syntax unified
 735              		.thumb
 736              		.thumb_func
 738              	FaultCommand_WriteFormat:
ARM GAS  C:\Users\hh\AppData\Local\Temp\cc8MU7EM.s 			page 23


 739              	.LVL67:
 740              	.LFB150:
  28:App/Src/fault_command.c ****   char buffer[192];
 741              		.loc 1 28 1 is_stmt 1 view -0
 742              		.cfi_startproc
 743              		@ args = 4, pretend = 8, frame = 200
 744              		@ frame_needed = 0, uses_anonymous_args = 1
  28:App/Src/fault_command.c ****   char buffer[192];
 745              		.loc 1 28 1 is_stmt 0 view .LVU110
 746 0000 0CB4     		push	{r2, r3}
 747              	.LCFI17:
 748              		.cfi_def_cfa_offset 8
 749              		.cfi_offset 2, -8
 750              		.cfi_offset 3, -4
 751 0002 70B5     		push	{r4, r5, r6, lr}
 752              	.LCFI18:
 753              		.cfi_def_cfa_offset 24
 754              		.cfi_offset 4, -24
 755              		.cfi_offset 5, -20
 756              		.cfi_offset 6, -16
 757              		.cfi_offset 14, -12
 758 0004 B2B0     		sub	sp, sp, #200
 759              	.LCFI19:
 760              		.cfi_def_cfa_offset 224
 761 0006 0646     		mov	r6, r0
 762 0008 0D46     		mov	r5, r1
 763 000a 36AB     		add	r3, sp, #216
 764 000c 53F8042B 		ldr	r2, [r3], #4
  29:App/Src/fault_command.c ****   va_list args;
 765              		.loc 1 29 3 is_stmt 1 view .LVU111
  30:App/Src/fault_command.c **** 
 766              		.loc 1 30 3 view .LVU112
  32:App/Src/fault_command.c ****   (void)vsnprintf(buffer, sizeof(buffer), format, args);
 767              		.loc 1 32 3 view .LVU113
 768 0010 0193     		str	r3, [sp, #4]
  33:App/Src/fault_command.c ****   va_end(args);
 769              		.loc 1 33 3 view .LVU114
  33:App/Src/fault_command.c ****   va_end(args);
 770              		.loc 1 33 9 is_stmt 0 view .LVU115
 771 0012 02AC     		add	r4, sp, #8
 772 0014 C021     		movs	r1, #192
 773              	.LVL68:
  33:App/Src/fault_command.c ****   va_end(args);
 774              		.loc 1 33 9 view .LVU116
 775 0016 2046     		mov	r0, r4
 776              	.LVL69:
  33:App/Src/fault_command.c ****   va_end(args);
 777              		.loc 1 33 9 view .LVU117
 778 0018 FFF7FEFF 		bl	vsnprintf
 779              	.LVL70:
  34:App/Src/fault_command.c **** 
 780              		.loc 1 34 3 is_stmt 1 view .LVU118
  36:App/Src/fault_command.c **** }
 781              		.loc 1 36 3 view .LVU119
 782 001c 2246     		mov	r2, r4
 783 001e 2946     		mov	r1, r5
 784 0020 3046     		mov	r0, r6
ARM GAS  C:\Users\hh\AppData\Local\Temp\cc8MU7EM.s 			page 24


 785 0022 FFF7FEFF 		bl	FaultCommand_Write
 786              	.LVL71:
  37:App/Src/fault_command.c **** 
 787              		.loc 1 37 1 is_stmt 0 view .LVU120
 788 0026 32B0     		add	sp, sp, #200
 789              	.LCFI20:
 790              		.cfi_def_cfa_offset 24
 791              		@ sp needed
 792 0028 BDE87040 		pop	{r4, r5, r6, lr}
 793              	.LCFI21:
 794              		.cfi_restore 14
 795              		.cfi_restore 6
 796              		.cfi_restore 5
 797              		.cfi_restore 4
 798              		.cfi_def_cfa_offset 8
 799              	.LVL72:
  37:App/Src/fault_command.c **** 
 800              		.loc 1 37 1 view .LVU121
 801 002c 02B0     		add	sp, sp, #8
 802              	.LCFI22:
 803              		.cfi_restore 3
 804              		.cfi_restore 2
 805              		.cfi_def_cfa_offset 0
 806 002e 7047     		bx	lr
 807              		.cfi_endproc
 808              	.LFE150:
 810              		.section	.rodata.FaultCommand_WriteJsonStatus.str1.4,"aMS",%progbits,1
 811              		.align	2
 812              	.LC25:
 813 0000 00       		.ascii	"\000"
 814 0001 000000   		.align	2
 815              	.LC26:
 816 0004 2C00     		.ascii	",\000"
 817 0006 0000     		.align	2
 818              	.LC27:
 819 0008 7B226F6B 		.ascii	"{\"ok\":true,\"active_faults\":%u,\"waveform\":{\"a"
 819      223A7472 
 819      75652C22 
 819      61637469 
 819      76655F66 
 820 0034 63746976 		.ascii	"ctive\":%u,\"type\":\"%s\",\"cell\":%u,\"period_ms\""
 820      65223A25 
 820      752C2274 
 820      79706522 
 820      3A222573 
 821 005f 3A256C75 		.ascii	":%lu,\"last_mv\":%u},\"cells\":[\000"
 821      2C226C61 
 821      73745F6D 
 821      76223A25 
 821      757D2C22 
 822              		.align	2
 823              	.LC28:
 824 007c 25737B22 		.ascii	"%s{\"cell\":%u,\"mv\":%u,\"cal_mv\":%d,\"fault\":\""
 824      63656C6C 
 824      223A2575 
 824      2C226D76 
 824      223A2575 
ARM GAS  C:\Users\hh\AppData\Local\Temp\cc8MU7EM.s 			page 25


 825 00a6 2573222C 		.ascii	"%s\",\"target_mv\":%u,\"restore_mv\":%u,\"duration_"
 825      22746172 
 825      6765745F 
 825      6D76223A 
 825      25752C22 
 826 00d3 6D73223A 		.ascii	"ms\":%lu,\"slew_mv_per_ms\":%u}\000"
 826      256C752C 
 826      22736C65 
 826      775F6D76 
 826      5F706572 
 827              		.align	2
 828              	.LC29:
 829 00f0 5D7D0D0A 		.ascii	"]}\015\012\000"
 829      00
 830              		.section	.text.FaultCommand_WriteJsonStatus,"ax",%progbits
 831              		.align	1
 832              		.syntax unified
 833              		.thumb
 834              		.thumb_func
 836              	FaultCommand_WriteJsonStatus:
 837              	.LVL73:
 838              	.LFB160:
 227:App/Src/fault_command.c ****   WaveformGen_Status waveform = WaveformGen_GetStatus();
 839              		.loc 1 227 1 is_stmt 1 view -0
 840              		.cfi_startproc
 841              		@ args = 0, pretend = 0, frame = 40
 842              		@ frame_needed = 0, uses_anonymous_args = 0
 227:App/Src/fault_command.c ****   WaveformGen_Status waveform = WaveformGen_GetStatus();
 843              		.loc 1 227 1 is_stmt 0 view .LVU123
 844 0000 2DE9F043 		push	{r4, r5, r6, r7, r8, r9, lr}
 845              	.LCFI23:
 846              		.cfi_def_cfa_offset 28
 847              		.cfi_offset 4, -28
 848              		.cfi_offset 5, -24
 849              		.cfi_offset 6, -20
 850              		.cfi_offset 7, -16
 851              		.cfi_offset 8, -12
 852              		.cfi_offset 9, -8
 853              		.cfi_offset 14, -4
 854 0004 93B0     		sub	sp, sp, #76
 855              	.LCFI24:
 856              		.cfi_def_cfa_offset 104
 857 0006 0746     		mov	r7, r0
 858 0008 8846     		mov	r8, r1
 228:App/Src/fault_command.c **** 
 859              		.loc 1 228 3 is_stmt 1 view .LVU124
 228:App/Src/fault_command.c **** 
 860              		.loc 1 228 33 is_stmt 0 view .LVU125
 861 000a 0DA8     		add	r0, sp, #52
 862              	.LVL74:
 228:App/Src/fault_command.c **** 
 863              		.loc 1 228 33 view .LVU126
 864 000c FFF7FEFF 		bl	WaveformGen_GetStatus
 865              	.LVL75:
 230:App/Src/fault_command.c ****                            context,
 866              		.loc 1 230 3 is_stmt 1 view .LVU127
 233:App/Src/fault_command.c ****                            waveform.active,
ARM GAS  C:\Users\hh\AppData\Local\Temp\cc8MU7EM.s 			page 26


 867              		.loc 1 233 28 is_stmt 0 view .LVU128
 868 0010 FFF7FEFF 		bl	VoltageSim_GetActiveFaultCount
 869              	.LVL76:
 870 0014 0446     		mov	r4, r0
 234:App/Src/fault_command.c ****                            WaveformGen_GetTypeName(waveform.type),
 871              		.loc 1 234 36 view .LVU129
 872 0016 9DF83550 		ldrb	r5, [sp, #53]	@ zero_extendqisi2
 230:App/Src/fault_command.c ****                            context,
 873              		.loc 1 230 3 view .LVU130
 874 001a 9DF83400 		ldrb	r0, [sp, #52]	@ zero_extendqisi2
 875 001e FFF7FEFF 		bl	WaveformGen_GetTypeName
 876              	.LVL77:
 236:App/Src/fault_command.c ****                            (unsigned long)waveform.periodMs,
 877              		.loc 1 236 36 view .LVU131
 878 0022 9DF83630 		ldrb	r3, [sp, #54]	@ zero_extendqisi2
 238:App/Src/fault_command.c **** 
 879              		.loc 1 238 36 view .LVU132
 880 0026 BDF84420 		ldrh	r2, [sp, #68]
 230:App/Src/fault_command.c ****                            context,
 881              		.loc 1 230 3 view .LVU133
 882 002a 0492     		str	r2, [sp, #16]
 883 002c 109A     		ldr	r2, [sp, #64]
 884 002e 0392     		str	r2, [sp, #12]
 885 0030 0293     		str	r3, [sp, #8]
 886 0032 0190     		str	r0, [sp, #4]
 887 0034 0095     		str	r5, [sp]
 888 0036 2346     		mov	r3, r4
 889 0038 1F4A     		ldr	r2, .L44
 890 003a 4146     		mov	r1, r8
 891 003c 3846     		mov	r0, r7
 892 003e FFF7FEFF 		bl	FaultCommand_WriteFormat
 893              	.LVL78:
 240:App/Src/fault_command.c ****   {
 894              		.loc 1 240 3 is_stmt 1 view .LVU134
 895              	.LBB2:
 240:App/Src/fault_command.c ****   {
 896              		.loc 1 240 8 view .LVU135
 240:App/Src/fault_command.c ****   {
 897              		.loc 1 240 16 is_stmt 0 view .LVU136
 898 0042 0124     		movs	r4, #1
 240:App/Src/fault_command.c ****   {
 899              		.loc 1 240 3 view .LVU137
 900 0044 24E0     		b	.L37
 901              	.LVL79:
 902              	.L43:
 903              	.LBB3:
 244:App/Src/fault_command.c ****                              context,
 904              		.loc 1 244 5 discriminator 1 view .LVU138
 905 0046 DFF87C90 		ldr	r9, .L44+12
 906              	.L38:
 249:App/Src/fault_command.c ****                              (int)VoltageSim_GetCellCalibrationOffsetMv(cell),
 907              		.loc 1 249 30 view .LVU139
 908 004a 2046     		mov	r0, r4
 909 004c FFF7FEFF 		bl	VoltageSim_GetLastCellVoltageMv
 910              	.LVL80:
 911 0050 0546     		mov	r5, r0
 250:App/Src/fault_command.c ****                              VoltageSim_GetFaultTypeName(info.type),
ARM GAS  C:\Users\hh\AppData\Local\Temp\cc8MU7EM.s 			page 27


 912              		.loc 1 250 35 view .LVU140
 913 0052 2046     		mov	r0, r4
 914 0054 FFF7FEFF 		bl	VoltageSim_GetCellCalibrationOffsetMv
 915              	.LVL81:
 916 0058 0646     		mov	r6, r0
 244:App/Src/fault_command.c ****                              context,
 917              		.loc 1 244 5 discriminator 4 view .LVU141
 918 005a 9DF82400 		ldrb	r0, [sp, #36]	@ zero_extendqisi2
 919 005e FFF7FEFF 		bl	VoltageSim_GetFaultTypeName
 920              	.LVL82:
 252:App/Src/fault_command.c ****                              info.restoreMillivolts,
 921              		.loc 1 252 34 view .LVU142
 922 0062 BDF82630 		ldrh	r3, [sp, #38]
 253:App/Src/fault_command.c ****                              (unsigned long)info.durationMs,
 923              		.loc 1 253 34 view .LVU143
 924 0066 BDF82820 		ldrh	r2, [sp, #40]
 255:App/Src/fault_command.c ****   }
 925              		.loc 1 255 34 view .LVU144
 926 006a BDF83010 		ldrh	r1, [sp, #48]
 244:App/Src/fault_command.c ****                              context,
 927              		.loc 1 244 5 discriminator 4 view .LVU145
 928 006e 0791     		str	r1, [sp, #28]
 929 0070 0B99     		ldr	r1, [sp, #44]
 930 0072 0691     		str	r1, [sp, #24]
 931 0074 0592     		str	r2, [sp, #20]
 932 0076 0493     		str	r3, [sp, #16]
 933 0078 0390     		str	r0, [sp, #12]
 934 007a 0296     		str	r6, [sp, #8]
 935 007c 0195     		str	r5, [sp, #4]
 936 007e 0094     		str	r4, [sp]
 937 0080 4B46     		mov	r3, r9
 938 0082 0E4A     		ldr	r2, .L44+4
 939 0084 4146     		mov	r1, r8
 940 0086 3846     		mov	r0, r7
 941 0088 FFF7FEFF 		bl	FaultCommand_WriteFormat
 942              	.LVL83:
 943              	.LBE3:
 240:App/Src/fault_command.c ****   {
 944              		.loc 1 240 63 is_stmt 1 discriminator 2 view .LVU146
 945 008c 0134     		adds	r4, r4, #1
 946              	.LVL84:
 240:App/Src/fault_command.c ****   {
 947              		.loc 1 240 63 is_stmt 0 discriminator 2 view .LVU147
 948 008e E4B2     		uxtb	r4, r4
 949              	.LVL85:
 950              	.L37:
 240:App/Src/fault_command.c ****   {
 951              		.loc 1 240 32 is_stmt 1 discriminator 1 view .LVU148
 952 0090 0D2C     		cmp	r4, #13
 953 0092 08D8     		bhi	.L42
 954              	.LBB4:
 242:App/Src/fault_command.c **** 
 955              		.loc 1 242 5 view .LVU149
 242:App/Src/fault_command.c **** 
 956              		.loc 1 242 37 is_stmt 0 view .LVU150
 957 0094 2146     		mov	r1, r4
 958 0096 09A8     		add	r0, sp, #36
ARM GAS  C:\Users\hh\AppData\Local\Temp\cc8MU7EM.s 			page 28


 959 0098 FFF7FEFF 		bl	VoltageSim_GetCellFaultInfo
 960              	.LVL86:
 244:App/Src/fault_command.c ****                              context,
 961              		.loc 1 244 5 is_stmt 1 view .LVU151
 962 009c 012C     		cmp	r4, #1
 963 009e D2D0     		beq	.L43
 244:App/Src/fault_command.c ****                              context,
 964              		.loc 1 244 5 is_stmt 0 discriminator 2 view .LVU152
 965 00a0 DFF82490 		ldr	r9, .L44+16
 966 00a4 D1E7     		b	.L38
 967              	.L42:
 968              	.LBE4:
 969              	.LBE2:
 258:App/Src/fault_command.c **** }
 970              		.loc 1 258 3 is_stmt 1 view .LVU153
 971 00a6 064A     		ldr	r2, .L44+8
 972 00a8 4146     		mov	r1, r8
 973 00aa 3846     		mov	r0, r7
 974 00ac FFF7FEFF 		bl	FaultCommand_Write
 975              	.LVL87:
 259:App/Src/fault_command.c **** 
 976              		.loc 1 259 1 is_stmt 0 view .LVU154
 977 00b0 13B0     		add	sp, sp, #76
 978              	.LCFI25:
 979              		.cfi_def_cfa_offset 28
 980              		@ sp needed
 981 00b2 BDE8F083 		pop	{r4, r5, r6, r7, r8, r9, pc}
 982              	.LVL88:
 983              	.L45:
 259:App/Src/fault_command.c **** 
 984              		.loc 1 259 1 view .LVU155
 985 00b6 00BF     		.align	2
 986              	.L44:
 987 00b8 08000000 		.word	.LC27
 988 00bc 7C000000 		.word	.LC28
 989 00c0 F0000000 		.word	.LC29
 990 00c4 00000000 		.word	.LC25
 991 00c8 04000000 		.word	.LC26
 992              		.cfi_endproc
 993              	.LFE160:
 995              		.section	.rodata.FaultCommand_WriteJsonResult.str1.4,"aMS",%progbits,1
 996              		.align	2
 997              	.LC30:
 998 0000 74727565 		.ascii	"true\000"
 998      00
 999 0005 000000   		.align	2
 1000              	.LC31:
 1001 0008 66616C73 		.ascii	"false\000"
 1001      6500
 1002 000e 0000     		.align	2
 1003              	.LC32:
 1004 0010 7B226F6B 		.ascii	"{\"ok\":%s,\"cmd\":\"%s\"}\015\012\000"
 1004      223A2573 
 1004      2C22636D 
 1004      64223A22 
 1004      2573227D 
 1005              		.section	.text.FaultCommand_WriteJsonResult,"ax",%progbits
ARM GAS  C:\Users\hh\AppData\Local\Temp\cc8MU7EM.s 			page 29


 1006              		.align	1
 1007              		.syntax unified
 1008              		.thumb
 1009              		.thumb_func
 1011              	FaultCommand_WriteJsonResult:
 1012              	.LVL89:
 1013              	.LFB159:
 220:App/Src/fault_command.c ****   FaultCommand_WriteFormat(write, context, "{\"ok\":%s,\"cmd\":\"%s\"}\r\n",
 1014              		.loc 1 220 1 is_stmt 1 view -0
 1015              		.cfi_startproc
 1016              		@ args = 0, pretend = 0, frame = 0
 1017              		@ frame_needed = 0, uses_anonymous_args = 0
 220:App/Src/fault_command.c ****   FaultCommand_WriteFormat(write, context, "{\"ok\":%s,\"cmd\":\"%s\"}\r\n",
 1018              		.loc 1 220 1 is_stmt 0 view .LVU157
 1019 0000 00B5     		push	{lr}
 1020              	.LCFI26:
 1021              		.cfi_def_cfa_offset 4
 1022              		.cfi_offset 14, -4
 1023 0002 83B0     		sub	sp, sp, #12
 1024              	.LCFI27:
 1025              		.cfi_def_cfa_offset 16
 221:App/Src/fault_command.c ****                            (status == HAL_OK) ? "true" : "false",
 1026              		.loc 1 221 3 is_stmt 1 view .LVU158
 1027 0004 33B9     		cbnz	r3, .L48
 221:App/Src/fault_command.c ****                            (status == HAL_OK) ? "true" : "false",
 1028              		.loc 1 221 3 is_stmt 0 discriminator 1 view .LVU159
 1029 0006 044B     		ldr	r3, .L50
 1030              	.LVL90:
 1031              	.L47:
 221:App/Src/fault_command.c ****                            (status == HAL_OK) ? "true" : "false",
 1032              		.loc 1 221 3 discriminator 4 view .LVU160
 1033 0008 0092     		str	r2, [sp]
 1034 000a 044A     		ldr	r2, .L50+4
 1035              	.LVL91:
 221:App/Src/fault_command.c ****                            (status == HAL_OK) ? "true" : "false",
 1036              		.loc 1 221 3 discriminator 4 view .LVU161
 1037 000c FFF7FEFF 		bl	FaultCommand_WriteFormat
 1038              	.LVL92:
 224:App/Src/fault_command.c **** 
 1039              		.loc 1 224 1 view .LVU162
 1040 0010 03B0     		add	sp, sp, #12
 1041              	.LCFI28:
 1042              		.cfi_remember_state
 1043              		.cfi_def_cfa_offset 4
 1044              		@ sp needed
 1045 0012 00BD     		pop	{pc}
 1046              	.LVL93:
 1047              	.L48:
 1048              	.LCFI29:
 1049              		.cfi_restore_state
 221:App/Src/fault_command.c ****                            (status == HAL_OK) ? "true" : "false",
 1050              		.loc 1 221 3 discriminator 2 view .LVU163
 1051 0014 024B     		ldr	r3, .L50+8
 1052              	.LVL94:
 221:App/Src/fault_command.c ****                            (status == HAL_OK) ? "true" : "false",
 1053              		.loc 1 221 3 discriminator 2 view .LVU164
 1054 0016 F7E7     		b	.L47
ARM GAS  C:\Users\hh\AppData\Local\Temp\cc8MU7EM.s 			page 30


 1055              	.L51:
 1056              		.align	2
 1057              	.L50:
 1058 0018 00000000 		.word	.LC30
 1059 001c 10000000 		.word	.LC32
 1060 0020 08000000 		.word	.LC31
 1061              		.cfi_endproc
 1062              	.LFE159:
 1064              		.section	.rodata.FaultCommand_WriteTextStatus.str1.4,"aMS",%progbits,1
 1065              		.align	2
 1066              	.LC33:
 1067 0000 0D0A5B73 		.ascii	"\015\012[status] active_faults=%u\015\012\000"
 1067      74617475 
 1067      735D2061 
 1067      63746976 
 1067      655F6661 
 1068 001e 0000     		.align	2
 1069              	.LC34:
 1070 0020 20204325 		.ascii	"  C%02u=%umV\000"
 1070      3032753D 
 1070      25756D56 
 1070      00
 1071 002d 000000   		.align	2
 1072              	.LC35:
 1073 0030 2063616C 		.ascii	" cal=%dmV\000"
 1073      3D25646D 
 1073      5600
 1074 003a 0000     		.align	2
 1075              	.LC36:
 1076 003c 20666175 		.ascii	" fault=%s target=%umV restore=%umV duration=%lums s"
 1076      6C743D25 
 1076      73207461 
 1076      72676574 
 1076      3D25756D 
 1077 006f 6C65773D 		.ascii	"lew=%umV/ms\000"
 1077      25756D56 
 1077      2F6D7300 
 1078 007b 00       		.align	2
 1079              	.LC37:
 1080 007c 0D0A00   		.ascii	"\015\012\000"
 1081              		.section	.text.FaultCommand_WriteTextStatus,"ax",%progbits
 1082              		.align	1
 1083              		.syntax unified
 1084              		.thumb
 1085              		.thumb_func
 1087              	FaultCommand_WriteTextStatus:
 1088              	.LVL95:
 1089              	.LFB156:
 159:App/Src/fault_command.c ****   FaultCommand_WriteFormat(write, context, "\r\n[status] active_faults=%u\r\n",
 1090              		.loc 1 159 1 is_stmt 1 view -0
 1091              		.cfi_startproc
 1092              		@ args = 0, pretend = 0, frame = 16
 1093              		@ frame_needed = 0, uses_anonymous_args = 0
 159:App/Src/fault_command.c ****   FaultCommand_WriteFormat(write, context, "\r\n[status] active_faults=%u\r\n",
 1094              		.loc 1 159 1 is_stmt 0 view .LVU166
 1095 0000 70B5     		push	{r4, r5, r6, lr}
 1096              	.LCFI30:
ARM GAS  C:\Users\hh\AppData\Local\Temp\cc8MU7EM.s 			page 31


 1097              		.cfi_def_cfa_offset 16
 1098              		.cfi_offset 4, -16
 1099              		.cfi_offset 5, -12
 1100              		.cfi_offset 6, -8
 1101              		.cfi_offset 14, -4
 1102 0002 88B0     		sub	sp, sp, #32
 1103              	.LCFI31:
 1104              		.cfi_def_cfa_offset 48
 1105 0004 0546     		mov	r5, r0
 1106 0006 0E46     		mov	r6, r1
 160:App/Src/fault_command.c ****                            VoltageSim_GetActiveFaultCount());
 1107              		.loc 1 160 3 is_stmt 1 view .LVU167
 161:App/Src/fault_command.c **** 
 1108              		.loc 1 161 28 is_stmt 0 view .LVU168
 1109 0008 FFF7FEFF 		bl	VoltageSim_GetActiveFaultCount
 1110              	.LVL96:
 161:App/Src/fault_command.c **** 
 1111              		.loc 1 161 28 view .LVU169
 1112 000c 0346     		mov	r3, r0
 160:App/Src/fault_command.c ****                            VoltageSim_GetActiveFaultCount());
 1113              		.loc 1 160 3 view .LVU170
 1114 000e 234A     		ldr	r2, .L60
 1115 0010 3146     		mov	r1, r6
 1116 0012 2846     		mov	r0, r5
 1117 0014 FFF7FEFF 		bl	FaultCommand_WriteFormat
 1118              	.LVL97:
 163:App/Src/fault_command.c ****   {
 1119              		.loc 1 163 3 is_stmt 1 view .LVU171
 1120              	.LBB5:
 163:App/Src/fault_command.c ****   {
 1121              		.loc 1 163 8 view .LVU172
 163:App/Src/fault_command.c ****   {
 1122              		.loc 1 163 16 is_stmt 0 view .LVU173
 1123 0018 0124     		movs	r4, #1
 163:App/Src/fault_command.c ****   {
 1124              		.loc 1 163 3 view .LVU174
 1125 001a 10E0     		b	.L53
 1126              	.LVL98:
 1127              	.L59:
 1128              	.LBB6:
 172:App/Src/fault_command.c ****                                context,
 1129              		.loc 1 172 7 is_stmt 1 view .LVU175
 175:App/Src/fault_command.c ****     }
 1130              		.loc 1 175 37 is_stmt 0 view .LVU176
 1131 001c 2046     		mov	r0, r4
 1132 001e FFF7FEFF 		bl	VoltageSim_GetCellCalibrationOffsetMv
 1133              	.LVL99:
 1134 0022 0346     		mov	r3, r0
 172:App/Src/fault_command.c ****                                context,
 1135              		.loc 1 172 7 view .LVU177
 1136 0024 1E4A     		ldr	r2, .L60+4
 1137 0026 3146     		mov	r1, r6
 1138 0028 2846     		mov	r0, r5
 1139 002a FFF7FEFF 		bl	FaultCommand_WriteFormat
 1140              	.LVL100:
 1141 002e 1BE0     		b	.L54
 1142              	.L55:
ARM GAS  C:\Users\hh\AppData\Local\Temp\cc8MU7EM.s 			page 32


 188:App/Src/fault_command.c ****   }
 1143              		.loc 1 188 5 is_stmt 1 view .LVU178
 1144 0030 1C4A     		ldr	r2, .L60+8
 1145 0032 3146     		mov	r1, r6
 1146 0034 2846     		mov	r0, r5
 1147 0036 FFF7FEFF 		bl	FaultCommand_Write
 1148              	.LVL101:
 1149              	.LBE6:
 163:App/Src/fault_command.c ****   {
 1150              		.loc 1 163 63 discriminator 2 view .LVU179
 1151 003a 0134     		adds	r4, r4, #1
 1152              	.LVL102:
 163:App/Src/fault_command.c ****   {
 1153              		.loc 1 163 63 is_stmt 0 discriminator 2 view .LVU180
 1154 003c E4B2     		uxtb	r4, r4
 1155              	.LVL103:
 1156              	.L53:
 163:App/Src/fault_command.c ****   {
 1157              		.loc 1 163 32 is_stmt 1 discriminator 1 view .LVU181
 1158 003e 0D2C     		cmp	r4, #13
 1159 0040 2AD8     		bhi	.L58
 1160              	.LBB7:
 165:App/Src/fault_command.c **** 
 1161              		.loc 1 165 5 view .LVU182
 165:App/Src/fault_command.c **** 
 1162              		.loc 1 165 37 is_stmt 0 view .LVU183
 1163 0042 2146     		mov	r1, r4
 1164 0044 04A8     		add	r0, sp, #16
 1165 0046 FFF7FEFF 		bl	VoltageSim_GetCellFaultInfo
 1166              	.LVL104:
 167:App/Src/fault_command.c ****                              cell,
 1167              		.loc 1 167 5 is_stmt 1 view .LVU184
 169:App/Src/fault_command.c ****     if (VoltageSim_GetCellCalibrationOffsetMv(cell) != 0)
 1168              		.loc 1 169 30 is_stmt 0 view .LVU185
 1169 004a 2046     		mov	r0, r4
 1170 004c FFF7FEFF 		bl	VoltageSim_GetLastCellVoltageMv
 1171              	.LVL105:
 167:App/Src/fault_command.c ****                              cell,
 1172              		.loc 1 167 5 view .LVU186
 1173 0050 0090     		str	r0, [sp]
 1174 0052 2346     		mov	r3, r4
 1175 0054 144A     		ldr	r2, .L60+12
 1176 0056 3146     		mov	r1, r6
 1177 0058 2846     		mov	r0, r5
 1178 005a FFF7FEFF 		bl	FaultCommand_WriteFormat
 1179              	.LVL106:
 170:App/Src/fault_command.c ****     {
 1180              		.loc 1 170 5 is_stmt 1 view .LVU187
 170:App/Src/fault_command.c ****     {
 1181              		.loc 1 170 9 is_stmt 0 view .LVU188
 1182 005e 2046     		mov	r0, r4
 1183 0060 FFF7FEFF 		bl	VoltageSim_GetCellCalibrationOffsetMv
 1184              	.LVL107:
 170:App/Src/fault_command.c ****     {
 1185              		.loc 1 170 8 discriminator 1 view .LVU189
 1186 0064 0028     		cmp	r0, #0
 1187 0066 D9D1     		bne	.L59
ARM GAS  C:\Users\hh\AppData\Local\Temp\cc8MU7EM.s 			page 33


 1188              	.L54:
 177:App/Src/fault_command.c ****     {
 1189              		.loc 1 177 5 is_stmt 1 view .LVU190
 177:App/Src/fault_command.c ****     {
 1190              		.loc 1 177 13 is_stmt 0 view .LVU191
 1191 0068 9DF81000 		ldrb	r0, [sp, #16]	@ zero_extendqisi2
 177:App/Src/fault_command.c ****     {
 1192              		.loc 1 177 8 view .LVU192
 1193 006c 0028     		cmp	r0, #0
 1194 006e DFD0     		beq	.L55
 179:App/Src/fault_command.c ****                                context,
 1195              		.loc 1 179 7 is_stmt 1 view .LVU193
 1196 0070 FFF7FEFF 		bl	VoltageSim_GetFaultTypeName
 1197              	.LVL108:
 1198 0074 0346     		mov	r3, r0
 183:App/Src/fault_command.c ****                                info.restoreMillivolts,
 1199              		.loc 1 183 36 is_stmt 0 view .LVU194
 1200 0076 BDF81220 		ldrh	r2, [sp, #18]
 184:App/Src/fault_command.c ****                                (unsigned long)info.durationMs,
 1201              		.loc 1 184 36 view .LVU195
 1202 007a BDF81410 		ldrh	r1, [sp, #20]
 186:App/Src/fault_command.c ****     }
 1203              		.loc 1 186 36 view .LVU196
 1204 007e BDF81C00 		ldrh	r0, [sp, #28]
 179:App/Src/fault_command.c ****                                context,
 1205              		.loc 1 179 7 view .LVU197
 1206 0082 0390     		str	r0, [sp, #12]
 1207 0084 0698     		ldr	r0, [sp, #24]
 1208 0086 0290     		str	r0, [sp, #8]
 1209 0088 0191     		str	r1, [sp, #4]
 1210 008a 0092     		str	r2, [sp]
 1211 008c 074A     		ldr	r2, .L60+16
 1212 008e 3146     		mov	r1, r6
 1213 0090 2846     		mov	r0, r5
 1214 0092 FFF7FEFF 		bl	FaultCommand_WriteFormat
 1215              	.LVL109:
 1216 0096 CBE7     		b	.L55
 1217              	.L58:
 179:App/Src/fault_command.c ****                                context,
 1218              		.loc 1 179 7 view .LVU198
 1219              	.LBE7:
 1220              	.LBE5:
 190:App/Src/fault_command.c **** 
 1221              		.loc 1 190 1 view .LVU199
 1222 0098 08B0     		add	sp, sp, #32
 1223              	.LCFI32:
 1224              		.cfi_def_cfa_offset 16
 1225              		@ sp needed
 1226 009a 70BD     		pop	{r4, r5, r6, pc}
 1227              	.LVL110:
 1228              	.L61:
 190:App/Src/fault_command.c **** 
 1229              		.loc 1 190 1 view .LVU200
 1230              		.align	2
 1231              	.L60:
 1232 009c 00000000 		.word	.LC33
 1233 00a0 30000000 		.word	.LC35
ARM GAS  C:\Users\hh\AppData\Local\Temp\cc8MU7EM.s 			page 34


 1234 00a4 7C000000 		.word	.LC37
 1235 00a8 20000000 		.word	.LC34
 1236 00ac 3C000000 		.word	.LC36
 1237              		.cfi_endproc
 1238              	.LFE156:
 1240              		.section	.rodata.FaultCommand_WriteTextWaveStatus.str1.4,"aMS",%progbits,1
 1241              		.align	2
 1242              	.LC38:
 1243 0000 5B776176 		.ascii	"[wave] active=%u type=%s cell=%u period=%lums last="
 1243      655D2061 
 1243      63746976 
 1243      653D2575 
 1243      20747970 
 1244 0033 25756D56 		.ascii	"%umV\015\012\000"
 1244      0D0A00
 1245              		.section	.text.FaultCommand_WriteTextWaveStatus,"ax",%progbits
 1246              		.align	1
 1247              		.syntax unified
 1248              		.thumb
 1249              		.thumb_func
 1251              	FaultCommand_WriteTextWaveStatus:
 1252              	.LVL111:
 1253              	.LFB153:
  79:App/Src/fault_command.c ****   WaveformGen_Status status = WaveformGen_GetStatus();
 1254              		.loc 1 79 1 is_stmt 1 view -0
 1255              		.cfi_startproc
 1256              		@ args = 0, pretend = 0, frame = 24
 1257              		@ frame_needed = 0, uses_anonymous_args = 0
  79:App/Src/fault_command.c ****   WaveformGen_Status status = WaveformGen_GetStatus();
 1258              		.loc 1 79 1 is_stmt 0 view .LVU202
 1259 0000 70B5     		push	{r4, r5, r6, lr}
 1260              	.LCFI33:
 1261              		.cfi_def_cfa_offset 16
 1262              		.cfi_offset 4, -16
 1263              		.cfi_offset 5, -12
 1264              		.cfi_offset 6, -8
 1265              		.cfi_offset 14, -4
 1266 0002 8AB0     		sub	sp, sp, #40
 1267              	.LCFI34:
 1268              		.cfi_def_cfa_offset 56
 1269 0004 0646     		mov	r6, r0
 1270 0006 0D46     		mov	r5, r1
  80:App/Src/fault_command.c **** 
 1271              		.loc 1 80 3 is_stmt 1 view .LVU203
  80:App/Src/fault_command.c **** 
 1272              		.loc 1 80 31 is_stmt 0 view .LVU204
 1273 0008 05A8     		add	r0, sp, #20
 1274              	.LVL112:
  80:App/Src/fault_command.c **** 
 1275              		.loc 1 80 31 view .LVU205
 1276 000a FFF7FEFF 		bl	WaveformGen_GetStatus
 1277              	.LVL113:
  82:App/Src/fault_command.c ****                            context,
 1278              		.loc 1 82 3 is_stmt 1 view .LVU206
  85:App/Src/fault_command.c ****                            WaveformGen_GetTypeName(status.type),
 1279              		.loc 1 85 34 is_stmt 0 view .LVU207
 1280 000e 9DF81540 		ldrb	r4, [sp, #21]	@ zero_extendqisi2
ARM GAS  C:\Users\hh\AppData\Local\Temp\cc8MU7EM.s 			page 35


  82:App/Src/fault_command.c ****                            context,
 1281              		.loc 1 82 3 view .LVU208
 1282 0012 9DF81400 		ldrb	r0, [sp, #20]	@ zero_extendqisi2
 1283 0016 FFF7FEFF 		bl	WaveformGen_GetTypeName
 1284              	.LVL114:
  87:App/Src/fault_command.c ****                            (unsigned long)status.periodMs,
 1285              		.loc 1 87 34 view .LVU209
 1286 001a 9DF81630 		ldrb	r3, [sp, #22]	@ zero_extendqisi2
  89:App/Src/fault_command.c **** }
 1287              		.loc 1 89 34 view .LVU210
 1288 001e BDF82420 		ldrh	r2, [sp, #36]
  82:App/Src/fault_command.c ****                            context,
 1289              		.loc 1 82 3 view .LVU211
 1290 0022 0392     		str	r2, [sp, #12]
 1291 0024 089A     		ldr	r2, [sp, #32]
 1292 0026 0292     		str	r2, [sp, #8]
 1293 0028 0193     		str	r3, [sp, #4]
 1294 002a 0090     		str	r0, [sp]
 1295 002c 2346     		mov	r3, r4
 1296 002e 034A     		ldr	r2, .L64
 1297 0030 2946     		mov	r1, r5
 1298 0032 3046     		mov	r0, r6
 1299 0034 FFF7FEFF 		bl	FaultCommand_WriteFormat
 1300              	.LVL115:
  90:App/Src/fault_command.c **** 
 1301              		.loc 1 90 1 view .LVU212
 1302 0038 0AB0     		add	sp, sp, #40
 1303              	.LCFI35:
 1304              		.cfi_def_cfa_offset 16
 1305              		@ sp needed
 1306 003a 70BD     		pop	{r4, r5, r6, pc}
 1307              	.LVL116:
 1308              	.L65:
  90:App/Src/fault_command.c **** 
 1309              		.loc 1 90 1 view .LVU213
 1310              		.align	2
 1311              	.L64:
 1312 003c 00000000 		.word	.LC38
 1313              		.cfi_endproc
 1314              	.LFE153:
 1316              		.section	.rodata.FaultCommand_WriteTextCalibrationStatus.str1.4,"aMS",%progbits,1
 1317              		.align	2
 1318              	.LC39:
 1319 0000 0D0A5B63 		.ascii	"\015\012[cal]\015\012\000"
 1319      616C5D0D 
 1319      0A00
 1320 000a 0000     		.align	2
 1321              	.LC40:
 1322 000c 20204325 		.ascii	"  C%02u offset=%dmV\015\012\000"
 1322      30327520 
 1322      6F666673 
 1322      65743D25 
 1322      646D560D 
 1323              		.section	.text.FaultCommand_WriteTextCalibrationStatus,"ax",%progbits
 1324              		.align	1
 1325              		.syntax unified
 1326              		.thumb
ARM GAS  C:\Users\hh\AppData\Local\Temp\cc8MU7EM.s 			page 36


 1327              		.thumb_func
 1329              	FaultCommand_WriteTextCalibrationStatus:
 1330              	.LVL117:
 1331              	.LFB157:
 193:App/Src/fault_command.c ****   FaultCommand_Write(write, context, "\r\n[cal]\r\n");
 1332              		.loc 1 193 1 is_stmt 1 view -0
 1333              		.cfi_startproc
 1334              		@ args = 0, pretend = 0, frame = 0
 1335              		@ frame_needed = 0, uses_anonymous_args = 0
 193:App/Src/fault_command.c ****   FaultCommand_Write(write, context, "\r\n[cal]\r\n");
 1336              		.loc 1 193 1 is_stmt 0 view .LVU215
 1337 0000 70B5     		push	{r4, r5, r6, lr}
 1338              	.LCFI36:
 1339              		.cfi_def_cfa_offset 16
 1340              		.cfi_offset 4, -16
 1341              		.cfi_offset 5, -12
 1342              		.cfi_offset 6, -8
 1343              		.cfi_offset 14, -4
 1344 0002 82B0     		sub	sp, sp, #8
 1345              	.LCFI37:
 1346              		.cfi_def_cfa_offset 24
 1347 0004 0646     		mov	r6, r0
 1348 0006 0D46     		mov	r5, r1
 194:App/Src/fault_command.c **** 
 1349              		.loc 1 194 3 is_stmt 1 view .LVU216
 1350 0008 0A4A     		ldr	r2, .L70
 1351 000a FFF7FEFF 		bl	FaultCommand_Write
 1352              	.LVL118:
 196:App/Src/fault_command.c ****   {
 1353              		.loc 1 196 3 view .LVU217
 1354              	.LBB8:
 196:App/Src/fault_command.c ****   {
 1355              		.loc 1 196 8 view .LVU218
 196:App/Src/fault_command.c ****   {
 1356              		.loc 1 196 16 is_stmt 0 view .LVU219
 1357 000e 0124     		movs	r4, #1
 196:App/Src/fault_command.c ****   {
 1358              		.loc 1 196 3 view .LVU220
 1359 0010 0BE0     		b	.L67
 1360              	.LVL119:
 1361              	.L68:
 198:App/Src/fault_command.c ****                              context,
 1362              		.loc 1 198 5 is_stmt 1 view .LVU221
 202:App/Src/fault_command.c ****   }
 1363              		.loc 1 202 35 is_stmt 0 view .LVU222
 1364 0012 2046     		mov	r0, r4
 1365 0014 FFF7FEFF 		bl	VoltageSim_GetCellCalibrationOffsetMv
 1366              	.LVL120:
 198:App/Src/fault_command.c ****                              context,
 1367              		.loc 1 198 5 view .LVU223
 1368 0018 0090     		str	r0, [sp]
 1369 001a 2346     		mov	r3, r4
 1370 001c 064A     		ldr	r2, .L70+4
 1371 001e 2946     		mov	r1, r5
 1372 0020 3046     		mov	r0, r6
 1373 0022 FFF7FEFF 		bl	FaultCommand_WriteFormat
 1374              	.LVL121:
ARM GAS  C:\Users\hh\AppData\Local\Temp\cc8MU7EM.s 			page 37


 196:App/Src/fault_command.c ****   {
 1375              		.loc 1 196 63 is_stmt 1 discriminator 3 view .LVU224
 1376 0026 0134     		adds	r4, r4, #1
 1377              	.LVL122:
 196:App/Src/fault_command.c ****   {
 1378              		.loc 1 196 63 is_stmt 0 discriminator 3 view .LVU225
 1379 0028 E4B2     		uxtb	r4, r4
 1380              	.LVL123:
 1381              	.L67:
 196:App/Src/fault_command.c ****   {
 1382              		.loc 1 196 32 is_stmt 1 discriminator 1 view .LVU226
 1383 002a 0D2C     		cmp	r4, #13
 1384 002c F1D9     		bls	.L68
 1385              	.LBE8:
 204:App/Src/fault_command.c **** 
 1386              		.loc 1 204 1 is_stmt 0 view .LVU227
 1387 002e 02B0     		add	sp, sp, #8
 1388              	.LCFI38:
 1389              		.cfi_def_cfa_offset 16
 1390              		@ sp needed
 1391 0030 70BD     		pop	{r4, r5, r6, pc}
 1392              	.LVL124:
 1393              	.L71:
 204:App/Src/fault_command.c **** 
 1394              		.loc 1 204 1 view .LVU228
 1395 0032 00BF     		.align	2
 1396              	.L70:
 1397 0034 00000000 		.word	.LC39
 1398 0038 0C000000 		.word	.LC40
 1399              		.cfi_endproc
 1400              	.LFE157:
 1402              		.section	.rodata.FaultCommand_WriteTextResult.str1.4,"aMS",%progbits,1
 1403              		.align	2
 1404              	.LC41:
 1405 0000 4F4B00   		.ascii	"OK\000"
 1406 0003 00       		.align	2
 1407              	.LC42:
 1408 0004 45525200 		.ascii	"ERR\000"
 1409              		.align	2
 1410              	.LC43:
 1411 0008 5B636D64 		.ascii	"[cmd] %s %s\015\012\000"
 1411      5D202573 
 1411      2025730D 
 1411      0A00
 1412              		.section	.text.FaultCommand_WriteTextResult,"ax",%progbits
 1413              		.align	1
 1414              		.syntax unified
 1415              		.thumb
 1416              		.thumb_func
 1418              	FaultCommand_WriteTextResult:
 1419              	.LVL125:
 1420              	.LFB158:
 210:App/Src/fault_command.c ****   FaultCommand_WriteFormat(write, context, "[cmd] %s %s\r\n",
 1421              		.loc 1 210 1 is_stmt 1 view -0
 1422              		.cfi_startproc
 1423              		@ args = 0, pretend = 0, frame = 0
 1424              		@ frame_needed = 0, uses_anonymous_args = 0
ARM GAS  C:\Users\hh\AppData\Local\Temp\cc8MU7EM.s 			page 38


 210:App/Src/fault_command.c ****   FaultCommand_WriteFormat(write, context, "[cmd] %s %s\r\n",
 1425              		.loc 1 210 1 is_stmt 0 view .LVU230
 1426 0000 00B5     		push	{lr}
 1427              	.LCFI39:
 1428              		.cfi_def_cfa_offset 4
 1429              		.cfi_offset 14, -4
 1430 0002 83B0     		sub	sp, sp, #12
 1431              	.LCFI40:
 1432              		.cfi_def_cfa_offset 16
 211:App/Src/fault_command.c ****                            name,
 1433              		.loc 1 211 3 is_stmt 1 view .LVU231
 1434 0004 3BB9     		cbnz	r3, .L74
 211:App/Src/fault_command.c ****                            name,
 1435              		.loc 1 211 3 is_stmt 0 discriminator 1 view .LVU232
 1436 0006 054B     		ldr	r3, .L76
 1437              	.LVL126:
 1438              	.L73:
 211:App/Src/fault_command.c ****                            name,
 1439              		.loc 1 211 3 discriminator 4 view .LVU233
 1440 0008 0093     		str	r3, [sp]
 1441 000a 1346     		mov	r3, r2
 1442 000c 044A     		ldr	r2, .L76+4
 1443              	.LVL127:
 211:App/Src/fault_command.c ****                            name,
 1444              		.loc 1 211 3 discriminator 4 view .LVU234
 1445 000e FFF7FEFF 		bl	FaultCommand_WriteFormat
 1446              	.LVL128:
 214:App/Src/fault_command.c **** 
 1447              		.loc 1 214 1 view .LVU235
 1448 0012 03B0     		add	sp, sp, #12
 1449              	.LCFI41:
 1450              		.cfi_remember_state
 1451              		.cfi_def_cfa_offset 4
 1452              		@ sp needed
 1453 0014 00BD     		pop	{pc}
 1454              	.LVL129:
 1455              	.L74:
 1456              	.LCFI42:
 1457              		.cfi_restore_state
 211:App/Src/fault_command.c ****                            name,
 1458              		.loc 1 211 3 discriminator 2 view .LVU236
 1459 0016 034B     		ldr	r3, .L76+8
 1460              	.LVL130:
 211:App/Src/fault_command.c ****                            name,
 1461              		.loc 1 211 3 discriminator 2 view .LVU237
 1462 0018 F6E7     		b	.L73
 1463              	.L77:
 1464 001a 00BF     		.align	2
 1465              	.L76:
 1466 001c 00000000 		.word	.LC41
 1467 0020 08000000 		.word	.LC43
 1468 0024 04000000 		.word	.LC42
 1469              		.cfi_endproc
 1470              	.LFE158:
 1472              		.section	.rodata.FaultCommand_FindJsonKey.str1.4,"aMS",%progbits,1
 1473              		.align	2
 1474              	.LC44:
ARM GAS  C:\Users\hh\AppData\Local\Temp\cc8MU7EM.s 			page 39


 1475 0000 22257322 		.ascii	"\"%s\"\000"
 1475      00
 1476              		.section	.text.FaultCommand_FindJsonKey,"ax",%progbits
 1477              		.align	1
 1478              		.syntax unified
 1479              		.thumb
 1480              		.thumb_func
 1482              	FaultCommand_FindJsonKey:
 1483              	.LVL131:
 1484              	.LFB171:
 410:App/Src/fault_command.c **** 
 411:App/Src/fault_command.c **** static HAL_StatusTypeDef FaultCommand_ParseCanSendText(const char *line)
 412:App/Src/fault_command.c **** {
 413:App/Src/fault_command.c ****   unsigned long id;
 414:App/Src/fault_command.c ****   unsigned int length;
 415:App/Src/fault_command.c ****   int consumed = 0;
 416:App/Src/fault_command.c ****   const char *cursor;
 417:App/Src/fault_command.c ****   uint8_t data[BSP_CAN_MAX_DATA_LEN] = {0};
 418:App/Src/fault_command.c **** 
 419:App/Src/fault_command.c ****   if (sscanf(line, "can send %lx %u %n", &id, &length, &consumed) < 2)
 420:App/Src/fault_command.c ****   {
 421:App/Src/fault_command.c ****     return HAL_ERROR;
 422:App/Src/fault_command.c ****   }
 423:App/Src/fault_command.c **** 
 424:App/Src/fault_command.c ****   if ((id > 0x7FFUL) || (length > BSP_CAN_MAX_DATA_LEN))
 425:App/Src/fault_command.c ****   {
 426:App/Src/fault_command.c ****     return HAL_ERROR;
 427:App/Src/fault_command.c ****   }
 428:App/Src/fault_command.c **** 
 429:App/Src/fault_command.c ****   cursor = line + consumed;
 430:App/Src/fault_command.c ****   for (uint8_t index = 0U; index < length; index++)
 431:App/Src/fault_command.c ****   {
 432:App/Src/fault_command.c ****     char *endPtr;
 433:App/Src/fault_command.c ****     unsigned long value;
 434:App/Src/fault_command.c **** 
 435:App/Src/fault_command.c ****     cursor = FaultCommand_SkipSpaces(cursor);
 436:App/Src/fault_command.c ****     if ((cursor == NULL) || (*cursor == '\0'))
 437:App/Src/fault_command.c ****     {
 438:App/Src/fault_command.c ****       return HAL_ERROR;
 439:App/Src/fault_command.c ****     }
 440:App/Src/fault_command.c **** 
 441:App/Src/fault_command.c ****     value = strtoul(cursor, &endPtr, 16);
 442:App/Src/fault_command.c ****     if ((endPtr == cursor) || (value > 0xFFUL))
 443:App/Src/fault_command.c ****     {
 444:App/Src/fault_command.c ****       return HAL_ERROR;
 445:App/Src/fault_command.c ****     }
 446:App/Src/fault_command.c **** 
 447:App/Src/fault_command.c ****     data[index] = (uint8_t)value;
 448:App/Src/fault_command.c ****     cursor = endPtr;
 449:App/Src/fault_command.c ****   }
 450:App/Src/fault_command.c **** 
 451:App/Src/fault_command.c ****   return BspCan_SendClassic((uint32_t)id, 0U, data, (uint8_t)length);
 452:App/Src/fault_command.c **** }
 453:App/Src/fault_command.c **** 
 454:App/Src/fault_command.c **** static void FaultCommand_ExecuteText(const char *line, FaultCommand_WriteFn write, void *context)
 455:App/Src/fault_command.c **** {
 456:App/Src/fault_command.c ****   unsigned int cell;
ARM GAS  C:\Users\hh\AppData\Local\Temp\cc8MU7EM.s 			page 40


 457:App/Src/fault_command.c ****   unsigned int millivolts;
 458:App/Src/fault_command.c ****   unsigned int target;
 459:App/Src/fault_command.c ****   unsigned long duration;
 460:App/Src/fault_command.c ****   unsigned int slew;
 461:App/Src/fault_command.c ****   unsigned int lowMv;
 462:App/Src/fault_command.c ****   unsigned int highMv;
 463:App/Src/fault_command.c ****   unsigned int centerMv;
 464:App/Src/fault_command.c ****   unsigned int amplitudeMv;
 465:App/Src/fault_command.c ****   unsigned long periodMs;
 466:App/Src/fault_command.c ****   int calOffsetMv;
 467:App/Src/fault_command.c ****   unsigned int measuredMv;
 468:App/Src/fault_command.c **** 
 469:App/Src/fault_command.c ****   if ((strcmp(line, "help") == 0) || (strcmp(line, "?") == 0))
 470:App/Src/fault_command.c ****   {
 471:App/Src/fault_command.c ****     FaultCommand_WriteTextHelp(write, context);
 472:App/Src/fault_command.c ****   }
 473:App/Src/fault_command.c ****   else if (strcmp(line, "status") == 0)
 474:App/Src/fault_command.c ****   {
 475:App/Src/fault_command.c ****     FaultCommand_WriteTextStatus(write, context);
 476:App/Src/fault_command.c ****   }
 477:App/Src/fault_command.c ****   else if (strncmp(line, "normal", 6U) == 0)
 478:App/Src/fault_command.c ****   {
 479:App/Src/fault_command.c ****     millivolts = VOLTAGE_SIM_DEFAULT_NORMAL_MV;
 480:App/Src/fault_command.c ****     (void)sscanf(line, "normal %u", &millivolts);
 481:App/Src/fault_command.c ****     FaultCommand_WriteTextResult(write,
 482:App/Src/fault_command.c ****                                  context,
 483:App/Src/fault_command.c ****                                  "normal",
 484:App/Src/fault_command.c ****                                  FaultCommand_RunNormal((uint16_t)millivolts));
 485:App/Src/fault_command.c ****   }
 486:App/Src/fault_command.c ****   else if (sscanf(line, "set %u %u", &cell, &millivolts) == 2)
 487:App/Src/fault_command.c ****   {
 488:App/Src/fault_command.c ****     FaultCommand_WriteTextResult(write,
 489:App/Src/fault_command.c ****                                  context,
 490:App/Src/fault_command.c ****                                  "set",
 491:App/Src/fault_command.c ****                                  FaultCommand_RunSet((uint8_t)cell, (uint16_t)millivolts));
 492:App/Src/fault_command.c ****   }
 493:App/Src/fault_command.c ****   else if (strncmp(line, "ov ", 3U) == 0)
 494:App/Src/fault_command.c ****   {
 495:App/Src/fault_command.c ****     cell = 0U;
 496:App/Src/fault_command.c ****     target = VOLTAGE_SIM_DEFAULT_OV_MV;
 497:App/Src/fault_command.c ****     duration = FAULT_COMMAND_DEFAULT_DURATION_MS;
 498:App/Src/fault_command.c ****     slew = FAULT_COMMAND_DEFAULT_SLEW_MV_PER_MS;
 499:App/Src/fault_command.c ****     if (sscanf(line, "ov %u %u %lu %u", &cell, &target, &duration, &slew) < 1)
 500:App/Src/fault_command.c ****     {
 501:App/Src/fault_command.c ****       FaultCommand_WriteTextResult(write, context, "ov", HAL_ERROR);
 502:App/Src/fault_command.c ****       return;
 503:App/Src/fault_command.c ****     }
 504:App/Src/fault_command.c **** 
 505:App/Src/fault_command.c ****     FaultCommand_WriteTextResult(write,
 506:App/Src/fault_command.c ****                                  context,
 507:App/Src/fault_command.c ****                                  "ov",
 508:App/Src/fault_command.c ****                                  FaultCommand_RunOverVoltage((uint8_t)cell,
 509:App/Src/fault_command.c ****                                                              (uint16_t)target,
 510:App/Src/fault_command.c ****                                                              (uint32_t)duration,
 511:App/Src/fault_command.c ****                                                              (uint16_t)slew));
 512:App/Src/fault_command.c ****   }
 513:App/Src/fault_command.c ****   else if (strncmp(line, "uv ", 3U) == 0)
ARM GAS  C:\Users\hh\AppData\Local\Temp\cc8MU7EM.s 			page 41


 514:App/Src/fault_command.c ****   {
 515:App/Src/fault_command.c ****     cell = 0U;
 516:App/Src/fault_command.c ****     target = VOLTAGE_SIM_DEFAULT_UV_MV;
 517:App/Src/fault_command.c ****     duration = FAULT_COMMAND_DEFAULT_DURATION_MS;
 518:App/Src/fault_command.c ****     slew = FAULT_COMMAND_DEFAULT_SLEW_MV_PER_MS;
 519:App/Src/fault_command.c ****     if (sscanf(line, "uv %u %u %lu %u", &cell, &target, &duration, &slew) < 1)
 520:App/Src/fault_command.c ****     {
 521:App/Src/fault_command.c ****       FaultCommand_WriteTextResult(write, context, "uv", HAL_ERROR);
 522:App/Src/fault_command.c ****       return;
 523:App/Src/fault_command.c ****     }
 524:App/Src/fault_command.c **** 
 525:App/Src/fault_command.c ****     FaultCommand_WriteTextResult(write,
 526:App/Src/fault_command.c ****                                  context,
 527:App/Src/fault_command.c ****                                  "uv",
 528:App/Src/fault_command.c ****                                  FaultCommand_RunUnderVoltage((uint8_t)cell,
 529:App/Src/fault_command.c ****                                                               (uint16_t)target,
 530:App/Src/fault_command.c ****                                                               (uint32_t)duration,
 531:App/Src/fault_command.c ****                                                               (uint16_t)slew));
 532:App/Src/fault_command.c ****   }
 533:App/Src/fault_command.c ****   else if (strncmp(line, "diff ", 5U) == 0)
 534:App/Src/fault_command.c ****   {
 535:App/Src/fault_command.c ****     unsigned int highCell;
 536:App/Src/fault_command.c ****     unsigned int highMv;
 537:App/Src/fault_command.c ****     unsigned int lowCell;
 538:App/Src/fault_command.c ****     unsigned int lowMv;
 539:App/Src/fault_command.c **** 
 540:App/Src/fault_command.c ****     duration = FAULT_COMMAND_DEFAULT_DURATION_MS;
 541:App/Src/fault_command.c ****     slew = FAULT_COMMAND_DEFAULT_SLEW_MV_PER_MS;
 542:App/Src/fault_command.c ****     if (sscanf(line,
 543:App/Src/fault_command.c ****                "diff %u %u %u %u %lu %u",
 544:App/Src/fault_command.c ****                &highCell,
 545:App/Src/fault_command.c ****                &highMv,
 546:App/Src/fault_command.c ****                &lowCell,
 547:App/Src/fault_command.c ****                &lowMv,
 548:App/Src/fault_command.c ****                &duration,
 549:App/Src/fault_command.c ****                &slew) < 4)
 550:App/Src/fault_command.c ****     {
 551:App/Src/fault_command.c ****       FaultCommand_WriteTextResult(write, context, "diff", HAL_ERROR);
 552:App/Src/fault_command.c ****       return;
 553:App/Src/fault_command.c ****     }
 554:App/Src/fault_command.c **** 
 555:App/Src/fault_command.c ****     FaultCommand_WriteTextResult(write,
 556:App/Src/fault_command.c ****                                  context,
 557:App/Src/fault_command.c ****                                  "diff",
 558:App/Src/fault_command.c ****                                  FaultCommand_RunDiff((uint8_t)highCell,
 559:App/Src/fault_command.c ****                                                       (uint16_t)highMv,
 560:App/Src/fault_command.c ****                                                       (uint8_t)lowCell,
 561:App/Src/fault_command.c ****                                                       (uint16_t)lowMv,
 562:App/Src/fault_command.c ****                                                       (uint32_t)duration,
 563:App/Src/fault_command.c ****                                                       (uint16_t)slew));
 564:App/Src/fault_command.c ****   }
 565:App/Src/fault_command.c ****   else if (strcmp(line, "wave status") == 0)
 566:App/Src/fault_command.c ****   {
 567:App/Src/fault_command.c ****     FaultCommand_WriteTextWaveStatus(write, context);
 568:App/Src/fault_command.c ****   }
 569:App/Src/fault_command.c ****   else if (strcmp(line, "wave stop") == 0)
 570:App/Src/fault_command.c ****   {
ARM GAS  C:\Users\hh\AppData\Local\Temp\cc8MU7EM.s 			page 42


 571:App/Src/fault_command.c ****     WaveformGen_Stop();
 572:App/Src/fault_command.c ****     FaultCommand_WriteTextResult(write, context, "wave", HAL_OK);
 573:App/Src/fault_command.c ****   }
 574:App/Src/fault_command.c ****   else if (strncmp(line, "wave square ", 12U) == 0)
 575:App/Src/fault_command.c ****   {
 576:App/Src/fault_command.c ****     if (sscanf(line,
 577:App/Src/fault_command.c ****                "wave square %u %u %u %lu",
 578:App/Src/fault_command.c ****                &cell,
 579:App/Src/fault_command.c ****                &lowMv,
 580:App/Src/fault_command.c ****                &highMv,
 581:App/Src/fault_command.c ****                &periodMs) != 4)
 582:App/Src/fault_command.c ****     {
 583:App/Src/fault_command.c ****       FaultCommand_WriteTextResult(write, context, "wave", HAL_ERROR);
 584:App/Src/fault_command.c ****       return;
 585:App/Src/fault_command.c ****     }
 586:App/Src/fault_command.c **** 
 587:App/Src/fault_command.c ****     FaultCommand_WriteTextResult(write,
 588:App/Src/fault_command.c ****                                  context,
 589:App/Src/fault_command.c ****                                  "wave",
 590:App/Src/fault_command.c ****                                  WaveformGen_StartSquare((uint8_t)cell,
 591:App/Src/fault_command.c ****                                                          (uint16_t)lowMv,
 592:App/Src/fault_command.c ****                                                          (uint16_t)highMv,
 593:App/Src/fault_command.c ****                                                          (uint32_t)periodMs));
 594:App/Src/fault_command.c ****   }
 595:App/Src/fault_command.c ****   else if (strncmp(line, "wave sine all ", 14U) == 0)
 596:App/Src/fault_command.c ****   {
 597:App/Src/fault_command.c ****     if (sscanf(line,
 598:App/Src/fault_command.c ****                "wave sine all %u %u %lu",
 599:App/Src/fault_command.c ****                &centerMv,
 600:App/Src/fault_command.c ****                &amplitudeMv,
 601:App/Src/fault_command.c ****                &periodMs) != 3)
 602:App/Src/fault_command.c ****     {
 603:App/Src/fault_command.c ****       FaultCommand_WriteTextResult(write, context, "wave", HAL_ERROR);
 604:App/Src/fault_command.c ****       return;
 605:App/Src/fault_command.c ****     }
 606:App/Src/fault_command.c **** 
 607:App/Src/fault_command.c ****     FaultCommand_WriteTextResult(write,
 608:App/Src/fault_command.c ****                                  context,
 609:App/Src/fault_command.c ****                                  "wave",
 610:App/Src/fault_command.c ****                                  WaveformGen_StartSineAll((uint16_t)centerMv,
 611:App/Src/fault_command.c ****                                                           (uint16_t)amplitudeMv,
 612:App/Src/fault_command.c ****                                                           (uint32_t)periodMs));
 613:App/Src/fault_command.c ****   }
 614:App/Src/fault_command.c ****   else if (strncmp(line, "wave sine ", 10U) == 0)
 615:App/Src/fault_command.c ****   {
 616:App/Src/fault_command.c ****     if (sscanf(line,
 617:App/Src/fault_command.c ****                "wave sine %u %u %u %lu",
 618:App/Src/fault_command.c ****                &cell,
 619:App/Src/fault_command.c ****                &centerMv,
 620:App/Src/fault_command.c ****                &amplitudeMv,
 621:App/Src/fault_command.c ****                &periodMs) != 4)
 622:App/Src/fault_command.c ****     {
 623:App/Src/fault_command.c ****       FaultCommand_WriteTextResult(write, context, "wave", HAL_ERROR);
 624:App/Src/fault_command.c ****       return;
 625:App/Src/fault_command.c ****     }
 626:App/Src/fault_command.c **** 
 627:App/Src/fault_command.c ****     FaultCommand_WriteTextResult(write,
ARM GAS  C:\Users\hh\AppData\Local\Temp\cc8MU7EM.s 			page 43


 628:App/Src/fault_command.c ****                                  context,
 629:App/Src/fault_command.c ****                                  "wave",
 630:App/Src/fault_command.c ****                                  WaveformGen_StartSine((uint8_t)cell,
 631:App/Src/fault_command.c ****                                                        (uint16_t)centerMv,
 632:App/Src/fault_command.c ****                                                        (uint16_t)amplitudeMv,
 633:App/Src/fault_command.c ****                                                        (uint32_t)periodMs));
 634:App/Src/fault_command.c ****   }
 635:App/Src/fault_command.c ****   else if (strcmp(line, "cal status") == 0)
 636:App/Src/fault_command.c ****   {
 637:App/Src/fault_command.c ****     FaultCommand_WriteTextCalibrationStatus(write, context);
 638:App/Src/fault_command.c ****   }
 639:App/Src/fault_command.c ****   else if (strncmp(line, "cal set ", 8U) == 0)
 640:App/Src/fault_command.c ****   {
 641:App/Src/fault_command.c ****     if (sscanf(line, "cal set %u %d", &cell, &calOffsetMv) != 2)
 642:App/Src/fault_command.c ****     {
 643:App/Src/fault_command.c ****       FaultCommand_WriteTextResult(write, context, "cal", HAL_ERROR);
 644:App/Src/fault_command.c ****       return;
 645:App/Src/fault_command.c ****     }
 646:App/Src/fault_command.c **** 
 647:App/Src/fault_command.c ****     FaultCommand_WriteTextResult(write,
 648:App/Src/fault_command.c ****                                  context,
 649:App/Src/fault_command.c ****                                  "cal",
 650:App/Src/fault_command.c ****                                  VoltageSim_SetCellCalibrationOffsetMv((uint8_t)cell,
 651:App/Src/fault_command.c ****                                                                         (int16_t)calOffsetMv));
 652:App/Src/fault_command.c ****   }
 653:App/Src/fault_command.c ****   else if (strncmp(line, "cal trim ", 9U) == 0)
 654:App/Src/fault_command.c ****   {
 655:App/Src/fault_command.c ****     if (sscanf(line, "cal trim %u %u %u", &cell, &target, &measuredMv) != 3)
 656:App/Src/fault_command.c ****     {
 657:App/Src/fault_command.c ****       FaultCommand_WriteTextResult(write, context, "cal", HAL_ERROR);
 658:App/Src/fault_command.c ****       return;
 659:App/Src/fault_command.c ****     }
 660:App/Src/fault_command.c **** 
 661:App/Src/fault_command.c ****     FaultCommand_WriteTextResult(write,
 662:App/Src/fault_command.c ****                                  context,
 663:App/Src/fault_command.c ****                                  "cal",
 664:App/Src/fault_command.c ****                                  FaultCommand_RunCalibrationTrim((uint8_t)cell,
 665:App/Src/fault_command.c ****                                                                  (uint16_t)target,
 666:App/Src/fault_command.c ****                                                                  (uint16_t)measuredMv));
 667:App/Src/fault_command.c ****   }
 668:App/Src/fault_command.c ****   else if (strncmp(line, "cal clear", 9U) == 0)
 669:App/Src/fault_command.c ****   {
 670:App/Src/fault_command.c ****     if (sscanf(line, "cal clear %u", &cell) == 1)
 671:App/Src/fault_command.c ****     {
 672:App/Src/fault_command.c ****       FaultCommand_WriteTextResult(write,
 673:App/Src/fault_command.c ****                                    context,
 674:App/Src/fault_command.c ****                                    "cal",
 675:App/Src/fault_command.c ****                                    VoltageSim_ClearCellCalibrationOffset((uint8_t)cell));
 676:App/Src/fault_command.c ****     }
 677:App/Src/fault_command.c ****     else
 678:App/Src/fault_command.c ****     {
 679:App/Src/fault_command.c ****       VoltageSim_ClearAllCalibrationOffsets();
 680:App/Src/fault_command.c ****       FaultCommand_WriteTextResult(write, context, "cal", HAL_OK);
 681:App/Src/fault_command.c ****     }
 682:App/Src/fault_command.c ****   }
 683:App/Src/fault_command.c ****   else if (strncmp(line, "test static ", 12U) == 0)
 684:App/Src/fault_command.c ****   {
ARM GAS  C:\Users\hh\AppData\Local\Temp\cc8MU7EM.s 			page 44


 685:App/Src/fault_command.c ****     if (sscanf(line, "test static %u", &millivolts) != 1)
 686:App/Src/fault_command.c ****     {
 687:App/Src/fault_command.c ****       FaultCommand_WriteTextResult(write, context, "test", HAL_ERROR);
 688:App/Src/fault_command.c ****       return;
 689:App/Src/fault_command.c ****     }
 690:App/Src/fault_command.c **** 
 691:App/Src/fault_command.c ****     FaultCommand_WriteTextResult(write,
 692:App/Src/fault_command.c ****                                  context,
 693:App/Src/fault_command.c ****                                  "test",
 694:App/Src/fault_command.c ****                                  FaultCommand_RunNormal((uint16_t)millivolts));
 695:App/Src/fault_command.c ****   }
 696:App/Src/fault_command.c ****   else if (strncmp(line, "test slew ", 10U) == 0)
 697:App/Src/fault_command.c ****   {
 698:App/Src/fault_command.c ****     if (sscanf(line,
 699:App/Src/fault_command.c ****                "test slew %u %u %u %lu",
 700:App/Src/fault_command.c ****                &cell,
 701:App/Src/fault_command.c ****                &lowMv,
 702:App/Src/fault_command.c ****                &highMv,
 703:App/Src/fault_command.c ****                &periodMs) != 4)
 704:App/Src/fault_command.c ****     {
 705:App/Src/fault_command.c ****       FaultCommand_WriteTextResult(write, context, "test", HAL_ERROR);
 706:App/Src/fault_command.c ****       return;
 707:App/Src/fault_command.c ****     }
 708:App/Src/fault_command.c **** 
 709:App/Src/fault_command.c ****     FaultCommand_WriteTextResult(write,
 710:App/Src/fault_command.c ****                                  context,
 711:App/Src/fault_command.c ****                                  "test",
 712:App/Src/fault_command.c ****                                  WaveformGen_StartSquare((uint8_t)cell,
 713:App/Src/fault_command.c ****                                                          (uint16_t)lowMv,
 714:App/Src/fault_command.c ****                                                          (uint16_t)highMv,
 715:App/Src/fault_command.c ****                                                          (uint32_t)periodMs));
 716:App/Src/fault_command.c ****   }
 717:App/Src/fault_command.c ****   else if (strcmp(line, "can status") == 0)
 718:App/Src/fault_command.c ****   {
 719:App/Src/fault_command.c ****     FaultCommand_WriteTextCanStatus(write, context);
 720:App/Src/fault_command.c ****   }
 721:App/Src/fault_command.c ****   else if (strncmp(line, "can send ", 9U) == 0)
 722:App/Src/fault_command.c ****   {
 723:App/Src/fault_command.c ****     FaultCommand_WriteTextResult(write,
 724:App/Src/fault_command.c ****                                  context,
 725:App/Src/fault_command.c ****                                  "can",
 726:App/Src/fault_command.c ****                                  FaultCommand_ParseCanSendText(line));
 727:App/Src/fault_command.c ****   }
 728:App/Src/fault_command.c ****   else if (strcmp(line, "log status") == 0)
 729:App/Src/fault_command.c ****   {
 730:App/Src/fault_command.c ****     FaultCommand_WriteTextBmsResponseLog(write, context);
 731:App/Src/fault_command.c ****   }
 732:App/Src/fault_command.c ****   else if (strcmp(line, "log clear") == 0)
 733:App/Src/fault_command.c ****   {
 734:App/Src/fault_command.c ****     BmsResponseLog_Clear();
 735:App/Src/fault_command.c ****     FaultCommand_WriteTextResult(write, context, "log", HAL_OK);
 736:App/Src/fault_command.c ****   }
 737:App/Src/fault_command.c ****   else if (strncmp(line, "clear", 5U) == 0)
 738:App/Src/fault_command.c ****   {
 739:App/Src/fault_command.c ****     WaveformGen_Stop();
 740:App/Src/fault_command.c ****     if (sscanf(line, "clear %u", &cell) == 1)
 741:App/Src/fault_command.c ****     {
ARM GAS  C:\Users\hh\AppData\Local\Temp\cc8MU7EM.s 			page 45


 742:App/Src/fault_command.c ****       FaultCommand_WriteTextResult(write, context, "clear", VoltageSim_ClearCellFault((uint8_t)cell
 743:App/Src/fault_command.c ****     }
 744:App/Src/fault_command.c ****     else
 745:App/Src/fault_command.c ****     {
 746:App/Src/fault_command.c ****       FaultCommand_WriteTextResult(write, context, "clear", VoltageSim_ClearAllFaults());
 747:App/Src/fault_command.c ****     }
 748:App/Src/fault_command.c ****   }
 749:App/Src/fault_command.c ****   else if (*line != '\0')
 750:App/Src/fault_command.c ****   {
 751:App/Src/fault_command.c ****     FaultCommand_WriteFormat(write, context, "[cmd] unknown: %s\r\n", line);
 752:App/Src/fault_command.c ****   }
 753:App/Src/fault_command.c **** }
 754:App/Src/fault_command.c **** 
 755:App/Src/fault_command.c **** static const char *FaultCommand_FindJsonKey(const char *json, const char *key)
 756:App/Src/fault_command.c **** {
 1485              		.loc 1 756 1 is_stmt 1 view -0
 1486              		.cfi_startproc
 1487              		@ args = 0, pretend = 0, frame = 32
 1488              		@ frame_needed = 0, uses_anonymous_args = 0
 1489              		.loc 1 756 1 is_stmt 0 view .LVU239
 1490 0000 30B5     		push	{r4, r5, lr}
 1491              	.LCFI43:
 1492              		.cfi_def_cfa_offset 12
 1493              		.cfi_offset 4, -12
 1494              		.cfi_offset 5, -8
 1495              		.cfi_offset 14, -4
 1496 0002 89B0     		sub	sp, sp, #36
 1497              	.LCFI44:
 1498              		.cfi_def_cfa_offset 48
 1499 0004 0546     		mov	r5, r0
 1500 0006 0B46     		mov	r3, r1
 757:App/Src/fault_command.c ****   char pattern[32];
 1501              		.loc 1 757 3 is_stmt 1 view .LVU240
 758:App/Src/fault_command.c **** 
 759:App/Src/fault_command.c ****   (void)snprintf(pattern, sizeof(pattern), "\"%s\"", key);
 1502              		.loc 1 759 3 view .LVU241
 1503              		.loc 1 759 9 is_stmt 0 view .LVU242
 1504 0008 054A     		ldr	r2, .L80
 1505 000a 2021     		movs	r1, #32
 1506              	.LVL132:
 1507              		.loc 1 759 9 view .LVU243
 1508 000c 6846     		mov	r0, sp
 1509              	.LVL133:
 1510              		.loc 1 759 9 view .LVU244
 1511 000e FFF7FEFF 		bl	snprintf
 1512              	.LVL134:
 760:App/Src/fault_command.c ****   return strstr(json, pattern);
 1513              		.loc 1 760 3 is_stmt 1 view .LVU245
 1514              		.loc 1 760 10 is_stmt 0 view .LVU246
 1515 0012 6946     		mov	r1, sp
 1516 0014 2846     		mov	r0, r5
 1517 0016 FFF7FEFF 		bl	strstr
 1518              	.LVL135:
 761:App/Src/fault_command.c **** }
 1519              		.loc 1 761 1 view .LVU247
 1520 001a 09B0     		add	sp, sp, #36
 1521              	.LCFI45:
ARM GAS  C:\Users\hh\AppData\Local\Temp\cc8MU7EM.s 			page 46


 1522              		.cfi_def_cfa_offset 12
 1523              		@ sp needed
 1524 001c 30BD     		pop	{r4, r5, pc}
 1525              	.LVL136:
 1526              	.L81:
 1527              		.loc 1 761 1 view .LVU248
 1528 001e 00BF     		.align	2
 1529              	.L80:
 1530 0020 00000000 		.word	.LC44
 1531              		.cfi_endproc
 1532              	.LFE171:
 1534              		.section	.text.FaultCommand_JsonGetInt,"ax",%progbits
 1535              		.align	1
 1536              		.syntax unified
 1537              		.thumb
 1538              		.thumb_func
 1540              	FaultCommand_JsonGetInt:
 1541              	.LVL137:
 1542              	.LFB174:
 762:App/Src/fault_command.c **** 
 763:App/Src/fault_command.c **** static uint8_t FaultCommand_JsonGetString(const char *json,
 764:App/Src/fault_command.c ****                                           const char *key,
 765:App/Src/fault_command.c ****                                           char *value,
 766:App/Src/fault_command.c ****                                           uint32_t valueSize)
 767:App/Src/fault_command.c **** {
 768:App/Src/fault_command.c ****   const char *cursor = FaultCommand_FindJsonKey(json, key);
 769:App/Src/fault_command.c ****   uint32_t index = 0U;
 770:App/Src/fault_command.c **** 
 771:App/Src/fault_command.c ****   if ((cursor == NULL) || (value == NULL) || (valueSize == 0U))
 772:App/Src/fault_command.c ****   {
 773:App/Src/fault_command.c ****     return 0U;
 774:App/Src/fault_command.c ****   }
 775:App/Src/fault_command.c **** 
 776:App/Src/fault_command.c ****   cursor = strchr(cursor, ':');
 777:App/Src/fault_command.c ****   if (cursor == NULL)
 778:App/Src/fault_command.c ****   {
 779:App/Src/fault_command.c ****     return 0U;
 780:App/Src/fault_command.c ****   }
 781:App/Src/fault_command.c **** 
 782:App/Src/fault_command.c ****   cursor++;
 783:App/Src/fault_command.c ****   while (*cursor == ' ')
 784:App/Src/fault_command.c ****   {
 785:App/Src/fault_command.c ****     cursor++;
 786:App/Src/fault_command.c ****   }
 787:App/Src/fault_command.c **** 
 788:App/Src/fault_command.c ****   if (*cursor != '"')
 789:App/Src/fault_command.c ****   {
 790:App/Src/fault_command.c ****     return 0U;
 791:App/Src/fault_command.c ****   }
 792:App/Src/fault_command.c **** 
 793:App/Src/fault_command.c ****   cursor++;
 794:App/Src/fault_command.c ****   while ((*cursor != '\0') && (*cursor != '"') && (index < (valueSize - 1U)))
 795:App/Src/fault_command.c ****   {
 796:App/Src/fault_command.c ****     value[index++] = *cursor++;
 797:App/Src/fault_command.c ****   }
 798:App/Src/fault_command.c ****   value[index] = '\0';
 799:App/Src/fault_command.c **** 
ARM GAS  C:\Users\hh\AppData\Local\Temp\cc8MU7EM.s 			page 47


 800:App/Src/fault_command.c ****   return (*cursor == '"') ? 1U : 0U;
 801:App/Src/fault_command.c **** }
 802:App/Src/fault_command.c **** 
 803:App/Src/fault_command.c **** static uint8_t FaultCommand_JsonGetUint(const char *json, const char *key, uint32_t *value)
 804:App/Src/fault_command.c **** {
 805:App/Src/fault_command.c ****   const char *cursor = FaultCommand_FindJsonKey(json, key);
 806:App/Src/fault_command.c **** 
 807:App/Src/fault_command.c ****   if ((cursor == NULL) || (value == NULL))
 808:App/Src/fault_command.c ****   {
 809:App/Src/fault_command.c ****     return 0U;
 810:App/Src/fault_command.c ****   }
 811:App/Src/fault_command.c **** 
 812:App/Src/fault_command.c ****   cursor = strchr(cursor, ':');
 813:App/Src/fault_command.c ****   if (cursor == NULL)
 814:App/Src/fault_command.c ****   {
 815:App/Src/fault_command.c ****     return 0U;
 816:App/Src/fault_command.c ****   }
 817:App/Src/fault_command.c **** 
 818:App/Src/fault_command.c ****   cursor++;
 819:App/Src/fault_command.c ****   while (*cursor == ' ')
 820:App/Src/fault_command.c ****   {
 821:App/Src/fault_command.c ****     cursor++;
 822:App/Src/fault_command.c ****   }
 823:App/Src/fault_command.c **** 
 824:App/Src/fault_command.c ****   *value = (uint32_t)strtoul(cursor, NULL, 10);
 825:App/Src/fault_command.c ****   return 1U;
 826:App/Src/fault_command.c **** }
 827:App/Src/fault_command.c **** 
 828:App/Src/fault_command.c **** static uint8_t FaultCommand_JsonGetInt(const char *json, const char *key, int32_t *value)
 829:App/Src/fault_command.c **** {
 1543              		.loc 1 829 1 is_stmt 1 view -0
 1544              		.cfi_startproc
 1545              		@ args = 0, pretend = 0, frame = 0
 1546              		@ frame_needed = 0, uses_anonymous_args = 0
 1547              		.loc 1 829 1 is_stmt 0 view .LVU250
 1548 0000 10B5     		push	{r4, lr}
 1549              	.LCFI46:
 1550              		.cfi_def_cfa_offset 8
 1551              		.cfi_offset 4, -8
 1552              		.cfi_offset 14, -4
 1553 0002 1446     		mov	r4, r2
 830:App/Src/fault_command.c ****   const char *cursor = FaultCommand_FindJsonKey(json, key);
 1554              		.loc 1 830 3 is_stmt 1 view .LVU251
 1555              		.loc 1 830 24 is_stmt 0 view .LVU252
 1556 0004 FFF7FEFF 		bl	FaultCommand_FindJsonKey
 1557              	.LVL138:
 831:App/Src/fault_command.c **** 
 832:App/Src/fault_command.c ****   if ((cursor == NULL) || (value == NULL))
 1558              		.loc 1 832 3 is_stmt 1 view .LVU253
 1559              		.loc 1 832 6 is_stmt 0 view .LVU254
 1560 0008 002C     		cmp	r4, #0
 1561 000a 18BF     		it	ne
 1562 000c 0028     		cmpne	r0, #0
 1563 000e 10D0     		beq	.L86
 833:App/Src/fault_command.c ****   {
 834:App/Src/fault_command.c ****     return 0U;
 835:App/Src/fault_command.c ****   }
ARM GAS  C:\Users\hh\AppData\Local\Temp\cc8MU7EM.s 			page 48


 836:App/Src/fault_command.c **** 
 837:App/Src/fault_command.c ****   cursor = strchr(cursor, ':');
 1564              		.loc 1 837 3 is_stmt 1 view .LVU255
 1565              		.loc 1 837 12 is_stmt 0 view .LVU256
 1566 0010 3A21     		movs	r1, #58
 1567 0012 FFF7FEFF 		bl	strchr
 1568              	.LVL139:
 838:App/Src/fault_command.c ****   if (cursor == NULL)
 1569              		.loc 1 838 3 is_stmt 1 view .LVU257
 1570              		.loc 1 838 6 is_stmt 0 view .LVU258
 1571 0016 58B1     		cbz	r0, .L83
 839:App/Src/fault_command.c ****   {
 840:App/Src/fault_command.c ****     return 0U;
 841:App/Src/fault_command.c ****   }
 842:App/Src/fault_command.c **** 
 843:App/Src/fault_command.c ****   cursor++;
 1572              		.loc 1 843 3 is_stmt 1 view .LVU259
 1573              		.loc 1 843 9 is_stmt 0 view .LVU260
 1574 0018 0130     		adds	r0, r0, #1
 1575              	.LVL140:
 844:App/Src/fault_command.c ****   while (*cursor == ' ')
 1576              		.loc 1 844 3 is_stmt 1 view .LVU261
 1577              	.L84:
 1578              		.loc 1 844 18 view .LVU262
 1579              		.loc 1 844 10 is_stmt 0 view .LVU263
 1580 001a 0378     		ldrb	r3, [r0]	@ zero_extendqisi2
 1581              		.loc 1 844 18 view .LVU264
 1582 001c 202B     		cmp	r3, #32
 1583 001e 01D1     		bne	.L89
 845:App/Src/fault_command.c ****   {
 846:App/Src/fault_command.c ****     cursor++;
 1584              		.loc 1 846 5 is_stmt 1 view .LVU265
 1585              		.loc 1 846 11 is_stmt 0 view .LVU266
 1586 0020 0130     		adds	r0, r0, #1
 1587              	.LVL141:
 1588              		.loc 1 846 11 view .LVU267
 1589 0022 FAE7     		b	.L84
 1590              	.LVL142:
 1591              	.L89:
 847:App/Src/fault_command.c ****   }
 848:App/Src/fault_command.c **** 
 849:App/Src/fault_command.c ****   *value = (int32_t)strtol(cursor, NULL, 10);
 1592              		.loc 1 849 3 is_stmt 1 view .LVU268
 1593              		.loc 1 849 12 is_stmt 0 view .LVU269
 1594 0024 0A22     		movs	r2, #10
 1595 0026 0021     		movs	r1, #0
 1596 0028 FFF7FEFF 		bl	strtol
 1597              	.LVL143:
 1598              		.loc 1 849 10 discriminator 1 view .LVU270
 1599 002c 2060     		str	r0, [r4]
 850:App/Src/fault_command.c ****   return 1U;
 1600              		.loc 1 850 3 is_stmt 1 view .LVU271
 1601              		.loc 1 850 10 is_stmt 0 view .LVU272
 1602 002e 0120     		movs	r0, #1
 1603              	.LVL144:
 1604              	.L83:
 851:App/Src/fault_command.c **** }
ARM GAS  C:\Users\hh\AppData\Local\Temp\cc8MU7EM.s 			page 49


 1605              		.loc 1 851 1 view .LVU273
 1606 0030 10BD     		pop	{r4, pc}
 1607              	.LVL145:
 1608              	.L86:
 834:App/Src/fault_command.c ****   }
 1609              		.loc 1 834 12 view .LVU274
 1610 0032 0020     		movs	r0, #0
 1611              	.LVL146:
 834:App/Src/fault_command.c ****   }
 1612              		.loc 1 834 12 view .LVU275
 1613 0034 FCE7     		b	.L83
 1614              		.cfi_endproc
 1615              	.LFE174:
 1617              		.section	.text.FaultCommand_JsonGetString,"ax",%progbits
 1618              		.align	1
 1619              		.syntax unified
 1620              		.thumb
 1621              		.thumb_func
 1623              	FaultCommand_JsonGetString:
 1624              	.LVL147:
 1625              	.LFB172:
 767:App/Src/fault_command.c ****   const char *cursor = FaultCommand_FindJsonKey(json, key);
 1626              		.loc 1 767 1 is_stmt 1 view -0
 1627              		.cfi_startproc
 1628              		@ args = 0, pretend = 0, frame = 0
 1629              		@ frame_needed = 0, uses_anonymous_args = 0
 767:App/Src/fault_command.c ****   const char *cursor = FaultCommand_FindJsonKey(json, key);
 1630              		.loc 1 767 1 is_stmt 0 view .LVU277
 1631 0000 38B5     		push	{r3, r4, r5, lr}
 1632              	.LCFI47:
 1633              		.cfi_def_cfa_offset 16
 1634              		.cfi_offset 3, -16
 1635              		.cfi_offset 4, -12
 1636              		.cfi_offset 5, -8
 1637              		.cfi_offset 14, -4
 1638 0002 1446     		mov	r4, r2
 1639 0004 1D46     		mov	r5, r3
 768:App/Src/fault_command.c ****   uint32_t index = 0U;
 1640              		.loc 1 768 3 is_stmt 1 view .LVU278
 768:App/Src/fault_command.c ****   uint32_t index = 0U;
 1641              		.loc 1 768 24 is_stmt 0 view .LVU279
 1642 0006 FFF7FEFF 		bl	FaultCommand_FindJsonKey
 1643              	.LVL148:
 769:App/Src/fault_command.c **** 
 1644              		.loc 1 769 3 is_stmt 1 view .LVU280
 771:App/Src/fault_command.c ****   {
 1645              		.loc 1 771 3 view .LVU281
 771:App/Src/fault_command.c ****   {
 1646              		.loc 1 771 6 is_stmt 0 view .LVU282
 1647 000a 002C     		cmp	r4, #0
 1648 000c 18BF     		it	ne
 1649 000e 0028     		cmpne	r0, #0
 1650 0010 28D0     		beq	.L97
 771:App/Src/fault_command.c ****   {
 1651              		.loc 1 771 43 discriminator 1 view .LVU283
 1652 0012 4DB3     		cbz	r5, .L98
 776:App/Src/fault_command.c ****   if (cursor == NULL)
ARM GAS  C:\Users\hh\AppData\Local\Temp\cc8MU7EM.s 			page 50


 1653              		.loc 1 776 3 is_stmt 1 view .LVU284
 776:App/Src/fault_command.c ****   if (cursor == NULL)
 1654              		.loc 1 776 12 is_stmt 0 view .LVU285
 1655 0014 3A21     		movs	r1, #58
 1656 0016 FFF7FEFF 		bl	strchr
 1657              	.LVL149:
 777:App/Src/fault_command.c ****   {
 1658              		.loc 1 777 3 is_stmt 1 view .LVU286
 777:App/Src/fault_command.c ****   {
 1659              		.loc 1 777 6 is_stmt 0 view .LVU287
 1660 001a 0146     		mov	r1, r0
 1661 001c 18B3     		cbz	r0, .L91
 782:App/Src/fault_command.c ****   while (*cursor == ' ')
 1662              		.loc 1 782 3 is_stmt 1 view .LVU288
 782:App/Src/fault_command.c ****   while (*cursor == ' ')
 1663              		.loc 1 782 9 is_stmt 0 view .LVU289
 1664 001e 0131     		adds	r1, r1, #1
 1665              	.LVL150:
 783:App/Src/fault_command.c ****   {
 1666              		.loc 1 783 3 is_stmt 1 view .LVU290
 783:App/Src/fault_command.c ****   {
 1667              		.loc 1 783 9 is_stmt 0 view .LVU291
 1668 0020 00E0     		b	.L92
 1669              	.L93:
 785:App/Src/fault_command.c ****   }
 1670              		.loc 1 785 5 is_stmt 1 view .LVU292
 785:App/Src/fault_command.c ****   }
 1671              		.loc 1 785 11 is_stmt 0 view .LVU293
 1672 0022 0131     		adds	r1, r1, #1
 1673              	.LVL151:
 1674              	.L92:
 783:App/Src/fault_command.c ****   {
 1675              		.loc 1 783 18 is_stmt 1 view .LVU294
 783:App/Src/fault_command.c ****   {
 1676              		.loc 1 783 10 is_stmt 0 view .LVU295
 1677 0024 0878     		ldrb	r0, [r1]	@ zero_extendqisi2
 783:App/Src/fault_command.c ****   {
 1678              		.loc 1 783 18 view .LVU296
 1679 0026 2028     		cmp	r0, #32
 1680 0028 FBD0     		beq	.L93
 788:App/Src/fault_command.c ****   {
 1681              		.loc 1 788 3 is_stmt 1 view .LVU297
 788:App/Src/fault_command.c ****   {
 1682              		.loc 1 788 6 is_stmt 0 view .LVU298
 1683 002a 2228     		cmp	r0, #34
 1684 002c 1ED1     		bne	.L100
 793:App/Src/fault_command.c ****   while ((*cursor != '\0') && (*cursor != '"') && (index < (valueSize - 1U)))
 1685              		.loc 1 793 3 is_stmt 1 view .LVU299
 793:App/Src/fault_command.c ****   while ((*cursor != '\0') && (*cursor != '"') && (index < (valueSize - 1U)))
 1686              		.loc 1 793 9 is_stmt 0 view .LVU300
 1687 002e 0131     		adds	r1, r1, #1
 1688              	.LVL152:
 794:App/Src/fault_command.c ****   {
 1689              		.loc 1 794 3 is_stmt 1 view .LVU301
 769:App/Src/fault_command.c **** 
 1690              		.loc 1 769 12 is_stmt 0 view .LVU302
 1691 0030 4FF0000C 		mov	ip, #0
ARM GAS  C:\Users\hh\AppData\Local\Temp\cc8MU7EM.s 			page 51


 794:App/Src/fault_command.c ****   {
 1692              		.loc 1 794 9 view .LVU303
 1693 0034 04E0     		b	.L94
 1694              	.LVL153:
 1695              	.L96:
 796:App/Src/fault_command.c ****   }
 1696              		.loc 1 796 5 is_stmt 1 view .LVU304
 796:App/Src/fault_command.c ****   }
 1697              		.loc 1 796 29 is_stmt 0 view .LVU305
 1698 0036 0131     		adds	r1, r1, #1
 1699              	.LVL154:
 796:App/Src/fault_command.c ****   }
 1700              		.loc 1 796 20 view .LVU306
 1701 0038 04F80C00 		strb	r0, [r4, ip]
 796:App/Src/fault_command.c ****   }
 1702              		.loc 1 796 16 view .LVU307
 1703 003c 0CF1010C 		add	ip, ip, #1
 1704              	.LVL155:
 1705              	.L94:
 794:App/Src/fault_command.c ****   {
 1706              		.loc 1 794 48 is_stmt 1 view .LVU308
 794:App/Src/fault_command.c ****   {
 1707              		.loc 1 794 11 is_stmt 0 view .LVU309
 1708 0040 0878     		ldrb	r0, [r1]	@ zero_extendqisi2
 794:App/Src/fault_command.c ****   {
 1709              		.loc 1 794 48 view .LVU310
 1710 0042 0028     		cmp	r0, #0
 1711 0044 18BF     		it	ne
 1712 0046 2228     		cmpne	r0, #34
 1713 0048 02D0     		beq	.L95
 794:App/Src/fault_command.c ****   {
 1714              		.loc 1 794 71 discriminator 1 view .LVU311
 1715 004a 6B1E     		subs	r3, r5, #1
 794:App/Src/fault_command.c ****   {
 1716              		.loc 1 794 48 discriminator 1 view .LVU312
 1717 004c 6345     		cmp	r3, ip
 1718 004e F2D8     		bhi	.L96
 1719              	.L95:
 798:App/Src/fault_command.c **** 
 1720              		.loc 1 798 3 is_stmt 1 view .LVU313
 798:App/Src/fault_command.c **** 
 1721              		.loc 1 798 16 is_stmt 0 view .LVU314
 1722 0050 0023     		movs	r3, #0
 1723 0052 04F80C30 		strb	r3, [r4, ip]
 800:App/Src/fault_command.c **** }
 1724              		.loc 1 800 3 is_stmt 1 view .LVU315
 800:App/Src/fault_command.c **** }
 1725              		.loc 1 800 11 is_stmt 0 view .LVU316
 1726 0056 0B78     		ldrb	r3, [r1]	@ zero_extendqisi2
 800:App/Src/fault_command.c **** }
 1727              		.loc 1 800 32 view .LVU317
 1728 0058 222B     		cmp	r3, #34
 1729 005a 01D0     		beq	.L103
 800:App/Src/fault_command.c **** }
 1730              		.loc 1 800 32 discriminator 2 view .LVU318
 1731 005c 0020     		movs	r0, #0
 1732 005e 02E0     		b	.L91
ARM GAS  C:\Users\hh\AppData\Local\Temp\cc8MU7EM.s 			page 52


 1733              	.L103:
 800:App/Src/fault_command.c **** }
 1734              		.loc 1 800 32 discriminator 1 view .LVU319
 1735 0060 0120     		movs	r0, #1
 1736 0062 00E0     		b	.L91
 1737              	.LVL156:
 1738              	.L97:
 773:App/Src/fault_command.c ****   }
 1739              		.loc 1 773 12 view .LVU320
 1740 0064 0020     		movs	r0, #0
 1741              	.LVL157:
 1742              	.L91:
 801:App/Src/fault_command.c **** 
 1743              		.loc 1 801 1 view .LVU321
 1744 0066 38BD     		pop	{r3, r4, r5, pc}
 1745              	.LVL158:
 1746              	.L98:
 773:App/Src/fault_command.c ****   }
 1747              		.loc 1 773 12 view .LVU322
 1748 0068 2846     		mov	r0, r5
 1749              	.LVL159:
 773:App/Src/fault_command.c ****   }
 1750              		.loc 1 773 12 view .LVU323
 1751 006a FCE7     		b	.L91
 1752              	.LVL160:
 1753              	.L100:
 790:App/Src/fault_command.c ****   }
 1754              		.loc 1 790 12 view .LVU324
 1755 006c 0020     		movs	r0, #0
 1756 006e FAE7     		b	.L91
 1757              		.cfi_endproc
 1758              	.LFE172:
 1760              		.section	.text.FaultCommand_RunNormal,"ax",%progbits
 1761              		.align	1
 1762              		.syntax unified
 1763              		.thumb
 1764              		.thumb_func
 1766              	FaultCommand_RunNormal:
 1767              	.LVL161:
 1768              	.LFB163:
 324:App/Src/fault_command.c ****   WaveformGen_Stop();
 1769              		.loc 1 324 1 is_stmt 1 view -0
 1770              		.cfi_startproc
 1771              		@ args = 0, pretend = 0, frame = 0
 1772              		@ frame_needed = 0, uses_anonymous_args = 0
 324:App/Src/fault_command.c ****   WaveformGen_Stop();
 1773              		.loc 1 324 1 is_stmt 0 view .LVU326
 1774 0000 10B5     		push	{r4, lr}
 1775              	.LCFI48:
 1776              		.cfi_def_cfa_offset 8
 1777              		.cfi_offset 4, -8
 1778              		.cfi_offset 14, -4
 1779 0002 0446     		mov	r4, r0
 325:App/Src/fault_command.c ****   return VoltageSim_SetAllCellsVoltageMv(millivolts);
 1780              		.loc 1 325 3 is_stmt 1 view .LVU327
 1781 0004 FFF7FEFF 		bl	WaveformGen_Stop
 1782              	.LVL162:
ARM GAS  C:\Users\hh\AppData\Local\Temp\cc8MU7EM.s 			page 53


 326:App/Src/fault_command.c **** }
 1783              		.loc 1 326 3 view .LVU328
 326:App/Src/fault_command.c **** }
 1784              		.loc 1 326 10 is_stmt 0 view .LVU329
 1785 0008 2046     		mov	r0, r4
 1786 000a FFF7FEFF 		bl	VoltageSim_SetAllCellsVoltageMv
 1787              	.LVL163:
 327:App/Src/fault_command.c **** 
 1788              		.loc 1 327 1 view .LVU330
 1789 000e 10BD     		pop	{r4, pc}
 327:App/Src/fault_command.c **** 
 1790              		.loc 1 327 1 view .LVU331
 1791              		.cfi_endproc
 1792              	.LFE163:
 1794              		.section	.rodata.FaultCommand_WriteJsonCanStatus.str1.4,"aMS",%progbits,1
 1795              		.align	2
 1796              	.LC45:
 1797 0000 7B226F6B 		.ascii	"{\"ok\":true,\"can\":{\"started\":%u,\"tx\":%lu,\"r"
 1797      223A7472 
 1797      75652C22 
 1797      63616E22 
 1797      3A7B2273 
 1798 002a 78223A25 		.ascii	"x\":%lu,\"err\":%lu,\"last_id\":%lu,\"last_id_hex\""
 1798      6C752C22 
 1798      65727222 
 1798      3A256C75 
 1798      2C226C61 
 1799 0056 3A223078 		.ascii	":\"0x%lX\",\"last_ext\":%u,\"last_len\":%u,\"last_t"
 1799      256C5822 
 1799      2C226C61 
 1799      73745F65 
 1799      7874223A 
 1800 0082 69636B22 		.ascii	"ick\":%lu,\"last_data\":[\000"
 1800      3A256C75 
 1800      2C226C61 
 1800      73745F64 
 1800      61746122 
 1801 0099 000000   		.align	2
 1802              	.LC46:
 1803 009c 25732575 		.ascii	"%s%u\000"
 1803      00
 1804 00a1 000000   		.align	2
 1805              	.LC47:
 1806 00a4 5D7D7D0D 		.ascii	"]}}\015\012\000"
 1806      0A00
 1807              		.section	.text.FaultCommand_WriteJsonCanStatus,"ax",%progbits
 1808              		.align	1
 1809              		.syntax unified
 1810              		.thumb
 1811              		.thumb_func
 1813              	FaultCommand_WriteJsonCanStatus:
 1814              	.LVL164:
 1815              	.LFB161:
 262:App/Src/fault_command.c ****   BspCan_Status status = BspCan_GetStatus();
 1816              		.loc 1 262 1 is_stmt 1 view -0
 1817              		.cfi_startproc
 1818              		@ args = 0, pretend = 0, frame = 40
ARM GAS  C:\Users\hh\AppData\Local\Temp\cc8MU7EM.s 			page 54


 1819              		@ frame_needed = 0, uses_anonymous_args = 0
 262:App/Src/fault_command.c ****   BspCan_Status status = BspCan_GetStatus();
 1820              		.loc 1 262 1 is_stmt 0 view .LVU333
 1821 0000 F0B5     		push	{r4, r5, r6, r7, lr}
 1822              	.LCFI49:
 1823              		.cfi_def_cfa_offset 20
 1824              		.cfi_offset 4, -20
 1825              		.cfi_offset 5, -16
 1826              		.cfi_offset 6, -12
 1827              		.cfi_offset 7, -8
 1828              		.cfi_offset 14, -4
 1829 0002 93B0     		sub	sp, sp, #76
 1830              	.LCFI50:
 1831              		.cfi_def_cfa_offset 96
 1832 0004 0546     		mov	r5, r0
 1833 0006 0E46     		mov	r6, r1
 263:App/Src/fault_command.c **** 
 1834              		.loc 1 263 3 is_stmt 1 view .LVU334
 263:App/Src/fault_command.c **** 
 1835              		.loc 1 263 26 is_stmt 0 view .LVU335
 1836 0008 09A8     		add	r0, sp, #36
 1837              	.LVL165:
 263:App/Src/fault_command.c **** 
 1838              		.loc 1 263 26 view .LVU336
 1839 000a FFF7FEFF 		bl	BspCan_GetStatus
 1840              	.LVL166:
 265:App/Src/fault_command.c ****                            context,
 1841              		.loc 1 265 3 is_stmt 1 view .LVU337
 272:App/Src/fault_command.c ****                            (unsigned long)status.lastRxId,
 1842              		.loc 1 272 49 is_stmt 0 view .LVU338
 1843 000e 0D9B     		ldr	r3, [sp, #52]
 274:App/Src/fault_command.c ****                            status.lastRxLength,
 1844              		.loc 1 274 34 view .LVU339
 1845 0010 9DF83C20 		ldrb	r2, [sp, #60]	@ zero_extendqisi2
 275:App/Src/fault_command.c ****                            (unsigned long)status.lastRxTick);
 1846              		.loc 1 275 34 view .LVU340
 1847 0014 9DF83D70 		ldrb	r7, [sp, #61]	@ zero_extendqisi2
 265:App/Src/fault_command.c ****                            context,
 1848              		.loc 1 265 3 view .LVU341
 1849 0018 0E99     		ldr	r1, [sp, #56]
 1850 001a 0791     		str	r1, [sp, #28]
 1851 001c 0697     		str	r7, [sp, #24]
 1852 001e 0592     		str	r2, [sp, #20]
 1853 0020 0493     		str	r3, [sp, #16]
 1854 0022 0393     		str	r3, [sp, #12]
 1855 0024 0C9B     		ldr	r3, [sp, #48]
 1856 0026 0293     		str	r3, [sp, #8]
 1857 0028 0B9B     		ldr	r3, [sp, #44]
 1858 002a 0193     		str	r3, [sp, #4]
 1859 002c 0A9B     		ldr	r3, [sp, #40]
 1860 002e 0093     		str	r3, [sp]
 1861 0030 9DF82430 		ldrb	r3, [sp, #36]	@ zero_extendqisi2
 1862 0034 104A     		ldr	r2, .L114
 1863 0036 3146     		mov	r1, r6
 1864 0038 2846     		mov	r0, r5
 1865 003a FFF7FEFF 		bl	FaultCommand_WriteFormat
 1866              	.LVL167:
ARM GAS  C:\Users\hh\AppData\Local\Temp\cc8MU7EM.s 			page 55


 278:App/Src/fault_command.c ****   {
 1867              		.loc 1 278 3 is_stmt 1 view .LVU342
 1868              	.LBB9:
 278:App/Src/fault_command.c ****   {
 1869              		.loc 1 278 8 view .LVU343
 278:App/Src/fault_command.c ****   {
 1870              		.loc 1 278 16 is_stmt 0 view .LVU344
 1871 003e 0024     		movs	r4, #0
 278:App/Src/fault_command.c ****   {
 1872              		.loc 1 278 3 view .LVU345
 1873 0040 0DE0     		b	.L107
 1874              	.LVL168:
 1875              	.L113:
 280:App/Src/fault_command.c ****                              context,
 1876              		.loc 1 280 5 discriminator 1 view .LVU346
 1877 0042 0E4B     		ldr	r3, .L114+4
 1878              	.L108:
 284:App/Src/fault_command.c ****   }
 1879              		.loc 1 284 47 view .LVU347
 1880 0044 04F14802 		add	r2, r4, #72
 1881 0048 6A44     		add	r2, sp, r2
 1882 004a 12F80A2C 		ldrb	r2, [r2, #-10]	@ zero_extendqisi2
 280:App/Src/fault_command.c ****                              context,
 1883              		.loc 1 280 5 view .LVU348
 1884 004e 0092     		str	r2, [sp]
 1885 0050 0B4A     		ldr	r2, .L114+8
 1886 0052 3146     		mov	r1, r6
 1887 0054 2846     		mov	r0, r5
 1888 0056 FFF7FEFF 		bl	FaultCommand_WriteFormat
 1889              	.LVL169:
 278:App/Src/fault_command.c ****   {
 1890              		.loc 1 278 62 is_stmt 1 discriminator 2 view .LVU349
 1891 005a 0134     		adds	r4, r4, #1
 1892              	.LVL170:
 278:App/Src/fault_command.c ****   {
 1893              		.loc 1 278 62 is_stmt 0 discriminator 2 view .LVU350
 1894 005c E4B2     		uxtb	r4, r4
 1895              	.LVL171:
 1896              	.L107:
 278:App/Src/fault_command.c ****   {
 1897              		.loc 1 278 34 is_stmt 1 discriminator 1 view .LVU351
 1898 005e A742     		cmp	r7, r4
 1899 0060 03D9     		bls	.L112
 280:App/Src/fault_command.c ****                              context,
 1900              		.loc 1 280 5 view .LVU352
 1901 0062 002C     		cmp	r4, #0
 1902 0064 EDD0     		beq	.L113
 280:App/Src/fault_command.c ****                              context,
 1903              		.loc 1 280 5 is_stmt 0 discriminator 2 view .LVU353
 1904 0066 074B     		ldr	r3, .L114+12
 1905 0068 ECE7     		b	.L108
 1906              	.L112:
 1907              	.LBE9:
 286:App/Src/fault_command.c **** }
 1908              		.loc 1 286 3 is_stmt 1 view .LVU354
 1909 006a 074A     		ldr	r2, .L114+16
 1910 006c 3146     		mov	r1, r6
ARM GAS  C:\Users\hh\AppData\Local\Temp\cc8MU7EM.s 			page 56


 1911 006e 2846     		mov	r0, r5
 1912 0070 FFF7FEFF 		bl	FaultCommand_Write
 1913              	.LVL172:
 287:App/Src/fault_command.c **** 
 1914              		.loc 1 287 1 is_stmt 0 view .LVU355
 1915 0074 13B0     		add	sp, sp, #76
 1916              	.LCFI51:
 1917              		.cfi_def_cfa_offset 20
 1918              		@ sp needed
 1919 0076 F0BD     		pop	{r4, r5, r6, r7, pc}
 1920              	.LVL173:
 1921              	.L115:
 287:App/Src/fault_command.c **** 
 1922              		.loc 1 287 1 view .LVU356
 1923              		.align	2
 1924              	.L114:
 1925 0078 00000000 		.word	.LC45
 1926 007c 00000000 		.word	.LC25
 1927 0080 9C000000 		.word	.LC46
 1928 0084 04000000 		.word	.LC26
 1929 0088 A4000000 		.word	.LC47
 1930              		.cfi_endproc
 1931              	.LFE161:
 1933              		.section	.rodata.FaultCommand_WriteTextCanStatus.str1.4,"aMS",%progbits,1
 1934              		.align	2
 1935              	.LC48:
 1936 0000 2000     		.ascii	" \000"
 1937 0002 0000     		.align	2
 1938              	.LC49:
 1939 0004 0D0A5B63 		.ascii	"\015\012[can] started=%u tx=%lu rx=%lu err=%lu last"
 1939      616E5D20 
 1939      73746172 
 1939      7465643D 
 1939      25752074 
 1940 0031 5F69643D 		.ascii	"_id=0x%lX last_len=%u last_tick=%lu last_data=\000"
 1940      3078256C 
 1940      58206C61 
 1940      73745F6C 
 1940      656E3D25 
 1941              		.align	2
 1942              	.LC50:
 1943 0060 25303258 		.ascii	"%02X%s\000"
 1943      257300
 1944              		.section	.text.FaultCommand_WriteTextCanStatus,"ax",%progbits
 1945              		.align	1
 1946              		.syntax unified
 1947              		.thumb
 1948              		.thumb_func
 1950              	FaultCommand_WriteTextCanStatus:
 1951              	.LVL174:
 1952              	.LFB154:
  93:App/Src/fault_command.c ****   BspCan_Status status = BspCan_GetStatus();
 1953              		.loc 1 93 1 is_stmt 1 view -0
 1954              		.cfi_startproc
 1955              		@ args = 0, pretend = 0, frame = 40
 1956              		@ frame_needed = 0, uses_anonymous_args = 0
  93:App/Src/fault_command.c ****   BspCan_Status status = BspCan_GetStatus();
ARM GAS  C:\Users\hh\AppData\Local\Temp\cc8MU7EM.s 			page 57


 1957              		.loc 1 93 1 is_stmt 0 view .LVU358
 1958 0000 F0B5     		push	{r4, r5, r6, r7, lr}
 1959              	.LCFI52:
 1960              		.cfi_def_cfa_offset 20
 1961              		.cfi_offset 4, -20
 1962              		.cfi_offset 5, -16
 1963              		.cfi_offset 6, -12
 1964              		.cfi_offset 7, -8
 1965              		.cfi_offset 14, -4
 1966 0002 91B0     		sub	sp, sp, #68
 1967              	.LCFI53:
 1968              		.cfi_def_cfa_offset 88
 1969 0004 0646     		mov	r6, r0
 1970 0006 0F46     		mov	r7, r1
  94:App/Src/fault_command.c **** 
 1971              		.loc 1 94 3 is_stmt 1 view .LVU359
  94:App/Src/fault_command.c **** 
 1972              		.loc 1 94 26 is_stmt 0 view .LVU360
 1973 0008 07A8     		add	r0, sp, #28
 1974              	.LVL175:
  94:App/Src/fault_command.c **** 
 1975              		.loc 1 94 26 view .LVU361
 1976 000a FFF7FEFF 		bl	BspCan_GetStatus
 1977              	.LVL176:
  96:App/Src/fault_command.c ****                            context,
 1978              		.loc 1 96 3 is_stmt 1 view .LVU362
 104:App/Src/fault_command.c ****                            (unsigned long)status.lastRxTick);
 1979              		.loc 1 104 34 is_stmt 0 view .LVU363
 1980 000e 9DF83550 		ldrb	r5, [sp, #53]	@ zero_extendqisi2
  96:App/Src/fault_command.c ****                            context,
 1981              		.loc 1 96 3 view .LVU364
 1982 0012 0C9B     		ldr	r3, [sp, #48]
 1983 0014 0593     		str	r3, [sp, #20]
 1984 0016 0495     		str	r5, [sp, #16]
 1985 0018 0B9B     		ldr	r3, [sp, #44]
 1986 001a 0393     		str	r3, [sp, #12]
 1987 001c 0A9B     		ldr	r3, [sp, #40]
 1988 001e 0293     		str	r3, [sp, #8]
 1989 0020 099B     		ldr	r3, [sp, #36]
 1990 0022 0193     		str	r3, [sp, #4]
 1991 0024 089B     		ldr	r3, [sp, #32]
 1992 0026 0093     		str	r3, [sp]
 1993 0028 9DF81C30 		ldrb	r3, [sp, #28]	@ zero_extendqisi2
 1994 002c 114A     		ldr	r2, .L124
 1995 002e 3946     		mov	r1, r7
 1996 0030 3046     		mov	r0, r6
 1997 0032 FFF7FEFF 		bl	FaultCommand_WriteFormat
 1998              	.LVL177:
 107:App/Src/fault_command.c ****   {
 1999              		.loc 1 107 3 is_stmt 1 view .LVU365
 2000              	.LBB10:
 107:App/Src/fault_command.c ****   {
 2001              		.loc 1 107 8 view .LVU366
 107:App/Src/fault_command.c ****   {
 2002              		.loc 1 107 16 is_stmt 0 view .LVU367
 2003 0036 0024     		movs	r4, #0
 107:App/Src/fault_command.c ****   {
ARM GAS  C:\Users\hh\AppData\Local\Temp\cc8MU7EM.s 			page 58


 2004              		.loc 1 107 3 view .LVU368
 2005 0038 08E0     		b	.L117
 2006              	.LVL178:
 2007              	.L123:
 109:App/Src/fault_command.c ****                              context,
 2008              		.loc 1 109 5 discriminator 1 view .LVU369
 2009 003a 0F4A     		ldr	r2, .L124+4
 2010              	.L118:
 109:App/Src/fault_command.c ****                              context,
 2011              		.loc 1 109 5 discriminator 4 view .LVU370
 2012 003c 0092     		str	r2, [sp]
 2013 003e 0F4A     		ldr	r2, .L124+8
 2014 0040 3946     		mov	r1, r7
 2015 0042 3046     		mov	r0, r6
 2016 0044 FFF7FEFF 		bl	FaultCommand_WriteFormat
 2017              	.LVL179:
 107:App/Src/fault_command.c ****   {
 2018              		.loc 1 107 62 is_stmt 1 discriminator 2 view .LVU371
 2019 0048 0134     		adds	r4, r4, #1
 2020              	.LVL180:
 107:App/Src/fault_command.c ****   {
 2021              		.loc 1 107 62 is_stmt 0 discriminator 2 view .LVU372
 2022 004a E4B2     		uxtb	r4, r4
 2023              	.LVL181:
 2024              	.L117:
 107:App/Src/fault_command.c ****   {
 2025              		.loc 1 107 34 is_stmt 1 discriminator 1 view .LVU373
 2026 004c A542     		cmp	r5, r4
 2027 004e 09D9     		bls	.L122
 109:App/Src/fault_command.c ****                              context,
 2028              		.loc 1 109 5 view .LVU374
 112:App/Src/fault_command.c ****                              (index + 1U == status.lastRxLength) ? "" : " ");
 2029              		.loc 1 112 47 is_stmt 0 view .LVU375
 2030 0050 04F14003 		add	r3, r4, #64
 2031 0054 6B44     		add	r3, sp, r3
 2032 0056 13F80A3C 		ldrb	r3, [r3, #-10]	@ zero_extendqisi2
 113:App/Src/fault_command.c ****   }
 2033              		.loc 1 113 37 view .LVU376
 2034 005a 621C     		adds	r2, r4, #1
 109:App/Src/fault_command.c ****                              context,
 2035              		.loc 1 109 5 view .LVU377
 2036 005c AA42     		cmp	r2, r5
 2037 005e ECD0     		beq	.L123
 109:App/Src/fault_command.c ****                              context,
 2038              		.loc 1 109 5 discriminator 2 view .LVU378
 2039 0060 074A     		ldr	r2, .L124+12
 2040 0062 EBE7     		b	.L118
 2041              	.L122:
 2042              	.LBE10:
 115:App/Src/fault_command.c **** }
 2043              		.loc 1 115 3 is_stmt 1 view .LVU379
 2044 0064 074A     		ldr	r2, .L124+16
 2045 0066 3946     		mov	r1, r7
 2046 0068 3046     		mov	r0, r6
 2047 006a FFF7FEFF 		bl	FaultCommand_Write
 2048              	.LVL182:
 116:App/Src/fault_command.c **** 
ARM GAS  C:\Users\hh\AppData\Local\Temp\cc8MU7EM.s 			page 59


 2049              		.loc 1 116 1 is_stmt 0 view .LVU380
 2050 006e 11B0     		add	sp, sp, #68
 2051              	.LCFI54:
 2052              		.cfi_def_cfa_offset 20
 2053              		@ sp needed
 2054 0070 F0BD     		pop	{r4, r5, r6, r7, pc}
 2055              	.LVL183:
 2056              	.L125:
 116:App/Src/fault_command.c **** 
 2057              		.loc 1 116 1 view .LVU381
 2058 0072 00BF     		.align	2
 2059              	.L124:
 2060 0074 04000000 		.word	.LC49
 2061 0078 00000000 		.word	.LC25
 2062 007c 60000000 		.word	.LC50
 2063 0080 00000000 		.word	.LC48
 2064 0084 7C000000 		.word	.LC37
 2065              		.cfi_endproc
 2066              	.LFE154:
 2068              		.section	.rodata.FaultCommand_WriteJsonBmsResponseLog.str1.4,"aMS",%progbits,1
 2069              		.align	2
 2070              	.LC51:
 2071 0000 7B226F6B 		.ascii	"{\"ok\":true,\"log\":{\"armed\":%u,\"trigger\":\"%s"
 2071      223A7472 
 2071      75652C22 
 2071      6C6F6722 
 2071      3A7B2261 
 2072 002a 222C2274 		.ascii	"\",\"trigger_tick\":%lu,\"primary_cell\":%u,\"prima"
 2072      72696767 
 2072      65725F74 
 2072      69636B22 
 2072      3A256C75 
 2073 0057 72795F6D 		.ascii	"ry_mv\":%u,\"secondary_cell\":%u,\"secondary_mv\":%"
 2073      76223A25 
 2073      752C2273 
 2073      65636F6E 
 2073      64617279 
 2074 0085 752C2263 		.ascii	"u,\"can_after\":%lu,\"captured\":%u,\"response_tick"
 2074      616E5F61 
 2074      66746572 
 2074      223A256C 
 2074      752C2263 
 2075 00b3 223A256C 		.ascii	"\":%lu,\"delay_ms\":%lu,\"response_id\":%lu,\"respo"
 2075      752C2264 
 2075      656C6179 
 2075      5F6D7322 
 2075      3A256C75 
 2076 00e0 6E73655F 		.ascii	"nse_id_hex\":\"0x%lX\",\"response_ext\":%u,\"respon"
 2076      69645F68 
 2076      6578223A 
 2076      22307825 
 2076      6C58222C 
 2077 010d 73655F6C 		.ascii	"se_len\":%u,\"response_data\":[\000"
 2077      656E223A 
 2077      25752C22 
 2077      72657370 
 2077      6F6E7365 
ARM GAS  C:\Users\hh\AppData\Local\Temp\cc8MU7EM.s 			page 60


 2078              		.section	.text.FaultCommand_WriteJsonBmsResponseLog,"ax",%progbits
 2079              		.align	1
 2080              		.syntax unified
 2081              		.thumb
 2082              		.thumb_func
 2084              	FaultCommand_WriteJsonBmsResponseLog:
 2085              	.LVL184:
 2086              	.LFB162:
 290:App/Src/fault_command.c ****   BmsResponseLog_Status status = BmsResponseLog_GetStatus();
 2087              		.loc 1 290 1 is_stmt 1 view -0
 2088              		.cfi_startproc
 2089              		@ args = 0, pretend = 0, frame = 56
 2090              		@ frame_needed = 0, uses_anonymous_args = 0
 290:App/Src/fault_command.c ****   BmsResponseLog_Status status = BmsResponseLog_GetStatus();
 2091              		.loc 1 290 1 is_stmt 0 view .LVU383
 2092 0000 F0B5     		push	{r4, r5, r6, r7, lr}
 2093              	.LCFI55:
 2094              		.cfi_def_cfa_offset 20
 2095              		.cfi_offset 4, -20
 2096              		.cfi_offset 5, -16
 2097              		.cfi_offset 6, -12
 2098              		.cfi_offset 7, -8
 2099              		.cfi_offset 14, -4
 2100 0002 9DB0     		sub	sp, sp, #116
 2101              	.LCFI56:
 2102              		.cfi_def_cfa_offset 136
 2103 0004 0546     		mov	r5, r0
 2104 0006 0E46     		mov	r6, r1
 291:App/Src/fault_command.c **** 
 2105              		.loc 1 291 3 is_stmt 1 view .LVU384
 291:App/Src/fault_command.c **** 
 2106              		.loc 1 291 34 is_stmt 0 view .LVU385
 2107 0008 11A8     		add	r0, sp, #68
 2108              	.LVL185:
 291:App/Src/fault_command.c **** 
 2109              		.loc 1 291 34 view .LVU386
 2110 000a FFF7FEFF 		bl	BmsResponseLog_GetStatus
 2111              	.LVL186:
 293:App/Src/fault_command.c ****                            context,
 2112              		.loc 1 293 3 is_stmt 1 view .LVU387
 296:App/Src/fault_command.c ****                            BmsResponseLog_GetTriggerName(status.triggerType),
 2113              		.loc 1 296 34 is_stmt 0 view .LVU388
 2114 000e 9DF84430 		ldrb	r3, [sp, #68]	@ zero_extendqisi2
 2115 0012 0F93     		str	r3, [sp, #60]
 293:App/Src/fault_command.c ****                            context,
 2116              		.loc 1 293 3 view .LVU389
 2117 0014 9DF84500 		ldrb	r0, [sp, #69]	@ zero_extendqisi2
 2118 0018 FFF7FEFF 		bl	BmsResponseLog_GetTriggerName
 2119              	.LVL187:
 299:App/Src/fault_command.c ****                            status.primaryMillivolts,
 2120              		.loc 1 299 34 view .LVU390
 2121 001c 9DF84620 		ldrb	r2, [sp, #70]	@ zero_extendqisi2
 300:App/Src/fault_command.c ****                            status.secondaryCell,
 2122              		.loc 1 300 34 view .LVU391
 2123 0020 BDF84810 		ldrh	r1, [sp, #72]
 301:App/Src/fault_command.c ****                            status.secondaryMillivolts,
 2124              		.loc 1 301 34 view .LVU392
ARM GAS  C:\Users\hh\AppData\Local\Temp\cc8MU7EM.s 			page 61


 2125 0024 9DF847C0 		ldrb	ip, [sp, #71]	@ zero_extendqisi2
 302:App/Src/fault_command.c ****                            (unsigned long)status.canFramesAfterTrigger,
 2126              		.loc 1 302 34 view .LVU393
 2127 0028 BDF84AE0 		ldrh	lr, [sp, #74]
 304:App/Src/fault_command.c ****                            (unsigned long)status.responseTick,
 2128              		.loc 1 304 34 view .LVU394
 2129 002c 9DF85430 		ldrb	r3, [sp, #84]	@ zero_extendqisi2
 309:App/Src/fault_command.c ****                            status.responseCanLength);
 2130              		.loc 1 309 34 view .LVU395
 2131 0030 9DF86440 		ldrb	r4, [sp, #100]	@ zero_extendqisi2
 310:App/Src/fault_command.c **** 
 2132              		.loc 1 310 34 view .LVU396
 2133 0034 9DF86570 		ldrb	r7, [sp, #101]	@ zero_extendqisi2
 293:App/Src/fault_command.c ****                            context,
 2134              		.loc 1 293 3 view .LVU397
 2135 0038 0D97     		str	r7, [sp, #52]
 2136 003a 0C94     		str	r4, [sp, #48]
 2137 003c 189C     		ldr	r4, [sp, #96]
 2138 003e 0B94     		str	r4, [sp, #44]
 2139 0040 0A94     		str	r4, [sp, #40]
 2140 0042 179C     		ldr	r4, [sp, #92]
 2141 0044 0994     		str	r4, [sp, #36]
 2142 0046 169C     		ldr	r4, [sp, #88]
 2143 0048 0894     		str	r4, [sp, #32]
 2144 004a 0793     		str	r3, [sp, #28]
 2145 004c 149B     		ldr	r3, [sp, #80]
 2146 004e 0693     		str	r3, [sp, #24]
 2147 0050 CDF814E0 		str	lr, [sp, #20]
 2148 0054 CDF810C0 		str	ip, [sp, #16]
 2149 0058 0391     		str	r1, [sp, #12]
 2150 005a 0292     		str	r2, [sp, #8]
 2151 005c 139B     		ldr	r3, [sp, #76]
 2152 005e 0193     		str	r3, [sp, #4]
 2153 0060 0090     		str	r0, [sp]
 2154 0062 0F9B     		ldr	r3, [sp, #60]
 2155 0064 104A     		ldr	r2, .L134
 2156 0066 3146     		mov	r1, r6
 2157 0068 2846     		mov	r0, r5
 2158 006a FFF7FEFF 		bl	FaultCommand_WriteFormat
 2159              	.LVL188:
 312:App/Src/fault_command.c ****   {
 2160              		.loc 1 312 3 is_stmt 1 view .LVU398
 2161              	.LBB11:
 312:App/Src/fault_command.c ****   {
 2162              		.loc 1 312 8 view .LVU399
 312:App/Src/fault_command.c ****   {
 2163              		.loc 1 312 16 is_stmt 0 view .LVU400
 2164 006e 0024     		movs	r4, #0
 312:App/Src/fault_command.c ****   {
 2165              		.loc 1 312 3 view .LVU401
 2166 0070 0DE0     		b	.L127
 2167              	.LVL189:
 2168              	.L133:
 314:App/Src/fault_command.c ****                              context,
 2169              		.loc 1 314 5 discriminator 1 view .LVU402
 2170 0072 0E4B     		ldr	r3, .L134+4
 2171              	.L128:
ARM GAS  C:\Users\hh\AppData\Local\Temp\cc8MU7EM.s 			page 62


 318:App/Src/fault_command.c ****   }
 2172              		.loc 1 318 52 view .LVU403
 2173 0074 04F17002 		add	r2, r4, #112
 2174 0078 6A44     		add	r2, sp, r2
 2175 007a 12F80A2C 		ldrb	r2, [r2, #-10]	@ zero_extendqisi2
 314:App/Src/fault_command.c ****                              context,
 2176              		.loc 1 314 5 view .LVU404
 2177 007e 0092     		str	r2, [sp]
 2178 0080 0B4A     		ldr	r2, .L134+8
 2179 0082 3146     		mov	r1, r6
 2180 0084 2846     		mov	r0, r5
 2181 0086 FFF7FEFF 		bl	FaultCommand_WriteFormat
 2182              	.LVL190:
 312:App/Src/fault_command.c ****   {
 2183              		.loc 1 312 67 is_stmt 1 discriminator 2 view .LVU405
 2184 008a 0134     		adds	r4, r4, #1
 2185              	.LVL191:
 312:App/Src/fault_command.c ****   {
 2186              		.loc 1 312 67 is_stmt 0 discriminator 2 view .LVU406
 2187 008c E4B2     		uxtb	r4, r4
 2188              	.LVL192:
 2189              	.L127:
 312:App/Src/fault_command.c ****   {
 2190              		.loc 1 312 34 is_stmt 1 discriminator 1 view .LVU407
 2191 008e A742     		cmp	r7, r4
 2192 0090 03D9     		bls	.L132
 314:App/Src/fault_command.c ****                              context,
 2193              		.loc 1 314 5 view .LVU408
 2194 0092 002C     		cmp	r4, #0
 2195 0094 EDD0     		beq	.L133
 314:App/Src/fault_command.c ****                              context,
 2196              		.loc 1 314 5 is_stmt 0 discriminator 2 view .LVU409
 2197 0096 074B     		ldr	r3, .L134+12
 2198 0098 ECE7     		b	.L128
 2199              	.L132:
 2200              	.LBE11:
 320:App/Src/fault_command.c **** }
 2201              		.loc 1 320 3 is_stmt 1 view .LVU410
 2202 009a 074A     		ldr	r2, .L134+16
 2203 009c 3146     		mov	r1, r6
 2204 009e 2846     		mov	r0, r5
 2205 00a0 FFF7FEFF 		bl	FaultCommand_Write
 2206              	.LVL193:
 321:App/Src/fault_command.c **** 
 2207              		.loc 1 321 1 is_stmt 0 view .LVU411
 2208 00a4 1DB0     		add	sp, sp, #116
 2209              	.LCFI57:
 2210              		.cfi_def_cfa_offset 20
 2211              		@ sp needed
 2212 00a6 F0BD     		pop	{r4, r5, r6, r7, pc}
 2213              	.LVL194:
 2214              	.L135:
 321:App/Src/fault_command.c **** 
 2215              		.loc 1 321 1 view .LVU412
 2216              		.align	2
 2217              	.L134:
 2218 00a8 00000000 		.word	.LC51
ARM GAS  C:\Users\hh\AppData\Local\Temp\cc8MU7EM.s 			page 63


 2219 00ac 00000000 		.word	.LC25
 2220 00b0 9C000000 		.word	.LC46
 2221 00b4 04000000 		.word	.LC26
 2222 00b8 A4000000 		.word	.LC47
 2223              		.cfi_endproc
 2224              	.LFE162:
 2226              		.section	.rodata.FaultCommand_WriteTextBmsResponseLog.str1.4,"aMS",%progbits,1
 2227              		.align	2
 2228              	.LC52:
 2229 0000 0D0A5B6C 		.ascii	"\015\012[log] armed=%u trigger=%s t1=%lums primary="
 2229      6F675D20 
 2229      61726D65 
 2229      643D2575 
 2229      20747269 
 2230 002d 43253032 		.ascii	"C%02u/%umV secondary=C%02u/%umV can_after=%lu captu"
 2230      752F2575 
 2230      6D562073 
 2230      65636F6E 
 2230      64617279 
 2231 0060 7265643D 		.ascii	"red=%u\000"
 2231      257500
 2232 0067 00       		.align	2
 2233              	.LC53:
 2234 0068 2074323D 		.ascii	" t2=%lums delay=%lums id=0x%lX ext=%u len=%u data=\000"
 2234      256C756D 
 2234      73206465 
 2234      6C61793D 
 2234      256C756D 
 2235              		.section	.text.FaultCommand_WriteTextBmsResponseLog,"ax",%progbits
 2236              		.align	1
 2237              		.syntax unified
 2238              		.thumb
 2239              		.thumb_func
 2241              	FaultCommand_WriteTextBmsResponseLog:
 2242              	.LVL195:
 2243              	.LFB155:
 119:App/Src/fault_command.c ****   BmsResponseLog_Status status = BmsResponseLog_GetStatus();
 2244              		.loc 1 119 1 is_stmt 1 view -0
 2245              		.cfi_startproc
 2246              		@ args = 0, pretend = 0, frame = 48
 2247              		@ frame_needed = 0, uses_anonymous_args = 0
 119:App/Src/fault_command.c ****   BmsResponseLog_Status status = BmsResponseLog_GetStatus();
 2248              		.loc 1 119 1 is_stmt 0 view .LVU414
 2249 0000 F0B5     		push	{r4, r5, r6, r7, lr}
 2250              	.LCFI58:
 2251              		.cfi_def_cfa_offset 20
 2252              		.cfi_offset 4, -20
 2253              		.cfi_offset 5, -16
 2254              		.cfi_offset 6, -12
 2255              		.cfi_offset 7, -8
 2256              		.cfi_offset 14, -4
 2257 0002 95B0     		sub	sp, sp, #84
 2258              	.LCFI59:
 2259              		.cfi_def_cfa_offset 104
 2260 0004 0546     		mov	r5, r0
 2261 0006 0E46     		mov	r6, r1
 120:App/Src/fault_command.c **** 
ARM GAS  C:\Users\hh\AppData\Local\Temp\cc8MU7EM.s 			page 64


 2262              		.loc 1 120 3 is_stmt 1 view .LVU415
 120:App/Src/fault_command.c **** 
 2263              		.loc 1 120 34 is_stmt 0 view .LVU416
 2264 0008 09A8     		add	r0, sp, #36
 2265              	.LVL196:
 120:App/Src/fault_command.c **** 
 2266              		.loc 1 120 34 view .LVU417
 2267 000a FFF7FEFF 		bl	BmsResponseLog_GetStatus
 2268              	.LVL197:
 122:App/Src/fault_command.c ****                            context,
 2269              		.loc 1 122 3 is_stmt 1 view .LVU418
 125:App/Src/fault_command.c ****                            BmsResponseLog_GetTriggerName(status.triggerType),
 2270              		.loc 1 125 34 is_stmt 0 view .LVU419
 2271 000e 9DF82470 		ldrb	r7, [sp, #36]	@ zero_extendqisi2
 122:App/Src/fault_command.c ****                            context,
 2272              		.loc 1 122 3 view .LVU420
 2273 0012 9DF82500 		ldrb	r0, [sp, #37]	@ zero_extendqisi2
 2274 0016 FFF7FEFF 		bl	BmsResponseLog_GetTriggerName
 2275              	.LVL198:
 128:App/Src/fault_command.c ****                            status.primaryMillivolts,
 2276              		.loc 1 128 34 view .LVU421
 2277 001a 9DF826C0 		ldrb	ip, [sp, #38]	@ zero_extendqisi2
 129:App/Src/fault_command.c ****                            status.secondaryCell,
 2278              		.loc 1 129 34 view .LVU422
 2279 001e BDF82820 		ldrh	r2, [sp, #40]
 130:App/Src/fault_command.c ****                            status.secondaryMillivolts,
 2280              		.loc 1 130 34 view .LVU423
 2281 0022 9DF82710 		ldrb	r1, [sp, #39]	@ zero_extendqisi2
 131:App/Src/fault_command.c ****                            (unsigned long)status.canFramesAfterTrigger,
 2282              		.loc 1 131 34 view .LVU424
 2283 0026 BDF82AE0 		ldrh	lr, [sp, #42]
 133:App/Src/fault_command.c **** 
 2284              		.loc 1 133 34 view .LVU425
 2285 002a 9DF83440 		ldrb	r4, [sp, #52]	@ zero_extendqisi2
 122:App/Src/fault_command.c ****                            context,
 2286              		.loc 1 122 3 view .LVU426
 2287 002e 0794     		str	r4, [sp, #28]
 2288 0030 0C9B     		ldr	r3, [sp, #48]
 2289 0032 0693     		str	r3, [sp, #24]
 2290 0034 CDF814E0 		str	lr, [sp, #20]
 2291 0038 0491     		str	r1, [sp, #16]
 2292 003a 0392     		str	r2, [sp, #12]
 2293 003c CDF808C0 		str	ip, [sp, #8]
 2294 0040 0B9B     		ldr	r3, [sp, #44]
 2295 0042 0193     		str	r3, [sp, #4]
 2296 0044 0090     		str	r0, [sp]
 2297 0046 3B46     		mov	r3, r7
 2298 0048 194A     		ldr	r2, .L145
 2299 004a 3146     		mov	r1, r6
 2300 004c 2846     		mov	r0, r5
 2301 004e FFF7FEFF 		bl	FaultCommand_WriteFormat
 2302              	.LVL199:
 135:App/Src/fault_command.c ****   {
 2303              		.loc 1 135 3 is_stmt 1 view .LVU427
 135:App/Src/fault_command.c ****   {
 2304              		.loc 1 135 6 is_stmt 0 view .LVU428
 2305 0052 34B9     		cbnz	r4, .L143
ARM GAS  C:\Users\hh\AppData\Local\Temp\cc8MU7EM.s 			page 65


 2306              	.L137:
 155:App/Src/fault_command.c **** }
 2307              		.loc 1 155 3 is_stmt 1 view .LVU429
 2308 0054 174A     		ldr	r2, .L145+4
 2309 0056 3146     		mov	r1, r6
 2310 0058 2846     		mov	r0, r5
 2311 005a FFF7FEFF 		bl	FaultCommand_Write
 2312              	.LVL200:
 156:App/Src/fault_command.c **** 
 2313              		.loc 1 156 1 is_stmt 0 view .LVU430
 2314 005e 15B0     		add	sp, sp, #84
 2315              	.LCFI60:
 2316              		.cfi_remember_state
 2317              		.cfi_def_cfa_offset 20
 2318              		@ sp needed
 2319 0060 F0BD     		pop	{r4, r5, r6, r7, pc}
 2320              	.LVL201:
 2321              	.L143:
 2322              	.LCFI61:
 2323              		.cfi_restore_state
 137:App/Src/fault_command.c ****                              context,
 2324              		.loc 1 137 5 is_stmt 1 view .LVU431
 143:App/Src/fault_command.c ****                              status.responseCanLength);
 2325              		.loc 1 143 36 is_stmt 0 view .LVU432
 2326 0062 9DF84430 		ldrb	r3, [sp, #68]	@ zero_extendqisi2
 144:App/Src/fault_command.c ****     for (uint8_t index = 0U; index < status.responseCanLength; index++)
 2327              		.loc 1 144 36 view .LVU433
 2328 0066 9DF84570 		ldrb	r7, [sp, #69]	@ zero_extendqisi2
 137:App/Src/fault_command.c ****                              context,
 2329              		.loc 1 137 5 view .LVU434
 2330 006a 0397     		str	r7, [sp, #12]
 2331 006c 0293     		str	r3, [sp, #8]
 2332 006e 109B     		ldr	r3, [sp, #64]
 2333 0070 0193     		str	r3, [sp, #4]
 2334 0072 0F9B     		ldr	r3, [sp, #60]
 2335 0074 0093     		str	r3, [sp]
 2336 0076 0E9B     		ldr	r3, [sp, #56]
 2337 0078 0F4A     		ldr	r2, .L145+8
 2338 007a 3146     		mov	r1, r6
 2339 007c 2846     		mov	r0, r5
 2340 007e FFF7FEFF 		bl	FaultCommand_WriteFormat
 2341              	.LVL202:
 145:App/Src/fault_command.c ****     {
 2342              		.loc 1 145 5 is_stmt 1 view .LVU435
 2343              	.LBB12:
 145:App/Src/fault_command.c ****     {
 2344              		.loc 1 145 10 view .LVU436
 145:App/Src/fault_command.c ****     {
 2345              		.loc 1 145 18 is_stmt 0 view .LVU437
 2346 0082 0024     		movs	r4, #0
 145:App/Src/fault_command.c ****     {
 2347              		.loc 1 145 5 view .LVU438
 2348 0084 08E0     		b	.L138
 2349              	.LVL203:
 2350              	.L144:
 147:App/Src/fault_command.c ****                                context,
 2351              		.loc 1 147 7 discriminator 1 view .LVU439
ARM GAS  C:\Users\hh\AppData\Local\Temp\cc8MU7EM.s 			page 66


 2352 0086 0D4A     		ldr	r2, .L145+12
 2353              	.L139:
 147:App/Src/fault_command.c ****                                context,
 2354              		.loc 1 147 7 discriminator 4 view .LVU440
 2355 0088 0092     		str	r2, [sp]
 2356 008a 0D4A     		ldr	r2, .L145+16
 2357 008c 3146     		mov	r1, r6
 2358 008e 2846     		mov	r0, r5
 2359 0090 FFF7FEFF 		bl	FaultCommand_WriteFormat
 2360              	.LVL204:
 145:App/Src/fault_command.c ****     {
 2361              		.loc 1 145 69 is_stmt 1 discriminator 2 view .LVU441
 2362 0094 0134     		adds	r4, r4, #1
 2363              	.LVL205:
 145:App/Src/fault_command.c ****     {
 2364              		.loc 1 145 69 is_stmt 0 discriminator 2 view .LVU442
 2365 0096 E4B2     		uxtb	r4, r4
 2366              	.LVL206:
 2367              	.L138:
 145:App/Src/fault_command.c ****     {
 2368              		.loc 1 145 36 is_stmt 1 discriminator 1 view .LVU443
 2369 0098 A742     		cmp	r7, r4
 2370 009a DBD9     		bls	.L137
 147:App/Src/fault_command.c ****                                context,
 2371              		.loc 1 147 7 view .LVU444
 150:App/Src/fault_command.c ****                                (index + 1U == status.responseCanLength) ? "" : " ");
 2372              		.loc 1 150 54 is_stmt 0 view .LVU445
 2373 009c 04F15003 		add	r3, r4, #80
 2374 00a0 6B44     		add	r3, sp, r3
 2375 00a2 13F80A3C 		ldrb	r3, [r3, #-10]	@ zero_extendqisi2
 151:App/Src/fault_command.c ****     }
 2376              		.loc 1 151 39 view .LVU446
 2377 00a6 621C     		adds	r2, r4, #1
 147:App/Src/fault_command.c ****                                context,
 2378              		.loc 1 147 7 view .LVU447
 2379 00a8 BA42     		cmp	r2, r7
 2380 00aa ECD0     		beq	.L144
 147:App/Src/fault_command.c ****                                context,
 2381              		.loc 1 147 7 discriminator 2 view .LVU448
 2382 00ac 054A     		ldr	r2, .L145+20
 2383 00ae EBE7     		b	.L139
 2384              	.L146:
 2385              		.align	2
 2386              	.L145:
 2387 00b0 00000000 		.word	.LC52
 2388 00b4 7C000000 		.word	.LC37
 2389 00b8 68000000 		.word	.LC53
 2390 00bc 00000000 		.word	.LC25
 2391 00c0 60000000 		.word	.LC50
 2392 00c4 00000000 		.word	.LC48
 2393              	.LBE12:
 2394              		.cfi_endproc
 2395              	.LFE155:
 2397              		.section	.text.FaultCommand_JsonGetUint,"ax",%progbits
 2398              		.align	1
 2399              		.syntax unified
 2400              		.thumb
ARM GAS  C:\Users\hh\AppData\Local\Temp\cc8MU7EM.s 			page 67


 2401              		.thumb_func
 2403              	FaultCommand_JsonGetUint:
 2404              	.LVL207:
 2405              	.LFB173:
 804:App/Src/fault_command.c ****   const char *cursor = FaultCommand_FindJsonKey(json, key);
 2406              		.loc 1 804 1 is_stmt 1 view -0
 2407              		.cfi_startproc
 2408              		@ args = 0, pretend = 0, frame = 0
 2409              		@ frame_needed = 0, uses_anonymous_args = 0
 804:App/Src/fault_command.c ****   const char *cursor = FaultCommand_FindJsonKey(json, key);
 2410              		.loc 1 804 1 is_stmt 0 view .LVU450
 2411 0000 10B5     		push	{r4, lr}
 2412              	.LCFI62:
 2413              		.cfi_def_cfa_offset 8
 2414              		.cfi_offset 4, -8
 2415              		.cfi_offset 14, -4
 2416 0002 1446     		mov	r4, r2
 805:App/Src/fault_command.c **** 
 2417              		.loc 1 805 3 is_stmt 1 view .LVU451
 805:App/Src/fault_command.c **** 
 2418              		.loc 1 805 24 is_stmt 0 view .LVU452
 2419 0004 FFF7FEFF 		bl	FaultCommand_FindJsonKey
 2420              	.LVL208:
 807:App/Src/fault_command.c ****   {
 2421              		.loc 1 807 3 is_stmt 1 view .LVU453
 807:App/Src/fault_command.c ****   {
 2422              		.loc 1 807 6 is_stmt 0 view .LVU454
 2423 0008 002C     		cmp	r4, #0
 2424 000a 18BF     		it	ne
 2425 000c 0028     		cmpne	r0, #0
 2426 000e 10D0     		beq	.L151
 812:App/Src/fault_command.c ****   if (cursor == NULL)
 2427              		.loc 1 812 3 is_stmt 1 view .LVU455
 812:App/Src/fault_command.c ****   if (cursor == NULL)
 2428              		.loc 1 812 12 is_stmt 0 view .LVU456
 2429 0010 3A21     		movs	r1, #58
 2430 0012 FFF7FEFF 		bl	strchr
 2431              	.LVL209:
 813:App/Src/fault_command.c ****   {
 2432              		.loc 1 813 3 is_stmt 1 view .LVU457
 813:App/Src/fault_command.c ****   {
 2433              		.loc 1 813 6 is_stmt 0 view .LVU458
 2434 0016 58B1     		cbz	r0, .L148
 818:App/Src/fault_command.c ****   while (*cursor == ' ')
 2435              		.loc 1 818 3 is_stmt 1 view .LVU459
 818:App/Src/fault_command.c ****   while (*cursor == ' ')
 2436              		.loc 1 818 9 is_stmt 0 view .LVU460
 2437 0018 0130     		adds	r0, r0, #1
 2438              	.LVL210:
 819:App/Src/fault_command.c ****   {
 2439              		.loc 1 819 3 is_stmt 1 view .LVU461
 2440              	.L149:
 819:App/Src/fault_command.c ****   {
 2441              		.loc 1 819 18 view .LVU462
 819:App/Src/fault_command.c ****   {
 2442              		.loc 1 819 10 is_stmt 0 view .LVU463
 2443 001a 0378     		ldrb	r3, [r0]	@ zero_extendqisi2
ARM GAS  C:\Users\hh\AppData\Local\Temp\cc8MU7EM.s 			page 68


 819:App/Src/fault_command.c ****   {
 2444              		.loc 1 819 18 view .LVU464
 2445 001c 202B     		cmp	r3, #32
 2446 001e 01D1     		bne	.L154
 821:App/Src/fault_command.c ****   }
 2447              		.loc 1 821 5 is_stmt 1 view .LVU465
 821:App/Src/fault_command.c ****   }
 2448              		.loc 1 821 11 is_stmt 0 view .LVU466
 2449 0020 0130     		adds	r0, r0, #1
 2450              	.LVL211:
 821:App/Src/fault_command.c ****   }
 2451              		.loc 1 821 11 view .LVU467
 2452 0022 FAE7     		b	.L149
 2453              	.LVL212:
 2454              	.L154:
 824:App/Src/fault_command.c ****   return 1U;
 2455              		.loc 1 824 3 is_stmt 1 view .LVU468
 824:App/Src/fault_command.c ****   return 1U;
 2456              		.loc 1 824 12 is_stmt 0 view .LVU469
 2457 0024 0A22     		movs	r2, #10
 2458 0026 0021     		movs	r1, #0
 2459 0028 FFF7FEFF 		bl	strtoul
 2460              	.LVL213:
 824:App/Src/fault_command.c ****   return 1U;
 2461              		.loc 1 824 10 discriminator 1 view .LVU470
 2462 002c 2060     		str	r0, [r4]
 825:App/Src/fault_command.c **** }
 2463              		.loc 1 825 3 is_stmt 1 view .LVU471
 825:App/Src/fault_command.c **** }
 2464              		.loc 1 825 10 is_stmt 0 view .LVU472
 2465 002e 0120     		movs	r0, #1
 2466              	.LVL214:
 2467              	.L148:
 826:App/Src/fault_command.c **** 
 2468              		.loc 1 826 1 view .LVU473
 2469 0030 10BD     		pop	{r4, pc}
 2470              	.LVL215:
 2471              	.L151:
 809:App/Src/fault_command.c ****   }
 2472              		.loc 1 809 12 view .LVU474
 2473 0032 0020     		movs	r0, #0
 2474              	.LVL216:
 809:App/Src/fault_command.c ****   }
 2475              		.loc 1 809 12 view .LVU475
 2476 0034 FCE7     		b	.L148
 2477              		.cfi_endproc
 2478              	.LFE173:
 2480              		.section	.text.FaultCommand_JsonGetUintDefault,"ax",%progbits
 2481              		.align	1
 2482              		.syntax unified
 2483              		.thumb
 2484              		.thumb_func
 2486              	FaultCommand_JsonGetUintDefault:
 2487              	.LVL217:
 2488              	.LFB175:
 852:App/Src/fault_command.c **** 
 853:App/Src/fault_command.c **** static uint32_t FaultCommand_JsonGetUintDefault(const char *json, const char *key, uint32_t default
ARM GAS  C:\Users\hh\AppData\Local\Temp\cc8MU7EM.s 			page 69


 854:App/Src/fault_command.c **** {
 2489              		.loc 1 854 1 is_stmt 1 view -0
 2490              		.cfi_startproc
 2491              		@ args = 0, pretend = 0, frame = 8
 2492              		@ frame_needed = 0, uses_anonymous_args = 0
 2493              		.loc 1 854 1 is_stmt 0 view .LVU477
 2494 0000 00B5     		push	{lr}
 2495              	.LCFI63:
 2496              		.cfi_def_cfa_offset 4
 2497              		.cfi_offset 14, -4
 2498 0002 83B0     		sub	sp, sp, #12
 2499              	.LCFI64:
 2500              		.cfi_def_cfa_offset 16
 855:App/Src/fault_command.c ****   uint32_t value = defaultValue;
 2501              		.loc 1 855 3 is_stmt 1 view .LVU478
 2502              		.loc 1 855 12 is_stmt 0 view .LVU479
 2503 0004 0192     		str	r2, [sp, #4]
 856:App/Src/fault_command.c **** 
 857:App/Src/fault_command.c ****   (void)FaultCommand_JsonGetUint(json, key, &value);
 2504              		.loc 1 857 3 is_stmt 1 view .LVU480
 2505              		.loc 1 857 9 is_stmt 0 view .LVU481
 2506 0006 01AA     		add	r2, sp, #4
 2507              	.LVL218:
 2508              		.loc 1 857 9 view .LVU482
 2509 0008 FFF7FEFF 		bl	FaultCommand_JsonGetUint
 2510              	.LVL219:
 858:App/Src/fault_command.c ****   return value;
 2511              		.loc 1 858 3 is_stmt 1 view .LVU483
 859:App/Src/fault_command.c **** }
 2512              		.loc 1 859 1 is_stmt 0 view .LVU484
 2513 000c 0198     		ldr	r0, [sp, #4]
 2514 000e 03B0     		add	sp, sp, #12
 2515              	.LCFI65:
 2516              		.cfi_def_cfa_offset 4
 2517              		@ sp needed
 2518 0010 00BD     		pop	{pc}
 2519              		.cfi_endproc
 2520              	.LFE175:
 2522              		.section	.rodata.FaultCommand_ExecuteJson.str1.4,"aMS",%progbits,1
 2523              		.align	2
 2524              	.LC54:
 2525 0000 636D6400 		.ascii	"cmd\000"
 2526              		.align	2
 2527              	.LC55:
 2528 0004 7B226F6B 		.ascii	"{\"ok\":false,\"error\":\"missing_cmd\"}\015\012\000"
 2528      223A6661 
 2528      6C73652C 
 2528      22657272 
 2528      6F72223A 
 2529 0029 000000   		.align	2
 2530              	.LC56:
 2531 002c 73746174 		.ascii	"status\000"
 2531      757300
 2532 0033 00       		.align	2
 2533              	.LC57:
 2534 0034 68656C70 		.ascii	"help\000"
 2534      00
ARM GAS  C:\Users\hh\AppData\Local\Temp\cc8MU7EM.s 			page 70


 2535 0039 000000   		.align	2
 2536              	.LC58:
 2537 003c 7B226F6B 		.ascii	"{\"ok\":true,\"commands\":[\"status\",\"normal\",\""
 2537      223A7472 
 2537      75652C22 
 2537      636F6D6D 
 2537      616E6473 
 2538 0066 73657422 		.ascii	"set\",\"ov\",\"uv\",\"diff\",\"wave\",\"wave_stop\""
 2538      2C226F76 
 2538      222C2275 
 2538      76222C22 
 2538      64696666 
 2539 008e 2C226361 		.ascii	",\"cal\",\"test\",\"can\",\"log\",\"clear\"]}\015\012"
 2539      6C222C22 
 2539      74657374 
 2539      222C2263 
 2539      616E222C 
 2540 00b3 00       		.ascii	"\000"
 2541              		.align	2
 2542              	.LC59:
 2543 00b4 6E6F726D 		.ascii	"normal\000"
 2543      616C00
 2544 00bb 00       		.align	2
 2545              	.LC60:
 2546 00bc 6D7600   		.ascii	"mv\000"
 2547 00bf 00       		.align	2
 2548              	.LC61:
 2549 00c0 73657400 		.ascii	"set\000"
 2550              		.align	2
 2551              	.LC62:
 2552 00c4 63656C6C 		.ascii	"cell\000"
 2552      00
 2553 00c9 000000   		.align	2
 2554              	.LC63:
 2555 00cc 6F7600   		.ascii	"ov\000"
 2556 00cf 00       		.align	2
 2557              	.LC64:
 2558 00d0 6F766572 		.ascii	"over_voltage\000"
 2558      5F766F6C 
 2558      74616765 
 2558      00
 2559 00dd 000000   		.align	2
 2560              	.LC65:
 2561 00e0 64757261 		.ascii	"duration_ms\000"
 2561      74696F6E 
 2561      5F6D7300 
 2562              		.align	2
 2563              	.LC66:
 2564 00ec 736C6577 		.ascii	"slew_mv_per_ms\000"
 2564      5F6D765F 
 2564      7065725F 
 2564      6D7300
 2565 00fb 00       		.align	2
 2566              	.LC67:
 2567 00fc 757600   		.ascii	"uv\000"
 2568 00ff 00       		.align	2
 2569              	.LC68:
ARM GAS  C:\Users\hh\AppData\Local\Temp\cc8MU7EM.s 			page 71


 2570 0100 756E6465 		.ascii	"under_voltage\000"
 2570      725F766F 
 2570      6C746167 
 2570      6500
 2571 010e 0000     		.align	2
 2572              	.LC69:
 2573 0110 64696666 		.ascii	"diff\000"
 2573      00
 2574 0115 000000   		.align	2
 2575              	.LC70:
 2576 0118 68696768 		.ascii	"high_cell\000"
 2576      5F63656C 
 2576      6C00
 2577 0122 0000     		.align	2
 2578              	.LC71:
 2579 0124 68696768 		.ascii	"high_mv\000"
 2579      5F6D7600 
 2580              		.align	2
 2581              	.LC72:
 2582 012c 6C6F775F 		.ascii	"low_cell\000"
 2582      63656C6C 
 2582      00
 2583 0135 000000   		.align	2
 2584              	.LC73:
 2585 0138 6C6F775F 		.ascii	"low_mv\000"
 2585      6D7600
 2586 013f 00       		.align	2
 2587              	.LC74:
 2588 0140 77617665 		.ascii	"wave\000"
 2588      00
 2589 0145 000000   		.align	2
 2590              	.LC75:
 2591 0148 74797065 		.ascii	"type\000"
 2591      00
 2592 014d 000000   		.align	2
 2593              	.LC76:
 2594 0150 73717561 		.ascii	"square\000"
 2594      726500
 2595 0157 00       		.align	2
 2596              	.LC77:
 2597 0158 70657269 		.ascii	"period_ms\000"
 2597      6F645F6D 
 2597      7300
 2598 0162 0000     		.align	2
 2599              	.LC78:
 2600 0164 73696E65 		.ascii	"sine\000"
 2600      00
 2601 0169 000000   		.align	2
 2602              	.LC79:
 2603 016c 6F666673 		.ascii	"offset_mv\000"
 2603      65745F6D 
 2603      7600
 2604 0176 0000     		.align	2
 2605              	.LC80:
 2606 0178 616D706C 		.ascii	"amplitude_mv\000"
 2606      69747564 
 2606      655F6D76 
ARM GAS  C:\Users\hh\AppData\Local\Temp\cc8MU7EM.s 			page 72


 2606      00
 2607 0185 000000   		.align	2
 2608              	.LC81:
 2609 0188 73696E65 		.ascii	"sine_all\000"
 2609      5F616C6C 
 2609      00
 2610 0191 000000   		.align	2
 2611              	.LC82:
 2612 0194 73746F70 		.ascii	"stop\000"
 2612      00
 2613 0199 000000   		.align	2
 2614              	.LC83:
 2615 019c 77617665 		.ascii	"wave_stop\000"
 2615      5F73746F 
 2615      7000
 2616 01a6 0000     		.align	2
 2617              	.LC84:
 2618 01a8 63616C00 		.ascii	"cal\000"
 2619              		.align	2
 2620              	.LC85:
 2621 01ac 61637469 		.ascii	"action\000"
 2621      6F6E00
 2622 01b3 00       		.align	2
 2623              	.LC86:
 2624 01b4 7B226F6B 		.ascii	"{\"ok\":true,\"calibration\":[\000"
 2624      223A7472 
 2624      75652C22 
 2624      63616C69 
 2624      62726174 
 2625 01cf 00       		.align	2
 2626              	.LC87:
 2627 01d0 25737B22 		.ascii	"%s{\"cell\":%u,\"offset_mv\":%d}\000"
 2627      63656C6C 
 2627      223A2575 
 2627      2C226F66 
 2627      66736574 
 2628 01ed 000000   		.align	2
 2629              	.LC88:
 2630 01f0 7472696D 		.ascii	"trim\000"
 2630      00
 2631 01f5 000000   		.align	2
 2632              	.LC89:
 2633 01f8 74617267 		.ascii	"target_mv\000"
 2633      65745F6D 
 2633      7600
 2634 0202 0000     		.align	2
 2635              	.LC90:
 2636 0204 6D656173 		.ascii	"measured_mv\000"
 2636      75726564 
 2636      5F6D7600 
 2637              		.align	2
 2638              	.LC91:
 2639 0210 636C6561 		.ascii	"clear\000"
 2639      7200
 2640 0216 0000     		.align	2
 2641              	.LC92:
 2642 0218 74657374 		.ascii	"test\000"
ARM GAS  C:\Users\hh\AppData\Local\Temp\cc8MU7EM.s 			page 73


 2642      00
 2643 021d 000000   		.align	2
 2644              	.LC93:
 2645 0220 73746174 		.ascii	"static\000"
 2645      696300
 2646 0227 00       		.align	2
 2647              	.LC94:
 2648 0228 736C6577 		.ascii	"slew\000"
 2648      00
 2649 022d 000000   		.align	2
 2650              	.LC95:
 2651 0230 63616E00 		.ascii	"can\000"
 2652              		.align	2
 2653              	.LC96:
 2654 0234 73656E64 		.ascii	"send\000"
 2654      00
 2655 0239 000000   		.align	2
 2656              	.LC97:
 2657 023c 696400   		.ascii	"id\000"
 2658 023f 00       		.align	2
 2659              	.LC98:
 2660 0240 6C656E00 		.ascii	"len\000"
 2661              		.align	2
 2662              	.LC99:
 2663 0244 65787465 		.ascii	"extended\000"
 2663      6E646564 
 2663      00
 2664 024d 000000   		.align	2
 2665              	.LC100:
 2666 0250 64257500 		.ascii	"d%u\000"
 2667              		.align	2
 2668              	.LC101:
 2669 0254 6C6F6700 		.ascii	"log\000"
 2670              		.align	2
 2671              	.LC102:
 2672 0258 7B226F6B 		.ascii	"{\"ok\":false,\"error\":\"unknown_cmd\"}\015\012\000"
 2672      223A6661 
 2672      6C73652C 
 2672      22657272 
 2672      6F72223A 
 2673              		.section	.text.FaultCommand_ExecuteJson,"ax",%progbits
 2674              		.align	1
 2675              		.syntax unified
 2676              		.thumb
 2677              		.thumb_func
 2679              	FaultCommand_ExecuteJson:
 2680              	.LVL220:
 2681              	.LFB176:
 860:App/Src/fault_command.c **** 
 861:App/Src/fault_command.c **** static void FaultCommand_ExecuteJson(const char *json, FaultCommand_WriteFn write, void *context)
 862:App/Src/fault_command.c **** {
 2682              		.loc 1 862 1 is_stmt 1 view -0
 2683              		.cfi_startproc
 2684              		@ args = 0, pretend = 0, frame = 88
 2685              		@ frame_needed = 0, uses_anonymous_args = 0
 2686              		.loc 1 862 1 is_stmt 0 view .LVU486
 2687 0000 2DE9F041 		push	{r4, r5, r6, r7, r8, lr}
ARM GAS  C:\Users\hh\AppData\Local\Temp\cc8MU7EM.s 			page 74


 2688              	.LCFI66:
 2689              		.cfi_def_cfa_offset 24
 2690              		.cfi_offset 4, -24
 2691              		.cfi_offset 5, -20
 2692              		.cfi_offset 6, -16
 2693              		.cfi_offset 7, -12
 2694              		.cfi_offset 8, -8
 2695              		.cfi_offset 14, -4
 2696 0004 98B0     		sub	sp, sp, #96
 2697              	.LCFI67:
 2698              		.cfi_def_cfa_offset 120
 2699 0006 0446     		mov	r4, r0
 2700 0008 0E46     		mov	r6, r1
 2701 000a 1746     		mov	r7, r2
 863:App/Src/fault_command.c ****   char cmd[16];
 2702              		.loc 1 863 3 is_stmt 1 view .LVU487
 864:App/Src/fault_command.c ****   char type[16];
 2703              		.loc 1 864 3 view .LVU488
 865:App/Src/fault_command.c ****   uint32_t cell;
 2704              		.loc 1 865 3 view .LVU489
 866:App/Src/fault_command.c ****   uint32_t mv;
 2705              		.loc 1 866 3 view .LVU490
 867:App/Src/fault_command.c ****   uint32_t duration;
 2706              		.loc 1 867 3 view .LVU491
 868:App/Src/fault_command.c ****   uint32_t slew;
 2707              		.loc 1 868 3 view .LVU492
 869:App/Src/fault_command.c ****   HAL_StatusTypeDef status = HAL_ERROR;
 2708              		.loc 1 869 3 view .LVU493
 2709              	.LVL221:
 870:App/Src/fault_command.c **** 
 871:App/Src/fault_command.c ****   if (FaultCommand_JsonGetString(json, "cmd", cmd, sizeof(cmd)) == 0U)
 2710              		.loc 1 871 3 view .LVU494
 2711              		.loc 1 871 7 is_stmt 0 view .LVU495
 2712 000c 1023     		movs	r3, #16
 2713 000e 14AA     		add	r2, sp, #80
 2714              	.LVL222:
 2715              		.loc 1 871 7 view .LVU496
 2716 0010 A049     		ldr	r1, .L305
 2717              	.LVL223:
 2718              		.loc 1 871 7 view .LVU497
 2719 0012 FFF7FEFF 		bl	FaultCommand_JsonGetString
 2720              	.LVL224:
 2721              		.loc 1 871 6 discriminator 1 view .LVU498
 2722 0016 0028     		cmp	r0, #0
 2723 0018 2AD0     		beq	.L249
 872:App/Src/fault_command.c ****   {
 873:App/Src/fault_command.c ****     FaultCommand_Write(write, context, "{\"ok\":false,\"error\":\"missing_cmd\"}\r\n");
 874:App/Src/fault_command.c ****     return;
 875:App/Src/fault_command.c ****   }
 876:App/Src/fault_command.c **** 
 877:App/Src/fault_command.c ****   if (strcmp(cmd, "status") == 0)
 2724              		.loc 1 877 3 is_stmt 1 view .LVU499
 2725              		.loc 1 877 7 is_stmt 0 view .LVU500
 2726 001a 9F49     		ldr	r1, .L305+4
 2727 001c 14A8     		add	r0, sp, #80
 2728 001e FFF7FEFF 		bl	strcmp
 2729              	.LVL225:
ARM GAS  C:\Users\hh\AppData\Local\Temp\cc8MU7EM.s 			page 75


 2730              		.loc 1 877 6 discriminator 1 view .LVU501
 2731 0022 0028     		cmp	r0, #0
 2732 0024 2AD0     		beq	.L250
 878:App/Src/fault_command.c ****   {
 879:App/Src/fault_command.c ****     FaultCommand_WriteJsonStatus(write, context);
 880:App/Src/fault_command.c ****     return;
 881:App/Src/fault_command.c ****   }
 882:App/Src/fault_command.c **** 
 883:App/Src/fault_command.c ****   if (strcmp(cmd, "help") == 0)
 2733              		.loc 1 883 3 is_stmt 1 view .LVU502
 2734              		.loc 1 883 7 is_stmt 0 view .LVU503
 2735 0026 9D49     		ldr	r1, .L305+8
 2736 0028 14A8     		add	r0, sp, #80
 2737 002a FFF7FEFF 		bl	strcmp
 2738              	.LVL226:
 2739              		.loc 1 883 6 discriminator 1 view .LVU504
 2740 002e 50B3     		cbz	r0, .L251
 884:App/Src/fault_command.c ****   {
 885:App/Src/fault_command.c ****     FaultCommand_Write(write,
 886:App/Src/fault_command.c ****                        context,
 887:App/Src/fault_command.c ****                        "{\"ok\":true,\"commands\":[\"status\",\"normal\",\"set\",\"ov\",\"uv\",\"di
 888:App/Src/fault_command.c ****     return;
 889:App/Src/fault_command.c ****   }
 890:App/Src/fault_command.c **** 
 891:App/Src/fault_command.c ****   if (strcmp(cmd, "normal") == 0)
 2741              		.loc 1 891 3 is_stmt 1 view .LVU505
 2742              		.loc 1 891 7 is_stmt 0 view .LVU506
 2743 0030 9B49     		ldr	r1, .L305+12
 2744 0032 14A8     		add	r0, sp, #80
 2745 0034 FFF7FEFF 		bl	strcmp
 2746              	.LVL227:
 2747              		.loc 1 891 6 discriminator 1 view .LVU507
 2748 0038 58B3     		cbz	r0, .L252
 892:App/Src/fault_command.c ****   {
 893:App/Src/fault_command.c ****     mv = FaultCommand_JsonGetUintDefault(json, "mv", VOLTAGE_SIM_DEFAULT_NORMAL_MV);
 894:App/Src/fault_command.c ****     status = FaultCommand_RunNormal((uint16_t)mv);
 895:App/Src/fault_command.c ****   }
 896:App/Src/fault_command.c ****   else if (strcmp(cmd, "set") == 0)
 2749              		.loc 1 896 8 is_stmt 1 view .LVU508
 2750              		.loc 1 896 12 is_stmt 0 view .LVU509
 2751 003a 9A49     		ldr	r1, .L305+16
 2752 003c 14A8     		add	r0, sp, #80
 2753 003e FFF7FEFF 		bl	strcmp
 2754              	.LVL228:
 2755              		.loc 1 896 11 discriminator 1 view .LVU510
 2756 0042 0028     		cmp	r0, #0
 2757 0044 39D0     		beq	.L253
 897:App/Src/fault_command.c ****   {
 898:App/Src/fault_command.c ****     if ((FaultCommand_JsonGetUint(json, "cell", &cell) != 0U) &&
 899:App/Src/fault_command.c ****         (FaultCommand_JsonGetUint(json, "mv", &mv) != 0U))
 900:App/Src/fault_command.c ****     {
 901:App/Src/fault_command.c ****       status = FaultCommand_RunSet((uint8_t)cell, (uint16_t)mv);
 902:App/Src/fault_command.c ****     }
 903:App/Src/fault_command.c ****   }
 904:App/Src/fault_command.c ****   else if ((strcmp(cmd, "ov") == 0) || (strcmp(cmd, "over_voltage") == 0))
 2758              		.loc 1 904 8 is_stmt 1 view .LVU511
 2759              		.loc 1 904 13 is_stmt 0 view .LVU512
ARM GAS  C:\Users\hh\AppData\Local\Temp\cc8MU7EM.s 			page 76


 2760 0046 9849     		ldr	r1, .L305+20
 2761 0048 14A8     		add	r0, sp, #80
 2762 004a FFF7FEFF 		bl	strcmp
 2763              	.LVL229:
 2764              		.loc 1 904 11 discriminator 1 view .LVU513
 2765 004e 28B1     		cbz	r0, .L165
 2766              		.loc 1 904 41 discriminator 2 view .LVU514
 2767 0050 9649     		ldr	r1, .L305+24
 2768 0052 14A8     		add	r0, sp, #80
 2769 0054 FFF7FEFF 		bl	strcmp
 2770              	.LVL230:
 2771              		.loc 1 904 37 discriminator 3 view .LVU515
 2772 0058 0028     		cmp	r0, #0
 2773 005a 65D1     		bne	.L166
 2774              	.L165:
 905:App/Src/fault_command.c ****   {
 906:App/Src/fault_command.c ****     if (FaultCommand_JsonGetUint(json, "cell", &cell) != 0U)
 2775              		.loc 1 906 5 is_stmt 1 view .LVU516
 2776              		.loc 1 906 9 is_stmt 0 view .LVU517
 2777 005c 0FAA     		add	r2, sp, #60
 2778 005e 9449     		ldr	r1, .L305+28
 2779 0060 2046     		mov	r0, r4
 2780 0062 FFF7FEFF 		bl	FaultCommand_JsonGetUint
 2781              	.LVL231:
 2782              		.loc 1 906 8 discriminator 1 view .LVU518
 2783 0066 0028     		cmp	r0, #0
 2784 0068 41D1     		bne	.L254
 869:App/Src/fault_command.c **** 
 2785              		.loc 1 869 21 view .LVU519
 2786 006a 0123     		movs	r3, #1
 2787 006c 1C46     		mov	r4, r3
 2788              	.LVL232:
 869:App/Src/fault_command.c **** 
 2789              		.loc 1 869 21 view .LVU520
 2790 006e 1BE0     		b	.L163
 2791              	.LVL233:
 2792              	.L249:
 873:App/Src/fault_command.c ****     return;
 2793              		.loc 1 873 5 is_stmt 1 view .LVU521
 2794 0070 904A     		ldr	r2, .L305+32
 2795 0072 3946     		mov	r1, r7
 2796 0074 3046     		mov	r0, r6
 2797 0076 FFF7FEFF 		bl	FaultCommand_Write
 2798              	.LVL234:
 874:App/Src/fault_command.c ****   }
 2799              		.loc 1 874 5 view .LVU522
 2800 007a 1BE0     		b	.L157
 2801              	.L250:
 879:App/Src/fault_command.c ****     return;
 2802              		.loc 1 879 5 view .LVU523
 2803 007c 3946     		mov	r1, r7
 2804 007e 3046     		mov	r0, r6
 2805 0080 FFF7FEFF 		bl	FaultCommand_WriteJsonStatus
 2806              	.LVL235:
 880:App/Src/fault_command.c ****   }
 2807              		.loc 1 880 5 view .LVU524
 2808 0084 16E0     		b	.L157
ARM GAS  C:\Users\hh\AppData\Local\Temp\cc8MU7EM.s 			page 77


 2809              	.L251:
 885:App/Src/fault_command.c ****                        context,
 2810              		.loc 1 885 5 view .LVU525
 2811 0086 8C4A     		ldr	r2, .L305+36
 2812 0088 3946     		mov	r1, r7
 2813 008a 3046     		mov	r0, r6
 2814 008c FFF7FEFF 		bl	FaultCommand_Write
 2815              	.LVL236:
 888:App/Src/fault_command.c ****   }
 2816              		.loc 1 888 5 view .LVU526
 2817 0090 10E0     		b	.L157
 2818              	.L252:
 893:App/Src/fault_command.c ****     status = FaultCommand_RunNormal((uint16_t)mv);
 2819              		.loc 1 893 5 view .LVU527
 893:App/Src/fault_command.c ****     status = FaultCommand_RunNormal((uint16_t)mv);
 2820              		.loc 1 893 10 is_stmt 0 view .LVU528
 2821 0092 4FF44862 		mov	r2, #3200
 2822 0096 8949     		ldr	r1, .L305+40
 2823 0098 2046     		mov	r0, r4
 2824 009a FFF7FEFF 		bl	FaultCommand_JsonGetUintDefault
 2825              	.LVL237:
 893:App/Src/fault_command.c ****     status = FaultCommand_RunNormal((uint16_t)mv);
 2826              		.loc 1 893 8 discriminator 1 view .LVU529
 2827 009e 0E90     		str	r0, [sp, #56]
 894:App/Src/fault_command.c ****   }
 2828              		.loc 1 894 5 is_stmt 1 view .LVU530
 894:App/Src/fault_command.c ****   }
 2829              		.loc 1 894 14 is_stmt 0 view .LVU531
 2830 00a0 80B2     		uxth	r0, r0
 2831 00a2 FFF7FEFF 		bl	FaultCommand_RunNormal
 2832              	.LVL238:
 2833 00a6 0446     		mov	r4, r0
 2834              	.LVL239:
 2835              	.L163:
 907:App/Src/fault_command.c ****     {
 908:App/Src/fault_command.c ****       mv = FaultCommand_JsonGetUintDefault(json, "mv", VOLTAGE_SIM_DEFAULT_OV_MV);
 909:App/Src/fault_command.c ****       duration = FaultCommand_JsonGetUintDefault(json, "duration_ms", FAULT_COMMAND_DEFAULT_DURATIO
 910:App/Src/fault_command.c ****       slew = FaultCommand_JsonGetUintDefault(json, "slew_mv_per_ms", FAULT_COMMAND_DEFAULT_SLEW_MV_
 911:App/Src/fault_command.c ****       status = FaultCommand_RunOverVoltage((uint8_t)cell, (uint16_t)mv, duration, (uint16_t)slew);
 912:App/Src/fault_command.c ****     }
 913:App/Src/fault_command.c ****   }
 914:App/Src/fault_command.c ****   else if ((strcmp(cmd, "uv") == 0) || (strcmp(cmd, "under_voltage") == 0))
 915:App/Src/fault_command.c ****   {
 916:App/Src/fault_command.c ****     if (FaultCommand_JsonGetUint(json, "cell", &cell) != 0U)
 917:App/Src/fault_command.c ****     {
 918:App/Src/fault_command.c ****       mv = FaultCommand_JsonGetUintDefault(json, "mv", VOLTAGE_SIM_DEFAULT_UV_MV);
 919:App/Src/fault_command.c ****       duration = FaultCommand_JsonGetUintDefault(json, "duration_ms", FAULT_COMMAND_DEFAULT_DURATIO
 920:App/Src/fault_command.c ****       slew = FaultCommand_JsonGetUintDefault(json, "slew_mv_per_ms", FAULT_COMMAND_DEFAULT_SLEW_MV_
 921:App/Src/fault_command.c ****       status = FaultCommand_RunUnderVoltage((uint8_t)cell, (uint16_t)mv, duration, (uint16_t)slew);
 922:App/Src/fault_command.c ****     }
 923:App/Src/fault_command.c ****   }
 924:App/Src/fault_command.c ****   else if (strcmp(cmd, "diff") == 0)
 925:App/Src/fault_command.c ****   {
 926:App/Src/fault_command.c ****     uint32_t highCell;
 927:App/Src/fault_command.c ****     uint32_t highMv;
 928:App/Src/fault_command.c ****     uint32_t lowCell;
 929:App/Src/fault_command.c ****     uint32_t lowMv;
ARM GAS  C:\Users\hh\AppData\Local\Temp\cc8MU7EM.s 			page 78


 930:App/Src/fault_command.c **** 
 931:App/Src/fault_command.c ****     if ((FaultCommand_JsonGetUint(json, "high_cell", &highCell) != 0U) &&
 932:App/Src/fault_command.c ****         (FaultCommand_JsonGetUint(json, "high_mv", &highMv) != 0U) &&
 933:App/Src/fault_command.c ****         (FaultCommand_JsonGetUint(json, "low_cell", &lowCell) != 0U) &&
 934:App/Src/fault_command.c ****         (FaultCommand_JsonGetUint(json, "low_mv", &lowMv) != 0U))
 935:App/Src/fault_command.c ****     {
 936:App/Src/fault_command.c ****       duration = FaultCommand_JsonGetUintDefault(json, "duration_ms", FAULT_COMMAND_DEFAULT_DURATIO
 937:App/Src/fault_command.c ****       slew = FaultCommand_JsonGetUintDefault(json, "slew_mv_per_ms", FAULT_COMMAND_DEFAULT_SLEW_MV_
 938:App/Src/fault_command.c ****       status = FaultCommand_RunDiff((uint8_t)highCell,
 939:App/Src/fault_command.c ****                                     (uint16_t)highMv,
 940:App/Src/fault_command.c ****                                     (uint8_t)lowCell,
 941:App/Src/fault_command.c ****                                     (uint16_t)lowMv,
 942:App/Src/fault_command.c ****                                     duration,
 943:App/Src/fault_command.c ****                                     (uint16_t)slew);
 944:App/Src/fault_command.c ****     }
 945:App/Src/fault_command.c ****   }
 946:App/Src/fault_command.c ****   else if (strcmp(cmd, "wave") == 0)
 947:App/Src/fault_command.c ****   {
 948:App/Src/fault_command.c ****     if (FaultCommand_JsonGetString(json, "type", type, sizeof(type)) != 0U)
 949:App/Src/fault_command.c ****     {
 950:App/Src/fault_command.c ****       if (strcmp(type, "square") == 0)
 951:App/Src/fault_command.c ****       {
 952:App/Src/fault_command.c ****         uint32_t low;
 953:App/Src/fault_command.c ****         uint32_t high;
 954:App/Src/fault_command.c ****         uint32_t period;
 955:App/Src/fault_command.c **** 
 956:App/Src/fault_command.c ****         if ((FaultCommand_JsonGetUint(json, "cell", &cell) != 0U) &&
 957:App/Src/fault_command.c ****             (FaultCommand_JsonGetUint(json, "low_mv", &low) != 0U) &&
 958:App/Src/fault_command.c ****             (FaultCommand_JsonGetUint(json, "high_mv", &high) != 0U))
 959:App/Src/fault_command.c ****         {
 960:App/Src/fault_command.c ****           period = FaultCommand_JsonGetUintDefault(json, "period_ms", 1000U);
 961:App/Src/fault_command.c ****           status = WaveformGen_StartSquare((uint8_t)cell,
 962:App/Src/fault_command.c ****                                            (uint16_t)low,
 963:App/Src/fault_command.c ****                                            (uint16_t)high,
 964:App/Src/fault_command.c ****                                            period);
 965:App/Src/fault_command.c ****         }
 966:App/Src/fault_command.c ****       }
 967:App/Src/fault_command.c ****       else if (strcmp(type, "sine") == 0)
 968:App/Src/fault_command.c ****       {
 969:App/Src/fault_command.c ****         uint32_t offset;
 970:App/Src/fault_command.c ****         uint32_t amplitude;
 971:App/Src/fault_command.c ****         uint32_t period;
 972:App/Src/fault_command.c **** 
 973:App/Src/fault_command.c ****         if ((FaultCommand_JsonGetUint(json, "cell", &cell) != 0U) &&
 974:App/Src/fault_command.c ****             (FaultCommand_JsonGetUint(json, "offset_mv", &offset) != 0U) &&
 975:App/Src/fault_command.c ****             (FaultCommand_JsonGetUint(json, "amplitude_mv", &amplitude) != 0U))
 976:App/Src/fault_command.c ****         {
 977:App/Src/fault_command.c ****           period = FaultCommand_JsonGetUintDefault(json, "period_ms", 1000U);
 978:App/Src/fault_command.c ****           status = WaveformGen_StartSine((uint8_t)cell,
 979:App/Src/fault_command.c ****                                          (uint16_t)offset,
 980:App/Src/fault_command.c ****                                          (uint16_t)amplitude,
 981:App/Src/fault_command.c ****                                          period);
 982:App/Src/fault_command.c ****         }
 983:App/Src/fault_command.c ****       }
 984:App/Src/fault_command.c ****       else if (strcmp(type, "sine_all") == 0)
 985:App/Src/fault_command.c ****       {
 986:App/Src/fault_command.c ****         uint32_t offset;
ARM GAS  C:\Users\hh\AppData\Local\Temp\cc8MU7EM.s 			page 79


 987:App/Src/fault_command.c ****         uint32_t amplitude;
 988:App/Src/fault_command.c ****         uint32_t period;
 989:App/Src/fault_command.c **** 
 990:App/Src/fault_command.c ****         if ((FaultCommand_JsonGetUint(json, "offset_mv", &offset) != 0U) &&
 991:App/Src/fault_command.c ****             (FaultCommand_JsonGetUint(json, "amplitude_mv", &amplitude) != 0U))
 992:App/Src/fault_command.c ****         {
 993:App/Src/fault_command.c ****           period = FaultCommand_JsonGetUintDefault(json, "period_ms", 1000U);
 994:App/Src/fault_command.c ****           status = WaveformGen_StartSineAll((uint16_t)offset,
 995:App/Src/fault_command.c ****                                             (uint16_t)amplitude,
 996:App/Src/fault_command.c ****                                             period);
 997:App/Src/fault_command.c ****         }
 998:App/Src/fault_command.c ****       }
 999:App/Src/fault_command.c ****       else if (strcmp(type, "stop") == 0)
1000:App/Src/fault_command.c ****       {
1001:App/Src/fault_command.c ****         WaveformGen_Stop();
1002:App/Src/fault_command.c ****         status = HAL_OK;
1003:App/Src/fault_command.c ****       }
1004:App/Src/fault_command.c ****     }
1005:App/Src/fault_command.c ****   }
1006:App/Src/fault_command.c ****   else if (strcmp(cmd, "wave_stop") == 0)
1007:App/Src/fault_command.c ****   {
1008:App/Src/fault_command.c ****     WaveformGen_Stop();
1009:App/Src/fault_command.c ****     status = HAL_OK;
1010:App/Src/fault_command.c ****   }
1011:App/Src/fault_command.c ****   else if (strcmp(cmd, "cal") == 0)
1012:App/Src/fault_command.c ****   {
1013:App/Src/fault_command.c ****     char action[16];
1014:App/Src/fault_command.c **** 
1015:App/Src/fault_command.c ****     if (FaultCommand_JsonGetString(json, "action", action, sizeof(action)) != 0U)
1016:App/Src/fault_command.c ****     {
1017:App/Src/fault_command.c ****       if (strcmp(action, "status") == 0)
1018:App/Src/fault_command.c ****       {
1019:App/Src/fault_command.c ****         FaultCommand_Write(write, context, "{\"ok\":true,\"calibration\":[");
1020:App/Src/fault_command.c ****         for (uint8_t calCell = 1U; calCell <= VOLTAGE_SIM_CELL_COUNT; calCell++)
1021:App/Src/fault_command.c ****         {
1022:App/Src/fault_command.c ****           FaultCommand_WriteFormat(write,
1023:App/Src/fault_command.c ****                                    context,
1024:App/Src/fault_command.c ****                                    "%s{\"cell\":%u,\"offset_mv\":%d}",
1025:App/Src/fault_command.c ****                                    (calCell == 1U) ? "" : ",",
1026:App/Src/fault_command.c ****                                    calCell,
1027:App/Src/fault_command.c ****                                    (int)VoltageSim_GetCellCalibrationOffsetMv(calCell));
1028:App/Src/fault_command.c ****         }
1029:App/Src/fault_command.c ****         FaultCommand_Write(write, context, "]}\r\n");
1030:App/Src/fault_command.c ****         return;
1031:App/Src/fault_command.c ****       }
1032:App/Src/fault_command.c ****       else if (strcmp(action, "set") == 0)
1033:App/Src/fault_command.c ****       {
1034:App/Src/fault_command.c ****         int32_t signedOffset;
1035:App/Src/fault_command.c **** 
1036:App/Src/fault_command.c ****         if ((FaultCommand_JsonGetUint(json, "cell", &cell) != 0U) &&
1037:App/Src/fault_command.c ****             (FaultCommand_JsonGetInt(json, "offset_mv", &signedOffset) != 0U))
1038:App/Src/fault_command.c ****         {
1039:App/Src/fault_command.c ****           status = VoltageSim_SetCellCalibrationOffsetMv((uint8_t)cell,
1040:App/Src/fault_command.c ****                                                          (int16_t)signedOffset);
1041:App/Src/fault_command.c ****         }
1042:App/Src/fault_command.c ****       }
1043:App/Src/fault_command.c ****       else if (strcmp(action, "trim") == 0)
ARM GAS  C:\Users\hh\AppData\Local\Temp\cc8MU7EM.s 			page 80


1044:App/Src/fault_command.c ****       {
1045:App/Src/fault_command.c ****         uint32_t targetMv;
1046:App/Src/fault_command.c ****         uint32_t measuredMv;
1047:App/Src/fault_command.c **** 
1048:App/Src/fault_command.c ****         if ((FaultCommand_JsonGetUint(json, "cell", &cell) != 0U) &&
1049:App/Src/fault_command.c ****             (FaultCommand_JsonGetUint(json, "target_mv", &targetMv) != 0U) &&
1050:App/Src/fault_command.c ****             (FaultCommand_JsonGetUint(json, "measured_mv", &measuredMv) != 0U))
1051:App/Src/fault_command.c ****         {
1052:App/Src/fault_command.c ****           status = FaultCommand_RunCalibrationTrim((uint8_t)cell,
1053:App/Src/fault_command.c ****                                                   (uint16_t)targetMv,
1054:App/Src/fault_command.c ****                                                   (uint16_t)measuredMv);
1055:App/Src/fault_command.c ****         }
1056:App/Src/fault_command.c ****       }
1057:App/Src/fault_command.c ****       else if (strcmp(action, "clear") == 0)
1058:App/Src/fault_command.c ****       {
1059:App/Src/fault_command.c ****         if (FaultCommand_JsonGetUint(json, "cell", &cell) != 0U)
1060:App/Src/fault_command.c ****         {
1061:App/Src/fault_command.c ****           status = VoltageSim_ClearCellCalibrationOffset((uint8_t)cell);
1062:App/Src/fault_command.c ****         }
1063:App/Src/fault_command.c ****         else
1064:App/Src/fault_command.c ****         {
1065:App/Src/fault_command.c ****           VoltageSim_ClearAllCalibrationOffsets();
1066:App/Src/fault_command.c ****           status = HAL_OK;
1067:App/Src/fault_command.c ****         }
1068:App/Src/fault_command.c ****       }
1069:App/Src/fault_command.c ****     }
1070:App/Src/fault_command.c ****   }
1071:App/Src/fault_command.c ****   else if (strcmp(cmd, "test") == 0)
1072:App/Src/fault_command.c ****   {
1073:App/Src/fault_command.c ****     if (FaultCommand_JsonGetString(json, "type", type, sizeof(type)) != 0U)
1074:App/Src/fault_command.c ****     {
1075:App/Src/fault_command.c ****       if (strcmp(type, "static") == 0)
1076:App/Src/fault_command.c ****       {
1077:App/Src/fault_command.c ****         if (FaultCommand_JsonGetUint(json, "mv", &mv) != 0U)
1078:App/Src/fault_command.c ****         {
1079:App/Src/fault_command.c ****           status = FaultCommand_RunNormal((uint16_t)mv);
1080:App/Src/fault_command.c ****         }
1081:App/Src/fault_command.c ****       }
1082:App/Src/fault_command.c ****       else if (strcmp(type, "slew") == 0)
1083:App/Src/fault_command.c ****       {
1084:App/Src/fault_command.c ****         uint32_t low;
1085:App/Src/fault_command.c ****         uint32_t high;
1086:App/Src/fault_command.c ****         uint32_t period;
1087:App/Src/fault_command.c **** 
1088:App/Src/fault_command.c ****         if ((FaultCommand_JsonGetUint(json, "cell", &cell) != 0U) &&
1089:App/Src/fault_command.c ****             (FaultCommand_JsonGetUint(json, "low_mv", &low) != 0U) &&
1090:App/Src/fault_command.c ****             (FaultCommand_JsonGetUint(json, "high_mv", &high) != 0U))
1091:App/Src/fault_command.c ****         {
1092:App/Src/fault_command.c ****           period = FaultCommand_JsonGetUintDefault(json, "period_ms", 1000U);
1093:App/Src/fault_command.c ****           status = WaveformGen_StartSquare((uint8_t)cell,
1094:App/Src/fault_command.c ****                                            (uint16_t)low,
1095:App/Src/fault_command.c ****                                            (uint16_t)high,
1096:App/Src/fault_command.c ****                                            period);
1097:App/Src/fault_command.c ****         }
1098:App/Src/fault_command.c ****       }
1099:App/Src/fault_command.c ****     }
1100:App/Src/fault_command.c ****   }
ARM GAS  C:\Users\hh\AppData\Local\Temp\cc8MU7EM.s 			page 81


1101:App/Src/fault_command.c ****   else if (strcmp(cmd, "can") == 0)
1102:App/Src/fault_command.c ****   {
1103:App/Src/fault_command.c ****     char action[16];
1104:App/Src/fault_command.c **** 
1105:App/Src/fault_command.c ****     if (FaultCommand_JsonGetString(json, "action", action, sizeof(action)) != 0U)
1106:App/Src/fault_command.c ****     {
1107:App/Src/fault_command.c ****       if (strcmp(action, "status") == 0)
1108:App/Src/fault_command.c ****       {
1109:App/Src/fault_command.c ****         FaultCommand_WriteJsonCanStatus(write, context);
1110:App/Src/fault_command.c ****         return;
1111:App/Src/fault_command.c ****       }
1112:App/Src/fault_command.c ****       else if (strcmp(action, "send") == 0)
1113:App/Src/fault_command.c ****       {
1114:App/Src/fault_command.c ****         uint32_t id;
1115:App/Src/fault_command.c ****         uint32_t length;
1116:App/Src/fault_command.c ****         uint32_t extended;
1117:App/Src/fault_command.c ****         uint8_t data[BSP_CAN_MAX_DATA_LEN] = {0};
1118:App/Src/fault_command.c **** 
1119:App/Src/fault_command.c ****         if ((FaultCommand_JsonGetUint(json, "id", &id) != 0U) &&
1120:App/Src/fault_command.c ****             (FaultCommand_JsonGetUint(json, "len", &length) != 0U) &&
1121:App/Src/fault_command.c ****             (length <= BSP_CAN_MAX_DATA_LEN))
1122:App/Src/fault_command.c ****         {
1123:App/Src/fault_command.c ****           extended = FaultCommand_JsonGetUintDefault(json, "extended", 0U);
1124:App/Src/fault_command.c ****           status = HAL_OK;
1125:App/Src/fault_command.c **** 
1126:App/Src/fault_command.c ****           for (uint8_t index = 0U; index < length; index++)
1127:App/Src/fault_command.c ****           {
1128:App/Src/fault_command.c ****             char key[8];
1129:App/Src/fault_command.c ****             uint32_t value;
1130:App/Src/fault_command.c **** 
1131:App/Src/fault_command.c ****             (void)snprintf(key, sizeof(key), "d%u", index);
1132:App/Src/fault_command.c ****             if ((FaultCommand_JsonGetUint(json, key, &value) == 0U) || (value > 0xFFU))
1133:App/Src/fault_command.c ****             {
1134:App/Src/fault_command.c ****               status = HAL_ERROR;
1135:App/Src/fault_command.c ****               break;
1136:App/Src/fault_command.c ****             }
1137:App/Src/fault_command.c ****             data[index] = (uint8_t)value;
1138:App/Src/fault_command.c ****           }
1139:App/Src/fault_command.c **** 
1140:App/Src/fault_command.c ****           if (status == HAL_OK)
1141:App/Src/fault_command.c ****           {
1142:App/Src/fault_command.c ****             status = BspCan_SendClassic(id, (extended != 0U) ? 1U : 0U, data, (uint8_t)length);
1143:App/Src/fault_command.c ****           }
1144:App/Src/fault_command.c ****         }
1145:App/Src/fault_command.c ****       }
1146:App/Src/fault_command.c ****     }
1147:App/Src/fault_command.c ****   }
1148:App/Src/fault_command.c ****   else if (strcmp(cmd, "log") == 0)
1149:App/Src/fault_command.c ****   {
1150:App/Src/fault_command.c ****     char action[16];
1151:App/Src/fault_command.c **** 
1152:App/Src/fault_command.c ****     if (FaultCommand_JsonGetString(json, "action", action, sizeof(action)) != 0U)
1153:App/Src/fault_command.c ****     {
1154:App/Src/fault_command.c ****       if (strcmp(action, "status") == 0)
1155:App/Src/fault_command.c ****       {
1156:App/Src/fault_command.c ****         FaultCommand_WriteJsonBmsResponseLog(write, context);
1157:App/Src/fault_command.c ****         return;
ARM GAS  C:\Users\hh\AppData\Local\Temp\cc8MU7EM.s 			page 82


1158:App/Src/fault_command.c ****       }
1159:App/Src/fault_command.c ****       else if (strcmp(action, "clear") == 0)
1160:App/Src/fault_command.c ****       {
1161:App/Src/fault_command.c ****         BmsResponseLog_Clear();
1162:App/Src/fault_command.c ****         status = HAL_OK;
1163:App/Src/fault_command.c ****       }
1164:App/Src/fault_command.c ****     }
1165:App/Src/fault_command.c ****   }
1166:App/Src/fault_command.c ****   else if (strcmp(cmd, "clear") == 0)
1167:App/Src/fault_command.c ****   {
1168:App/Src/fault_command.c ****     WaveformGen_Stop();
1169:App/Src/fault_command.c ****     if (FaultCommand_JsonGetUint(json, "cell", &cell) != 0U)
1170:App/Src/fault_command.c ****     {
1171:App/Src/fault_command.c ****       status = VoltageSim_ClearCellFault((uint8_t)cell);
1172:App/Src/fault_command.c ****     }
1173:App/Src/fault_command.c ****     else
1174:App/Src/fault_command.c ****     {
1175:App/Src/fault_command.c ****       status = VoltageSim_ClearAllFaults();
1176:App/Src/fault_command.c ****     }
1177:App/Src/fault_command.c ****   }
1178:App/Src/fault_command.c ****   else
1179:App/Src/fault_command.c ****   {
1180:App/Src/fault_command.c ****     FaultCommand_Write(write, context, "{\"ok\":false,\"error\":\"unknown_cmd\"}\r\n");
1181:App/Src/fault_command.c ****     return;
1182:App/Src/fault_command.c ****   }
1183:App/Src/fault_command.c **** 
1184:App/Src/fault_command.c ****   FaultCommand_WriteJsonResult(write, context, cmd, status);
 2836              		.loc 1 1184 3 is_stmt 1 view .LVU532
 2837 00a8 2346     		mov	r3, r4
 2838 00aa 14AA     		add	r2, sp, #80
 2839 00ac 3946     		mov	r1, r7
 2840 00ae 3046     		mov	r0, r6
 2841 00b0 FFF7FEFF 		bl	FaultCommand_WriteJsonResult
 2842              	.LVL240:
 2843              	.L157:
1185:App/Src/fault_command.c **** }
 2844              		.loc 1 1185 1 is_stmt 0 view .LVU533
 2845 00b4 18B0     		add	sp, sp, #96
 2846              	.LCFI68:
 2847              		.cfi_remember_state
 2848              		.cfi_def_cfa_offset 24
 2849              		@ sp needed
 2850 00b6 BDE8F081 		pop	{r4, r5, r6, r7, r8, pc}
 2851              	.LVL241:
 2852              	.L253:
 2853              	.LCFI69:
 2854              		.cfi_restore_state
 898:App/Src/fault_command.c ****         (FaultCommand_JsonGetUint(json, "mv", &mv) != 0U))
 2855              		.loc 1 898 5 is_stmt 1 view .LVU534
 898:App/Src/fault_command.c ****         (FaultCommand_JsonGetUint(json, "mv", &mv) != 0U))
 2856              		.loc 1 898 10 is_stmt 0 view .LVU535
 2857 00ba 0FAA     		add	r2, sp, #60
 2858 00bc 7C49     		ldr	r1, .L305+28
 2859 00be 2046     		mov	r0, r4
 2860 00c0 FFF7FEFF 		bl	FaultCommand_JsonGetUint
 2861              	.LVL242:
 898:App/Src/fault_command.c ****         (FaultCommand_JsonGetUint(json, "mv", &mv) != 0U))
ARM GAS  C:\Users\hh\AppData\Local\Temp\cc8MU7EM.s 			page 83


 2862              		.loc 1 898 8 discriminator 1 view .LVU536
 2863 00c4 10B9     		cbnz	r0, .L255
 869:App/Src/fault_command.c **** 
 2864              		.loc 1 869 21 view .LVU537
 2865 00c6 0123     		movs	r3, #1
 2866 00c8 1C46     		mov	r4, r3
 2867              	.LVL243:
 869:App/Src/fault_command.c **** 
 2868              		.loc 1 869 21 view .LVU538
 2869 00ca EDE7     		b	.L163
 2870              	.LVL244:
 2871              	.L255:
 899:App/Src/fault_command.c ****     {
 2872              		.loc 1 899 10 view .LVU539
 2873 00cc 0EAA     		add	r2, sp, #56
 2874 00ce 7B49     		ldr	r1, .L305+40
 2875 00d0 2046     		mov	r0, r4
 2876 00d2 FFF7FEFF 		bl	FaultCommand_JsonGetUint
 2877              	.LVL245:
 898:App/Src/fault_command.c ****         (FaultCommand_JsonGetUint(json, "mv", &mv) != 0U))
 2878              		.loc 1 898 63 discriminator 2 view .LVU540
 2879 00d6 10B9     		cbnz	r0, .L256
 869:App/Src/fault_command.c **** 
 2880              		.loc 1 869 21 view .LVU541
 2881 00d8 0123     		movs	r3, #1
 2882 00da 1C46     		mov	r4, r3
 2883              	.LVL246:
 869:App/Src/fault_command.c **** 
 2884              		.loc 1 869 21 view .LVU542
 2885 00dc E4E7     		b	.L163
 2886              	.LVL247:
 2887              	.L256:
 901:App/Src/fault_command.c ****     }
 2888              		.loc 1 901 7 is_stmt 1 view .LVU543
 901:App/Src/fault_command.c ****     }
 2889              		.loc 1 901 16 is_stmt 0 view .LVU544
 2890 00de BDF83810 		ldrh	r1, [sp, #56]
 2891 00e2 9DF83C00 		ldrb	r0, [sp, #60]	@ zero_extendqisi2
 2892 00e6 FFF7FEFF 		bl	FaultCommand_RunSet
 2893              	.LVL248:
 2894 00ea 0446     		mov	r4, r0
 2895              	.LVL249:
 901:App/Src/fault_command.c ****     }
 2896              		.loc 1 901 16 view .LVU545
 2897 00ec DCE7     		b	.L163
 2898              	.LVL250:
 2899              	.L254:
 908:App/Src/fault_command.c ****       duration = FaultCommand_JsonGetUintDefault(json, "duration_ms", FAULT_COMMAND_DEFAULT_DURATIO
 2900              		.loc 1 908 7 is_stmt 1 view .LVU546
 908:App/Src/fault_command.c ****       duration = FaultCommand_JsonGetUintDefault(json, "duration_ms", FAULT_COMMAND_DEFAULT_DURATIO
 2901              		.loc 1 908 12 is_stmt 0 view .LVU547
 2902 00ee 41F29412 		movw	r2, #4500
 2903 00f2 7249     		ldr	r1, .L305+40
 2904 00f4 2046     		mov	r0, r4
 2905 00f6 FFF7FEFF 		bl	FaultCommand_JsonGetUintDefault
 2906              	.LVL251:
 908:App/Src/fault_command.c ****       duration = FaultCommand_JsonGetUintDefault(json, "duration_ms", FAULT_COMMAND_DEFAULT_DURATIO
ARM GAS  C:\Users\hh\AppData\Local\Temp\cc8MU7EM.s 			page 84


 2907              		.loc 1 908 10 discriminator 1 view .LVU548
 2908 00fa 0E90     		str	r0, [sp, #56]
 909:App/Src/fault_command.c ****       slew = FaultCommand_JsonGetUintDefault(json, "slew_mv_per_ms", FAULT_COMMAND_DEFAULT_SLEW_MV_
 2909              		.loc 1 909 7 is_stmt 1 view .LVU549
 909:App/Src/fault_command.c ****       slew = FaultCommand_JsonGetUintDefault(json, "slew_mv_per_ms", FAULT_COMMAND_DEFAULT_SLEW_MV_
 2910              		.loc 1 909 18 is_stmt 0 view .LVU550
 2911 00fc 6422     		movs	r2, #100
 2912 00fe 7049     		ldr	r1, .L305+44
 2913 0100 2046     		mov	r0, r4
 2914 0102 FFF7FEFF 		bl	FaultCommand_JsonGetUintDefault
 2915              	.LVL252:
 2916 0106 0546     		mov	r5, r0
 2917              	.LVL253:
 910:App/Src/fault_command.c ****       status = FaultCommand_RunOverVoltage((uint8_t)cell, (uint16_t)mv, duration, (uint16_t)slew);
 2918              		.loc 1 910 7 is_stmt 1 view .LVU551
 910:App/Src/fault_command.c ****       status = FaultCommand_RunOverVoltage((uint8_t)cell, (uint16_t)mv, duration, (uint16_t)slew);
 2919              		.loc 1 910 14 is_stmt 0 view .LVU552
 2920 0108 40F6B832 		movw	r2, #3000
 2921 010c 6D49     		ldr	r1, .L305+48
 2922 010e 2046     		mov	r0, r4
 2923              	.LVL254:
 910:App/Src/fault_command.c ****       status = FaultCommand_RunOverVoltage((uint8_t)cell, (uint16_t)mv, duration, (uint16_t)slew);
 2924              		.loc 1 910 14 view .LVU553
 2925 0110 FFF7FEFF 		bl	FaultCommand_JsonGetUintDefault
 2926              	.LVL255:
 911:App/Src/fault_command.c ****     }
 2927              		.loc 1 911 7 is_stmt 1 view .LVU554
 911:App/Src/fault_command.c ****     }
 2928              		.loc 1 911 16 is_stmt 0 view .LVU555
 2929 0114 83B2     		uxth	r3, r0
 2930 0116 2A46     		mov	r2, r5
 2931 0118 BDF83810 		ldrh	r1, [sp, #56]
 2932 011c 9DF83C00 		ldrb	r0, [sp, #60]	@ zero_extendqisi2
 2933              	.LVL256:
 911:App/Src/fault_command.c ****     }
 2934              		.loc 1 911 16 view .LVU556
 2935 0120 FFF7FEFF 		bl	FaultCommand_RunOverVoltage
 2936              	.LVL257:
 2937 0124 0446     		mov	r4, r0
 2938              	.LVL258:
 911:App/Src/fault_command.c ****     }
 2939              		.loc 1 911 16 view .LVU557
 2940 0126 BFE7     		b	.L163
 2941              	.LVL259:
 2942              	.L166:
 914:App/Src/fault_command.c ****   {
 2943              		.loc 1 914 8 is_stmt 1 view .LVU558
 914:App/Src/fault_command.c ****   {
 2944              		.loc 1 914 13 is_stmt 0 view .LVU559
 2945 0128 6749     		ldr	r1, .L305+52
 2946 012a 14A8     		add	r0, sp, #80
 2947 012c FFF7FEFF 		bl	strcmp
 2948              	.LVL260:
 914:App/Src/fault_command.c ****   {
 2949              		.loc 1 914 11 discriminator 1 view .LVU560
 2950 0130 20B1     		cbz	r0, .L167
 914:App/Src/fault_command.c ****   {
ARM GAS  C:\Users\hh\AppData\Local\Temp\cc8MU7EM.s 			page 85


 2951              		.loc 1 914 41 discriminator 2 view .LVU561
 2952 0132 6649     		ldr	r1, .L305+56
 2953 0134 14A8     		add	r0, sp, #80
 2954 0136 FFF7FEFF 		bl	strcmp
 2955              	.LVL261:
 914:App/Src/fault_command.c ****   {
 2956              		.loc 1 914 37 discriminator 3 view .LVU562
 2957 013a 28BB     		cbnz	r0, .L168
 2958              	.L167:
 916:App/Src/fault_command.c ****     {
 2959              		.loc 1 916 5 is_stmt 1 view .LVU563
 916:App/Src/fault_command.c ****     {
 2960              		.loc 1 916 9 is_stmt 0 view .LVU564
 2961 013c 0FAA     		add	r2, sp, #60
 2962 013e 5C49     		ldr	r1, .L305+28
 2963 0140 2046     		mov	r0, r4
 2964 0142 FFF7FEFF 		bl	FaultCommand_JsonGetUint
 2965              	.LVL262:
 916:App/Src/fault_command.c ****     {
 2966              		.loc 1 916 8 discriminator 1 view .LVU565
 2967 0146 10B9     		cbnz	r0, .L257
 869:App/Src/fault_command.c **** 
 2968              		.loc 1 869 21 view .LVU566
 2969 0148 0123     		movs	r3, #1
 2970 014a 1C46     		mov	r4, r3
 2971              	.LVL263:
 869:App/Src/fault_command.c **** 
 2972              		.loc 1 869 21 view .LVU567
 2973 014c ACE7     		b	.L163
 2974              	.LVL264:
 2975              	.L257:
 918:App/Src/fault_command.c ****       duration = FaultCommand_JsonGetUintDefault(json, "duration_ms", FAULT_COMMAND_DEFAULT_DURATIO
 2976              		.loc 1 918 7 is_stmt 1 view .LVU568
 918:App/Src/fault_command.c ****       duration = FaultCommand_JsonGetUintDefault(json, "duration_ms", FAULT_COMMAND_DEFAULT_DURATIO
 2977              		.loc 1 918 12 is_stmt 0 view .LVU569
 2978 014e 4FF47A72 		mov	r2, #1000
 2979 0152 5A49     		ldr	r1, .L305+40
 2980 0154 2046     		mov	r0, r4
 2981 0156 FFF7FEFF 		bl	FaultCommand_JsonGetUintDefault
 2982              	.LVL265:
 918:App/Src/fault_command.c ****       duration = FaultCommand_JsonGetUintDefault(json, "duration_ms", FAULT_COMMAND_DEFAULT_DURATIO
 2983              		.loc 1 918 10 discriminator 1 view .LVU570
 2984 015a 0E90     		str	r0, [sp, #56]
 919:App/Src/fault_command.c ****       slew = FaultCommand_JsonGetUintDefault(json, "slew_mv_per_ms", FAULT_COMMAND_DEFAULT_SLEW_MV_
 2985              		.loc 1 919 7 is_stmt 1 view .LVU571
 919:App/Src/fault_command.c ****       slew = FaultCommand_JsonGetUintDefault(json, "slew_mv_per_ms", FAULT_COMMAND_DEFAULT_SLEW_MV_
 2986              		.loc 1 919 18 is_stmt 0 view .LVU572
 2987 015c 6422     		movs	r2, #100
 2988 015e 5849     		ldr	r1, .L305+44
 2989 0160 2046     		mov	r0, r4
 2990 0162 FFF7FEFF 		bl	FaultCommand_JsonGetUintDefault
 2991              	.LVL266:
 2992 0166 0546     		mov	r5, r0
 2993              	.LVL267:
 920:App/Src/fault_command.c ****       status = FaultCommand_RunUnderVoltage((uint8_t)cell, (uint16_t)mv, duration, (uint16_t)slew);
 2994              		.loc 1 920 7 is_stmt 1 view .LVU573
 920:App/Src/fault_command.c ****       status = FaultCommand_RunUnderVoltage((uint8_t)cell, (uint16_t)mv, duration, (uint16_t)slew);
ARM GAS  C:\Users\hh\AppData\Local\Temp\cc8MU7EM.s 			page 86


 2995              		.loc 1 920 14 is_stmt 0 view .LVU574
 2996 0168 40F6B832 		movw	r2, #3000
 2997 016c 5549     		ldr	r1, .L305+48
 2998 016e 2046     		mov	r0, r4
 2999              	.LVL268:
 920:App/Src/fault_command.c ****       status = FaultCommand_RunUnderVoltage((uint8_t)cell, (uint16_t)mv, duration, (uint16_t)slew);
 3000              		.loc 1 920 14 view .LVU575
 3001 0170 FFF7FEFF 		bl	FaultCommand_JsonGetUintDefault
 3002              	.LVL269:
 921:App/Src/fault_command.c ****     }
 3003              		.loc 1 921 7 is_stmt 1 view .LVU576
 921:App/Src/fault_command.c ****     }
 3004              		.loc 1 921 16 is_stmt 0 view .LVU577
 3005 0174 83B2     		uxth	r3, r0
 3006 0176 2A46     		mov	r2, r5
 3007 0178 BDF83810 		ldrh	r1, [sp, #56]
 3008 017c 9DF83C00 		ldrb	r0, [sp, #60]	@ zero_extendqisi2
 3009              	.LVL270:
 921:App/Src/fault_command.c ****     }
 3010              		.loc 1 921 16 view .LVU578
 3011 0180 FFF7FEFF 		bl	FaultCommand_RunUnderVoltage
 3012              	.LVL271:
 3013 0184 0446     		mov	r4, r0
 3014              	.LVL272:
 921:App/Src/fault_command.c ****     }
 3015              		.loc 1 921 16 view .LVU579
 3016 0186 8FE7     		b	.L163
 3017              	.LVL273:
 3018              	.L168:
 924:App/Src/fault_command.c ****   {
 3019              		.loc 1 924 8 is_stmt 1 view .LVU580
 924:App/Src/fault_command.c ****   {
 3020              		.loc 1 924 12 is_stmt 0 view .LVU581
 3021 0188 5149     		ldr	r1, .L305+60
 3022 018a 14A8     		add	r0, sp, #80
 3023 018c FFF7FEFF 		bl	strcmp
 3024              	.LVL274:
 924:App/Src/fault_command.c ****   {
 3025              		.loc 1 924 11 discriminator 1 view .LVU582
 3026 0190 0028     		cmp	r0, #0
 3027 0192 40D0     		beq	.L258
 946:App/Src/fault_command.c ****   {
 3028              		.loc 1 946 8 is_stmt 1 view .LVU583
 946:App/Src/fault_command.c ****   {
 3029              		.loc 1 946 12 is_stmt 0 view .LVU584
 3030 0194 4F49     		ldr	r1, .L305+64
 3031 0196 14A8     		add	r0, sp, #80
 3032 0198 FFF7FEFF 		bl	strcmp
 3033              	.LVL275:
 946:App/Src/fault_command.c ****   {
 3034              		.loc 1 946 11 discriminator 1 view .LVU585
 3035 019c 0028     		cmp	r0, #0
 3036 019e 00F0AF80 		beq	.L259
1006:App/Src/fault_command.c ****   {
 3037              		.loc 1 1006 8 is_stmt 1 view .LVU586
1006:App/Src/fault_command.c ****   {
 3038              		.loc 1 1006 12 is_stmt 0 view .LVU587
ARM GAS  C:\Users\hh\AppData\Local\Temp\cc8MU7EM.s 			page 87


 3039 01a2 4D49     		ldr	r1, .L305+68
 3040 01a4 14A8     		add	r0, sp, #80
 3041 01a6 FFF7FEFF 		bl	strcmp
 3042              	.LVL276:
1006:App/Src/fault_command.c ****   {
 3043              		.loc 1 1006 11 discriminator 1 view .LVU588
 3044 01aa 0028     		cmp	r0, #0
 3045 01ac 00F04981 		beq	.L260
1011:App/Src/fault_command.c ****   {
 3046              		.loc 1 1011 8 is_stmt 1 view .LVU589
1011:App/Src/fault_command.c ****   {
 3047              		.loc 1 1011 12 is_stmt 0 view .LVU590
 3048 01b0 4A49     		ldr	r1, .L305+72
 3049 01b2 14A8     		add	r0, sp, #80
 3050 01b4 FFF7FEFF 		bl	strcmp
 3051              	.LVL277:
1011:App/Src/fault_command.c ****   {
 3052              		.loc 1 1011 11 discriminator 1 view .LVU591
 3053 01b8 0028     		cmp	r0, #0
 3054 01ba 00F04781 		beq	.L261
1071:App/Src/fault_command.c ****   {
 3055              		.loc 1 1071 8 is_stmt 1 view .LVU592
1071:App/Src/fault_command.c ****   {
 3056              		.loc 1 1071 12 is_stmt 0 view .LVU593
 3057 01be 4849     		ldr	r1, .L305+76
 3058 01c0 14A8     		add	r0, sp, #80
 3059 01c2 FFF7FEFF 		bl	strcmp
 3060              	.LVL278:
1071:App/Src/fault_command.c ****   {
 3061              		.loc 1 1071 11 discriminator 1 view .LVU594
 3062 01c6 0028     		cmp	r0, #0
 3063 01c8 00F00A82 		beq	.L262
1101:App/Src/fault_command.c ****   {
 3064              		.loc 1 1101 8 is_stmt 1 view .LVU595
1101:App/Src/fault_command.c ****   {
 3065              		.loc 1 1101 12 is_stmt 0 view .LVU596
 3066 01cc 4549     		ldr	r1, .L305+80
 3067 01ce 14A8     		add	r0, sp, #80
 3068 01d0 FFF7FEFF 		bl	strcmp
 3069              	.LVL279:
1101:App/Src/fault_command.c ****   {
 3070              		.loc 1 1101 11 discriminator 1 view .LVU597
 3071 01d4 0028     		cmp	r0, #0
 3072 01d6 00F05482 		beq	.L263
1148:App/Src/fault_command.c ****   {
 3073              		.loc 1 1148 8 is_stmt 1 view .LVU598
1148:App/Src/fault_command.c ****   {
 3074              		.loc 1 1148 12 is_stmt 0 view .LVU599
 3075 01da 4349     		ldr	r1, .L305+84
 3076 01dc 14A8     		add	r0, sp, #80
 3077 01de FFF7FEFF 		bl	strcmp
 3078              	.LVL280:
1148:App/Src/fault_command.c ****   {
 3079              		.loc 1 1148 11 discriminator 1 view .LVU600
 3080 01e2 0028     		cmp	r0, #0
 3081 01e4 00F0B782 		beq	.L264
1166:App/Src/fault_command.c ****   {
ARM GAS  C:\Users\hh\AppData\Local\Temp\cc8MU7EM.s 			page 88


 3082              		.loc 1 1166 8 is_stmt 1 view .LVU601
1166:App/Src/fault_command.c ****   {
 3083              		.loc 1 1166 12 is_stmt 0 view .LVU602
 3084 01e8 4049     		ldr	r1, .L305+88
 3085 01ea 14A8     		add	r0, sp, #80
 3086 01ec FFF7FEFF 		bl	strcmp
 3087              	.LVL281:
1166:App/Src/fault_command.c ****   {
 3088              		.loc 1 1166 11 discriminator 1 view .LVU603
 3089 01f0 0028     		cmp	r0, #0
 3090 01f2 40F0D582 		bne	.L205
1168:App/Src/fault_command.c ****     if (FaultCommand_JsonGetUint(json, "cell", &cell) != 0U)
 3091              		.loc 1 1168 5 is_stmt 1 view .LVU604
 3092 01f6 FFF7FEFF 		bl	WaveformGen_Stop
 3093              	.LVL282:
1169:App/Src/fault_command.c ****     {
 3094              		.loc 1 1169 5 view .LVU605
1169:App/Src/fault_command.c ****     {
 3095              		.loc 1 1169 9 is_stmt 0 view .LVU606
 3096 01fa 0FAA     		add	r2, sp, #60
 3097 01fc 2C49     		ldr	r1, .L305+28
 3098 01fe 2046     		mov	r0, r4
 3099 0200 FFF7FEFF 		bl	FaultCommand_JsonGetUint
 3100              	.LVL283:
1169:App/Src/fault_command.c ****     {
 3101              		.loc 1 1169 8 discriminator 1 view .LVU607
 3102 0204 0028     		cmp	r0, #0
 3103 0206 00F0C782 		beq	.L206
1171:App/Src/fault_command.c ****     }
 3104              		.loc 1 1171 7 is_stmt 1 view .LVU608
1171:App/Src/fault_command.c ****     }
 3105              		.loc 1 1171 16 is_stmt 0 view .LVU609
 3106 020a 9DF83C00 		ldrb	r0, [sp, #60]	@ zero_extendqisi2
 3107 020e FFF7FEFF 		bl	VoltageSim_ClearCellFault
 3108              	.LVL284:
 3109 0212 0446     		mov	r4, r0
 3110              	.LVL285:
1171:App/Src/fault_command.c ****     }
 3111              		.loc 1 1171 16 view .LVU610
 3112 0214 48E7     		b	.L163
 3113              	.LVL286:
 3114              	.L258:
 3115              	.LBB13:
 926:App/Src/fault_command.c ****     uint32_t highMv;
 3116              		.loc 1 926 5 is_stmt 1 view .LVU611
 927:App/Src/fault_command.c ****     uint32_t lowCell;
 3117              		.loc 1 927 5 view .LVU612
 928:App/Src/fault_command.c ****     uint32_t lowMv;
 3118              		.loc 1 928 5 view .LVU613
 929:App/Src/fault_command.c **** 
 3119              		.loc 1 929 5 view .LVU614
 931:App/Src/fault_command.c ****         (FaultCommand_JsonGetUint(json, "high_mv", &highMv) != 0U) &&
 3120              		.loc 1 931 5 view .LVU615
 931:App/Src/fault_command.c ****         (FaultCommand_JsonGetUint(json, "high_mv", &highMv) != 0U) &&
 3121              		.loc 1 931 10 is_stmt 0 view .LVU616
 3122 0216 05AA     		add	r2, sp, #20
 3123 0218 3549     		ldr	r1, .L305+92
ARM GAS  C:\Users\hh\AppData\Local\Temp\cc8MU7EM.s 			page 89


 3124 021a 2046     		mov	r0, r4
 3125 021c FFF7FEFF 		bl	FaultCommand_JsonGetUint
 3126              	.LVL287:
 931:App/Src/fault_command.c ****         (FaultCommand_JsonGetUint(json, "high_mv", &highMv) != 0U) &&
 3127              		.loc 1 931 8 discriminator 1 view .LVU617
 3128 0220 10B9     		cbnz	r0, .L265
 3129              	.LBE13:
 869:App/Src/fault_command.c **** 
 3130              		.loc 1 869 21 view .LVU618
 3131 0222 0123     		movs	r3, #1
 3132 0224 1C46     		mov	r4, r3
 3133              	.LVL288:
 869:App/Src/fault_command.c **** 
 3134              		.loc 1 869 21 view .LVU619
 3135 0226 3FE7     		b	.L163
 3136              	.LVL289:
 3137              	.L265:
 3138              	.LBB14:
 932:App/Src/fault_command.c ****         (FaultCommand_JsonGetUint(json, "low_cell", &lowCell) != 0U) &&
 3139              		.loc 1 932 10 view .LVU620
 3140 0228 06AA     		add	r2, sp, #24
 3141 022a 3249     		ldr	r1, .L305+96
 3142 022c 2046     		mov	r0, r4
 3143 022e FFF7FEFF 		bl	FaultCommand_JsonGetUint
 3144              	.LVL290:
 931:App/Src/fault_command.c ****         (FaultCommand_JsonGetUint(json, "high_mv", &highMv) != 0U) &&
 3145              		.loc 1 931 72 discriminator 2 view .LVU621
 3146 0232 10B9     		cbnz	r0, .L266
 3147              	.LBE14:
 869:App/Src/fault_command.c **** 
 3148              		.loc 1 869 21 view .LVU622
 3149 0234 0123     		movs	r3, #1
 3150 0236 1C46     		mov	r4, r3
 3151              	.LVL291:
 869:App/Src/fault_command.c **** 
 3152              		.loc 1 869 21 view .LVU623
 3153 0238 36E7     		b	.L163
 3154              	.LVL292:
 3155              	.L266:
 3156              	.LBB15:
 933:App/Src/fault_command.c ****         (FaultCommand_JsonGetUint(json, "low_mv", &lowMv) != 0U))
 3157              		.loc 1 933 10 view .LVU624
 3158 023a 08AA     		add	r2, sp, #32
 3159 023c 2E49     		ldr	r1, .L305+100
 3160 023e 2046     		mov	r0, r4
 3161 0240 FFF7FEFF 		bl	FaultCommand_JsonGetUint
 3162              	.LVL293:
 932:App/Src/fault_command.c ****         (FaultCommand_JsonGetUint(json, "low_cell", &lowCell) != 0U) &&
 3163              		.loc 1 932 68 view .LVU625
 3164 0244 10B9     		cbnz	r0, .L267
 3165              	.LBE15:
 869:App/Src/fault_command.c **** 
 3166              		.loc 1 869 21 view .LVU626
 3167 0246 0123     		movs	r3, #1
 3168 0248 1C46     		mov	r4, r3
 3169              	.LVL294:
 869:App/Src/fault_command.c **** 
ARM GAS  C:\Users\hh\AppData\Local\Temp\cc8MU7EM.s 			page 90


 3170              		.loc 1 869 21 view .LVU627
 3171 024a 2DE7     		b	.L163
 3172              	.LVL295:
 3173              	.L267:
 3174              	.LBB16:
 934:App/Src/fault_command.c ****     {
 3175              		.loc 1 934 10 view .LVU628
 3176 024c 0AAA     		add	r2, sp, #40
 3177 024e 2B49     		ldr	r1, .L305+104
 3178 0250 2046     		mov	r0, r4
 3179 0252 FFF7FEFF 		bl	FaultCommand_JsonGetUint
 3180              	.LVL296:
 933:App/Src/fault_command.c ****         (FaultCommand_JsonGetUint(json, "low_mv", &lowMv) != 0U))
 3181              		.loc 1 933 70 view .LVU629
 3182 0256 10B9     		cbnz	r0, .L268
 3183              	.LBE16:
 869:App/Src/fault_command.c **** 
 3184              		.loc 1 869 21 view .LVU630
 3185 0258 0123     		movs	r3, #1
 3186 025a 1C46     		mov	r4, r3
 3187              	.LVL297:
 869:App/Src/fault_command.c **** 
 3188              		.loc 1 869 21 view .LVU631
 3189 025c 24E7     		b	.L163
 3190              	.LVL298:
 3191              	.L268:
 3192              	.LBB17:
 936:App/Src/fault_command.c ****       slew = FaultCommand_JsonGetUintDefault(json, "slew_mv_per_ms", FAULT_COMMAND_DEFAULT_SLEW_MV_
 3193              		.loc 1 936 7 is_stmt 1 view .LVU632
 936:App/Src/fault_command.c ****       slew = FaultCommand_JsonGetUintDefault(json, "slew_mv_per_ms", FAULT_COMMAND_DEFAULT_SLEW_MV_
 3194              		.loc 1 936 18 is_stmt 0 view .LVU633
 3195 025e 6422     		movs	r2, #100
 3196 0260 1749     		ldr	r1, .L305+44
 3197 0262 2046     		mov	r0, r4
 3198 0264 FFF7FEFF 		bl	FaultCommand_JsonGetUintDefault
 3199              	.LVL299:
 3200 0268 0546     		mov	r5, r0
 3201              	.LVL300:
 937:App/Src/fault_command.c ****       status = FaultCommand_RunDiff((uint8_t)highCell,
 3202              		.loc 1 937 7 is_stmt 1 view .LVU634
 937:App/Src/fault_command.c ****       status = FaultCommand_RunDiff((uint8_t)highCell,
 3203              		.loc 1 937 14 is_stmt 0 view .LVU635
 3204 026a 40F6B832 		movw	r2, #3000
 3205 026e 1549     		ldr	r1, .L305+48
 3206 0270 2046     		mov	r0, r4
 3207              	.LVL301:
 937:App/Src/fault_command.c ****       status = FaultCommand_RunDiff((uint8_t)highCell,
 3208              		.loc 1 937 14 view .LVU636
 3209 0272 FFF7FEFF 		bl	FaultCommand_JsonGetUintDefault
 3210              	.LVL302:
 938:App/Src/fault_command.c ****                                     (uint16_t)highMv,
 3211              		.loc 1 938 7 is_stmt 1 view .LVU637
 938:App/Src/fault_command.c ****                                     (uint16_t)highMv,
 3212              		.loc 1 938 16 is_stmt 0 view .LVU638
 3213 0276 80B2     		uxth	r0, r0
 3214              	.LVL303:
 938:App/Src/fault_command.c ****                                     (uint16_t)highMv,
ARM GAS  C:\Users\hh\AppData\Local\Temp\cc8MU7EM.s 			page 91


 3215              		.loc 1 938 16 view .LVU639
 3216 0278 0190     		str	r0, [sp, #4]
 3217 027a 0095     		str	r5, [sp]
 3218 027c BDF82830 		ldrh	r3, [sp, #40]
 3219 0280 9DF82020 		ldrb	r2, [sp, #32]	@ zero_extendqisi2
 3220 0284 BDF81810 		ldrh	r1, [sp, #24]
 3221 0288 9DF81400 		ldrb	r0, [sp, #20]	@ zero_extendqisi2
 3222 028c FFF7FEFF 		bl	FaultCommand_RunDiff
 3223              	.LVL304:
 3224 0290 0446     		mov	r4, r0
 3225              	.LVL305:
 938:App/Src/fault_command.c ****                                     (uint16_t)highMv,
 3226              		.loc 1 938 16 view .LVU640
 3227 0292 09E7     		b	.L163
 3228              	.L306:
 3229              		.align	2
 3230              	.L305:
 3231 0294 00000000 		.word	.LC54
 3232 0298 2C000000 		.word	.LC56
 3233 029c 34000000 		.word	.LC57
 3234 02a0 B4000000 		.word	.LC59
 3235 02a4 C0000000 		.word	.LC61
 3236 02a8 CC000000 		.word	.LC63
 3237 02ac D0000000 		.word	.LC64
 3238 02b0 C4000000 		.word	.LC62
 3239 02b4 04000000 		.word	.LC55
 3240 02b8 3C000000 		.word	.LC58
 3241 02bc BC000000 		.word	.LC60
 3242 02c0 E0000000 		.word	.LC65
 3243 02c4 EC000000 		.word	.LC66
 3244 02c8 FC000000 		.word	.LC67
 3245 02cc 00010000 		.word	.LC68
 3246 02d0 10010000 		.word	.LC69
 3247 02d4 40010000 		.word	.LC74
 3248 02d8 9C010000 		.word	.LC83
 3249 02dc A8010000 		.word	.LC84
 3250 02e0 18020000 		.word	.LC92
 3251 02e4 30020000 		.word	.LC95
 3252 02e8 54020000 		.word	.LC101
 3253 02ec 10020000 		.word	.LC91
 3254 02f0 18010000 		.word	.LC70
 3255 02f4 24010000 		.word	.LC71
 3256 02f8 2C010000 		.word	.LC72
 3257 02fc 38010000 		.word	.LC73
 3258              	.LVL306:
 3259              	.L259:
 938:App/Src/fault_command.c ****                                     (uint16_t)highMv,
 3260              		.loc 1 938 16 view .LVU641
 3261              	.LBE17:
 948:App/Src/fault_command.c ****     {
 3262              		.loc 1 948 5 is_stmt 1 view .LVU642
 948:App/Src/fault_command.c ****     {
 3263              		.loc 1 948 9 is_stmt 0 view .LVU643
 3264 0300 1023     		movs	r3, #16
 3265 0302 10AA     		add	r2, sp, #64
 3266 0304 9F49     		ldr	r1, .L307
 3267 0306 2046     		mov	r0, r4
ARM GAS  C:\Users\hh\AppData\Local\Temp\cc8MU7EM.s 			page 92


 3268 0308 FFF7FEFF 		bl	FaultCommand_JsonGetString
 3269              	.LVL307:
 948:App/Src/fault_command.c ****     {
 3270              		.loc 1 948 8 discriminator 1 view .LVU644
 3271 030c 0028     		cmp	r0, #0
