ARM GAS  C:\Users\hh\AppData\Local\Temp\ccntMbQq.s 			page 1


   1              		.cpu cortex-m7
   2              		.arch armv7e-m
   3              		.fpu fpv5-d16
   4              		.eabi_attribute 28, 1
   5              		.eabi_attribute 20, 1
   6              		.eabi_attribute 21, 1
   7              		.eabi_attribute 23, 3
   8              		.eabi_attribute 24, 1
   9              		.eabi_attribute 25, 1
  10              		.eabi_attribute 26, 1
  11              		.eabi_attribute 30, 1
  12              		.eabi_attribute 34, 1
  13              		.eabi_attribute 18, 4
  14              		.file	"fault_command.c"
  15              		.text
  16              	.Ltext0:
  17              		.cfi_sections	.debug_frame
  18              		.file 1 "App/Src/fault_command.c"
  19              		.section	.text.FaultCommand_Write,"ax",%progbits
  20              		.align	1
  21              		.syntax unified
  22              		.thumb
  23              		.thumb_func
  25              	FaultCommand_Write:
  26              	.LVL0:
  27              	.LFB149:
   1:App/Src/fault_command.c **** #include "fault_command.h"
   2:App/Src/fault_command.c **** 
   3:App/Src/fault_command.c **** #include <stdarg.h>
   4:App/Src/fault_command.c **** #include <stdio.h>
   5:App/Src/fault_command.c **** #include <stdlib.h>
   6:App/Src/fault_command.c **** #include <string.h>
   7:App/Src/fault_command.c **** 
   8:App/Src/fault_command.c **** #include "bms_response_log.h"
   9:App/Src/fault_command.c **** #include "bsp_can.h"
  10:App/Src/fault_command.c **** #include "bsp_sram.h"
  11:App/Src/fault_command.c **** #include "dac_safety.h"
  12:App/Src/fault_command.c **** #include "voltage_sim.h"
  13:App/Src/fault_command.c **** #include "waveform_engine.h"
  14:App/Src/fault_command.c **** #include "waveform_gen.h"
  15:App/Src/fault_command.c **** 
  16:App/Src/fault_command.c **** #define FAULT_COMMAND_DEFAULT_DURATION_MS 100U
  17:App/Src/fault_command.c **** #define FAULT_COMMAND_DEFAULT_SLEW_MV_PER_MS 3000U
  18:App/Src/fault_command.c **** 
  19:App/Src/fault_command.c **** static void FaultCommand_Write(FaultCommand_WriteFn write, void *context, const char *text)
  20:App/Src/fault_command.c **** {
  28              		.loc 1 20 1 view -0
  29              		.cfi_startproc
  30              		@ args = 0, pretend = 0, frame = 0
  31              		@ frame_needed = 0, uses_anonymous_args = 0
  21:App/Src/fault_command.c ****   if ((write != NULL) && (text != NULL))
  32              		.loc 1 21 3 view .LVU1
  33              		.loc 1 21 6 is_stmt 0 view .LVU2
  34 0000 0028     		cmp	r0, #0
  35 0002 18BF     		it	ne
  36 0004 002A     		cmpne	r2, #0
  37 0006 04D0     		beq	.L4
ARM GAS  C:\Users\hh\AppData\Local\Temp\ccntMbQq.s 			page 2


  20:App/Src/fault_command.c ****   if ((write != NULL) && (text != NULL))
  38              		.loc 1 20 1 view .LVU3
  39 0008 08B5     		push	{r3, lr}
  40              	.LCFI0:
  41              		.cfi_def_cfa_offset 8
  42              		.cfi_offset 3, -8
  43              		.cfi_offset 14, -4
  44 000a 0346     		mov	r3, r0
  22:App/Src/fault_command.c ****   {
  23:App/Src/fault_command.c ****     write(text, context);
  45              		.loc 1 23 5 is_stmt 1 view .LVU4
  46 000c 1046     		mov	r0, r2
  47              	.LVL1:
  48              		.loc 1 23 5 is_stmt 0 view .LVU5
  49 000e 9847     		blx	r3
  50              	.LVL2:
  24:App/Src/fault_command.c ****   }
  25:App/Src/fault_command.c **** }
  51              		.loc 1 25 1 view .LVU6
  52 0010 08BD     		pop	{r3, pc}
  53              	.LVL3:
  54              	.L4:
  55              	.LCFI1:
  56              		.cfi_def_cfa_offset 0
  57              		.cfi_restore 3
  58              		.cfi_restore 14
  59              		.loc 1 25 1 view .LVU7
  60 0012 7047     		bx	lr
  61              		.cfi_endproc
  62              	.LFE149:
  64              		.section	.text.FaultCommand_SkipSpaces,"ax",%progbits
  65              		.align	1
  66              		.syntax unified
  67              		.thumb
  68              		.thumb_func
  70              	FaultCommand_SkipSpaces:
  71              	.LVL4:
  72              	.LFB151:
  26:App/Src/fault_command.c **** 
  27:App/Src/fault_command.c **** static void FaultCommand_WriteFormat(FaultCommand_WriteFn write,
  28:App/Src/fault_command.c ****                                      void *context,
  29:App/Src/fault_command.c ****                                      const char *format,
  30:App/Src/fault_command.c ****                                      ...)
  31:App/Src/fault_command.c **** {
  32:App/Src/fault_command.c ****   char buffer[512];
  33:App/Src/fault_command.c ****   va_list args;
  34:App/Src/fault_command.c **** 
  35:App/Src/fault_command.c ****   va_start(args, format);
  36:App/Src/fault_command.c ****   (void)vsnprintf(buffer, sizeof(buffer), format, args);
  37:App/Src/fault_command.c ****   va_end(args);
  38:App/Src/fault_command.c **** 
  39:App/Src/fault_command.c ****   FaultCommand_Write(write, context, buffer);
  40:App/Src/fault_command.c **** }
  41:App/Src/fault_command.c **** 
  42:App/Src/fault_command.c **** static const char *FaultCommand_SkipSpaces(const char *text)
  43:App/Src/fault_command.c **** {
  73              		.loc 1 43 1 is_stmt 1 view -0
ARM GAS  C:\Users\hh\AppData\Local\Temp\ccntMbQq.s 			page 3


  74              		.cfi_startproc
  75              		@ args = 0, pretend = 0, frame = 0
  76              		@ frame_needed = 0, uses_anonymous_args = 0
  77              		@ link register save eliminated.
  44:App/Src/fault_command.c ****   while ((text != NULL) && (*text == ' '))
  78              		.loc 1 44 3 view .LVU9
  79              		.loc 1 44 9 is_stmt 0 view .LVU10
  80 0000 00E0     		b	.L8
  81              	.L10:
  45:App/Src/fault_command.c ****   {
  46:App/Src/fault_command.c ****     text++;
  82              		.loc 1 46 5 is_stmt 1 view .LVU11
  83              		.loc 1 46 9 is_stmt 0 view .LVU12
  84 0002 0130     		adds	r0, r0, #1
  85              	.LVL5:
  86              	.L8:
  44:App/Src/fault_command.c ****   while ((text != NULL) && (*text == ' '))
  87              		.loc 1 44 25 is_stmt 1 view .LVU13
  88 0004 10B1     		cbz	r0, .L9
  44:App/Src/fault_command.c ****   while ((text != NULL) && (*text == ' '))
  89              		.loc 1 44 29 is_stmt 0 discriminator 1 view .LVU14
  90 0006 0378     		ldrb	r3, [r0]	@ zero_extendqisi2
  44:App/Src/fault_command.c ****   while ((text != NULL) && (*text == ' '))
  91              		.loc 1 44 25 discriminator 1 view .LVU15
  92 0008 202B     		cmp	r3, #32
  93 000a FAD0     		beq	.L10
  94              	.L9:
  47:App/Src/fault_command.c ****   }
  48:App/Src/fault_command.c **** 
  49:App/Src/fault_command.c ****   return text;
  95              		.loc 1 49 3 is_stmt 1 view .LVU16
  50:App/Src/fault_command.c **** }
  96              		.loc 1 50 1 is_stmt 0 view .LVU17
  97 000c 7047     		bx	lr
  98              		.cfi_endproc
  99              	.LFE151:
 101              		.section	.rodata.FaultCommand_WriteTextHelp.str1.4,"aMS",%progbits,1
 102              		.align	2
 103              	.LC0:
 104 0000 0D0A5B63 		.ascii	"\015\012[cmd] help\015\012\000"
 104      6D645D20 
 104      68656C70 
 104      0D0A00
 105 000f 00       		.align	2
 106              	.LC1:
 107 0010 20206865 		.ascii	"  help\015\012\000"
 107      6C700D0A 
 107      00
 108 0019 000000   		.align	2
 109              	.LC2:
 110 001c 20207374 		.ascii	"  status\015\012\000"
 110      61747573 
 110      0D0A00
 111 0027 00       		.align	2
 112              	.LC3:
 113 0028 20206E6F 		.ascii	"  normal [mv]\015\012\000"
 113      726D616C 
ARM GAS  C:\Users\hh\AppData\Local\Temp\ccntMbQq.s 			page 4


 113      205B6D76 
 113      5D0D0A00 
 114              		.align	2
 115              	.LC4:
 116 0038 20207365 		.ascii	"  set <cell> <mv>\015\012\000"
 116      74203C63 
 116      656C6C3E 
 116      203C6D76 
 116      3E0D0A00 
 117              		.align	2
 118              	.LC5:
 119 004c 20206F76 		.ascii	"  ov <cell> [mv] [duration_ms] [slew_mv_per_ms]\015"
 119      203C6365 
 119      6C6C3E20 
 119      5B6D765D 
 119      205B6475 
 120 007c 0A00     		.ascii	"\012\000"
 121 007e 0000     		.align	2
 122              	.LC6:
 123 0080 20207576 		.ascii	"  uv <cell> [mv] [duration_ms] [slew_mv_per_ms]\015"
 123      203C6365 
 123      6C6C3E20 
 123      5B6D765D 
 123      205B6475 
 124 00b0 0A00     		.ascii	"\012\000"
 125 00b2 0000     		.align	2
 126              	.LC7:
 127 00b4 20206469 		.ascii	"  diff <high_cell> <high_mv> <low_cell> <low_mv> [d"
 127      6666203C 
 127      68696768 
 127      5F63656C 
 127      6C3E203C 
 128 00e7 75726174 		.ascii	"uration_ms] [slew_mv_per_ms]\015\012\000"
 128      696F6E5F 
 128      6D735D20 
 128      5B736C65 
 128      775F6D76 
 129 0106 0000     		.align	2
 130              	.LC8:
 131 0108 20207761 		.ascii	"  wave status\015\012\000"
 131      76652073 
 131      74617475 
 131      730D0A00 
 132              		.align	2
 133              	.LC9:
 134 0118 20207761 		.ascii	"  wave stop\015\012\000"
 134      76652073 
 134      746F700D 
 134      0A00
 135 0126 0000     		.align	2
 136              	.LC10:
 137 0128 20207761 		.ascii	"  wave square <cell> <low_mv> <high_mv> <period_ms>"
 137      76652073 
 137      71756172 
 137      65203C63 
 137      656C6C3E 
 138 015b 0D0A00   		.ascii	"\015\012\000"
ARM GAS  C:\Users\hh\AppData\Local\Temp\ccntMbQq.s 			page 5


 139 015e 0000     		.align	2
 140              	.LC11:
 141 0160 20207761 		.ascii	"  wave sine <cell> <offset_mv> <amplitude_mv> <peri"
 141      76652073 
 141      696E6520 
 141      3C63656C 
 141      6C3E203C 
 142 0193 6F645F6D 		.ascii	"od_ms>\015\012\000"
 142      733E0D0A 
 142      00
 143              		.align	2
 144              	.LC12:
 145 019c 20207761 		.ascii	"  wave sine all <offset_mv> <amplitude_mv> <period_"
 145      76652073 
 145      696E6520 
 145      616C6C20 
 145      3C6F6666 
 146 01cf 6D733E0D 		.ascii	"ms>\015\012\000"
 146      0A00
 147 01d5 000000   		.align	2
 148              	.LC13:
 149 01d8 20207761 		.ascii	"  wave high <cell> <freq_hz> <points> <amp_mv> <off"
 149      76652068 
 149      69676820 
 149      3C63656C 
 149      6C3E203C 
 150 020b 7365745F 		.ascii	"set_mv>\015\012\000"
 150      6D763E0D 
 150      0A00
 151 0215 000000   		.align	2
 152              	.LC14:
 153 0218 20206361 		.ascii	"  cal status\015\012\000"
 153      6C207374 
 153      61747573 
 153      0D0A00
 154 0227 00       		.align	2
 155              	.LC15:
 156 0228 20206361 		.ascii	"  cal set <cell> <offset_mv>\015\012\000"
 156      6C207365 
 156      74203C63 
 156      656C6C3E 
 156      203C6F66 
 157 0247 00       		.align	2
 158              	.LC16:
 159 0248 20206361 		.ascii	"  cal trim <cell> <target_mv> <measured_mv>\015\012"
 159      6C207472 
 159      696D203C 
 159      63656C6C 
 159      3E203C74 
 160 0275 00       		.ascii	"\000"
 161 0276 0000     		.align	2
 162              	.LC17:
 163 0278 20206361 		.ascii	"  cal clear [cell]\015\012\000"
 163      6C20636C 
 163      65617220 
 163      5B63656C 
 163      6C5D0D0A 
ARM GAS  C:\Users\hh\AppData\Local\Temp\ccntMbQq.s 			page 6


 164 028d 000000   		.align	2
 165              	.LC18:
 166 0290 20207465 		.ascii	"  test static <mv>\015\012\000"
 166      73742073 
 166      74617469 
 166      63203C6D 
 166      763E0D0A 
 167 02a5 000000   		.align	2
 168              	.LC19:
 169 02a8 20207465 		.ascii	"  test slew <cell> <low_mv> <high_mv> <period_ms>\015"
 169      73742073 
 169      6C657720 
 169      3C63656C 
 169      6C3E203C 
 170 02da 0A00     		.ascii	"\012\000"
 171              		.align	2
 172              	.LC20:
 173 02dc 20206361 		.ascii	"  can status\015\012\000"
 173      6E207374 
 173      61747573 
 173      0D0A00
 174 02eb 00       		.align	2
 175              	.LC21:
 176 02ec 20206361 		.ascii	"  can send <std_id_hex> <len> [byte_hex ...]\015\012"
 176      6E207365 
 176      6E64203C 
 176      7374645F 
 176      69645F68 
 177 031a 00       		.ascii	"\000"
 178 031b 00       		.align	2
 179              	.LC22:
 180 031c 20206C6F 		.ascii	"  log status\015\012\000"
 180      67207374 
 180      61747573 
 180      0D0A00
 181 032b 00       		.align	2
 182              	.LC23:
 183 032c 20206C6F 		.ascii	"  log clear\015\012\000"
 183      6720636C 
 183      6561720D 
 183      0A00
 184 033a 0000     		.align	2
 185              	.LC24:
 186 033c 20206C6F 		.ascii	"  log filter <std|ext> <id_hex> [mask_hex]\015\012\000"
 186      67206669 
 186      6C746572 
 186      203C7374 
 186      647C6578 
 187 0369 000000   		.align	2
 188              	.LC25:
 189 036c 20206C6F 		.ascii	"  log filter off\015\012\000"
 189      67206669 
 189      6C746572 
 189      206F6666 
 189      0D0A00
 190 037f 00       		.align	2
 191              	.LC26:
ARM GAS  C:\Users\hh\AppData\Local\Temp\ccntMbQq.s 			page 7


 192 0380 20206C6F 		.ascii	"  log data <index> <mask_hex> <value_hex>\015\012\000"
 192      67206461 
 192      7461203C 
 192      696E6465 
 192      783E203C 
 193              		.align	2
 194              	.LC27:
 195 03ac 20206C6F 		.ascii	"  log data clear\015\012\000"
 195      67206461 
 195      74612063 
 195      6C656172 
 195      0D0A00
 196 03bf 00       		.align	2
 197              	.LC28:
 198 03c0 20207361 		.ascii	"  safe status\015\012\000"
 198      66652073 
 198      74617475 
 198      730D0A00 
 199              		.align	2
 200              	.LC29:
 201 03d0 20207361 		.ascii	"  safe stop [safe_mv]\015\012\000"
 201      66652073 
 201      746F7020 
 201      5B736166 
 201      655F6D76 
 202              		.align	2
 203              	.LC30:
 204 03e8 20207361 		.ascii	"  safe release\015\012\000"
 204      66652072 
 204      656C6561 
 204      73650D0A 
 204      00
 205 03f9 000000   		.align	2
 206              	.LC31:
 207 03fc 2020656D 		.ascii	"  emergency stop [safe_mv]\015\012\000"
 207      65726765 
 207      6E637920 
 207      73746F70 
 207      205B7361 
 208 0419 000000   		.align	2
 209              	.LC32:
 210 041c 20207372 		.ascii	"  sram status\015\012\000"
 210      616D2073 
 210      74617475 
 210      730D0A00 
 211              		.align	2
 212              	.LC33:
 213 042c 20207372 		.ascii	"  sram test [bytes]\015\012\000"
 213      616D2074 
 213      65737420 
 213      5B627974 
 213      65735D0D 
 214 0442 0000     		.align	2
 215              	.LC34:
 216 0444 2020636C 		.ascii	"  clear [cell]\015\012\000"
 216      65617220 
 216      5B63656C 
ARM GAS  C:\Users\hh\AppData\Local\Temp\ccntMbQq.s 			page 8


 216      6C5D0D0A 
 216      00
 217 0455 000000   		.align	2
 218              	.LC35:
 219 0458 20204A53 		.ascii	"  JSON examples: {\"cmd\":\"status\"}, {\"cmd\":\"c"
 219      4F4E2065 
 219      78616D70 
 219      6C65733A 
 219      207B2263 
 220 0484 616C222C 		.ascii	"al\",\"action\":\"trim\",\"cell\":1,\"target_mv\":2"
 220      22616374 
 220      696F6E22 
 220      3A227472 
 220      696D222C 
 221 04ae 3530302C 		.ascii	"500,\"measured_mv\":2485}\015\012\000"
 221      226D6561 
 221      73757265 
 221      645F6D76 
 221      223A3234 
 222              		.section	.text.FaultCommand_WriteTextHelp,"ax",%progbits
 223              		.align	1
 224              		.syntax unified
 225              		.thumb
 226              		.thumb_func
 228              	FaultCommand_WriteTextHelp:
 229              	.LVL6:
 230              	.LFB152:
  51:App/Src/fault_command.c **** 
  52:App/Src/fault_command.c **** static void FaultCommand_WriteTextHelp(FaultCommand_WriteFn write, void *context)
  53:App/Src/fault_command.c **** {
 231              		.loc 1 53 1 is_stmt 1 view -0
 232              		.cfi_startproc
 233              		@ args = 0, pretend = 0, frame = 0
 234              		@ frame_needed = 0, uses_anonymous_args = 0
 235              		.loc 1 53 1 is_stmt 0 view .LVU19
 236 0000 38B5     		push	{r3, r4, r5, lr}
 237              	.LCFI2:
 238              		.cfi_def_cfa_offset 16
 239              		.cfi_offset 3, -16
 240              		.cfi_offset 4, -12
 241              		.cfi_offset 5, -8
 242              		.cfi_offset 14, -4
 243 0002 0446     		mov	r4, r0
 244 0004 0D46     		mov	r5, r1
  54:App/Src/fault_command.c ****   FaultCommand_Write(write, context, "\r\n[cmd] help\r\n");
 245              		.loc 1 54 3 is_stmt 1 view .LVU20
 246 0006 594A     		ldr	r2, .L13
 247 0008 FFF7FEFF 		bl	FaultCommand_Write
 248              	.LVL7:
  55:App/Src/fault_command.c ****   FaultCommand_Write(write, context, "  help\r\n");
 249              		.loc 1 55 3 view .LVU21
 250 000c 584A     		ldr	r2, .L13+4
 251 000e 2946     		mov	r1, r5
 252 0010 2046     		mov	r0, r4
 253 0012 FFF7FEFF 		bl	FaultCommand_Write
 254              	.LVL8:
  56:App/Src/fault_command.c ****   FaultCommand_Write(write, context, "  status\r\n");
ARM GAS  C:\Users\hh\AppData\Local\Temp\ccntMbQq.s 			page 9


 255              		.loc 1 56 3 view .LVU22
 256 0016 574A     		ldr	r2, .L13+8
 257 0018 2946     		mov	r1, r5
 258 001a 2046     		mov	r0, r4
 259 001c FFF7FEFF 		bl	FaultCommand_Write
 260              	.LVL9:
  57:App/Src/fault_command.c ****   FaultCommand_Write(write, context, "  normal [mv]\r\n");
 261              		.loc 1 57 3 view .LVU23
 262 0020 554A     		ldr	r2, .L13+12
 263 0022 2946     		mov	r1, r5
 264 0024 2046     		mov	r0, r4
 265 0026 FFF7FEFF 		bl	FaultCommand_Write
 266              	.LVL10:
  58:App/Src/fault_command.c ****   FaultCommand_Write(write, context, "  set <cell> <mv>\r\n");
 267              		.loc 1 58 3 view .LVU24
 268 002a 544A     		ldr	r2, .L13+16
 269 002c 2946     		mov	r1, r5
 270 002e 2046     		mov	r0, r4
 271 0030 FFF7FEFF 		bl	FaultCommand_Write
 272              	.LVL11:
  59:App/Src/fault_command.c ****   FaultCommand_Write(write, context, "  ov <cell> [mv] [duration_ms] [slew_mv_per_ms]\r\n");
 273              		.loc 1 59 3 view .LVU25
 274 0034 524A     		ldr	r2, .L13+20
 275 0036 2946     		mov	r1, r5
 276 0038 2046     		mov	r0, r4
 277 003a FFF7FEFF 		bl	FaultCommand_Write
 278              	.LVL12:
  60:App/Src/fault_command.c ****   FaultCommand_Write(write, context, "  uv <cell> [mv] [duration_ms] [slew_mv_per_ms]\r\n");
 279              		.loc 1 60 3 view .LVU26
 280 003e 514A     		ldr	r2, .L13+24
 281 0040 2946     		mov	r1, r5
 282 0042 2046     		mov	r0, r4
 283 0044 FFF7FEFF 		bl	FaultCommand_Write
 284              	.LVL13:
  61:App/Src/fault_command.c ****   FaultCommand_Write(write, context, "  diff <high_cell> <high_mv> <low_cell> <low_mv> [duration_ms
 285              		.loc 1 61 3 view .LVU27
 286 0048 4F4A     		ldr	r2, .L13+28
 287 004a 2946     		mov	r1, r5
 288 004c 2046     		mov	r0, r4
 289 004e FFF7FEFF 		bl	FaultCommand_Write
 290              	.LVL14:
  62:App/Src/fault_command.c ****   FaultCommand_Write(write, context, "  wave status\r\n");
 291              		.loc 1 62 3 view .LVU28
 292 0052 4E4A     		ldr	r2, .L13+32
 293 0054 2946     		mov	r1, r5
 294 0056 2046     		mov	r0, r4
 295 0058 FFF7FEFF 		bl	FaultCommand_Write
 296              	.LVL15:
  63:App/Src/fault_command.c ****   FaultCommand_Write(write, context, "  wave stop\r\n");
 297              		.loc 1 63 3 view .LVU29
 298 005c 4C4A     		ldr	r2, .L13+36
 299 005e 2946     		mov	r1, r5
 300 0060 2046     		mov	r0, r4
 301 0062 FFF7FEFF 		bl	FaultCommand_Write
 302              	.LVL16:
  64:App/Src/fault_command.c ****   FaultCommand_Write(write, context, "  wave square <cell> <low_mv> <high_mv> <period_ms>\r\n");
 303              		.loc 1 64 3 view .LVU30
ARM GAS  C:\Users\hh\AppData\Local\Temp\ccntMbQq.s 			page 10


 304 0066 4B4A     		ldr	r2, .L13+40
 305 0068 2946     		mov	r1, r5
 306 006a 2046     		mov	r0, r4
 307 006c FFF7FEFF 		bl	FaultCommand_Write
 308              	.LVL17:
  65:App/Src/fault_command.c ****   FaultCommand_Write(write, context, "  wave sine <cell> <offset_mv> <amplitude_mv> <period_ms>\r\n
 309              		.loc 1 65 3 view .LVU31
 310 0070 494A     		ldr	r2, .L13+44
 311 0072 2946     		mov	r1, r5
 312 0074 2046     		mov	r0, r4
 313 0076 FFF7FEFF 		bl	FaultCommand_Write
 314              	.LVL18:
  66:App/Src/fault_command.c ****   FaultCommand_Write(write, context, "  wave sine all <offset_mv> <amplitude_mv> <period_ms>\r\n");
 315              		.loc 1 66 3 view .LVU32
 316 007a 484A     		ldr	r2, .L13+48
 317 007c 2946     		mov	r1, r5
 318 007e 2046     		mov	r0, r4
 319 0080 FFF7FEFF 		bl	FaultCommand_Write
 320              	.LVL19:
  67:App/Src/fault_command.c ****   FaultCommand_Write(write, context, "  wave high <cell> <freq_hz> <points> <amp_mv> <offset_mv>\r\
 321              		.loc 1 67 3 view .LVU33
 322 0084 464A     		ldr	r2, .L13+52
 323 0086 2946     		mov	r1, r5
 324 0088 2046     		mov	r0, r4
 325 008a FFF7FEFF 		bl	FaultCommand_Write
 326              	.LVL20:
  68:App/Src/fault_command.c ****   FaultCommand_Write(write, context, "  cal status\r\n");
 327              		.loc 1 68 3 view .LVU34
 328 008e 454A     		ldr	r2, .L13+56
 329 0090 2946     		mov	r1, r5
 330 0092 2046     		mov	r0, r4
 331 0094 FFF7FEFF 		bl	FaultCommand_Write
 332              	.LVL21:
  69:App/Src/fault_command.c ****   FaultCommand_Write(write, context, "  cal set <cell> <offset_mv>\r\n");
 333              		.loc 1 69 3 view .LVU35
 334 0098 434A     		ldr	r2, .L13+60
 335 009a 2946     		mov	r1, r5
 336 009c 2046     		mov	r0, r4
 337 009e FFF7FEFF 		bl	FaultCommand_Write
 338              	.LVL22:
  70:App/Src/fault_command.c ****   FaultCommand_Write(write, context, "  cal trim <cell> <target_mv> <measured_mv>\r\n");
 339              		.loc 1 70 3 view .LVU36
 340 00a2 424A     		ldr	r2, .L13+64
 341 00a4 2946     		mov	r1, r5
 342 00a6 2046     		mov	r0, r4
 343 00a8 FFF7FEFF 		bl	FaultCommand_Write
 344              	.LVL23:
  71:App/Src/fault_command.c ****   FaultCommand_Write(write, context, "  cal clear [cell]\r\n");
 345              		.loc 1 71 3 view .LVU37
 346 00ac 404A     		ldr	r2, .L13+68
 347 00ae 2946     		mov	r1, r5
 348 00b0 2046     		mov	r0, r4
 349 00b2 FFF7FEFF 		bl	FaultCommand_Write
 350              	.LVL24:
  72:App/Src/fault_command.c ****   FaultCommand_Write(write, context, "  test static <mv>\r\n");
 351              		.loc 1 72 3 view .LVU38
 352 00b6 3F4A     		ldr	r2, .L13+72
ARM GAS  C:\Users\hh\AppData\Local\Temp\ccntMbQq.s 			page 11


 353 00b8 2946     		mov	r1, r5
 354 00ba 2046     		mov	r0, r4
 355 00bc FFF7FEFF 		bl	FaultCommand_Write
 356              	.LVL25:
  73:App/Src/fault_command.c ****   FaultCommand_Write(write, context, "  test slew <cell> <low_mv> <high_mv> <period_ms>\r\n");
 357              		.loc 1 73 3 view .LVU39
 358 00c0 3D4A     		ldr	r2, .L13+76
 359 00c2 2946     		mov	r1, r5
 360 00c4 2046     		mov	r0, r4
 361 00c6 FFF7FEFF 		bl	FaultCommand_Write
 362              	.LVL26:
  74:App/Src/fault_command.c ****   FaultCommand_Write(write, context, "  can status\r\n");
 363              		.loc 1 74 3 view .LVU40
 364 00ca 3C4A     		ldr	r2, .L13+80
 365 00cc 2946     		mov	r1, r5
 366 00ce 2046     		mov	r0, r4
 367 00d0 FFF7FEFF 		bl	FaultCommand_Write
 368              	.LVL27:
  75:App/Src/fault_command.c ****   FaultCommand_Write(write, context, "  can send <std_id_hex> <len> [byte_hex ...]\r\n");
 369              		.loc 1 75 3 view .LVU41
 370 00d4 3A4A     		ldr	r2, .L13+84
 371 00d6 2946     		mov	r1, r5
 372 00d8 2046     		mov	r0, r4
 373 00da FFF7FEFF 		bl	FaultCommand_Write
 374              	.LVL28:
  76:App/Src/fault_command.c ****   FaultCommand_Write(write, context, "  log status\r\n");
 375              		.loc 1 76 3 view .LVU42
 376 00de 394A     		ldr	r2, .L13+88
 377 00e0 2946     		mov	r1, r5
 378 00e2 2046     		mov	r0, r4
 379 00e4 FFF7FEFF 		bl	FaultCommand_Write
 380              	.LVL29:
  77:App/Src/fault_command.c ****   FaultCommand_Write(write, context, "  log clear\r\n");
 381              		.loc 1 77 3 view .LVU43
 382 00e8 374A     		ldr	r2, .L13+92
 383 00ea 2946     		mov	r1, r5
 384 00ec 2046     		mov	r0, r4
 385 00ee FFF7FEFF 		bl	FaultCommand_Write
 386              	.LVL30:
  78:App/Src/fault_command.c ****   FaultCommand_Write(write, context, "  log filter <std|ext> <id_hex> [mask_hex]\r\n");
 387              		.loc 1 78 3 view .LVU44
 388 00f2 364A     		ldr	r2, .L13+96
 389 00f4 2946     		mov	r1, r5
 390 00f6 2046     		mov	r0, r4
 391 00f8 FFF7FEFF 		bl	FaultCommand_Write
 392              	.LVL31:
  79:App/Src/fault_command.c ****   FaultCommand_Write(write, context, "  log filter off\r\n");
 393              		.loc 1 79 3 view .LVU45
 394 00fc 344A     		ldr	r2, .L13+100
 395 00fe 2946     		mov	r1, r5
 396 0100 2046     		mov	r0, r4
 397 0102 FFF7FEFF 		bl	FaultCommand_Write
 398              	.LVL32:
  80:App/Src/fault_command.c ****   FaultCommand_Write(write, context, "  log data <index> <mask_hex> <value_hex>\r\n");
 399              		.loc 1 80 3 view .LVU46
 400 0106 334A     		ldr	r2, .L13+104
 401 0108 2946     		mov	r1, r5
ARM GAS  C:\Users\hh\AppData\Local\Temp\ccntMbQq.s 			page 12


 402 010a 2046     		mov	r0, r4
 403 010c FFF7FEFF 		bl	FaultCommand_Write
 404              	.LVL33:
  81:App/Src/fault_command.c ****   FaultCommand_Write(write, context, "  log data clear\r\n");
 405              		.loc 1 81 3 view .LVU47
 406 0110 314A     		ldr	r2, .L13+108
 407 0112 2946     		mov	r1, r5
 408 0114 2046     		mov	r0, r4
 409 0116 FFF7FEFF 		bl	FaultCommand_Write
 410              	.LVL34:
  82:App/Src/fault_command.c ****   FaultCommand_Write(write, context, "  safe status\r\n");
 411              		.loc 1 82 3 view .LVU48
 412 011a 304A     		ldr	r2, .L13+112
 413 011c 2946     		mov	r1, r5
 414 011e 2046     		mov	r0, r4
 415 0120 FFF7FEFF 		bl	FaultCommand_Write
 416              	.LVL35:
  83:App/Src/fault_command.c ****   FaultCommand_Write(write, context, "  safe stop [safe_mv]\r\n");
 417              		.loc 1 83 3 view .LVU49
 418 0124 2E4A     		ldr	r2, .L13+116
 419 0126 2946     		mov	r1, r5
 420 0128 2046     		mov	r0, r4
 421 012a FFF7FEFF 		bl	FaultCommand_Write
 422              	.LVL36:
  84:App/Src/fault_command.c ****   FaultCommand_Write(write, context, "  safe release\r\n");
 423              		.loc 1 84 3 view .LVU50
 424 012e 2D4A     		ldr	r2, .L13+120
 425 0130 2946     		mov	r1, r5
 426 0132 2046     		mov	r0, r4
 427 0134 FFF7FEFF 		bl	FaultCommand_Write
 428              	.LVL37:
  85:App/Src/fault_command.c ****   FaultCommand_Write(write, context, "  emergency stop [safe_mv]\r\n");
 429              		.loc 1 85 3 view .LVU51
 430 0138 2B4A     		ldr	r2, .L13+124
 431 013a 2946     		mov	r1, r5
 432 013c 2046     		mov	r0, r4
 433 013e FFF7FEFF 		bl	FaultCommand_Write
 434              	.LVL38:
  86:App/Src/fault_command.c ****   FaultCommand_Write(write, context, "  sram status\r\n");
 435              		.loc 1 86 3 view .LVU52
 436 0142 2A4A     		ldr	r2, .L13+128
 437 0144 2946     		mov	r1, r5
 438 0146 2046     		mov	r0, r4
 439 0148 FFF7FEFF 		bl	FaultCommand_Write
 440              	.LVL39:
  87:App/Src/fault_command.c ****   FaultCommand_Write(write, context, "  sram test [bytes]\r\n");
 441              		.loc 1 87 3 view .LVU53
 442 014c 284A     		ldr	r2, .L13+132
 443 014e 2946     		mov	r1, r5
 444 0150 2046     		mov	r0, r4
 445 0152 FFF7FEFF 		bl	FaultCommand_Write
 446              	.LVL40:
  88:App/Src/fault_command.c ****   FaultCommand_Write(write, context, "  clear [cell]\r\n");
 447              		.loc 1 88 3 view .LVU54
 448 0156 274A     		ldr	r2, .L13+136
 449 0158 2946     		mov	r1, r5
 450 015a 2046     		mov	r0, r4
ARM GAS  C:\Users\hh\AppData\Local\Temp\ccntMbQq.s 			page 13


 451 015c FFF7FEFF 		bl	FaultCommand_Write
 452              	.LVL41:
  89:App/Src/fault_command.c ****   FaultCommand_Write(write, context, "  JSON examples: {\"cmd\":\"status\"}, {\"cmd\":\"cal\",\"act
 453              		.loc 1 89 3 view .LVU55
 454 0160 254A     		ldr	r2, .L13+140
 455 0162 2946     		mov	r1, r5
 456 0164 2046     		mov	r0, r4
 457 0166 FFF7FEFF 		bl	FaultCommand_Write
 458              	.LVL42:
  90:App/Src/fault_command.c **** }
 459              		.loc 1 90 1 is_stmt 0 view .LVU56
 460 016a 38BD     		pop	{r3, r4, r5, pc}
 461              	.LVL43:
 462              	.L14:
 463              		.loc 1 90 1 view .LVU57
 464              		.align	2
 465              	.L13:
 466 016c 00000000 		.word	.LC0
 467 0170 10000000 		.word	.LC1
 468 0174 1C000000 		.word	.LC2
 469 0178 28000000 		.word	.LC3
 470 017c 38000000 		.word	.LC4
 471 0180 4C000000 		.word	.LC5
 472 0184 80000000 		.word	.LC6
 473 0188 B4000000 		.word	.LC7
 474 018c 08010000 		.word	.LC8
 475 0190 18010000 		.word	.LC9
 476 0194 28010000 		.word	.LC10
 477 0198 60010000 		.word	.LC11
 478 019c 9C010000 		.word	.LC12
 479 01a0 D8010000 		.word	.LC13
 480 01a4 18020000 		.word	.LC14
 481 01a8 28020000 		.word	.LC15
 482 01ac 48020000 		.word	.LC16
 483 01b0 78020000 		.word	.LC17
 484 01b4 90020000 		.word	.LC18
 485 01b8 A8020000 		.word	.LC19
 486 01bc DC020000 		.word	.LC20
 487 01c0 EC020000 		.word	.LC21
 488 01c4 1C030000 		.word	.LC22
 489 01c8 2C030000 		.word	.LC23
 490 01cc 3C030000 		.word	.LC24
 491 01d0 6C030000 		.word	.LC25
 492 01d4 80030000 		.word	.LC26
 493 01d8 AC030000 		.word	.LC27
 494 01dc C0030000 		.word	.LC28
 495 01e0 D0030000 		.word	.LC29
 496 01e4 E8030000 		.word	.LC30
 497 01e8 FC030000 		.word	.LC31
 498 01ec 1C040000 		.word	.LC32
 499 01f0 2C040000 		.word	.LC33
 500 01f4 44040000 		.word	.LC34
 501 01f8 58040000 		.word	.LC35
 502              		.cfi_endproc
 503              	.LFE152:
 505              		.section	.text.FaultCommand_RunCalibrationTrim,"ax",%progbits
 506              		.align	1
ARM GAS  C:\Users\hh\AppData\Local\Temp\ccntMbQq.s 			page 14


 507              		.syntax unified
 508              		.thumb
 509              		.thumb_func
 511              	FaultCommand_RunCalibrationTrim:
 512              	.LVL44:
 513              	.LFB170:
  91:App/Src/fault_command.c **** 
  92:App/Src/fault_command.c **** static void FaultCommand_WriteTextWaveStatus(FaultCommand_WriteFn write, void *context)
  93:App/Src/fault_command.c **** {
  94:App/Src/fault_command.c ****   WaveformGen_Status status = WaveformGen_GetStatus();
  95:App/Src/fault_command.c ****   WaveformEngine_Status highStatus = WaveformEngine_GetStatus();
  96:App/Src/fault_command.c **** 
  97:App/Src/fault_command.c ****   FaultCommand_WriteFormat(write,
  98:App/Src/fault_command.c ****                            context,
  99:App/Src/fault_command.c ****                            "[wave] active=%u type=%s cell=%u period=%lums last=%umV\r\n",
 100:App/Src/fault_command.c ****                            status.active,
 101:App/Src/fault_command.c ****                            WaveformGen_GetTypeName(status.type),
 102:App/Src/fault_command.c ****                            status.cell,
 103:App/Src/fault_command.c ****                            (unsigned long)status.periodMs,
 104:App/Src/fault_command.c ****                            status.lastMillivolts);
 105:App/Src/fault_command.c ****   FaultCommand_WriteFormat(write,
 106:App/Src/fault_command.c ****                            context,
 107:App/Src/fault_command.c ****                            "[wave-high] running=%u buffer=%u samples=%lu errors=%lu\r\n",
 108:App/Src/fault_command.c ****                            highStatus.running,
 109:App/Src/fault_command.c ****                            highStatus.bufferIndex,
 110:App/Src/fault_command.c ****                            (unsigned long)highStatus.sampleCount,
 111:App/Src/fault_command.c ****                            (unsigned long)highStatus.errorCount);
 112:App/Src/fault_command.c **** }
 113:App/Src/fault_command.c **** 
 114:App/Src/fault_command.c **** static void FaultCommand_StopAllWaveforms(void)
 115:App/Src/fault_command.c **** {
 116:App/Src/fault_command.c ****   WaveformEngine_Stop();
 117:App/Src/fault_command.c ****   WaveformGen_Stop();
 118:App/Src/fault_command.c **** }
 119:App/Src/fault_command.c **** 
 120:App/Src/fault_command.c **** static void FaultCommand_WriteTextCanStatus(FaultCommand_WriteFn write, void *context)
 121:App/Src/fault_command.c **** {
 122:App/Src/fault_command.c ****   BspCan_Status status = BspCan_GetStatus();
 123:App/Src/fault_command.c **** 
 124:App/Src/fault_command.c ****   FaultCommand_WriteFormat(write,
 125:App/Src/fault_command.c ****                            context,
 126:App/Src/fault_command.c ****                            "\r\n[can] started=%u tx=%lu rx=%lu err=%lu last_id=0x%lX last_len=%u la
 127:App/Src/fault_command.c ****                            status.started,
 128:App/Src/fault_command.c ****                            (unsigned long)status.txCount,
 129:App/Src/fault_command.c ****                            (unsigned long)status.rxCount,
 130:App/Src/fault_command.c ****                            (unsigned long)status.errorCount,
 131:App/Src/fault_command.c ****                            (unsigned long)status.lastRxId,
 132:App/Src/fault_command.c ****                            status.lastRxLength,
 133:App/Src/fault_command.c ****                            (unsigned long)status.lastRxTick);
 134:App/Src/fault_command.c **** 
 135:App/Src/fault_command.c ****   for (uint8_t index = 0U; index < status.lastRxLength; index++)
 136:App/Src/fault_command.c ****   {
 137:App/Src/fault_command.c ****     FaultCommand_WriteFormat(write,
 138:App/Src/fault_command.c ****                              context,
 139:App/Src/fault_command.c ****                              "%02X%s",
 140:App/Src/fault_command.c ****                              status.lastRxData[index],
 141:App/Src/fault_command.c ****                              (index + 1U == status.lastRxLength) ? "" : " ");
ARM GAS  C:\Users\hh\AppData\Local\Temp\ccntMbQq.s 			page 15


 142:App/Src/fault_command.c ****   }
 143:App/Src/fault_command.c ****   FaultCommand_Write(write, context, "\r\n");
 144:App/Src/fault_command.c **** }
 145:App/Src/fault_command.c **** 
 146:App/Src/fault_command.c **** static void FaultCommand_WriteTextBmsResponseLog(FaultCommand_WriteFn write, void *context)
 147:App/Src/fault_command.c **** {
 148:App/Src/fault_command.c ****   BmsResponseLog_Status status = BmsResponseLog_GetStatus();
 149:App/Src/fault_command.c **** 
 150:App/Src/fault_command.c ****   FaultCommand_WriteFormat(write,
 151:App/Src/fault_command.c ****                            context,
 152:App/Src/fault_command.c ****                            "\r\n[log] armed=%u trigger=%s t1=%lums primary=C%02u/%umV secondary=C%0
 153:App/Src/fault_command.c ****                            status.armed,
 154:App/Src/fault_command.c ****                            BmsResponseLog_GetTriggerName(status.triggerType),
 155:App/Src/fault_command.c ****                            (unsigned long)status.triggerTick,
 156:App/Src/fault_command.c ****                            status.primaryCell,
 157:App/Src/fault_command.c ****                            status.primaryMillivolts,
 158:App/Src/fault_command.c ****                            status.secondaryCell,
 159:App/Src/fault_command.c ****                            status.secondaryMillivolts,
 160:App/Src/fault_command.c ****                            (unsigned long)status.canFramesAfterTrigger,
 161:App/Src/fault_command.c ****                            (unsigned long)status.filterMissCount,
 162:App/Src/fault_command.c ****                            status.responseCaptured);
 163:App/Src/fault_command.c **** 
 164:App/Src/fault_command.c ****   FaultCommand_WriteFormat(write,
 165:App/Src/fault_command.c ****                            context,
 166:App/Src/fault_command.c ****                            "\r\n[log] filter enabled=%u type=%s id=0x%lX mask=0x%lX min_len=%u data
 167:App/Src/fault_command.c ****                            status.filter.enabled,
 168:App/Src/fault_command.c ****                            status.filter.isExtended ? "ext" : "std",
 169:App/Src/fault_command.c ****                            (unsigned long)status.filter.id,
 170:App/Src/fault_command.c ****                            (unsigned long)status.filter.mask,
 171:App/Src/fault_command.c ****                            status.filter.minLength);
 172:App/Src/fault_command.c ****   for (uint8_t index = 0U; index < BSP_CAN_MAX_DATA_LEN; index++)
 173:App/Src/fault_command.c ****   {
 174:App/Src/fault_command.c ****     FaultCommand_WriteFormat(write,
 175:App/Src/fault_command.c ****                              context,
 176:App/Src/fault_command.c ****                              "%s%02X/%02X",
 177:App/Src/fault_command.c ****                              (index == 0U) ? "" : " ",
 178:App/Src/fault_command.c ****                              status.filter.dataValue[index],
 179:App/Src/fault_command.c ****                              status.filter.dataMask[index]);
 180:App/Src/fault_command.c ****   }
 181:App/Src/fault_command.c **** 
 182:App/Src/fault_command.c ****   if (status.responseCaptured != 0U)
 183:App/Src/fault_command.c ****   {
 184:App/Src/fault_command.c ****     FaultCommand_WriteFormat(write,
 185:App/Src/fault_command.c ****                              context,
 186:App/Src/fault_command.c ****                              " t2=%lums delay=%lums id=0x%lX ext=%u len=%u data=",
 187:App/Src/fault_command.c ****                              (unsigned long)status.responseTick,
 188:App/Src/fault_command.c ****                              (unsigned long)status.responseDelayMs,
 189:App/Src/fault_command.c ****                              (unsigned long)status.responseCanId,
 190:App/Src/fault_command.c ****                              status.responseCanIsExtended,
 191:App/Src/fault_command.c ****                              status.responseCanLength);
 192:App/Src/fault_command.c ****     for (uint8_t index = 0U; index < status.responseCanLength; index++)
 193:App/Src/fault_command.c ****     {
 194:App/Src/fault_command.c ****       FaultCommand_WriteFormat(write,
 195:App/Src/fault_command.c ****                                context,
 196:App/Src/fault_command.c ****                                "%02X%s",
 197:App/Src/fault_command.c ****                                status.responseCanData[index],
 198:App/Src/fault_command.c ****                                (index + 1U == status.responseCanLength) ? "" : " ");
ARM GAS  C:\Users\hh\AppData\Local\Temp\ccntMbQq.s 			page 16


 199:App/Src/fault_command.c ****     }
 200:App/Src/fault_command.c ****   }
 201:App/Src/fault_command.c **** 
 202:App/Src/fault_command.c ****   FaultCommand_Write(write, context, "\r\n");
 203:App/Src/fault_command.c **** }
 204:App/Src/fault_command.c **** 
 205:App/Src/fault_command.c **** static void FaultCommand_WriteTextSafetyStatus(FaultCommand_WriteFn write, void *context)
 206:App/Src/fault_command.c **** {
 207:App/Src/fault_command.c ****   DacSafety_Status status = DacSafety_GetStatus();
 208:App/Src/fault_command.c **** 
 209:App/Src/fault_command.c ****   FaultCommand_WriteFormat(write,
 210:App/Src/fault_command.c ****                            context,
 211:App/Src/fault_command.c ****                            "\r\n[safe] emergency=%u safe_mv=%u alarm_pin=%u alarm_active=%u alarm_l
 212:App/Src/fault_command.c ****                            status.emergencyActive,
 213:App/Src/fault_command.c ****                            status.safeMillivolts,
 214:App/Src/fault_command.c ****                            status.alarmPinState,
 215:App/Src/fault_command.c ****                            status.alarmActive,
 216:App/Src/fault_command.c ****                            status.alarmLatched,
 217:App/Src/fault_command.c ****                            (unsigned long)status.alarmCount,
 218:App/Src/fault_command.c ****                            (unsigned long)status.lastAlarmTick);
 219:App/Src/fault_command.c **** }
 220:App/Src/fault_command.c **** 
 221:App/Src/fault_command.c **** static void FaultCommand_WriteTextSramStatus(FaultCommand_WriteFn write, void *context)
 222:App/Src/fault_command.c **** {
 223:App/Src/fault_command.c ****   BspSram_Status status = BspSram_GetStatus();
 224:App/Src/fault_command.c **** 
 225:App/Src/fault_command.c ****   FaultCommand_WriteFormat(write,
 226:App/Src/fault_command.c ****                            context,
 227:App/Src/fault_command.c ****                            "\r\n[sram] base=0x%08lX size=%lubytes bus=%u-bit last=%s test_bytes=%lu
 228:App/Src/fault_command.c ****                            (unsigned long)status.baseAddress,
 229:App/Src/fault_command.c ****                            (unsigned long)status.sizeBytes,
 230:App/Src/fault_command.c ****                            status.busWidthBits,
 231:App/Src/fault_command.c ****                            BspSram_GetResultName(status.lastResult),
 232:App/Src/fault_command.c ****                            (unsigned long)status.lastTestBytes,
 233:App/Src/fault_command.c ****                            (unsigned long)status.passCount,
 234:App/Src/fault_command.c ****                            (unsigned long)status.failCount,
 235:App/Src/fault_command.c ****                            (unsigned long)status.lastTestTick);
 236:App/Src/fault_command.c **** 
 237:App/Src/fault_command.c ****   if (status.lastResult == HAL_ERROR)
 238:App/Src/fault_command.c ****   {
 239:App/Src/fault_command.c ****     FaultCommand_WriteFormat(write,
 240:App/Src/fault_command.c ****                              context,
 241:App/Src/fault_command.c ****                              " fail_addr=0x%08lX expected=0x%04X actual=0x%04X",
 242:App/Src/fault_command.c ****                              (unsigned long)status.lastFailedAddress,
 243:App/Src/fault_command.c ****                              status.expected,
 244:App/Src/fault_command.c ****                              status.actual);
 245:App/Src/fault_command.c ****   }
 246:App/Src/fault_command.c **** 
 247:App/Src/fault_command.c ****   FaultCommand_Write(write, context, "\r\n");
 248:App/Src/fault_command.c **** }
 249:App/Src/fault_command.c **** 
 250:App/Src/fault_command.c **** static void FaultCommand_WriteTextStatus(FaultCommand_WriteFn write, void *context)
 251:App/Src/fault_command.c **** {
 252:App/Src/fault_command.c ****   DacSafety_Status safety = DacSafety_GetStatus();
 253:App/Src/fault_command.c **** 
 254:App/Src/fault_command.c ****   FaultCommand_WriteFormat(write, context, "\r\n[status] active_faults=%u\r\n",
 255:App/Src/fault_command.c ****                            VoltageSim_GetActiveFaultCount());
ARM GAS  C:\Users\hh\AppData\Local\Temp\ccntMbQq.s 			page 17


 256:App/Src/fault_command.c ****   FaultCommand_WriteFormat(write,
 257:App/Src/fault_command.c ****                            context,
 258:App/Src/fault_command.c ****                            "  safety emergency=%u safe=%umV alarm_active=%u alarm_latched=%u alarm_
 259:App/Src/fault_command.c ****                            safety.emergencyActive,
 260:App/Src/fault_command.c ****                            safety.safeMillivolts,
 261:App/Src/fault_command.c ****                            safety.alarmActive,
 262:App/Src/fault_command.c ****                            safety.alarmLatched,
 263:App/Src/fault_command.c ****                            (unsigned long)safety.alarmCount);
 264:App/Src/fault_command.c **** 
 265:App/Src/fault_command.c ****   for (uint8_t cell = 1U; cell <= VOLTAGE_SIM_CELL_COUNT; cell++)
 266:App/Src/fault_command.c ****   {
 267:App/Src/fault_command.c ****     VoltageSim_CellFaultInfo info = VoltageSim_GetCellFaultInfo(cell);
 268:App/Src/fault_command.c **** 
 269:App/Src/fault_command.c ****     FaultCommand_WriteFormat(write, context, "  C%02u=%umV",
 270:App/Src/fault_command.c ****                              cell,
 271:App/Src/fault_command.c ****                              VoltageSim_GetLastCellVoltageMv(cell));
 272:App/Src/fault_command.c ****     if (VoltageSim_GetCellCalibrationOffsetMv(cell) != 0)
 273:App/Src/fault_command.c ****     {
 274:App/Src/fault_command.c ****       FaultCommand_WriteFormat(write,
 275:App/Src/fault_command.c ****                                context,
 276:App/Src/fault_command.c ****                                " cal=%dmV",
 277:App/Src/fault_command.c ****                                (int)VoltageSim_GetCellCalibrationOffsetMv(cell));
 278:App/Src/fault_command.c ****     }
 279:App/Src/fault_command.c ****     if (info.type != VOLTAGE_SIM_FAULT_NONE)
 280:App/Src/fault_command.c ****     {
 281:App/Src/fault_command.c ****       FaultCommand_WriteFormat(write,
 282:App/Src/fault_command.c ****                                context,
 283:App/Src/fault_command.c ****                                " fault=%s target=%umV restore=%umV duration=%lums slew=%umV/ms",
 284:App/Src/fault_command.c ****                                VoltageSim_GetFaultTypeName(info.type),
 285:App/Src/fault_command.c ****                                info.targetMillivolts,
 286:App/Src/fault_command.c ****                                info.restoreMillivolts,
 287:App/Src/fault_command.c ****                                (unsigned long)info.durationMs,
 288:App/Src/fault_command.c ****                                info.slewRateMvPerMs);
 289:App/Src/fault_command.c ****     }
 290:App/Src/fault_command.c ****     FaultCommand_Write(write, context, "\r\n");
 291:App/Src/fault_command.c ****   }
 292:App/Src/fault_command.c **** }
 293:App/Src/fault_command.c **** 
 294:App/Src/fault_command.c **** static void FaultCommand_WriteTextCalibrationStatus(FaultCommand_WriteFn write, void *context)
 295:App/Src/fault_command.c **** {
 296:App/Src/fault_command.c ****   FaultCommand_Write(write, context, "\r\n[cal]\r\n");
 297:App/Src/fault_command.c **** 
 298:App/Src/fault_command.c ****   for (uint8_t cell = 1U; cell <= VOLTAGE_SIM_CELL_COUNT; cell++)
 299:App/Src/fault_command.c ****   {
 300:App/Src/fault_command.c ****     FaultCommand_WriteFormat(write,
 301:App/Src/fault_command.c ****                              context,
 302:App/Src/fault_command.c ****                              "  C%02u offset=%dmV\r\n",
 303:App/Src/fault_command.c ****                              cell,
 304:App/Src/fault_command.c ****                              (int)VoltageSim_GetCellCalibrationOffsetMv(cell));
 305:App/Src/fault_command.c ****   }
 306:App/Src/fault_command.c **** }
 307:App/Src/fault_command.c **** 
 308:App/Src/fault_command.c **** static void FaultCommand_WriteTextResult(FaultCommand_WriteFn write,
 309:App/Src/fault_command.c ****                                          void *context,
 310:App/Src/fault_command.c ****                                          const char *name,
 311:App/Src/fault_command.c ****                                          HAL_StatusTypeDef status)
 312:App/Src/fault_command.c **** {
ARM GAS  C:\Users\hh\AppData\Local\Temp\ccntMbQq.s 			page 18


 313:App/Src/fault_command.c ****   FaultCommand_WriteFormat(write, context, "[cmd] %s %s\r\n",
 314:App/Src/fault_command.c ****                            name,
 315:App/Src/fault_command.c ****                            (status == HAL_OK) ? "OK" : "ERR");
 316:App/Src/fault_command.c **** }
 317:App/Src/fault_command.c **** 
 318:App/Src/fault_command.c **** static void FaultCommand_WriteJsonResult(FaultCommand_WriteFn write,
 319:App/Src/fault_command.c ****                                          void *context,
 320:App/Src/fault_command.c ****                                          const char *cmd,
 321:App/Src/fault_command.c ****                                          HAL_StatusTypeDef status)
 322:App/Src/fault_command.c **** {
 323:App/Src/fault_command.c ****   FaultCommand_WriteFormat(write, context, "{\"ok\":%s,\"cmd\":\"%s\"}\r\n",
 324:App/Src/fault_command.c ****                            (status == HAL_OK) ? "true" : "false",
 325:App/Src/fault_command.c ****                            cmd);
 326:App/Src/fault_command.c **** }
 327:App/Src/fault_command.c **** 
 328:App/Src/fault_command.c **** static void FaultCommand_WriteJsonStatus(FaultCommand_WriteFn write, void *context)
 329:App/Src/fault_command.c **** {
 330:App/Src/fault_command.c ****   WaveformGen_Status waveform = WaveformGen_GetStatus();
 331:App/Src/fault_command.c ****   DacSafety_Status safety = DacSafety_GetStatus();
 332:App/Src/fault_command.c **** 
 333:App/Src/fault_command.c ****   FaultCommand_WriteFormat(write,
 334:App/Src/fault_command.c ****                            context,
 335:App/Src/fault_command.c ****                            "{\"ok\":true,\"active_faults\":%u,\"safety\":{\"emergency\":%u,\"safe_m
 336:App/Src/fault_command.c ****                            VoltageSim_GetActiveFaultCount(),
 337:App/Src/fault_command.c ****                            safety.emergencyActive,
 338:App/Src/fault_command.c ****                            safety.safeMillivolts,
 339:App/Src/fault_command.c ****                            safety.alarmActive,
 340:App/Src/fault_command.c ****                            safety.alarmLatched,
 341:App/Src/fault_command.c ****                            (unsigned long)safety.alarmCount,
 342:App/Src/fault_command.c ****                            waveform.active,
 343:App/Src/fault_command.c ****                            WaveformGen_GetTypeName(waveform.type),
 344:App/Src/fault_command.c ****                            waveform.cell,
 345:App/Src/fault_command.c ****                            (unsigned long)waveform.periodMs,
 346:App/Src/fault_command.c ****                            waveform.lastMillivolts);
 347:App/Src/fault_command.c **** 
 348:App/Src/fault_command.c ****   for (uint8_t cell = 1U; cell <= VOLTAGE_SIM_CELL_COUNT; cell++)
 349:App/Src/fault_command.c ****   {
 350:App/Src/fault_command.c ****     VoltageSim_CellFaultInfo info = VoltageSim_GetCellFaultInfo(cell);
 351:App/Src/fault_command.c **** 
 352:App/Src/fault_command.c ****     FaultCommand_WriteFormat(write,
 353:App/Src/fault_command.c ****                              context,
 354:App/Src/fault_command.c ****                              "%s{\"cell\":%u,\"mv\":%u,\"cal_mv\":%d,\"fault\":\"%s\",\"target_mv\"
 355:App/Src/fault_command.c ****                              (cell == 1U) ? "" : ",",
 356:App/Src/fault_command.c ****                              cell,
 357:App/Src/fault_command.c ****                              VoltageSim_GetLastCellVoltageMv(cell),
 358:App/Src/fault_command.c ****                              (int)VoltageSim_GetCellCalibrationOffsetMv(cell),
 359:App/Src/fault_command.c ****                              VoltageSim_GetFaultTypeName(info.type),
 360:App/Src/fault_command.c ****                              info.targetMillivolts,
 361:App/Src/fault_command.c ****                              info.restoreMillivolts,
 362:App/Src/fault_command.c ****                              (unsigned long)info.durationMs,
 363:App/Src/fault_command.c ****                              info.slewRateMvPerMs);
 364:App/Src/fault_command.c ****   }
 365:App/Src/fault_command.c **** 
 366:App/Src/fault_command.c ****   FaultCommand_Write(write, context, "]}\r\n");
 367:App/Src/fault_command.c **** }
 368:App/Src/fault_command.c **** 
 369:App/Src/fault_command.c **** static void FaultCommand_WriteJsonCanStatus(FaultCommand_WriteFn write, void *context)
ARM GAS  C:\Users\hh\AppData\Local\Temp\ccntMbQq.s 			page 19


 370:App/Src/fault_command.c **** {
 371:App/Src/fault_command.c ****   BspCan_Status status = BspCan_GetStatus();
 372:App/Src/fault_command.c **** 
 373:App/Src/fault_command.c ****   FaultCommand_WriteFormat(write,
 374:App/Src/fault_command.c ****                            context,
 375:App/Src/fault_command.c ****                            "{\"ok\":true,\"can\":{\"started\":%u,\"tx\":%lu,\"rx\":%lu,\"err\":%lu,
 376:App/Src/fault_command.c ****                            status.started,
 377:App/Src/fault_command.c ****                            (unsigned long)status.txCount,
 378:App/Src/fault_command.c ****                            (unsigned long)status.rxCount,
 379:App/Src/fault_command.c ****                            (unsigned long)status.errorCount,
 380:App/Src/fault_command.c ****                            (unsigned long)status.lastRxId,
 381:App/Src/fault_command.c ****                            (unsigned long)status.lastRxId,
 382:App/Src/fault_command.c ****                            status.lastRxIsExtended,
 383:App/Src/fault_command.c ****                            status.lastRxLength,
 384:App/Src/fault_command.c ****                            (unsigned long)status.lastRxTick);
 385:App/Src/fault_command.c **** 
 386:App/Src/fault_command.c ****   for (uint8_t index = 0U; index < status.lastRxLength; index++)
 387:App/Src/fault_command.c ****   {
 388:App/Src/fault_command.c ****     FaultCommand_WriteFormat(write,
 389:App/Src/fault_command.c ****                              context,
 390:App/Src/fault_command.c ****                              "%s%u",
 391:App/Src/fault_command.c ****                              (index == 0U) ? "" : ",",
 392:App/Src/fault_command.c ****                              status.lastRxData[index]);
 393:App/Src/fault_command.c ****   }
 394:App/Src/fault_command.c ****   FaultCommand_Write(write, context, "]}}\r\n");
 395:App/Src/fault_command.c **** }
 396:App/Src/fault_command.c **** 
 397:App/Src/fault_command.c **** static void FaultCommand_WriteJsonBmsResponseLog(FaultCommand_WriteFn write, void *context)
 398:App/Src/fault_command.c **** {
 399:App/Src/fault_command.c ****   BmsResponseLog_Status status = BmsResponseLog_GetStatus();
 400:App/Src/fault_command.c **** 
 401:App/Src/fault_command.c ****   FaultCommand_WriteFormat(write,
 402:App/Src/fault_command.c ****                            context,
 403:App/Src/fault_command.c ****                            "{\"ok\":true,\"log\":{\"armed\":%u,\"trigger\":\"%s\",\"trigger_tick\":
 404:App/Src/fault_command.c ****                            status.armed,
 405:App/Src/fault_command.c ****                            BmsResponseLog_GetTriggerName(status.triggerType),
 406:App/Src/fault_command.c ****                            (unsigned long)status.triggerTick);
 407:App/Src/fault_command.c ****   FaultCommand_WriteFormat(write,
 408:App/Src/fault_command.c ****                            context,
 409:App/Src/fault_command.c ****                            "\"primary_cell\":%u,\"primary_mv\":%u,\"secondary_cell\":%u,\"secondary
 410:App/Src/fault_command.c ****                            status.primaryCell,
 411:App/Src/fault_command.c ****                            status.primaryMillivolts,
 412:App/Src/fault_command.c ****                            status.secondaryCell,
 413:App/Src/fault_command.c ****                            status.secondaryMillivolts);
 414:App/Src/fault_command.c ****   FaultCommand_WriteFormat(write,
 415:App/Src/fault_command.c ****                            context,
 416:App/Src/fault_command.c ****                            "\"can_after\":%lu,\"filter_miss\":%lu,\"captured\":%u,",
 417:App/Src/fault_command.c ****                            (unsigned long)status.canFramesAfterTrigger,
 418:App/Src/fault_command.c ****                            (unsigned long)status.filterMissCount,
 419:App/Src/fault_command.c ****                            status.responseCaptured);
 420:App/Src/fault_command.c ****   FaultCommand_WriteFormat(write,
 421:App/Src/fault_command.c ****                            context,
 422:App/Src/fault_command.c ****                            "\"filter\":{\"enabled\":%u,\"extended\":%u,\"id\":%lu,\"id_hex\":\"0x%l
 423:App/Src/fault_command.c ****                            status.filter.enabled,
 424:App/Src/fault_command.c ****                            status.filter.isExtended,
 425:App/Src/fault_command.c ****                            (unsigned long)status.filter.id,
 426:App/Src/fault_command.c ****                            (unsigned long)status.filter.id);
ARM GAS  C:\Users\hh\AppData\Local\Temp\ccntMbQq.s 			page 20


 427:App/Src/fault_command.c ****   FaultCommand_WriteFormat(write,
 428:App/Src/fault_command.c ****                            context,
 429:App/Src/fault_command.c ****                            "\"mask\":%lu,\"mask_hex\":\"0x%lX\",\"min_len\":%u},",
 430:App/Src/fault_command.c ****                            (unsigned long)status.filter.mask,
 431:App/Src/fault_command.c ****                            (unsigned long)status.filter.mask,
 432:App/Src/fault_command.c ****                            status.filter.minLength);
 433:App/Src/fault_command.c ****   FaultCommand_WriteFormat(write,
 434:App/Src/fault_command.c ****                            context,
 435:App/Src/fault_command.c ****                            "\"response_tick\":%lu,\"delay_ms\":%lu,\"response_id\":%lu,\"response_i
 436:App/Src/fault_command.c ****                            (unsigned long)status.responseTick,
 437:App/Src/fault_command.c ****                            (unsigned long)status.responseDelayMs,
 438:App/Src/fault_command.c ****                            (unsigned long)status.responseCanId,
 439:App/Src/fault_command.c ****                            (unsigned long)status.responseCanId);
 440:App/Src/fault_command.c ****   FaultCommand_WriteFormat(write,
 441:App/Src/fault_command.c ****                            context,
 442:App/Src/fault_command.c ****                            "\"response_ext\":%u,\"response_len\":%u,\"response_data\":[",
 443:App/Src/fault_command.c ****                            status.responseCanIsExtended,
 444:App/Src/fault_command.c ****                            status.responseCanLength);
 445:App/Src/fault_command.c **** 
 446:App/Src/fault_command.c ****   for (uint8_t index = 0U; index < status.responseCanLength; index++)
 447:App/Src/fault_command.c ****   {
 448:App/Src/fault_command.c ****     FaultCommand_WriteFormat(write,
 449:App/Src/fault_command.c ****                              context,
 450:App/Src/fault_command.c ****                              "%s%u",
 451:App/Src/fault_command.c ****                              (index == 0U) ? "" : ",",
 452:App/Src/fault_command.c ****                              status.responseCanData[index]);
 453:App/Src/fault_command.c ****   }
 454:App/Src/fault_command.c ****   FaultCommand_Write(write, context, "]}}\r\n");
 455:App/Src/fault_command.c **** }
 456:App/Src/fault_command.c **** 
 457:App/Src/fault_command.c **** static void FaultCommand_WriteJsonSafetyStatus(FaultCommand_WriteFn write, void *context)
 458:App/Src/fault_command.c **** {
 459:App/Src/fault_command.c ****   DacSafety_Status status = DacSafety_GetStatus();
 460:App/Src/fault_command.c **** 
 461:App/Src/fault_command.c ****   FaultCommand_WriteFormat(write,
 462:App/Src/fault_command.c ****                            context,
 463:App/Src/fault_command.c ****                            "{\"ok\":true,\"safe\":{\"emergency\":%u,\"safe_mv\":%u,\"alarm_pin\":%u
 464:App/Src/fault_command.c ****                            status.emergencyActive,
 465:App/Src/fault_command.c ****                            status.safeMillivolts,
 466:App/Src/fault_command.c ****                            status.alarmPinState,
 467:App/Src/fault_command.c ****                            status.alarmActive,
 468:App/Src/fault_command.c ****                            status.alarmLatched,
 469:App/Src/fault_command.c ****                            (unsigned long)status.alarmCount,
 470:App/Src/fault_command.c ****                            (unsigned long)status.lastAlarmTick);
 471:App/Src/fault_command.c **** }
 472:App/Src/fault_command.c **** 
 473:App/Src/fault_command.c **** static void FaultCommand_WriteJsonSramStatus(FaultCommand_WriteFn write,
 474:App/Src/fault_command.c ****                                              void *context,
 475:App/Src/fault_command.c ****                                              HAL_StatusTypeDef commandResult)
 476:App/Src/fault_command.c **** {
 477:App/Src/fault_command.c ****   BspSram_Status status = BspSram_GetStatus();
 478:App/Src/fault_command.c **** 
 479:App/Src/fault_command.c ****   FaultCommand_WriteFormat(write,
 480:App/Src/fault_command.c ****                            context,
 481:App/Src/fault_command.c ****                            "{\"ok\":%s,\"sram\":{\"base\":%lu,\"base_hex\":\"0x%08lX\",",
 482:App/Src/fault_command.c ****                            (commandResult == HAL_OK) ? "true" : "false",
 483:App/Src/fault_command.c ****                            (unsigned long)status.baseAddress,
ARM GAS  C:\Users\hh\AppData\Local\Temp\ccntMbQq.s 			page 21


 484:App/Src/fault_command.c ****                            (unsigned long)status.baseAddress);
 485:App/Src/fault_command.c ****   FaultCommand_WriteFormat(write,
 486:App/Src/fault_command.c ****                            context,
 487:App/Src/fault_command.c ****                            "\"size_bytes\":%lu,\"bus_width_bits\":%u,\"last\":\"%s\",",
 488:App/Src/fault_command.c ****                            (unsigned long)status.sizeBytes,
 489:App/Src/fault_command.c ****                            status.busWidthBits,
 490:App/Src/fault_command.c ****                            BspSram_GetResultName(status.lastResult));
 491:App/Src/fault_command.c ****   FaultCommand_WriteFormat(write,
 492:App/Src/fault_command.c ****                            context,
 493:App/Src/fault_command.c ****                            "\"test_bytes\":%lu,\"pass\":%lu,\"fail\":%lu,\"tick\":%lu,",
 494:App/Src/fault_command.c ****                            (unsigned long)status.lastTestBytes,
 495:App/Src/fault_command.c ****                            (unsigned long)status.passCount,
 496:App/Src/fault_command.c ****                            (unsigned long)status.failCount,
 497:App/Src/fault_command.c ****                            (unsigned long)status.lastTestTick);
 498:App/Src/fault_command.c ****   FaultCommand_WriteFormat(write,
 499:App/Src/fault_command.c ****                            context,
 500:App/Src/fault_command.c ****                            "\"fail_addr\":%lu,\"fail_addr_hex\":\"0x%08lX\",",
 501:App/Src/fault_command.c ****                            (unsigned long)status.lastFailedAddress,
 502:App/Src/fault_command.c ****                            (unsigned long)status.lastFailedAddress);
 503:App/Src/fault_command.c ****   FaultCommand_WriteFormat(write,
 504:App/Src/fault_command.c ****                            context,
 505:App/Src/fault_command.c ****                            "\"expected\":%u,\"actual\":%u}}\r\n",
 506:App/Src/fault_command.c ****                            status.expected,
 507:App/Src/fault_command.c ****                            status.actual);
 508:App/Src/fault_command.c **** }
 509:App/Src/fault_command.c **** 
 510:App/Src/fault_command.c **** static HAL_StatusTypeDef FaultCommand_RunNormal(uint16_t millivolts)
 511:App/Src/fault_command.c **** {
 512:App/Src/fault_command.c ****   if (DacSafety_IsOutputAllowed() == 0U)
 513:App/Src/fault_command.c ****   {
 514:App/Src/fault_command.c ****     return HAL_BUSY;
 515:App/Src/fault_command.c ****   }
 516:App/Src/fault_command.c **** 
 517:App/Src/fault_command.c ****   FaultCommand_StopAllWaveforms();
 518:App/Src/fault_command.c ****   return VoltageSim_SetAllCellsVoltageMv(millivolts);
 519:App/Src/fault_command.c **** }
 520:App/Src/fault_command.c **** 
 521:App/Src/fault_command.c **** static HAL_StatusTypeDef FaultCommand_RunSet(uint8_t cell, uint16_t millivolts)
 522:App/Src/fault_command.c **** {
 523:App/Src/fault_command.c ****   if (DacSafety_IsOutputAllowed() == 0U)
 524:App/Src/fault_command.c ****   {
 525:App/Src/fault_command.c ****     return HAL_BUSY;
 526:App/Src/fault_command.c ****   }
 527:App/Src/fault_command.c **** 
 528:App/Src/fault_command.c ****   FaultCommand_StopAllWaveforms();
 529:App/Src/fault_command.c ****   return VoltageSim_SetCellVoltageMv(cell, millivolts);
 530:App/Src/fault_command.c **** }
 531:App/Src/fault_command.c **** 
 532:App/Src/fault_command.c **** static HAL_StatusTypeDef FaultCommand_RunCalibrationTrim(uint8_t cell,
 533:App/Src/fault_command.c ****                                                          uint16_t targetMillivolts,
 534:App/Src/fault_command.c ****                                                          uint16_t measuredMillivolts)
 535:App/Src/fault_command.c **** {
 514              		.loc 1 535 1 is_stmt 1 view -0
 515              		.cfi_startproc
 516              		@ args = 0, pretend = 0, frame = 0
 517              		@ frame_needed = 0, uses_anonymous_args = 0
 518              		.loc 1 535 1 is_stmt 0 view .LVU59
ARM GAS  C:\Users\hh\AppData\Local\Temp\ccntMbQq.s 			page 22


 519 0000 70B5     		push	{r4, r5, r6, lr}
 520              	.LCFI3:
 521              		.cfi_def_cfa_offset 16
 522              		.cfi_offset 4, -16
 523              		.cfi_offset 5, -12
 524              		.cfi_offset 6, -8
 525              		.cfi_offset 14, -4
 526 0002 0646     		mov	r6, r0
 527 0004 0D46     		mov	r5, r1
 528 0006 1446     		mov	r4, r2
 536:App/Src/fault_command.c ****   int32_t offset;
 529              		.loc 1 536 3 is_stmt 1 view .LVU60
 537:App/Src/fault_command.c **** 
 538:App/Src/fault_command.c ****   offset = (int32_t)VoltageSim_GetCellCalibrationOffsetMv(cell) +
 530              		.loc 1 538 3 view .LVU61
 531              		.loc 1 538 21 is_stmt 0 view .LVU62
 532 0008 FFF7FEFF 		bl	VoltageSim_GetCellCalibrationOffsetMv
 533              	.LVL45:
 534              		.loc 1 538 65 view .LVU63
 535 000c 2946     		mov	r1, r5
 536 000e 0144     		add	r1, r1, r0
 537              		.loc 1 538 10 view .LVU64
 538 0010 091B     		subs	r1, r1, r4
 539              	.LVL46:
 539:App/Src/fault_command.c ****            (int32_t)targetMillivolts -
 540:App/Src/fault_command.c ****            (int32_t)measuredMillivolts;
 541:App/Src/fault_command.c **** 
 542:App/Src/fault_command.c ****   if ((offset < -VOLTAGE_SIM_CAL_OFFSET_LIMIT_MV) ||
 540              		.loc 1 542 3 is_stmt 1 view .LVU65
 541              		.loc 1 542 51 is_stmt 0 view .LVU66
 542 0012 01F5FA73 		add	r3, r1, #500
 543              		.loc 1 542 6 view .LVU67
 544 0016 B3F57A7F 		cmp	r3, #1000
 545 001a 01D9     		bls	.L19
 543:App/Src/fault_command.c ****       (offset > VOLTAGE_SIM_CAL_OFFSET_LIMIT_MV))
 544:App/Src/fault_command.c ****   {
 545:App/Src/fault_command.c ****     return HAL_ERROR;
 546              		.loc 1 545 12 view .LVU68
 547 001c 0120     		movs	r0, #1
 548              	.LVL47:
 549              	.L16:
 546:App/Src/fault_command.c ****   }
 547:App/Src/fault_command.c **** 
 548:App/Src/fault_command.c ****   return VoltageSim_SetCellCalibrationOffsetMv(cell, (int16_t)offset);
 549:App/Src/fault_command.c **** }
 550              		.loc 1 549 1 view .LVU69
 551 001e 70BD     		pop	{r4, r5, r6, pc}
 552              	.LVL48:
 553              	.L19:
 548:App/Src/fault_command.c **** }
 554              		.loc 1 548 3 is_stmt 1 view .LVU70
 548:App/Src/fault_command.c **** }
 555              		.loc 1 548 10 is_stmt 0 view .LVU71
 556 0020 09B2     		sxth	r1, r1
 557              	.LVL49:
 548:App/Src/fault_command.c **** }
 558              		.loc 1 548 10 view .LVU72
ARM GAS  C:\Users\hh\AppData\Local\Temp\ccntMbQq.s 			page 23


 559 0022 3046     		mov	r0, r6
 560 0024 FFF7FEFF 		bl	VoltageSim_SetCellCalibrationOffsetMv
 561              	.LVL50:
 548:App/Src/fault_command.c **** }
 562              		.loc 1 548 10 view .LVU73
 563 0028 F9E7     		b	.L16
 564              		.cfi_endproc
 565              	.LFE170:
 567              		.section	.text.FaultCommand_WriteFormat,"ax",%progbits
 568              		.align	1
 569              		.syntax unified
 570              		.thumb
 571              		.thumb_func
 573              	FaultCommand_WriteFormat:
 574              	.LVL51:
 575              	.LFB150:
  31:App/Src/fault_command.c ****   char buffer[512];
 576              		.loc 1 31 1 is_stmt 1 view -0
 577              		.cfi_startproc
 578              		@ args = 4, pretend = 8, frame = 520
 579              		@ frame_needed = 0, uses_anonymous_args = 1
  31:App/Src/fault_command.c ****   char buffer[512];
 580              		.loc 1 31 1 is_stmt 0 view .LVU75
 581 0000 0CB4     		push	{r2, r3}
 582              	.LCFI4:
 583              		.cfi_def_cfa_offset 8
 584              		.cfi_offset 2, -8
 585              		.cfi_offset 3, -4
 586 0002 70B5     		push	{r4, r5, r6, lr}
 587              	.LCFI5:
 588              		.cfi_def_cfa_offset 24
 589              		.cfi_offset 4, -24
 590              		.cfi_offset 5, -20
 591              		.cfi_offset 6, -16
 592              		.cfi_offset 14, -12
 593 0004 ADF5027D 		sub	sp, sp, #520
 594              	.LCFI6:
 595              		.cfi_def_cfa_offset 544
 596 0008 0646     		mov	r6, r0
 597 000a 0D46     		mov	r5, r1
 598 000c 86AB     		add	r3, sp, #536
 599 000e 53F8042B 		ldr	r2, [r3], #4
  32:App/Src/fault_command.c ****   va_list args;
 600              		.loc 1 32 3 is_stmt 1 view .LVU76
  33:App/Src/fault_command.c **** 
 601              		.loc 1 33 3 view .LVU77
  35:App/Src/fault_command.c ****   (void)vsnprintf(buffer, sizeof(buffer), format, args);
 602              		.loc 1 35 3 view .LVU78
 603 0012 0193     		str	r3, [sp, #4]
  36:App/Src/fault_command.c ****   va_end(args);
 604              		.loc 1 36 3 view .LVU79
  36:App/Src/fault_command.c ****   va_end(args);
 605              		.loc 1 36 9 is_stmt 0 view .LVU80
 606 0014 02AC     		add	r4, sp, #8
 607 0016 4FF40071 		mov	r1, #512
 608              	.LVL52:
  36:App/Src/fault_command.c ****   va_end(args);
ARM GAS  C:\Users\hh\AppData\Local\Temp\ccntMbQq.s 			page 24


 609              		.loc 1 36 9 view .LVU81
 610 001a 2046     		mov	r0, r4
 611              	.LVL53:
  36:App/Src/fault_command.c ****   va_end(args);
 612              		.loc 1 36 9 view .LVU82
 613 001c FFF7FEFF 		bl	vsnprintf
 614              	.LVL54:
  37:App/Src/fault_command.c **** 
 615              		.loc 1 37 3 is_stmt 1 view .LVU83
  39:App/Src/fault_command.c **** }
 616              		.loc 1 39 3 view .LVU84
 617 0020 2246     		mov	r2, r4
 618 0022 2946     		mov	r1, r5
 619 0024 3046     		mov	r0, r6
 620 0026 FFF7FEFF 		bl	FaultCommand_Write
 621              	.LVL55:
  40:App/Src/fault_command.c **** 
 622              		.loc 1 40 1 is_stmt 0 view .LVU85
 623 002a 0DF5027D 		add	sp, sp, #520
 624              	.LCFI7:
 625              		.cfi_def_cfa_offset 24
 626              		@ sp needed
 627 002e BDE87040 		pop	{r4, r5, r6, lr}
 628              	.LCFI8:
 629              		.cfi_restore 14
 630              		.cfi_restore 6
 631              		.cfi_restore 5
 632              		.cfi_restore 4
 633              		.cfi_def_cfa_offset 8
 634              	.LVL56:
  40:App/Src/fault_command.c **** 
 635              		.loc 1 40 1 view .LVU86
 636 0032 02B0     		add	sp, sp, #8
 637              	.LCFI9:
 638              		.cfi_restore 3
 639              		.cfi_restore 2
 640              		.cfi_def_cfa_offset 0
 641 0034 7047     		bx	lr
 642              		.cfi_endproc
 643              	.LFE150:
 645              		.section	.rodata.FaultCommand_WriteJsonStatus.str1.4,"aMS",%progbits,1
 646              		.align	2
 647              	.LC36:
 648 0000 00       		.ascii	"\000"
 649 0001 000000   		.align	2
 650              	.LC37:
 651 0004 2C00     		.ascii	",\000"
 652 0006 0000     		.align	2
 653              	.LC38:
 654 0008 7B226F6B 		.ascii	"{\"ok\":true,\"active_faults\":%u,\"safety\":{\"eme"
 654      223A7472 
 654      75652C22 
 654      61637469 
 654      76655F66 
 655 0034 7267656E 		.ascii	"rgency\":%u,\"safe_mv\":%u,\"alarm_active\":%u,\"al"
 655      6379223A 
 655      25752C22 
ARM GAS  C:\Users\hh\AppData\Local\Temp\ccntMbQq.s 			page 25


 655      73616665 
 655      5F6D7622 
 656 0061 61726D5F 		.ascii	"arm_latched\":%u,\"alarm_count\":%lu},\"waveform\":"
 656      6C617463 
 656      68656422 
 656      3A25752C 
 656      22616C61 
 657 008f 7B226163 		.ascii	"{\"active\":%u,\"type\":\"%s\",\"cell\":%u,\"period"
 657      74697665 
 657      223A2575 
 657      2C227479 
 657      7065223A 
 658 00b9 5F6D7322 		.ascii	"_ms\":%lu,\"last_mv\":%u},\"cells\":[\000"
 658      3A256C75 
 658      2C226C61 
 658      73745F6D 
 658      76223A25 
 659 00da 0000     		.align	2
 660              	.LC39:
 661 00dc 25737B22 		.ascii	"%s{\"cell\":%u,\"mv\":%u,\"cal_mv\":%d,\"fault\":\""
 661      63656C6C 
 661      223A2575 
 661      2C226D76 
 661      223A2575 
 662 0106 2573222C 		.ascii	"%s\",\"target_mv\":%u,\"restore_mv\":%u,\"duration_"
 662      22746172 
 662      6765745F 
 662      6D76223A 
 662      25752C22 
 663 0133 6D73223A 		.ascii	"ms\":%lu,\"slew_mv_per_ms\":%u}\000"
 663      256C752C 
 663      22736C65 
 663      775F6D76 
 663      5F706572 
 664              		.align	2
 665              	.LC40:
 666 0150 5D7D0D0A 		.ascii	"]}\015\012\000"
 666      00
 667              		.section	.text.FaultCommand_WriteJsonStatus,"ax",%progbits
 668              		.align	1
 669              		.syntax unified
 670              		.thumb
 671              		.thumb_func
 673              	FaultCommand_WriteJsonStatus:
 674              	.LVL57:
 675              	.LFB163:
 329:App/Src/fault_command.c ****   WaveformGen_Status waveform = WaveformGen_GetStatus();
 676              		.loc 1 329 1 is_stmt 1 view -0
 677              		.cfi_startproc
 678              		@ args = 0, pretend = 0, frame = 64
 679              		@ frame_needed = 0, uses_anonymous_args = 0
 329:App/Src/fault_command.c ****   WaveformGen_Status waveform = WaveformGen_GetStatus();
 680              		.loc 1 329 1 is_stmt 0 view .LVU88
 681 0000 2DE9F047 		push	{r4, r5, r6, r7, r8, r9, r10, lr}
 682              	.LCFI10:
 683              		.cfi_def_cfa_offset 32
 684              		.cfi_offset 4, -32
ARM GAS  C:\Users\hh\AppData\Local\Temp\ccntMbQq.s 			page 26


 685              		.cfi_offset 5, -28
 686              		.cfi_offset 6, -24
 687              		.cfi_offset 7, -20
 688              		.cfi_offset 8, -16
 689              		.cfi_offset 9, -12
 690              		.cfi_offset 10, -8
 691              		.cfi_offset 14, -4
 692 0004 9AB0     		sub	sp, sp, #104
 693              	.LCFI11:
 694              		.cfi_def_cfa_offset 136
 695 0006 0446     		mov	r4, r0
 696 0008 0D46     		mov	r5, r1
 330:App/Src/fault_command.c ****   DacSafety_Status safety = DacSafety_GetStatus();
 697              		.loc 1 330 3 is_stmt 1 view .LVU89
 330:App/Src/fault_command.c ****   DacSafety_Status safety = DacSafety_GetStatus();
 698              		.loc 1 330 33 is_stmt 0 view .LVU90
 699 000a 15A8     		add	r0, sp, #84
 700              	.LVL58:
 330:App/Src/fault_command.c ****   DacSafety_Status safety = DacSafety_GetStatus();
 701              		.loc 1 330 33 view .LVU91
 702 000c FFF7FEFF 		bl	WaveformGen_GetStatus
 703              	.LVL59:
 331:App/Src/fault_command.c **** 
 704              		.loc 1 331 3 is_stmt 1 view .LVU92
 331:App/Src/fault_command.c **** 
 705              		.loc 1 331 29 is_stmt 0 view .LVU93
 706 0010 11A8     		add	r0, sp, #68
 707 0012 FFF7FEFF 		bl	DacSafety_GetStatus
 708              	.LVL60:
 333:App/Src/fault_command.c ****                            context,
 709              		.loc 1 333 3 is_stmt 1 view .LVU94
 336:App/Src/fault_command.c ****                            safety.emergencyActive,
 710              		.loc 1 336 28 is_stmt 0 view .LVU95
 711 0016 FFF7FEFF 		bl	VoltageSim_GetActiveFaultCount
 712              	.LVL61:
 713 001a 8246     		mov	r10, r0
 337:App/Src/fault_command.c ****                            safety.safeMillivolts,
 714              		.loc 1 337 34 view .LVU96
 715 001c 9DF84460 		ldrb	r6, [sp, #68]	@ zero_extendqisi2
 338:App/Src/fault_command.c ****                            safety.alarmActive,
 716              		.loc 1 338 34 view .LVU97
 717 0020 BDF85070 		ldrh	r7, [sp, #80]
 339:App/Src/fault_command.c ****                            safety.alarmLatched,
 718              		.loc 1 339 34 view .LVU98
 719 0024 9DF84690 		ldrb	r9, [sp, #70]	@ zero_extendqisi2
 340:App/Src/fault_command.c ****                            (unsigned long)safety.alarmCount,
 720              		.loc 1 340 34 view .LVU99
 721 0028 9DF84780 		ldrb	r8, [sp, #71]	@ zero_extendqisi2
 341:App/Src/fault_command.c ****                            waveform.active,
 722              		.loc 1 341 49 view .LVU100
 723 002c 129A     		ldr	r2, [sp, #72]
 724 002e 0A92     		str	r2, [sp, #40]
 342:App/Src/fault_command.c ****                            WaveformGen_GetTypeName(waveform.type),
 725              		.loc 1 342 36 view .LVU101
 726 0030 9DF85510 		ldrb	r1, [sp, #85]	@ zero_extendqisi2
 727 0034 0B91     		str	r1, [sp, #44]
 333:App/Src/fault_command.c ****                            context,
ARM GAS  C:\Users\hh\AppData\Local\Temp\ccntMbQq.s 			page 27


 728              		.loc 1 333 3 view .LVU102
 729 0036 9DF85400 		ldrb	r0, [sp, #84]	@ zero_extendqisi2
 730 003a FFF7FEFF 		bl	WaveformGen_GetTypeName
 731              	.LVL62:
 344:App/Src/fault_command.c ****                            (unsigned long)waveform.periodMs,
 732              		.loc 1 344 36 view .LVU103
 733 003e 9DF85630 		ldrb	r3, [sp, #86]	@ zero_extendqisi2
 346:App/Src/fault_command.c **** 
 734              		.loc 1 346 36 view .LVU104
 735 0042 BDF86420 		ldrh	r2, [sp, #100]
 333:App/Src/fault_command.c ****                            context,
 736              		.loc 1 333 3 view .LVU105
 737 0046 0992     		str	r2, [sp, #36]
 738 0048 189A     		ldr	r2, [sp, #96]
 739 004a 0892     		str	r2, [sp, #32]
 740 004c 0793     		str	r3, [sp, #28]
 741 004e 0690     		str	r0, [sp, #24]
 742 0050 0B99     		ldr	r1, [sp, #44]
 743 0052 0591     		str	r1, [sp, #20]
 744 0054 0A9A     		ldr	r2, [sp, #40]
 745 0056 0492     		str	r2, [sp, #16]
 746 0058 CDF80C80 		str	r8, [sp, #12]
 747 005c CDF80890 		str	r9, [sp, #8]
 748 0060 0197     		str	r7, [sp, #4]
 749 0062 0096     		str	r6, [sp]
 750 0064 5346     		mov	r3, r10
 751 0066 204A     		ldr	r2, .L30
 752 0068 2946     		mov	r1, r5
 753 006a 2046     		mov	r0, r4
 754 006c FFF7FEFF 		bl	FaultCommand_WriteFormat
 755              	.LVL63:
 348:App/Src/fault_command.c ****   {
 756              		.loc 1 348 3 is_stmt 1 view .LVU106
 757              	.LBB2:
 348:App/Src/fault_command.c ****   {
 758              		.loc 1 348 8 view .LVU107
 348:App/Src/fault_command.c ****   {
 759              		.loc 1 348 16 is_stmt 0 view .LVU108
 760 0070 0126     		movs	r6, #1
 348:App/Src/fault_command.c ****   {
 761              		.loc 1 348 3 view .LVU109
 762 0072 25E0     		b	.L23
 763              	.LVL64:
 764              	.L29:
 765              	.LBB3:
 352:App/Src/fault_command.c ****                              context,
 766              		.loc 1 352 5 discriminator 1 view .LVU110
 767 0074 DFF87C90 		ldr	r9, .L30+12
 768              	.L24:
 357:App/Src/fault_command.c ****                              (int)VoltageSim_GetCellCalibrationOffsetMv(cell),
 769              		.loc 1 357 30 view .LVU111
 770 0078 3046     		mov	r0, r6
 771 007a FFF7FEFF 		bl	VoltageSim_GetLastCellVoltageMv
 772              	.LVL65:
 773 007e 0746     		mov	r7, r0
 358:App/Src/fault_command.c ****                              VoltageSim_GetFaultTypeName(info.type),
 774              		.loc 1 358 35 view .LVU112
ARM GAS  C:\Users\hh\AppData\Local\Temp\ccntMbQq.s 			page 28


 775 0080 3046     		mov	r0, r6
 776 0082 FFF7FEFF 		bl	VoltageSim_GetCellCalibrationOffsetMv
 777              	.LVL66:
 778 0086 8046     		mov	r8, r0
 352:App/Src/fault_command.c ****                              context,
 779              		.loc 1 352 5 discriminator 4 view .LVU113
 780 0088 9DF83400 		ldrb	r0, [sp, #52]	@ zero_extendqisi2
 781 008c FFF7FEFF 		bl	VoltageSim_GetFaultTypeName
 782              	.LVL67:
 360:App/Src/fault_command.c ****                              info.restoreMillivolts,
 783              		.loc 1 360 34 view .LVU114
 784 0090 BDF83630 		ldrh	r3, [sp, #54]
 361:App/Src/fault_command.c ****                              (unsigned long)info.durationMs,
 785              		.loc 1 361 34 view .LVU115
 786 0094 BDF83820 		ldrh	r2, [sp, #56]
 363:App/Src/fault_command.c ****   }
 787              		.loc 1 363 34 view .LVU116
 788 0098 BDF84010 		ldrh	r1, [sp, #64]
 352:App/Src/fault_command.c ****                              context,
 789              		.loc 1 352 5 discriminator 4 view .LVU117
 790 009c 0791     		str	r1, [sp, #28]
 791 009e 0F99     		ldr	r1, [sp, #60]
 792 00a0 0691     		str	r1, [sp, #24]
 793 00a2 0592     		str	r2, [sp, #20]
 794 00a4 0493     		str	r3, [sp, #16]
 795 00a6 0390     		str	r0, [sp, #12]
 796 00a8 CDF80880 		str	r8, [sp, #8]
 797 00ac 0197     		str	r7, [sp, #4]
 798 00ae 0096     		str	r6, [sp]
 799 00b0 4B46     		mov	r3, r9
 800 00b2 0E4A     		ldr	r2, .L30+4
 801 00b4 2946     		mov	r1, r5
 802 00b6 2046     		mov	r0, r4
 803 00b8 FFF7FEFF 		bl	FaultCommand_WriteFormat
 804              	.LVL68:
 805              	.LBE3:
 348:App/Src/fault_command.c ****   {
 806              		.loc 1 348 63 is_stmt 1 discriminator 2 view .LVU118
 807 00bc 0136     		adds	r6, r6, #1
 808              	.LVL69:
 348:App/Src/fault_command.c ****   {
 809              		.loc 1 348 63 is_stmt 0 discriminator 2 view .LVU119
 810 00be F6B2     		uxtb	r6, r6
 811              	.LVL70:
 812              	.L23:
 348:App/Src/fault_command.c ****   {
 813              		.loc 1 348 32 is_stmt 1 discriminator 1 view .LVU120
 814 00c0 0D2E     		cmp	r6, #13
 815 00c2 08D8     		bhi	.L28
 816              	.LBB4:
 350:App/Src/fault_command.c **** 
 817              		.loc 1 350 5 view .LVU121
 350:App/Src/fault_command.c **** 
 818              		.loc 1 350 37 is_stmt 0 view .LVU122
 819 00c4 3146     		mov	r1, r6
 820 00c6 0DA8     		add	r0, sp, #52
 821 00c8 FFF7FEFF 		bl	VoltageSim_GetCellFaultInfo
ARM GAS  C:\Users\hh\AppData\Local\Temp\ccntMbQq.s 			page 29


 822              	.LVL71:
 352:App/Src/fault_command.c ****                              context,
 823              		.loc 1 352 5 is_stmt 1 view .LVU123
 824 00cc 012E     		cmp	r6, #1
 825 00ce D1D0     		beq	.L29
 352:App/Src/fault_command.c ****                              context,
 826              		.loc 1 352 5 is_stmt 0 discriminator 2 view .LVU124
 827 00d0 DFF82490 		ldr	r9, .L30+16
 828 00d4 D0E7     		b	.L24
 829              	.L28:
 830              	.LBE4:
 831              	.LBE2:
 366:App/Src/fault_command.c **** }
 832              		.loc 1 366 3 is_stmt 1 view .LVU125
 833 00d6 064A     		ldr	r2, .L30+8
 834 00d8 2946     		mov	r1, r5
 835 00da 2046     		mov	r0, r4
 836 00dc FFF7FEFF 		bl	FaultCommand_Write
 837              	.LVL72:
 367:App/Src/fault_command.c **** 
 838              		.loc 1 367 1 is_stmt 0 view .LVU126
 839 00e0 1AB0     		add	sp, sp, #104
 840              	.LCFI12:
 841              		.cfi_def_cfa_offset 32
 842              		@ sp needed
 843 00e2 BDE8F087 		pop	{r4, r5, r6, r7, r8, r9, r10, pc}
 844              	.LVL73:
 845              	.L31:
 367:App/Src/fault_command.c **** 
 846              		.loc 1 367 1 view .LVU127
 847 00e6 00BF     		.align	2
 848              	.L30:
 849 00e8 08000000 		.word	.LC38
 850 00ec DC000000 		.word	.LC39
 851 00f0 50010000 		.word	.LC40
 852 00f4 00000000 		.word	.LC36
 853 00f8 04000000 		.word	.LC37
 854              		.cfi_endproc
 855              	.LFE163:
 857              		.section	.rodata.FaultCommand_WriteJsonSafetyStatus.str1.4,"aMS",%progbits,1
 858              		.align	2
 859              	.LC41:
 860 0000 7B226F6B 		.ascii	"{\"ok\":true,\"safe\":{\"emergency\":%u,\"safe_mv\""
 860      223A7472 
 860      75652C22 
 860      73616665 
 860      223A7B22 
 861 002b 3A25752C 		.ascii	":%u,\"alarm_pin\":%u,\"alarm_active\":%u,\"alarm_la"
 861      22616C61 
 861      726D5F70 
 861      696E223A 
 861      25752C22 
 862 0059 74636865 		.ascii	"tched\":%u,\"alarm_count\":%lu,\"last_alarm_tick\":"
 862      64223A25 
 862      752C2261 
 862      6C61726D 
 862      5F636F75 
ARM GAS  C:\Users\hh\AppData\Local\Temp\ccntMbQq.s 			page 30


 863 0087 256C757D 		.ascii	"%lu}}\015\012\000"
 863      7D0D0A00 
 864              		.section	.text.FaultCommand_WriteJsonSafetyStatus,"ax",%progbits
 865              		.align	1
 866              		.syntax unified
 867              		.thumb
 868              		.thumb_func
 870              	FaultCommand_WriteJsonSafetyStatus:
 871              	.LVL74:
 872              	.LFB166:
 458:App/Src/fault_command.c ****   DacSafety_Status status = DacSafety_GetStatus();
 873              		.loc 1 458 1 is_stmt 1 view -0
 874              		.cfi_startproc
 875              		@ args = 0, pretend = 0, frame = 16
 876              		@ frame_needed = 0, uses_anonymous_args = 0
 458:App/Src/fault_command.c ****   DacSafety_Status status = DacSafety_GetStatus();
 877              		.loc 1 458 1 is_stmt 0 view .LVU129
 878 0000 70B5     		push	{r4, r5, r6, lr}
 879              	.LCFI13:
 880              		.cfi_def_cfa_offset 16
 881              		.cfi_offset 4, -16
 882              		.cfi_offset 5, -12
 883              		.cfi_offset 6, -8
 884              		.cfi_offset 14, -4
 885 0002 8AB0     		sub	sp, sp, #40
 886              	.LCFI14:
 887              		.cfi_def_cfa_offset 56
 888 0004 0646     		mov	r6, r0
 889 0006 0D46     		mov	r5, r1
 459:App/Src/fault_command.c **** 
 890              		.loc 1 459 3 is_stmt 1 view .LVU130
 459:App/Src/fault_command.c **** 
 891              		.loc 1 459 29 is_stmt 0 view .LVU131
 892 0008 06A8     		add	r0, sp, #24
 893              	.LVL75:
 459:App/Src/fault_command.c **** 
 894              		.loc 1 459 29 view .LVU132
 895 000a FFF7FEFF 		bl	DacSafety_GetStatus
 896              	.LVL76:
 461:App/Src/fault_command.c ****                            context,
 897              		.loc 1 461 3 is_stmt 1 view .LVU133
 465:App/Src/fault_command.c ****                            status.alarmPinState,
 898              		.loc 1 465 34 is_stmt 0 view .LVU134
 899 000e BDF82430 		ldrh	r3, [sp, #36]
 466:App/Src/fault_command.c ****                            status.alarmActive,
 900              		.loc 1 466 34 view .LVU135
 901 0012 9DF81920 		ldrb	r2, [sp, #25]	@ zero_extendqisi2
 467:App/Src/fault_command.c ****                            status.alarmLatched,
 902              		.loc 1 467 34 view .LVU136
 903 0016 9DF81A10 		ldrb	r1, [sp, #26]	@ zero_extendqisi2
 468:App/Src/fault_command.c ****                            (unsigned long)status.alarmCount,
 904              		.loc 1 468 34 view .LVU137
 905 001a 9DF81B00 		ldrb	r0, [sp, #27]	@ zero_extendqisi2
 461:App/Src/fault_command.c ****                            context,
 906              		.loc 1 461 3 view .LVU138
 907 001e 089C     		ldr	r4, [sp, #32]
 908 0020 0594     		str	r4, [sp, #20]
ARM GAS  C:\Users\hh\AppData\Local\Temp\ccntMbQq.s 			page 31


 909 0022 079C     		ldr	r4, [sp, #28]
 910 0024 0494     		str	r4, [sp, #16]
 911 0026 0390     		str	r0, [sp, #12]
 912 0028 0291     		str	r1, [sp, #8]
 913 002a 0192     		str	r2, [sp, #4]
 914 002c 0093     		str	r3, [sp]
 915 002e 9DF81830 		ldrb	r3, [sp, #24]	@ zero_extendqisi2
 916 0032 034A     		ldr	r2, .L34
 917 0034 2946     		mov	r1, r5
 918 0036 3046     		mov	r0, r6
 919 0038 FFF7FEFF 		bl	FaultCommand_WriteFormat
 920              	.LVL77:
 471:App/Src/fault_command.c **** 
 921              		.loc 1 471 1 view .LVU139
 922 003c 0AB0     		add	sp, sp, #40
 923              	.LCFI15:
 924              		.cfi_def_cfa_offset 16
 925              		@ sp needed
 926 003e 70BD     		pop	{r4, r5, r6, pc}
 927              	.LVL78:
 928              	.L35:
 471:App/Src/fault_command.c **** 
 929              		.loc 1 471 1 view .LVU140
 930              		.align	2
 931              	.L34:
 932 0040 00000000 		.word	.LC41
 933              		.cfi_endproc
 934              	.LFE166:
 936              		.section	.rodata.FaultCommand_WriteJsonResult.str1.4,"aMS",%progbits,1
 937              		.align	2
 938              	.LC42:
 939 0000 74727565 		.ascii	"true\000"
 939      00
 940 0005 000000   		.align	2
 941              	.LC43:
 942 0008 66616C73 		.ascii	"false\000"
 942      6500
 943 000e 0000     		.align	2
 944              	.LC44:
 945 0010 7B226F6B 		.ascii	"{\"ok\":%s,\"cmd\":\"%s\"}\015\012\000"
 945      223A2573 
 945      2C22636D 
 945      64223A22 
 945      2573227D 
 946              		.section	.text.FaultCommand_WriteJsonResult,"ax",%progbits
 947              		.align	1
 948              		.syntax unified
 949              		.thumb
 950              		.thumb_func
 952              	FaultCommand_WriteJsonResult:
 953              	.LVL79:
 954              	.LFB162:
 322:App/Src/fault_command.c ****   FaultCommand_WriteFormat(write, context, "{\"ok\":%s,\"cmd\":\"%s\"}\r\n",
 955              		.loc 1 322 1 is_stmt 1 view -0
 956              		.cfi_startproc
 957              		@ args = 0, pretend = 0, frame = 0
 958              		@ frame_needed = 0, uses_anonymous_args = 0
ARM GAS  C:\Users\hh\AppData\Local\Temp\ccntMbQq.s 			page 32


 322:App/Src/fault_command.c ****   FaultCommand_WriteFormat(write, context, "{\"ok\":%s,\"cmd\":\"%s\"}\r\n",
 959              		.loc 1 322 1 is_stmt 0 view .LVU142
 960 0000 00B5     		push	{lr}
 961              	.LCFI16:
 962              		.cfi_def_cfa_offset 4
 963              		.cfi_offset 14, -4
 964 0002 83B0     		sub	sp, sp, #12
 965              	.LCFI17:
 966              		.cfi_def_cfa_offset 16
 323:App/Src/fault_command.c ****                            (status == HAL_OK) ? "true" : "false",
 967              		.loc 1 323 3 is_stmt 1 view .LVU143
 968 0004 33B9     		cbnz	r3, .L38
 323:App/Src/fault_command.c ****                            (status == HAL_OK) ? "true" : "false",
 969              		.loc 1 323 3 is_stmt 0 discriminator 1 view .LVU144
 970 0006 044B     		ldr	r3, .L40
 971              	.LVL80:
 972              	.L37:
 323:App/Src/fault_command.c ****                            (status == HAL_OK) ? "true" : "false",
 973              		.loc 1 323 3 discriminator 4 view .LVU145
 974 0008 0092     		str	r2, [sp]
 975 000a 044A     		ldr	r2, .L40+4
 976              	.LVL81:
 323:App/Src/fault_command.c ****                            (status == HAL_OK) ? "true" : "false",
 977              		.loc 1 323 3 discriminator 4 view .LVU146
 978 000c FFF7FEFF 		bl	FaultCommand_WriteFormat
 979              	.LVL82:
 326:App/Src/fault_command.c **** 
 980              		.loc 1 326 1 view .LVU147
 981 0010 03B0     		add	sp, sp, #12
 982              	.LCFI18:
 983              		.cfi_remember_state
 984              		.cfi_def_cfa_offset 4
 985              		@ sp needed
 986 0012 00BD     		pop	{pc}
 987              	.LVL83:
 988              	.L38:
 989              	.LCFI19:
 990              		.cfi_restore_state
 323:App/Src/fault_command.c ****                            (status == HAL_OK) ? "true" : "false",
 991              		.loc 1 323 3 discriminator 2 view .LVU148
 992 0014 024B     		ldr	r3, .L40+8
 993              	.LVL84:
 323:App/Src/fault_command.c ****                            (status == HAL_OK) ? "true" : "false",
 994              		.loc 1 323 3 discriminator 2 view .LVU149
 995 0016 F7E7     		b	.L37
 996              	.L41:
 997              		.align	2
 998              	.L40:
 999 0018 00000000 		.word	.LC42
 1000 001c 10000000 		.word	.LC44
 1001 0020 08000000 		.word	.LC43
 1002              		.cfi_endproc
 1003              	.LFE162:
 1005              		.section	.rodata.FaultCommand_WriteTextStatus.str1.4,"aMS",%progbits,1
 1006              		.align	2
 1007              	.LC45:
 1008 0000 0D0A5B73 		.ascii	"\015\012[status] active_faults=%u\015\012\000"
ARM GAS  C:\Users\hh\AppData\Local\Temp\ccntMbQq.s 			page 33


 1008      74617475 
 1008      735D2061 
 1008      63746976 
 1008      655F6661 
 1009 001e 0000     		.align	2
 1010              	.LC46:
 1011 0020 20207361 		.ascii	"  safety emergency=%u safe=%umV alarm_active=%u ala"
 1011      66657479 
 1011      20656D65 
 1011      7267656E 
 1011      63793D25 
 1012 0053 726D5F6C 		.ascii	"rm_latched=%u alarm_count=%lu\015\012\000"
 1012      61746368 
 1012      65643D25 
 1012      7520616C 
 1012      61726D5F 
 1013 0073 00       		.align	2
 1014              	.LC47:
 1015 0074 20204325 		.ascii	"  C%02u=%umV\000"
 1015      3032753D 
 1015      25756D56 
 1015      00
 1016 0081 000000   		.align	2
 1017              	.LC48:
 1018 0084 2063616C 		.ascii	" cal=%dmV\000"
 1018      3D25646D 
 1018      5600
 1019 008e 0000     		.align	2
 1020              	.LC49:
 1021 0090 20666175 		.ascii	" fault=%s target=%umV restore=%umV duration=%lums s"
 1021      6C743D25 
 1021      73207461 
 1021      72676574 
 1021      3D25756D 
 1022 00c3 6C65773D 		.ascii	"lew=%umV/ms\000"
 1022      25756D56 
 1022      2F6D7300 
 1023 00cf 00       		.align	2
 1024              	.LC50:
 1025 00d0 0D0A00   		.ascii	"\015\012\000"
 1026              		.section	.text.FaultCommand_WriteTextStatus,"ax",%progbits
 1027              		.align	1
 1028              		.syntax unified
 1029              		.thumb
 1030              		.thumb_func
 1032              	FaultCommand_WriteTextStatus:
 1033              	.LVL85:
 1034              	.LFB159:
 251:App/Src/fault_command.c ****   DacSafety_Status safety = DacSafety_GetStatus();
 1035              		.loc 1 251 1 is_stmt 1 view -0
 1036              		.cfi_startproc
 1037              		@ args = 0, pretend = 0, frame = 32
 1038              		@ frame_needed = 0, uses_anonymous_args = 0
 251:App/Src/fault_command.c ****   DacSafety_Status safety = DacSafety_GetStatus();
 1039              		.loc 1 251 1 is_stmt 0 view .LVU151
 1040 0000 70B5     		push	{r4, r5, r6, lr}
 1041              	.LCFI20:
ARM GAS  C:\Users\hh\AppData\Local\Temp\ccntMbQq.s 			page 34


 1042              		.cfi_def_cfa_offset 16
 1043              		.cfi_offset 4, -16
 1044              		.cfi_offset 5, -12
 1045              		.cfi_offset 6, -8
 1046              		.cfi_offset 14, -4
 1047 0002 8CB0     		sub	sp, sp, #48
 1048              	.LCFI21:
 1049              		.cfi_def_cfa_offset 64
 1050 0004 0546     		mov	r5, r0
 1051 0006 0E46     		mov	r6, r1
 252:App/Src/fault_command.c **** 
 1052              		.loc 1 252 3 is_stmt 1 view .LVU152
 252:App/Src/fault_command.c **** 
 1053              		.loc 1 252 29 is_stmt 0 view .LVU153
 1054 0008 08A8     		add	r0, sp, #32
 1055              	.LVL86:
 252:App/Src/fault_command.c **** 
 1056              		.loc 1 252 29 view .LVU154
 1057 000a FFF7FEFF 		bl	DacSafety_GetStatus
 1058              	.LVL87:
 254:App/Src/fault_command.c ****                            VoltageSim_GetActiveFaultCount());
 1059              		.loc 1 254 3 is_stmt 1 view .LVU155
 255:App/Src/fault_command.c ****   FaultCommand_WriteFormat(write,
 1060              		.loc 1 255 28 is_stmt 0 view .LVU156
 1061 000e FFF7FEFF 		bl	VoltageSim_GetActiveFaultCount
 1062              	.LVL88:
 1063 0012 0346     		mov	r3, r0
 254:App/Src/fault_command.c ****                            VoltageSim_GetActiveFaultCount());
 1064              		.loc 1 254 3 view .LVU157
 1065 0014 2C4A     		ldr	r2, .L50
 1066 0016 3146     		mov	r1, r6
 1067 0018 2846     		mov	r0, r5
 1068 001a FFF7FEFF 		bl	FaultCommand_WriteFormat
 1069              	.LVL89:
 256:App/Src/fault_command.c ****                            context,
 1070              		.loc 1 256 3 is_stmt 1 view .LVU158
 260:App/Src/fault_command.c ****                            safety.alarmActive,
 1071              		.loc 1 260 34 is_stmt 0 view .LVU159
 1072 001e BDF82C30 		ldrh	r3, [sp, #44]
 261:App/Src/fault_command.c ****                            safety.alarmLatched,
 1073              		.loc 1 261 34 view .LVU160
 1074 0022 9DF82220 		ldrb	r2, [sp, #34]	@ zero_extendqisi2
 262:App/Src/fault_command.c ****                            (unsigned long)safety.alarmCount);
 1075              		.loc 1 262 34 view .LVU161
 1076 0026 9DF82310 		ldrb	r1, [sp, #35]	@ zero_extendqisi2
 256:App/Src/fault_command.c ****                            context,
 1077              		.loc 1 256 3 view .LVU162
 1078 002a 0998     		ldr	r0, [sp, #36]
 1079 002c 0390     		str	r0, [sp, #12]
 1080 002e 0291     		str	r1, [sp, #8]
 1081 0030 0192     		str	r2, [sp, #4]
 1082 0032 0093     		str	r3, [sp]
 1083 0034 9DF82030 		ldrb	r3, [sp, #32]	@ zero_extendqisi2
 1084 0038 244A     		ldr	r2, .L50+4
 1085 003a 3146     		mov	r1, r6
 1086 003c 2846     		mov	r0, r5
 1087 003e FFF7FEFF 		bl	FaultCommand_WriteFormat
ARM GAS  C:\Users\hh\AppData\Local\Temp\ccntMbQq.s 			page 35


 1088              	.LVL90:
 265:App/Src/fault_command.c ****   {
 1089              		.loc 1 265 3 is_stmt 1 view .LVU163
 1090              	.LBB5:
 265:App/Src/fault_command.c ****   {
 1091              		.loc 1 265 8 view .LVU164
 265:App/Src/fault_command.c ****   {
 1092              		.loc 1 265 16 is_stmt 0 view .LVU165
 1093 0042 0124     		movs	r4, #1
 265:App/Src/fault_command.c ****   {
 1094              		.loc 1 265 3 view .LVU166
 1095 0044 10E0     		b	.L43
 1096              	.LVL91:
 1097              	.L49:
 1098              	.LBB6:
 274:App/Src/fault_command.c ****                                context,
 1099              		.loc 1 274 7 is_stmt 1 view .LVU167
 277:App/Src/fault_command.c ****     }
 1100              		.loc 1 277 37 is_stmt 0 view .LVU168
 1101 0046 2046     		mov	r0, r4
 1102 0048 FFF7FEFF 		bl	VoltageSim_GetCellCalibrationOffsetMv
 1103              	.LVL92:
 1104 004c 0346     		mov	r3, r0
 274:App/Src/fault_command.c ****                                context,
 1105              		.loc 1 274 7 view .LVU169
 1106 004e 204A     		ldr	r2, .L50+8
 1107 0050 3146     		mov	r1, r6
 1108 0052 2846     		mov	r0, r5
 1109 0054 FFF7FEFF 		bl	FaultCommand_WriteFormat
 1110              	.LVL93:
 1111 0058 1BE0     		b	.L44
 1112              	.L45:
 290:App/Src/fault_command.c ****   }
 1113              		.loc 1 290 5 is_stmt 1 view .LVU170
 1114 005a 1E4A     		ldr	r2, .L50+12
 1115 005c 3146     		mov	r1, r6
 1116 005e 2846     		mov	r0, r5
 1117 0060 FFF7FEFF 		bl	FaultCommand_Write
 1118              	.LVL94:
 1119              	.LBE6:
 265:App/Src/fault_command.c ****   {
 1120              		.loc 1 265 63 discriminator 2 view .LVU171
 1121 0064 0134     		adds	r4, r4, #1
 1122              	.LVL95:
 265:App/Src/fault_command.c ****   {
 1123              		.loc 1 265 63 is_stmt 0 discriminator 2 view .LVU172
 1124 0066 E4B2     		uxtb	r4, r4
 1125              	.LVL96:
 1126              	.L43:
 265:App/Src/fault_command.c ****   {
 1127              		.loc 1 265 32 is_stmt 1 discriminator 1 view .LVU173
 1128 0068 0D2C     		cmp	r4, #13
 1129 006a 2AD8     		bhi	.L48
 1130              	.LBB7:
 267:App/Src/fault_command.c **** 
 1131              		.loc 1 267 5 view .LVU174
 267:App/Src/fault_command.c **** 
ARM GAS  C:\Users\hh\AppData\Local\Temp\ccntMbQq.s 			page 36


 1132              		.loc 1 267 37 is_stmt 0 view .LVU175
 1133 006c 2146     		mov	r1, r4
 1134 006e 04A8     		add	r0, sp, #16
 1135 0070 FFF7FEFF 		bl	VoltageSim_GetCellFaultInfo
 1136              	.LVL97:
 269:App/Src/fault_command.c ****                              cell,
 1137              		.loc 1 269 5 is_stmt 1 view .LVU176
 271:App/Src/fault_command.c ****     if (VoltageSim_GetCellCalibrationOffsetMv(cell) != 0)
 1138              		.loc 1 271 30 is_stmt 0 view .LVU177
 1139 0074 2046     		mov	r0, r4
 1140 0076 FFF7FEFF 		bl	VoltageSim_GetLastCellVoltageMv
 1141              	.LVL98:
 269:App/Src/fault_command.c ****                              cell,
 1142              		.loc 1 269 5 view .LVU178
 1143 007a 0090     		str	r0, [sp]
 1144 007c 2346     		mov	r3, r4
 1145 007e 164A     		ldr	r2, .L50+16
 1146 0080 3146     		mov	r1, r6
 1147 0082 2846     		mov	r0, r5
 1148 0084 FFF7FEFF 		bl	FaultCommand_WriteFormat
 1149              	.LVL99:
 272:App/Src/fault_command.c ****     {
 1150              		.loc 1 272 5 is_stmt 1 view .LVU179
 272:App/Src/fault_command.c ****     {
 1151              		.loc 1 272 9 is_stmt 0 view .LVU180
 1152 0088 2046     		mov	r0, r4
 1153 008a FFF7FEFF 		bl	VoltageSim_GetCellCalibrationOffsetMv
 1154              	.LVL100:
 272:App/Src/fault_command.c ****     {
 1155              		.loc 1 272 8 discriminator 1 view .LVU181
 1156 008e 0028     		cmp	r0, #0
 1157 0090 D9D1     		bne	.L49
 1158              	.L44:
 279:App/Src/fault_command.c ****     {
 1159              		.loc 1 279 5 is_stmt 1 view .LVU182
 279:App/Src/fault_command.c ****     {
 1160              		.loc 1 279 13 is_stmt 0 view .LVU183
 1161 0092 9DF81000 		ldrb	r0, [sp, #16]	@ zero_extendqisi2
 279:App/Src/fault_command.c ****     {
 1162              		.loc 1 279 8 view .LVU184
 1163 0096 0028     		cmp	r0, #0
 1164 0098 DFD0     		beq	.L45
 281:App/Src/fault_command.c ****                                context,
 1165              		.loc 1 281 7 is_stmt 1 view .LVU185
 1166 009a FFF7FEFF 		bl	VoltageSim_GetFaultTypeName
 1167              	.LVL101:
 1168 009e 0346     		mov	r3, r0
 285:App/Src/fault_command.c ****                                info.restoreMillivolts,
 1169              		.loc 1 285 36 is_stmt 0 view .LVU186
 1170 00a0 BDF81220 		ldrh	r2, [sp, #18]
 286:App/Src/fault_command.c ****                                (unsigned long)info.durationMs,
 1171              		.loc 1 286 36 view .LVU187
 1172 00a4 BDF81410 		ldrh	r1, [sp, #20]
 288:App/Src/fault_command.c ****     }
 1173              		.loc 1 288 36 view .LVU188
 1174 00a8 BDF81C00 		ldrh	r0, [sp, #28]
 281:App/Src/fault_command.c ****                                context,
ARM GAS  C:\Users\hh\AppData\Local\Temp\ccntMbQq.s 			page 37


 1175              		.loc 1 281 7 view .LVU189
 1176 00ac 0390     		str	r0, [sp, #12]
 1177 00ae 0698     		ldr	r0, [sp, #24]
 1178 00b0 0290     		str	r0, [sp, #8]
 1179 00b2 0191     		str	r1, [sp, #4]
 1180 00b4 0092     		str	r2, [sp]
 1181 00b6 094A     		ldr	r2, .L50+20
 1182 00b8 3146     		mov	r1, r6
 1183 00ba 2846     		mov	r0, r5
 1184 00bc FFF7FEFF 		bl	FaultCommand_WriteFormat
 1185              	.LVL102:
 1186 00c0 CBE7     		b	.L45
 1187              	.L48:
 281:App/Src/fault_command.c ****                                context,
 1188              		.loc 1 281 7 view .LVU190
 1189              	.LBE7:
 1190              	.LBE5:
 292:App/Src/fault_command.c **** 
 1191              		.loc 1 292 1 view .LVU191
 1192 00c2 0CB0     		add	sp, sp, #48
 1193              	.LCFI22:
 1194              		.cfi_def_cfa_offset 16
 1195              		@ sp needed
 1196 00c4 70BD     		pop	{r4, r5, r6, pc}
 1197              	.LVL103:
 1198              	.L51:
 292:App/Src/fault_command.c **** 
 1199              		.loc 1 292 1 view .LVU192
 1200 00c6 00BF     		.align	2
 1201              	.L50:
 1202 00c8 00000000 		.word	.LC45
 1203 00cc 20000000 		.word	.LC46
 1204 00d0 84000000 		.word	.LC48
 1205 00d4 D0000000 		.word	.LC50
 1206 00d8 74000000 		.word	.LC47
 1207 00dc 90000000 		.word	.LC49
 1208              		.cfi_endproc
 1209              	.LFE159:
 1211              		.section	.rodata.FaultCommand_WriteTextCalibrationStatus.str1.4,"aMS",%progbits,1
 1212              		.align	2
 1213              	.LC51:
 1214 0000 0D0A5B63 		.ascii	"\015\012[cal]\015\012\000"
 1214      616C5D0D 
 1214      0A00
 1215 000a 0000     		.align	2
 1216              	.LC52:
 1217 000c 20204325 		.ascii	"  C%02u offset=%dmV\015\012\000"
 1217      30327520 
 1217      6F666673 
 1217      65743D25 
 1217      646D560D 
 1218              		.section	.text.FaultCommand_WriteTextCalibrationStatus,"ax",%progbits
 1219              		.align	1
 1220              		.syntax unified
 1221              		.thumb
 1222              		.thumb_func
 1224              	FaultCommand_WriteTextCalibrationStatus:
ARM GAS  C:\Users\hh\AppData\Local\Temp\ccntMbQq.s 			page 38


 1225              	.LVL104:
 1226              	.LFB160:
 295:App/Src/fault_command.c ****   FaultCommand_Write(write, context, "\r\n[cal]\r\n");
 1227              		.loc 1 295 1 is_stmt 1 view -0
 1228              		.cfi_startproc
 1229              		@ args = 0, pretend = 0, frame = 0
 1230              		@ frame_needed = 0, uses_anonymous_args = 0
 295:App/Src/fault_command.c ****   FaultCommand_Write(write, context, "\r\n[cal]\r\n");
 1231              		.loc 1 295 1 is_stmt 0 view .LVU194
 1232 0000 70B5     		push	{r4, r5, r6, lr}
 1233              	.LCFI23:
 1234              		.cfi_def_cfa_offset 16
 1235              		.cfi_offset 4, -16
 1236              		.cfi_offset 5, -12
 1237              		.cfi_offset 6, -8
 1238              		.cfi_offset 14, -4
 1239 0002 82B0     		sub	sp, sp, #8
 1240              	.LCFI24:
 1241              		.cfi_def_cfa_offset 24
 1242 0004 0646     		mov	r6, r0
 1243 0006 0D46     		mov	r5, r1
 296:App/Src/fault_command.c **** 
 1244              		.loc 1 296 3 is_stmt 1 view .LVU195
 1245 0008 0A4A     		ldr	r2, .L56
 1246 000a FFF7FEFF 		bl	FaultCommand_Write
 1247              	.LVL105:
 298:App/Src/fault_command.c ****   {
 1248              		.loc 1 298 3 view .LVU196
 1249              	.LBB8:
 298:App/Src/fault_command.c ****   {
 1250              		.loc 1 298 8 view .LVU197
 298:App/Src/fault_command.c ****   {
 1251              		.loc 1 298 16 is_stmt 0 view .LVU198
 1252 000e 0124     		movs	r4, #1
 298:App/Src/fault_command.c ****   {
 1253              		.loc 1 298 3 view .LVU199
 1254 0010 0BE0     		b	.L53
 1255              	.LVL106:
 1256              	.L54:
 300:App/Src/fault_command.c ****                              context,
 1257              		.loc 1 300 5 is_stmt 1 view .LVU200
 304:App/Src/fault_command.c ****   }
 1258              		.loc 1 304 35 is_stmt 0 view .LVU201
 1259 0012 2046     		mov	r0, r4
 1260 0014 FFF7FEFF 		bl	VoltageSim_GetCellCalibrationOffsetMv
 1261              	.LVL107:
 300:App/Src/fault_command.c ****                              context,
 1262              		.loc 1 300 5 view .LVU202
 1263 0018 0090     		str	r0, [sp]
 1264 001a 2346     		mov	r3, r4
 1265 001c 064A     		ldr	r2, .L56+4
 1266 001e 2946     		mov	r1, r5
 1267 0020 3046     		mov	r0, r6
 1268 0022 FFF7FEFF 		bl	FaultCommand_WriteFormat
 1269              	.LVL108:
 298:App/Src/fault_command.c ****   {
 1270              		.loc 1 298 63 is_stmt 1 discriminator 3 view .LVU203
ARM GAS  C:\Users\hh\AppData\Local\Temp\ccntMbQq.s 			page 39


 1271 0026 0134     		adds	r4, r4, #1
 1272              	.LVL109:
 298:App/Src/fault_command.c ****   {
 1273              		.loc 1 298 63 is_stmt 0 discriminator 3 view .LVU204
 1274 0028 E4B2     		uxtb	r4, r4
 1275              	.LVL110:
 1276              	.L53:
 298:App/Src/fault_command.c ****   {
 1277              		.loc 1 298 32 is_stmt 1 discriminator 1 view .LVU205
 1278 002a 0D2C     		cmp	r4, #13
 1279 002c F1D9     		bls	.L54
 1280              	.LBE8:
 306:App/Src/fault_command.c **** 
 1281              		.loc 1 306 1 is_stmt 0 view .LVU206
 1282 002e 02B0     		add	sp, sp, #8
 1283              	.LCFI25:
 1284              		.cfi_def_cfa_offset 16
 1285              		@ sp needed
 1286 0030 70BD     		pop	{r4, r5, r6, pc}
 1287              	.LVL111:
 1288              	.L57:
 306:App/Src/fault_command.c **** 
 1289              		.loc 1 306 1 view .LVU207
 1290 0032 00BF     		.align	2
 1291              	.L56:
 1292 0034 00000000 		.word	.LC51
 1293 0038 0C000000 		.word	.LC52
 1294              		.cfi_endproc
 1295              	.LFE160:
 1297              		.section	.rodata.FaultCommand_WriteTextSafetyStatus.str1.4,"aMS",%progbits,1
 1298              		.align	2
 1299              	.LC53:
 1300 0000 0D0A5B73 		.ascii	"\015\012[safe] emergency=%u safe_mv=%u alarm_pin=%u"
 1300      6166655D 
 1300      20656D65 
 1300      7267656E 
 1300      63793D25 
 1301 002d 20616C61 		.ascii	" alarm_active=%u alarm_latched=%u alarm_count=%lu l"
 1301      726D5F61 
 1301      63746976 
 1301      653D2575 
 1301      20616C61 
 1302 0060 6173745F 		.ascii	"ast_alarm_tick=%lu\015\012\000"
 1302      616C6172 
 1302      6D5F7469 
 1302      636B3D25 
 1302      6C750D0A 
 1303              		.section	.text.FaultCommand_WriteTextSafetyStatus,"ax",%progbits
 1304              		.align	1
 1305              		.syntax unified
 1306              		.thumb
 1307              		.thumb_func
 1309              	FaultCommand_WriteTextSafetyStatus:
 1310              	.LVL112:
 1311              	.LFB157:
 206:App/Src/fault_command.c ****   DacSafety_Status status = DacSafety_GetStatus();
 1312              		.loc 1 206 1 is_stmt 1 view -0
ARM GAS  C:\Users\hh\AppData\Local\Temp\ccntMbQq.s 			page 40


 1313              		.cfi_startproc
 1314              		@ args = 0, pretend = 0, frame = 16
 1315              		@ frame_needed = 0, uses_anonymous_args = 0
 206:App/Src/fault_command.c ****   DacSafety_Status status = DacSafety_GetStatus();
 1316              		.loc 1 206 1 is_stmt 0 view .LVU209
 1317 0000 70B5     		push	{r4, r5, r6, lr}
 1318              	.LCFI26:
 1319              		.cfi_def_cfa_offset 16
 1320              		.cfi_offset 4, -16
 1321              		.cfi_offset 5, -12
 1322              		.cfi_offset 6, -8
 1323              		.cfi_offset 14, -4
 1324 0002 8AB0     		sub	sp, sp, #40
 1325              	.LCFI27:
 1326              		.cfi_def_cfa_offset 56
 1327 0004 0646     		mov	r6, r0
 1328 0006 0D46     		mov	r5, r1
 207:App/Src/fault_command.c **** 
 1329              		.loc 1 207 3 is_stmt 1 view .LVU210
 207:App/Src/fault_command.c **** 
 1330              		.loc 1 207 29 is_stmt 0 view .LVU211
 1331 0008 06A8     		add	r0, sp, #24
 1332              	.LVL113:
 207:App/Src/fault_command.c **** 
 1333              		.loc 1 207 29 view .LVU212
 1334 000a FFF7FEFF 		bl	DacSafety_GetStatus
 1335              	.LVL114:
 209:App/Src/fault_command.c ****                            context,
 1336              		.loc 1 209 3 is_stmt 1 view .LVU213
 213:App/Src/fault_command.c ****                            status.alarmPinState,
 1337              		.loc 1 213 34 is_stmt 0 view .LVU214
 1338 000e BDF82430 		ldrh	r3, [sp, #36]
 214:App/Src/fault_command.c ****                            status.alarmActive,
 1339              		.loc 1 214 34 view .LVU215
 1340 0012 9DF81920 		ldrb	r2, [sp, #25]	@ zero_extendqisi2
 215:App/Src/fault_command.c ****                            status.alarmLatched,
 1341              		.loc 1 215 34 view .LVU216
 1342 0016 9DF81A10 		ldrb	r1, [sp, #26]	@ zero_extendqisi2
 216:App/Src/fault_command.c ****                            (unsigned long)status.alarmCount,
 1343              		.loc 1 216 34 view .LVU217
 1344 001a 9DF81B00 		ldrb	r0, [sp, #27]	@ zero_extendqisi2
 209:App/Src/fault_command.c ****                            context,
 1345              		.loc 1 209 3 view .LVU218
 1346 001e 089C     		ldr	r4, [sp, #32]
 1347 0020 0594     		str	r4, [sp, #20]
 1348 0022 079C     		ldr	r4, [sp, #28]
 1349 0024 0494     		str	r4, [sp, #16]
 1350 0026 0390     		str	r0, [sp, #12]
 1351 0028 0291     		str	r1, [sp, #8]
 1352 002a 0192     		str	r2, [sp, #4]
 1353 002c 0093     		str	r3, [sp]
 1354 002e 9DF81830 		ldrb	r3, [sp, #24]	@ zero_extendqisi2
 1355 0032 034A     		ldr	r2, .L60
 1356 0034 2946     		mov	r1, r5
 1357 0036 3046     		mov	r0, r6
 1358 0038 FFF7FEFF 		bl	FaultCommand_WriteFormat
 1359              	.LVL115:
ARM GAS  C:\Users\hh\AppData\Local\Temp\ccntMbQq.s 			page 41


 219:App/Src/fault_command.c **** 
 1360              		.loc 1 219 1 view .LVU219
 1361 003c 0AB0     		add	sp, sp, #40
 1362              	.LCFI28:
 1363              		.cfi_def_cfa_offset 16
 1364              		@ sp needed
 1365 003e 70BD     		pop	{r4, r5, r6, pc}
 1366              	.LVL116:
 1367              	.L61:
 219:App/Src/fault_command.c **** 
 1368              		.loc 1 219 1 view .LVU220
 1369              		.align	2
 1370              	.L60:
 1371 0040 00000000 		.word	.LC53
 1372              		.cfi_endproc
 1373              	.LFE157:
 1375              		.section	.rodata.FaultCommand_WriteTextResult.str1.4,"aMS",%progbits,1
 1376              		.align	2
 1377              	.LC54:
 1378 0000 4F4B00   		.ascii	"OK\000"
 1379 0003 00       		.align	2
 1380              	.LC55:
 1381 0004 45525200 		.ascii	"ERR\000"
 1382              		.align	2
 1383              	.LC56:
 1384 0008 5B636D64 		.ascii	"[cmd] %s %s\015\012\000"
 1384      5D202573 
 1384      2025730D 
 1384      0A00
 1385              		.section	.text.FaultCommand_WriteTextResult,"ax",%progbits
 1386              		.align	1
 1387              		.syntax unified
 1388              		.thumb
 1389              		.thumb_func
 1391              	FaultCommand_WriteTextResult:
 1392              	.LVL117:
 1393              	.LFB161:
 312:App/Src/fault_command.c ****   FaultCommand_WriteFormat(write, context, "[cmd] %s %s\r\n",
 1394              		.loc 1 312 1 is_stmt 1 view -0
 1395              		.cfi_startproc
 1396              		@ args = 0, pretend = 0, frame = 0
 1397              		@ frame_needed = 0, uses_anonymous_args = 0
 312:App/Src/fault_command.c ****   FaultCommand_WriteFormat(write, context, "[cmd] %s %s\r\n",
 1398              		.loc 1 312 1 is_stmt 0 view .LVU222
 1399 0000 00B5     		push	{lr}
 1400              	.LCFI29:
 1401              		.cfi_def_cfa_offset 4
 1402              		.cfi_offset 14, -4
 1403 0002 83B0     		sub	sp, sp, #12
 1404              	.LCFI30:
 1405              		.cfi_def_cfa_offset 16
 313:App/Src/fault_command.c ****                            name,
 1406              		.loc 1 313 3 is_stmt 1 view .LVU223
 1407 0004 3BB9     		cbnz	r3, .L64
 313:App/Src/fault_command.c ****                            name,
 1408              		.loc 1 313 3 is_stmt 0 discriminator 1 view .LVU224
 1409 0006 054B     		ldr	r3, .L66
ARM GAS  C:\Users\hh\AppData\Local\Temp\ccntMbQq.s 			page 42


 1410              	.LVL118:
 1411              	.L63:
 313:App/Src/fault_command.c ****                            name,
 1412              		.loc 1 313 3 discriminator 4 view .LVU225
 1413 0008 0093     		str	r3, [sp]
 1414 000a 1346     		mov	r3, r2
 1415 000c 044A     		ldr	r2, .L66+4
 1416              	.LVL119:
 313:App/Src/fault_command.c ****                            name,
 1417              		.loc 1 313 3 discriminator 4 view .LVU226
 1418 000e FFF7FEFF 		bl	FaultCommand_WriteFormat
 1419              	.LVL120:
 316:App/Src/fault_command.c **** 
 1420              		.loc 1 316 1 view .LVU227
 1421 0012 03B0     		add	sp, sp, #12
 1422              	.LCFI31:
 1423              		.cfi_remember_state
 1424              		.cfi_def_cfa_offset 4
 1425              		@ sp needed
 1426 0014 00BD     		pop	{pc}
 1427              	.LVL121:
 1428              	.L64:
 1429              	.LCFI32:
 1430              		.cfi_restore_state
 313:App/Src/fault_command.c ****                            name,
 1431              		.loc 1 313 3 discriminator 2 view .LVU228
 1432 0016 034B     		ldr	r3, .L66+8
 1433              	.LVL122:
 313:App/Src/fault_command.c ****                            name,
 1434              		.loc 1 313 3 discriminator 2 view .LVU229
 1435 0018 F6E7     		b	.L63
 1436              	.L67:
 1437 001a 00BF     		.align	2
 1438              	.L66:
 1439 001c 00000000 		.word	.LC54
 1440 0020 08000000 		.word	.LC56
 1441 0024 04000000 		.word	.LC55
 1442              		.cfi_endproc
 1443              	.LFE161:
 1445              		.section	.rodata.FaultCommand_FindJsonKey.str1.4,"aMS",%progbits,1
 1446              		.align	2
 1447              	.LC57:
 1448 0000 22257322 		.ascii	"\"%s\"\000"
 1448      00
 1449              		.section	.text.FaultCommand_FindJsonKey,"ax",%progbits
 1450              		.align	1
 1451              		.syntax unified
 1452              		.thumb
 1453              		.thumb_func
 1455              	FaultCommand_FindJsonKey:
 1456              	.LVL123:
 1457              	.LFB178:
 550:App/Src/fault_command.c **** 
 551:App/Src/fault_command.c **** static HAL_StatusTypeDef FaultCommand_RunOverVoltage(uint8_t cell,
 552:App/Src/fault_command.c ****                                                      uint16_t target,
 553:App/Src/fault_command.c ****                                                      uint32_t duration,
 554:App/Src/fault_command.c ****                                                      uint16_t slew)
ARM GAS  C:\Users\hh\AppData\Local\Temp\ccntMbQq.s 			page 43


 555:App/Src/fault_command.c **** {
 556:App/Src/fault_command.c ****   HAL_StatusTypeDef status;
 557:App/Src/fault_command.c **** 
 558:App/Src/fault_command.c ****   if (DacSafety_IsOutputAllowed() == 0U)
 559:App/Src/fault_command.c ****   {
 560:App/Src/fault_command.c ****     return HAL_BUSY;
 561:App/Src/fault_command.c ****   }
 562:App/Src/fault_command.c **** 
 563:App/Src/fault_command.c ****   FaultCommand_StopAllWaveforms();
 564:App/Src/fault_command.c ****   status = VoltageSim_InjectCellOverVoltageRamp(cell, target, duration, slew);
 565:App/Src/fault_command.c ****   if (status == HAL_OK)
 566:App/Src/fault_command.c ****   {
 567:App/Src/fault_command.c ****     BmsResponseLog_RecordFaultTrigger(BMS_RESPONSE_LOG_TRIGGER_OV, cell, target, 0U, 0U);
 568:App/Src/fault_command.c ****   }
 569:App/Src/fault_command.c **** 
 570:App/Src/fault_command.c ****   return status;
 571:App/Src/fault_command.c **** }
 572:App/Src/fault_command.c **** 
 573:App/Src/fault_command.c **** static HAL_StatusTypeDef FaultCommand_RunUnderVoltage(uint8_t cell,
 574:App/Src/fault_command.c ****                                                       uint16_t target,
 575:App/Src/fault_command.c ****                                                       uint32_t duration,
 576:App/Src/fault_command.c ****                                                       uint16_t slew)
 577:App/Src/fault_command.c **** {
 578:App/Src/fault_command.c ****   HAL_StatusTypeDef status;
 579:App/Src/fault_command.c **** 
 580:App/Src/fault_command.c ****   if (DacSafety_IsOutputAllowed() == 0U)
 581:App/Src/fault_command.c ****   {
 582:App/Src/fault_command.c ****     return HAL_BUSY;
 583:App/Src/fault_command.c ****   }
 584:App/Src/fault_command.c **** 
 585:App/Src/fault_command.c ****   FaultCommand_StopAllWaveforms();
 586:App/Src/fault_command.c ****   status = VoltageSim_InjectCellUnderVoltageRamp(cell, target, duration, slew);
 587:App/Src/fault_command.c ****   if (status == HAL_OK)
 588:App/Src/fault_command.c ****   {
 589:App/Src/fault_command.c ****     BmsResponseLog_RecordFaultTrigger(BMS_RESPONSE_LOG_TRIGGER_UV, cell, target, 0U, 0U);
 590:App/Src/fault_command.c ****   }
 591:App/Src/fault_command.c **** 
 592:App/Src/fault_command.c ****   return status;
 593:App/Src/fault_command.c **** }
 594:App/Src/fault_command.c **** 
 595:App/Src/fault_command.c **** static HAL_StatusTypeDef FaultCommand_RunDiff(uint8_t highCell,
 596:App/Src/fault_command.c ****                                               uint16_t highMv,
 597:App/Src/fault_command.c ****                                               uint8_t lowCell,
 598:App/Src/fault_command.c ****                                               uint16_t lowMv,
 599:App/Src/fault_command.c ****                                               uint32_t duration,
 600:App/Src/fault_command.c ****                                               uint16_t slew)
 601:App/Src/fault_command.c **** {
 602:App/Src/fault_command.c ****   HAL_StatusTypeDef status;
 603:App/Src/fault_command.c **** 
 604:App/Src/fault_command.c ****   if (DacSafety_IsOutputAllowed() == 0U)
 605:App/Src/fault_command.c ****   {
 606:App/Src/fault_command.c ****     return HAL_BUSY;
 607:App/Src/fault_command.c ****   }
 608:App/Src/fault_command.c **** 
 609:App/Src/fault_command.c ****   FaultCommand_StopAllWaveforms();
 610:App/Src/fault_command.c ****   status = VoltageSim_InjectVoltageDifference(highCell, highMv, lowCell, lowMv, duration, slew);
 611:App/Src/fault_command.c ****   if (status == HAL_OK)
ARM GAS  C:\Users\hh\AppData\Local\Temp\ccntMbQq.s 			page 44


 612:App/Src/fault_command.c ****   {
 613:App/Src/fault_command.c ****     BmsResponseLog_RecordFaultTrigger(BMS_RESPONSE_LOG_TRIGGER_DIFF,
 614:App/Src/fault_command.c ****                                       highCell,
 615:App/Src/fault_command.c ****                                       highMv,
 616:App/Src/fault_command.c ****                                       lowCell,
 617:App/Src/fault_command.c ****                                       lowMv);
 618:App/Src/fault_command.c ****   }
 619:App/Src/fault_command.c **** 
 620:App/Src/fault_command.c ****   return status;
 621:App/Src/fault_command.c **** }
 622:App/Src/fault_command.c **** 
 623:App/Src/fault_command.c **** static HAL_StatusTypeDef FaultCommand_ParseCanSendText(const char *line)
 624:App/Src/fault_command.c **** {
 625:App/Src/fault_command.c ****   unsigned long id;
 626:App/Src/fault_command.c ****   unsigned int length;
 627:App/Src/fault_command.c ****   int consumed = 0;
 628:App/Src/fault_command.c ****   const char *cursor;
 629:App/Src/fault_command.c ****   uint8_t data[BSP_CAN_MAX_DATA_LEN] = {0};
 630:App/Src/fault_command.c **** 
 631:App/Src/fault_command.c ****   if (sscanf(line, "can send %lx %u %n", &id, &length, &consumed) < 2)
 632:App/Src/fault_command.c ****   {
 633:App/Src/fault_command.c ****     return HAL_ERROR;
 634:App/Src/fault_command.c ****   }
 635:App/Src/fault_command.c **** 
 636:App/Src/fault_command.c ****   if ((id > 0x7FFUL) || (length > BSP_CAN_MAX_DATA_LEN))
 637:App/Src/fault_command.c ****   {
 638:App/Src/fault_command.c ****     return HAL_ERROR;
 639:App/Src/fault_command.c ****   }
 640:App/Src/fault_command.c **** 
 641:App/Src/fault_command.c ****   cursor = line + consumed;
 642:App/Src/fault_command.c ****   for (uint8_t index = 0U; index < length; index++)
 643:App/Src/fault_command.c ****   {
 644:App/Src/fault_command.c ****     char *endPtr;
 645:App/Src/fault_command.c ****     unsigned long value;
 646:App/Src/fault_command.c **** 
 647:App/Src/fault_command.c ****     cursor = FaultCommand_SkipSpaces(cursor);
 648:App/Src/fault_command.c ****     if ((cursor == NULL) || (*cursor == '\0'))
 649:App/Src/fault_command.c ****     {
 650:App/Src/fault_command.c ****       return HAL_ERROR;
 651:App/Src/fault_command.c ****     }
 652:App/Src/fault_command.c **** 
 653:App/Src/fault_command.c ****     value = strtoul(cursor, &endPtr, 16);
 654:App/Src/fault_command.c ****     if ((endPtr == cursor) || (value > 0xFFUL))
 655:App/Src/fault_command.c ****     {
 656:App/Src/fault_command.c ****       return HAL_ERROR;
 657:App/Src/fault_command.c ****     }
 658:App/Src/fault_command.c **** 
 659:App/Src/fault_command.c ****     data[index] = (uint8_t)value;
 660:App/Src/fault_command.c ****     cursor = endPtr;
 661:App/Src/fault_command.c ****   }
 662:App/Src/fault_command.c **** 
 663:App/Src/fault_command.c ****   return BspCan_SendClassic((uint32_t)id, 0U, data, (uint8_t)length);
 664:App/Src/fault_command.c **** }
 665:App/Src/fault_command.c **** 
 666:App/Src/fault_command.c **** static HAL_StatusTypeDef FaultCommand_ParseLogFilterText(const char *line)
 667:App/Src/fault_command.c **** {
 668:App/Src/fault_command.c ****   char type[8];
ARM GAS  C:\Users\hh\AppData\Local\Temp\ccntMbQq.s 			page 45


 669:App/Src/fault_command.c ****   unsigned long id;
 670:App/Src/fault_command.c ****   unsigned long mask;
 671:App/Src/fault_command.c ****   int parsed;
 672:App/Src/fault_command.c ****   uint8_t isExtended;
 673:App/Src/fault_command.c **** 
 674:App/Src/fault_command.c ****   if (strcmp(line, "log filter off") == 0)
 675:App/Src/fault_command.c ****   {
 676:App/Src/fault_command.c ****     BmsResponseLog_DisableFilter();
 677:App/Src/fault_command.c ****     return HAL_OK;
 678:App/Src/fault_command.c ****   }
 679:App/Src/fault_command.c **** 
 680:App/Src/fault_command.c ****   mask = 0x7FFUL;
 681:App/Src/fault_command.c ****   parsed = sscanf(line, "log filter %7s %lx %lx", type, &id, &mask);
 682:App/Src/fault_command.c ****   if (parsed < 2)
 683:App/Src/fault_command.c ****   {
 684:App/Src/fault_command.c ****     return HAL_ERROR;
 685:App/Src/fault_command.c ****   }
 686:App/Src/fault_command.c **** 
 687:App/Src/fault_command.c ****   if (strcmp(type, "std") == 0)
 688:App/Src/fault_command.c ****   {
 689:App/Src/fault_command.c ****     isExtended = 0U;
 690:App/Src/fault_command.c ****   }
 691:App/Src/fault_command.c ****   else if (strcmp(type, "ext") == 0)
 692:App/Src/fault_command.c ****   {
 693:App/Src/fault_command.c ****     isExtended = 1U;
 694:App/Src/fault_command.c ****     if (parsed == 2)
 695:App/Src/fault_command.c ****     {
 696:App/Src/fault_command.c ****       mask = 0x1FFFFFFFUL;
 697:App/Src/fault_command.c ****     }
 698:App/Src/fault_command.c ****   }
 699:App/Src/fault_command.c ****   else
 700:App/Src/fault_command.c ****   {
 701:App/Src/fault_command.c ****     return HAL_ERROR;
 702:App/Src/fault_command.c ****   }
 703:App/Src/fault_command.c **** 
 704:App/Src/fault_command.c ****   return BmsResponseLog_SetFilter(1U, isExtended, (uint32_t)id, (uint32_t)mask);
 705:App/Src/fault_command.c **** }
 706:App/Src/fault_command.c **** 
 707:App/Src/fault_command.c **** static HAL_StatusTypeDef FaultCommand_ParseLogDataText(const char *line)
 708:App/Src/fault_command.c **** {
 709:App/Src/fault_command.c ****   unsigned int index;
 710:App/Src/fault_command.c ****   unsigned int mask;
 711:App/Src/fault_command.c ****   unsigned int value;
 712:App/Src/fault_command.c **** 
 713:App/Src/fault_command.c ****   if (strcmp(line, "log data clear") == 0)
 714:App/Src/fault_command.c ****   {
 715:App/Src/fault_command.c ****     BmsResponseLog_ClearDataFilter();
 716:App/Src/fault_command.c ****     return HAL_OK;
 717:App/Src/fault_command.c ****   }
 718:App/Src/fault_command.c **** 
 719:App/Src/fault_command.c ****   if ((sscanf(line, "log data %u %x %x", &index, &mask, &value) != 3) ||
 720:App/Src/fault_command.c ****       (index >= BSP_CAN_MAX_DATA_LEN) ||
 721:App/Src/fault_command.c ****       (mask > 0xFFU) ||
 722:App/Src/fault_command.c ****       (value > 0xFFU))
 723:App/Src/fault_command.c ****   {
 724:App/Src/fault_command.c ****     return HAL_ERROR;
 725:App/Src/fault_command.c ****   }
ARM GAS  C:\Users\hh\AppData\Local\Temp\ccntMbQq.s 			page 46


 726:App/Src/fault_command.c **** 
 727:App/Src/fault_command.c ****   return BmsResponseLog_SetDataFilter((uint8_t)index, (uint8_t)mask, (uint8_t)value);
 728:App/Src/fault_command.c **** }
 729:App/Src/fault_command.c **** 
 730:App/Src/fault_command.c **** static void FaultCommand_ExecuteText(const char *line, FaultCommand_WriteFn write, void *context)
 731:App/Src/fault_command.c **** {
 732:App/Src/fault_command.c ****   unsigned int cell;
 733:App/Src/fault_command.c ****   unsigned int millivolts;
 734:App/Src/fault_command.c ****   unsigned int target;
 735:App/Src/fault_command.c ****   unsigned long duration;
 736:App/Src/fault_command.c ****   unsigned int slew;
 737:App/Src/fault_command.c ****   unsigned int lowMv;
 738:App/Src/fault_command.c ****   unsigned int highMv;
 739:App/Src/fault_command.c ****   unsigned int centerMv;
 740:App/Src/fault_command.c ****   unsigned int amplitudeMv;
 741:App/Src/fault_command.c ****   unsigned long periodMs;
 742:App/Src/fault_command.c ****   int calOffsetMv;
 743:App/Src/fault_command.c ****   unsigned int measuredMv;
 744:App/Src/fault_command.c **** 
 745:App/Src/fault_command.c ****   if ((strcmp(line, "help") == 0) || (strcmp(line, "?") == 0))
 746:App/Src/fault_command.c ****   {
 747:App/Src/fault_command.c ****     FaultCommand_WriteTextHelp(write, context);
 748:App/Src/fault_command.c ****   }
 749:App/Src/fault_command.c ****   else if (strcmp(line, "status") == 0)
 750:App/Src/fault_command.c ****   {
 751:App/Src/fault_command.c ****     FaultCommand_WriteTextStatus(write, context);
 752:App/Src/fault_command.c ****   }
 753:App/Src/fault_command.c ****   else if (strncmp(line, "normal", 6U) == 0)
 754:App/Src/fault_command.c ****   {
 755:App/Src/fault_command.c ****     millivolts = VOLTAGE_SIM_DEFAULT_NORMAL_MV;
 756:App/Src/fault_command.c ****     (void)sscanf(line, "normal %u", &millivolts);
 757:App/Src/fault_command.c ****     FaultCommand_WriteTextResult(write,
 758:App/Src/fault_command.c ****                                  context,
 759:App/Src/fault_command.c ****                                  "normal",
 760:App/Src/fault_command.c ****                                  FaultCommand_RunNormal((uint16_t)millivolts));
 761:App/Src/fault_command.c ****   }
 762:App/Src/fault_command.c ****   else if (sscanf(line, "set %u %u", &cell, &millivolts) == 2)
 763:App/Src/fault_command.c ****   {
 764:App/Src/fault_command.c ****     FaultCommand_WriteTextResult(write,
 765:App/Src/fault_command.c ****                                  context,
 766:App/Src/fault_command.c ****                                  "set",
 767:App/Src/fault_command.c ****                                  FaultCommand_RunSet((uint8_t)cell, (uint16_t)millivolts));
 768:App/Src/fault_command.c ****   }
 769:App/Src/fault_command.c ****   else if (strncmp(line, "ov ", 3U) == 0)
 770:App/Src/fault_command.c ****   {
 771:App/Src/fault_command.c ****     cell = 0U;
 772:App/Src/fault_command.c ****     target = VOLTAGE_SIM_DEFAULT_OV_MV;
 773:App/Src/fault_command.c ****     duration = FAULT_COMMAND_DEFAULT_DURATION_MS;
 774:App/Src/fault_command.c ****     slew = FAULT_COMMAND_DEFAULT_SLEW_MV_PER_MS;
 775:App/Src/fault_command.c ****     if (sscanf(line, "ov %u %u %lu %u", &cell, &target, &duration, &slew) < 1)
 776:App/Src/fault_command.c ****     {
 777:App/Src/fault_command.c ****       FaultCommand_WriteTextResult(write, context, "ov", HAL_ERROR);
 778:App/Src/fault_command.c ****       return;
 779:App/Src/fault_command.c ****     }
 780:App/Src/fault_command.c **** 
 781:App/Src/fault_command.c ****     FaultCommand_WriteTextResult(write,
 782:App/Src/fault_command.c ****                                  context,
ARM GAS  C:\Users\hh\AppData\Local\Temp\ccntMbQq.s 			page 47


 783:App/Src/fault_command.c ****                                  "ov",
 784:App/Src/fault_command.c ****                                  FaultCommand_RunOverVoltage((uint8_t)cell,
 785:App/Src/fault_command.c ****                                                              (uint16_t)target,
 786:App/Src/fault_command.c ****                                                              (uint32_t)duration,
 787:App/Src/fault_command.c ****                                                              (uint16_t)slew));
 788:App/Src/fault_command.c ****   }
 789:App/Src/fault_command.c ****   else if (strncmp(line, "uv ", 3U) == 0)
 790:App/Src/fault_command.c ****   {
 791:App/Src/fault_command.c ****     cell = 0U;
 792:App/Src/fault_command.c ****     target = VOLTAGE_SIM_DEFAULT_UV_MV;
 793:App/Src/fault_command.c ****     duration = FAULT_COMMAND_DEFAULT_DURATION_MS;
 794:App/Src/fault_command.c ****     slew = FAULT_COMMAND_DEFAULT_SLEW_MV_PER_MS;
 795:App/Src/fault_command.c ****     if (sscanf(line, "uv %u %u %lu %u", &cell, &target, &duration, &slew) < 1)
 796:App/Src/fault_command.c ****     {
 797:App/Src/fault_command.c ****       FaultCommand_WriteTextResult(write, context, "uv", HAL_ERROR);
 798:App/Src/fault_command.c ****       return;
 799:App/Src/fault_command.c ****     }
 800:App/Src/fault_command.c **** 
 801:App/Src/fault_command.c ****     FaultCommand_WriteTextResult(write,
 802:App/Src/fault_command.c ****                                  context,
 803:App/Src/fault_command.c ****                                  "uv",
 804:App/Src/fault_command.c ****                                  FaultCommand_RunUnderVoltage((uint8_t)cell,
 805:App/Src/fault_command.c ****                                                               (uint16_t)target,
 806:App/Src/fault_command.c ****                                                               (uint32_t)duration,
 807:App/Src/fault_command.c ****                                                               (uint16_t)slew));
 808:App/Src/fault_command.c ****   }
 809:App/Src/fault_command.c ****   else if (strncmp(line, "diff ", 5U) == 0)
 810:App/Src/fault_command.c ****   {
 811:App/Src/fault_command.c ****     unsigned int highCell;
 812:App/Src/fault_command.c ****     unsigned int highMv;
 813:App/Src/fault_command.c ****     unsigned int lowCell;
 814:App/Src/fault_command.c ****     unsigned int lowMv;
 815:App/Src/fault_command.c **** 
 816:App/Src/fault_command.c ****     duration = FAULT_COMMAND_DEFAULT_DURATION_MS;
 817:App/Src/fault_command.c ****     slew = FAULT_COMMAND_DEFAULT_SLEW_MV_PER_MS;
 818:App/Src/fault_command.c ****     if (sscanf(line,
 819:App/Src/fault_command.c ****                "diff %u %u %u %u %lu %u",
 820:App/Src/fault_command.c ****                &highCell,
 821:App/Src/fault_command.c ****                &highMv,
 822:App/Src/fault_command.c ****                &lowCell,
 823:App/Src/fault_command.c ****                &lowMv,
 824:App/Src/fault_command.c ****                &duration,
 825:App/Src/fault_command.c ****                &slew) < 4)
 826:App/Src/fault_command.c ****     {
 827:App/Src/fault_command.c ****       FaultCommand_WriteTextResult(write, context, "diff", HAL_ERROR);
 828:App/Src/fault_command.c ****       return;
 829:App/Src/fault_command.c ****     }
 830:App/Src/fault_command.c **** 
 831:App/Src/fault_command.c ****     FaultCommand_WriteTextResult(write,
 832:App/Src/fault_command.c ****                                  context,
 833:App/Src/fault_command.c ****                                  "diff",
 834:App/Src/fault_command.c ****                                  FaultCommand_RunDiff((uint8_t)highCell,
 835:App/Src/fault_command.c ****                                                       (uint16_t)highMv,
 836:App/Src/fault_command.c ****                                                       (uint8_t)lowCell,
 837:App/Src/fault_command.c ****                                                       (uint16_t)lowMv,
 838:App/Src/fault_command.c ****                                                       (uint32_t)duration,
 839:App/Src/fault_command.c ****                                                       (uint16_t)slew));
ARM GAS  C:\Users\hh\AppData\Local\Temp\ccntMbQq.s 			page 48


 840:App/Src/fault_command.c ****   }
 841:App/Src/fault_command.c ****   else if (strcmp(line, "wave status") == 0)
 842:App/Src/fault_command.c ****   {
 843:App/Src/fault_command.c ****     FaultCommand_WriteTextWaveStatus(write, context);
 844:App/Src/fault_command.c ****   }
 845:App/Src/fault_command.c ****   else if (strcmp(line, "wave stop") == 0)
 846:App/Src/fault_command.c ****   {
 847:App/Src/fault_command.c ****     FaultCommand_StopAllWaveforms();
 848:App/Src/fault_command.c ****     FaultCommand_WriteTextResult(write, context, "wave", HAL_OK);
 849:App/Src/fault_command.c ****   }
 850:App/Src/fault_command.c ****   else if (strncmp(line, "wave high ", 10U) == 0)
 851:App/Src/fault_command.c ****   {
 852:App/Src/fault_command.c ****     unsigned int freqHz;
 853:App/Src/fault_command.c ****     unsigned int points;
 854:App/Src/fault_command.c ****     WaveformEngine_Config cfg;
 855:App/Src/fault_command.c **** 
 856:App/Src/fault_command.c ****     if (DacSafety_IsOutputAllowed() == 0U)
 857:App/Src/fault_command.c ****     {
 858:App/Src/fault_command.c ****       FaultCommand_WriteTextResult(write, context, "wave-high", HAL_BUSY);
 859:App/Src/fault_command.c ****       return;
 860:App/Src/fault_command.c ****     }
 861:App/Src/fault_command.c **** 
 862:App/Src/fault_command.c ****     if (sscanf(line,
 863:App/Src/fault_command.c ****                "wave high %u %u %u %u %u",
 864:App/Src/fault_command.c ****                &cell,
 865:App/Src/fault_command.c ****                &freqHz,
 866:App/Src/fault_command.c ****                &points,
 867:App/Src/fault_command.c ****                &amplitudeMv,
 868:App/Src/fault_command.c ****                &centerMv) != 5)
 869:App/Src/fault_command.c ****     {
 870:App/Src/fault_command.c ****       FaultCommand_WriteTextResult(write, context, "wave-high", HAL_ERROR);
 871:App/Src/fault_command.c ****       return;
 872:App/Src/fault_command.c ****     }
 873:App/Src/fault_command.c **** 
 874:App/Src/fault_command.c ****     memset(&cfg, 0, sizeof(cfg));
 875:App/Src/fault_command.c ****     cfg.active = 1U;
 876:App/Src/fault_command.c ****     cfg.channels = 1U;
 877:App/Src/fault_command.c ****     cfg.channelList[0] = (uint8_t)cell;
 878:App/Src/fault_command.c ****     cfg.sampleRate = (uint32_t)freqHz * (uint32_t)points;
 879:App/Src/fault_command.c ****     cfg.pointCount = (uint32_t)points;
 880:App/Src/fault_command.c ****     cfg.cycleCount = 1U;
 881:App/Src/fault_command.c ****     cfg.amplitudeMv = (uint16_t)amplitudeMv;
 882:App/Src/fault_command.c ****     cfg.offsetMv = (uint16_t)centerMv;
 883:App/Src/fault_command.c **** 
 884:App/Src/fault_command.c ****     FaultCommand_WriteTextResult(write,
 885:App/Src/fault_command.c ****                                  context,
 886:App/Src/fault_command.c ****                                  "wave-high",
 887:App/Src/fault_command.c ****                                  WaveformEngine_StartSine(&cfg));
 888:App/Src/fault_command.c ****   }
 889:App/Src/fault_command.c ****   else if (strncmp(line, "wave square ", 12U) == 0)
 890:App/Src/fault_command.c ****   {
 891:App/Src/fault_command.c ****     if (DacSafety_IsOutputAllowed() == 0U)
 892:App/Src/fault_command.c ****     {
 893:App/Src/fault_command.c ****       FaultCommand_WriteTextResult(write, context, "wave", HAL_BUSY);
 894:App/Src/fault_command.c ****       return;
 895:App/Src/fault_command.c ****     }
 896:App/Src/fault_command.c **** 
ARM GAS  C:\Users\hh\AppData\Local\Temp\ccntMbQq.s 			page 49


 897:App/Src/fault_command.c ****     if (sscanf(line,
 898:App/Src/fault_command.c ****                "wave square %u %u %u %lu",
 899:App/Src/fault_command.c ****                &cell,
 900:App/Src/fault_command.c ****                &lowMv,
 901:App/Src/fault_command.c ****                &highMv,
 902:App/Src/fault_command.c ****                &periodMs) != 4)
 903:App/Src/fault_command.c ****     {
 904:App/Src/fault_command.c ****       FaultCommand_WriteTextResult(write, context, "wave", HAL_ERROR);
 905:App/Src/fault_command.c ****       return;
 906:App/Src/fault_command.c ****     }
 907:App/Src/fault_command.c **** 
 908:App/Src/fault_command.c ****     WaveformEngine_Stop();
 909:App/Src/fault_command.c ****     FaultCommand_WriteTextResult(write,
 910:App/Src/fault_command.c ****                                  context,
 911:App/Src/fault_command.c ****                                  "wave",
 912:App/Src/fault_command.c ****                                  WaveformGen_StartSquare((uint8_t)cell,
 913:App/Src/fault_command.c ****                                                          (uint16_t)lowMv,
 914:App/Src/fault_command.c ****                                                          (uint16_t)highMv,
 915:App/Src/fault_command.c ****                                                          (uint32_t)periodMs));
 916:App/Src/fault_command.c ****   }
 917:App/Src/fault_command.c ****   else if (strncmp(line, "wave sine all ", 14U) == 0)
 918:App/Src/fault_command.c ****   {
 919:App/Src/fault_command.c ****     if (DacSafety_IsOutputAllowed() == 0U)
 920:App/Src/fault_command.c ****     {
 921:App/Src/fault_command.c ****       FaultCommand_WriteTextResult(write, context, "wave", HAL_BUSY);
 922:App/Src/fault_command.c ****       return;
 923:App/Src/fault_command.c ****     }
 924:App/Src/fault_command.c **** 
 925:App/Src/fault_command.c ****     if (sscanf(line,
 926:App/Src/fault_command.c ****                "wave sine all %u %u %lu",
 927:App/Src/fault_command.c ****                &centerMv,
 928:App/Src/fault_command.c ****                &amplitudeMv,
 929:App/Src/fault_command.c ****                &periodMs) != 3)
 930:App/Src/fault_command.c ****     {
 931:App/Src/fault_command.c ****       FaultCommand_WriteTextResult(write, context, "wave", HAL_ERROR);
 932:App/Src/fault_command.c ****       return;
 933:App/Src/fault_command.c ****     }
 934:App/Src/fault_command.c **** 
 935:App/Src/fault_command.c ****     WaveformEngine_Stop();
 936:App/Src/fault_command.c ****     FaultCommand_WriteTextResult(write,
 937:App/Src/fault_command.c ****                                  context,
 938:App/Src/fault_command.c ****                                  "wave",
 939:App/Src/fault_command.c ****                                  WaveformGen_StartSineAll((uint16_t)centerMv,
 940:App/Src/fault_command.c ****                                                           (uint16_t)amplitudeMv,
 941:App/Src/fault_command.c ****                                                           (uint32_t)periodMs));
 942:App/Src/fault_command.c ****   }
 943:App/Src/fault_command.c ****   else if (strncmp(line, "wave sine ", 10U) == 0)
 944:App/Src/fault_command.c ****   {
 945:App/Src/fault_command.c ****     if (DacSafety_IsOutputAllowed() == 0U)
 946:App/Src/fault_command.c ****     {
 947:App/Src/fault_command.c ****       FaultCommand_WriteTextResult(write, context, "wave", HAL_BUSY);
 948:App/Src/fault_command.c ****       return;
 949:App/Src/fault_command.c ****     }
 950:App/Src/fault_command.c **** 
 951:App/Src/fault_command.c ****     if (sscanf(line,
 952:App/Src/fault_command.c ****                "wave sine %u %u %u %lu",
 953:App/Src/fault_command.c ****                &cell,
ARM GAS  C:\Users\hh\AppData\Local\Temp\ccntMbQq.s 			page 50


 954:App/Src/fault_command.c ****                &centerMv,
 955:App/Src/fault_command.c ****                &amplitudeMv,
 956:App/Src/fault_command.c ****                &periodMs) != 4)
 957:App/Src/fault_command.c ****     {
 958:App/Src/fault_command.c ****       FaultCommand_WriteTextResult(write, context, "wave", HAL_ERROR);
 959:App/Src/fault_command.c ****       return;
 960:App/Src/fault_command.c ****     }
 961:App/Src/fault_command.c **** 
 962:App/Src/fault_command.c ****     WaveformEngine_Stop();
 963:App/Src/fault_command.c ****     FaultCommand_WriteTextResult(write,
 964:App/Src/fault_command.c ****                                  context,
 965:App/Src/fault_command.c ****                                  "wave",
 966:App/Src/fault_command.c ****                                  WaveformGen_StartSine((uint8_t)cell,
 967:App/Src/fault_command.c ****                                                        (uint16_t)centerMv,
 968:App/Src/fault_command.c ****                                                        (uint16_t)amplitudeMv,
 969:App/Src/fault_command.c ****                                                        (uint32_t)periodMs));
 970:App/Src/fault_command.c ****   }
 971:App/Src/fault_command.c ****   else if (strcmp(line, "cal status") == 0)
 972:App/Src/fault_command.c ****   {
 973:App/Src/fault_command.c ****     FaultCommand_WriteTextCalibrationStatus(write, context);
 974:App/Src/fault_command.c ****   }
 975:App/Src/fault_command.c ****   else if (strncmp(line, "cal set ", 8U) == 0)
 976:App/Src/fault_command.c ****   {
 977:App/Src/fault_command.c ****     if (DacSafety_IsOutputAllowed() == 0U)
 978:App/Src/fault_command.c ****     {
 979:App/Src/fault_command.c ****       FaultCommand_WriteTextResult(write, context, "cal", HAL_BUSY);
 980:App/Src/fault_command.c ****       return;
 981:App/Src/fault_command.c ****     }
 982:App/Src/fault_command.c **** 
 983:App/Src/fault_command.c ****     if (sscanf(line, "cal set %u %d", &cell, &calOffsetMv) != 2)
 984:App/Src/fault_command.c ****     {
 985:App/Src/fault_command.c ****       FaultCommand_WriteTextResult(write, context, "cal", HAL_ERROR);
 986:App/Src/fault_command.c ****       return;
 987:App/Src/fault_command.c ****     }
 988:App/Src/fault_command.c **** 
 989:App/Src/fault_command.c ****     FaultCommand_WriteTextResult(write,
 990:App/Src/fault_command.c ****                                  context,
 991:App/Src/fault_command.c ****                                  "cal",
 992:App/Src/fault_command.c ****                                  VoltageSim_SetCellCalibrationOffsetMv((uint8_t)cell,
 993:App/Src/fault_command.c ****                                                                         (int16_t)calOffsetMv));
 994:App/Src/fault_command.c ****   }
 995:App/Src/fault_command.c ****   else if (strncmp(line, "cal trim ", 9U) == 0)
 996:App/Src/fault_command.c ****   {
 997:App/Src/fault_command.c ****     if (DacSafety_IsOutputAllowed() == 0U)
 998:App/Src/fault_command.c ****     {
 999:App/Src/fault_command.c ****       FaultCommand_WriteTextResult(write, context, "cal", HAL_BUSY);
1000:App/Src/fault_command.c ****       return;
1001:App/Src/fault_command.c ****     }
1002:App/Src/fault_command.c **** 
1003:App/Src/fault_command.c ****     if (sscanf(line, "cal trim %u %u %u", &cell, &target, &measuredMv) != 3)
1004:App/Src/fault_command.c ****     {
1005:App/Src/fault_command.c ****       FaultCommand_WriteTextResult(write, context, "cal", HAL_ERROR);
1006:App/Src/fault_command.c ****       return;
1007:App/Src/fault_command.c ****     }
1008:App/Src/fault_command.c **** 
1009:App/Src/fault_command.c ****     FaultCommand_WriteTextResult(write,
1010:App/Src/fault_command.c ****                                  context,
ARM GAS  C:\Users\hh\AppData\Local\Temp\ccntMbQq.s 			page 51


1011:App/Src/fault_command.c ****                                  "cal",
1012:App/Src/fault_command.c ****                                  FaultCommand_RunCalibrationTrim((uint8_t)cell,
1013:App/Src/fault_command.c ****                                                                  (uint16_t)target,
1014:App/Src/fault_command.c ****                                                                  (uint16_t)measuredMv));
1015:App/Src/fault_command.c ****   }
1016:App/Src/fault_command.c ****   else if (strncmp(line, "cal clear", 9U) == 0)
1017:App/Src/fault_command.c ****   {
1018:App/Src/fault_command.c ****     if (DacSafety_IsOutputAllowed() == 0U)
1019:App/Src/fault_command.c ****     {
1020:App/Src/fault_command.c ****       FaultCommand_WriteTextResult(write, context, "cal", HAL_BUSY);
1021:App/Src/fault_command.c ****       return;
1022:App/Src/fault_command.c ****     }
1023:App/Src/fault_command.c **** 
1024:App/Src/fault_command.c ****     if (sscanf(line, "cal clear %u", &cell) == 1)
1025:App/Src/fault_command.c ****     {
1026:App/Src/fault_command.c ****       FaultCommand_WriteTextResult(write,
1027:App/Src/fault_command.c ****                                    context,
1028:App/Src/fault_command.c ****                                    "cal",
1029:App/Src/fault_command.c ****                                    VoltageSim_ClearCellCalibrationOffset((uint8_t)cell));
1030:App/Src/fault_command.c ****     }
1031:App/Src/fault_command.c ****     else
1032:App/Src/fault_command.c ****     {
1033:App/Src/fault_command.c ****       VoltageSim_ClearAllCalibrationOffsets();
1034:App/Src/fault_command.c ****       FaultCommand_WriteTextResult(write, context, "cal", HAL_OK);
1035:App/Src/fault_command.c ****     }
1036:App/Src/fault_command.c ****   }
1037:App/Src/fault_command.c ****   else if (strncmp(line, "test static ", 12U) == 0)
1038:App/Src/fault_command.c ****   {
1039:App/Src/fault_command.c ****     if (sscanf(line, "test static %u", &millivolts) != 1)
1040:App/Src/fault_command.c ****     {
1041:App/Src/fault_command.c ****       FaultCommand_WriteTextResult(write, context, "test", HAL_ERROR);
1042:App/Src/fault_command.c ****       return;
1043:App/Src/fault_command.c ****     }
1044:App/Src/fault_command.c **** 
1045:App/Src/fault_command.c ****     FaultCommand_WriteTextResult(write,
1046:App/Src/fault_command.c ****                                  context,
1047:App/Src/fault_command.c ****                                  "test",
1048:App/Src/fault_command.c ****                                  FaultCommand_RunNormal((uint16_t)millivolts));
1049:App/Src/fault_command.c ****   }
1050:App/Src/fault_command.c ****   else if (strncmp(line, "test slew ", 10U) == 0)
1051:App/Src/fault_command.c ****   {
1052:App/Src/fault_command.c ****     if (DacSafety_IsOutputAllowed() == 0U)
1053:App/Src/fault_command.c ****     {
1054:App/Src/fault_command.c ****       FaultCommand_WriteTextResult(write, context, "test", HAL_BUSY);
1055:App/Src/fault_command.c ****       return;
1056:App/Src/fault_command.c ****     }
1057:App/Src/fault_command.c **** 
1058:App/Src/fault_command.c ****     if (sscanf(line,
1059:App/Src/fault_command.c ****                "test slew %u %u %u %lu",
1060:App/Src/fault_command.c ****                &cell,
1061:App/Src/fault_command.c ****                &lowMv,
1062:App/Src/fault_command.c ****                &highMv,
1063:App/Src/fault_command.c ****                &periodMs) != 4)
1064:App/Src/fault_command.c ****     {
1065:App/Src/fault_command.c ****       FaultCommand_WriteTextResult(write, context, "test", HAL_ERROR);
1066:App/Src/fault_command.c ****       return;
1067:App/Src/fault_command.c ****     }
ARM GAS  C:\Users\hh\AppData\Local\Temp\ccntMbQq.s 			page 52


1068:App/Src/fault_command.c **** 
1069:App/Src/fault_command.c ****     FaultCommand_WriteTextResult(write,
1070:App/Src/fault_command.c ****                                  context,
1071:App/Src/fault_command.c ****                                  "test",
1072:App/Src/fault_command.c ****                                  WaveformGen_StartSquare((uint8_t)cell,
1073:App/Src/fault_command.c ****                                                          (uint16_t)lowMv,
1074:App/Src/fault_command.c ****                                                          (uint16_t)highMv,
1075:App/Src/fault_command.c ****                                                          (uint32_t)periodMs));
1076:App/Src/fault_command.c ****   }
1077:App/Src/fault_command.c ****   else if (strcmp(line, "can status") == 0)
1078:App/Src/fault_command.c ****   {
1079:App/Src/fault_command.c ****     FaultCommand_WriteTextCanStatus(write, context);
1080:App/Src/fault_command.c ****   }
1081:App/Src/fault_command.c ****   else if (strncmp(line, "can send ", 9U) == 0)
1082:App/Src/fault_command.c ****   {
1083:App/Src/fault_command.c ****     FaultCommand_WriteTextResult(write,
1084:App/Src/fault_command.c ****                                  context,
1085:App/Src/fault_command.c ****                                  "can",
1086:App/Src/fault_command.c ****                                  FaultCommand_ParseCanSendText(line));
1087:App/Src/fault_command.c ****   }
1088:App/Src/fault_command.c ****   else if (strcmp(line, "log status") == 0)
1089:App/Src/fault_command.c ****   {
1090:App/Src/fault_command.c ****     FaultCommand_WriteTextBmsResponseLog(write, context);
1091:App/Src/fault_command.c ****   }
1092:App/Src/fault_command.c ****   else if (strcmp(line, "log clear") == 0)
1093:App/Src/fault_command.c ****   {
1094:App/Src/fault_command.c ****     BmsResponseLog_Clear();
1095:App/Src/fault_command.c ****     FaultCommand_WriteTextResult(write, context, "log", HAL_OK);
1096:App/Src/fault_command.c ****   }
1097:App/Src/fault_command.c ****   else if (strncmp(line, "log filter ", 11U) == 0)
1098:App/Src/fault_command.c ****   {
1099:App/Src/fault_command.c ****     FaultCommand_WriteTextResult(write,
1100:App/Src/fault_command.c ****                                  context,
1101:App/Src/fault_command.c ****                                  "log",
1102:App/Src/fault_command.c ****                                  FaultCommand_ParseLogFilterText(line));
1103:App/Src/fault_command.c ****     FaultCommand_WriteTextBmsResponseLog(write, context);
1104:App/Src/fault_command.c ****   }
1105:App/Src/fault_command.c ****   else if (strncmp(line, "log data ", 9U) == 0)
1106:App/Src/fault_command.c ****   {
1107:App/Src/fault_command.c ****     FaultCommand_WriteTextResult(write,
1108:App/Src/fault_command.c ****                                  context,
1109:App/Src/fault_command.c ****                                  "log",
1110:App/Src/fault_command.c ****                                  FaultCommand_ParseLogDataText(line));
1111:App/Src/fault_command.c ****     FaultCommand_WriteTextBmsResponseLog(write, context);
1112:App/Src/fault_command.c ****   }
1113:App/Src/fault_command.c ****   else if (strcmp(line, "safe status") == 0)
1114:App/Src/fault_command.c ****   {
1115:App/Src/fault_command.c ****     FaultCommand_WriteTextSafetyStatus(write, context);
1116:App/Src/fault_command.c ****   }
1117:App/Src/fault_command.c ****   else if ((strncmp(line, "safe stop", 9U) == 0) ||
1118:App/Src/fault_command.c ****            (strncmp(line, "emergency stop", 14U) == 0))
1119:App/Src/fault_command.c ****   {
1120:App/Src/fault_command.c ****     millivolts = DAC_SAFETY_DEFAULT_SAFE_MV;
1121:App/Src/fault_command.c ****     (void)sscanf(line, "safe stop %u", &millivolts);
1122:App/Src/fault_command.c ****     (void)sscanf(line, "emergency stop %u", &millivolts);
1123:App/Src/fault_command.c ****     FaultCommand_StopAllWaveforms();
1124:App/Src/fault_command.c ****     FaultCommand_WriteTextResult(write,
ARM GAS  C:\Users\hh\AppData\Local\Temp\ccntMbQq.s 			page 53


1125:App/Src/fault_command.c ****                                  context,
1126:App/Src/fault_command.c ****                                  "safe",
1127:App/Src/fault_command.c ****                                  DacSafety_EmergencyStop((uint16_t)millivolts));
1128:App/Src/fault_command.c ****   }
1129:App/Src/fault_command.c ****   else if (strcmp(line, "safe release") == 0)
1130:App/Src/fault_command.c ****   {
1131:App/Src/fault_command.c ****     DacSafety_Release();
1132:App/Src/fault_command.c ****     FaultCommand_WriteTextResult(write, context, "safe", HAL_OK);
1133:App/Src/fault_command.c ****   }
1134:App/Src/fault_command.c ****   else if (strcmp(line, "sram status") == 0)
1135:App/Src/fault_command.c ****   {
1136:App/Src/fault_command.c ****     FaultCommand_WriteTextSramStatus(write, context);
1137:App/Src/fault_command.c ****   }
1138:App/Src/fault_command.c ****   else if (strncmp(line, "sram test", 9U) == 0)
1139:App/Src/fault_command.c ****   {
1140:App/Src/fault_command.c ****     unsigned long bytes = BSP_SRAM_DEFAULT_TEST_BYTES;
1141:App/Src/fault_command.c ****     HAL_StatusTypeDef status;
1142:App/Src/fault_command.c **** 
1143:App/Src/fault_command.c ****     (void)sscanf(line, "sram test %lu", &bytes);
1144:App/Src/fault_command.c ****     status = BspSram_RunSelfTest((uint32_t)bytes);
1145:App/Src/fault_command.c ****     FaultCommand_WriteTextResult(write, context, "sram", status);
1146:App/Src/fault_command.c ****     FaultCommand_WriteTextSramStatus(write, context);
1147:App/Src/fault_command.c ****   }
1148:App/Src/fault_command.c ****   else if (strncmp(line, "clear", 5U) == 0)
1149:App/Src/fault_command.c ****   {
1150:App/Src/fault_command.c ****     if (DacSafety_IsOutputAllowed() == 0U)
1151:App/Src/fault_command.c ****     {
1152:App/Src/fault_command.c ****       FaultCommand_WriteTextResult(write, context, "clear", HAL_BUSY);
1153:App/Src/fault_command.c ****       return;
1154:App/Src/fault_command.c ****     }
1155:App/Src/fault_command.c **** 
1156:App/Src/fault_command.c ****     FaultCommand_StopAllWaveforms();
1157:App/Src/fault_command.c ****     if (sscanf(line, "clear %u", &cell) == 1)
1158:App/Src/fault_command.c ****     {
1159:App/Src/fault_command.c ****       FaultCommand_WriteTextResult(write, context, "clear", VoltageSim_ClearCellFault((uint8_t)cell
1160:App/Src/fault_command.c ****     }
1161:App/Src/fault_command.c ****     else
1162:App/Src/fault_command.c ****     {
1163:App/Src/fault_command.c ****       FaultCommand_WriteTextResult(write, context, "clear", VoltageSim_ClearAllFaults());
1164:App/Src/fault_command.c ****     }
1165:App/Src/fault_command.c ****   }
1166:App/Src/fault_command.c ****   else if (*line != '\0')
1167:App/Src/fault_command.c ****   {
1168:App/Src/fault_command.c ****     FaultCommand_WriteFormat(write, context, "[cmd] unknown: %s\r\n", line);
1169:App/Src/fault_command.c ****   }
1170:App/Src/fault_command.c **** }
1171:App/Src/fault_command.c **** 
1172:App/Src/fault_command.c **** static const char *FaultCommand_FindJsonKey(const char *json, const char *key)
1173:App/Src/fault_command.c **** {
 1458              		.loc 1 1173 1 is_stmt 1 view -0
 1459              		.cfi_startproc
 1460              		@ args = 0, pretend = 0, frame = 32
 1461              		@ frame_needed = 0, uses_anonymous_args = 0
 1462              		.loc 1 1173 1 is_stmt 0 view .LVU231
 1463 0000 30B5     		push	{r4, r5, lr}
 1464              	.LCFI33:
 1465              		.cfi_def_cfa_offset 12
ARM GAS  C:\Users\hh\AppData\Local\Temp\ccntMbQq.s 			page 54


 1466              		.cfi_offset 4, -12
 1467              		.cfi_offset 5, -8
 1468              		.cfi_offset 14, -4
 1469 0002 89B0     		sub	sp, sp, #36
 1470              	.LCFI34:
 1471              		.cfi_def_cfa_offset 48
 1472 0004 0546     		mov	r5, r0
 1473 0006 0B46     		mov	r3, r1
1174:App/Src/fault_command.c ****   char pattern[32];
 1474              		.loc 1 1174 3 is_stmt 1 view .LVU232
1175:App/Src/fault_command.c **** 
1176:App/Src/fault_command.c ****   (void)snprintf(pattern, sizeof(pattern), "\"%s\"", key);
 1475              		.loc 1 1176 3 view .LVU233
 1476              		.loc 1 1176 9 is_stmt 0 view .LVU234
 1477 0008 054A     		ldr	r2, .L70
 1478 000a 2021     		movs	r1, #32
 1479              	.LVL124:
 1480              		.loc 1 1176 9 view .LVU235
 1481 000c 6846     		mov	r0, sp
 1482              	.LVL125:
 1483              		.loc 1 1176 9 view .LVU236
 1484 000e FFF7FEFF 		bl	snprintf
 1485              	.LVL126:
1177:App/Src/fault_command.c ****   return strstr(json, pattern);
 1486              		.loc 1 1177 3 is_stmt 1 view .LVU237
 1487              		.loc 1 1177 10 is_stmt 0 view .LVU238
 1488 0012 6946     		mov	r1, sp
 1489 0014 2846     		mov	r0, r5
 1490 0016 FFF7FEFF 		bl	strstr
 1491              	.LVL127:
1178:App/Src/fault_command.c **** }
 1492              		.loc 1 1178 1 view .LVU239
 1493 001a 09B0     		add	sp, sp, #36
 1494              	.LCFI35:
 1495              		.cfi_def_cfa_offset 12
 1496              		@ sp needed
 1497 001c 30BD     		pop	{r4, r5, pc}
 1498              	.LVL128:
 1499              	.L71:
 1500              		.loc 1 1178 1 view .LVU240
 1501 001e 00BF     		.align	2
 1502              	.L70:
 1503 0020 00000000 		.word	.LC57
 1504              		.cfi_endproc
 1505              	.LFE178:
 1507              		.section	.text.FaultCommand_JsonGetInt,"ax",%progbits
 1508              		.align	1
 1509              		.syntax unified
 1510              		.thumb
 1511              		.thumb_func
 1513              	FaultCommand_JsonGetInt:
 1514              	.LVL129:
 1515              	.LFB181:
1179:App/Src/fault_command.c **** 
1180:App/Src/fault_command.c **** static uint8_t FaultCommand_JsonGetString(const char *json,
1181:App/Src/fault_command.c ****                                           const char *key,
1182:App/Src/fault_command.c ****                                           char *value,
ARM GAS  C:\Users\hh\AppData\Local\Temp\ccntMbQq.s 			page 55


1183:App/Src/fault_command.c ****                                           uint32_t valueSize)
1184:App/Src/fault_command.c **** {
1185:App/Src/fault_command.c ****   const char *cursor = FaultCommand_FindJsonKey(json, key);
1186:App/Src/fault_command.c ****   uint32_t index = 0U;
1187:App/Src/fault_command.c **** 
1188:App/Src/fault_command.c ****   if ((cursor == NULL) || (value == NULL) || (valueSize == 0U))
1189:App/Src/fault_command.c ****   {
1190:App/Src/fault_command.c ****     return 0U;
1191:App/Src/fault_command.c ****   }
1192:App/Src/fault_command.c **** 
1193:App/Src/fault_command.c ****   cursor = strchr(cursor, ':');
1194:App/Src/fault_command.c ****   if (cursor == NULL)
1195:App/Src/fault_command.c ****   {
1196:App/Src/fault_command.c ****     return 0U;
1197:App/Src/fault_command.c ****   }
1198:App/Src/fault_command.c **** 
1199:App/Src/fault_command.c ****   cursor++;
1200:App/Src/fault_command.c ****   while (*cursor == ' ')
1201:App/Src/fault_command.c ****   {
1202:App/Src/fault_command.c ****     cursor++;
1203:App/Src/fault_command.c ****   }
1204:App/Src/fault_command.c **** 
1205:App/Src/fault_command.c ****   if (*cursor != '"')
1206:App/Src/fault_command.c ****   {
1207:App/Src/fault_command.c ****     return 0U;
1208:App/Src/fault_command.c ****   }
1209:App/Src/fault_command.c **** 
1210:App/Src/fault_command.c ****   cursor++;
1211:App/Src/fault_command.c ****   while ((*cursor != '\0') && (*cursor != '"') && (index < (valueSize - 1U)))
1212:App/Src/fault_command.c ****   {
1213:App/Src/fault_command.c ****     value[index++] = *cursor++;
1214:App/Src/fault_command.c ****   }
1215:App/Src/fault_command.c ****   value[index] = '\0';
1216:App/Src/fault_command.c **** 
1217:App/Src/fault_command.c ****   return (*cursor == '"') ? 1U : 0U;
1218:App/Src/fault_command.c **** }
1219:App/Src/fault_command.c **** 
1220:App/Src/fault_command.c **** static uint8_t FaultCommand_JsonGetUint(const char *json, const char *key, uint32_t *value)
1221:App/Src/fault_command.c **** {
1222:App/Src/fault_command.c ****   const char *cursor = FaultCommand_FindJsonKey(json, key);
1223:App/Src/fault_command.c **** 
1224:App/Src/fault_command.c ****   if ((cursor == NULL) || (value == NULL))
1225:App/Src/fault_command.c ****   {
1226:App/Src/fault_command.c ****     return 0U;
1227:App/Src/fault_command.c ****   }
1228:App/Src/fault_command.c **** 
1229:App/Src/fault_command.c ****   cursor = strchr(cursor, ':');
1230:App/Src/fault_command.c ****   if (cursor == NULL)
1231:App/Src/fault_command.c ****   {
1232:App/Src/fault_command.c ****     return 0U;
1233:App/Src/fault_command.c ****   }
1234:App/Src/fault_command.c **** 
1235:App/Src/fault_command.c ****   cursor++;
1236:App/Src/fault_command.c ****   while (*cursor == ' ')
1237:App/Src/fault_command.c ****   {
1238:App/Src/fault_command.c ****     cursor++;
1239:App/Src/fault_command.c ****   }
ARM GAS  C:\Users\hh\AppData\Local\Temp\ccntMbQq.s 			page 56


1240:App/Src/fault_command.c **** 
1241:App/Src/fault_command.c ****   *value = (uint32_t)strtoul(cursor, NULL, 10);
1242:App/Src/fault_command.c ****   return 1U;
1243:App/Src/fault_command.c **** }
1244:App/Src/fault_command.c **** 
1245:App/Src/fault_command.c **** static uint8_t FaultCommand_JsonGetInt(const char *json, const char *key, int32_t *value)
1246:App/Src/fault_command.c **** {
 1516              		.loc 1 1246 1 is_stmt 1 view -0
 1517              		.cfi_startproc
 1518              		@ args = 0, pretend = 0, frame = 0
 1519              		@ frame_needed = 0, uses_anonymous_args = 0
 1520              		.loc 1 1246 1 is_stmt 0 view .LVU242
 1521 0000 10B5     		push	{r4, lr}
 1522              	.LCFI36:
 1523              		.cfi_def_cfa_offset 8
 1524              		.cfi_offset 4, -8
 1525              		.cfi_offset 14, -4
 1526 0002 1446     		mov	r4, r2
1247:App/Src/fault_command.c ****   const char *cursor = FaultCommand_FindJsonKey(json, key);
 1527              		.loc 1 1247 3 is_stmt 1 view .LVU243
 1528              		.loc 1 1247 24 is_stmt 0 view .LVU244
 1529 0004 FFF7FEFF 		bl	FaultCommand_FindJsonKey
 1530              	.LVL130:
1248:App/Src/fault_command.c **** 
1249:App/Src/fault_command.c ****   if ((cursor == NULL) || (value == NULL))
 1531              		.loc 1 1249 3 is_stmt 1 view .LVU245
 1532              		.loc 1 1249 6 is_stmt 0 view .LVU246
 1533 0008 002C     		cmp	r4, #0
 1534 000a 18BF     		it	ne
 1535 000c 0028     		cmpne	r0, #0
 1536 000e 10D0     		beq	.L76
1250:App/Src/fault_command.c ****   {
1251:App/Src/fault_command.c ****     return 0U;
1252:App/Src/fault_command.c ****   }
1253:App/Src/fault_command.c **** 
1254:App/Src/fault_command.c ****   cursor = strchr(cursor, ':');
 1537              		.loc 1 1254 3 is_stmt 1 view .LVU247
 1538              		.loc 1 1254 12 is_stmt 0 view .LVU248
 1539 0010 3A21     		movs	r1, #58
 1540 0012 FFF7FEFF 		bl	strchr
 1541              	.LVL131:
1255:App/Src/fault_command.c ****   if (cursor == NULL)
 1542              		.loc 1 1255 3 is_stmt 1 view .LVU249
 1543              		.loc 1 1255 6 is_stmt 0 view .LVU250
 1544 0016 58B1     		cbz	r0, .L73
1256:App/Src/fault_command.c ****   {
1257:App/Src/fault_command.c ****     return 0U;
1258:App/Src/fault_command.c ****   }
1259:App/Src/fault_command.c **** 
1260:App/Src/fault_command.c ****   cursor++;
 1545              		.loc 1 1260 3 is_stmt 1 view .LVU251
 1546              		.loc 1 1260 9 is_stmt 0 view .LVU252
 1547 0018 0130     		adds	r0, r0, #1
 1548              	.LVL132:
1261:App/Src/fault_command.c ****   while (*cursor == ' ')
 1549              		.loc 1 1261 3 is_stmt 1 view .LVU253
 1550              	.L74:
ARM GAS  C:\Users\hh\AppData\Local\Temp\ccntMbQq.s 			page 57


 1551              		.loc 1 1261 18 view .LVU254
 1552              		.loc 1 1261 10 is_stmt 0 view .LVU255
 1553 001a 0378     		ldrb	r3, [r0]	@ zero_extendqisi2
 1554              		.loc 1 1261 18 view .LVU256
 1555 001c 202B     		cmp	r3, #32
 1556 001e 01D1     		bne	.L79
1262:App/Src/fault_command.c ****   {
1263:App/Src/fault_command.c ****     cursor++;
 1557              		.loc 1 1263 5 is_stmt 1 view .LVU257
 1558              		.loc 1 1263 11 is_stmt 0 view .LVU258
 1559 0020 0130     		adds	r0, r0, #1
 1560              	.LVL133:
 1561              		.loc 1 1263 11 view .LVU259
 1562 0022 FAE7     		b	.L74
 1563              	.LVL134:
 1564              	.L79:
1264:App/Src/fault_command.c ****   }
1265:App/Src/fault_command.c **** 
1266:App/Src/fault_command.c ****   *value = (int32_t)strtol(cursor, NULL, 10);
 1565              		.loc 1 1266 3 is_stmt 1 view .LVU260
 1566              		.loc 1 1266 12 is_stmt 0 view .LVU261
 1567 0024 0A22     		movs	r2, #10
 1568 0026 0021     		movs	r1, #0
 1569 0028 FFF7FEFF 		bl	strtol
 1570              	.LVL135:
 1571              		.loc 1 1266 10 discriminator 1 view .LVU262
 1572 002c 2060     		str	r0, [r4]
1267:App/Src/fault_command.c ****   return 1U;
 1573              		.loc 1 1267 3 is_stmt 1 view .LVU263
 1574              		.loc 1 1267 10 is_stmt 0 view .LVU264
 1575 002e 0120     		movs	r0, #1
 1576              	.LVL136:
 1577              	.L73:
1268:App/Src/fault_command.c **** }
 1578              		.loc 1 1268 1 view .LVU265
 1579 0030 10BD     		pop	{r4, pc}
 1580              	.LVL137:
 1581              	.L76:
1251:App/Src/fault_command.c ****   }
 1582              		.loc 1 1251 12 view .LVU266
 1583 0032 0020     		movs	r0, #0
 1584              	.LVL138:
1251:App/Src/fault_command.c ****   }
 1585              		.loc 1 1251 12 view .LVU267
 1586 0034 FCE7     		b	.L73
 1587              		.cfi_endproc
 1588              	.LFE181:
 1590              		.section	.text.FaultCommand_JsonGetString,"ax",%progbits
 1591              		.align	1
 1592              		.syntax unified
 1593              		.thumb
 1594              		.thumb_func
 1596              	FaultCommand_JsonGetString:
 1597              	.LVL139:
 1598              	.LFB179:
1184:App/Src/fault_command.c ****   const char *cursor = FaultCommand_FindJsonKey(json, key);
 1599              		.loc 1 1184 1 is_stmt 1 view -0
ARM GAS  C:\Users\hh\AppData\Local\Temp\ccntMbQq.s 			page 58


 1600              		.cfi_startproc
 1601              		@ args = 0, pretend = 0, frame = 0
 1602              		@ frame_needed = 0, uses_anonymous_args = 0
1184:App/Src/fault_command.c ****   const char *cursor = FaultCommand_FindJsonKey(json, key);
 1603              		.loc 1 1184 1 is_stmt 0 view .LVU269
 1604 0000 38B5     		push	{r3, r4, r5, lr}
 1605              	.LCFI37:
 1606              		.cfi_def_cfa_offset 16
 1607              		.cfi_offset 3, -16
 1608              		.cfi_offset 4, -12
 1609              		.cfi_offset 5, -8
 1610              		.cfi_offset 14, -4
 1611 0002 1446     		mov	r4, r2
 1612 0004 1D46     		mov	r5, r3
1185:App/Src/fault_command.c ****   uint32_t index = 0U;
 1613              		.loc 1 1185 3 is_stmt 1 view .LVU270
1185:App/Src/fault_command.c ****   uint32_t index = 0U;
 1614              		.loc 1 1185 24 is_stmt 0 view .LVU271
 1615 0006 FFF7FEFF 		bl	FaultCommand_FindJsonKey
 1616              	.LVL140:
1186:App/Src/fault_command.c **** 
 1617              		.loc 1 1186 3 is_stmt 1 view .LVU272
1188:App/Src/fault_command.c ****   {
 1618              		.loc 1 1188 3 view .LVU273
1188:App/Src/fault_command.c ****   {
 1619              		.loc 1 1188 6 is_stmt 0 view .LVU274
 1620 000a 002C     		cmp	r4, #0
 1621 000c 18BF     		it	ne
 1622 000e 0028     		cmpne	r0, #0
 1623 0010 28D0     		beq	.L87
1188:App/Src/fault_command.c ****   {
 1624              		.loc 1 1188 43 discriminator 1 view .LVU275
 1625 0012 4DB3     		cbz	r5, .L88
1193:App/Src/fault_command.c ****   if (cursor == NULL)
 1626              		.loc 1 1193 3 is_stmt 1 view .LVU276
1193:App/Src/fault_command.c ****   if (cursor == NULL)
 1627              		.loc 1 1193 12 is_stmt 0 view .LVU277
 1628 0014 3A21     		movs	r1, #58
 1629 0016 FFF7FEFF 		bl	strchr
 1630              	.LVL141:
1194:App/Src/fault_command.c ****   {
 1631              		.loc 1 1194 3 is_stmt 1 view .LVU278
1194:App/Src/fault_command.c ****   {
 1632              		.loc 1 1194 6 is_stmt 0 view .LVU279
 1633 001a 0146     		mov	r1, r0
 1634 001c 18B3     		cbz	r0, .L81
1199:App/Src/fault_command.c ****   while (*cursor == ' ')
 1635              		.loc 1 1199 3 is_stmt 1 view .LVU280
1199:App/Src/fault_command.c ****   while (*cursor == ' ')
 1636              		.loc 1 1199 9 is_stmt 0 view .LVU281
 1637 001e 0131     		adds	r1, r1, #1
 1638              	.LVL142:
1200:App/Src/fault_command.c ****   {
 1639              		.loc 1 1200 3 is_stmt 1 view .LVU282
1200:App/Src/fault_command.c ****   {
 1640              		.loc 1 1200 9 is_stmt 0 view .LVU283
 1641 0020 00E0     		b	.L82
ARM GAS  C:\Users\hh\AppData\Local\Temp\ccntMbQq.s 			page 59


 1642              	.L83:
1202:App/Src/fault_command.c ****   }
 1643              		.loc 1 1202 5 is_stmt 1 view .LVU284
1202:App/Src/fault_command.c ****   }
 1644              		.loc 1 1202 11 is_stmt 0 view .LVU285
 1645 0022 0131     		adds	r1, r1, #1
 1646              	.LVL143:
 1647              	.L82:
1200:App/Src/fault_command.c ****   {
 1648              		.loc 1 1200 18 is_stmt 1 view .LVU286
1200:App/Src/fault_command.c ****   {
 1649              		.loc 1 1200 10 is_stmt 0 view .LVU287
 1650 0024 0878     		ldrb	r0, [r1]	@ zero_extendqisi2
1200:App/Src/fault_command.c ****   {
 1651              		.loc 1 1200 18 view .LVU288
 1652 0026 2028     		cmp	r0, #32
 1653 0028 FBD0     		beq	.L83
1205:App/Src/fault_command.c ****   {
 1654              		.loc 1 1205 3 is_stmt 1 view .LVU289
1205:App/Src/fault_command.c ****   {
 1655              		.loc 1 1205 6 is_stmt 0 view .LVU290
 1656 002a 2228     		cmp	r0, #34
 1657 002c 1ED1     		bne	.L90
1210:App/Src/fault_command.c ****   while ((*cursor != '\0') && (*cursor != '"') && (index < (valueSize - 1U)))
 1658              		.loc 1 1210 3 is_stmt 1 view .LVU291
1210:App/Src/fault_command.c ****   while ((*cursor != '\0') && (*cursor != '"') && (index < (valueSize - 1U)))
 1659              		.loc 1 1210 9 is_stmt 0 view .LVU292
 1660 002e 0131     		adds	r1, r1, #1
 1661              	.LVL144:
1211:App/Src/fault_command.c ****   {
 1662              		.loc 1 1211 3 is_stmt 1 view .LVU293
1186:App/Src/fault_command.c **** 
 1663              		.loc 1 1186 12 is_stmt 0 view .LVU294
 1664 0030 4FF0000C 		mov	ip, #0
1211:App/Src/fault_command.c ****   {
 1665              		.loc 1 1211 9 view .LVU295
 1666 0034 04E0     		b	.L84
 1667              	.LVL145:
 1668              	.L86:
1213:App/Src/fault_command.c ****   }
 1669              		.loc 1 1213 5 is_stmt 1 view .LVU296
1213:App/Src/fault_command.c ****   }
 1670              		.loc 1 1213 29 is_stmt 0 view .LVU297
 1671 0036 0131     		adds	r1, r1, #1
 1672              	.LVL146:
1213:App/Src/fault_command.c ****   }
 1673              		.loc 1 1213 20 view .LVU298
 1674 0038 04F80C00 		strb	r0, [r4, ip]
1213:App/Src/fault_command.c ****   }
 1675              		.loc 1 1213 16 view .LVU299
 1676 003c 0CF1010C 		add	ip, ip, #1
 1677              	.LVL147:
 1678              	.L84:
1211:App/Src/fault_command.c ****   {
 1679              		.loc 1 1211 48 is_stmt 1 view .LVU300
1211:App/Src/fault_command.c ****   {
 1680              		.loc 1 1211 11 is_stmt 0 view .LVU301
ARM GAS  C:\Users\hh\AppData\Local\Temp\ccntMbQq.s 			page 60


 1681 0040 0878     		ldrb	r0, [r1]	@ zero_extendqisi2
1211:App/Src/fault_command.c ****   {
 1682              		.loc 1 1211 48 view .LVU302
 1683 0042 0028     		cmp	r0, #0
 1684 0044 18BF     		it	ne
 1685 0046 2228     		cmpne	r0, #34
 1686 0048 02D0     		beq	.L85
1211:App/Src/fault_command.c ****   {
 1687              		.loc 1 1211 71 discriminator 1 view .LVU303
 1688 004a 6B1E     		subs	r3, r5, #1
1211:App/Src/fault_command.c ****   {
 1689              		.loc 1 1211 48 discriminator 1 view .LVU304
 1690 004c 6345     		cmp	r3, ip
 1691 004e F2D8     		bhi	.L86
 1692              	.L85:
1215:App/Src/fault_command.c **** 
 1693              		.loc 1 1215 3 is_stmt 1 view .LVU305
1215:App/Src/fault_command.c **** 
 1694              		.loc 1 1215 16 is_stmt 0 view .LVU306
 1695 0050 0023     		movs	r3, #0
 1696 0052 04F80C30 		strb	r3, [r4, ip]
1217:App/Src/fault_command.c **** }
 1697              		.loc 1 1217 3 is_stmt 1 view .LVU307
1217:App/Src/fault_command.c **** }
 1698              		.loc 1 1217 11 is_stmt 0 view .LVU308
 1699 0056 0B78     		ldrb	r3, [r1]	@ zero_extendqisi2
1217:App/Src/fault_command.c **** }
 1700              		.loc 1 1217 32 view .LVU309
 1701 0058 222B     		cmp	r3, #34
 1702 005a 01D0     		beq	.L93
1217:App/Src/fault_command.c **** }
 1703              		.loc 1 1217 32 discriminator 2 view .LVU310
 1704 005c 0020     		movs	r0, #0
 1705 005e 02E0     		b	.L81
 1706              	.L93:
1217:App/Src/fault_command.c **** }
 1707              		.loc 1 1217 32 discriminator 1 view .LVU311
 1708 0060 0120     		movs	r0, #1
 1709 0062 00E0     		b	.L81
 1710              	.LVL148:
 1711              	.L87:
1190:App/Src/fault_command.c ****   }
 1712              		.loc 1 1190 12 view .LVU312
 1713 0064 0020     		movs	r0, #0
 1714              	.LVL149:
 1715              	.L81:
1218:App/Src/fault_command.c **** 
 1716              		.loc 1 1218 1 view .LVU313
 1717 0066 38BD     		pop	{r3, r4, r5, pc}
 1718              	.LVL150:
 1719              	.L88:
1190:App/Src/fault_command.c ****   }
 1720              		.loc 1 1190 12 view .LVU314
 1721 0068 2846     		mov	r0, r5
 1722              	.LVL151:
1190:App/Src/fault_command.c ****   }
 1723              		.loc 1 1190 12 view .LVU315
ARM GAS  C:\Users\hh\AppData\Local\Temp\ccntMbQq.s 			page 61


 1724 006a FCE7     		b	.L81
 1725              	.LVL152:
 1726              	.L90:
1207:App/Src/fault_command.c ****   }
 1727              		.loc 1 1207 12 view .LVU316
 1728 006c 0020     		movs	r0, #0
 1729 006e FAE7     		b	.L81
 1730              		.cfi_endproc
 1731              	.LFE179:
 1733              		.section	.rodata.FaultCommand_WriteJsonCanStatus.str1.4,"aMS",%progbits,1
 1734              		.align	2
 1735              	.LC58:
 1736 0000 7B226F6B 		.ascii	"{\"ok\":true,\"can\":{\"started\":%u,\"tx\":%lu,\"r"
 1736      223A7472 
 1736      75652C22 
 1736      63616E22 
 1736      3A7B2273 
 1737 002a 78223A25 		.ascii	"x\":%lu,\"err\":%lu,\"last_id\":%lu,\"last_id_hex\""
 1737      6C752C22 
 1737      65727222 
 1737      3A256C75 
 1737      2C226C61 
 1738 0056 3A223078 		.ascii	":\"0x%lX\",\"last_ext\":%u,\"last_len\":%u,\"last_t"
 1738      256C5822 
 1738      2C226C61 
 1738      73745F65 
 1738      7874223A 
 1739 0082 69636B22 		.ascii	"ick\":%lu,\"last_data\":[\000"
 1739      3A256C75 
 1739      2C226C61 
 1739      73745F64 
 1739      61746122 
 1740 0099 000000   		.align	2
 1741              	.LC59:
 1742 009c 25732575 		.ascii	"%s%u\000"
 1742      00
 1743 00a1 000000   		.align	2
 1744              	.LC60:
 1745 00a4 5D7D7D0D 		.ascii	"]}}\015\012\000"
 1745      0A00
 1746              		.section	.text.FaultCommand_WriteJsonCanStatus,"ax",%progbits
 1747              		.align	1
 1748              		.syntax unified
 1749              		.thumb
 1750              		.thumb_func
 1752              	FaultCommand_WriteJsonCanStatus:
 1753              	.LVL153:
 1754              	.LFB164:
 370:App/Src/fault_command.c ****   BspCan_Status status = BspCan_GetStatus();
 1755              		.loc 1 370 1 is_stmt 1 view -0
 1756              		.cfi_startproc
 1757              		@ args = 0, pretend = 0, frame = 40
 1758              		@ frame_needed = 0, uses_anonymous_args = 0
 370:App/Src/fault_command.c ****   BspCan_Status status = BspCan_GetStatus();
 1759              		.loc 1 370 1 is_stmt 0 view .LVU318
 1760 0000 F0B5     		push	{r4, r5, r6, r7, lr}
 1761              	.LCFI38:
ARM GAS  C:\Users\hh\AppData\Local\Temp\ccntMbQq.s 			page 62


 1762              		.cfi_def_cfa_offset 20
 1763              		.cfi_offset 4, -20
 1764              		.cfi_offset 5, -16
 1765              		.cfi_offset 6, -12
 1766              		.cfi_offset 7, -8
 1767              		.cfi_offset 14, -4
 1768 0002 93B0     		sub	sp, sp, #76
 1769              	.LCFI39:
 1770              		.cfi_def_cfa_offset 96
 1771 0004 0546     		mov	r5, r0
 1772 0006 0E46     		mov	r6, r1
 371:App/Src/fault_command.c **** 
 1773              		.loc 1 371 3 is_stmt 1 view .LVU319
 371:App/Src/fault_command.c **** 
 1774              		.loc 1 371 26 is_stmt 0 view .LVU320
 1775 0008 09A8     		add	r0, sp, #36
 1776              	.LVL154:
 371:App/Src/fault_command.c **** 
 1777              		.loc 1 371 26 view .LVU321
 1778 000a FFF7FEFF 		bl	BspCan_GetStatus
 1779              	.LVL155:
 373:App/Src/fault_command.c ****                            context,
 1780              		.loc 1 373 3 is_stmt 1 view .LVU322
 380:App/Src/fault_command.c ****                            (unsigned long)status.lastRxId,
 1781              		.loc 1 380 49 is_stmt 0 view .LVU323
 1782 000e 0D9B     		ldr	r3, [sp, #52]
 382:App/Src/fault_command.c ****                            status.lastRxLength,
 1783              		.loc 1 382 34 view .LVU324
 1784 0010 9DF83C20 		ldrb	r2, [sp, #60]	@ zero_extendqisi2
 383:App/Src/fault_command.c ****                            (unsigned long)status.lastRxTick);
 1785              		.loc 1 383 34 view .LVU325
 1786 0014 9DF83D70 		ldrb	r7, [sp, #61]	@ zero_extendqisi2
 373:App/Src/fault_command.c ****                            context,
 1787              		.loc 1 373 3 view .LVU326
 1788 0018 0E99     		ldr	r1, [sp, #56]
 1789 001a 0791     		str	r1, [sp, #28]
 1790 001c 0697     		str	r7, [sp, #24]
 1791 001e 0592     		str	r2, [sp, #20]
 1792 0020 0493     		str	r3, [sp, #16]
 1793 0022 0393     		str	r3, [sp, #12]
 1794 0024 0C9B     		ldr	r3, [sp, #48]
 1795 0026 0293     		str	r3, [sp, #8]
 1796 0028 0B9B     		ldr	r3, [sp, #44]
 1797 002a 0193     		str	r3, [sp, #4]
 1798 002c 0A9B     		ldr	r3, [sp, #40]
 1799 002e 0093     		str	r3, [sp]
 1800 0030 9DF82430 		ldrb	r3, [sp, #36]	@ zero_extendqisi2
 1801 0034 104A     		ldr	r2, .L102
 1802 0036 3146     		mov	r1, r6
 1803 0038 2846     		mov	r0, r5
 1804 003a FFF7FEFF 		bl	FaultCommand_WriteFormat
 1805              	.LVL156:
 386:App/Src/fault_command.c ****   {
 1806              		.loc 1 386 3 is_stmt 1 view .LVU327
 1807              	.LBB9:
 386:App/Src/fault_command.c ****   {
 1808              		.loc 1 386 8 view .LVU328
ARM GAS  C:\Users\hh\AppData\Local\Temp\ccntMbQq.s 			page 63


 386:App/Src/fault_command.c ****   {
 1809              		.loc 1 386 16 is_stmt 0 view .LVU329
 1810 003e 0024     		movs	r4, #0
 386:App/Src/fault_command.c ****   {
 1811              		.loc 1 386 3 view .LVU330
 1812 0040 0DE0     		b	.L95
 1813              	.LVL157:
 1814              	.L101:
 388:App/Src/fault_command.c ****                              context,
 1815              		.loc 1 388 5 discriminator 1 view .LVU331
 1816 0042 0E4B     		ldr	r3, .L102+4
 1817              	.L96:
 392:App/Src/fault_command.c ****   }
 1818              		.loc 1 392 47 view .LVU332
 1819 0044 04F14802 		add	r2, r4, #72
 1820 0048 6A44     		add	r2, sp, r2
 1821 004a 12F80A2C 		ldrb	r2, [r2, #-10]	@ zero_extendqisi2
 388:App/Src/fault_command.c ****                              context,
 1822              		.loc 1 388 5 view .LVU333
 1823 004e 0092     		str	r2, [sp]
 1824 0050 0B4A     		ldr	r2, .L102+8
 1825 0052 3146     		mov	r1, r6
 1826 0054 2846     		mov	r0, r5
 1827 0056 FFF7FEFF 		bl	FaultCommand_WriteFormat
 1828              	.LVL158:
 386:App/Src/fault_command.c ****   {
 1829              		.loc 1 386 62 is_stmt 1 discriminator 2 view .LVU334
 1830 005a 0134     		adds	r4, r4, #1
 1831              	.LVL159:
 386:App/Src/fault_command.c ****   {
 1832              		.loc 1 386 62 is_stmt 0 discriminator 2 view .LVU335
 1833 005c E4B2     		uxtb	r4, r4
 1834              	.LVL160:
 1835              	.L95:
 386:App/Src/fault_command.c ****   {
 1836              		.loc 1 386 34 is_stmt 1 discriminator 1 view .LVU336
 1837 005e A742     		cmp	r7, r4
 1838 0060 03D9     		bls	.L100
 388:App/Src/fault_command.c ****                              context,
 1839              		.loc 1 388 5 view .LVU337
 1840 0062 002C     		cmp	r4, #0
 1841 0064 EDD0     		beq	.L101
 388:App/Src/fault_command.c ****                              context,
 1842              		.loc 1 388 5 is_stmt 0 discriminator 2 view .LVU338
 1843 0066 074B     		ldr	r3, .L102+12
 1844 0068 ECE7     		b	.L96
 1845              	.L100:
 1846              	.LBE9:
 394:App/Src/fault_command.c **** }
 1847              		.loc 1 394 3 is_stmt 1 view .LVU339
 1848 006a 074A     		ldr	r2, .L102+16
 1849 006c 3146     		mov	r1, r6
 1850 006e 2846     		mov	r0, r5
 1851 0070 FFF7FEFF 		bl	FaultCommand_Write
 1852              	.LVL161:
 395:App/Src/fault_command.c **** 
 1853              		.loc 1 395 1 is_stmt 0 view .LVU340
ARM GAS  C:\Users\hh\AppData\Local\Temp\ccntMbQq.s 			page 64


 1854 0074 13B0     		add	sp, sp, #76
 1855              	.LCFI40:
 1856              		.cfi_def_cfa_offset 20
 1857              		@ sp needed
 1858 0076 F0BD     		pop	{r4, r5, r6, r7, pc}
 1859              	.LVL162:
 1860              	.L103:
 395:App/Src/fault_command.c **** 
 1861              		.loc 1 395 1 view .LVU341
 1862              		.align	2
 1863              	.L102:
 1864 0078 00000000 		.word	.LC58
 1865 007c 00000000 		.word	.LC36
 1866 0080 9C000000 		.word	.LC59
 1867 0084 04000000 		.word	.LC37
 1868 0088 A4000000 		.word	.LC60
 1869              		.cfi_endproc
 1870              	.LFE164:
 1872              		.section	.rodata.FaultCommand_WriteTextCanStatus.str1.4,"aMS",%progbits,1
 1873              		.align	2
 1874              	.LC61:
 1875 0000 2000     		.ascii	" \000"
 1876 0002 0000     		.align	2
 1877              	.LC62:
 1878 0004 0D0A5B63 		.ascii	"\015\012[can] started=%u tx=%lu rx=%lu err=%lu last"
 1878      616E5D20 
 1878      73746172 
 1878      7465643D 
 1878      25752074 
 1879 0031 5F69643D 		.ascii	"_id=0x%lX last_len=%u last_tick=%lu last_data=\000"
 1879      3078256C 
 1879      58206C61 
 1879      73745F6C 
 1879      656E3D25 
 1880              		.align	2
 1881              	.LC63:
 1882 0060 25303258 		.ascii	"%02X%s\000"
 1882      257300
 1883              		.section	.text.FaultCommand_WriteTextCanStatus,"ax",%progbits
 1884              		.align	1
 1885              		.syntax unified
 1886              		.thumb
 1887              		.thumb_func
 1889              	FaultCommand_WriteTextCanStatus:
 1890              	.LVL163:
 1891              	.LFB155:
 121:App/Src/fault_command.c ****   BspCan_Status status = BspCan_GetStatus();
 1892              		.loc 1 121 1 is_stmt 1 view -0
 1893              		.cfi_startproc
 1894              		@ args = 0, pretend = 0, frame = 40
 1895              		@ frame_needed = 0, uses_anonymous_args = 0
 121:App/Src/fault_command.c ****   BspCan_Status status = BspCan_GetStatus();
 1896              		.loc 1 121 1 is_stmt 0 view .LVU343
 1897 0000 F0B5     		push	{r4, r5, r6, r7, lr}
 1898              	.LCFI41:
 1899              		.cfi_def_cfa_offset 20
 1900              		.cfi_offset 4, -20
ARM GAS  C:\Users\hh\AppData\Local\Temp\ccntMbQq.s 			page 65


 1901              		.cfi_offset 5, -16
 1902              		.cfi_offset 6, -12
 1903              		.cfi_offset 7, -8
 1904              		.cfi_offset 14, -4
 1905 0002 91B0     		sub	sp, sp, #68
 1906              	.LCFI42:
 1907              		.cfi_def_cfa_offset 88
 1908 0004 0646     		mov	r6, r0
 1909 0006 0F46     		mov	r7, r1
 122:App/Src/fault_command.c **** 
 1910              		.loc 1 122 3 is_stmt 1 view .LVU344
 122:App/Src/fault_command.c **** 
 1911              		.loc 1 122 26 is_stmt 0 view .LVU345
 1912 0008 07A8     		add	r0, sp, #28
 1913              	.LVL164:
 122:App/Src/fault_command.c **** 
 1914              		.loc 1 122 26 view .LVU346
 1915 000a FFF7FEFF 		bl	BspCan_GetStatus
 1916              	.LVL165:
 124:App/Src/fault_command.c ****                            context,
 1917              		.loc 1 124 3 is_stmt 1 view .LVU347
 132:App/Src/fault_command.c ****                            (unsigned long)status.lastRxTick);
 1918              		.loc 1 132 34 is_stmt 0 view .LVU348
 1919 000e 9DF83550 		ldrb	r5, [sp, #53]	@ zero_extendqisi2
 124:App/Src/fault_command.c ****                            context,
 1920              		.loc 1 124 3 view .LVU349
 1921 0012 0C9B     		ldr	r3, [sp, #48]
 1922 0014 0593     		str	r3, [sp, #20]
 1923 0016 0495     		str	r5, [sp, #16]
 1924 0018 0B9B     		ldr	r3, [sp, #44]
 1925 001a 0393     		str	r3, [sp, #12]
 1926 001c 0A9B     		ldr	r3, [sp, #40]
 1927 001e 0293     		str	r3, [sp, #8]
 1928 0020 099B     		ldr	r3, [sp, #36]
 1929 0022 0193     		str	r3, [sp, #4]
 1930 0024 089B     		ldr	r3, [sp, #32]
 1931 0026 0093     		str	r3, [sp]
 1932 0028 9DF81C30 		ldrb	r3, [sp, #28]	@ zero_extendqisi2
 1933 002c 114A     		ldr	r2, .L112
 1934 002e 3946     		mov	r1, r7
 1935 0030 3046     		mov	r0, r6
 1936 0032 FFF7FEFF 		bl	FaultCommand_WriteFormat
 1937              	.LVL166:
 135:App/Src/fault_command.c ****   {
 1938              		.loc 1 135 3 is_stmt 1 view .LVU350
 1939              	.LBB10:
 135:App/Src/fault_command.c ****   {
 1940              		.loc 1 135 8 view .LVU351
 135:App/Src/fault_command.c ****   {
 1941              		.loc 1 135 16 is_stmt 0 view .LVU352
 1942 0036 0024     		movs	r4, #0
 135:App/Src/fault_command.c ****   {
 1943              		.loc 1 135 3 view .LVU353
 1944 0038 08E0     		b	.L105
 1945              	.LVL167:
 1946              	.L111:
 137:App/Src/fault_command.c ****                              context,
ARM GAS  C:\Users\hh\AppData\Local\Temp\ccntMbQq.s 			page 66


 1947              		.loc 1 137 5 discriminator 1 view .LVU354
 1948 003a 0F4A     		ldr	r2, .L112+4
 1949              	.L106:
 137:App/Src/fault_command.c ****                              context,
 1950              		.loc 1 137 5 discriminator 4 view .LVU355
 1951 003c 0092     		str	r2, [sp]
 1952 003e 0F4A     		ldr	r2, .L112+8
 1953 0040 3946     		mov	r1, r7
 1954 0042 3046     		mov	r0, r6
 1955 0044 FFF7FEFF 		bl	FaultCommand_WriteFormat
 1956              	.LVL168:
 135:App/Src/fault_command.c ****   {
 1957              		.loc 1 135 62 is_stmt 1 discriminator 2 view .LVU356
 1958 0048 0134     		adds	r4, r4, #1
 1959              	.LVL169:
 135:App/Src/fault_command.c ****   {
 1960              		.loc 1 135 62 is_stmt 0 discriminator 2 view .LVU357
 1961 004a E4B2     		uxtb	r4, r4
 1962              	.LVL170:
 1963              	.L105:
 135:App/Src/fault_command.c ****   {
 1964              		.loc 1 135 34 is_stmt 1 discriminator 1 view .LVU358
 1965 004c A542     		cmp	r5, r4
 1966 004e 09D9     		bls	.L110
 137:App/Src/fault_command.c ****                              context,
 1967              		.loc 1 137 5 view .LVU359
 140:App/Src/fault_command.c ****                              (index + 1U == status.lastRxLength) ? "" : " ");
 1968              		.loc 1 140 47 is_stmt 0 view .LVU360
 1969 0050 04F14003 		add	r3, r4, #64
 1970 0054 6B44     		add	r3, sp, r3
 1971 0056 13F80A3C 		ldrb	r3, [r3, #-10]	@ zero_extendqisi2
 141:App/Src/fault_command.c ****   }
 1972              		.loc 1 141 37 view .LVU361
 1973 005a 621C     		adds	r2, r4, #1
 137:App/Src/fault_command.c ****                              context,
 1974              		.loc 1 137 5 view .LVU362
 1975 005c AA42     		cmp	r2, r5
 1976 005e ECD0     		beq	.L111
 137:App/Src/fault_command.c ****                              context,
 1977              		.loc 1 137 5 discriminator 2 view .LVU363
 1978 0060 074A     		ldr	r2, .L112+12
 1979 0062 EBE7     		b	.L106
 1980              	.L110:
 1981              	.LBE10:
 143:App/Src/fault_command.c **** }
 1982              		.loc 1 143 3 is_stmt 1 view .LVU364
 1983 0064 074A     		ldr	r2, .L112+16
 1984 0066 3946     		mov	r1, r7
 1985 0068 3046     		mov	r0, r6
 1986 006a FFF7FEFF 		bl	FaultCommand_Write
 1987              	.LVL171:
 144:App/Src/fault_command.c **** 
 1988              		.loc 1 144 1 is_stmt 0 view .LVU365
 1989 006e 11B0     		add	sp, sp, #68
 1990              	.LCFI43:
 1991              		.cfi_def_cfa_offset 20
 1992              		@ sp needed
ARM GAS  C:\Users\hh\AppData\Local\Temp\ccntMbQq.s 			page 67


 1993 0070 F0BD     		pop	{r4, r5, r6, r7, pc}
 1994              	.LVL172:
 1995              	.L113:
 144:App/Src/fault_command.c **** 
 1996              		.loc 1 144 1 view .LVU366
 1997 0072 00BF     		.align	2
 1998              	.L112:
 1999 0074 04000000 		.word	.LC62
 2000 0078 00000000 		.word	.LC36
 2001 007c 60000000 		.word	.LC63
 2002 0080 00000000 		.word	.LC61
 2003 0084 D0000000 		.word	.LC50
 2004              		.cfi_endproc
 2005              	.LFE155:
 2007              		.section	.rodata.FaultCommand_WriteJsonBmsResponseLog.str1.4,"aMS",%progbits,1
 2008              		.align	2
 2009              	.LC64:
 2010 0000 7B226F6B 		.ascii	"{\"ok\":true,\"log\":{\"armed\":%u,\"trigger\":\"%s"
 2010      223A7472 
 2010      75652C22 
 2010      6C6F6722 
 2010      3A7B2261 
 2011 002a 222C2274 		.ascii	"\",\"trigger_tick\":%lu,\000"
 2011      72696767 
 2011      65725F74 
 2011      69636B22 
 2011      3A256C75 
 2012              		.align	2
 2013              	.LC65:
 2014 0040 22707269 		.ascii	"\"primary_cell\":%u,\"primary_mv\":%u,\"secondary_c"
 2014      6D617279 
 2014      5F63656C 
 2014      6C223A25 
 2014      752C2270 
 2015 006e 656C6C22 		.ascii	"ell\":%u,\"secondary_mv\":%u,\000"
 2015      3A25752C 
 2015      22736563 
 2015      6F6E6461 
 2015      72795F6D 
 2016 0089 000000   		.align	2
 2017              	.LC66:
 2018 008c 2263616E 		.ascii	"\"can_after\":%lu,\"filter_miss\":%lu,\"captured\":"
 2018      5F616674 
 2018      6572223A 
 2018      256C752C 
 2018      2266696C 
 2019 00b9 25752C00 		.ascii	"%u,\000"
 2020 00bd 000000   		.align	2
 2021              	.LC67:
 2022 00c0 2266696C 		.ascii	"\"filter\":{\"enabled\":%u,\"extended\":%u,\"id\":%"
 2022      74657222 
 2022      3A7B2265 
 2022      6E61626C 
 2022      6564223A 
 2023 00eb 6C752C22 		.ascii	"lu,\"id_hex\":\"0x%lX\",\000"
 2023      69645F68 
 2023      6578223A 
ARM GAS  C:\Users\hh\AppData\Local\Temp\ccntMbQq.s 			page 68


 2023      22307825 
 2023      6C58222C 
 2024              		.align	2
 2025              	.LC68:
 2026 0100 226D6173 		.ascii	"\"mask\":%lu,\"mask_hex\":\"0x%lX\",\"min_len\":%u}"
 2026      6B223A25 
 2026      6C752C22 
 2026      6D61736B 
 2026      5F686578 
 2027 012b 2C00     		.ascii	",\000"
 2028 012d 000000   		.align	2
 2029              	.LC69:
 2030 0130 22726573 		.ascii	"\"response_tick\":%lu,\"delay_ms\":%lu,\"response_i"
 2030      706F6E73 
 2030      655F7469 
 2030      636B223A 
 2030      256C752C 
 2031 015e 64223A25 		.ascii	"d\":%lu,\"response_id_hex\":\"0x%lX\",\000"
 2031      6C752C22 
 2031      72657370 
 2031      6F6E7365 
 2031      5F69645F 
 2032              		.align	2
 2033              	.LC70:
 2034 0180 22726573 		.ascii	"\"response_ext\":%u,\"response_len\":%u,\"response_"
 2034      706F6E73 
 2034      655F6578 
 2034      74223A25 
 2034      752C2272 
 2035 01ae 64617461 		.ascii	"data\":[\000"
 2035      223A5B00 
 2036              		.section	.text.FaultCommand_WriteJsonBmsResponseLog,"ax",%progbits
 2037              		.align	1
 2038              		.syntax unified
 2039              		.thumb
 2040              		.thumb_func
 2042              	FaultCommand_WriteJsonBmsResponseLog:
 2043              	.LVL173:
 2044              	.LFB165:
 398:App/Src/fault_command.c ****   BmsResponseLog_Status status = BmsResponseLog_GetStatus();
 2045              		.loc 1 398 1 is_stmt 1 view -0
 2046              		.cfi_startproc
 2047              		@ args = 0, pretend = 0, frame = 88
 2048              		@ frame_needed = 0, uses_anonymous_args = 0
 398:App/Src/fault_command.c ****   BmsResponseLog_Status status = BmsResponseLog_GetStatus();
 2049              		.loc 1 398 1 is_stmt 0 view .LVU368
 2050 0000 F0B5     		push	{r4, r5, r6, r7, lr}
 2051              	.LCFI44:
 2052              		.cfi_def_cfa_offset 20
 2053              		.cfi_offset 4, -20
 2054              		.cfi_offset 5, -16
 2055              		.cfi_offset 6, -12
 2056              		.cfi_offset 7, -8
 2057              		.cfi_offset 14, -4
 2058 0002 9BB0     		sub	sp, sp, #108
 2059              	.LCFI45:
 2060              		.cfi_def_cfa_offset 128
ARM GAS  C:\Users\hh\AppData\Local\Temp\ccntMbQq.s 			page 69


 2061 0004 0546     		mov	r5, r0
 2062 0006 0E46     		mov	r6, r1
 399:App/Src/fault_command.c **** 
 2063              		.loc 1 399 3 is_stmt 1 view .LVU369
 399:App/Src/fault_command.c **** 
 2064              		.loc 1 399 34 is_stmt 0 view .LVU370
 2065 0008 05A8     		add	r0, sp, #20
 2066              	.LVL174:
 399:App/Src/fault_command.c **** 
 2067              		.loc 1 399 34 view .LVU371
 2068 000a FFF7FEFF 		bl	BmsResponseLog_GetStatus
 2069              	.LVL175:
 401:App/Src/fault_command.c ****                            context,
 2070              		.loc 1 401 3 is_stmt 1 view .LVU372
 404:App/Src/fault_command.c ****                            BmsResponseLog_GetTriggerName(status.triggerType),
 2071              		.loc 1 404 34 is_stmt 0 view .LVU373
 2072 000e 9DF81440 		ldrb	r4, [sp, #20]	@ zero_extendqisi2
 401:App/Src/fault_command.c ****                            context,
 2073              		.loc 1 401 3 view .LVU374
 2074 0012 9DF83800 		ldrb	r0, [sp, #56]	@ zero_extendqisi2
 2075 0016 FFF7FEFF 		bl	BmsResponseLog_GetTriggerName
 2076              	.LVL176:
 2077 001a 109B     		ldr	r3, [sp, #64]
 2078 001c 0193     		str	r3, [sp, #4]
 2079 001e 0090     		str	r0, [sp]
 2080 0020 2346     		mov	r3, r4
 2081 0022 344A     		ldr	r2, .L122
 2082 0024 3146     		mov	r1, r6
 2083 0026 2846     		mov	r0, r5
 2084 0028 FFF7FEFF 		bl	FaultCommand_WriteFormat
 2085              	.LVL177:
 407:App/Src/fault_command.c ****                            context,
 2086              		.loc 1 407 3 is_stmt 1 view .LVU375
 411:App/Src/fault_command.c ****                            status.secondaryCell,
 2087              		.loc 1 411 34 is_stmt 0 view .LVU376
 2088 002c BDF83C30 		ldrh	r3, [sp, #60]
 412:App/Src/fault_command.c ****                            status.secondaryMillivolts);
 2089              		.loc 1 412 34 view .LVU377
 2090 0030 9DF83A20 		ldrb	r2, [sp, #58]	@ zero_extendqisi2
 413:App/Src/fault_command.c ****   FaultCommand_WriteFormat(write,
 2091              		.loc 1 413 34 view .LVU378
 2092 0034 BDF83E10 		ldrh	r1, [sp, #62]
 407:App/Src/fault_command.c ****                            context,
 2093              		.loc 1 407 3 view .LVU379
 2094 0038 0291     		str	r1, [sp, #8]
 2095 003a 0192     		str	r2, [sp, #4]
 2096 003c 0093     		str	r3, [sp]
 2097 003e 9DF83930 		ldrb	r3, [sp, #57]	@ zero_extendqisi2
 2098 0042 2D4A     		ldr	r2, .L122+4
 2099 0044 3146     		mov	r1, r6
 2100 0046 2846     		mov	r0, r5
 2101 0048 FFF7FEFF 		bl	FaultCommand_WriteFormat
 2102              	.LVL178:
 414:App/Src/fault_command.c ****                            context,
 2103              		.loc 1 414 3 is_stmt 1 view .LVU380
 419:App/Src/fault_command.c ****   FaultCommand_WriteFormat(write,
 2104              		.loc 1 419 34 is_stmt 0 view .LVU381
ARM GAS  C:\Users\hh\AppData\Local\Temp\ccntMbQq.s 			page 70


 2105 004c 9DF84C30 		ldrb	r3, [sp, #76]	@ zero_extendqisi2
 414:App/Src/fault_command.c ****                            context,
 2106              		.loc 1 414 3 view .LVU382
 2107 0050 0193     		str	r3, [sp, #4]
 2108 0052 129B     		ldr	r3, [sp, #72]
 2109 0054 0093     		str	r3, [sp]
 2110 0056 119B     		ldr	r3, [sp, #68]
 2111 0058 284A     		ldr	r2, .L122+8
 2112 005a 3146     		mov	r1, r6
 2113 005c 2846     		mov	r0, r5
 2114 005e FFF7FEFF 		bl	FaultCommand_WriteFormat
 2115              	.LVL179:
 420:App/Src/fault_command.c ****                            context,
 2116              		.loc 1 420 3 is_stmt 1 view .LVU383
 424:App/Src/fault_command.c ****                            (unsigned long)status.filter.id,
 2117              		.loc 1 424 41 is_stmt 0 view .LVU384
 2118 0062 9DF81920 		ldrb	r2, [sp, #25]	@ zero_extendqisi2
 425:App/Src/fault_command.c ****                            (unsigned long)status.filter.id);
 2119              		.loc 1 425 56 view .LVU385
 2120 0066 079B     		ldr	r3, [sp, #28]
 420:App/Src/fault_command.c ****                            context,
 2121              		.loc 1 420 3 view .LVU386
 2122 0068 0293     		str	r3, [sp, #8]
 2123 006a 0193     		str	r3, [sp, #4]
 2124 006c 0092     		str	r2, [sp]
 2125 006e 9DF81830 		ldrb	r3, [sp, #24]	@ zero_extendqisi2
 2126 0072 234A     		ldr	r2, .L122+12
 2127 0074 3146     		mov	r1, r6
 2128 0076 2846     		mov	r0, r5
 2129 0078 FFF7FEFF 		bl	FaultCommand_WriteFormat
 2130              	.LVL180:
 427:App/Src/fault_command.c ****                            context,
 2131              		.loc 1 427 3 is_stmt 1 view .LVU387
 430:App/Src/fault_command.c ****                            (unsigned long)status.filter.mask,
 2132              		.loc 1 430 56 is_stmt 0 view .LVU388
 2133 007c 089B     		ldr	r3, [sp, #32]
 432:App/Src/fault_command.c ****   FaultCommand_WriteFormat(write,
 2134              		.loc 1 432 41 view .LVU389
 2135 007e 9DF82420 		ldrb	r2, [sp, #36]	@ zero_extendqisi2
 427:App/Src/fault_command.c ****                            context,
 2136              		.loc 1 427 3 view .LVU390
 2137 0082 0192     		str	r2, [sp, #4]
 2138 0084 0093     		str	r3, [sp]
 2139 0086 1F4A     		ldr	r2, .L122+16
 2140 0088 3146     		mov	r1, r6
 2141 008a 2846     		mov	r0, r5
 2142 008c FFF7FEFF 		bl	FaultCommand_WriteFormat
 2143              	.LVL181:
 433:App/Src/fault_command.c ****                            context,
 2144              		.loc 1 433 3 is_stmt 1 view .LVU391
 438:App/Src/fault_command.c ****                            (unsigned long)status.responseCanId);
 2145              		.loc 1 438 49 is_stmt 0 view .LVU392
 2146 0090 169B     		ldr	r3, [sp, #88]
 433:App/Src/fault_command.c ****                            context,
 2147              		.loc 1 433 3 view .LVU393
 2148 0092 0293     		str	r3, [sp, #8]
 2149 0094 0193     		str	r3, [sp, #4]
ARM GAS  C:\Users\hh\AppData\Local\Temp\ccntMbQq.s 			page 71


 2150 0096 159B     		ldr	r3, [sp, #84]
 2151 0098 0093     		str	r3, [sp]
 2152 009a 149B     		ldr	r3, [sp, #80]
 2153 009c 1A4A     		ldr	r2, .L122+20
 2154 009e 3146     		mov	r1, r6
 2155 00a0 2846     		mov	r0, r5
 2156 00a2 FFF7FEFF 		bl	FaultCommand_WriteFormat
 2157              	.LVL182:
 440:App/Src/fault_command.c ****                            context,
 2158              		.loc 1 440 3 is_stmt 1 view .LVU394
 444:App/Src/fault_command.c **** 
 2159              		.loc 1 444 34 is_stmt 0 view .LVU395
 2160 00a6 9DF85D70 		ldrb	r7, [sp, #93]	@ zero_extendqisi2
 440:App/Src/fault_command.c ****                            context,
 2161              		.loc 1 440 3 view .LVU396
 2162 00aa 0097     		str	r7, [sp]
 2163 00ac 9DF85C30 		ldrb	r3, [sp, #92]	@ zero_extendqisi2
 2164 00b0 164A     		ldr	r2, .L122+24
 2165 00b2 3146     		mov	r1, r6
 2166 00b4 2846     		mov	r0, r5
 2167 00b6 FFF7FEFF 		bl	FaultCommand_WriteFormat
 2168              	.LVL183:
 446:App/Src/fault_command.c ****   {
 2169              		.loc 1 446 3 is_stmt 1 view .LVU397
 2170              	.LBB11:
 446:App/Src/fault_command.c ****   {
 2171              		.loc 1 446 8 view .LVU398
 446:App/Src/fault_command.c ****   {
 2172              		.loc 1 446 16 is_stmt 0 view .LVU399
 2173 00ba 0024     		movs	r4, #0
 446:App/Src/fault_command.c ****   {
 2174              		.loc 1 446 3 view .LVU400
 2175 00bc 0DE0     		b	.L115
 2176              	.LVL184:
 2177              	.L121:
 448:App/Src/fault_command.c ****                              context,
 2178              		.loc 1 448 5 discriminator 1 view .LVU401
 2179 00be 144B     		ldr	r3, .L122+28
 2180              	.L116:
 452:App/Src/fault_command.c ****   }
 2181              		.loc 1 452 52 view .LVU402
 2182 00c0 04F16802 		add	r2, r4, #104
 2183 00c4 6A44     		add	r2, sp, r2
 2184 00c6 12F80A2C 		ldrb	r2, [r2, #-10]	@ zero_extendqisi2
 448:App/Src/fault_command.c ****                              context,
 2185              		.loc 1 448 5 view .LVU403
 2186 00ca 0092     		str	r2, [sp]
 2187 00cc 114A     		ldr	r2, .L122+32
 2188 00ce 3146     		mov	r1, r6
 2189 00d0 2846     		mov	r0, r5
 2190 00d2 FFF7FEFF 		bl	FaultCommand_WriteFormat
 2191              	.LVL185:
 446:App/Src/fault_command.c ****   {
 2192              		.loc 1 446 67 is_stmt 1 discriminator 2 view .LVU404
 2193 00d6 0134     		adds	r4, r4, #1
 2194              	.LVL186:
 446:App/Src/fault_command.c ****   {
ARM GAS  C:\Users\hh\AppData\Local\Temp\ccntMbQq.s 			page 72


 2195              		.loc 1 446 67 is_stmt 0 discriminator 2 view .LVU405
 2196 00d8 E4B2     		uxtb	r4, r4
 2197              	.LVL187:
 2198              	.L115:
 446:App/Src/fault_command.c ****   {
 2199              		.loc 1 446 34 is_stmt 1 discriminator 1 view .LVU406
 2200 00da A742     		cmp	r7, r4
 2201 00dc 03D9     		bls	.L120
 448:App/Src/fault_command.c ****                              context,
 2202              		.loc 1 448 5 view .LVU407
 2203 00de 002C     		cmp	r4, #0
 2204 00e0 EDD0     		beq	.L121
 448:App/Src/fault_command.c ****                              context,
 2205              		.loc 1 448 5 is_stmt 0 discriminator 2 view .LVU408
 2206 00e2 0D4B     		ldr	r3, .L122+36
 2207 00e4 ECE7     		b	.L116
 2208              	.L120:
 2209              	.LBE11:
 454:App/Src/fault_command.c **** }
 2210              		.loc 1 454 3 is_stmt 1 view .LVU409
 2211 00e6 0D4A     		ldr	r2, .L122+40
 2212 00e8 3146     		mov	r1, r6
 2213 00ea 2846     		mov	r0, r5
 2214 00ec FFF7FEFF 		bl	FaultCommand_Write
 2215              	.LVL188:
 455:App/Src/fault_command.c **** 
 2216              		.loc 1 455 1 is_stmt 0 view .LVU410
 2217 00f0 1BB0     		add	sp, sp, #108
 2218              	.LCFI46:
 2219              		.cfi_def_cfa_offset 20
 2220              		@ sp needed
 2221 00f2 F0BD     		pop	{r4, r5, r6, r7, pc}
 2222              	.LVL189:
 2223              	.L123:
 455:App/Src/fault_command.c **** 
 2224              		.loc 1 455 1 view .LVU411
 2225              		.align	2
 2226              	.L122:
 2227 00f4 00000000 		.word	.LC64
 2228 00f8 40000000 		.word	.LC65
 2229 00fc 8C000000 		.word	.LC66
 2230 0100 C0000000 		.word	.LC67
 2231 0104 00010000 		.word	.LC68
 2232 0108 30010000 		.word	.LC69
 2233 010c 80010000 		.word	.LC70
 2234 0110 00000000 		.word	.LC36
 2235 0114 9C000000 		.word	.LC59
 2236 0118 04000000 		.word	.LC37
 2237 011c A4000000 		.word	.LC60
 2238              		.cfi_endproc
 2239              	.LFE165:
 2241              		.section	.rodata.FaultCommand_WriteTextBmsResponseLog.str1.4,"aMS",%progbits,1
 2242              		.align	2
 2243              	.LC71:
 2244 0000 65787400 		.ascii	"ext\000"
 2245              		.align	2
 2246              	.LC72:
ARM GAS  C:\Users\hh\AppData\Local\Temp\ccntMbQq.s 			page 73


 2247 0004 73746400 		.ascii	"std\000"
 2248              		.align	2
 2249              	.LC73:
 2250 0008 0D0A5B6C 		.ascii	"\015\012[log] armed=%u trigger=%s t1=%lums primary="
 2250      6F675D20 
 2250      61726D65 
 2250      643D2575 
 2250      20747269 
 2251 0035 43253032 		.ascii	"C%02u/%umV secondary=C%02u/%umV can_after=%lu filte"
 2251      752F2575 
 2251      6D562073 
 2251      65636F6E 
 2251      64617279 
 2252 0068 725F6D69 		.ascii	"r_miss=%lu captured=%u\000"
 2252      73733D25 
 2252      6C752063 
 2252      61707475 
 2252      7265643D 
 2253 007f 00       		.align	2
 2254              	.LC74:
 2255 0080 0D0A5B6C 		.ascii	"\015\012[log] filter enabled=%u type=%s id=0x%lX ma"
 2255      6F675D20 
 2255      66696C74 
 2255      65722065 
 2255      6E61626C 
 2256 00ad 736B3D30 		.ascii	"sk=0x%lX min_len=%u data=\000"
 2256      78256C58 
 2256      206D696E 
 2256      5F6C656E 
 2256      3D257520 
 2257 00c7 00       		.align	2
 2258              	.LC75:
 2259 00c8 25732530 		.ascii	"%s%02X/%02X\000"
 2259      32582F25 
 2259      30325800 
 2260              		.align	2
 2261              	.LC76:
 2262 00d4 2074323D 		.ascii	" t2=%lums delay=%lums id=0x%lX ext=%u len=%u data=\000"
 2262      256C756D 
 2262      73206465 
 2262      6C61793D 
 2262      256C756D 
 2263              		.section	.text.FaultCommand_WriteTextBmsResponseLog,"ax",%progbits
 2264              		.align	1
 2265              		.syntax unified
 2266              		.thumb
 2267              		.thumb_func
 2269              	FaultCommand_WriteTextBmsResponseLog:
 2270              	.LVL190:
 2271              	.LFB156:
 147:App/Src/fault_command.c ****   BmsResponseLog_Status status = BmsResponseLog_GetStatus();
 2272              		.loc 1 147 1 is_stmt 1 view -0
 2273              		.cfi_startproc
 2274              		@ args = 0, pretend = 0, frame = 88
 2275              		@ frame_needed = 0, uses_anonymous_args = 0
 147:App/Src/fault_command.c ****   BmsResponseLog_Status status = BmsResponseLog_GetStatus();
 2276              		.loc 1 147 1 is_stmt 0 view .LVU413
ARM GAS  C:\Users\hh\AppData\Local\Temp\ccntMbQq.s 			page 74


 2277 0000 F0B5     		push	{r4, r5, r6, r7, lr}
 2278              	.LCFI47:
 2279              		.cfi_def_cfa_offset 20
 2280              		.cfi_offset 4, -20
 2281              		.cfi_offset 5, -16
 2282              		.cfi_offset 6, -12
 2283              		.cfi_offset 7, -8
 2284              		.cfi_offset 14, -4
 2285 0002 A1B0     		sub	sp, sp, #132
 2286              	.LCFI48:
 2287              		.cfi_def_cfa_offset 152
 2288 0004 0546     		mov	r5, r0
 2289 0006 0E46     		mov	r6, r1
 148:App/Src/fault_command.c **** 
 2290              		.loc 1 148 3 is_stmt 1 view .LVU414
 148:App/Src/fault_command.c **** 
 2291              		.loc 1 148 34 is_stmt 0 view .LVU415
 2292 0008 0BA8     		add	r0, sp, #44
 2293              	.LVL191:
 148:App/Src/fault_command.c **** 
 2294              		.loc 1 148 34 view .LVU416
 2295 000a FFF7FEFF 		bl	BmsResponseLog_GetStatus
 2296              	.LVL192:
 150:App/Src/fault_command.c ****                            context,
 2297              		.loc 1 150 3 is_stmt 1 view .LVU417
 153:App/Src/fault_command.c ****                            BmsResponseLog_GetTriggerName(status.triggerType),
 2298              		.loc 1 153 34 is_stmt 0 view .LVU418
 2299 000e 9DF82C40 		ldrb	r4, [sp, #44]	@ zero_extendqisi2
 150:App/Src/fault_command.c ****                            context,
 2300              		.loc 1 150 3 view .LVU419
 2301 0012 9DF85000 		ldrb	r0, [sp, #80]	@ zero_extendqisi2
 2302 0016 FFF7FEFF 		bl	BmsResponseLog_GetTriggerName
 2303              	.LVL193:
 156:App/Src/fault_command.c ****                            status.primaryMillivolts,
 2304              		.loc 1 156 34 view .LVU420
 2305 001a 9DF851C0 		ldrb	ip, [sp, #81]	@ zero_extendqisi2
 157:App/Src/fault_command.c ****                            status.secondaryCell,
 2306              		.loc 1 157 34 view .LVU421
 2307 001e BDF85420 		ldrh	r2, [sp, #84]
 158:App/Src/fault_command.c ****                            status.secondaryMillivolts,
 2308              		.loc 1 158 34 view .LVU422
 2309 0022 9DF85210 		ldrb	r1, [sp, #82]	@ zero_extendqisi2
 159:App/Src/fault_command.c ****                            (unsigned long)status.canFramesAfterTrigger,
 2310              		.loc 1 159 34 view .LVU423
 2311 0026 BDF856E0 		ldrh	lr, [sp, #86]
 162:App/Src/fault_command.c **** 
 2312              		.loc 1 162 34 view .LVU424
 2313 002a 9DF86470 		ldrb	r7, [sp, #100]	@ zero_extendqisi2
 150:App/Src/fault_command.c ****                            context,
 2314              		.loc 1 150 3 view .LVU425
 2315 002e 0897     		str	r7, [sp, #32]
 2316 0030 189B     		ldr	r3, [sp, #96]
 2317 0032 0793     		str	r3, [sp, #28]
 2318 0034 179B     		ldr	r3, [sp, #92]
 2319 0036 0693     		str	r3, [sp, #24]
 2320 0038 CDF814E0 		str	lr, [sp, #20]
 2321 003c 0491     		str	r1, [sp, #16]
ARM GAS  C:\Users\hh\AppData\Local\Temp\ccntMbQq.s 			page 75


 2322 003e 0392     		str	r2, [sp, #12]
 2323 0040 CDF808C0 		str	ip, [sp, #8]
 2324 0044 169B     		ldr	r3, [sp, #88]
 2325 0046 0193     		str	r3, [sp, #4]
 2326 0048 0090     		str	r0, [sp]
 2327 004a 2346     		mov	r3, r4
 2328 004c 304A     		ldr	r2, .L141
 2329 004e 3146     		mov	r1, r6
 2330 0050 2846     		mov	r0, r5
 2331 0052 FFF7FEFF 		bl	FaultCommand_WriteFormat
 2332              	.LVL194:
 164:App/Src/fault_command.c ****                            context,
 2333              		.loc 1 164 3 is_stmt 1 view .LVU426
 167:App/Src/fault_command.c ****                            status.filter.isExtended ? "ext" : "std",
 2334              		.loc 1 167 41 is_stmt 0 view .LVU427
 2335 0056 9DF83030 		ldrb	r3, [sp, #48]	@ zero_extendqisi2
 168:App/Src/fault_command.c ****                            (unsigned long)status.filter.id,
 2336              		.loc 1 168 41 view .LVU428
 2337 005a 9DF83120 		ldrb	r2, [sp, #49]	@ zero_extendqisi2
 164:App/Src/fault_command.c ****                            context,
 2338              		.loc 1 164 3 view .LVU429
 2339 005e 7AB1     		cbz	r2, .L133
 164:App/Src/fault_command.c ****                            context,
 2340              		.loc 1 164 3 discriminator 1 view .LVU430
 2341 0060 2C49     		ldr	r1, .L141+4
 2342              	.L125:
 171:App/Src/fault_command.c ****   for (uint8_t index = 0U; index < BSP_CAN_MAX_DATA_LEN; index++)
 2343              		.loc 1 171 41 view .LVU431
 2344 0062 9DF83C20 		ldrb	r2, [sp, #60]	@ zero_extendqisi2
 164:App/Src/fault_command.c ****                            context,
 2345              		.loc 1 164 3 view .LVU432
 2346 0066 0392     		str	r2, [sp, #12]
 2347 0068 0E9A     		ldr	r2, [sp, #56]
 2348 006a 0292     		str	r2, [sp, #8]
 2349 006c 0D9A     		ldr	r2, [sp, #52]
 2350 006e 0192     		str	r2, [sp, #4]
 2351 0070 0091     		str	r1, [sp]
 2352 0072 294A     		ldr	r2, .L141+8
 2353 0074 3146     		mov	r1, r6
 2354 0076 2846     		mov	r0, r5
 2355 0078 FFF7FEFF 		bl	FaultCommand_WriteFormat
 2356              	.LVL195:
 172:App/Src/fault_command.c ****   {
 2357              		.loc 1 172 3 is_stmt 1 view .LVU433
 2358              	.LBB12:
 172:App/Src/fault_command.c ****   {
 2359              		.loc 1 172 8 view .LVU434
 172:App/Src/fault_command.c ****   {
 2360              		.loc 1 172 16 is_stmt 0 view .LVU435
 2361 007c 0024     		movs	r4, #0
 172:App/Src/fault_command.c ****   {
 2362              		.loc 1 172 3 view .LVU436
 2363 007e 12E0     		b	.L126
 2364              	.LVL196:
 2365              	.L133:
 172:App/Src/fault_command.c ****   {
 2366              		.loc 1 172 3 view .LVU437
ARM GAS  C:\Users\hh\AppData\Local\Temp\ccntMbQq.s 			page 76


 2367              	.LBE12:
 164:App/Src/fault_command.c ****                            context,
 2368              		.loc 1 164 3 discriminator 2 view .LVU438
 2369 0080 2649     		ldr	r1, .L141+12
 2370 0082 EEE7     		b	.L125
 2371              	.LVL197:
 2372              	.L138:
 2373              	.LBB13:
 174:App/Src/fault_command.c ****                              context,
 2374              		.loc 1 174 5 discriminator 1 view .LVU439
 2375 0084 264B     		ldr	r3, .L141+16
 2376              	.L127:
 178:App/Src/fault_command.c ****                              status.filter.dataMask[index]);
 2377              		.loc 1 178 53 view .LVU440
 2378 0086 04F18002 		add	r2, r4, #128
 2379 008a 6A44     		add	r2, sp, r2
 2380 008c 12F83B1C 		ldrb	r1, [r2, #-59]	@ zero_extendqisi2
 179:App/Src/fault_command.c ****   }
 2381              		.loc 1 179 52 view .LVU441
 2382 0090 12F8432C 		ldrb	r2, [r2, #-67]	@ zero_extendqisi2
 174:App/Src/fault_command.c ****                              context,
 2383              		.loc 1 174 5 view .LVU442
 2384 0094 0192     		str	r2, [sp, #4]
 2385 0096 0091     		str	r1, [sp]
 2386 0098 224A     		ldr	r2, .L141+20
 2387 009a 3146     		mov	r1, r6
 2388 009c 2846     		mov	r0, r5
 2389 009e FFF7FEFF 		bl	FaultCommand_WriteFormat
 2390              	.LVL198:
 172:App/Src/fault_command.c ****   {
 2391              		.loc 1 172 63 is_stmt 1 discriminator 2 view .LVU443
 2392 00a2 0134     		adds	r4, r4, #1
 2393              	.LVL199:
 172:App/Src/fault_command.c ****   {
 2394              		.loc 1 172 63 is_stmt 0 discriminator 2 view .LVU444
 2395 00a4 E4B2     		uxtb	r4, r4
 2396              	.LVL200:
 2397              	.L126:
 172:App/Src/fault_command.c ****   {
 2398              		.loc 1 172 34 is_stmt 1 discriminator 1 view .LVU445
 2399 00a6 072C     		cmp	r4, #7
 2400 00a8 03D8     		bhi	.L137
 174:App/Src/fault_command.c ****                              context,
 2401              		.loc 1 174 5 view .LVU446
 2402 00aa 002C     		cmp	r4, #0
 2403 00ac EAD0     		beq	.L138
 174:App/Src/fault_command.c ****                              context,
 2404              		.loc 1 174 5 is_stmt 0 discriminator 2 view .LVU447
 2405 00ae 1E4B     		ldr	r3, .L141+24
 2406 00b0 E9E7     		b	.L127
 2407              	.L137:
 2408              	.LBE13:
 182:App/Src/fault_command.c ****   {
 2409              		.loc 1 182 3 is_stmt 1 view .LVU448
 182:App/Src/fault_command.c ****   {
 2410              		.loc 1 182 6 is_stmt 0 view .LVU449
 2411 00b2 37B9     		cbnz	r7, .L139
ARM GAS  C:\Users\hh\AppData\Local\Temp\ccntMbQq.s 			page 77


 2412              	.LVL201:
 2413              	.L129:
 202:App/Src/fault_command.c **** }
 2414              		.loc 1 202 3 is_stmt 1 view .LVU450
 2415 00b4 1D4A     		ldr	r2, .L141+28
 2416 00b6 3146     		mov	r1, r6
 2417 00b8 2846     		mov	r0, r5
 2418 00ba FFF7FEFF 		bl	FaultCommand_Write
 2419              	.LVL202:
 203:App/Src/fault_command.c **** 
 2420              		.loc 1 203 1 is_stmt 0 view .LVU451
 2421 00be 21B0     		add	sp, sp, #132
 2422              	.LCFI49:
 2423              		.cfi_remember_state
 2424              		.cfi_def_cfa_offset 20
 2425              		@ sp needed
 2426 00c0 F0BD     		pop	{r4, r5, r6, r7, pc}
 2427              	.LVL203:
 2428              	.L139:
 2429              	.LCFI50:
 2430              		.cfi_restore_state
 184:App/Src/fault_command.c ****                              context,
 2431              		.loc 1 184 5 is_stmt 1 view .LVU452
 190:App/Src/fault_command.c ****                              status.responseCanLength);
 2432              		.loc 1 190 36 is_stmt 0 view .LVU453
 2433 00c2 9DF87430 		ldrb	r3, [sp, #116]	@ zero_extendqisi2
 191:App/Src/fault_command.c ****     for (uint8_t index = 0U; index < status.responseCanLength; index++)
 2434              		.loc 1 191 36 view .LVU454
 2435 00c6 9DF87570 		ldrb	r7, [sp, #117]	@ zero_extendqisi2
 184:App/Src/fault_command.c ****                              context,
 2436              		.loc 1 184 5 view .LVU455
 2437 00ca 0397     		str	r7, [sp, #12]
 2438 00cc 0293     		str	r3, [sp, #8]
 2439 00ce 1C9B     		ldr	r3, [sp, #112]
 2440 00d0 0193     		str	r3, [sp, #4]
 2441 00d2 1B9B     		ldr	r3, [sp, #108]
 2442 00d4 0093     		str	r3, [sp]
 2443 00d6 1A9B     		ldr	r3, [sp, #104]
 2444 00d8 154A     		ldr	r2, .L141+32
 2445 00da 3146     		mov	r1, r6
 2446 00dc 2846     		mov	r0, r5
 2447 00de FFF7FEFF 		bl	FaultCommand_WriteFormat
 2448              	.LVL204:
 192:App/Src/fault_command.c ****     {
 2449              		.loc 1 192 5 is_stmt 1 view .LVU456
 2450              	.LBB14:
 192:App/Src/fault_command.c ****     {
 2451              		.loc 1 192 10 view .LVU457
 192:App/Src/fault_command.c ****     {
 2452              		.loc 1 192 18 is_stmt 0 view .LVU458
 2453 00e2 0024     		movs	r4, #0
 2454              	.LVL205:
 192:App/Src/fault_command.c ****     {
 2455              		.loc 1 192 5 view .LVU459
 2456 00e4 08E0     		b	.L130
 2457              	.LVL206:
 2458              	.L140:
ARM GAS  C:\Users\hh\AppData\Local\Temp\ccntMbQq.s 			page 78


 194:App/Src/fault_command.c ****                                context,
 2459              		.loc 1 194 7 discriminator 1 view .LVU460
 2460 00e6 0E4A     		ldr	r2, .L141+16
 2461              	.L131:
 194:App/Src/fault_command.c ****                                context,
 2462              		.loc 1 194 7 discriminator 4 view .LVU461
 2463 00e8 0092     		str	r2, [sp]
 2464 00ea 124A     		ldr	r2, .L141+36
 2465 00ec 3146     		mov	r1, r6
 2466 00ee 2846     		mov	r0, r5
 2467 00f0 FFF7FEFF 		bl	FaultCommand_WriteFormat
 2468              	.LVL207:
 192:App/Src/fault_command.c ****     {
 2469              		.loc 1 192 69 is_stmt 1 discriminator 2 view .LVU462
 2470 00f4 0134     		adds	r4, r4, #1
 2471              	.LVL208:
 192:App/Src/fault_command.c ****     {
 2472              		.loc 1 192 69 is_stmt 0 discriminator 2 view .LVU463
 2473 00f6 E4B2     		uxtb	r4, r4
 2474              	.LVL209:
 2475              	.L130:
 192:App/Src/fault_command.c ****     {
 2476              		.loc 1 192 36 is_stmt 1 discriminator 1 view .LVU464
 2477 00f8 A742     		cmp	r7, r4
 2478 00fa DBD9     		bls	.L129
 194:App/Src/fault_command.c ****                                context,
 2479              		.loc 1 194 7 view .LVU465
 197:App/Src/fault_command.c ****                                (index + 1U == status.responseCanLength) ? "" : " ");
 2480              		.loc 1 197 54 is_stmt 0 view .LVU466
 2481 00fc 04F18003 		add	r3, r4, #128
 2482 0100 6B44     		add	r3, sp, r3
 2483 0102 13F80A3C 		ldrb	r3, [r3, #-10]	@ zero_extendqisi2
 198:App/Src/fault_command.c ****     }
 2484              		.loc 1 198 39 view .LVU467
 2485 0106 621C     		adds	r2, r4, #1
 194:App/Src/fault_command.c ****                                context,
 2486              		.loc 1 194 7 view .LVU468
 2487 0108 BA42     		cmp	r2, r7
 2488 010a ECD0     		beq	.L140
 194:App/Src/fault_command.c ****                                context,
 2489              		.loc 1 194 7 discriminator 2 view .LVU469
 2490 010c 064A     		ldr	r2, .L141+24
 2491 010e EBE7     		b	.L131
 2492              	.L142:
 2493              		.align	2
 2494              	.L141:
 2495 0110 08000000 		.word	.LC73
 2496 0114 00000000 		.word	.LC71
 2497 0118 80000000 		.word	.LC74
 2498 011c 04000000 		.word	.LC72
 2499 0120 00000000 		.word	.LC36
 2500 0124 C8000000 		.word	.LC75
 2501 0128 00000000 		.word	.LC61
 2502 012c D0000000 		.word	.LC50
 2503 0130 D4000000 		.word	.LC76
 2504 0134 60000000 		.word	.LC63
 2505              	.LBE14:
ARM GAS  C:\Users\hh\AppData\Local\Temp\ccntMbQq.s 			page 79


 2506              		.cfi_endproc
 2507              	.LFE156:
 2509              		.section	.rodata.FaultCommand_WriteJsonSramStatus.str1.4,"aMS",%progbits,1
 2510              		.align	2
 2511              	.LC77:
 2512 0000 7B226F6B 		.ascii	"{\"ok\":%s,\"sram\":{\"base\":%lu,\"base_hex\":\"0x"
 2512      223A2573 
 2512      2C227372 
 2512      616D223A 
 2512      7B226261 
 2513 002a 2530386C 		.ascii	"%08lX\",\000"
 2513      58222C00 
 2514 0032 0000     		.align	2
 2515              	.LC78:
 2516 0034 2273697A 		.ascii	"\"size_bytes\":%lu,\"bus_width_bits\":%u,\"last\":\""
 2516      655F6279 
 2516      74657322 
 2516      3A256C75 
 2516      2C226275 
 2517 0061 2573222C 		.ascii	"%s\",\000"
 2517      00
 2518 0066 0000     		.align	2
 2519              	.LC79:
 2520 0068 22746573 		.ascii	"\"test_bytes\":%lu,\"pass\":%lu,\"fail\":%lu,\"tick"
 2520      745F6279 
 2520      74657322 
 2520      3A256C75 
 2520      2C227061 
 2521 0094 223A256C 		.ascii	"\":%lu,\000"
 2521      752C00
 2522 009b 00       		.align	2
 2523              	.LC80:
 2524 009c 22666169 		.ascii	"\"fail_addr\":%lu,\"fail_addr_hex\":\"0x%08lX\",\000"
 2524      6C5F6164 
 2524      6472223A 
 2524      256C752C 
 2524      22666169 
 2525 00c7 00       		.align	2
 2526              	.LC81:
 2527 00c8 22657870 		.ascii	"\"expected\":%u,\"actual\":%u}}\015\012\000"
 2527      65637465 
 2527      64223A25 
 2527      752C2261 
 2527      63747561 
 2528              		.section	.text.FaultCommand_WriteJsonSramStatus,"ax",%progbits
 2529              		.align	1
 2530              		.syntax unified
 2531              		.thumb
 2532              		.thumb_func
 2534              	FaultCommand_WriteJsonSramStatus:
 2535              	.LVL210:
 2536              	.LFB167:
 476:App/Src/fault_command.c ****   BspSram_Status status = BspSram_GetStatus();
 2537              		.loc 1 476 1 is_stmt 1 view -0
 2538              		.cfi_startproc
 2539              		@ args = 0, pretend = 0, frame = 40
 2540              		@ frame_needed = 0, uses_anonymous_args = 0
ARM GAS  C:\Users\hh\AppData\Local\Temp\ccntMbQq.s 			page 80


 476:App/Src/fault_command.c ****   BspSram_Status status = BspSram_GetStatus();
 2541              		.loc 1 476 1 is_stmt 0 view .LVU471
 2542 0000 F0B5     		push	{r4, r5, r6, r7, lr}
 2543              	.LCFI51:
 2544              		.cfi_def_cfa_offset 20
 2545              		.cfi_offset 4, -20
 2546              		.cfi_offset 5, -16
 2547              		.cfi_offset 6, -12
 2548              		.cfi_offset 7, -8
 2549              		.cfi_offset 14, -4
 2550 0002 8FB0     		sub	sp, sp, #60
 2551              	.LCFI52:
 2552              		.cfi_def_cfa_offset 80
 2553 0004 0446     		mov	r4, r0
 2554 0006 0D46     		mov	r5, r1
 2555 0008 1646     		mov	r6, r2
 477:App/Src/fault_command.c **** 
 2556              		.loc 1 477 3 is_stmt 1 view .LVU472
 477:App/Src/fault_command.c **** 
 2557              		.loc 1 477 27 is_stmt 0 view .LVU473
 2558 000a 04A8     		add	r0, sp, #16
 2559              	.LVL211:
 477:App/Src/fault_command.c **** 
 2560              		.loc 1 477 27 view .LVU474
 2561 000c FFF7FEFF 		bl	BspSram_GetStatus
 2562              	.LVL212:
 479:App/Src/fault_command.c ****                            context,
 2563              		.loc 1 479 3 is_stmt 1 view .LVU475
 2564 0010 002E     		cmp	r6, #0
 2565 0012 37D1     		bne	.L145
 479:App/Src/fault_command.c ****                            context,
 2566              		.loc 1 479 3 is_stmt 0 discriminator 1 view .LVU476
 2567 0014 1C4B     		ldr	r3, .L147
 2568              	.L144:
 483:App/Src/fault_command.c ****                            (unsigned long)status.baseAddress);
 2569              		.loc 1 483 49 view .LVU477
 2570 0016 049A     		ldr	r2, [sp, #16]
 479:App/Src/fault_command.c ****                            context,
 2571              		.loc 1 479 3 view .LVU478
 2572 0018 0192     		str	r2, [sp, #4]
 2573 001a 0092     		str	r2, [sp]
 2574 001c 1B4A     		ldr	r2, .L147+4
 2575 001e 2946     		mov	r1, r5
 2576 0020 2046     		mov	r0, r4
 2577 0022 FFF7FEFF 		bl	FaultCommand_WriteFormat
 2578              	.LVL213:
 485:App/Src/fault_command.c ****                            context,
 2579              		.loc 1 485 3 is_stmt 1 view .LVU479
 488:App/Src/fault_command.c ****                            status.busWidthBits,
 2580              		.loc 1 488 49 is_stmt 0 view .LVU480
 2581 0026 059B     		ldr	r3, [sp, #20]
 2582 0028 1F46     		mov	r7, r3
 489:App/Src/fault_command.c ****                            BspSram_GetResultName(status.lastResult));
 2583              		.loc 1 489 34 view .LVU481
 2584 002a 9DF81860 		ldrb	r6, [sp, #24]	@ zero_extendqisi2
 2585              	.LVL214:
 485:App/Src/fault_command.c ****                            context,
ARM GAS  C:\Users\hh\AppData\Local\Temp\ccntMbQq.s 			page 81


 2586              		.loc 1 485 3 view .LVU482
 2587 002e 9DF83400 		ldrb	r0, [sp, #52]	@ zero_extendqisi2
 2588 0032 FFF7FEFF 		bl	BspSram_GetResultName
 2589              	.LVL215:
 485:App/Src/fault_command.c ****                            context,
 2590              		.loc 1 485 3 discriminator 1 view .LVU483
 2591 0036 0190     		str	r0, [sp, #4]
 485:App/Src/fault_command.c ****                            context,
 2592              		.loc 1 485 3 view .LVU484
 2593 0038 0096     		str	r6, [sp]
 485:App/Src/fault_command.c ****                            context,
 2594              		.loc 1 485 3 discriminator 1 view .LVU485
 2595 003a 3B46     		mov	r3, r7
 2596 003c 144A     		ldr	r2, .L147+8
 2597 003e 2946     		mov	r1, r5
 2598 0040 2046     		mov	r0, r4
 2599 0042 FFF7FEFF 		bl	FaultCommand_WriteFormat
 2600              	.LVL216:
 491:App/Src/fault_command.c ****                            context,
 2601              		.loc 1 491 3 is_stmt 1 view .LVU486
 2602 0046 089B     		ldr	r3, [sp, #32]
 2603 0048 0293     		str	r3, [sp, #8]
 2604 004a 0B9B     		ldr	r3, [sp, #44]
 2605 004c 0193     		str	r3, [sp, #4]
 2606 004e 0A9B     		ldr	r3, [sp, #40]
 2607 0050 0093     		str	r3, [sp]
 2608 0052 079B     		ldr	r3, [sp, #28]
 2609 0054 0F4A     		ldr	r2, .L147+12
 2610 0056 2946     		mov	r1, r5
 2611 0058 2046     		mov	r0, r4
 2612 005a FFF7FEFF 		bl	FaultCommand_WriteFormat
 2613              	.LVL217:
 498:App/Src/fault_command.c ****                            context,
 2614              		.loc 1 498 3 view .LVU487
 501:App/Src/fault_command.c ****                            (unsigned long)status.lastFailedAddress);
 2615              		.loc 1 501 49 is_stmt 0 view .LVU488
 2616 005e 099B     		ldr	r3, [sp, #36]
 498:App/Src/fault_command.c ****                            context,
 2617              		.loc 1 498 3 view .LVU489
 2618 0060 0093     		str	r3, [sp]
 2619 0062 0D4A     		ldr	r2, .L147+16
 2620 0064 2946     		mov	r1, r5
 2621 0066 2046     		mov	r0, r4
 2622 0068 FFF7FEFF 		bl	FaultCommand_WriteFormat
 2623              	.LVL218:
 503:App/Src/fault_command.c ****                            context,
 2624              		.loc 1 503 3 is_stmt 1 view .LVU490
 507:App/Src/fault_command.c **** }
 2625              		.loc 1 507 34 is_stmt 0 view .LVU491
 2626 006c BDF83230 		ldrh	r3, [sp, #50]
 503:App/Src/fault_command.c ****                            context,
 2627              		.loc 1 503 3 view .LVU492
 2628 0070 0093     		str	r3, [sp]
 2629 0072 BDF83030 		ldrh	r3, [sp, #48]
 2630 0076 094A     		ldr	r2, .L147+20
 2631 0078 2946     		mov	r1, r5
 2632 007a 2046     		mov	r0, r4
ARM GAS  C:\Users\hh\AppData\Local\Temp\ccntMbQq.s 			page 82


 2633 007c FFF7FEFF 		bl	FaultCommand_WriteFormat
 2634              	.LVL219:
 508:App/Src/fault_command.c **** 
 2635              		.loc 1 508 1 view .LVU493
 2636 0080 0FB0     		add	sp, sp, #60
 2637              	.LCFI53:
 2638              		.cfi_remember_state
 2639              		.cfi_def_cfa_offset 20
 2640              		@ sp needed
 2641 0082 F0BD     		pop	{r4, r5, r6, r7, pc}
 2642              	.LVL220:
 2643              	.L145:
 2644              	.LCFI54:
 2645              		.cfi_restore_state
 479:App/Src/fault_command.c ****                            context,
 2646              		.loc 1 479 3 discriminator 2 view .LVU494
 2647 0084 064B     		ldr	r3, .L147+24
 2648 0086 C6E7     		b	.L144
 2649              	.L148:
 2650              		.align	2
 2651              	.L147:
 2652 0088 00000000 		.word	.LC42
 2653 008c 00000000 		.word	.LC77
 2654 0090 34000000 		.word	.LC78
 2655 0094 68000000 		.word	.LC79
 2656 0098 9C000000 		.word	.LC80
 2657 009c C8000000 		.word	.LC81
 2658 00a0 08000000 		.word	.LC43
 2659              		.cfi_endproc
 2660              	.LFE167:
 2662              		.section	.rodata.FaultCommand_WriteTextSramStatus.str1.4,"aMS",%progbits,1
 2663              		.align	2
 2664              	.LC82:
 2665 0000 0D0A5B73 		.ascii	"\015\012[sram] base=0x%08lX size=%lubytes bus=%u-bi"
 2665      72616D5D 
 2665      20626173 
 2665      653D3078 
 2665      2530386C 
 2666 002d 74206C61 		.ascii	"t last=%s test_bytes=%lu pass=%lu fail=%lu tick=%lu"
 2666      73743D25 
 2666      73207465 
 2666      73745F62 
 2666      79746573 
 2667 0060 00       		.ascii	"\000"
 2668 0061 000000   		.align	2
 2669              	.LC83:
 2670 0064 20666169 		.ascii	" fail_addr=0x%08lX expected=0x%04X actual=0x%04X\000"
 2670      6C5F6164 
 2670      64723D30 
 2670      78253038 
 2670      6C582065 
 2671              		.section	.text.FaultCommand_WriteTextSramStatus,"ax",%progbits
 2672              		.align	1
 2673              		.syntax unified
 2674              		.thumb
 2675              		.thumb_func
 2677              	FaultCommand_WriteTextSramStatus:
ARM GAS  C:\Users\hh\AppData\Local\Temp\ccntMbQq.s 			page 83


 2678              	.LVL221:
 2679              	.LFB158:
 222:App/Src/fault_command.c ****   BspSram_Status status = BspSram_GetStatus();
 2680              		.loc 1 222 1 is_stmt 1 view -0
 2681              		.cfi_startproc
 2682              		@ args = 0, pretend = 0, frame = 40
 2683              		@ frame_needed = 0, uses_anonymous_args = 0
 222:App/Src/fault_command.c ****   BspSram_Status status = BspSram_GetStatus();
 2684              		.loc 1 222 1 is_stmt 0 view .LVU496
 2685 0000 2DE9F043 		push	{r4, r5, r6, r7, r8, r9, lr}
 2686              	.LCFI55:
 2687              		.cfi_def_cfa_offset 28
 2688              		.cfi_offset 4, -28
 2689              		.cfi_offset 5, -24
 2690              		.cfi_offset 6, -20
 2691              		.cfi_offset 7, -16
 2692              		.cfi_offset 8, -12
 2693              		.cfi_offset 9, -8
 2694              		.cfi_offset 14, -4
 2695 0004 93B0     		sub	sp, sp, #76
 2696              	.LCFI56:
 2697              		.cfi_def_cfa_offset 104
 2698 0006 8146     		mov	r9, r0
 2699 0008 8846     		mov	r8, r1
 223:App/Src/fault_command.c **** 
 2700              		.loc 1 223 3 is_stmt 1 view .LVU497
 223:App/Src/fault_command.c **** 
 2701              		.loc 1 223 27 is_stmt 0 view .LVU498
 2702 000a 08A8     		add	r0, sp, #32
 2703              	.LVL222:
 223:App/Src/fault_command.c **** 
 2704              		.loc 1 223 27 view .LVU499
 2705 000c FFF7FEFF 		bl	BspSram_GetStatus
 2706              	.LVL223:
 225:App/Src/fault_command.c ****                            context,
 2707              		.loc 1 225 3 is_stmt 1 view .LVU500
 228:App/Src/fault_command.c ****                            (unsigned long)status.sizeBytes,
 2708              		.loc 1 228 49 is_stmt 0 view .LVU501
 2709 0010 089F     		ldr	r7, [sp, #32]
 229:App/Src/fault_command.c ****                            status.busWidthBits,
 2710              		.loc 1 229 49 view .LVU502
 2711 0012 099D     		ldr	r5, [sp, #36]
 230:App/Src/fault_command.c ****                            BspSram_GetResultName(status.lastResult),
 2712              		.loc 1 230 34 view .LVU503
 2713 0014 9DF82860 		ldrb	r6, [sp, #40]	@ zero_extendqisi2
 225:App/Src/fault_command.c ****                            context,
 2714              		.loc 1 225 3 view .LVU504
 2715 0018 9DF84440 		ldrb	r4, [sp, #68]	@ zero_extendqisi2
 2716 001c 2046     		mov	r0, r4
 2717 001e FFF7FEFF 		bl	BspSram_GetResultName
 2718              	.LVL224:
 2719 0022 0C9B     		ldr	r3, [sp, #48]
 2720 0024 0693     		str	r3, [sp, #24]
 2721 0026 0F9B     		ldr	r3, [sp, #60]
 2722 0028 0593     		str	r3, [sp, #20]
 2723 002a 0E9B     		ldr	r3, [sp, #56]
 2724 002c 0493     		str	r3, [sp, #16]
ARM GAS  C:\Users\hh\AppData\Local\Temp\ccntMbQq.s 			page 84


 2725 002e 0B9B     		ldr	r3, [sp, #44]
 2726 0030 0393     		str	r3, [sp, #12]
 2727 0032 0290     		str	r0, [sp, #8]
 2728 0034 0196     		str	r6, [sp, #4]
 2729 0036 0095     		str	r5, [sp]
 2730 0038 3B46     		mov	r3, r7
 2731 003a 0E4A     		ldr	r2, .L153
 2732 003c 4146     		mov	r1, r8
 2733 003e 4846     		mov	r0, r9
 2734 0040 FFF7FEFF 		bl	FaultCommand_WriteFormat
 2735              	.LVL225:
 237:App/Src/fault_command.c ****   {
 2736              		.loc 1 237 3 is_stmt 1 view .LVU505
 237:App/Src/fault_command.c ****   {
 2737              		.loc 1 237 6 is_stmt 0 view .LVU506
 2738 0044 012C     		cmp	r4, #1
 2739 0046 07D0     		beq	.L152
 2740              	.L150:
 247:App/Src/fault_command.c **** }
 2741              		.loc 1 247 3 is_stmt 1 view .LVU507
 2742 0048 0B4A     		ldr	r2, .L153+4
 2743 004a 4146     		mov	r1, r8
 2744 004c 4846     		mov	r0, r9
 2745 004e FFF7FEFF 		bl	FaultCommand_Write
 2746              	.LVL226:
 248:App/Src/fault_command.c **** 
 2747              		.loc 1 248 1 is_stmt 0 view .LVU508
 2748 0052 13B0     		add	sp, sp, #76
 2749              	.LCFI57:
 2750              		.cfi_remember_state
 2751              		.cfi_def_cfa_offset 28
 2752              		@ sp needed
 2753 0054 BDE8F083 		pop	{r4, r5, r6, r7, r8, r9, pc}
 2754              	.LVL227:
 2755              	.L152:
 2756              	.LCFI58:
 2757              		.cfi_restore_state
 239:App/Src/fault_command.c ****                              context,
 2758              		.loc 1 239 5 is_stmt 1 view .LVU509
 243:App/Src/fault_command.c ****                              status.actual);
 2759              		.loc 1 243 36 is_stmt 0 view .LVU510
 2760 0058 BDF84030 		ldrh	r3, [sp, #64]
 244:App/Src/fault_command.c ****   }
 2761              		.loc 1 244 36 view .LVU511
 2762 005c BDF84220 		ldrh	r2, [sp, #66]
 239:App/Src/fault_command.c ****                              context,
 2763              		.loc 1 239 5 view .LVU512
 2764 0060 0192     		str	r2, [sp, #4]
 2765 0062 0093     		str	r3, [sp]
 2766 0064 0D9B     		ldr	r3, [sp, #52]
 2767 0066 054A     		ldr	r2, .L153+8
 2768 0068 4146     		mov	r1, r8
 2769 006a 4846     		mov	r0, r9
 2770 006c FFF7FEFF 		bl	FaultCommand_WriteFormat
 2771              	.LVL228:
 2772 0070 EAE7     		b	.L150
 2773              	.L154:
ARM GAS  C:\Users\hh\AppData\Local\Temp\ccntMbQq.s 			page 85


 2774 0072 00BF     		.align	2
 2775              	.L153:
 2776 0074 00000000 		.word	.LC82
 2777 0078 D0000000 		.word	.LC50
 2778 007c 64000000 		.word	.LC83
 2779              		.cfi_endproc
 2780              	.LFE158:
 2782              		.section	.text.FaultCommand_StopAllWaveforms,"ax",%progbits
 2783              		.align	1
 2784              		.syntax unified
 2785              		.thumb
 2786              		.thumb_func
 2788              	FaultCommand_StopAllWaveforms:
 2789              	.LFB154:
 115:App/Src/fault_command.c ****   WaveformEngine_Stop();
 2790              		.loc 1 115 1 is_stmt 1 view -0
 2791              		.cfi_startproc
 2792              		@ args = 0, pretend = 0, frame = 0
 2793              		@ frame_needed = 0, uses_anonymous_args = 0
 2794 0000 08B5     		push	{r3, lr}
 2795              	.LCFI59:
 2796              		.cfi_def_cfa_offset 8
 2797              		.cfi_offset 3, -8
 2798              		.cfi_offset 14, -4
 116:App/Src/fault_command.c ****   WaveformGen_Stop();
 2799              		.loc 1 116 3 view .LVU514
 2800 0002 FFF7FEFF 		bl	WaveformEngine_Stop
 2801              	.LVL229:
 117:App/Src/fault_command.c **** }
 2802              		.loc 1 117 3 view .LVU515
 2803 0006 FFF7FEFF 		bl	WaveformGen_Stop
 2804              	.LVL230:
 118:App/Src/fault_command.c **** 
 2805              		.loc 1 118 1 is_stmt 0 view .LVU516
 2806 000a 08BD     		pop	{r3, pc}
 2807              		.cfi_endproc
 2808              	.LFE154:
 2810              		.section	.text.FaultCommand_RunSet,"ax",%progbits
 2811              		.align	1
 2812              		.syntax unified
 2813              		.thumb
 2814              		.thumb_func
 2816              	FaultCommand_RunSet:
 2817              	.LVL231:
 2818              	.LFB169:
 522:App/Src/fault_command.c ****   if (DacSafety_IsOutputAllowed() == 0U)
 2819              		.loc 1 522 1 is_stmt 1 view -0
 2820              		.cfi_startproc
 2821              		@ args = 0, pretend = 0, frame = 0
 2822              		@ frame_needed = 0, uses_anonymous_args = 0
 522:App/Src/fault_command.c ****   if (DacSafety_IsOutputAllowed() == 0U)
 2823              		.loc 1 522 1 is_stmt 0 view .LVU518
 2824 0000 38B5     		push	{r3, r4, r5, lr}
 2825              	.LCFI60:
 2826              		.cfi_def_cfa_offset 16
 2827              		.cfi_offset 3, -16
 2828              		.cfi_offset 4, -12
ARM GAS  C:\Users\hh\AppData\Local\Temp\ccntMbQq.s 			page 86


 2829              		.cfi_offset 5, -8
 2830              		.cfi_offset 14, -4
 2831 0002 0546     		mov	r5, r0
 2832 0004 0C46     		mov	r4, r1
 523:App/Src/fault_command.c ****   {
 2833              		.loc 1 523 3 is_stmt 1 view .LVU519
 523:App/Src/fault_command.c ****   {
 2834              		.loc 1 523 7 is_stmt 0 view .LVU520
 2835 0006 FFF7FEFF 		bl	DacSafety_IsOutputAllowed
 2836              	.LVL232:
 523:App/Src/fault_command.c ****   {
 2837              		.loc 1 523 6 discriminator 1 view .LVU521
 2838 000a 30B1     		cbz	r0, .L159
 528:App/Src/fault_command.c ****   return VoltageSim_SetCellVoltageMv(cell, millivolts);
 2839              		.loc 1 528 3 is_stmt 1 view .LVU522
 2840 000c FFF7FEFF 		bl	FaultCommand_StopAllWaveforms
 2841              	.LVL233:
 529:App/Src/fault_command.c **** }
 2842              		.loc 1 529 3 view .LVU523
 529:App/Src/fault_command.c **** }
 2843              		.loc 1 529 10 is_stmt 0 view .LVU524
 2844 0010 2146     		mov	r1, r4
 2845 0012 2846     		mov	r0, r5
 2846 0014 FFF7FEFF 		bl	VoltageSim_SetCellVoltageMv
 2847              	.LVL234:
 2848              	.L158:
 530:App/Src/fault_command.c **** 
 2849              		.loc 1 530 1 view .LVU525
 2850 0018 38BD     		pop	{r3, r4, r5, pc}
 2851              	.LVL235:
 2852              	.L159:
 525:App/Src/fault_command.c ****   }
 2853              		.loc 1 525 12 view .LVU526
 2854 001a 0220     		movs	r0, #2
 2855 001c FCE7     		b	.L158
 2856              		.cfi_endproc
 2857              	.LFE169:
 2859              		.section	.text.FaultCommand_RunOverVoltage,"ax",%progbits
 2860              		.align	1
 2861              		.syntax unified
 2862              		.thumb
 2863              		.thumb_func
 2865              	FaultCommand_RunOverVoltage:
 2866              	.LVL236:
 2867              	.LFB171:
 555:App/Src/fault_command.c ****   HAL_StatusTypeDef status;
 2868              		.loc 1 555 1 is_stmt 1 view -0
 2869              		.cfi_startproc
 2870              		@ args = 0, pretend = 0, frame = 0
 2871              		@ frame_needed = 0, uses_anonymous_args = 0
 555:App/Src/fault_command.c ****   HAL_StatusTypeDef status;
 2872              		.loc 1 555 1 is_stmt 0 view .LVU528
 2873 0000 2DE9F041 		push	{r4, r5, r6, r7, r8, lr}
 2874              	.LCFI61:
 2875              		.cfi_def_cfa_offset 24
 2876              		.cfi_offset 4, -24
 2877              		.cfi_offset 5, -20
ARM GAS  C:\Users\hh\AppData\Local\Temp\ccntMbQq.s 			page 87


 2878              		.cfi_offset 6, -16
 2879              		.cfi_offset 7, -12
 2880              		.cfi_offset 8, -8
 2881              		.cfi_offset 14, -4
 2882 0004 82B0     		sub	sp, sp, #8
 2883              	.LCFI62:
 2884              		.cfi_def_cfa_offset 32
 2885 0006 0546     		mov	r5, r0
 2886 0008 0C46     		mov	r4, r1
 2887 000a 8846     		mov	r8, r1
 2888 000c 1746     		mov	r7, r2
 2889 000e 1E46     		mov	r6, r3
 556:App/Src/fault_command.c **** 
 2890              		.loc 1 556 3 is_stmt 1 view .LVU529
 558:App/Src/fault_command.c ****   {
 2891              		.loc 1 558 3 view .LVU530
 558:App/Src/fault_command.c ****   {
 2892              		.loc 1 558 7 is_stmt 0 view .LVU531
 2893 0010 FFF7FEFF 		bl	DacSafety_IsOutputAllowed
 2894              	.LVL237:
 558:App/Src/fault_command.c ****   {
 2895              		.loc 1 558 6 discriminator 1 view .LVU532
 2896 0014 A8B1     		cbz	r0, .L163
 563:App/Src/fault_command.c ****   status = VoltageSim_InjectCellOverVoltageRamp(cell, target, duration, slew);
 2897              		.loc 1 563 3 is_stmt 1 view .LVU533
 2898 0016 FFF7FEFF 		bl	FaultCommand_StopAllWaveforms
 2899              	.LVL238:
 564:App/Src/fault_command.c ****   if (status == HAL_OK)
 2900              		.loc 1 564 3 view .LVU534
 564:App/Src/fault_command.c ****   if (status == HAL_OK)
 2901              		.loc 1 564 12 is_stmt 0 view .LVU535
 2902 001a 3346     		mov	r3, r6
 2903 001c 3A46     		mov	r2, r7
 2904 001e 2146     		mov	r1, r4
 2905 0020 2846     		mov	r0, r5
 2906 0022 FFF7FEFF 		bl	VoltageSim_InjectCellOverVoltageRamp
 2907              	.LVL239:
 565:App/Src/fault_command.c ****   {
 2908              		.loc 1 565 3 is_stmt 1 view .LVU536
 565:App/Src/fault_command.c ****   {
 2909              		.loc 1 565 6 is_stmt 0 view .LVU537
 2910 0026 0446     		mov	r4, r0
 2911              	.LVL240:
 565:App/Src/fault_command.c ****   {
 2912              		.loc 1 565 6 view .LVU538
 2913 0028 18B1     		cbz	r0, .L165
 2914              	.LVL241:
 2915              	.L162:
 571:App/Src/fault_command.c **** 
 2916              		.loc 1 571 1 view .LVU539
 2917 002a 2046     		mov	r0, r4
 2918 002c 02B0     		add	sp, sp, #8
 2919              	.LCFI63:
 2920              		.cfi_remember_state
 2921              		.cfi_def_cfa_offset 24
 2922              		@ sp needed
 2923 002e BDE8F081 		pop	{r4, r5, r6, r7, r8, pc}
ARM GAS  C:\Users\hh\AppData\Local\Temp\ccntMbQq.s 			page 88


 2924              	.LVL242:
 2925              	.L165:
 2926              	.LCFI64:
 2927              		.cfi_restore_state
 567:App/Src/fault_command.c ****   }
 2928              		.loc 1 567 5 is_stmt 1 view .LVU540
 2929 0032 0346     		mov	r3, r0
 2930 0034 0090     		str	r0, [sp]
 2931 0036 4246     		mov	r2, r8
 2932 0038 2946     		mov	r1, r5
 2933 003a 0120     		movs	r0, #1
 2934              	.LVL243:
 567:App/Src/fault_command.c ****   }
 2935              		.loc 1 567 5 is_stmt 0 view .LVU541
 2936 003c FFF7FEFF 		bl	BmsResponseLog_RecordFaultTrigger
 2937              	.LVL244:
 2938 0040 F3E7     		b	.L162
 2939              	.LVL245:
 2940              	.L163:
 560:App/Src/fault_command.c ****   }
 2941              		.loc 1 560 12 view .LVU542
 2942 0042 0223     		movs	r3, #2
 2943 0044 1C46     		mov	r4, r3
 2944 0046 F0E7     		b	.L162
 2945              		.cfi_endproc
 2946              	.LFE171:
 2948              		.section	.text.FaultCommand_RunUnderVoltage,"ax",%progbits
 2949              		.align	1
 2950              		.syntax unified
 2951              		.thumb
 2952              		.thumb_func
 2954              	FaultCommand_RunUnderVoltage:
 2955              	.LVL246:
 2956              	.LFB172:
 577:App/Src/fault_command.c ****   HAL_StatusTypeDef status;
 2957              		.loc 1 577 1 is_stmt 1 view -0
 2958              		.cfi_startproc
 2959              		@ args = 0, pretend = 0, frame = 0
 2960              		@ frame_needed = 0, uses_anonymous_args = 0
 577:App/Src/fault_command.c ****   HAL_StatusTypeDef status;
 2961              		.loc 1 577 1 is_stmt 0 view .LVU544
 2962 0000 2DE9F041 		push	{r4, r5, r6, r7, r8, lr}
 2963              	.LCFI65:
 2964              		.cfi_def_cfa_offset 24
 2965              		.cfi_offset 4, -24
 2966              		.cfi_offset 5, -20
 2967              		.cfi_offset 6, -16
 2968              		.cfi_offset 7, -12
 2969              		.cfi_offset 8, -8
 2970              		.cfi_offset 14, -4
 2971 0004 82B0     		sub	sp, sp, #8
 2972              	.LCFI66:
 2973              		.cfi_def_cfa_offset 32
 2974 0006 0546     		mov	r5, r0
 2975 0008 0C46     		mov	r4, r1
 2976 000a 8846     		mov	r8, r1
 2977 000c 1746     		mov	r7, r2
ARM GAS  C:\Users\hh\AppData\Local\Temp\ccntMbQq.s 			page 89


 2978 000e 1E46     		mov	r6, r3
 578:App/Src/fault_command.c **** 
 2979              		.loc 1 578 3 is_stmt 1 view .LVU545
 580:App/Src/fault_command.c ****   {
 2980              		.loc 1 580 3 view .LVU546
 580:App/Src/fault_command.c ****   {
 2981              		.loc 1 580 7 is_stmt 0 view .LVU547
 2982 0010 FFF7FEFF 		bl	DacSafety_IsOutputAllowed
 2983              	.LVL247:
 580:App/Src/fault_command.c ****   {
 2984              		.loc 1 580 6 discriminator 1 view .LVU548
 2985 0014 A8B1     		cbz	r0, .L168
 585:App/Src/fault_command.c ****   status = VoltageSim_InjectCellUnderVoltageRamp(cell, target, duration, slew);
 2986              		.loc 1 585 3 is_stmt 1 view .LVU549
 2987 0016 FFF7FEFF 		bl	FaultCommand_StopAllWaveforms
 2988              	.LVL248:
 586:App/Src/fault_command.c ****   if (status == HAL_OK)
 2989              		.loc 1 586 3 view .LVU550
 586:App/Src/fault_command.c ****   if (status == HAL_OK)
 2990              		.loc 1 586 12 is_stmt 0 view .LVU551
 2991 001a 3346     		mov	r3, r6
 2992 001c 3A46     		mov	r2, r7
 2993 001e 2146     		mov	r1, r4
 2994 0020 2846     		mov	r0, r5
 2995 0022 FFF7FEFF 		bl	VoltageSim_InjectCellUnderVoltageRamp
 2996              	.LVL249:
 587:App/Src/fault_command.c ****   {
 2997              		.loc 1 587 3 is_stmt 1 view .LVU552
 587:App/Src/fault_command.c ****   {
 2998              		.loc 1 587 6 is_stmt 0 view .LVU553
 2999 0026 0446     		mov	r4, r0
 3000              	.LVL250:
 587:App/Src/fault_command.c ****   {
 3001              		.loc 1 587 6 view .LVU554
 3002 0028 18B1     		cbz	r0, .L170
 3003              	.LVL251:
 3004              	.L167:
 593:App/Src/fault_command.c **** 
 3005              		.loc 1 593 1 view .LVU555
 3006 002a 2046     		mov	r0, r4
 3007 002c 02B0     		add	sp, sp, #8
 3008              	.LCFI67:
 3009              		.cfi_remember_state
 3010              		.cfi_def_cfa_offset 24
 3011              		@ sp needed
 3012 002e BDE8F081 		pop	{r4, r5, r6, r7, r8, pc}
 3013              	.LVL252:
 3014              	.L170:
 3015              	.LCFI68:
 3016              		.cfi_restore_state
 589:App/Src/fault_command.c ****   }
 3017              		.loc 1 589 5 is_stmt 1 view .LVU556
 3018 0032 0346     		mov	r3, r0
 3019 0034 0090     		str	r0, [sp]
 3020 0036 4246     		mov	r2, r8
 3021 0038 2946     		mov	r1, r5
 3022 003a 0220     		movs	r0, #2
ARM GAS  C:\Users\hh\AppData\Local\Temp\ccntMbQq.s 			page 90


 3023              	.LVL253:
 589:App/Src/fault_command.c ****   }
 3024              		.loc 1 589 5 is_stmt 0 view .LVU557
 3025 003c FFF7FEFF 		bl	BmsResponseLog_RecordFaultTrigger
 3026              	.LVL254:
 3027 0040 F3E7     		b	.L167
 3028              	.LVL255:
 3029              	.L168:
 582:App/Src/fault_command.c ****   }
 3030              		.loc 1 582 12 view .LVU558
 3031 0042 0223     		movs	r3, #2
 3032 0044 1C46     		mov	r4, r3
 3033 0046 F0E7     		b	.L167
 3034              		.cfi_endproc
 3035              	.LFE172:
 3037              		.section	.text.FaultCommand_RunDiff,"ax",%progbits
 3038              		.align	1
 3039              		.syntax unified
 3040              		.thumb
 3041              		.thumb_func
 3043              	FaultCommand_RunDiff:
 3044              	.LVL256:
 3045              	.LFB173:
 601:App/Src/fault_command.c ****   HAL_StatusTypeDef status;
 3046              		.loc 1 601 1 is_stmt 1 view -0
 3047              		.cfi_startproc
 3048              		@ args = 8, pretend = 0, frame = 0
 3049              		@ frame_needed = 0, uses_anonymous_args = 0
 601:App/Src/fault_command.c ****   HAL_StatusTypeDef status;
 3050              		.loc 1 601 1 is_stmt 0 view .LVU560
 3051 0000 2DE9F041 		push	{r4, r5, r6, r7, r8, lr}
 3052              	.LCFI69:
 3053              		.cfi_def_cfa_offset 24
 3054              		.cfi_offset 4, -24
 3055              		.cfi_offset 5, -20
 3056              		.cfi_offset 6, -16
 3057              		.cfi_offset 7, -12
 3058              		.cfi_offset 8, -8
 3059              		.cfi_offset 14, -4
 3060 0004 82B0     		sub	sp, sp, #8
 3061              	.LCFI70:
 3062              		.cfi_def_cfa_offset 32
 3063 0006 0746     		mov	r7, r0
 3064 0008 0E46     		mov	r6, r1
 3065 000a 1546     		mov	r5, r2
 3066 000c 1C46     		mov	r4, r3
 3067 000e 9846     		mov	r8, r3
 602:App/Src/fault_command.c **** 
 3068              		.loc 1 602 3 is_stmt 1 view .LVU561
 604:App/Src/fault_command.c ****   {
 3069              		.loc 1 604 3 view .LVU562
 604:App/Src/fault_command.c ****   {
 3070              		.loc 1 604 7 is_stmt 0 view .LVU563
 3071 0010 FFF7FEFF 		bl	DacSafety_IsOutputAllowed
 3072              	.LVL257:
 604:App/Src/fault_command.c ****   {
 3073              		.loc 1 604 6 discriminator 1 view .LVU564
ARM GAS  C:\Users\hh\AppData\Local\Temp\ccntMbQq.s 			page 91


 3074 0014 D8B1     		cbz	r0, .L173
 609:App/Src/fault_command.c ****   status = VoltageSim_InjectVoltageDifference(highCell, highMv, lowCell, lowMv, duration, slew);
 3075              		.loc 1 609 3 is_stmt 1 view .LVU565
 3076 0016 FFF7FEFF 		bl	FaultCommand_StopAllWaveforms
 3077              	.LVL258:
 610:App/Src/fault_command.c ****   if (status == HAL_OK)
 3078              		.loc 1 610 3 view .LVU566
 610:App/Src/fault_command.c ****   if (status == HAL_OK)
 3079              		.loc 1 610 12 is_stmt 0 view .LVU567
 3080 001a BDF82430 		ldrh	r3, [sp, #36]
 3081 001e 0193     		str	r3, [sp, #4]
 3082 0020 089B     		ldr	r3, [sp, #32]
 3083 0022 0093     		str	r3, [sp]
 3084 0024 2346     		mov	r3, r4
 3085 0026 2A46     		mov	r2, r5
 3086 0028 3146     		mov	r1, r6
 3087 002a 3846     		mov	r0, r7
 3088 002c FFF7FEFF 		bl	VoltageSim_InjectVoltageDifference
 3089              	.LVL259:
 611:App/Src/fault_command.c ****   {
 3090              		.loc 1 611 3 is_stmt 1 view .LVU568
 611:App/Src/fault_command.c ****   {
 3091              		.loc 1 611 6 is_stmt 0 view .LVU569
 3092 0030 0446     		mov	r4, r0
 3093              	.LVL260:
 611:App/Src/fault_command.c ****   {
 3094              		.loc 1 611 6 view .LVU570
 3095 0032 18B1     		cbz	r0, .L175
 3096              	.LVL261:
 3097              	.L172:
 621:App/Src/fault_command.c **** 
 3098              		.loc 1 621 1 view .LVU571
 3099 0034 2046     		mov	r0, r4
 3100 0036 02B0     		add	sp, sp, #8
 3101              	.LCFI71:
 3102              		.cfi_remember_state
 3103              		.cfi_def_cfa_offset 24
 3104              		@ sp needed
 3105 0038 BDE8F081 		pop	{r4, r5, r6, r7, r8, pc}
 3106              	.LVL262:
 3107              	.L175:
 3108              	.LCFI72:
 3109              		.cfi_restore_state
 613:App/Src/fault_command.c ****                                       highCell,
 3110              		.loc 1 613 5 is_stmt 1 view .LVU572
 3111 003c CDF80080 		str	r8, [sp]
 3112 0040 2B46     		mov	r3, r5
 3113 0042 3246     		mov	r2, r6
 3114 0044 3946     		mov	r1, r7
 3115 0046 0320     		movs	r0, #3
 3116              	.LVL263:
 613:App/Src/fault_command.c ****                                       highCell,
 3117              		.loc 1 613 5 is_stmt 0 view .LVU573
 3118 0048 FFF7FEFF 		bl	BmsResponseLog_RecordFaultTrigger
 3119              	.LVL264:
 3120 004c F2E7     		b	.L172
 3121              	.LVL265:
ARM GAS  C:\Users\hh\AppData\Local\Temp\ccntMbQq.s 			page 92


 3122              	.L173:
 606:App/Src/fault_command.c ****   }
 3123              		.loc 1 606 12 view .LVU574
 3124 004e 0223     		movs	r3, #2
 3125 0050 1C46     		mov	r4, r3
 3126 0052 EFE7     		b	.L172
 3127              		.cfi_endproc
 3128              	.LFE173:
 3130              		.section	.text.FaultCommand_RunNormal,"ax",%progbits
 3131              		.align	1
 3132              		.syntax unified
 3133              		.thumb
 3134              		.thumb_func
 3136              	FaultCommand_RunNormal:
 3137              	.LVL266:
 3138              	.LFB168:
 511:App/Src/fault_command.c ****   if (DacSafety_IsOutputAllowed() == 0U)
 3139              		.loc 1 511 1 is_stmt 1 view -0
 3140              		.cfi_startproc
 3141              		@ args = 0, pretend = 0, frame = 0
 3142              		@ frame_needed = 0, uses_anonymous_args = 0
 511:App/Src/fault_command.c ****   if (DacSafety_IsOutputAllowed() == 0U)
 3143              		.loc 1 511 1 is_stmt 0 view .LVU576
 3144 0000 10B5     		push	{r4, lr}
 3145              	.LCFI73:
 3146              		.cfi_def_cfa_offset 8
 3147              		.cfi_offset 4, -8
 3148              		.cfi_offset 14, -4
 3149 0002 0446     		mov	r4, r0
 512:App/Src/fault_command.c ****   {
 3150              		.loc 1 512 3 is_stmt 1 view .LVU577
 512:App/Src/fault_command.c ****   {
 3151              		.loc 1 512 7 is_stmt 0 view .LVU578
 3152 0004 FFF7FEFF 		bl	DacSafety_IsOutputAllowed
 3153              	.LVL267:
 512:App/Src/fault_command.c ****   {
 3154              		.loc 1 512 6 discriminator 1 view .LVU579
 3155 0008 28B1     		cbz	r0, .L178
 517:App/Src/fault_command.c ****   return VoltageSim_SetAllCellsVoltageMv(millivolts);
 3156              		.loc 1 517 3 is_stmt 1 view .LVU580
 3157 000a FFF7FEFF 		bl	FaultCommand_StopAllWaveforms
 3158              	.LVL268:
 518:App/Src/fault_command.c **** }
 3159              		.loc 1 518 3 view .LVU581
 518:App/Src/fault_command.c **** }
 3160              		.loc 1 518 10 is_stmt 0 view .LVU582
 3161 000e 2046     		mov	r0, r4
 3162 0010 FFF7FEFF 		bl	VoltageSim_SetAllCellsVoltageMv
 3163              	.LVL269:
 3164              	.L177:
 519:App/Src/fault_command.c **** 
 3165              		.loc 1 519 1 view .LVU583
 3166 0014 10BD     		pop	{r4, pc}
 3167              	.LVL270:
 3168              	.L178:
 514:App/Src/fault_command.c ****   }
 3169              		.loc 1 514 12 view .LVU584
ARM GAS  C:\Users\hh\AppData\Local\Temp\ccntMbQq.s 			page 93


 3170 0016 0220     		movs	r0, #2
 3171 0018 FCE7     		b	.L177
 3172              		.cfi_endproc
 3173              	.LFE168:
 3175              		.section	.text.FaultCommand_JsonGetUint,"ax",%progbits
 3176              		.align	1
 3177              		.syntax unified
 3178              		.thumb
 3179              		.thumb_func
 3181              	FaultCommand_JsonGetUint:
 3182              	.LVL271:
 3183              	.LFB180:
1221:App/Src/fault_command.c ****   const char *cursor = FaultCommand_FindJsonKey(json, key);
 3184              		.loc 1 1221 1 is_stmt 1 view -0
 3185              		.cfi_startproc
 3186              		@ args = 0, pretend = 0, frame = 0
 3187              		@ frame_needed = 0, uses_anonymous_args = 0
1221:App/Src/fault_command.c ****   const char *cursor = FaultCommand_FindJsonKey(json, key);
 3188              		.loc 1 1221 1 is_stmt 0 view .LVU586
 3189 0000 10B5     		push	{r4, lr}
 3190              	.LCFI74:
 3191              		.cfi_def_cfa_offset 8
 3192              		.cfi_offset 4, -8
 3193              		.cfi_offset 14, -4
 3194 0002 1446     		mov	r4, r2
1222:App/Src/fault_command.c **** 
 3195              		.loc 1 1222 3 is_stmt 1 view .LVU587
1222:App/Src/fault_command.c **** 
 3196              		.loc 1 1222 24 is_stmt 0 view .LVU588
 3197 0004 FFF7FEFF 		bl	FaultCommand_FindJsonKey
 3198              	.LVL272:
1224:App/Src/fault_command.c ****   {
 3199              		.loc 1 1224 3 is_stmt 1 view .LVU589
1224:App/Src/fault_command.c ****   {
 3200              		.loc 1 1224 6 is_stmt 0 view .LVU590
 3201 0008 002C     		cmp	r4, #0
 3202 000a 18BF     		it	ne
 3203 000c 0028     		cmpne	r0, #0
 3204 000e 10D0     		beq	.L184
1229:App/Src/fault_command.c ****   if (cursor == NULL)
 3205              		.loc 1 1229 3 is_stmt 1 view .LVU591
1229:App/Src/fault_command.c ****   if (cursor == NULL)
 3206              		.loc 1 1229 12 is_stmt 0 view .LVU592
 3207 0010 3A21     		movs	r1, #58
 3208 0012 FFF7FEFF 		bl	strchr
 3209              	.LVL273:
1230:App/Src/fault_command.c ****   {
 3210              		.loc 1 1230 3 is_stmt 1 view .LVU593
1230:App/Src/fault_command.c ****   {
 3211              		.loc 1 1230 6 is_stmt 0 view .LVU594
 3212 0016 58B1     		cbz	r0, .L181
1235:App/Src/fault_command.c ****   while (*cursor == ' ')
 3213              		.loc 1 1235 3 is_stmt 1 view .LVU595
1235:App/Src/fault_command.c ****   while (*cursor == ' ')
 3214              		.loc 1 1235 9 is_stmt 0 view .LVU596
 3215 0018 0130     		adds	r0, r0, #1
 3216              	.LVL274:
ARM GAS  C:\Users\hh\AppData\Local\Temp\ccntMbQq.s 			page 94


1236:App/Src/fault_command.c ****   {
 3217              		.loc 1 1236 3 is_stmt 1 view .LVU597
 3218              	.L182:
1236:App/Src/fault_command.c ****   {
 3219              		.loc 1 1236 18 view .LVU598
1236:App/Src/fault_command.c ****   {
 3220              		.loc 1 1236 10 is_stmt 0 view .LVU599
 3221 001a 0378     		ldrb	r3, [r0]	@ zero_extendqisi2
1236:App/Src/fault_command.c ****   {
 3222              		.loc 1 1236 18 view .LVU600
 3223 001c 202B     		cmp	r3, #32
 3224 001e 01D1     		bne	.L187
1238:App/Src/fault_command.c ****   }
 3225              		.loc 1 1238 5 is_stmt 1 view .LVU601
1238:App/Src/fault_command.c ****   }
 3226              		.loc 1 1238 11 is_stmt 0 view .LVU602
 3227 0020 0130     		adds	r0, r0, #1
 3228              	.LVL275:
1238:App/Src/fault_command.c ****   }
 3229              		.loc 1 1238 11 view .LVU603
 3230 0022 FAE7     		b	.L182
 3231              	.LVL276:
 3232              	.L187:
1241:App/Src/fault_command.c ****   return 1U;
 3233              		.loc 1 1241 3 is_stmt 1 view .LVU604
1241:App/Src/fault_command.c ****   return 1U;
 3234              		.loc 1 1241 12 is_stmt 0 view .LVU605
 3235 0024 0A22     		movs	r2, #10
 3236 0026 0021     		movs	r1, #0
 3237 0028 FFF7FEFF 		bl	strtoul
 3238              	.LVL277:
1241:App/Src/fault_command.c ****   return 1U;
 3239              		.loc 1 1241 10 discriminator 1 view .LVU606
 3240 002c 2060     		str	r0, [r4]
1242:App/Src/fault_command.c **** }
 3241              		.loc 1 1242 3 is_stmt 1 view .LVU607
1242:App/Src/fault_command.c **** }
 3242              		.loc 1 1242 10 is_stmt 0 view .LVU608
 3243 002e 0120     		movs	r0, #1
 3244              	.LVL278:
 3245              	.L181:
1243:App/Src/fault_command.c **** 
 3246              		.loc 1 1243 1 view .LVU609
 3247 0030 10BD     		pop	{r4, pc}
 3248              	.LVL279:
 3249              	.L184:
1226:App/Src/fault_command.c ****   }
 3250              		.loc 1 1226 12 view .LVU610
 3251 0032 0020     		movs	r0, #0
 3252              	.LVL280:
1226:App/Src/fault_command.c ****   }
 3253              		.loc 1 1226 12 view .LVU611
 3254 0034 FCE7     		b	.L181
 3255              		.cfi_endproc
 3256              	.LFE180:
 3258              		.section	.text.FaultCommand_JsonGetUintDefault,"ax",%progbits
 3259              		.align	1
ARM GAS  C:\Users\hh\AppData\Local\Temp\ccntMbQq.s 			page 95


 3260              		.syntax unified
 3261              		.thumb
 3262              		.thumb_func
 3264              	FaultCommand_JsonGetUintDefault:
 3265              	.LVL281:
 3266              	.LFB182:
1269:App/Src/fault_command.c **** 
1270:App/Src/fault_command.c **** static uint32_t FaultCommand_JsonGetUintDefault(const char *json, const char *key, uint32_t default
1271:App/Src/fault_command.c **** {
 3267              		.loc 1 1271 1 is_stmt 1 view -0
 3268              		.cfi_startproc
 3269              		@ args = 0, pretend = 0, frame = 8
 3270              		@ frame_needed = 0, uses_anonymous_args = 0
 3271              		.loc 1 1271 1 is_stmt 0 view .LVU613
 3272 0000 00B5     		push	{lr}
 3273              	.LCFI75:
 3274              		.cfi_def_cfa_offset 4
 3275              		.cfi_offset 14, -4
 3276 0002 83B0     		sub	sp, sp, #12
 3277              	.LCFI76:
 3278              		.cfi_def_cfa_offset 16
1272:App/Src/fault_command.c ****   uint32_t value = defaultValue;
 3279              		.loc 1 1272 3 is_stmt 1 view .LVU614
 3280              		.loc 1 1272 12 is_stmt 0 view .LVU615
 3281 0004 0192     		str	r2, [sp, #4]
1273:App/Src/fault_command.c **** 
1274:App/Src/fault_command.c ****   (void)FaultCommand_JsonGetUint(json, key, &value);
 3282              		.loc 1 1274 3 is_stmt 1 view .LVU616
 3283              		.loc 1 1274 9 is_stmt 0 view .LVU617
 3284 0006 01AA     		add	r2, sp, #4
 3285              	.LVL282:
 3286              		.loc 1 1274 9 view .LVU618
 3287 0008 FFF7FEFF 		bl	FaultCommand_JsonGetUint
 3288              	.LVL283:
1275:App/Src/fault_command.c ****   return value;
 3289              		.loc 1 1275 3 is_stmt 1 view .LVU619
1276:App/Src/fault_command.c **** }
 3290              		.loc 1 1276 1 is_stmt 0 view .LVU620
 3291 000c 0198     		ldr	r0, [sp, #4]
 3292 000e 03B0     		add	sp, sp, #12
 3293              	.LCFI77:
 3294              		.cfi_def_cfa_offset 4
 3295              		@ sp needed
 3296 0010 00BD     		pop	{pc}
 3297              		.cfi_endproc
 3298              	.LFE182:
 3300              		.section	.rodata.FaultCommand_ExecuteJson.str1.4,"aMS",%progbits,1
 3301              		.align	2
 3302              	.LC84:
 3303 0000 636D6400 		.ascii	"cmd\000"
 3304              		.align	2
 3305              	.LC85:
 3306 0004 7B226F6B 		.ascii	"{\"ok\":false,\"error\":\"missing_cmd\"}\015\012\000"
 3306      223A6661 
 3306      6C73652C 
 3306      22657272 
 3306      6F72223A 
ARM GAS  C:\Users\hh\AppData\Local\Temp\ccntMbQq.s 			page 96


 3307 0029 000000   		.align	2
 3308              	.LC86:
 3309 002c 73746174 		.ascii	"status\000"
 3309      757300
 3310 0033 00       		.align	2
 3311              	.LC87:
 3312 0034 68656C70 		.ascii	"help\000"
 3312      00
 3313 0039 000000   		.align	2
 3314              	.LC88:
 3315 003c 7B226F6B 		.ascii	"{\"ok\":true,\"commands\":[\"status\",\"normal\",\""
 3315      223A7472 
 3315      75652C22 
 3315      636F6D6D 
 3315      616E6473 
 3316 0066 73657422 		.ascii	"set\",\"ov\",\"uv\",\"diff\",\"wave\",\"wave_stop\""
 3316      2C226F76 
 3316      222C2275 
 3316      76222C22 
 3316      64696666 
 3317 008e 2C226361 		.ascii	",\"cal\",\"test\",\"can\",\"log\",\"safe\",\"sram\""
 3317      6C222C22 
 3317      74657374 
 3317      222C2263 
 3317      616E222C 
 3318 00b5 2C22636C 		.ascii	",\"clear\"]}\015\012\000"
 3318      65617222 
 3318      5D7D0D0A 
 3318      00
 3319 00c2 0000     		.align	2
 3320              	.LC89:
 3321 00c4 6E6F726D 		.ascii	"normal\000"
 3321      616C00
 3322 00cb 00       		.align	2
 3323              	.LC90:
 3324 00cc 6D7600   		.ascii	"mv\000"
 3325 00cf 00       		.align	2
 3326              	.LC91:
 3327 00d0 73657400 		.ascii	"set\000"
 3328              		.align	2
 3329              	.LC92:
 3330 00d4 63656C6C 		.ascii	"cell\000"
 3330      00
 3331 00d9 000000   		.align	2
 3332              	.LC93:
 3333 00dc 6F7600   		.ascii	"ov\000"
 3334 00df 00       		.align	2
 3335              	.LC94:
 3336 00e0 6F766572 		.ascii	"over_voltage\000"
 3336      5F766F6C 
 3336      74616765 
 3336      00
 3337 00ed 000000   		.align	2
 3338              	.LC95:
 3339 00f0 64757261 		.ascii	"duration_ms\000"
 3339      74696F6E 
 3339      5F6D7300 
ARM GAS  C:\Users\hh\AppData\Local\Temp\ccntMbQq.s 			page 97


 3340              		.align	2
 3341              	.LC96:
 3342 00fc 736C6577 		.ascii	"slew_mv_per_ms\000"
 3342      5F6D765F 
 3342      7065725F 
 3342      6D7300
 3343 010b 00       		.align	2
 3344              	.LC97:
 3345 010c 757600   		.ascii	"uv\000"
 3346 010f 00       		.align	2
 3347              	.LC98:
 3348 0110 756E6465 		.ascii	"under_voltage\000"
 3348      725F766F 
 3348      6C746167 
 3348      6500
 3349 011e 0000     		.align	2
 3350              	.LC99:
 3351 0120 64696666 		.ascii	"diff\000"
 3351      00
 3352 0125 000000   		.align	2
 3353              	.LC100:
 3354 0128 68696768 		.ascii	"high_cell\000"
 3354      5F63656C 
 3354      6C00
 3355 0132 0000     		.align	2
 3356              	.LC101:
 3357 0134 68696768 		.ascii	"high_mv\000"
 3357      5F6D7600 
 3358              		.align	2
 3359              	.LC102:
 3360 013c 6C6F775F 		.ascii	"low_cell\000"
 3360      63656C6C 
 3360      00
 3361 0145 000000   		.align	2
 3362              	.LC103:
 3363 0148 6C6F775F 		.ascii	"low_mv\000"
 3363      6D7600
 3364 014f 00       		.align	2
 3365              	.LC104:
 3366 0150 77617665 		.ascii	"wave\000"
 3366      00
 3367 0155 000000   		.align	2
 3368              	.LC105:
 3369 0158 74797065 		.ascii	"type\000"
 3369      00
 3370 015d 000000   		.align	2
 3371              	.LC106:
 3372 0160 73746F70 		.ascii	"stop\000"
 3372      00
 3373 0165 000000   		.align	2
 3374              	.LC107:
 3375 0168 73717561 		.ascii	"square\000"
 3375      726500
 3376 016f 00       		.align	2
 3377              	.LC108:
 3378 0170 70657269 		.ascii	"period_ms\000"
 3378      6F645F6D 
ARM GAS  C:\Users\hh\AppData\Local\Temp\ccntMbQq.s 			page 98


 3378      7300
 3379 017a 0000     		.align	2
 3380              	.LC109:
 3381 017c 73696E65 		.ascii	"sine\000"
 3381      00
 3382 0181 000000   		.align	2
 3383              	.LC110:
 3384 0184 6F666673 		.ascii	"offset_mv\000"
 3384      65745F6D 
 3384      7600
 3385 018e 0000     		.align	2
 3386              	.LC111:
 3387 0190 616D706C 		.ascii	"amplitude_mv\000"
 3387      69747564 
 3387      655F6D76 
 3387      00
 3388 019d 000000   		.align	2
 3389              	.LC112:
 3390 01a0 73696E65 		.ascii	"sine_all\000"
 3390      5F616C6C 
 3390      00
 3391 01a9 000000   		.align	2
 3392              	.LC113:
 3393 01ac 68696768 		.ascii	"high\000"
 3393      00
 3394 01b1 000000   		.align	2
 3395              	.LC114:
 3396 01b4 66726571 		.ascii	"freq_hz\000"
 3396      5F687A00 
 3397              		.align	2
 3398              	.LC115:
 3399 01bc 706F696E 		.ascii	"points\000"
 3399      747300
 3400 01c3 00       		.align	2
 3401              	.LC116:
 3402 01c4 77617665 		.ascii	"wave_stop\000"
 3402      5F73746F 
 3402      7000
 3403 01ce 0000     		.align	2
 3404              	.LC117:
 3405 01d0 63616C00 		.ascii	"cal\000"
 3406              		.align	2
 3407              	.LC118:
 3408 01d4 61637469 		.ascii	"action\000"
 3408      6F6E00
 3409 01db 00       		.align	2
 3410              	.LC119:
 3411 01dc 7B226F6B 		.ascii	"{\"ok\":true,\"calibration\":[\000"
 3411      223A7472 
 3411      75652C22 
 3411      63616C69 
 3411      62726174 
 3412 01f7 00       		.align	2
 3413              	.LC120:
 3414 01f8 25737B22 		.ascii	"%s{\"cell\":%u,\"offset_mv\":%d}\000"
 3414      63656C6C 
 3414      223A2575 
ARM GAS  C:\Users\hh\AppData\Local\Temp\ccntMbQq.s 			page 99


 3414      2C226F66 
 3414      66736574 
 3415 0215 000000   		.align	2
 3416              	.LC121:
 3417 0218 7472696D 		.ascii	"trim\000"
 3417      00
 3418 021d 000000   		.align	2
 3419              	.LC122:
 3420 0220 74617267 		.ascii	"target_mv\000"
 3420      65745F6D 
 3420      7600
 3421 022a 0000     		.align	2
 3422              	.LC123:
 3423 022c 6D656173 		.ascii	"measured_mv\000"
 3423      75726564 
 3423      5F6D7600 
 3424              		.align	2
 3425              	.LC124:
 3426 0238 636C6561 		.ascii	"clear\000"
 3426      7200
 3427 023e 0000     		.align	2
 3428              	.LC125:
 3429 0240 74657374 		.ascii	"test\000"
 3429      00
 3430 0245 000000   		.align	2
 3431              	.LC126:
 3432 0248 73746174 		.ascii	"static\000"
 3432      696300
 3433 024f 00       		.align	2
 3434              	.LC127:
 3435 0250 736C6577 		.ascii	"slew\000"
 3435      00
 3436 0255 000000   		.align	2
 3437              	.LC128:
 3438 0258 63616E00 		.ascii	"can\000"
 3439              		.align	2
 3440              	.LC129:
 3441 025c 73656E64 		.ascii	"send\000"
 3441      00
 3442 0261 000000   		.align	2
 3443              	.LC130:
 3444 0264 696400   		.ascii	"id\000"
 3445 0267 00       		.align	2
 3446              	.LC131:
 3447 0268 6C656E00 		.ascii	"len\000"
 3448              		.align	2
 3449              	.LC132:
 3450 026c 65787465 		.ascii	"extended\000"
 3450      6E646564 
 3450      00
 3451 0275 000000   		.align	2
 3452              	.LC133:
 3453 0278 64257500 		.ascii	"d%u\000"
 3454              		.align	2
 3455              	.LC134:
 3456 027c 6C6F6700 		.ascii	"log\000"
 3457              		.align	2
ARM GAS  C:\Users\hh\AppData\Local\Temp\ccntMbQq.s 			page 100


 3458              	.LC135:
 3459 0280 66696C74 		.ascii	"filter\000"
 3459      657200
 3460 0287 00       		.align	2
 3461              	.LC136:
 3462 0288 6F666600 		.ascii	"off\000"
 3463              		.align	2
 3464              	.LC137:
 3465 028c 6D61736B 		.ascii	"mask\000"
 3465      00
 3466 0291 000000   		.align	2
 3467              	.LC138:
 3468 0294 64617461 		.ascii	"data\000"
 3468      00
 3469 0299 000000   		.align	2
 3470              	.LC139:
 3471 029c 696E6465 		.ascii	"index\000"
 3471      7800
 3472 02a2 0000     		.align	2
 3473              	.LC140:
 3474 02a4 76616C75 		.ascii	"value\000"
 3474      6500
 3475 02aa 0000     		.align	2
 3476              	.LC141:
 3477 02ac 64617461 		.ascii	"data_clear\000"
 3477      5F636C65 
 3477      617200
 3478 02b7 00       		.align	2
 3479              	.LC142:
 3480 02b8 73616665 		.ascii	"safe\000"
 3480      00
 3481 02bd 000000   		.align	2
 3482              	.LC143:
 3483 02c0 656D6572 		.ascii	"emergency_stop\000"
 3483      67656E63 
 3483      795F7374 
 3483      6F7000
 3484 02cf 00       		.align	2
 3485              	.LC144:
 3486 02d0 72656C65 		.ascii	"release\000"
 3486      61736500 
 3487              		.align	2
 3488              	.LC145:
 3489 02d8 7372616D 		.ascii	"sram\000"
 3489      00
 3490 02dd 000000   		.align	2
 3491              	.LC146:
 3492 02e0 62797465 		.ascii	"bytes\000"
 3492      7300
 3493 02e6 0000     		.align	2
 3494              	.LC147:
 3495 02e8 7B226F6B 		.ascii	"{\"ok\":false,\"error\":\"unknown_cmd\"}\015\012\000"
 3495      223A6661 
 3495      6C73652C 
 3495      22657272 
 3495      6F72223A 
 3496              		.section	.text.FaultCommand_ExecuteJson,"ax",%progbits
ARM GAS  C:\Users\hh\AppData\Local\Temp\ccntMbQq.s 			page 101


 3497              		.align	1
 3498              		.syntax unified
 3499              		.thumb
 3500              		.thumb_func
 3502              	FaultCommand_ExecuteJson:
 3503              	.LVL284:
 3504              	.LFB183:
1277:App/Src/fault_command.c **** 
1278:App/Src/fault_command.c **** static void FaultCommand_ExecuteJson(const char *json, FaultCommand_WriteFn write, void *context)
1279:App/Src/fault_command.c **** {
 3505              		.loc 1 1279 1 is_stmt 1 view -0
 3506              		.cfi_startproc
 3507              		@ args = 0, pretend = 0, frame = 104
 3508              		@ frame_needed = 0, uses_anonymous_args = 0
 3509              		.loc 1 1279 1 is_stmt 0 view .LVU622
 3510 0000 2DE9F041 		push	{r4, r5, r6, r7, r8, lr}
 3511              	.LCFI78:
 3512              		.cfi_def_cfa_offset 24
 3513              		.cfi_offset 4, -24
 3514              		.cfi_offset 5, -20
 3515              		.cfi_offset 6, -16
 3516              		.cfi_offset 7, -12
 3517              		.cfi_offset 8, -8
 3518              		.cfi_offset 14, -4
 3519 0004 9CB0     		sub	sp, sp, #112
 3520              	.LCFI79:
 3521              		.cfi_def_cfa_offset 136
 3522 0006 0446     		mov	r4, r0
 3523 0008 0E46     		mov	r6, r1
 3524 000a 1746     		mov	r7, r2
1280:App/Src/fault_command.c ****   char cmd[16];
 3525              		.loc 1 1280 3 is_stmt 1 view .LVU623
1281:App/Src/fault_command.c ****   char type[16];
 3526              		.loc 1 1281 3 view .LVU624
1282:App/Src/fault_command.c ****   uint32_t cell;
 3527              		.loc 1 1282 3 view .LVU625
1283:App/Src/fault_command.c ****   uint32_t mv;
 3528              		.loc 1 1283 3 view .LVU626
1284:App/Src/fault_command.c ****   uint32_t duration;
 3529              		.loc 1 1284 3 view .LVU627
1285:App/Src/fault_command.c ****   uint32_t slew;
 3530              		.loc 1 1285 3 view .LVU628
1286:App/Src/fault_command.c ****   HAL_StatusTypeDef status = HAL_ERROR;
 3531              		.loc 1 1286 3 view .LVU629
 3532              	.LVL285:
1287:App/Src/fault_command.c **** 
1288:App/Src/fault_command.c ****   if (FaultCommand_JsonGetString(json, "cmd", cmd, sizeof(cmd)) == 0U)
 3533              		.loc 1 1288 3 view .LVU630
 3534              		.loc 1 1288 7 is_stmt 0 view .LVU631
 3535 000c 1023     		movs	r3, #16
 3536 000e 18AA     		add	r2, sp, #96
 3537              	.LVL286:
 3538              		.loc 1 1288 7 view .LVU632
 3539 0010 A349     		ldr	r1, .L401
 3540              	.LVL287:
 3541              		.loc 1 1288 7 view .LVU633
 3542 0012 FFF7FEFF 		bl	FaultCommand_JsonGetString
ARM GAS  C:\Users\hh\AppData\Local\Temp\ccntMbQq.s 			page 102


 3543              	.LVL288:
 3544              		.loc 1 1288 6 discriminator 1 view .LVU634
 3545 0016 0028     		cmp	r0, #0
 3546 0018 2AD0     		beq	.L319
1289:App/Src/fault_command.c ****   {
1290:App/Src/fault_command.c ****     FaultCommand_Write(write, context, "{\"ok\":false,\"error\":\"missing_cmd\"}\r\n");
1291:App/Src/fault_command.c ****     return;
1292:App/Src/fault_command.c ****   }
1293:App/Src/fault_command.c **** 
1294:App/Src/fault_command.c ****   if (strcmp(cmd, "status") == 0)
 3547              		.loc 1 1294 3 is_stmt 1 view .LVU635
 3548              		.loc 1 1294 7 is_stmt 0 view .LVU636
 3549 001a A249     		ldr	r1, .L401+4
 3550 001c 18A8     		add	r0, sp, #96
 3551 001e FFF7FEFF 		bl	strcmp
 3552              	.LVL289:
 3553              		.loc 1 1294 6 discriminator 1 view .LVU637
 3554 0022 0028     		cmp	r0, #0
 3555 0024 2AD0     		beq	.L320
1295:App/Src/fault_command.c ****   {
1296:App/Src/fault_command.c ****     FaultCommand_WriteJsonStatus(write, context);
1297:App/Src/fault_command.c ****     return;
1298:App/Src/fault_command.c ****   }
1299:App/Src/fault_command.c **** 
1300:App/Src/fault_command.c ****   if (strcmp(cmd, "help") == 0)
 3556              		.loc 1 1300 3 is_stmt 1 view .LVU638
 3557              		.loc 1 1300 7 is_stmt 0 view .LVU639
 3558 0026 A049     		ldr	r1, .L401+8
 3559 0028 18A8     		add	r0, sp, #96
 3560 002a FFF7FEFF 		bl	strcmp
 3561              	.LVL290:
 3562              		.loc 1 1300 6 discriminator 1 view .LVU640
 3563 002e 50B3     		cbz	r0, .L321
1301:App/Src/fault_command.c ****   {
1302:App/Src/fault_command.c ****     FaultCommand_Write(write,
1303:App/Src/fault_command.c ****                        context,
1304:App/Src/fault_command.c ****                        "{\"ok\":true,\"commands\":[\"status\",\"normal\",\"set\",\"ov\",\"uv\",\"di
1305:App/Src/fault_command.c ****     return;
1306:App/Src/fault_command.c ****   }
1307:App/Src/fault_command.c **** 
1308:App/Src/fault_command.c ****   if (strcmp(cmd, "normal") == 0)
 3564              		.loc 1 1308 3 is_stmt 1 view .LVU641
 3565              		.loc 1 1308 7 is_stmt 0 view .LVU642
 3566 0030 9E49     		ldr	r1, .L401+12
 3567 0032 18A8     		add	r0, sp, #96
 3568 0034 FFF7FEFF 		bl	strcmp
 3569              	.LVL291:
 3570              		.loc 1 1308 6 discriminator 1 view .LVU643
 3571 0038 58B3     		cbz	r0, .L322
1309:App/Src/fault_command.c ****   {
1310:App/Src/fault_command.c ****     mv = FaultCommand_JsonGetUintDefault(json, "mv", VOLTAGE_SIM_DEFAULT_NORMAL_MV);
1311:App/Src/fault_command.c ****     status = FaultCommand_RunNormal((uint16_t)mv);
1312:App/Src/fault_command.c ****   }
1313:App/Src/fault_command.c ****   else if (strcmp(cmd, "set") == 0)
 3572              		.loc 1 1313 8 is_stmt 1 view .LVU644
 3573              		.loc 1 1313 12 is_stmt 0 view .LVU645
 3574 003a 9D49     		ldr	r1, .L401+16
ARM GAS  C:\Users\hh\AppData\Local\Temp\ccntMbQq.s 			page 103


 3575 003c 18A8     		add	r0, sp, #96
 3576 003e FFF7FEFF 		bl	strcmp
 3577              	.LVL292:
 3578              		.loc 1 1313 11 discriminator 1 view .LVU646
 3579 0042 0028     		cmp	r0, #0
 3580 0044 39D0     		beq	.L323
1314:App/Src/fault_command.c ****   {
1315:App/Src/fault_command.c ****     if ((FaultCommand_JsonGetUint(json, "cell", &cell) != 0U) &&
1316:App/Src/fault_command.c ****         (FaultCommand_JsonGetUint(json, "mv", &mv) != 0U))
1317:App/Src/fault_command.c ****     {
1318:App/Src/fault_command.c ****       status = FaultCommand_RunSet((uint8_t)cell, (uint16_t)mv);
1319:App/Src/fault_command.c ****     }
1320:App/Src/fault_command.c ****   }
1321:App/Src/fault_command.c ****   else if ((strcmp(cmd, "ov") == 0) || (strcmp(cmd, "over_voltage") == 0))
 3581              		.loc 1 1321 8 is_stmt 1 view .LVU647
 3582              		.loc 1 1321 13 is_stmt 0 view .LVU648
 3583 0046 9B49     		ldr	r1, .L401+20
 3584 0048 18A8     		add	r0, sp, #96
 3585 004a FFF7FEFF 		bl	strcmp
 3586              	.LVL293:
 3587              		.loc 1 1321 11 discriminator 1 view .LVU649
 3588 004e 28B1     		cbz	r0, .L198
 3589              		.loc 1 1321 41 discriminator 2 view .LVU650
 3590 0050 9949     		ldr	r1, .L401+24
 3591 0052 18A8     		add	r0, sp, #96
 3592 0054 FFF7FEFF 		bl	strcmp
 3593              	.LVL294:
 3594              		.loc 1 1321 37 discriminator 3 view .LVU651
 3595 0058 0028     		cmp	r0, #0
 3596 005a 65D1     		bne	.L199
 3597              	.L198:
1322:App/Src/fault_command.c ****   {
1323:App/Src/fault_command.c ****     if (FaultCommand_JsonGetUint(json, "cell", &cell) != 0U)
 3598              		.loc 1 1323 5 is_stmt 1 view .LVU652
 3599              		.loc 1 1323 9 is_stmt 0 view .LVU653
 3600 005c 13AA     		add	r2, sp, #76
 3601 005e 9749     		ldr	r1, .L401+28
 3602 0060 2046     		mov	r0, r4
 3603 0062 FFF7FEFF 		bl	FaultCommand_JsonGetUint
 3604              	.LVL295:
 3605              		.loc 1 1323 8 discriminator 1 view .LVU654
 3606 0066 0028     		cmp	r0, #0
 3607 0068 41D1     		bne	.L324
1286:App/Src/fault_command.c **** 
 3608              		.loc 1 1286 21 view .LVU655
 3609 006a 0123     		movs	r3, #1
 3610 006c 1C46     		mov	r4, r3
 3611              	.LVL296:
1286:App/Src/fault_command.c **** 
 3612              		.loc 1 1286 21 view .LVU656
 3613 006e 1BE0     		b	.L196
 3614              	.LVL297:
 3615              	.L319:
1290:App/Src/fault_command.c ****     return;
 3616              		.loc 1 1290 5 is_stmt 1 view .LVU657
 3617 0070 934A     		ldr	r2, .L401+32
 3618 0072 3946     		mov	r1, r7
ARM GAS  C:\Users\hh\AppData\Local\Temp\ccntMbQq.s 			page 104


 3619 0074 3046     		mov	r0, r6
 3620 0076 FFF7FEFF 		bl	FaultCommand_Write
 3621              	.LVL298:
1291:App/Src/fault_command.c ****   }
 3622              		.loc 1 1291 5 view .LVU658
 3623 007a 1BE0     		b	.L190
 3624              	.L320:
1296:App/Src/fault_command.c ****     return;
 3625              		.loc 1 1296 5 view .LVU659
 3626 007c 3946     		mov	r1, r7
 3627 007e 3046     		mov	r0, r6
 3628 0080 FFF7FEFF 		bl	FaultCommand_WriteJsonStatus
 3629              	.LVL299:
1297:App/Src/fault_command.c ****   }
 3630              		.loc 1 1297 5 view .LVU660
 3631 0084 16E0     		b	.L190
 3632              	.L321:
1302:App/Src/fault_command.c ****                        context,
 3633              		.loc 1 1302 5 view .LVU661
 3634 0086 8F4A     		ldr	r2, .L401+36
 3635 0088 3946     		mov	r1, r7
 3636 008a 3046     		mov	r0, r6
 3637 008c FFF7FEFF 		bl	FaultCommand_Write
 3638              	.LVL300:
1305:App/Src/fault_command.c ****   }
 3639              		.loc 1 1305 5 view .LVU662
 3640 0090 10E0     		b	.L190
 3641              	.L322:
1310:App/Src/fault_command.c ****     status = FaultCommand_RunNormal((uint16_t)mv);
 3642              		.loc 1 1310 5 view .LVU663
1310:App/Src/fault_command.c ****     status = FaultCommand_RunNormal((uint16_t)mv);
 3643              		.loc 1 1310 10 is_stmt 0 view .LVU664
 3644 0092 4FF44862 		mov	r2, #3200
 3645 0096 8C49     		ldr	r1, .L401+40
 3646 0098 2046     		mov	r0, r4
 3647 009a FFF7FEFF 		bl	FaultCommand_JsonGetUintDefault
 3648              	.LVL301:
1310:App/Src/fault_command.c ****     status = FaultCommand_RunNormal((uint16_t)mv);
 3649              		.loc 1 1310 8 discriminator 1 view .LVU665
 3650 009e 1290     		str	r0, [sp, #72]
1311:App/Src/fault_command.c ****   }
 3651              		.loc 1 1311 5 is_stmt 1 view .LVU666
1311:App/Src/fault_command.c ****   }
 3652              		.loc 1 1311 14 is_stmt 0 view .LVU667
 3653 00a0 80B2     		uxth	r0, r0
 3654 00a2 FFF7FEFF 		bl	FaultCommand_RunNormal
 3655              	.LVL302:
 3656 00a6 0446     		mov	r4, r0
 3657              	.LVL303:
 3658              	.L196:
1324:App/Src/fault_command.c ****     {
1325:App/Src/fault_command.c ****       mv = FaultCommand_JsonGetUintDefault(json, "mv", VOLTAGE_SIM_DEFAULT_OV_MV);
1326:App/Src/fault_command.c ****       duration = FaultCommand_JsonGetUintDefault(json, "duration_ms", FAULT_COMMAND_DEFAULT_DURATIO
1327:App/Src/fault_command.c ****       slew = FaultCommand_JsonGetUintDefault(json, "slew_mv_per_ms", FAULT_COMMAND_DEFAULT_SLEW_MV_
1328:App/Src/fault_command.c ****       status = FaultCommand_RunOverVoltage((uint8_t)cell, (uint16_t)mv, duration, (uint16_t)slew);
1329:App/Src/fault_command.c ****     }
1330:App/Src/fault_command.c ****   }
ARM GAS  C:\Users\hh\AppData\Local\Temp\ccntMbQq.s 			page 105


1331:App/Src/fault_command.c ****   else if ((strcmp(cmd, "uv") == 0) || (strcmp(cmd, "under_voltage") == 0))
1332:App/Src/fault_command.c ****   {
1333:App/Src/fault_command.c ****     if (FaultCommand_JsonGetUint(json, "cell", &cell) != 0U)
1334:App/Src/fault_command.c ****     {
1335:App/Src/fault_command.c ****       mv = FaultCommand_JsonGetUintDefault(json, "mv", VOLTAGE_SIM_DEFAULT_UV_MV);
1336:App/Src/fault_command.c ****       duration = FaultCommand_JsonGetUintDefault(json, "duration_ms", FAULT_COMMAND_DEFAULT_DURATIO
1337:App/Src/fault_command.c ****       slew = FaultCommand_JsonGetUintDefault(json, "slew_mv_per_ms", FAULT_COMMAND_DEFAULT_SLEW_MV_
1338:App/Src/fault_command.c ****       status = FaultCommand_RunUnderVoltage((uint8_t)cell, (uint16_t)mv, duration, (uint16_t)slew);
1339:App/Src/fault_command.c ****     }
1340:App/Src/fault_command.c ****   }
1341:App/Src/fault_command.c ****   else if (strcmp(cmd, "diff") == 0)
1342:App/Src/fault_command.c ****   {
1343:App/Src/fault_command.c ****     uint32_t highCell;
1344:App/Src/fault_command.c ****     uint32_t highMv;
1345:App/Src/fault_command.c ****     uint32_t lowCell;
1346:App/Src/fault_command.c ****     uint32_t lowMv;
1347:App/Src/fault_command.c **** 
1348:App/Src/fault_command.c ****     if ((FaultCommand_JsonGetUint(json, "high_cell", &highCell) != 0U) &&
1349:App/Src/fault_command.c ****         (FaultCommand_JsonGetUint(json, "high_mv", &highMv) != 0U) &&
1350:App/Src/fault_command.c ****         (FaultCommand_JsonGetUint(json, "low_cell", &lowCell) != 0U) &&
1351:App/Src/fault_command.c ****         (FaultCommand_JsonGetUint(json, "low_mv", &lowMv) != 0U))
1352:App/Src/fault_command.c ****     {
1353:App/Src/fault_command.c ****       duration = FaultCommand_JsonGetUintDefault(json, "duration_ms", FAULT_COMMAND_DEFAULT_DURATIO
1354:App/Src/fault_command.c ****       slew = FaultCommand_JsonGetUintDefault(json, "slew_mv_per_ms", FAULT_COMMAND_DEFAULT_SLEW_MV_
1355:App/Src/fault_command.c ****       status = FaultCommand_RunDiff((uint8_t)highCell,
1356:App/Src/fault_command.c ****                                     (uint16_t)highMv,
1357:App/Src/fault_command.c ****                                     (uint8_t)lowCell,
1358:App/Src/fault_command.c ****                                     (uint16_t)lowMv,
1359:App/Src/fault_command.c ****                                     duration,
1360:App/Src/fault_command.c ****                                     (uint16_t)slew);
1361:App/Src/fault_command.c ****     }
1362:App/Src/fault_command.c ****   }
1363:App/Src/fault_command.c ****   else if (strcmp(cmd, "wave") == 0)
1364:App/Src/fault_command.c ****   {
1365:App/Src/fault_command.c ****     if (FaultCommand_JsonGetString(json, "type", type, sizeof(type)) != 0U)
1366:App/Src/fault_command.c ****     {
1367:App/Src/fault_command.c ****       if ((strcmp(type, "stop") != 0) && (DacSafety_IsOutputAllowed() == 0U))
1368:App/Src/fault_command.c ****       {
1369:App/Src/fault_command.c ****         status = HAL_BUSY;
1370:App/Src/fault_command.c ****       }
1371:App/Src/fault_command.c ****       else if (strcmp(type, "square") == 0)
1372:App/Src/fault_command.c ****       {
1373:App/Src/fault_command.c ****         uint32_t low;
1374:App/Src/fault_command.c ****         uint32_t high;
1375:App/Src/fault_command.c ****         uint32_t period;
1376:App/Src/fault_command.c **** 
1377:App/Src/fault_command.c ****         if ((FaultCommand_JsonGetUint(json, "cell", &cell) != 0U) &&
1378:App/Src/fault_command.c ****             (FaultCommand_JsonGetUint(json, "low_mv", &low) != 0U) &&
1379:App/Src/fault_command.c ****             (FaultCommand_JsonGetUint(json, "high_mv", &high) != 0U))
1380:App/Src/fault_command.c ****         {
1381:App/Src/fault_command.c ****           period = FaultCommand_JsonGetUintDefault(json, "period_ms", 1000U);
1382:App/Src/fault_command.c ****           WaveformEngine_Stop();
1383:App/Src/fault_command.c ****           status = WaveformGen_StartSquare((uint8_t)cell,
1384:App/Src/fault_command.c ****                                            (uint16_t)low,
1385:App/Src/fault_command.c ****                                            (uint16_t)high,
1386:App/Src/fault_command.c ****                                            period);
1387:App/Src/fault_command.c ****         }
ARM GAS  C:\Users\hh\AppData\Local\Temp\ccntMbQq.s 			page 106


1388:App/Src/fault_command.c ****       }
1389:App/Src/fault_command.c ****       else if (strcmp(type, "sine") == 0)
1390:App/Src/fault_command.c ****       {
1391:App/Src/fault_command.c ****         uint32_t offset;
1392:App/Src/fault_command.c ****         uint32_t amplitude;
1393:App/Src/fault_command.c ****         uint32_t period;
1394:App/Src/fault_command.c **** 
1395:App/Src/fault_command.c ****         if ((FaultCommand_JsonGetUint(json, "cell", &cell) != 0U) &&
1396:App/Src/fault_command.c ****             (FaultCommand_JsonGetUint(json, "offset_mv", &offset) != 0U) &&
1397:App/Src/fault_command.c ****             (FaultCommand_JsonGetUint(json, "amplitude_mv", &amplitude) != 0U))
1398:App/Src/fault_command.c ****         {
1399:App/Src/fault_command.c ****           period = FaultCommand_JsonGetUintDefault(json, "period_ms", 1000U);
1400:App/Src/fault_command.c ****           WaveformEngine_Stop();
1401:App/Src/fault_command.c ****           status = WaveformGen_StartSine((uint8_t)cell,
1402:App/Src/fault_command.c ****                                          (uint16_t)offset,
1403:App/Src/fault_command.c ****                                          (uint16_t)amplitude,
1404:App/Src/fault_command.c ****                                          period);
1405:App/Src/fault_command.c ****         }
1406:App/Src/fault_command.c ****       }
1407:App/Src/fault_command.c ****       else if (strcmp(type, "sine_all") == 0)
1408:App/Src/fault_command.c ****       {
1409:App/Src/fault_command.c ****         uint32_t offset;
1410:App/Src/fault_command.c ****         uint32_t amplitude;
1411:App/Src/fault_command.c ****         uint32_t period;
1412:App/Src/fault_command.c **** 
1413:App/Src/fault_command.c ****         if ((FaultCommand_JsonGetUint(json, "offset_mv", &offset) != 0U) &&
1414:App/Src/fault_command.c ****             (FaultCommand_JsonGetUint(json, "amplitude_mv", &amplitude) != 0U))
1415:App/Src/fault_command.c ****         {
1416:App/Src/fault_command.c ****           period = FaultCommand_JsonGetUintDefault(json, "period_ms", 1000U);
1417:App/Src/fault_command.c ****           WaveformEngine_Stop();
1418:App/Src/fault_command.c ****           status = WaveformGen_StartSineAll((uint16_t)offset,
1419:App/Src/fault_command.c ****                                             (uint16_t)amplitude,
1420:App/Src/fault_command.c ****                                             period);
1421:App/Src/fault_command.c ****         }
1422:App/Src/fault_command.c ****       }
1423:App/Src/fault_command.c ****       else if (strcmp(type, "high") == 0)
1424:App/Src/fault_command.c ****       {
1425:App/Src/fault_command.c ****         uint32_t freq;
1426:App/Src/fault_command.c ****         uint32_t points;
1427:App/Src/fault_command.c ****         uint32_t amplitude;
1428:App/Src/fault_command.c ****         uint32_t offset;
1429:App/Src/fault_command.c ****         WaveformEngine_Config cfg;
1430:App/Src/fault_command.c **** 
1431:App/Src/fault_command.c ****         if ((FaultCommand_JsonGetUint(json, "cell", &cell) != 0U) &&
1432:App/Src/fault_command.c ****             (FaultCommand_JsonGetUint(json, "freq_hz", &freq) != 0U) &&
1433:App/Src/fault_command.c ****             (FaultCommand_JsonGetUint(json, "points", &points) != 0U) &&
1434:App/Src/fault_command.c ****             (FaultCommand_JsonGetUint(json, "amplitude_mv", &amplitude) != 0U) &&
1435:App/Src/fault_command.c ****             (FaultCommand_JsonGetUint(json, "offset_mv", &offset) != 0U))
1436:App/Src/fault_command.c ****         {
1437:App/Src/fault_command.c ****           memset(&cfg, 0, sizeof(cfg));
1438:App/Src/fault_command.c ****           cfg.active = 1U;
1439:App/Src/fault_command.c ****           cfg.channels = 1U;
1440:App/Src/fault_command.c ****           cfg.channelList[0] = (uint8_t)cell;
1441:App/Src/fault_command.c ****           cfg.sampleRate = freq * points;
1442:App/Src/fault_command.c ****           cfg.pointCount = points;
1443:App/Src/fault_command.c ****           cfg.cycleCount = 1U;
1444:App/Src/fault_command.c ****           cfg.amplitudeMv = (uint16_t)amplitude;
ARM GAS  C:\Users\hh\AppData\Local\Temp\ccntMbQq.s 			page 107


1445:App/Src/fault_command.c ****           cfg.offsetMv = (uint16_t)offset;
1446:App/Src/fault_command.c ****           status = WaveformEngine_StartSine(&cfg);
1447:App/Src/fault_command.c ****         }
1448:App/Src/fault_command.c ****       }
1449:App/Src/fault_command.c ****       else if (strcmp(type, "stop") == 0)
1450:App/Src/fault_command.c ****       {
1451:App/Src/fault_command.c ****         FaultCommand_StopAllWaveforms();
1452:App/Src/fault_command.c ****         status = HAL_OK;
1453:App/Src/fault_command.c ****       }
1454:App/Src/fault_command.c ****     }
1455:App/Src/fault_command.c ****   }
1456:App/Src/fault_command.c ****   else if (strcmp(cmd, "wave_stop") == 0)
1457:App/Src/fault_command.c ****   {
1458:App/Src/fault_command.c ****     FaultCommand_StopAllWaveforms();
1459:App/Src/fault_command.c ****     status = HAL_OK;
1460:App/Src/fault_command.c ****   }
1461:App/Src/fault_command.c ****   else if (strcmp(cmd, "cal") == 0)
1462:App/Src/fault_command.c ****   {
1463:App/Src/fault_command.c ****     char action[16];
1464:App/Src/fault_command.c **** 
1465:App/Src/fault_command.c ****     if (FaultCommand_JsonGetString(json, "action", action, sizeof(action)) != 0U)
1466:App/Src/fault_command.c ****     {
1467:App/Src/fault_command.c ****       if (strcmp(action, "status") == 0)
1468:App/Src/fault_command.c ****       {
1469:App/Src/fault_command.c ****         FaultCommand_Write(write, context, "{\"ok\":true,\"calibration\":[");
1470:App/Src/fault_command.c ****         for (uint8_t calCell = 1U; calCell <= VOLTAGE_SIM_CELL_COUNT; calCell++)
1471:App/Src/fault_command.c ****         {
1472:App/Src/fault_command.c ****           FaultCommand_WriteFormat(write,
1473:App/Src/fault_command.c ****                                    context,
1474:App/Src/fault_command.c ****                                    "%s{\"cell\":%u,\"offset_mv\":%d}",
1475:App/Src/fault_command.c ****                                    (calCell == 1U) ? "" : ",",
1476:App/Src/fault_command.c ****                                    calCell,
1477:App/Src/fault_command.c ****                                    (int)VoltageSim_GetCellCalibrationOffsetMv(calCell));
1478:App/Src/fault_command.c ****         }
1479:App/Src/fault_command.c ****         FaultCommand_Write(write, context, "]}\r\n");
1480:App/Src/fault_command.c ****         return;
1481:App/Src/fault_command.c ****       }
1482:App/Src/fault_command.c ****       else if (strcmp(action, "set") == 0)
1483:App/Src/fault_command.c ****       {
1484:App/Src/fault_command.c ****         int32_t signedOffset;
1485:App/Src/fault_command.c **** 
1486:App/Src/fault_command.c ****         if (DacSafety_IsOutputAllowed() == 0U)
1487:App/Src/fault_command.c ****         {
1488:App/Src/fault_command.c ****           status = HAL_BUSY;
1489:App/Src/fault_command.c ****         }
1490:App/Src/fault_command.c ****         else if ((FaultCommand_JsonGetUint(json, "cell", &cell) != 0U) &&
1491:App/Src/fault_command.c ****             (FaultCommand_JsonGetInt(json, "offset_mv", &signedOffset) != 0U))
1492:App/Src/fault_command.c ****         {
1493:App/Src/fault_command.c ****           status = VoltageSim_SetCellCalibrationOffsetMv((uint8_t)cell,
1494:App/Src/fault_command.c ****                                                          (int16_t)signedOffset);
1495:App/Src/fault_command.c ****         }
1496:App/Src/fault_command.c ****       }
1497:App/Src/fault_command.c ****       else if (strcmp(action, "trim") == 0)
1498:App/Src/fault_command.c ****       {
1499:App/Src/fault_command.c ****         uint32_t targetMv;
1500:App/Src/fault_command.c ****         uint32_t measuredMv;
1501:App/Src/fault_command.c **** 
ARM GAS  C:\Users\hh\AppData\Local\Temp\ccntMbQq.s 			page 108


1502:App/Src/fault_command.c ****         if (DacSafety_IsOutputAllowed() == 0U)
1503:App/Src/fault_command.c ****         {
1504:App/Src/fault_command.c ****           status = HAL_BUSY;
1505:App/Src/fault_command.c ****         }
1506:App/Src/fault_command.c ****         else if ((FaultCommand_JsonGetUint(json, "cell", &cell) != 0U) &&
1507:App/Src/fault_command.c ****             (FaultCommand_JsonGetUint(json, "target_mv", &targetMv) != 0U) &&
1508:App/Src/fault_command.c ****             (FaultCommand_JsonGetUint(json, "measured_mv", &measuredMv) != 0U))
1509:App/Src/fault_command.c ****         {
1510:App/Src/fault_command.c ****           status = FaultCommand_RunCalibrationTrim((uint8_t)cell,
1511:App/Src/fault_command.c ****                                                   (uint16_t)targetMv,
1512:App/Src/fault_command.c ****                                                   (uint16_t)measuredMv);
1513:App/Src/fault_command.c ****         }
1514:App/Src/fault_command.c ****       }
1515:App/Src/fault_command.c ****       else if (strcmp(action, "clear") == 0)
1516:App/Src/fault_command.c ****       {
1517:App/Src/fault_command.c ****         if (DacSafety_IsOutputAllowed() == 0U)
1518:App/Src/fault_command.c ****         {
1519:App/Src/fault_command.c ****           status = HAL_BUSY;
1520:App/Src/fault_command.c ****         }
1521:App/Src/fault_command.c ****         else if (FaultCommand_JsonGetUint(json, "cell", &cell) != 0U)
1522:App/Src/fault_command.c ****         {
1523:App/Src/fault_command.c ****           status = VoltageSim_ClearCellCalibrationOffset((uint8_t)cell);
1524:App/Src/fault_command.c ****         }
1525:App/Src/fault_command.c ****         else
1526:App/Src/fault_command.c ****         {
1527:App/Src/fault_command.c ****           VoltageSim_ClearAllCalibrationOffsets();
1528:App/Src/fault_command.c ****           status = HAL_OK;
1529:App/Src/fault_command.c ****         }
1530:App/Src/fault_command.c ****       }
1531:App/Src/fault_command.c ****     }
1532:App/Src/fault_command.c ****   }
1533:App/Src/fault_command.c ****   else if (strcmp(cmd, "test") == 0)
1534:App/Src/fault_command.c ****   {
1535:App/Src/fault_command.c ****     if (FaultCommand_JsonGetString(json, "type", type, sizeof(type)) != 0U)
1536:App/Src/fault_command.c ****     {
1537:App/Src/fault_command.c ****       if (strcmp(type, "static") == 0)
1538:App/Src/fault_command.c ****       {
1539:App/Src/fault_command.c ****         if (FaultCommand_JsonGetUint(json, "mv", &mv) != 0U)
1540:App/Src/fault_command.c ****         {
1541:App/Src/fault_command.c ****           status = FaultCommand_RunNormal((uint16_t)mv);
1542:App/Src/fault_command.c ****         }
1543:App/Src/fault_command.c ****       }
1544:App/Src/fault_command.c ****       else if (strcmp(type, "slew") == 0)
1545:App/Src/fault_command.c ****       {
1546:App/Src/fault_command.c ****         uint32_t low;
1547:App/Src/fault_command.c ****         uint32_t high;
1548:App/Src/fault_command.c ****         uint32_t period;
1549:App/Src/fault_command.c **** 
1550:App/Src/fault_command.c ****         if (DacSafety_IsOutputAllowed() == 0U)
1551:App/Src/fault_command.c ****         {
1552:App/Src/fault_command.c ****           status = HAL_BUSY;
1553:App/Src/fault_command.c ****         }
1554:App/Src/fault_command.c ****         else if ((FaultCommand_JsonGetUint(json, "cell", &cell) != 0U) &&
1555:App/Src/fault_command.c ****             (FaultCommand_JsonGetUint(json, "low_mv", &low) != 0U) &&
1556:App/Src/fault_command.c ****             (FaultCommand_JsonGetUint(json, "high_mv", &high) != 0U))
1557:App/Src/fault_command.c ****         {
1558:App/Src/fault_command.c ****           period = FaultCommand_JsonGetUintDefault(json, "period_ms", 1000U);
ARM GAS  C:\Users\hh\AppData\Local\Temp\ccntMbQq.s 			page 109


1559:App/Src/fault_command.c ****           status = WaveformGen_StartSquare((uint8_t)cell,
1560:App/Src/fault_command.c ****                                            (uint16_t)low,
1561:App/Src/fault_command.c ****                                            (uint16_t)high,
1562:App/Src/fault_command.c ****                                            period);
1563:App/Src/fault_command.c ****         }
1564:App/Src/fault_command.c ****       }
1565:App/Src/fault_command.c ****     }
1566:App/Src/fault_command.c ****   }
1567:App/Src/fault_command.c ****   else if (strcmp(cmd, "can") == 0)
1568:App/Src/fault_command.c ****   {
1569:App/Src/fault_command.c ****     char action[16];
1570:App/Src/fault_command.c **** 
1571:App/Src/fault_command.c ****     if (FaultCommand_JsonGetString(json, "action", action, sizeof(action)) != 0U)
1572:App/Src/fault_command.c ****     {
1573:App/Src/fault_command.c ****       if (strcmp(action, "status") == 0)
1574:App/Src/fault_command.c ****       {
1575:App/Src/fault_command.c ****         FaultCommand_WriteJsonCanStatus(write, context);
1576:App/Src/fault_command.c ****         return;
1577:App/Src/fault_command.c ****       }
1578:App/Src/fault_command.c ****       else if (strcmp(action, "send") == 0)
1579:App/Src/fault_command.c ****       {
1580:App/Src/fault_command.c ****         uint32_t id;
1581:App/Src/fault_command.c ****         uint32_t length;
1582:App/Src/fault_command.c ****         uint32_t extended;
1583:App/Src/fault_command.c ****         uint8_t data[BSP_CAN_MAX_DATA_LEN] = {0};
1584:App/Src/fault_command.c **** 
1585:App/Src/fault_command.c ****         if ((FaultCommand_JsonGetUint(json, "id", &id) != 0U) &&
1586:App/Src/fault_command.c ****             (FaultCommand_JsonGetUint(json, "len", &length) != 0U) &&
1587:App/Src/fault_command.c ****             (length <= BSP_CAN_MAX_DATA_LEN))
1588:App/Src/fault_command.c ****         {
1589:App/Src/fault_command.c ****           extended = FaultCommand_JsonGetUintDefault(json, "extended", 0U);
1590:App/Src/fault_command.c ****           status = HAL_OK;
1591:App/Src/fault_command.c **** 
1592:App/Src/fault_command.c ****           for (uint8_t index = 0U; index < length; index++)
1593:App/Src/fault_command.c ****           {
1594:App/Src/fault_command.c ****             char key[8];
1595:App/Src/fault_command.c ****             uint32_t value;
1596:App/Src/fault_command.c **** 
1597:App/Src/fault_command.c ****             (void)snprintf(key, sizeof(key), "d%u", index);
1598:App/Src/fault_command.c ****             if ((FaultCommand_JsonGetUint(json, key, &value) == 0U) || (value > 0xFFU))
1599:App/Src/fault_command.c ****             {
1600:App/Src/fault_command.c ****               status = HAL_ERROR;
1601:App/Src/fault_command.c ****               break;
1602:App/Src/fault_command.c ****             }
1603:App/Src/fault_command.c ****             data[index] = (uint8_t)value;
1604:App/Src/fault_command.c ****           }
1605:App/Src/fault_command.c **** 
1606:App/Src/fault_command.c ****           if (status == HAL_OK)
1607:App/Src/fault_command.c ****           {
1608:App/Src/fault_command.c ****             status = BspCan_SendClassic(id, (extended != 0U) ? 1U : 0U, data, (uint8_t)length);
1609:App/Src/fault_command.c ****           }
1610:App/Src/fault_command.c ****         }
1611:App/Src/fault_command.c ****       }
1612:App/Src/fault_command.c ****     }
1613:App/Src/fault_command.c ****   }
1614:App/Src/fault_command.c ****   else if (strcmp(cmd, "log") == 0)
1615:App/Src/fault_command.c ****   {
ARM GAS  C:\Users\hh\AppData\Local\Temp\ccntMbQq.s 			page 110


1616:App/Src/fault_command.c ****     char action[16];
1617:App/Src/fault_command.c **** 
1618:App/Src/fault_command.c ****     if (FaultCommand_JsonGetString(json, "action", action, sizeof(action)) != 0U)
1619:App/Src/fault_command.c ****     {
1620:App/Src/fault_command.c ****       if (strcmp(action, "status") == 0)
1621:App/Src/fault_command.c ****       {
1622:App/Src/fault_command.c ****         FaultCommand_WriteJsonBmsResponseLog(write, context);
1623:App/Src/fault_command.c ****         return;
1624:App/Src/fault_command.c ****       }
1625:App/Src/fault_command.c ****       else if (strcmp(action, "clear") == 0)
1626:App/Src/fault_command.c ****       {
1627:App/Src/fault_command.c ****         BmsResponseLog_Clear();
1628:App/Src/fault_command.c ****         status = HAL_OK;
1629:App/Src/fault_command.c ****       }
1630:App/Src/fault_command.c ****       else if (strcmp(action, "filter") == 0)
1631:App/Src/fault_command.c ****       {
1632:App/Src/fault_command.c ****         char typeName[8];
1633:App/Src/fault_command.c ****         uint32_t id;
1634:App/Src/fault_command.c ****         uint32_t mask;
1635:App/Src/fault_command.c ****         uint8_t isExtended = 0U;
1636:App/Src/fault_command.c **** 
1637:App/Src/fault_command.c ****         if (FaultCommand_JsonGetString(json, "type", typeName, sizeof(typeName)) == 0U)
1638:App/Src/fault_command.c ****         {
1639:App/Src/fault_command.c ****           FaultCommand_WriteJsonResult(write, context, cmd, HAL_ERROR);
1640:App/Src/fault_command.c ****           return;
1641:App/Src/fault_command.c ****         }
1642:App/Src/fault_command.c **** 
1643:App/Src/fault_command.c ****         if (strcmp(typeName, "off") == 0)
1644:App/Src/fault_command.c ****         {
1645:App/Src/fault_command.c ****           BmsResponseLog_DisableFilter();
1646:App/Src/fault_command.c ****           FaultCommand_WriteJsonBmsResponseLog(write, context);
1647:App/Src/fault_command.c ****           return;
1648:App/Src/fault_command.c ****         }
1649:App/Src/fault_command.c **** 
1650:App/Src/fault_command.c ****         if (strcmp(typeName, "std") == 0)
1651:App/Src/fault_command.c ****         {
1652:App/Src/fault_command.c ****           isExtended = 0U;
1653:App/Src/fault_command.c ****           mask = FaultCommand_JsonGetUintDefault(json, "mask", 0x7FFU);
1654:App/Src/fault_command.c ****         }
1655:App/Src/fault_command.c ****         else if (strcmp(typeName, "ext") == 0)
1656:App/Src/fault_command.c ****         {
1657:App/Src/fault_command.c ****           isExtended = 1U;
1658:App/Src/fault_command.c ****           mask = FaultCommand_JsonGetUintDefault(json, "mask", 0x1FFFFFFFU);
1659:App/Src/fault_command.c ****         }
1660:App/Src/fault_command.c ****         else
1661:App/Src/fault_command.c ****         {
1662:App/Src/fault_command.c ****           FaultCommand_WriteJsonResult(write, context, cmd, HAL_ERROR);
1663:App/Src/fault_command.c ****           return;
1664:App/Src/fault_command.c ****         }
1665:App/Src/fault_command.c **** 
1666:App/Src/fault_command.c ****         if (FaultCommand_JsonGetUint(json, "id", &id) != 0U)
1667:App/Src/fault_command.c ****         {
1668:App/Src/fault_command.c ****           status = BmsResponseLog_SetFilter(1U, isExtended, id, mask);
1669:App/Src/fault_command.c ****           FaultCommand_WriteJsonBmsResponseLog(write, context);
1670:App/Src/fault_command.c ****           return;
1671:App/Src/fault_command.c ****         }
1672:App/Src/fault_command.c ****       }
ARM GAS  C:\Users\hh\AppData\Local\Temp\ccntMbQq.s 			page 111


1673:App/Src/fault_command.c ****       else if (strcmp(action, "data") == 0)
1674:App/Src/fault_command.c ****       {
1675:App/Src/fault_command.c ****         uint32_t index;
1676:App/Src/fault_command.c ****         uint32_t mask;
1677:App/Src/fault_command.c ****         uint32_t value;
1678:App/Src/fault_command.c **** 
1679:App/Src/fault_command.c ****         if ((FaultCommand_JsonGetUint(json, "index", &index) != 0U) &&
1680:App/Src/fault_command.c ****             (FaultCommand_JsonGetUint(json, "mask", &mask) != 0U) &&
1681:App/Src/fault_command.c ****             (FaultCommand_JsonGetUint(json, "value", &value) != 0U) &&
1682:App/Src/fault_command.c ****             (mask <= 0xFFU) &&
1683:App/Src/fault_command.c ****             (value <= 0xFFU))
1684:App/Src/fault_command.c ****         {
1685:App/Src/fault_command.c ****           status = BmsResponseLog_SetDataFilter((uint8_t)index,
1686:App/Src/fault_command.c ****                                                 (uint8_t)mask,
1687:App/Src/fault_command.c ****                                                 (uint8_t)value);
1688:App/Src/fault_command.c ****           FaultCommand_WriteJsonBmsResponseLog(write, context);
1689:App/Src/fault_command.c ****           return;
1690:App/Src/fault_command.c ****         }
1691:App/Src/fault_command.c ****       }
1692:App/Src/fault_command.c ****       else if (strcmp(action, "data_clear") == 0)
1693:App/Src/fault_command.c ****       {
1694:App/Src/fault_command.c ****         BmsResponseLog_ClearDataFilter();
1695:App/Src/fault_command.c ****         FaultCommand_WriteJsonBmsResponseLog(write, context);
1696:App/Src/fault_command.c ****         return;
1697:App/Src/fault_command.c ****       }
1698:App/Src/fault_command.c ****     }
1699:App/Src/fault_command.c ****   }
1700:App/Src/fault_command.c ****   else if (strcmp(cmd, "safe") == 0)
1701:App/Src/fault_command.c ****   {
1702:App/Src/fault_command.c ****     char action[16];
1703:App/Src/fault_command.c **** 
1704:App/Src/fault_command.c ****     if (FaultCommand_JsonGetString(json, "action", action, sizeof(action)) != 0U)
1705:App/Src/fault_command.c ****     {
1706:App/Src/fault_command.c ****       if (strcmp(action, "status") == 0)
1707:App/Src/fault_command.c ****       {
1708:App/Src/fault_command.c ****         FaultCommand_WriteJsonSafetyStatus(write, context);
1709:App/Src/fault_command.c ****         return;
1710:App/Src/fault_command.c ****       }
1711:App/Src/fault_command.c ****       else if ((strcmp(action, "stop") == 0) || (strcmp(action, "emergency_stop") == 0))
1712:App/Src/fault_command.c ****       {
1713:App/Src/fault_command.c ****         mv = FaultCommand_JsonGetUintDefault(json, "mv", DAC_SAFETY_DEFAULT_SAFE_MV);
1714:App/Src/fault_command.c ****         FaultCommand_StopAllWaveforms();
1715:App/Src/fault_command.c ****         status = DacSafety_EmergencyStop((uint16_t)mv);
1716:App/Src/fault_command.c ****       }
1717:App/Src/fault_command.c ****       else if (strcmp(action, "release") == 0)
1718:App/Src/fault_command.c ****       {
1719:App/Src/fault_command.c ****         DacSafety_Release();
1720:App/Src/fault_command.c ****         status = HAL_OK;
1721:App/Src/fault_command.c ****       }
1722:App/Src/fault_command.c ****     }
1723:App/Src/fault_command.c ****   }
1724:App/Src/fault_command.c ****   else if (strcmp(cmd, "sram") == 0)
1725:App/Src/fault_command.c ****   {
1726:App/Src/fault_command.c ****     char action[16];
1727:App/Src/fault_command.c **** 
1728:App/Src/fault_command.c ****     if (FaultCommand_JsonGetString(json, "action", action, sizeof(action)) != 0U)
1729:App/Src/fault_command.c ****     {
ARM GAS  C:\Users\hh\AppData\Local\Temp\ccntMbQq.s 			page 112


1730:App/Src/fault_command.c ****       if (strcmp(action, "status") == 0)
1731:App/Src/fault_command.c ****       {
1732:App/Src/fault_command.c ****         FaultCommand_WriteJsonSramStatus(write, context, HAL_OK);
1733:App/Src/fault_command.c ****         return;
1734:App/Src/fault_command.c ****       }
1735:App/Src/fault_command.c ****       else if (strcmp(action, "test") == 0)
1736:App/Src/fault_command.c ****       {
1737:App/Src/fault_command.c ****         uint32_t bytes = FaultCommand_JsonGetUintDefault(json,
1738:App/Src/fault_command.c ****                                                          "bytes",
1739:App/Src/fault_command.c ****                                                          BSP_SRAM_DEFAULT_TEST_BYTES);
1740:App/Src/fault_command.c ****         status = BspSram_RunSelfTest(bytes);
1741:App/Src/fault_command.c ****         FaultCommand_WriteJsonSramStatus(write, context, status);
1742:App/Src/fault_command.c ****         return;
1743:App/Src/fault_command.c ****       }
1744:App/Src/fault_command.c ****     }
1745:App/Src/fault_command.c ****   }
1746:App/Src/fault_command.c ****   else if (strcmp(cmd, "clear") == 0)
1747:App/Src/fault_command.c ****   {
1748:App/Src/fault_command.c ****     if (DacSafety_IsOutputAllowed() == 0U)
1749:App/Src/fault_command.c ****     {
1750:App/Src/fault_command.c ****       status = HAL_BUSY;
1751:App/Src/fault_command.c ****     }
1752:App/Src/fault_command.c ****     else
1753:App/Src/fault_command.c ****     {
1754:App/Src/fault_command.c ****       FaultCommand_StopAllWaveforms();
1755:App/Src/fault_command.c ****       if (FaultCommand_JsonGetUint(json, "cell", &cell) != 0U)
1756:App/Src/fault_command.c ****       {
1757:App/Src/fault_command.c ****         status = VoltageSim_ClearCellFault((uint8_t)cell);
1758:App/Src/fault_command.c ****       }
1759:App/Src/fault_command.c ****       else
1760:App/Src/fault_command.c ****       {
1761:App/Src/fault_command.c ****         status = VoltageSim_ClearAllFaults();
1762:App/Src/fault_command.c ****       }
1763:App/Src/fault_command.c ****     }
1764:App/Src/fault_command.c ****   }
1765:App/Src/fault_command.c ****   else
1766:App/Src/fault_command.c ****   {
1767:App/Src/fault_command.c ****     FaultCommand_Write(write, context, "{\"ok\":false,\"error\":\"unknown_cmd\"}\r\n");
1768:App/Src/fault_command.c ****     return;
1769:App/Src/fault_command.c ****   }
1770:App/Src/fault_command.c **** 
1771:App/Src/fault_command.c ****   FaultCommand_WriteJsonResult(write, context, cmd, status);
 3659              		.loc 1 1771 3 is_stmt 1 view .LVU668
 3660 00a8 2346     		mov	r3, r4
 3661 00aa 18AA     		add	r2, sp, #96
 3662 00ac 3946     		mov	r1, r7
 3663 00ae 3046     		mov	r0, r6
 3664 00b0 FFF7FEFF 		bl	FaultCommand_WriteJsonResult
 3665              	.LVL304:
 3666              	.L190:
1772:App/Src/fault_command.c **** }
 3667              		.loc 1 1772 1 is_stmt 0 view .LVU669
 3668 00b4 1CB0     		add	sp, sp, #112
 3669              	.LCFI80:
 3670              		.cfi_remember_state
 3671              		.cfi_def_cfa_offset 24
 3672              		@ sp needed
ARM GAS  C:\Users\hh\AppData\Local\Temp\ccntMbQq.s 			page 113


 3673 00b6 BDE8F081 		pop	{r4, r5, r6, r7, r8, pc}
 3674              	.LVL305:
 3675              	.L323:
 3676              	.LCFI81:
 3677              		.cfi_restore_state
1315:App/Src/fault_command.c ****         (FaultCommand_JsonGetUint(json, "mv", &mv) != 0U))
 3678              		.loc 1 1315 5 is_stmt 1 view .LVU670
1315:App/Src/fault_command.c ****         (FaultCommand_JsonGetUint(json, "mv", &mv) != 0U))
 3679              		.loc 1 1315 10 is_stmt 0 view .LVU671
 3680 00ba 13AA     		add	r2, sp, #76
 3681 00bc 7F49     		ldr	r1, .L401+28
 3682 00be 2046     		mov	r0, r4
 3683 00c0 FFF7FEFF 		bl	FaultCommand_JsonGetUint
 3684              	.LVL306:
1315:App/Src/fault_command.c ****         (FaultCommand_JsonGetUint(json, "mv", &mv) != 0U))
 3685              		.loc 1 1315 8 discriminator 1 view .LVU672
 3686 00c4 10B9     		cbnz	r0, .L325
1286:App/Src/fault_command.c **** 
 3687              		.loc 1 1286 21 view .LVU673
 3688 00c6 0123     		movs	r3, #1
 3689 00c8 1C46     		mov	r4, r3
 3690              	.LVL307:
1286:App/Src/fault_command.c **** 
 3691              		.loc 1 1286 21 view .LVU674
 3692 00ca EDE7     		b	.L196
 3693              	.LVL308:
 3694              	.L325:
1316:App/Src/fault_command.c ****     {
 3695              		.loc 1 1316 10 view .LVU675
 3696 00cc 12AA     		add	r2, sp, #72
 3697 00ce 7E49     		ldr	r1, .L401+40
 3698 00d0 2046     		mov	r0, r4
 3699 00d2 FFF7FEFF 		bl	FaultCommand_JsonGetUint
 3700              	.LVL309:
1315:App/Src/fault_command.c ****         (FaultCommand_JsonGetUint(json, "mv", &mv) != 0U))
 3701              		.loc 1 1315 63 discriminator 2 view .LVU676
 3702 00d6 10B9     		cbnz	r0, .L326
1286:App/Src/fault_command.c **** 
 3703              		.loc 1 1286 21 view .LVU677
 3704 00d8 0123     		movs	r3, #1
 3705 00da 1C46     		mov	r4, r3
 3706              	.LVL310:
1286:App/Src/fault_command.c **** 
 3707              		.loc 1 1286 21 view .LVU678
 3708 00dc E4E7     		b	.L196
 3709              	.LVL311:
 3710              	.L326:
1318:App/Src/fault_command.c ****     }
 3711              		.loc 1 1318 7 is_stmt 1 view .LVU679
1318:App/Src/fault_command.c ****     }
 3712              		.loc 1 1318 16 is_stmt 0 view .LVU680
 3713 00de BDF84810 		ldrh	r1, [sp, #72]
 3714 00e2 9DF84C00 		ldrb	r0, [sp, #76]	@ zero_extendqisi2
 3715 00e6 FFF7FEFF 		bl	FaultCommand_RunSet
 3716              	.LVL312:
 3717 00ea 0446     		mov	r4, r0
 3718              	.LVL313:
ARM GAS  C:\Users\hh\AppData\Local\Temp\ccntMbQq.s 			page 114


1318:App/Src/fault_command.c ****     }
 3719              		.loc 1 1318 16 view .LVU681
 3720 00ec DCE7     		b	.L196
 3721              	.LVL314:
 3722              	.L324:
1325:App/Src/fault_command.c ****       duration = FaultCommand_JsonGetUintDefault(json, "duration_ms", FAULT_COMMAND_DEFAULT_DURATIO
 3723              		.loc 1 1325 7 is_stmt 1 view .LVU682
1325:App/Src/fault_command.c ****       duration = FaultCommand_JsonGetUintDefault(json, "duration_ms", FAULT_COMMAND_DEFAULT_DURATIO
 3724              		.loc 1 1325 12 is_stmt 0 view .LVU683
 3725 00ee 41F29412 		movw	r2, #4500
 3726 00f2 7549     		ldr	r1, .L401+40
 3727 00f4 2046     		mov	r0, r4
 3728 00f6 FFF7FEFF 		bl	FaultCommand_JsonGetUintDefault
 3729              	.LVL315:
1325:App/Src/fault_command.c ****       duration = FaultCommand_JsonGetUintDefault(json, "duration_ms", FAULT_COMMAND_DEFAULT_DURATIO
 3730              		.loc 1 1325 10 discriminator 1 view .LVU684
 3731 00fa 1290     		str	r0, [sp, #72]
1326:App/Src/fault_command.c ****       slew = FaultCommand_JsonGetUintDefault(json, "slew_mv_per_ms", FAULT_COMMAND_DEFAULT_SLEW_MV_
 3732              		.loc 1 1326 7 is_stmt 1 view .LVU685
1326:App/Src/fault_command.c ****       slew = FaultCommand_JsonGetUintDefault(json, "slew_mv_per_ms", FAULT_COMMAND_DEFAULT_SLEW_MV_
 3733              		.loc 1 1326 18 is_stmt 0 view .LVU686
 3734 00fc 6422     		movs	r2, #100
 3735 00fe 7349     		ldr	r1, .L401+44
 3736 0100 2046     		mov	r0, r4
 3737 0102 FFF7FEFF 		bl	FaultCommand_JsonGetUintDefault
 3738              	.LVL316:
 3739 0106 0546     		mov	r5, r0
 3740              	.LVL317:
1327:App/Src/fault_command.c ****       status = FaultCommand_RunOverVoltage((uint8_t)cell, (uint16_t)mv, duration, (uint16_t)slew);
 3741              		.loc 1 1327 7 is_stmt 1 view .LVU687
1327:App/Src/fault_command.c ****       status = FaultCommand_RunOverVoltage((uint8_t)cell, (uint16_t)mv, duration, (uint16_t)slew);
 3742              		.loc 1 1327 14 is_stmt 0 view .LVU688
 3743 0108 40F6B832 		movw	r2, #3000
 3744 010c 7049     		ldr	r1, .L401+48
 3745 010e 2046     		mov	r0, r4
 3746              	.LVL318:
1327:App/Src/fault_command.c ****       status = FaultCommand_RunOverVoltage((uint8_t)cell, (uint16_t)mv, duration, (uint16_t)slew);
 3747              		.loc 1 1327 14 view .LVU689
 3748 0110 FFF7FEFF 		bl	FaultCommand_JsonGetUintDefault
 3749              	.LVL319:
1328:App/Src/fault_command.c ****     }
 3750              		.loc 1 1328 7 is_stmt 1 view .LVU690
1328:App/Src/fault_command.c ****     }
 3751              		.loc 1 1328 16 is_stmt 0 view .LVU691
 3752 0114 83B2     		uxth	r3, r0
 3753 0116 2A46     		mov	r2, r5
 3754 0118 BDF84810 		ldrh	r1, [sp, #72]
 3755 011c 9DF84C00 		ldrb	r0, [sp, #76]	@ zero_extendqisi2
 3756              	.LVL320:
1328:App/Src/fault_command.c ****     }
 3757              		.loc 1 1328 16 view .LVU692
 3758 0120 FFF7FEFF 		bl	FaultCommand_RunOverVoltage
 3759              	.LVL321:
 3760 0124 0446     		mov	r4, r0
 3761              	.LVL322:
1328:App/Src/fault_command.c ****     }
 3762              		.loc 1 1328 16 view .LVU693
ARM GAS  C:\Users\hh\AppData\Local\Temp\ccntMbQq.s 			page 115


 3763 0126 BFE7     		b	.L196
 3764              	.LVL323:
 3765              	.L199:
1331:App/Src/fault_command.c ****   {
 3766              		.loc 1 1331 8 is_stmt 1 view .LVU694
1331:App/Src/fault_command.c ****   {
 3767              		.loc 1 1331 13 is_stmt 0 view .LVU695
 3768 0128 6A49     		ldr	r1, .L401+52
 3769 012a 18A8     		add	r0, sp, #96
 3770 012c FFF7FEFF 		bl	strcmp
 3771              	.LVL324:
1331:App/Src/fault_command.c ****   {
 3772              		.loc 1 1331 11 discriminator 1 view .LVU696
 3773 0130 20B1     		cbz	r0, .L200
1331:App/Src/fault_command.c ****   {
 3774              		.loc 1 1331 41 discriminator 2 view .LVU697
 3775 0132 6949     		ldr	r1, .L401+56
 3776 0134 18A8     		add	r0, sp, #96
 3777 0136 FFF7FEFF 		bl	strcmp
 3778              	.LVL325:
1331:App/Src/fault_command.c ****   {
 3779              		.loc 1 1331 37 discriminator 3 view .LVU698
 3780 013a 28BB     		cbnz	r0, .L201
 3781              	.L200:
1333:App/Src/fault_command.c ****     {
 3782              		.loc 1 1333 5 is_stmt 1 view .LVU699
1333:App/Src/fault_command.c ****     {
 3783              		.loc 1 1333 9 is_stmt 0 view .LVU700
 3784 013c 13AA     		add	r2, sp, #76
 3785 013e 5F49     		ldr	r1, .L401+28
 3786 0140 2046     		mov	r0, r4
 3787 0142 FFF7FEFF 		bl	FaultCommand_JsonGetUint
 3788              	.LVL326:
1333:App/Src/fault_command.c ****     {
 3789              		.loc 1 1333 8 discriminator 1 view .LVU701
 3790 0146 10B9     		cbnz	r0, .L327
1286:App/Src/fault_command.c **** 
 3791              		.loc 1 1286 21 view .LVU702
 3792 0148 0123     		movs	r3, #1
 3793 014a 1C46     		mov	r4, r3
 3794              	.LVL327:
1286:App/Src/fault_command.c **** 
 3795              		.loc 1 1286 21 view .LVU703
 3796 014c ACE7     		b	.L196
 3797              	.LVL328:
 3798              	.L327:
1335:App/Src/fault_command.c ****       duration = FaultCommand_JsonGetUintDefault(json, "duration_ms", FAULT_COMMAND_DEFAULT_DURATIO
 3799              		.loc 1 1335 7 is_stmt 1 view .LVU704
1335:App/Src/fault_command.c ****       duration = FaultCommand_JsonGetUintDefault(json, "duration_ms", FAULT_COMMAND_DEFAULT_DURATIO
 3800              		.loc 1 1335 12 is_stmt 0 view .LVU705
 3801 014e 4FF47A72 		mov	r2, #1000
 3802 0152 5D49     		ldr	r1, .L401+40
 3803 0154 2046     		mov	r0, r4
 3804 0156 FFF7FEFF 		bl	FaultCommand_JsonGetUintDefault
 3805              	.LVL329:
1335:App/Src/fault_command.c ****       duration = FaultCommand_JsonGetUintDefault(json, "duration_ms", FAULT_COMMAND_DEFAULT_DURATIO
 3806              		.loc 1 1335 10 discriminator 1 view .LVU706
ARM GAS  C:\Users\hh\AppData\Local\Temp\ccntMbQq.s 			page 116


 3807 015a 1290     		str	r0, [sp, #72]
1336:App/Src/fault_command.c ****       slew = FaultCommand_JsonGetUintDefault(json, "slew_mv_per_ms", FAULT_COMMAND_DEFAULT_SLEW_MV_
 3808              		.loc 1 1336 7 is_stmt 1 view .LVU707
1336:App/Src/fault_command.c ****       slew = FaultCommand_JsonGetUintDefault(json, "slew_mv_per_ms", FAULT_COMMAND_DEFAULT_SLEW_MV_
 3809              		.loc 1 1336 18 is_stmt 0 view .LVU708
 3810 015c 6422     		movs	r2, #100
 3811 015e 5B49     		ldr	r1, .L401+44
 3812 0160 2046     		mov	r0, r4
 3813 0162 FFF7FEFF 		bl	FaultCommand_JsonGetUintDefault
 3814              	.LVL330:
 3815 0166 0546     		mov	r5, r0
 3816              	.LVL331:
1337:App/Src/fault_command.c ****       status = FaultCommand_RunUnderVoltage((uint8_t)cell, (uint16_t)mv, duration, (uint16_t)slew);
 3817              		.loc 1 1337 7 is_stmt 1 view .LVU709
1337:App/Src/fault_command.c ****       status = FaultCommand_RunUnderVoltage((uint8_t)cell, (uint16_t)mv, duration, (uint16_t)slew);
 3818              		.loc 1 1337 14 is_stmt 0 view .LVU710
 3819 0168 40F6B832 		movw	r2, #3000
 3820 016c 5849     		ldr	r1, .L401+48
 3821 016e 2046     		mov	r0, r4
 3822              	.LVL332:
1337:App/Src/fault_command.c ****       status = FaultCommand_RunUnderVoltage((uint8_t)cell, (uint16_t)mv, duration, (uint16_t)slew);
 3823              		.loc 1 1337 14 view .LVU711
 3824 0170 FFF7FEFF 		bl	FaultCommand_JsonGetUintDefault
 3825              	.LVL333:
1338:App/Src/fault_command.c ****     }
 3826              		.loc 1 1338 7 is_stmt 1 view .LVU712
1338:App/Src/fault_command.c ****     }
 3827              		.loc 1 1338 16 is_stmt 0 view .LVU713
 3828 0174 83B2     		uxth	r3, r0
 3829 0176 2A46     		mov	r2, r5
 3830 0178 BDF84810 		ldrh	r1, [sp, #72]
 3831 017c 9DF84C00 		ldrb	r0, [sp, #76]	@ zero_extendqisi2
 3832              	.LVL334:
1338:App/Src/fault_command.c ****     }
 3833              		.loc 1 1338 16 view .LVU714
 3834 0180 FFF7FEFF 		bl	FaultCommand_RunUnderVoltage
 3835              	.LVL335:
 3836 0184 0446     		mov	r4, r0
 3837              	.LVL336:
1338:App/Src/fault_command.c ****     }
 3838              		.loc 1 1338 16 view .LVU715
 3839 0186 8FE7     		b	.L196
 3840              	.LVL337:
 3841              	.L201:
1341:App/Src/fault_command.c ****   {
 3842              		.loc 1 1341 8 is_stmt 1 view .LVU716
1341:App/Src/fault_command.c ****   {
 3843              		.loc 1 1341 12 is_stmt 0 view .LVU717
 3844 0188 5449     		ldr	r1, .L401+60
 3845 018a 18A8     		add	r0, sp, #96
 3846 018c FFF7FEFF 		bl	strcmp
 3847              	.LVL338:
1341:App/Src/fault_command.c ****   {
 3848              		.loc 1 1341 11 discriminator 1 view .LVU718
 3849 0190 0028     		cmp	r0, #0
 3850 0192 46D0     		beq	.L328
1363:App/Src/fault_command.c ****   {
ARM GAS  C:\Users\hh\AppData\Local\Temp\ccntMbQq.s 			page 117


 3851              		.loc 1 1363 8 is_stmt 1 view .LVU719
1363:App/Src/fault_command.c ****   {
 3852              		.loc 1 1363 12 is_stmt 0 view .LVU720
 3853 0194 5249     		ldr	r1, .L401+64
 3854 0196 18A8     		add	r0, sp, #96
 3855 0198 FFF7FEFF 		bl	strcmp
 3856              	.LVL339:
1363:App/Src/fault_command.c ****   {
 3857              		.loc 1 1363 11 discriminator 1 view .LVU721
 3858 019c 0028     		cmp	r0, #0
 3859 019e 00F0B980 		beq	.L329
1456:App/Src/fault_command.c ****   {
 3860              		.loc 1 1456 8 is_stmt 1 view .LVU722
1456:App/Src/fault_command.c ****   {
 3861              		.loc 1 1456 12 is_stmt 0 view .LVU723
 3862 01a2 5049     		ldr	r1, .L401+68
 3863 01a4 18A8     		add	r0, sp, #96
 3864 01a6 FFF7FEFF 		bl	strcmp
 3865              	.LVL340:
1456:App/Src/fault_command.c ****   {
 3866              		.loc 1 1456 11 discriminator 1 view .LVU724
 3867 01aa 0028     		cmp	r0, #0
 3868 01ac 00F0BF81 		beq	.L330
1461:App/Src/fault_command.c ****   {
 3869              		.loc 1 1461 8 is_stmt 1 view .LVU725
1461:App/Src/fault_command.c ****   {
 3870              		.loc 1 1461 12 is_stmt 0 view .LVU726
 3871 01b0 4D49     		ldr	r1, .L401+72
 3872 01b2 18A8     		add	r0, sp, #96
 3873 01b4 FFF7FEFF 		bl	strcmp
 3874              	.LVL341:
1461:App/Src/fault_command.c ****   {
 3875              		.loc 1 1461 11 discriminator 1 view .LVU727
 3876 01b8 0028     		cmp	r0, #0
 3877 01ba 00F0BD81 		beq	.L331
1533:App/Src/fault_command.c ****   {
 3878              		.loc 1 1533 8 is_stmt 1 view .LVU728
1533:App/Src/fault_command.c ****   {
 3879              		.loc 1 1533 12 is_stmt 0 view .LVU729
 3880 01be 4B49     		ldr	r1, .L401+76
 3881 01c0 18A8     		add	r0, sp, #96
 3882 01c2 FFF7FEFF 		bl	strcmp
 3883              	.LVL342:
1533:App/Src/fault_command.c ****   {
 3884              		.loc 1 1533 11 discriminator 1 view .LVU730
 3885 01c6 0028     		cmp	r0, #0
 3886 01c8 00F08D82 		beq	.L332
1567:App/Src/fault_command.c ****   {
 3887              		.loc 1 1567 8 is_stmt 1 view .LVU731
1567:App/Src/fault_command.c ****   {
 3888              		.loc 1 1567 12 is_stmt 0 view .LVU732
 3889 01cc 4849     		ldr	r1, .L401+80
 3890 01ce 18A8     		add	r0, sp, #96
 3891 01d0 FFF7FEFF 		bl	strcmp
 3892              	.LVL343:
1567:App/Src/fault_command.c ****   {
 3893              		.loc 1 1567 11 discriminator 1 view .LVU733
ARM GAS  C:\Users\hh\AppData\Local\Temp\ccntMbQq.s 			page 118


 3894 01d4 0028     		cmp	r0, #0
 3895 01d6 00F0DD82 		beq	.L333
1614:App/Src/fault_command.c ****   {
 3896              		.loc 1 1614 8 is_stmt 1 view .LVU734
1614:App/Src/fault_command.c ****   {
 3897              		.loc 1 1614 12 is_stmt 0 view .LVU735
 3898 01da 4649     		ldr	r1, .L401+84
 3899 01dc 18A8     		add	r0, sp, #96
 3900 01de FFF7FEFF 		bl	strcmp
 3901              	.LVL344:
1614:App/Src/fault_command.c ****   {
 3902              		.loc 1 1614 11 discriminator 1 view .LVU736
 3903 01e2 0028     		cmp	r0, #0
 3904 01e4 00F07083 		beq	.L334
1700:App/Src/fault_command.c ****   {
 3905              		.loc 1 1700 8 is_stmt 1 view .LVU737
1700:App/Src/fault_command.c ****   {
 3906              		.loc 1 1700 12 is_stmt 0 view .LVU738
 3907 01e8 4349     		ldr	r1, .L401+88
 3908 01ea 18A8     		add	r0, sp, #96
 3909 01ec FFF7FEFF 		bl	strcmp
 3910              	.LVL345:
1700:App/Src/fault_command.c ****   {
 3911              		.loc 1 1700 11 discriminator 1 view .LVU739
 3912 01f0 0028     		cmp	r0, #0
 3913 01f2 00F02B84 		beq	.L335
1724:App/Src/fault_command.c ****   {
 3914              		.loc 1 1724 8 is_stmt 1 view .LVU740
1724:App/Src/fault_command.c ****   {
 3915              		.loc 1 1724 12 is_stmt 0 view .LVU741
 3916 01f6 4149     		ldr	r1, .L401+92
 3917 01f8 18A8     		add	r0, sp, #96
 3918 01fa FFF7FEFF 		bl	strcmp
 3919              	.LVL346:
1724:App/Src/fault_command.c ****   {
 3920              		.loc 1 1724 11 discriminator 1 view .LVU742
 3921 01fe 0028     		cmp	r0, #0
 3922 0200 00F06384 		beq	.L336
1746:App/Src/fault_command.c ****   {
 3923              		.loc 1 1746 8 is_stmt 1 view .LVU743
1746:App/Src/fault_command.c ****   {
 3924              		.loc 1 1746 12 is_stmt 0 view .LVU744
 3925 0204 3E49     		ldr	r1, .L401+96
 3926 0206 18A8     		add	r0, sp, #96
 3927 0208 FFF7FEFF 		bl	strcmp
 3928              	.LVL347:
1746:App/Src/fault_command.c ****   {
 3929              		.loc 1 1746 11 discriminator 1 view .LVU745
 3930 020c 0028     		cmp	r0, #0
 3931 020e 40F09B84 		bne	.L262
1748:App/Src/fault_command.c ****     {
 3932              		.loc 1 1748 5 is_stmt 1 view .LVU746
1748:App/Src/fault_command.c ****     {
 3933              		.loc 1 1748 9 is_stmt 0 view .LVU747
 3934 0212 FFF7FEFF 		bl	DacSafety_IsOutputAllowed
 3935              	.LVL348:
1748:App/Src/fault_command.c ****     {
ARM GAS  C:\Users\hh\AppData\Local\Temp\ccntMbQq.s 			page 119


 3936              		.loc 1 1748 8 discriminator 1 view .LVU748
 3937 0216 0028     		cmp	r0, #0
 3938 0218 40F08284 		bne	.L337
1750:App/Src/fault_command.c ****     }
 3939              		.loc 1 1750 14 view .LVU749
 3940 021c 0223     		movs	r3, #2
 3941 021e 1C46     		mov	r4, r3
 3942              	.LVL349:
1750:App/Src/fault_command.c ****     }
 3943              		.loc 1 1750 14 view .LVU750
 3944 0220 42E7     		b	.L196
 3945              	.LVL350:
 3946              	.L328:
 3947              	.LBB15:
1343:App/Src/fault_command.c ****     uint32_t highMv;
 3948              		.loc 1 1343 5 is_stmt 1 view .LVU751
1344:App/Src/fault_command.c ****     uint32_t lowCell;
 3949              		.loc 1 1344 5 view .LVU752
1345:App/Src/fault_command.c ****     uint32_t lowMv;
 3950              		.loc 1 1345 5 view .LVU753
1346:App/Src/fault_command.c **** 
 3951              		.loc 1 1346 5 view .LVU754
1348:App/Src/fault_command.c ****         (FaultCommand_JsonGetUint(json, "high_mv", &highMv) != 0U) &&
 3952              		.loc 1 1348 5 view .LVU755
1348:App/Src/fault_command.c ****         (FaultCommand_JsonGetUint(json, "high_mv", &highMv) != 0U) &&
 3953              		.loc 1 1348 10 is_stmt 0 view .LVU756
 3954 0222 05AA     		add	r2, sp, #20
 3955 0224 3749     		ldr	r1, .L401+100
 3956 0226 2046     		mov	r0, r4
 3957 0228 FFF7FEFF 		bl	FaultCommand_JsonGetUint
 3958              	.LVL351:
1348:App/Src/fault_command.c ****         (FaultCommand_JsonGetUint(json, "high_mv", &highMv) != 0U) &&
 3959              		.loc 1 1348 8 discriminator 1 view .LVU757
 3960 022c 10B9     		cbnz	r0, .L338
 3961              	.LBE15:
1286:App/Src/fault_command.c **** 
 3962              		.loc 1 1286 21 view .LVU758
 3963 022e 0123     		movs	r3, #1
 3964 0230 1C46     		mov	r4, r3
 3965              	.LVL352:
1286:App/Src/fault_command.c **** 
 3966              		.loc 1 1286 21 view .LVU759
 3967 0232 39E7     		b	.L196
 3968              	.LVL353:
 3969              	.L338:
 3970              	.LBB16:
1349:App/Src/fault_command.c ****         (FaultCommand_JsonGetUint(json, "low_cell", &lowCell) != 0U) &&
 3971              		.loc 1 1349 10 view .LVU760
 3972 0234 06AA     		add	r2, sp, #24
 3973 0236 3449     		ldr	r1, .L401+104
 3974 0238 2046     		mov	r0, r4
 3975 023a FFF7FEFF 		bl	FaultCommand_JsonGetUint
 3976              	.LVL354:
1348:App/Src/fault_command.c ****         (FaultCommand_JsonGetUint(json, "high_mv", &highMv) != 0U) &&
 3977              		.loc 1 1348 72 discriminator 2 view .LVU761
 3978 023e 10B9     		cbnz	r0, .L339
 3979              	.LBE16:
ARM GAS  C:\Users\hh\AppData\Local\Temp\ccntMbQq.s 			page 120


1286:App/Src/fault_command.c **** 
 3980              		.loc 1 1286 21 view .LVU762
 3981 0240 0123     		movs	r3, #1
 3982 0242 1C46     		mov	r4, r3
 3983              	.LVL355:
1286:App/Src/fault_command.c **** 
 3984              		.loc 1 1286 21 view .LVU763
 3985 0244 30E7     		b	.L196
 3986              	.LVL356:
 3987              	.L339:
 3988              	.LBB17:
1350:App/Src/fault_command.c ****         (FaultCommand_JsonGetUint(json, "low_mv", &lowMv) != 0U))
 3989              		.loc 1 1350 10 view .LVU764
 3990 0246 08AA     		add	r2, sp, #32
 3991 0248 3049     		ldr	r1, .L401+108
 3992 024a 2046     		mov	r0, r4
 3993 024c FFF7FEFF 		bl	FaultCommand_JsonGetUint
 3994              	.LVL357:
1349:App/Src/fault_command.c ****         (FaultCommand_JsonGetUint(json, "low_cell", &lowCell) != 0U) &&
 3995              		.loc 1 1349 68 view .LVU765
 3996 0250 10B9     		cbnz	r0, .L340
 3997              	.LBE17:
1286:App/Src/fault_command.c **** 
 3998              		.loc 1 1286 21 view .LVU766
 3999 0252 0123     		movs	r3, #1
 4000 0254 1C46     		mov	r4, r3
 4001              	.LVL358:
1286:App/Src/fault_command.c **** 
 4002              		.loc 1 1286 21 view .LVU767
 4003 0256 27E7     		b	.L196
 4004              	.LVL359:
 4005              	.L340:
 4006              	.LBB18:
1351:App/Src/fault_command.c ****     {
 4007              		.loc 1 1351 10 view .LVU768
 4008 0258 0AAA     		add	r2, sp, #40
 4009 025a 2D49     		ldr	r1, .L401+112
 4010 025c 2046     		mov	r0, r4
 4011 025e FFF7FEFF 		bl	FaultCommand_JsonGetUint
 4012              	.LVL360:
1350:App/Src/fault_command.c ****         (FaultCommand_JsonGetUint(json, "low_mv", &lowMv) != 0U))
 4013              		.loc 1 1350 70 view .LVU769
 4014 0262 10B9     		cbnz	r0, .L341
 4015              	.LBE18:
1286:App/Src/fault_command.c **** 
 4016              		.loc 1 1286 21 view .LVU770
 4017 0264 0123     		movs	r3, #1
 4018 0266 1C46     		mov	r4, r3
 4019              	.LVL361:
1286:App/Src/fault_command.c **** 
 4020              		.loc 1 1286 21 view .LVU771
 4021 0268 1EE7     		b	.L196
 4022              	.LVL362:
 4023              	.L341:
 4024              	.LBB19:
1353:App/Src/fault_command.c ****       slew = FaultCommand_JsonGetUintDefault(json, "slew_mv_per_ms", FAULT_COMMAND_DEFAULT_SLEW_MV_
 4025              		.loc 1 1353 7 is_stmt 1 view .LVU772
ARM GAS  C:\Users\hh\AppData\Local\Temp\ccntMbQq.s 			page 121


1353:App/Src/fault_command.c ****       slew = FaultCommand_JsonGetUintDefault(json, "slew_mv_per_ms", FAULT_COMMAND_DEFAULT_SLEW_MV_
 4026              		.loc 1 1353 18 is_stmt 0 view .LVU773
 4027 026a 6422     		movs	r2, #100
 4028 026c 1749     		ldr	r1, .L401+44
 4029 026e 2046     		mov	r0, r4
 4030 0270 FFF7FEFF 		bl	FaultCommand_JsonGetUintDefault
 4031              	.LVL363:
 4032 0274 0546     		mov	r5, r0
 4033              	.LVL364:
1354:App/Src/fault_command.c ****       status = FaultCommand_RunDiff((uint8_t)highCell,
 4034              		.loc 1 1354 7 is_stmt 1 view .LVU774
1354:App/Src/fault_command.c ****       status = FaultCommand_RunDiff((uint8_t)highCell,
 4035              		.loc 1 1354 14 is_stmt 0 view .LVU775
 4036 0276 40F6B832 		movw	r2, #3000
 4037 027a 1549     		ldr	r1, .L401+48
 4038 027c 2046     		mov	r0, r4
 4039              	.LVL365:
1354:App/Src/fault_command.c ****       status = FaultCommand_RunDiff((uint8_t)highCell,
 4040              		.loc 1 1354 14 view .LVU776
 4041 027e FFF7FEFF 		bl	FaultCommand_JsonGetUintDefault
 4042              	.LVL366:
1355:App/Src/fault_command.c ****                                     (uint16_t)highMv,
 4043              		.loc 1 1355 7 is_stmt 1 view .LVU777
1355:App/Src/fault_command.c ****                                     (uint16_t)highMv,
 4044              		.loc 1 1355 16 is_stmt 0 view .LVU778
 4045 0282 80B2     		uxth	r0, r0
 4046              	.LVL367:
1355:App/Src/fault_command.c ****                                     (uint16_t)highMv,
 4047              		.loc 1 1355 16 view .LVU779
 4048 0284 0190     		str	r0, [sp, #4]
 4049 0286 0095     		str	r5, [sp]
 4050 0288 BDF82830 		ldrh	r3, [sp, #40]
 4051 028c 9DF82020 		ldrb	r2, [sp, #32]	@ zero_extendqisi2
 4052 0290 BDF81810 		ldrh	r1, [sp, #24]
 4053 0294 9DF81400 		ldrb	r0, [sp, #20]	@ zero_extendqisi2
 4054 0298 FFF7FEFF 		bl	FaultCommand_RunDiff
 4055              	.LVL368:
 4056 029c 0446     		mov	r4, r0
 4057              	.LVL369:
1355:App/Src/fault_command.c ****                                     (uint16_t)highMv,
 4058              		.loc 1 1355 16 view .LVU780
 4059 029e 03E7     		b	.L196
 4060              	.L402:
 4061              		.align	2
 4062              	.L401:
 4063 02a0 00000000 		.word	.LC84
 4064 02a4 2C000000 		.word	.LC86
 4065 02a8 34000000 		.word	.LC87
 4066 02ac C4000000 		.word	.LC89
 4067 02b0 D0000000 		.word	.LC91
 4068 02b4 DC000000 		.word	.LC93
 4069 02b8 E0000000 		.word	.LC94
 4070 02bc D4000000 		.word	.LC92
 4071 02c0 04000000 		.word	.LC85
 4072 02c4 3C000000 		.word	.LC88
 4073 02c8 CC000000 		.word	.LC90
 4074 02cc F0000000 		.word	.LC95
ARM GAS  C:\Users\hh\AppData\Local\Temp\ccntMbQq.s 			page 122


 4075 02d0 FC000000 		.word	.LC96
 4076 02d4 0C010000 		.word	.LC97
 4077 02d8 10010000 		.word	.LC98
 4078 02dc 20010000 		.word	.LC99
 4079 02e0 50010000 		.word	.LC104
 4080 02e4 C4010000 		.word	.LC116
 4081 02e8 D0010000 		.word	.LC117
 4082 02ec 40020000 		.word	.LC125
 4083 02f0 58020000 		.word	.LC128
 4084 02f4 7C020000 		.word	.LC134
 4085 02f8 B8020000 		.word	.LC142
 4086 02fc D8020000 		.word	.LC145
 4087 0300 38020000 		.word	.LC124
 4088 0304 28010000 		.word	.LC100
 4089 0308 34010000 		.word	.LC101
 4090 030c 3C010000 		.word	.LC102
 4091 0310 48010000 		.word	.LC103
 4092              	.LVL370:
 4093              	.L329:
1355:App/Src/fault_command.c ****                                     (uint16_t)highMv,
 4094              		.loc 1 1355 16 view .LVU781
 4095              	.LBE19:
1365:App/Src/fault_command.c ****     {
 4096              		.loc 1 1365 5 is_stmt 1 view .LVU782
1365:App/Src/fault_command.c ****     {
 4097              		.loc 1 1365 9 is_stmt 0 view .LVU783
 4098 0314 1023     		movs	r3, #16
 4099 0316 14AA     		add	r2, sp, #80
 4100 0318 9D49     		ldr	r1, .L403
 4101 031a 2046     		mov	r0, r4
 4102 031c FFF7FEFF 		bl	FaultCommand_JsonGetString
 4103              	.LVL371:
1365:App/Src/fault_command.c ****     {
 4104              		.loc 1 1365 8 discriminator 1 view .LVU784
 4105 0320 0028     		cmp	r0, #0
 4106 0322 00F01884 		beq	.L273
1367:App/Src/fault_command.c ****       {
 4107              		.loc 1 1367 7 is_stmt 1 view .LVU785
1367:App/Src/fault_command.c ****       {
 4108              		.loc 1 1367 12 is_stmt 0 view .LVU786
 4109 0326 9B49     		ldr	r1, .L403+4
 4110 0328 14A8     		add	r0, sp, #80
 4111 032a FFF7FEFF 		bl	strcmp
 4112              	.LVL372:
1367:App/Src/fault_command.c ****       {
 4113              		.loc 1 1367 10 discriminator 1 view .LVU787
 4114 032e 08BB     		cbnz	r0, .L342
 4115              	.L205:
1371:App/Src/fault_command.c ****       {
 4116              		.loc 1 1371 12 is_stmt 1 view .LVU788
1371:App/Src/fault_command.c ****       {
 4117              		.loc 1 1371 16 is_stmt 0 view .LVU789
 4118 0330 9949     		ldr	r1, .L403+8
 4119 0332 14A8     		add	r0, sp, #80
 4120 0334 FFF7FEFF 		bl	strcmp
 4121              	.LVL373:
1371:App/Src/fault_command.c ****       {
ARM GAS  C:\Users\hh\AppData\Local\Temp\ccntMbQq.s 			page 123


 4122              		.loc 1 1371 15 discriminator 1 view .LVU790
 4123 0338 18B3     		cbz	r0, .L343
1389:App/Src/fault_command.c ****       {
 4124              		.loc 1 1389 12 is_stmt 1 view .LVU791
1389:App/Src/fault_command.c ****       {
 4125              		.loc 1 1389 16 is_stmt 0 view .LVU792
 4126 033a 9849     		ldr	r1, .L403+12
 4127 033c 14A8     		add	r0, sp, #80
 4128 033e FFF7FEFF 		bl	strcmp
 4129              	.LVL374:
1389:App/Src/fault_command.c ****       {
 4130              		.loc 1 1389 15 discriminator 1 view .LVU793
 4131 0342 0028     		cmp	r0, #0
 4132 0344 4CD0     		beq	.L344
1407:App/Src/fault_command.c ****       {
 4133              		.loc 1 1407 12 is_stmt 1 view .LVU794
1407:App/Src/fault_command.c ****       {
 4134              		.loc 1 1407 16 is_stmt 0 view .LVU795
 4135 0346 9649     		ldr	r1, .L403+16
 4136 0348 14A8     		add	r0, sp, #80
 4137 034a FFF7FEFF 		bl	strcmp
 4138              	.LVL375:
1407:App/Src/fault_command.c ****       {
 4139              		.loc 1 1407 15 discriminator 1 view .LVU796
 4140 034e 0028     		cmp	r0, #0
 4141 0350 75D0     		beq	.L345
1423:App/Src/fault_command.c ****       {
 4142              		.loc 1 1423 12 is_stmt 1 view .LVU797
1423:App/Src/fault_command.c ****       {
 4143              		.loc 1 1423 16 is_stmt 0 view .LVU798
 4144 0352 9449     		ldr	r1, .L403+20
 4145 0354 14A8     		add	r0, sp, #80
 4146 0356 FFF7FEFF 		bl	strcmp
 4147              	.LVL376:
1423:App/Src/fault_command.c ****       {
 4148              		.loc 1 1423 15 discriminator 1 view .LVU799
 4149 035a 0028     		cmp	r0, #0
 4150 035c 00F09380 		beq	.L346
1449:App/Src/fault_command.c ****       {
 4151              		.loc 1 1449 12 is_stmt 1 view .LVU800
1449:App/Src/fault_command.c ****       {
 4152              		.loc 1 1449 16 is_stmt 0 view .LVU801
 4153 0360 8C49     		ldr	r1, .L403+4
 4154 0362 14A8     		add	r0, sp, #80
 4155 0364 FFF7FEFF 		bl	strcmp
 4156              	.LVL377:
1449:App/Src/fault_command.c ****       {
 4157              		.loc 1 1449 15 discriminator 1 view .LVU802
 4158 0368 0028     		cmp	r0, #0
 4159 036a 00F0DB80 		beq	.L347
1286:App/Src/fault_command.c **** 
 4160              		.loc 1 1286 21 view .LVU803
 4161 036e 0123     		movs	r3, #1
 4162 0370 1C46     		mov	r4, r3
 4163              	.LVL378:
1286:App/Src/fault_command.c **** 
 4164              		.loc 1 1286 21 view .LVU804
ARM GAS  C:\Users\hh\AppData\Local\Temp\ccntMbQq.s 			page 124


 4165 0372 99E6     		b	.L196
 4166              	.LVL379:
 4167              	.L342:
1367:App/Src/fault_command.c ****       {
 4168              		.loc 1 1367 43 discriminator 2 view .LVU805
 4169 0374 FFF7FEFF 		bl	DacSafety_IsOutputAllowed
 4170              	.LVL380:
1367:App/Src/fault_command.c ****       {
 4171              		.loc 1 1367 39 discriminator 3 view .LVU806
 4172 0378 0028     		cmp	r0, #0
 4173 037a D9D1     		bne	.L205
1369:App/Src/fault_command.c ****       }
 4174              		.loc 1 1369 16 view .LVU807
 4175 037c 0223     		movs	r3, #2
 4176 037e 1C46     		mov	r4, r3
 4177              	.LVL381:
1369:App/Src/fault_command.c ****       }
 4178              		.loc 1 1369 16 view .LVU808
 4179 0380 92E6     		b	.L196
 4180              	.LVL382:
 4181              	.L343:
 4182              	.LBB20:
1373:App/Src/fault_command.c ****         uint32_t high;
 4183              		.loc 1 1373 9 is_stmt 1 view .LVU809
1374:App/Src/fault_command.c ****         uint32_t period;
 4184              		.loc 1 1374 9 view .LVU810
1375:App/Src/fault_command.c **** 
 4185              		.loc 1 1375 9 view .LVU811
1377:App/Src/fault_command.c ****             (FaultCommand_JsonGetUint(json, "low_mv", &low) != 0U) &&
 4186              		.loc 1 1377 9 view .LVU812
1377:App/Src/fault_command.c ****             (FaultCommand_JsonGetUint(json, "low_mv", &low) != 0U) &&
 4187              		.loc 1 1377 14 is_stmt 0 view .LVU813
 4188 0382 13AA     		add	r2, sp, #76
 4189 0384 8849     		ldr	r1, .L403+24
 4190 0386 2046     		mov	r0, r4
 4191 0388 FFF7FEFF 		bl	FaultCommand_JsonGetUint
 4192              	.LVL383:
1377:App/Src/fault_command.c ****             (FaultCommand_JsonGetUint(json, "low_mv", &low) != 0U) &&
 4193              		.loc 1 1377 12 discriminator 1 view .LVU814
 4194 038c 10B9     		cbnz	r0, .L348
 4195              	.LBE20:
1286:App/Src/fault_command.c **** 
 4196              		.loc 1 1286 21 view .LVU815
 4197 038e 0123     		movs	r3, #1
 4198 0390 1C46     		mov	r4, r3
 4199              	.LVL384:
1286:App/Src/fault_command.c **** 
 4200              		.loc 1 1286 21 view .LVU816
 4201 0392 89E6     		b	.L196
 4202              	.LVL385:
 4203              	.L348:
 4204              	.LBB21:
1378:App/Src/fault_command.c ****             (FaultCommand_JsonGetUint(json, "high_mv", &high) != 0U))
 4205              		.loc 1 1378 14 view .LVU817
 4206 0394 08AA     		add	r2, sp, #32
 4207 0396 8549     		ldr	r1, .L403+28
 4208 0398 2046     		mov	r0, r4
ARM GAS  C:\Users\hh\AppData\Local\Temp\ccntMbQq.s 			page 125


 4209 039a FFF7FEFF 		bl	FaultCommand_JsonGetUint
 4210              	.LVL386:
1377:App/Src/fault_command.c ****             (FaultCommand_JsonGetUint(json, "low_mv", &low) != 0U) &&
 4211              		.loc 1 1377 67 discriminator 2 view .LVU818
 4212 039e 10B9     		cbnz	r0, .L349
 4213              	.LBE21:
1286:App/Src/fault_command.c **** 
 4214              		.loc 1 1286 21 view .LVU819
 4215 03a0 0123     		movs	r3, #1
 4216 03a2 1C46     		mov	r4, r3
 4217              	.LVL387:
1286:App/Src/fault_command.c **** 
 4218              		.loc 1 1286 21 view .LVU820
 4219 03a4 80E6     		b	.L196
 4220              	.LVL388:
 4221              	.L349:
 4222              	.LBB22:
1379:App/Src/fault_command.c ****         {
 4223              		.loc 1 1379 14 view .LVU821
 4224 03a6 0AAA     		add	r2, sp, #40
 4225 03a8 8149     		ldr	r1, .L403+32
 4226 03aa 2046     		mov	r0, r4
 4227 03ac FFF7FEFF 		bl	FaultCommand_JsonGetUint
 4228              	.LVL389:
1378:App/Src/fault_command.c ****             (FaultCommand_JsonGetUint(json, "high_mv", &high) != 0U))
 4229              		.loc 1 1378 68 view .LVU822
 4230 03b0 10B9     		cbnz	r0, .L350
 4231              	.LBE22:
1286:App/Src/fault_command.c **** 
 4232              		.loc 1 1286 21 view .LVU823
 4233 03b2 0123     		movs	r3, #1
 4234 03b4 1C46     		mov	r4, r3
 4235              	.LVL390:
1286:App/Src/fault_command.c **** 
 4236              		.loc 1 1286 21 view .LVU824
 4237 03b6 77E6     		b	.L196
 4238              	.LVL391:
 4239              	.L350:
 4240              	.LBB23:
1381:App/Src/fault_command.c ****           WaveformEngine_Stop();
 4241              		.loc 1 1381 11 is_stmt 1 view .LVU825
1381:App/Src/fault_command.c ****           WaveformEngine_Stop();
 4242              		.loc 1 1381 20 is_stmt 0 view .LVU826
 4243 03b8 4FF47A72 		mov	r2, #1000
 4244 03bc 7D49     		ldr	r1, .L403+36
 4245 03be 2046     		mov	r0, r4
 4246 03c0 FFF7FEFF 		bl	FaultCommand_JsonGetUintDefault
 4247              	.LVL392:
 4248 03c4 0446     		mov	r4, r0
 4249              	.LVL393:
1382:App/Src/fault_command.c ****           status = WaveformGen_StartSquare((uint8_t)cell,
 4250              		.loc 1 1382 11 is_stmt 1 view .LVU827
 4251 03c6 FFF7FEFF 		bl	WaveformEngine_Stop
 4252              	.LVL394:
1383:App/Src/fault_command.c ****                                            (uint16_t)low,
 4253              		.loc 1 1383 11 view .LVU828
1383:App/Src/fault_command.c ****                                            (uint16_t)low,
ARM GAS  C:\Users\hh\AppData\Local\Temp\ccntMbQq.s 			page 126


 4254              		.loc 1 1383 20 is_stmt 0 view .LVU829
 4255 03ca 2346     		mov	r3, r4
 4256 03cc BDF82820 		ldrh	r2, [sp, #40]
 4257 03d0 BDF82010 		ldrh	r1, [sp, #32]
 4258 03d4 9DF84C00 		ldrb	r0, [sp, #76]	@ zero_extendqisi2
 4259 03d8 FFF7FEFF 		bl	WaveformGen_StartSquare
 4260              	.LVL395:
 4261 03dc 0446     		mov	r4, r0
 4262              	.LVL396:
1383:App/Src/fault_command.c ****                                            (uint16_t)low,
 4263              		.loc 1 1383 20 view .LVU830
 4264 03de 63E6     		b	.L196
 4265              	.LVL397:
 4266              	.L344:
1383:App/Src/fault_command.c ****                                            (uint16_t)low,
 4267              		.loc 1 1383 20 view .LVU831
 4268              	.LBE23:
 4269              	.LBB24:
1391:App/Src/fault_command.c ****         uint32_t amplitude;
 4270              		.loc 1 1391 9 is_stmt 1 view .LVU832
1392:App/Src/fault_command.c ****         uint32_t period;
 4271              		.loc 1 1392 9 view .LVU833
1393:App/Src/fault_command.c **** 
 4272              		.loc 1 1393 9 view .LVU834
1395:App/Src/fault_command.c ****             (FaultCommand_JsonGetUint(json, "offset_mv", &offset) != 0U) &&
 4273              		.loc 1 1395 9 view .LVU835
1395:App/Src/fault_command.c ****             (FaultCommand_JsonGetUint(json, "offset_mv", &offset) != 0U) &&
 4274              		.loc 1 1395 14 is_stmt 0 view .LVU836
 4275 03e0 13AA     		add	r2, sp, #76
 4276 03e2 7149     		ldr	r1, .L403+24
 4277 03e4 2046     		mov	r0, r4
 4278 03e6 FFF7FEFF 		bl	FaultCommand_JsonGetUint
 4279              	.LVL398:
1395:App/Src/fault_command.c ****             (FaultCommand_JsonGetUint(json, "offset_mv", &offset) != 0U) &&
 4280              		.loc 1 1395 12 discriminator 1 view .LVU837
 4281 03ea 10B9     		cbnz	r0, .L351
 4282              	.LBE24:
1286:App/Src/fault_command.c **** 
 4283              		.loc 1 1286 21 view .LVU838
 4284 03ec 0123     		movs	r3, #1
 4285 03ee 1C46     		mov	r4, r3
 4286              	.LVL399:
1286:App/Src/fault_command.c **** 
 4287              		.loc 1 1286 21 view .LVU839
 4288 03f0 5AE6     		b	.L196
 4289              	.LVL400:
 4290              	.L351:
 4291              	.LBB25:
1396:App/Src/fault_command.c ****             (FaultCommand_JsonGetUint(json, "amplitude_mv", &amplitude) != 0U))
 4292              		.loc 1 1396 14 view .LVU840
 4293 03f2 08AA     		add	r2, sp, #32
 4294 03f4 7049     		ldr	r1, .L403+40
 4295 03f6 2046     		mov	r0, r4
 4296 03f8 FFF7FEFF 		bl	FaultCommand_JsonGetUint
 4297              	.LVL401:
1395:App/Src/fault_command.c ****             (FaultCommand_JsonGetUint(json, "offset_mv", &offset) != 0U) &&
 4298              		.loc 1 1395 67 discriminator 2 view .LVU841
ARM GAS  C:\Users\hh\AppData\Local\Temp\ccntMbQq.s 			page 127


 4299 03fc 10B9     		cbnz	r0, .L352
 4300              	.LBE25:
1286:App/Src/fault_command.c **** 
 4301              		.loc 1 1286 21 view .LVU842
 4302 03fe 0123     		movs	r3, #1
 4303 0400 1C46     		mov	r4, r3
 4304              	.LVL402:
1286:App/Src/fault_command.c **** 
 4305              		.loc 1 1286 21 view .LVU843
 4306 0402 51E6     		b	.L196
 4307              	.LVL403:
 4308              	.L352:
 4309              	.LBB26:
1397:App/Src/fault_command.c ****         {
 4310              		.loc 1 1397 14 view .LVU844
 4311 0404 0AAA     		add	r2, sp, #40
 4312 0406 6D49     		ldr	r1, .L403+44
 4313 0408 2046     		mov	r0, r4
 4314 040a FFF7FEFF 		bl	FaultCommand_JsonGetUint
 4315              	.LVL404:
1396:App/Src/fault_command.c ****             (FaultCommand_JsonGetUint(json, "amplitude_mv", &amplitude) != 0U))
 4316              		.loc 1 1396 74 view .LVU845
 4317 040e 10B9     		cbnz	r0, .L353
 4318              	.LBE26:
1286:App/Src/fault_command.c **** 
 4319              		.loc 1 1286 21 view .LVU846
 4320 0410 0123     		movs	r3, #1
 4321 0412 1C46     		mov	r4, r3
 4322              	.LVL405:
1286:App/Src/fault_command.c **** 
 4323              		.loc 1 1286 21 view .LVU847
 4324 0414 48E6     		b	.L196
 4325              	.LVL406:
 4326              	.L353:
 4327              	.LBB27:
1399:App/Src/fault_command.c ****           WaveformEngine_Stop();
 4328              		.loc 1 1399 11 is_stmt 1 view .LVU848
1399:App/Src/fault_command.c ****           WaveformEngine_Stop();
 4329              		.loc 1 1399 20 is_stmt 0 view .LVU849
 4330 0416 4FF47A72 		mov	r2, #1000
 4331 041a 6649     		ldr	r1, .L403+36
 4332 041c 2046     		mov	r0, r4
 4333 041e FFF7FEFF 		bl	FaultCommand_JsonGetUintDefault
 4334              	.LVL407:
 4335 0422 0446     		mov	r4, r0
 4336              	.LVL408:
1400:App/Src/fault_command.c ****           status = WaveformGen_StartSine((uint8_t)cell,
 4337              		.loc 1 1400 11 is_stmt 1 view .LVU850
 4338 0424 FFF7FEFF 		bl	WaveformEngine_Stop
 4339              	.LVL409:
1401:App/Src/fault_command.c ****                                          (uint16_t)offset,
 4340              		.loc 1 1401 11 view .LVU851
1401:App/Src/fault_command.c ****                                          (uint16_t)offset,
 4341              		.loc 1 1401 20 is_stmt 0 view .LVU852
 4342 0428 2346     		mov	r3, r4
 4343 042a BDF82820 		ldrh	r2, [sp, #40]
 4344 042e BDF82010 		ldrh	r1, [sp, #32]
ARM GAS  C:\Users\hh\AppData\Local\Temp\ccntMbQq.s 			page 128


 4345 0432 9DF84C00 		ldrb	r0, [sp, #76]	@ zero_extendqisi2
 4346 0436 FFF7FEFF 		bl	WaveformGen_StartSine
 4347              	.LVL410:
 4348 043a 0446     		mov	r4, r0
 4349              	.LVL411:
1401:App/Src/fault_command.c ****                                          (uint16_t)offset,
 4350              		.loc 1 1401 20 view .LVU853
 4351 043c 34E6     		b	.L196
 4352              	.LVL412:
 4353              	.L345:
1401:App/Src/fault_command.c ****                                          (uint16_t)offset,
 4354              		.loc 1 1401 20 view .LVU854
 4355              	.LBE27:
 4356              	.LBB28:
1409:App/Src/fault_command.c ****         uint32_t amplitude;
 4357              		.loc 1 1409 9 is_stmt 1 view .LVU855
1410:App/Src/fault_command.c ****         uint32_t period;
 4358              		.loc 1 1410 9 view .LVU856
1411:App/Src/fault_command.c **** 
 4359              		.loc 1 1411 9 view .LVU857
1413:App/Src/fault_command.c ****             (FaultCommand_JsonGetUint(json, "amplitude_mv", &amplitude) != 0U))
 4360              		.loc 1 1413 9 view .LVU858
1413:App/Src/fault_command.c ****             (FaultCommand_JsonGetUint(json, "amplitude_mv", &amplitude) != 0U))
 4361              		.loc 1 1413 14 is_stmt 0 view .LVU859
 4362 043e 08AA     		add	r2, sp, #32
 4363 0440 5D49     		ldr	r1, .L403+40
 4364 0442 2046     		mov	r0, r4
 4365 0444 FFF7FEFF 		bl	FaultCommand_JsonGetUint
 4366              	.LVL413:
1413:App/Src/fault_command.c ****             (FaultCommand_JsonGetUint(json, "amplitude_mv", &amplitude) != 0U))
 4367              		.loc 1 1413 12 discriminator 1 view .LVU860
 4368 0448 10B9     		cbnz	r0, .L354
 4369              	.LBE28:
1286:App/Src/fault_command.c **** 
 4370              		.loc 1 1286 21 view .LVU861
 4371 044a 0123     		movs	r3, #1
 4372 044c 1C46     		mov	r4, r3
 4373              	.LVL414:
1286:App/Src/fault_command.c **** 
 4374              		.loc 1 1286 21 view .LVU862
 4375 044e 2BE6     		b	.L196
 4376              	.LVL415:
 4377              	.L354:
 4378              	.LBB29:
1414:App/Src/fault_command.c ****         {
 4379              		.loc 1 1414 14 view .LVU863
 4380 0450 0AAA     		add	r2, sp, #40
 4381 0452 5A49     		ldr	r1, .L403+44
 4382 0454 2046     		mov	r0, r4
 4383 0456 FFF7FEFF 		bl	FaultCommand_JsonGetUint
 4384              	.LVL416:
1413:App/Src/fault_command.c ****             (FaultCommand_JsonGetUint(json, "amplitude_mv", &amplitude) != 0U))
 4385              		.loc 1 1413 74 discriminator 2 view .LVU864
 4386 045a 10B9     		cbnz	r0, .L355
 4387              	.LBE29:
1286:App/Src/fault_command.c **** 
 4388              		.loc 1 1286 21 view .LVU865
ARM GAS  C:\Users\hh\AppData\Local\Temp\ccntMbQq.s 			page 129


 4389 045c 0123     		movs	r3, #1
 4390 045e 1C46     		mov	r4, r3
 4391              	.LVL417:
1286:App/Src/fault_command.c **** 
 4392              		.loc 1 1286 21 view .LVU866
 4393 0460 22E6     		b	.L196
 4394              	.LVL418:
 4395              	.L355:
 4396              	.LBB30:
1416:App/Src/fault_command.c ****           WaveformEngine_Stop();
 4397              		.loc 1 1416 11 is_stmt 1 view .LVU867
1416:App/Src/fault_command.c ****           WaveformEngine_Stop();
 4398              		.loc 1 1416 20 is_stmt 0 view .LVU868
 4399 0462 4FF47A72 		mov	r2, #1000
 4400 0466 5349     		ldr	r1, .L403+36
 4401 0468 2046     		mov	r0, r4
 4402 046a FFF7FEFF 		bl	FaultCommand_JsonGetUintDefault
 4403              	.LVL419:
 4404 046e 0446     		mov	r4, r0
 4405              	.LVL420:
1417:App/Src/fault_command.c ****           status = WaveformGen_StartSineAll((uint16_t)offset,
 4406              		.loc 1 1417 11 is_stmt 1 view .LVU869
 4407 0470 FFF7FEFF 		bl	WaveformEngine_Stop
 4408              	.LVL421:
1418:App/Src/fault_command.c ****                                             (uint16_t)amplitude,
 4409              		.loc 1 1418 11 view .LVU870
1418:App/Src/fault_command.c ****                                             (uint16_t)amplitude,
 4410              		.loc 1 1418 20 is_stmt 0 view .LVU871
 4411 0474 2246     		mov	r2, r4
 4412 0476 BDF82810 		ldrh	r1, [sp, #40]
 4413 047a BDF82000 		ldrh	r0, [sp, #32]
 4414 047e FFF7FEFF 		bl	WaveformGen_StartSineAll
 4415              	.LVL422:
 4416 0482 0446     		mov	r4, r0
 4417              	.LVL423:
1418:App/Src/fault_command.c ****                                             (uint16_t)amplitude,
 4418              		.loc 1 1418 20 view .LVU872
 4419 0484 10E6     		b	.L196
 4420              	.LVL424:
 4421              	.L346:
1418:App/Src/fault_command.c ****                                             (uint16_t)amplitude,
 4422              		.loc 1 1418 20 view .LVU873
 4423              	.LBE30:
 4424              	.LBB31:
1425:App/Src/fault_command.c ****         uint32_t points;
 4425              		.loc 1 1425 9 is_stmt 1 view .LVU874
1426:App/Src/fault_command.c ****         uint32_t amplitude;
 4426              		.loc 1 1426 9 view .LVU875
1427:App/Src/fault_command.c ****         uint32_t offset;
 4427              		.loc 1 1427 9 view .LVU876
1428:App/Src/fault_command.c ****         WaveformEngine_Config cfg;
 4428              		.loc 1 1428 9 view .LVU877
1429:App/Src/fault_command.c **** 
 4429              		.loc 1 1429 9 view .LVU878
1431:App/Src/fault_command.c ****             (FaultCommand_JsonGetUint(json, "freq_hz", &freq) != 0U) &&
 4430              		.loc 1 1431 9 view .LVU879
1431:App/Src/fault_command.c ****             (FaultCommand_JsonGetUint(json, "freq_hz", &freq) != 0U) &&
ARM GAS  C:\Users\hh\AppData\Local\Temp\ccntMbQq.s 			page 130


 4431              		.loc 1 1431 14 is_stmt 0 view .LVU880
 4432 0486 13AA     		add	r2, sp, #76
 4433 0488 4749     		ldr	r1, .L403+24
 4434 048a 2046     		mov	r0, r4
 4435 048c FFF7FEFF 		bl	FaultCommand_JsonGetUint
 4436              	.LVL425:
1431:App/Src/fault_command.c ****             (FaultCommand_JsonGetUint(json, "freq_hz", &freq) != 0U) &&
 4437              		.loc 1 1431 12 discriminator 1 view .LVU881
 4438 0490 10B9     		cbnz	r0, .L356
 4439              	.LBE31:
1286:App/Src/fault_command.c **** 
 4440              		.loc 1 1286 21 view .LVU882
 4441 0492 0123     		movs	r3, #1
 4442 0494 1C46     		mov	r4, r3
 4443              	.LVL426:
1286:App/Src/fault_command.c **** 
 4444              		.loc 1 1286 21 view .LVU883
 4445 0496 07E6     		b	.L196
 4446              	.LVL427:
 4447              	.L356:
 4448              	.LBB32:
1432:App/Src/fault_command.c ****             (FaultCommand_JsonGetUint(json, "points", &points) != 0U) &&
 4449              		.loc 1 1432 14 view .LVU884
 4450 0498 04AA     		add	r2, sp, #16
 4451 049a 4949     		ldr	r1, .L403+48
 4452 049c 2046     		mov	r0, r4
 4453 049e FFF7FEFF 		bl	FaultCommand_JsonGetUint
 4454              	.LVL428:
1431:App/Src/fault_command.c ****             (FaultCommand_JsonGetUint(json, "freq_hz", &freq) != 0U) &&
 4455              		.loc 1 1431 67 discriminator 2 view .LVU885
 4456 04a2 10B9     		cbnz	r0, .L357
 4457              	.LBE32:
1286:App/Src/fault_command.c **** 
 4458              		.loc 1 1286 21 view .LVU886
 4459 04a4 0123     		movs	r3, #1
 4460 04a6 1C46     		mov	r4, r3
 4461              	.LVL429:
1286:App/Src/fault_command.c **** 
 4462              		.loc 1 1286 21 view .LVU887
 4463 04a8 FEE5     		b	.L196
 4464              	.LVL430:
 4465              	.L357:
 4466              	.LBB33:
1433:App/Src/fault_command.c ****             (FaultCommand_JsonGetUint(json, "amplitude_mv", &amplitude) != 0U) &&
 4467              		.loc 1 1433 14 view .LVU888
 4468 04aa 05AA     		add	r2, sp, #20
 4469 04ac 4549     		ldr	r1, .L403+52
 4470 04ae 2046     		mov	r0, r4
 4471 04b0 FFF7FEFF 		bl	FaultCommand_JsonGetUint
 4472              	.LVL431:
1432:App/Src/fault_command.c ****             (FaultCommand_JsonGetUint(json, "points", &points) != 0U) &&
 4473              		.loc 1 1432 70 view .LVU889
 4474 04b4 10B9     		cbnz	r0, .L358
 4475              	.LBE33:
1286:App/Src/fault_command.c **** 
 4476              		.loc 1 1286 21 view .LVU890
 4477 04b6 0123     		movs	r3, #1
ARM GAS  C:\Users\hh\AppData\Local\Temp\ccntMbQq.s 			page 131


 4478 04b8 1C46     		mov	r4, r3
 4479              	.LVL432:
1286:App/Src/fault_command.c **** 
 4480              		.loc 1 1286 21 view .LVU891
 4481 04ba F5E5     		b	.L196
 4482              	.LVL433:
 4483              	.L358:
 4484              	.LBB34:
1434:App/Src/fault_command.c ****             (FaultCommand_JsonGetUint(json, "offset_mv", &offset) != 0U))
 4485              		.loc 1 1434 14 view .LVU892
 4486 04bc 06AA     		add	r2, sp, #24
 4487 04be 3F49     		ldr	r1, .L403+44
 4488 04c0 2046     		mov	r0, r4
 4489 04c2 FFF7FEFF 		bl	FaultCommand_JsonGetUint
 4490              	.LVL434:
1433:App/Src/fault_command.c ****             (FaultCommand_JsonGetUint(json, "amplitude_mv", &amplitude) != 0U) &&
 4491              		.loc 1 1433 71 view .LVU893
 4492 04c6 10B9     		cbnz	r0, .L359
 4493              	.LBE34:
1286:App/Src/fault_command.c **** 
 4494              		.loc 1 1286 21 view .LVU894
 4495 04c8 0123     		movs	r3, #1
 4496 04ca 1C46     		mov	r4, r3
 4497              	.LVL435:
1286:App/Src/fault_command.c **** 
 4498              		.loc 1 1286 21 view .LVU895
 4499 04cc ECE5     		b	.L196
 4500              	.LVL436:
 4501              	.L359:
 4502              	.LBB35:
1435:App/Src/fault_command.c ****         {
 4503              		.loc 1 1435 14 view .LVU896
 4504 04ce 08AA     		add	r2, sp, #32
 4505 04d0 3949     		ldr	r1, .L403+40
 4506 04d2 2046     		mov	r0, r4
 4507 04d4 FFF7FEFF 		bl	FaultCommand_JsonGetUint
 4508              	.LVL437:
1434:App/Src/fault_command.c ****             (FaultCommand_JsonGetUint(json, "offset_mv", &offset) != 0U))
 4509              		.loc 1 1434 80 view .LVU897
 4510 04d8 10B9     		cbnz	r0, .L360
 4511              	.LBE35:
1286:App/Src/fault_command.c **** 
 4512              		.loc 1 1286 21 view .LVU898
 4513 04da 0123     		movs	r3, #1
 4514 04dc 1C46     		mov	r4, r3
 4515              	.LVL438:
1286:App/Src/fault_command.c **** 
 4516              		.loc 1 1286 21 view .LVU899
 4517 04de E3E5     		b	.L196
 4518              	.LVL439:
 4519              	.L360:
 4520              	.LBB36:
1437:App/Src/fault_command.c ****           cfg.active = 1U;
 4521              		.loc 1 1437 11 is_stmt 1 view .LVU900
 4522 04e0 2022     		movs	r2, #32
 4523 04e2 0021     		movs	r1, #0
 4524 04e4 0AA8     		add	r0, sp, #40
ARM GAS  C:\Users\hh\AppData\Local\Temp\ccntMbQq.s 			page 132


 4525 04e6 FFF7FEFF 		bl	memset
 4526              	.LVL440:
1438:App/Src/fault_command.c ****           cfg.channels = 1U;
 4527              		.loc 1 1438 11 view .LVU901
1438:App/Src/fault_command.c ****           cfg.channels = 1U;
 4528              		.loc 1 1438 22 is_stmt 0 view .LVU902
 4529 04ea 0123     		movs	r3, #1
 4530 04ec 8DF82830 		strb	r3, [sp, #40]
1439:App/Src/fault_command.c ****           cfg.channelList[0] = (uint8_t)cell;
 4531              		.loc 1 1439 11 is_stmt 1 view .LVU903
1439:App/Src/fault_command.c ****           cfg.channelList[0] = (uint8_t)cell;
 4532              		.loc 1 1439 24 is_stmt 0 view .LVU904
 4533 04f0 8DF82930 		strb	r3, [sp, #41]
1440:App/Src/fault_command.c ****           cfg.sampleRate = freq * points;
 4534              		.loc 1 1440 11 is_stmt 1 view .LVU905
1440:App/Src/fault_command.c ****           cfg.sampleRate = freq * points;
 4535              		.loc 1 1440 32 is_stmt 0 view .LVU906
 4536 04f4 9DF84C20 		ldrb	r2, [sp, #76]	@ zero_extendqisi2
1440:App/Src/fault_command.c ****           cfg.sampleRate = freq * points;
 4537              		.loc 1 1440 30 view .LVU907
 4538 04f8 8DF82A20 		strb	r2, [sp, #42]
1441:App/Src/fault_command.c ****           cfg.pointCount = points;
 4539              		.loc 1 1441 11 is_stmt 1 view .LVU908
1441:App/Src/fault_command.c ****           cfg.pointCount = points;
 4540              		.loc 1 1441 33 is_stmt 0 view .LVU909
 4541 04fc 0599     		ldr	r1, [sp, #20]
 4542 04fe 049A     		ldr	r2, [sp, #16]
 4543 0500 01FB02F2 		mul	r2, r1, r2
1441:App/Src/fault_command.c ****           cfg.pointCount = points;
 4544              		.loc 1 1441 26 view .LVU910
 4545 0504 0E92     		str	r2, [sp, #56]
1442:App/Src/fault_command.c ****           cfg.cycleCount = 1U;
 4546              		.loc 1 1442 11 is_stmt 1 view .LVU911
1442:App/Src/fault_command.c ****           cfg.cycleCount = 1U;
 4547              		.loc 1 1442 26 is_stmt 0 view .LVU912
 4548 0506 0F91     		str	r1, [sp, #60]
1443:App/Src/fault_command.c ****           cfg.amplitudeMv = (uint16_t)amplitude;
 4549              		.loc 1 1443 11 is_stmt 1 view .LVU913
1443:App/Src/fault_command.c ****           cfg.amplitudeMv = (uint16_t)amplitude;
 4550              		.loc 1 1443 26 is_stmt 0 view .LVU914
 4551 0508 1093     		str	r3, [sp, #64]
1444:App/Src/fault_command.c ****           cfg.offsetMv = (uint16_t)offset;
 4552              		.loc 1 1444 11 is_stmt 1 view .LVU915
1444:App/Src/fault_command.c ****           cfg.offsetMv = (uint16_t)offset;
 4553              		.loc 1 1444 29 is_stmt 0 view .LVU916
 4554 050a BDF81830 		ldrh	r3, [sp, #24]
1444:App/Src/fault_command.c ****           cfg.offsetMv = (uint16_t)offset;
 4555              		.loc 1 1444 27 view .LVU917
 4556 050e ADF84430 		strh	r3, [sp, #68]	@ movhi
1445:App/Src/fault_command.c ****           status = WaveformEngine_StartSine(&cfg);
 4557              		.loc 1 1445 11 is_stmt 1 view .LVU918
1445:App/Src/fault_command.c ****           status = WaveformEngine_StartSine(&cfg);
 4558              		.loc 1 1445 26 is_stmt 0 view .LVU919
 4559 0512 BDF82030 		ldrh	r3, [sp, #32]
1445:App/Src/fault_command.c ****           status = WaveformEngine_StartSine(&cfg);
 4560              		.loc 1 1445 24 view .LVU920
 4561 0516 ADF84630 		strh	r3, [sp, #70]	@ movhi
ARM GAS  C:\Users\hh\AppData\Local\Temp\ccntMbQq.s 			page 133


1446:App/Src/fault_command.c ****         }
 4562              		.loc 1 1446 11 is_stmt 1 view .LVU921
1446:App/Src/fault_command.c ****         }
 4563              		.loc 1 1446 20 is_stmt 0 view .LVU922
 4564 051a 0AA8     		add	r0, sp, #40
 4565 051c FFF7FEFF 		bl	WaveformEngine_StartSine
 4566              	.LVL441:
 4567 0520 0446     		mov	r4, r0
 4568              	.LVL442:
1446:App/Src/fault_command.c ****         }
 4569              		.loc 1 1446 20 view .LVU923
 4570 0522 C1E5     		b	.L196
 4571              	.LVL443:
 4572              	.L347:
1446:App/Src/fault_command.c ****         }
 4573              		.loc 1 1446 20 view .LVU924
 4574              	.LBE36:
1451:App/Src/fault_command.c ****         status = HAL_OK;
 4575              		.loc 1 1451 9 is_stmt 1 view .LVU925
 4576 0524 FFF7FEFF 		bl	FaultCommand_StopAllWaveforms
 4577              	.LVL444:
1452:App/Src/fault_command.c ****       }
 4578              		.loc 1 1452 9 view .LVU926
1452:App/Src/fault_command.c ****       }
 4579              		.loc 1 1452 16 is_stmt 0 view .LVU927
 4580 0528 0023     		movs	r3, #0
 4581 052a 1C46     		mov	r4, r3
 4582              	.LVL445:
1452:App/Src/fault_command.c ****       }
 4583              		.loc 1 1452 16 view .LVU928
 4584 052c BCE5     		b	.L196
 4585              	.LVL446:
 4586              	.L330:
1458:App/Src/fault_command.c ****     status = HAL_OK;
 4587              		.loc 1 1458 5 is_stmt 1 view .LVU929
 4588 052e FFF7FEFF 		bl	FaultCommand_StopAllWaveforms
 4589              	.LVL447:
1459:App/Src/fault_command.c ****   }
 4590              		.loc 1 1459 5 view .LVU930
1459:App/Src/fault_command.c ****   }
 4591              		.loc 1 1459 12 is_stmt 0 view .LVU931
 4592 0532 0023     		movs	r3, #0
 4593 0534 1C46     		mov	r4, r3
 4594              	.LVL448:
1459:App/Src/fault_command.c ****   }
 4595              		.loc 1 1459 12 view .LVU932
 4596 0536 B7E5     		b	.L196
 4597              	.LVL449:
 4598              	.L331:
 4599              	.LBB37:
1463:App/Src/fault_command.c **** 
 4600              		.loc 1 1463 5 is_stmt 1 view .LVU933
1465:App/Src/fault_command.c ****     {
 4601              		.loc 1 1465 5 view .LVU934
1465:App/Src/fault_command.c ****     {
 4602              		.loc 1 1465 9 is_stmt 0 view .LVU935
 4603 0538 1023     		movs	r3, #16
ARM GAS  C:\Users\hh\AppData\Local\Temp\ccntMbQq.s 			page 134


 4604 053a 0AAA     		add	r2, sp, #40
 4605 053c 2249     		ldr	r1, .L403+56
 4606 053e 2046     		mov	r0, r4
 4607 0540 FFF7FEFF 		bl	FaultCommand_JsonGetString
 4608              	.LVL450:
1465:App/Src/fault_command.c ****     {
 4609              		.loc 1 1465 8 discriminator 1 view .LVU936
 4610 0544 0028     		cmp	r0, #0
 4611 0546 00F0CB80 		beq	.L289
1467:App/Src/fault_command.c ****       {
 4612              		.loc 1 1467 7 is_stmt 1 view .LVU937
1467:App/Src/fault_command.c ****       {
 4613              		.loc 1 1467 11 is_stmt 0 view .LVU938
 4614 054a 2049     		ldr	r1, .L403+60
 4615 054c 0AA8     		add	r0, sp, #40
 4616 054e FFF7FEFF 		bl	strcmp
 4617              	.LVL451:
1467:App/Src/fault_command.c ****       {
 4618              		.loc 1 1467 10 discriminator 1 view .LVU939
 4619 0552 A8B1     		cbz	r0, .L361
1482:App/Src/fault_command.c ****       {
 4620              		.loc 1 1482 12 is_stmt 1 view .LVU940
1482:App/Src/fault_command.c ****       {
 4621              		.loc 1 1482 16 is_stmt 0 view .LVU941
 4622 0554 1E49     		ldr	r1, .L403+64
 4623 0556 0AA8     		add	r0, sp, #40
 4624 0558 FFF7FEFF 		bl	strcmp
 4625              	.LVL452:
1482:App/Src/fault_command.c ****       {
 4626              		.loc 1 1482 15 discriminator 1 view .LVU942
 4627 055c 0028     		cmp	r0, #0
 4628 055e 5ED0     		beq	.L362
1497:App/Src/fault_command.c ****       {
 4629              		.loc 1 1497 12 is_stmt 1 view .LVU943
1497:App/Src/fault_command.c ****       {
 4630              		.loc 1 1497 16 is_stmt 0 view .LVU944
 4631 0560 1C49     		ldr	r1, .L403+68
 4632 0562 0AA8     		add	r0, sp, #40
 4633 0564 FFF7FEFF 		bl	strcmp
 4634              	.LVL453:
1497:App/Src/fault_command.c ****       {
 4635              		.loc 1 1497 15 discriminator 1 view .LVU945
 4636 0568 0028     		cmp	r0, #0
 4637 056a 78D0     		beq	.L363
1515:App/Src/fault_command.c ****       {
 4638              		.loc 1 1515 12 is_stmt 1 view .LVU946
1515:App/Src/fault_command.c ****       {
 4639              		.loc 1 1515 16 is_stmt 0 view .LVU947
 4640 056c 1A49     		ldr	r1, .L403+72
 4641 056e 0AA8     		add	r0, sp, #40
 4642 0570 FFF7FEFF 		bl	strcmp
 4643              	.LVL454:
1515:App/Src/fault_command.c ****       {
 4644              		.loc 1 1515 15 discriminator 1 view .LVU948
 4645 0574 0028     		cmp	r0, #0
 4646 0576 00F09D80 		beq	.L364
 4647              	.LBE37:
ARM GAS  C:\Users\hh\AppData\Local\Temp\ccntMbQq.s 			page 135


1286:App/Src/fault_command.c **** 
 4648              		.loc 1 1286 21 view .LVU949
 4649 057a 0123     		movs	r3, #1
 4650 057c 1C46     		mov	r4, r3
 4651              	.LVL455:
1286:App/Src/fault_command.c **** 
 4652              		.loc 1 1286 21 view .LVU950
 4653 057e 93E5     		b	.L196
 4654              	.LVL456:
 4655              	.L361:
 4656              	.LBB46:
1469:App/Src/fault_command.c ****         for (uint8_t calCell = 1U; calCell <= VOLTAGE_SIM_CELL_COUNT; calCell++)
 4657              		.loc 1 1469 9 is_stmt 1 view .LVU951
 4658 0580 164A     		ldr	r2, .L403+76
 4659 0582 3946     		mov	r1, r7
 4660 0584 3046     		mov	r0, r6
 4661 0586 FFF7FEFF 		bl	FaultCommand_Write
 4662              	.LVL457:
1470:App/Src/fault_command.c ****         {
 4663              		.loc 1 1470 9 view .LVU952
 4664              	.LBB38:
1470:App/Src/fault_command.c ****         {
 4665              		.loc 1 1470 14 view .LVU953
1470:App/Src/fault_command.c ****         {
 4666              		.loc 1 1470 22 is_stmt 0 view .LVU954
 4667 058a 0123     		movs	r3, #1
 4668 058c 1A46     		mov	r2, r3
1470:App/Src/fault_command.c ****         {
 4669              		.loc 1 1470 9 view .LVU955
 4670 058e 39E0     		b	.L218
 4671              	.L404:
 4672              		.align	2
 4673              	.L403:
 4674 0590 58010000 		.word	.LC105
 4675 0594 60010000 		.word	.LC106
 4676 0598 68010000 		.word	.LC107
 4677 059c 7C010000 		.word	.LC109
 4678 05a0 A0010000 		.word	.LC112
 4679 05a4 AC010000 		.word	.LC113
 4680 05a8 D4000000 		.word	.LC92
 4681 05ac 48010000 		.word	.LC103
 4682 05b0 34010000 		.word	.LC101
 4683 05b4 70010000 		.word	.LC108
 4684 05b8 84010000 		.word	.LC110
 4685 05bc 90010000 		.word	.LC111
 4686 05c0 B4010000 		.word	.LC114
 4687 05c4 BC010000 		.word	.LC115
 4688 05c8 D4010000 		.word	.LC118
 4689 05cc 2C000000 		.word	.LC86
 4690 05d0 D0000000 		.word	.LC91
 4691 05d4 18020000 		.word	.LC121
 4692 05d8 38020000 		.word	.LC124
 4693 05dc DC010000 		.word	.LC119
 4694              	.LVL458:
 4695              	.L366:
1472:App/Src/fault_command.c ****                                    context,
 4696              		.loc 1 1472 11 discriminator 1 view .LVU956
ARM GAS  C:\Users\hh\AppData\Local\Temp\ccntMbQq.s 			page 136


 4697 05e0 9E4B     		ldr	r3, .L405
 4698 05e2 1D46     		mov	r5, r3
 4699              	.L219:
1477:App/Src/fault_command.c ****         }
 4700              		.loc 1 1477 41 view .LVU957
 4701 05e4 1446     		mov	r4, r2
 4702 05e6 1046     		mov	r0, r2
 4703 05e8 FFF7FEFF 		bl	VoltageSim_GetCellCalibrationOffsetMv
 4704              	.LVL459:
1472:App/Src/fault_command.c ****                                    context,
 4705              		.loc 1 1472 11 discriminator 4 view .LVU958
 4706 05ec 0190     		str	r0, [sp, #4]
 4707 05ee 0094     		str	r4, [sp]
 4708 05f0 2B46     		mov	r3, r5
 4709 05f2 9B4A     		ldr	r2, .L405+4
 4710 05f4 3946     		mov	r1, r7
 4711 05f6 3046     		mov	r0, r6
 4712 05f8 FFF7FEFF 		bl	FaultCommand_WriteFormat
 4713              	.LVL460:
1470:App/Src/fault_command.c ****         {
 4714              		.loc 1 1470 78 is_stmt 1 discriminator 2 view .LVU959
 4715 05fc 2346     		mov	r3, r4
 4716 05fe 0133     		adds	r3, r3, #1
 4717 0600 DBB2     		uxtb	r3, r3
 4718 0602 1A46     		mov	r2, r3
 4719              	.LVL461:
 4720              	.L218:
1470:App/Src/fault_command.c ****         {
 4721              		.loc 1 1470 44 discriminator 1 view .LVU960
 4722 0604 0D2A     		cmp	r2, #13
 4723 0606 04D8     		bhi	.L365
1472:App/Src/fault_command.c ****                                    context,
 4724              		.loc 1 1472 11 view .LVU961
 4725 0608 012A     		cmp	r2, #1
 4726 060a E9D0     		beq	.L366
1472:App/Src/fault_command.c ****                                    context,
 4727              		.loc 1 1472 11 is_stmt 0 discriminator 2 view .LVU962
 4728 060c 954B     		ldr	r3, .L405+8
 4729 060e 1D46     		mov	r5, r3
 4730 0610 E8E7     		b	.L219
 4731              	.L365:
 4732              	.LBE38:
1479:App/Src/fault_command.c ****         return;
 4733              		.loc 1 1479 9 is_stmt 1 view .LVU963
 4734 0612 954A     		ldr	r2, .L405+12
 4735              	.LVL462:
1479:App/Src/fault_command.c ****         return;
 4736              		.loc 1 1479 9 is_stmt 0 view .LVU964
 4737 0614 3946     		mov	r1, r7
 4738 0616 3046     		mov	r0, r6
 4739 0618 FFF7FEFF 		bl	FaultCommand_Write
 4740              	.LVL463:
1480:App/Src/fault_command.c ****       }
 4741              		.loc 1 1480 9 is_stmt 1 view .LVU965
 4742 061c 4AE5     		b	.L190
 4743              	.LVL464:
 4744              	.L362:
ARM GAS  C:\Users\hh\AppData\Local\Temp\ccntMbQq.s 			page 137


 4745              	.LBB39:
1484:App/Src/fault_command.c **** 
 4746              		.loc 1 1484 9 view .LVU966
1486:App/Src/fault_command.c ****         {
 4747              		.loc 1 1486 9 view .LVU967
1486:App/Src/fault_command.c ****         {
 4748              		.loc 1 1486 13 is_stmt 0 view .LVU968
 4749 061e FFF7FEFF 		bl	DacSafety_IsOutputAllowed
 4750              	.LVL465:
1486:App/Src/fault_command.c ****         {
 4751              		.loc 1 1486 12 discriminator 1 view .LVU969
 4752 0622 10B9     		cbnz	r0, .L367
1488:App/Src/fault_command.c ****         }
 4753              		.loc 1 1488 18 view .LVU970
 4754 0624 0223     		movs	r3, #2
 4755 0626 1C46     		mov	r4, r3
 4756              	.LVL466:
1488:App/Src/fault_command.c ****         }
 4757              		.loc 1 1488 18 view .LVU971
 4758 0628 3EE5     		b	.L196
 4759              	.LVL467:
 4760              	.L367:
1490:App/Src/fault_command.c ****             (FaultCommand_JsonGetInt(json, "offset_mv", &signedOffset) != 0U))
 4761              		.loc 1 1490 14 is_stmt 1 view .LVU972
1490:App/Src/fault_command.c ****             (FaultCommand_JsonGetInt(json, "offset_mv", &signedOffset) != 0U))
 4762              		.loc 1 1490 19 is_stmt 0 view .LVU973
 4763 062a 13AA     		add	r2, sp, #76
 4764 062c 8F49     		ldr	r1, .L405+16
 4765 062e 2046     		mov	r0, r4
 4766 0630 FFF7FEFF 		bl	FaultCommand_JsonGetUint
 4767              	.LVL468:
1490:App/Src/fault_command.c ****             (FaultCommand_JsonGetInt(json, "offset_mv", &signedOffset) != 0U))
 4768              		.loc 1 1490 17 discriminator 1 view .LVU974
 4769 0634 10B9     		cbnz	r0, .L368
 4770              	.LBE39:
 4771              	.LBE46:
1286:App/Src/fault_command.c **** 
 4772              		.loc 1 1286 21 view .LVU975
 4773 0636 0123     		movs	r3, #1
 4774 0638 1C46     		mov	r4, r3
 4775              	.LVL469:
1286:App/Src/fault_command.c **** 
 4776              		.loc 1 1286 21 view .LVU976
 4777 063a 35E5     		b	.L196
 4778              	.LVL470:
 4779              	.L368:
 4780              	.LBB47:
 4781              	.LBB40:
1491:App/Src/fault_command.c ****         {
 4782              		.loc 1 1491 14 view .LVU977
 4783 063c 08AA     		add	r2, sp, #32
 4784 063e 8C49     		ldr	r1, .L405+20
 4785 0640 2046     		mov	r0, r4
 4786 0642 FFF7FEFF 		bl	FaultCommand_JsonGetInt
 4787              	.LVL471:
1490:App/Src/fault_command.c ****             (FaultCommand_JsonGetInt(json, "offset_mv", &signedOffset) != 0U))
 4788              		.loc 1 1490 72 discriminator 2 view .LVU978
ARM GAS  C:\Users\hh\AppData\Local\Temp\ccntMbQq.s 			page 138


 4789 0646 10B9     		cbnz	r0, .L369
 4790              	.LBE40:
 4791              	.LBE47:
1286:App/Src/fault_command.c **** 
 4792              		.loc 1 1286 21 view .LVU979
 4793 0648 0123     		movs	r3, #1
 4794 064a 1C46     		mov	r4, r3
 4795              	.LVL472:
1286:App/Src/fault_command.c **** 
 4796              		.loc 1 1286 21 view .LVU980
 4797 064c 2CE5     		b	.L196
 4798              	.LVL473:
 4799              	.L369:
 4800              	.LBB48:
 4801              	.LBB41:
1493:App/Src/fault_command.c ****                                                          (int16_t)signedOffset);
 4802              		.loc 1 1493 11 is_stmt 1 view .LVU981
1493:App/Src/fault_command.c ****                                                          (int16_t)signedOffset);
 4803              		.loc 1 1493 20 is_stmt 0 view .LVU982
 4804 064e BDF92010 		ldrsh	r1, [sp, #32]
 4805 0652 9DF84C00 		ldrb	r0, [sp, #76]	@ zero_extendqisi2
 4806 0656 FFF7FEFF 		bl	VoltageSim_SetCellCalibrationOffsetMv
 4807              	.LVL474:
 4808 065a 0446     		mov	r4, r0
 4809              	.LVL475:
1493:App/Src/fault_command.c ****                                                          (int16_t)signedOffset);
 4810              		.loc 1 1493 20 view .LVU983
 4811 065c 24E5     		b	.L196
 4812              	.LVL476:
 4813              	.L363:
1493:App/Src/fault_command.c ****                                                          (int16_t)signedOffset);
 4814              		.loc 1 1493 20 view .LVU984
 4815              	.LBE41:
 4816              	.LBB42:
1499:App/Src/fault_command.c ****         uint32_t measuredMv;
 4817              		.loc 1 1499 9 is_stmt 1 view .LVU985
1500:App/Src/fault_command.c **** 
 4818              		.loc 1 1500 9 view .LVU986
1502:App/Src/fault_command.c ****         {
 4819              		.loc 1 1502 9 view .LVU987
1502:App/Src/fault_command.c ****         {
 4820              		.loc 1 1502 13 is_stmt 0 view .LVU988
 4821 065e FFF7FEFF 		bl	DacSafety_IsOutputAllowed
 4822              	.LVL477:
1502:App/Src/fault_command.c ****         {
 4823              		.loc 1 1502 12 discriminator 1 view .LVU989
 4824 0662 10B9     		cbnz	r0, .L370
1504:App/Src/fault_command.c ****         }
 4825              		.loc 1 1504 18 view .LVU990
 4826 0664 0223     		movs	r3, #2
 4827 0666 1C46     		mov	r4, r3
 4828              	.LVL478:
1504:App/Src/fault_command.c ****         }
 4829              		.loc 1 1504 18 view .LVU991
 4830 0668 1EE5     		b	.L196
 4831              	.LVL479:
 4832              	.L370:
ARM GAS  C:\Users\hh\AppData\Local\Temp\ccntMbQq.s 			page 139


1506:App/Src/fault_command.c ****             (FaultCommand_JsonGetUint(json, "target_mv", &targetMv) != 0U) &&
 4833              		.loc 1 1506 14 is_stmt 1 view .LVU992
1506:App/Src/fault_command.c ****             (FaultCommand_JsonGetUint(json, "target_mv", &targetMv) != 0U) &&
 4834              		.loc 1 1506 19 is_stmt 0 view .LVU993
 4835 066a 13AA     		add	r2, sp, #76
 4836 066c 7F49     		ldr	r1, .L405+16
 4837 066e 2046     		mov	r0, r4
 4838 0670 FFF7FEFF 		bl	FaultCommand_JsonGetUint
 4839              	.LVL480:
1506:App/Src/fault_command.c ****             (FaultCommand_JsonGetUint(json, "target_mv", &targetMv) != 0U) &&
 4840              		.loc 1 1506 17 discriminator 1 view .LVU994
 4841 0674 10B9     		cbnz	r0, .L371
 4842              	.LBE42:
 4843              	.LBE48:
1286:App/Src/fault_command.c **** 
 4844              		.loc 1 1286 21 view .LVU995
 4845 0676 0123     		movs	r3, #1
 4846 0678 1C46     		mov	r4, r3
 4847              	.LVL481:
1286:App/Src/fault_command.c **** 
 4848              		.loc 1 1286 21 view .LVU996
 4849 067a 15E5     		b	.L196
 4850              	.LVL482:
 4851              	.L371:
 4852              	.LBB49:
 4853              	.LBB43:
1507:App/Src/fault_command.c ****             (FaultCommand_JsonGetUint(json, "measured_mv", &measuredMv) != 0U))
 4854              		.loc 1 1507 14 view .LVU997
 4855 067c 06AA     		add	r2, sp, #24
 4856 067e 7D49     		ldr	r1, .L405+24
 4857 0680 2046     		mov	r0, r4
 4858 0682 FFF7FEFF 		bl	FaultCommand_JsonGetUint
 4859              	.LVL483:
1506:App/Src/fault_command.c ****             (FaultCommand_JsonGetUint(json, "target_mv", &targetMv) != 0U) &&
 4860              		.loc 1 1506 72 discriminator 2 view .LVU998
 4861 0686 10B9     		cbnz	r0, .L372
 4862              	.LBE43:
 4863              	.LBE49:
1286:App/Src/fault_command.c **** 
 4864              		.loc 1 1286 21 view .LVU999
 4865 0688 0123     		movs	r3, #1
 4866 068a 1C46     		mov	r4, r3
 4867              	.LVL484:
1286:App/Src/fault_command.c **** 
 4868              		.loc 1 1286 21 view .LVU1000
 4869 068c 0CE5     		b	.L196
 4870              	.LVL485:
 4871              	.L372:
 4872              	.LBB50:
 4873              	.LBB44:
1508:App/Src/fault_command.c ****         {
 4874              		.loc 1 1508 14 view .LVU1001
 4875 068e 08AA     		add	r2, sp, #32
 4876 0690 7949     		ldr	r1, .L405+28
 4877 0692 2046     		mov	r0, r4
 4878 0694 FFF7FEFF 		bl	FaultCommand_JsonGetUint
 4879              	.LVL486:
ARM GAS  C:\Users\hh\AppData\Local\Temp\ccntMbQq.s 			page 140


1507:App/Src/fault_command.c ****             (FaultCommand_JsonGetUint(json, "measured_mv", &measuredMv) != 0U))
 4880              		.loc 1 1507 76 view .LVU1002
 4881 0698 10B9     		cbnz	r0, .L373
 4882              	.LBE44:
 4883              	.LBE50:
1286:App/Src/fault_command.c **** 
 4884              		.loc 1 1286 21 view .LVU1003
 4885 069a 0123     		movs	r3, #1
 4886 069c 1C46     		mov	r4, r3
 4887              	.LVL487:
1286:App/Src/fault_command.c **** 
 4888              		.loc 1 1286 21 view .LVU1004
 4889 069e 03E5     		b	.L196
 4890              	.LVL488:
 4891              	.L373:
 4892              	.LBB51:
 4893              	.LBB45:
1510:App/Src/fault_command.c ****                                                   (uint16_t)targetMv,
 4894              		.loc 1 1510 11 is_stmt 1 view .LVU1005
1510:App/Src/fault_command.c ****                                                   (uint16_t)targetMv,
 4895              		.loc 1 1510 20 is_stmt 0 view .LVU1006
 4896 06a0 BDF82020 		ldrh	r2, [sp, #32]
 4897 06a4 BDF81810 		ldrh	r1, [sp, #24]
 4898 06a8 9DF84C00 		ldrb	r0, [sp, #76]	@ zero_extendqisi2
 4899 06ac FFF7FEFF 		bl	FaultCommand_RunCalibrationTrim
 4900              	.LVL489:
 4901 06b0 0446     		mov	r4, r0
 4902              	.LVL490:
1510:App/Src/fault_command.c ****                                                   (uint16_t)targetMv,
 4903              		.loc 1 1510 20 view .LVU1007
 4904 06b2 F9E4     		b	.L196
 4905              	.LVL491:
 4906              	.L364:
1510:App/Src/fault_command.c ****                                                   (uint16_t)targetMv,
 4907              		.loc 1 1510 20 view .LVU1008
 4908              	.LBE45:
1517:App/Src/fault_command.c ****         {
 4909              		.loc 1 1517 9 is_stmt 1 view .LVU1009
1517:App/Src/fault_command.c ****         {
 4910              		.loc 1 1517 13 is_stmt 0 view .LVU1010
 4911 06b4 FFF7FEFF 		bl	DacSafety_IsOutputAllowed
 4912              	.LVL492:
1517:App/Src/fault_command.c ****         {
 4913              		.loc 1 1517 12 discriminator 1 view .LVU1011
 4914 06b8 10B9     		cbnz	r0, .L374
1519:App/Src/fault_command.c ****         }
 4915              		.loc 1 1519 18 view .LVU1012
 4916 06ba 0223     		movs	r3, #2
 4917 06bc 1C46     		mov	r4, r3
 4918              	.LVL493:
1519:App/Src/fault_command.c ****         }
 4919              		.loc 1 1519 18 view .LVU1013
 4920 06be F3E4     		b	.L196
 4921              	.LVL494:
 4922              	.L374:
1521:App/Src/fault_command.c ****         {
 4923              		.loc 1 1521 14 is_stmt 1 view .LVU1014
ARM GAS  C:\Users\hh\AppData\Local\Temp\ccntMbQq.s 			page 141


1521:App/Src/fault_command.c ****         {
 4924              		.loc 1 1521 18 is_stmt 0 view .LVU1015
 4925 06c0 13AA     		add	r2, sp, #76
 4926 06c2 6A49     		ldr	r1, .L405+16
 4927 06c4 2046     		mov	r0, r4
 4928 06c6 FFF7FEFF 		bl	FaultCommand_JsonGetUint
 4929              	.LVL495:
1521:App/Src/fault_command.c ****         {
 4930              		.loc 1 1521 17 discriminator 1 view .LVU1016
 4931 06ca 0446     		mov	r4, r0
 4932              	.LVL496:
1521:App/Src/fault_command.c ****         {
 4933              		.loc 1 1521 17 discriminator 1 view .LVU1017
 4934 06cc 28B1     		cbz	r0, .L225
1523:App/Src/fault_command.c ****         }
 4935              		.loc 1 1523 11 is_stmt 1 view .LVU1018
1523:App/Src/fault_command.c ****         }
 4936              		.loc 1 1523 20 is_stmt 0 view .LVU1019
 4937 06ce 9DF84C00 		ldrb	r0, [sp, #76]	@ zero_extendqisi2
 4938 06d2 FFF7FEFF 		bl	VoltageSim_ClearCellCalibrationOffset
 4939              	.LVL497:
 4940 06d6 0446     		mov	r4, r0
 4941              	.LVL498:
1523:App/Src/fault_command.c ****         }
 4942              		.loc 1 1523 20 view .LVU1020
 4943 06d8 E6E4     		b	.L196
 4944              	.LVL499:
 4945              	.L225:
1527:App/Src/fault_command.c ****           status = HAL_OK;
 4946              		.loc 1 1527 11 is_stmt 1 view .LVU1021
 4947 06da FFF7FEFF 		bl	VoltageSim_ClearAllCalibrationOffsets
 4948              	.LVL500:
1528:App/Src/fault_command.c ****         }
 4949              		.loc 1 1528 11 view .LVU1022
1528:App/Src/fault_command.c ****         }
 4950              		.loc 1 1528 11 is_stmt 0 view .LVU1023
 4951 06de E3E4     		b	.L196
 4952              	.LVL501:
 4953              	.L289:
1528:App/Src/fault_command.c ****         }
 4954              		.loc 1 1528 11 view .LVU1024
 4955              	.LBE51:
1286:App/Src/fault_command.c **** 
 4956              		.loc 1 1286 21 view .LVU1025
 4957 06e0 0123     		movs	r3, #1
 4958 06e2 1C46     		mov	r4, r3
 4959              	.LVL502:
1286:App/Src/fault_command.c **** 
 4960              		.loc 1 1286 21 view .LVU1026
 4961 06e4 E0E4     		b	.L196
 4962              	.LVL503:
 4963              	.L332:
1535:App/Src/fault_command.c ****     {
 4964              		.loc 1 1535 5 is_stmt 1 view .LVU1027
1535:App/Src/fault_command.c ****     {
 4965              		.loc 1 1535 9 is_stmt 0 view .LVU1028
 4966 06e6 1023     		movs	r3, #16
ARM GAS  C:\Users\hh\AppData\Local\Temp\ccntMbQq.s 			page 142


 4967 06e8 14AA     		add	r2, sp, #80
 4968 06ea 6449     		ldr	r1, .L405+32
 4969 06ec 2046     		mov	r0, r4
 4970 06ee FFF7FEFF 		bl	FaultCommand_JsonGetString
 4971              	.LVL504:
1535:App/Src/fault_command.c ****     {
 4972              		.loc 1 1535 8 discriminator 1 view .LVU1029
 4973 06f2 0028     		cmp	r0, #0
 4974 06f4 00F03382 		beq	.L300
1537:App/Src/fault_command.c ****       {
 4975              		.loc 1 1537 7 is_stmt 1 view .LVU1030
1537:App/Src/fault_command.c ****       {
 4976              		.loc 1 1537 11 is_stmt 0 view .LVU1031
 4977 06f8 6149     		ldr	r1, .L405+36
 4978 06fa 14A8     		add	r0, sp, #80
 4979 06fc FFF7FEFF 		bl	strcmp
 4980              	.LVL505:
1537:App/Src/fault_command.c ****       {
 4981              		.loc 1 1537 10 discriminator 1 view .LVU1032
 4982 0700 38B1     		cbz	r0, .L375
1544:App/Src/fault_command.c ****       {
 4983              		.loc 1 1544 12 is_stmt 1 view .LVU1033
1544:App/Src/fault_command.c ****       {
 4984              		.loc 1 1544 16 is_stmt 0 view .LVU1034
 4985 0702 6049     		ldr	r1, .L405+40
 4986 0704 14A8     		add	r0, sp, #80
 4987 0706 FFF7FEFF 		bl	strcmp
 4988              	.LVL506:
1544:App/Src/fault_command.c ****       {
 4989              		.loc 1 1544 15 discriminator 1 view .LVU1035
 4990 070a 88B1     		cbz	r0, .L376
1286:App/Src/fault_command.c **** 
 4991              		.loc 1 1286 21 view .LVU1036
 4992 070c 0123     		movs	r3, #1
 4993 070e 1C46     		mov	r4, r3
 4994              	.LVL507:
1286:App/Src/fault_command.c **** 
 4995              		.loc 1 1286 21 view .LVU1037
 4996 0710 CAE4     		b	.L196
 4997              	.LVL508:
 4998              	.L375:
1539:App/Src/fault_command.c ****         {
 4999              		.loc 1 1539 9 is_stmt 1 view .LVU1038
1539:App/Src/fault_command.c ****         {
 5000              		.loc 1 1539 13 is_stmt 0 view .LVU1039
 5001 0712 12AA     		add	r2, sp, #72
 5002 0714 5C49     		ldr	r1, .L405+44
 5003 0716 2046     		mov	r0, r4
 5004 0718 FFF7FEFF 		bl	FaultCommand_JsonGetUint
 5005              	.LVL509:
1539:App/Src/fault_command.c ****         {
 5006              		.loc 1 1539 12 discriminator 1 view .LVU1040
 5007 071c 10B9     		cbnz	r0, .L377
1286:App/Src/fault_command.c **** 
 5008              		.loc 1 1286 21 view .LVU1041
 5009 071e 0123     		movs	r3, #1
 5010 0720 1C46     		mov	r4, r3
ARM GAS  C:\Users\hh\AppData\Local\Temp\ccntMbQq.s 			page 143


 5011              	.LVL510:
1286:App/Src/fault_command.c **** 
 5012              		.loc 1 1286 21 view .LVU1042
 5013 0722 C1E4     		b	.L196
 5014              	.LVL511:
 5015              	.L377:
1541:App/Src/fault_command.c ****         }
 5016              		.loc 1 1541 11 is_stmt 1 view .LVU1043
1541:App/Src/fault_command.c ****         }
 5017              		.loc 1 1541 20 is_stmt 0 view .LVU1044
 5018 0724 BDF84800 		ldrh	r0, [sp, #72]
 5019 0728 FFF7FEFF 		bl	FaultCommand_RunNormal
 5020              	.LVL512:
 5021 072c 0446     		mov	r4, r0
 5022              	.LVL513:
1541:App/Src/fault_command.c ****         }
 5023              		.loc 1 1541 20 view .LVU1045
 5024 072e BBE4     		b	.L196
 5025              	.LVL514:
 5026              	.L376:
 5027              	.LBB52:
1546:App/Src/fault_command.c ****         uint32_t high;
 5028              		.loc 1 1546 9 is_stmt 1 view .LVU1046
1547:App/Src/fault_command.c ****         uint32_t period;
 5029              		.loc 1 1547 9 view .LVU1047
1548:App/Src/fault_command.c **** 
 5030              		.loc 1 1548 9 view .LVU1048
1550:App/Src/fault_command.c ****         {
 5031              		.loc 1 1550 9 view .LVU1049
1550:App/Src/fault_command.c ****         {
 5032              		.loc 1 1550 13 is_stmt 0 view .LVU1050
 5033 0730 FFF7FEFF 		bl	DacSafety_IsOutputAllowed
 5034              	.LVL515:
1550:App/Src/fault_command.c ****         {
 5035              		.loc 1 1550 12 discriminator 1 view .LVU1051
 5036 0734 10B9     		cbnz	r0, .L378
1552:App/Src/fault_command.c ****         }
 5037              		.loc 1 1552 18 view .LVU1052
 5038 0736 0223     		movs	r3, #2
 5039 0738 1C46     		mov	r4, r3
 5040              	.LVL516:
1552:App/Src/fault_command.c ****         }
 5041              		.loc 1 1552 18 view .LVU1053
 5042 073a B5E4     		b	.L196
 5043              	.LVL517:
 5044              	.L378:
1554:App/Src/fault_command.c ****             (FaultCommand_JsonGetUint(json, "low_mv", &low) != 0U) &&
 5045              		.loc 1 1554 14 is_stmt 1 view .LVU1054
1554:App/Src/fault_command.c ****             (FaultCommand_JsonGetUint(json, "low_mv", &low) != 0U) &&
 5046              		.loc 1 1554 19 is_stmt 0 view .LVU1055
 5047 073c 13AA     		add	r2, sp, #76
 5048 073e 4B49     		ldr	r1, .L405+16
 5049 0740 2046     		mov	r0, r4
 5050 0742 FFF7FEFF 		bl	FaultCommand_JsonGetUint
 5051              	.LVL518:
1554:App/Src/fault_command.c ****             (FaultCommand_JsonGetUint(json, "low_mv", &low) != 0U) &&
 5052              		.loc 1 1554 17 discriminator 1 view .LVU1056
ARM GAS  C:\Users\hh\AppData\Local\Temp\ccntMbQq.s 			page 144


 5053 0746 10B9     		cbnz	r0, .L379
 5054              	.LBE52:
1286:App/Src/fault_command.c **** 
 5055              		.loc 1 1286 21 view .LVU1057
 5056 0748 0123     		movs	r3, #1
 5057 074a 1C46     		mov	r4, r3
 5058              	.LVL519:
1286:App/Src/fault_command.c **** 
 5059              		.loc 1 1286 21 view .LVU1058
 5060 074c ACE4     		b	.L196
 5061              	.LVL520:
 5062              	.L379:
 5063              	.LBB53:
1555:App/Src/fault_command.c ****             (FaultCommand_JsonGetUint(json, "high_mv", &high) != 0U))
 5064              		.loc 1 1555 14 view .LVU1059
 5065 074e 08AA     		add	r2, sp, #32
 5066 0750 4E49     		ldr	r1, .L405+48
 5067 0752 2046     		mov	r0, r4
 5068 0754 FFF7FEFF 		bl	FaultCommand_JsonGetUint
 5069              	.LVL521:
1554:App/Src/fault_command.c ****             (FaultCommand_JsonGetUint(json, "low_mv", &low) != 0U) &&
 5070              		.loc 1 1554 72 discriminator 2 view .LVU1060
 5071 0758 10B9     		cbnz	r0, .L380
 5072              	.LBE53:
1286:App/Src/fault_command.c **** 
 5073              		.loc 1 1286 21 view .LVU1061
 5074 075a 0123     		movs	r3, #1
 5075 075c 1C46     		mov	r4, r3
 5076              	.LVL522:
1286:App/Src/fault_command.c **** 
 5077              		.loc 1 1286 21 view .LVU1062
 5078 075e A3E4     		b	.L196
 5079              	.LVL523:
 5080              	.L380:
 5081              	.LBB54:
1556:App/Src/fault_command.c ****         {
 5082              		.loc 1 1556 14 view .LVU1063
 5083 0760 0AAA     		add	r2, sp, #40
 5084 0762 4B49     		ldr	r1, .L405+52
 5085 0764 2046     		mov	r0, r4
 5086 0766 FFF7FEFF 		bl	FaultCommand_JsonGetUint
 5087              	.LVL524:
1555:App/Src/fault_command.c ****             (FaultCommand_JsonGetUint(json, "high_mv", &high) != 0U))
 5088              		.loc 1 1555 68 view .LVU1064
 5089 076a 10B9     		cbnz	r0, .L381
 5090              	.LBE54:
1286:App/Src/fault_command.c **** 
 5091              		.loc 1 1286 21 view .LVU1065
 5092 076c 0123     		movs	r3, #1
 5093 076e 1C46     		mov	r4, r3
 5094              	.LVL525:
1286:App/Src/fault_command.c **** 
 5095              		.loc 1 1286 21 view .LVU1066
 5096 0770 9AE4     		b	.L196
 5097              	.LVL526:
 5098              	.L381:
 5099              	.LBB55:
ARM GAS  C:\Users\hh\AppData\Local\Temp\ccntMbQq.s 			page 145


1558:App/Src/fault_command.c ****           status = WaveformGen_StartSquare((uint8_t)cell,
 5100              		.loc 1 1558 11 is_stmt 1 view .LVU1067
1558:App/Src/fault_command.c ****           status = WaveformGen_StartSquare((uint8_t)cell,
 5101              		.loc 1 1558 20 is_stmt 0 view .LVU1068
 5102 0772 4FF47A72 		mov	r2, #1000
 5103 0776 4749     		ldr	r1, .L405+56
 5104 0778 2046     		mov	r0, r4
 5105 077a FFF7FEFF 		bl	FaultCommand_JsonGetUintDefault
 5106              	.LVL527:
 5107 077e 0346     		mov	r3, r0
 5108              	.LVL528:
1559:App/Src/fault_command.c ****                                            (uint16_t)low,
 5109              		.loc 1 1559 11 is_stmt 1 view .LVU1069
1559:App/Src/fault_command.c ****                                            (uint16_t)low,
 5110              		.loc 1 1559 20 is_stmt 0 view .LVU1070
 5111 0780 BDF82820 		ldrh	r2, [sp, #40]
 5112 0784 BDF82010 		ldrh	r1, [sp, #32]
 5113 0788 9DF84C00 		ldrb	r0, [sp, #76]	@ zero_extendqisi2
 5114              	.LVL529:
1559:App/Src/fault_command.c ****                                            (uint16_t)low,
 5115              		.loc 1 1559 20 view .LVU1071
 5116 078c FFF7FEFF 		bl	WaveformGen_StartSquare
 5117              	.LVL530:
1559:App/Src/fault_command.c ****                                            (uint16_t)low,
 5118              		.loc 1 1559 20 view .LVU1072
 5119 0790 0446     		mov	r4, r0
 5120              	.LVL531:
1559:App/Src/fault_command.c ****                                            (uint16_t)low,
 5121              		.loc 1 1559 20 view .LVU1073
 5122 0792 89E4     		b	.L196
 5123              	.LVL532:
 5124              	.L333:
1559:App/Src/fault_command.c ****                                            (uint16_t)low,
 5125              		.loc 1 1559 20 view .LVU1074
 5126              	.LBE55:
 5127              	.LBB56:
1569:App/Src/fault_command.c **** 
 5128              		.loc 1 1569 5 is_stmt 1 view .LVU1075
1571:App/Src/fault_command.c ****     {
 5129              		.loc 1 1571 5 view .LVU1076
1571:App/Src/fault_command.c ****     {
 5130              		.loc 1 1571 9 is_stmt 0 view .LVU1077
 5131 0794 1023     		movs	r3, #16
 5132 0796 0AAA     		add	r2, sp, #40
 5133 0798 3F49     		ldr	r1, .L405+60
 5134 079a 2046     		mov	r0, r4
 5135 079c FFF7FEFF 		bl	FaultCommand_JsonGetString
 5136              	.LVL533:
1571:App/Src/fault_command.c ****     {
 5137              		.loc 1 1571 8 discriminator 1 view .LVU1078
 5138 07a0 0028     		cmp	r0, #0
 5139 07a2 00F08D80 		beq	.L307
1573:App/Src/fault_command.c ****       {
 5140              		.loc 1 1573 7 is_stmt 1 view .LVU1079
1573:App/Src/fault_command.c ****       {
 5141              		.loc 1 1573 11 is_stmt 0 view .LVU1080
 5142 07a6 3D49     		ldr	r1, .L405+64
ARM GAS  C:\Users\hh\AppData\Local\Temp\ccntMbQq.s 			page 146


 5143 07a8 0AA8     		add	r0, sp, #40
 5144 07aa FFF7FEFF 		bl	strcmp
 5145              	.LVL534:
1573:App/Src/fault_command.c ****       {
 5146              		.loc 1 1573 10 discriminator 1 view .LVU1081
 5147 07ae 38B1     		cbz	r0, .L382
1578:App/Src/fault_command.c ****       {
 5148              		.loc 1 1578 12 is_stmt 1 view .LVU1082
1578:App/Src/fault_command.c ****       {
 5149              		.loc 1 1578 16 is_stmt 0 view .LVU1083
 5150 07b0 3B49     		ldr	r1, .L405+68
 5151 07b2 0AA8     		add	r0, sp, #40
 5152 07b4 FFF7FEFF 		bl	strcmp
 5153              	.LVL535:
1578:App/Src/fault_command.c ****       {
 5154              		.loc 1 1578 15 discriminator 1 view .LVU1084
 5155 07b8 38B1     		cbz	r0, .L383
 5156              	.LBE56:
1286:App/Src/fault_command.c **** 
 5157              		.loc 1 1286 21 view .LVU1085
 5158 07ba 0123     		movs	r3, #1
 5159 07bc 1C46     		mov	r4, r3
 5160              	.LVL536:
1286:App/Src/fault_command.c **** 
 5161              		.loc 1 1286 21 view .LVU1086
 5162 07be 73E4     		b	.L196
 5163              	.LVL537:
 5164              	.L382:
 5165              	.LBB65:
1575:App/Src/fault_command.c ****         return;
 5166              		.loc 1 1575 9 is_stmt 1 view .LVU1087
 5167 07c0 3946     		mov	r1, r7
 5168 07c2 3046     		mov	r0, r6
 5169 07c4 FFF7FEFF 		bl	FaultCommand_WriteJsonCanStatus
 5170              	.LVL538:
1576:App/Src/fault_command.c ****       }
 5171              		.loc 1 1576 9 view .LVU1088
 5172 07c8 74E4     		b	.L190
 5173              	.L383:
 5174              	.LBB57:
1580:App/Src/fault_command.c ****         uint32_t length;
 5175              		.loc 1 1580 9 view .LVU1089
1581:App/Src/fault_command.c ****         uint32_t extended;
 5176              		.loc 1 1581 9 view .LVU1090
1582:App/Src/fault_command.c ****         uint8_t data[BSP_CAN_MAX_DATA_LEN] = {0};
 5177              		.loc 1 1582 9 view .LVU1091
1583:App/Src/fault_command.c **** 
 5178              		.loc 1 1583 9 view .LVU1092
1583:App/Src/fault_command.c **** 
 5179              		.loc 1 1583 17 is_stmt 0 view .LVU1093
 5180 07ca 0690     		str	r0, [sp, #24]
 5181 07cc 0790     		str	r0, [sp, #28]
1585:App/Src/fault_command.c ****             (FaultCommand_JsonGetUint(json, "len", &length) != 0U) &&
 5182              		.loc 1 1585 9 is_stmt 1 view .LVU1094
1585:App/Src/fault_command.c ****             (FaultCommand_JsonGetUint(json, "len", &length) != 0U) &&
 5183              		.loc 1 1585 14 is_stmt 0 view .LVU1095
 5184 07ce 03AA     		add	r2, sp, #12
ARM GAS  C:\Users\hh\AppData\Local\Temp\ccntMbQq.s 			page 147


 5185 07d0 3449     		ldr	r1, .L405+72
 5186 07d2 2046     		mov	r0, r4
 5187 07d4 FFF7FEFF 		bl	FaultCommand_JsonGetUint
 5188              	.LVL539:
1585:App/Src/fault_command.c ****             (FaultCommand_JsonGetUint(json, "len", &length) != 0U) &&
 5189              		.loc 1 1585 12 discriminator 1 view .LVU1096
 5190 07d8 10B9     		cbnz	r0, .L384
 5191              	.LBE57:
 5192              	.LBE65:
1286:App/Src/fault_command.c **** 
 5193              		.loc 1 1286 21 view .LVU1097
 5194 07da 0123     		movs	r3, #1
 5195 07dc 1C46     		mov	r4, r3
 5196              	.LVL540:
1286:App/Src/fault_command.c **** 
 5197              		.loc 1 1286 21 view .LVU1098
 5198 07de 63E4     		b	.L196
 5199              	.LVL541:
 5200              	.L384:
 5201              	.LBB66:
 5202              	.LBB63:
1586:App/Src/fault_command.c ****             (length <= BSP_CAN_MAX_DATA_LEN))
 5203              		.loc 1 1586 14 view .LVU1099
 5204 07e0 04AA     		add	r2, sp, #16
 5205 07e2 3149     		ldr	r1, .L405+76
 5206 07e4 2046     		mov	r0, r4
 5207 07e6 FFF7FEFF 		bl	FaultCommand_JsonGetUint
 5208              	.LVL542:
1585:App/Src/fault_command.c ****             (FaultCommand_JsonGetUint(json, "len", &length) != 0U) &&
 5209              		.loc 1 1585 63 discriminator 2 view .LVU1100
 5210 07ea 0028     		cmp	r0, #0
 5211 07ec 64D0     		beq	.L310
1587:App/Src/fault_command.c ****         {
 5212              		.loc 1 1587 21 view .LVU1101
 5213 07ee 049B     		ldr	r3, [sp, #16]
1586:App/Src/fault_command.c ****             (length <= BSP_CAN_MAX_DATA_LEN))
 5214              		.loc 1 1586 68 view .LVU1102
 5215 07f0 082B     		cmp	r3, #8
 5216 07f2 02D9     		bls	.L385
 5217              	.LBE63:
 5218              	.LBE66:
1286:App/Src/fault_command.c **** 
 5219              		.loc 1 1286 21 view .LVU1103
 5220 07f4 0123     		movs	r3, #1
 5221 07f6 1C46     		mov	r4, r3
 5222              	.LVL543:
1286:App/Src/fault_command.c **** 
 5223              		.loc 1 1286 21 view .LVU1104
 5224 07f8 56E4     		b	.L196
 5225              	.LVL544:
 5226              	.L385:
 5227              	.LBB67:
 5228              	.LBB64:
1589:App/Src/fault_command.c ****           status = HAL_OK;
 5229              		.loc 1 1589 11 is_stmt 1 view .LVU1105
1589:App/Src/fault_command.c ****           status = HAL_OK;
 5230              		.loc 1 1589 22 is_stmt 0 view .LVU1106
ARM GAS  C:\Users\hh\AppData\Local\Temp\ccntMbQq.s 			page 148


 5231 07fa 0022     		movs	r2, #0
 5232 07fc 2B49     		ldr	r1, .L405+80
 5233 07fe 2046     		mov	r0, r4
 5234 0800 FFF7FEFF 		bl	FaultCommand_JsonGetUintDefault
 5235              	.LVL545:
 5236 0804 8046     		mov	r8, r0
 5237              	.LVL546:
1590:App/Src/fault_command.c **** 
 5238              		.loc 1 1590 11 is_stmt 1 view .LVU1107
1592:App/Src/fault_command.c ****           {
 5239              		.loc 1 1592 11 view .LVU1108
 5240              	.LBB58:
1592:App/Src/fault_command.c ****           {
 5241              		.loc 1 1592 16 view .LVU1109
1592:App/Src/fault_command.c ****           {
 5242              		.loc 1 1592 24 is_stmt 0 view .LVU1110
 5243 0806 0023     		movs	r3, #0
 5244 0808 1D46     		mov	r5, r3
 5245              	.LVL547:
 5246              	.L233:
1592:App/Src/fault_command.c ****           {
 5247              		.loc 1 1592 42 is_stmt 1 discriminator 1 view .LVU1111
 5248 080a 049B     		ldr	r3, [sp, #16]
 5249 080c 9D42     		cmp	r5, r3
 5250 080e 1AD2     		bcs	.L386
 5251              	.LBB59:
1594:App/Src/fault_command.c ****             uint32_t value;
 5252              		.loc 1 1594 13 view .LVU1112
1595:App/Src/fault_command.c **** 
 5253              		.loc 1 1595 13 view .LVU1113
1597:App/Src/fault_command.c ****             if ((FaultCommand_JsonGetUint(json, key, &value) == 0U) || (value > 0xFFU))
 5254              		.loc 1 1597 13 view .LVU1114
1597:App/Src/fault_command.c ****             if ((FaultCommand_JsonGetUint(json, key, &value) == 0U) || (value > 0xFFU))
 5255              		.loc 1 1597 19 is_stmt 0 view .LVU1115
 5256 0810 2B46     		mov	r3, r5
 5257 0812 274A     		ldr	r2, .L405+84
 5258 0814 0821     		movs	r1, #8
 5259 0816 08A8     		add	r0, sp, #32
 5260 0818 FFF7FEFF 		bl	snprintf
 5261              	.LVL548:
1598:App/Src/fault_command.c ****             {
 5262              		.loc 1 1598 13 is_stmt 1 view .LVU1116
1598:App/Src/fault_command.c ****             {
 5263              		.loc 1 1598 18 is_stmt 0 view .LVU1117
 5264 081c 05AA     		add	r2, sp, #20
 5265 081e 08A9     		add	r1, sp, #32
 5266 0820 2046     		mov	r0, r4
 5267 0822 FFF7FEFF 		bl	FaultCommand_JsonGetUint
 5268              	.LVL549:
1598:App/Src/fault_command.c ****             {
 5269              		.loc 1 1598 16 discriminator 1 view .LVU1118
 5270 0826 58B1     		cbz	r0, .L234
1598:App/Src/fault_command.c ****             {
 5271              		.loc 1 1598 79 discriminator 2 view .LVU1119
 5272 0828 059B     		ldr	r3, [sp, #20]
1598:App/Src/fault_command.c ****             {
 5273              		.loc 1 1598 69 discriminator 2 view .LVU1120
ARM GAS  C:\Users\hh\AppData\Local\Temp\ccntMbQq.s 			page 149


 5274 082a FF2B     		cmp	r3, #255
 5275 082c 08D8     		bhi	.L234
1603:App/Src/fault_command.c ****           }
 5276              		.loc 1 1603 13 is_stmt 1 view .LVU1121
1603:App/Src/fault_command.c ****           }
 5277              		.loc 1 1603 25 is_stmt 0 view .LVU1122
 5278 082e 05F17002 		add	r2, r5, #112
 5279 0832 6A44     		add	r2, sp, r2
 5280 0834 02F8583C 		strb	r3, [r2, #-88]
 5281              	.LBE59:
1592:App/Src/fault_command.c ****           {
 5282              		.loc 1 1592 57 is_stmt 1 discriminator 2 view .LVU1123
 5283 0838 6B1C     		adds	r3, r5, #1
 5284 083a DBB2     		uxtb	r3, r3
 5285 083c 1D46     		mov	r5, r3
 5286              	.LVL550:
1592:App/Src/fault_command.c ****           {
 5287              		.loc 1 1592 57 is_stmt 0 discriminator 2 view .LVU1124
 5288 083e E4E7     		b	.L233
 5289              	.LVL551:
 5290              	.L234:
 5291              	.LBB60:
1600:App/Src/fault_command.c ****               break;
 5292              		.loc 1 1600 15 is_stmt 1 view .LVU1125
1601:App/Src/fault_command.c ****             }
 5293              		.loc 1 1601 15 view .LVU1126
1601:App/Src/fault_command.c ****             }
 5294              		.loc 1 1601 15 is_stmt 0 view .LVU1127
 5295              	.LBE60:
 5296              	.LBE58:
1606:App/Src/fault_command.c ****           {
 5297              		.loc 1 1606 11 is_stmt 1 view .LVU1128
 5298              	.LBB62:
 5299              	.LBB61:
1600:App/Src/fault_command.c ****               break;
 5300              		.loc 1 1600 22 is_stmt 0 view .LVU1129
 5301 0840 0123     		movs	r3, #1
 5302 0842 1C46     		mov	r4, r3
 5303              	.LVL552:
1600:App/Src/fault_command.c ****               break;
 5304              		.loc 1 1600 22 view .LVU1130
 5305 0844 30E4     		b	.L196
 5306              	.LVL553:
 5307              	.L386:
1600:App/Src/fault_command.c ****               break;
 5308              		.loc 1 1600 22 view .LVU1131
 5309              	.LBE61:
 5310              	.LBE62:
1606:App/Src/fault_command.c ****           {
 5311              		.loc 1 1606 11 is_stmt 1 view .LVU1132
1608:App/Src/fault_command.c ****           }
 5312              		.loc 1 1608 13 view .LVU1133
1608:App/Src/fault_command.c ****           }
 5313              		.loc 1 1608 22 is_stmt 0 view .LVU1134
 5314 0846 0398     		ldr	r0, [sp, #12]
 5315 0848 4246     		mov	r2, r8
 5316 084a 9AB3     		cbz	r2, .L312
ARM GAS  C:\Users\hh\AppData\Local\Temp\ccntMbQq.s 			page 150


 5317              	.LVL554:
1608:App/Src/fault_command.c ****           }
 5318              		.loc 1 1608 22 discriminator 1 view .LVU1135
 5319 084c 0121     		movs	r1, #1
 5320              	.L237:
1608:App/Src/fault_command.c ****           }
 5321              		.loc 1 1608 22 discriminator 4 view .LVU1136
 5322 084e DBB2     		uxtb	r3, r3
 5323 0850 06AA     		add	r2, sp, #24
 5324              	.LVL555:
1608:App/Src/fault_command.c ****           }
 5325              		.loc 1 1608 22 discriminator 4 view .LVU1137
 5326 0852 FFF7FEFF 		bl	BspCan_SendClassic
 5327              	.LVL556:
 5328 0856 0446     		mov	r4, r0
 5329              	.LVL557:
1608:App/Src/fault_command.c ****           }
 5330              		.loc 1 1608 22 discriminator 4 view .LVU1138
 5331 0858 26E4     		b	.L196
 5332              	.L406:
 5333 085a 00BF     		.align	2
 5334              	.L405:
 5335 085c 00000000 		.word	.LC36
 5336 0860 F8010000 		.word	.LC120
 5337 0864 04000000 		.word	.LC37
 5338 0868 50010000 		.word	.LC40
 5339 086c D4000000 		.word	.LC92
 5340 0870 84010000 		.word	.LC110
 5341 0874 20020000 		.word	.LC122
 5342 0878 2C020000 		.word	.LC123
 5343 087c 58010000 		.word	.LC105
 5344 0880 48020000 		.word	.LC126
 5345 0884 50020000 		.word	.LC127
 5346 0888 CC000000 		.word	.LC90
 5347 088c 48010000 		.word	.LC103
 5348 0890 34010000 		.word	.LC101
 5349 0894 70010000 		.word	.LC108
 5350 0898 D4010000 		.word	.LC118
 5351 089c 2C000000 		.word	.LC86
 5352 08a0 5C020000 		.word	.LC129
 5353 08a4 64020000 		.word	.LC130
 5354 08a8 68020000 		.word	.LC131
 5355 08ac 6C020000 		.word	.LC132
 5356 08b0 78020000 		.word	.LC133
 5357              	.LVL558:
 5358              	.L312:
1608:App/Src/fault_command.c ****           }
 5359              		.loc 1 1608 22 discriminator 2 view .LVU1139
 5360 08b4 4146     		mov	r1, r8
 5361 08b6 CAE7     		b	.L237
 5362              	.LVL559:
 5363              	.L310:
1608:App/Src/fault_command.c ****           }
 5364              		.loc 1 1608 22 discriminator 2 view .LVU1140
 5365              	.LBE64:
 5366              	.LBE67:
1286:App/Src/fault_command.c **** 
ARM GAS  C:\Users\hh\AppData\Local\Temp\ccntMbQq.s 			page 151


 5367              		.loc 1 1286 21 view .LVU1141
 5368 08b8 0123     		movs	r3, #1
 5369 08ba 1C46     		mov	r4, r3
 5370              	.LVL560:
1286:App/Src/fault_command.c **** 
 5371              		.loc 1 1286 21 view .LVU1142
 5372 08bc FFF7F4BB 		b	.L196
 5373              	.LVL561:
 5374              	.L307:
1286:App/Src/fault_command.c **** 
 5375              		.loc 1 1286 21 view .LVU1143
 5376 08c0 0123     		movs	r3, #1
 5377 08c2 1C46     		mov	r4, r3
 5378              	.LVL562:
1286:App/Src/fault_command.c **** 
 5379              		.loc 1 1286 21 view .LVU1144
 5380 08c4 FFF7F0BB 		b	.L196
 5381              	.LVL563:
 5382              	.L334:
 5383              	.LBB68:
1616:App/Src/fault_command.c **** 
 5384              		.loc 1 1616 5 is_stmt 1 view .LVU1145
1618:App/Src/fault_command.c ****     {
 5385              		.loc 1 1618 5 view .LVU1146
1618:App/Src/fault_command.c ****     {
 5386              		.loc 1 1618 9 is_stmt 0 view .LVU1147
 5387 08c8 1023     		movs	r3, #16
 5388 08ca 0AAA     		add	r2, sp, #40
 5389 08cc A649     		ldr	r1, .L407
 5390 08ce 2046     		mov	r0, r4
 5391 08d0 FFF7FEFF 		bl	FaultCommand_JsonGetString
 5392              	.LVL564:
1618:App/Src/fault_command.c ****     {
 5393              		.loc 1 1618 8 discriminator 1 view .LVU1148
 5394 08d4 0028     		cmp	r0, #0
 5395 08d6 00F0B580 		beq	.L313
1620:App/Src/fault_command.c ****       {
 5396              		.loc 1 1620 7 is_stmt 1 view .LVU1149
1620:App/Src/fault_command.c ****       {
 5397              		.loc 1 1620 11 is_stmt 0 view .LVU1150
 5398 08da A449     		ldr	r1, .L407+4
 5399 08dc 0AA8     		add	r0, sp, #40
 5400 08de FFF7FEFF 		bl	strcmp
 5401              	.LVL565:
1620:App/Src/fault_command.c ****       {
 5402              		.loc 1 1620 10 discriminator 1 view .LVU1151
 5403 08e2 D0B1     		cbz	r0, .L387
1625:App/Src/fault_command.c ****       {
 5404              		.loc 1 1625 12 is_stmt 1 view .LVU1152
1625:App/Src/fault_command.c ****       {
 5405              		.loc 1 1625 16 is_stmt 0 view .LVU1153
 5406 08e4 A249     		ldr	r1, .L407+8
 5407 08e6 0AA8     		add	r0, sp, #40
 5408 08e8 FFF7FEFF 		bl	strcmp
 5409              	.LVL566:
1625:App/Src/fault_command.c ****       {
 5410              		.loc 1 1625 15 discriminator 1 view .LVU1154
ARM GAS  C:\Users\hh\AppData\Local\Temp\ccntMbQq.s 			page 152


 5411 08ec D8B1     		cbz	r0, .L388
1630:App/Src/fault_command.c ****       {
 5412              		.loc 1 1630 12 is_stmt 1 view .LVU1155
1630:App/Src/fault_command.c ****       {
 5413              		.loc 1 1630 16 is_stmt 0 view .LVU1156
 5414 08ee A149     		ldr	r1, .L407+12
 5415 08f0 0AA8     		add	r0, sp, #40
 5416 08f2 FFF7FEFF 		bl	strcmp
 5417              	.LVL567:
1630:App/Src/fault_command.c ****       {
 5418              		.loc 1 1630 15 discriminator 1 view .LVU1157
 5419 08f6 E0B1     		cbz	r0, .L389
1673:App/Src/fault_command.c ****       {
 5420              		.loc 1 1673 12 is_stmt 1 view .LVU1158
1673:App/Src/fault_command.c ****       {
 5421              		.loc 1 1673 16 is_stmt 0 view .LVU1159
 5422 08f8 9F49     		ldr	r1, .L407+16
 5423 08fa 0AA8     		add	r0, sp, #40
 5424 08fc FFF7FEFF 		bl	strcmp
 5425              	.LVL568:
1673:App/Src/fault_command.c ****       {
 5426              		.loc 1 1673 15 discriminator 1 view .LVU1160
 5427 0900 0028     		cmp	r0, #0
 5428 0902 6DD0     		beq	.L390
1692:App/Src/fault_command.c ****       {
 5429              		.loc 1 1692 12 is_stmt 1 view .LVU1161
1692:App/Src/fault_command.c ****       {
 5430              		.loc 1 1692 16 is_stmt 0 view .LVU1162
 5431 0904 9D49     		ldr	r1, .L407+20
 5432 0906 0AA8     		add	r0, sp, #40
 5433 0908 FFF7FEFF 		bl	strcmp
 5434              	.LVL569:
1692:App/Src/fault_command.c ****       {
 5435              		.loc 1 1692 15 discriminator 1 view .LVU1163
 5436 090c 0028     		cmp	r0, #0
 5437 090e 00F09180 		beq	.L391
 5438              	.LBE68:
1286:App/Src/fault_command.c **** 
 5439              		.loc 1 1286 21 view .LVU1164
 5440 0912 0123     		movs	r3, #1
 5441 0914 1C46     		mov	r4, r3
 5442              	.LVL570:
1286:App/Src/fault_command.c **** 
 5443              		.loc 1 1286 21 view .LVU1165
 5444 0916 FFF7C7BB 		b	.L196
 5445              	.LVL571:
 5446              	.L387:
 5447              	.LBB73:
1622:App/Src/fault_command.c ****         return;
 5448              		.loc 1 1622 9 is_stmt 1 view .LVU1166
 5449 091a 3946     		mov	r1, r7
 5450 091c 3046     		mov	r0, r6
 5451 091e FFF7FEFF 		bl	FaultCommand_WriteJsonBmsResponseLog
 5452              	.LVL572:
1623:App/Src/fault_command.c ****       }
 5453              		.loc 1 1623 9 view .LVU1167
 5454 0922 FFF7C7BB 		b	.L190
ARM GAS  C:\Users\hh\AppData\Local\Temp\ccntMbQq.s 			page 153


 5455              	.L388:
1627:App/Src/fault_command.c ****         status = HAL_OK;
 5456              		.loc 1 1627 9 view .LVU1168
 5457 0926 FFF7FEFF 		bl	BmsResponseLog_Clear
 5458              	.LVL573:
1628:App/Src/fault_command.c ****       }
 5459              		.loc 1 1628 9 view .LVU1169
1628:App/Src/fault_command.c ****       }
 5460              		.loc 1 1628 16 is_stmt 0 view .LVU1170
 5461 092a 0023     		movs	r3, #0
 5462 092c 1C46     		mov	r4, r3
 5463              	.LVL574:
1628:App/Src/fault_command.c ****       }
 5464              		.loc 1 1628 16 view .LVU1171
 5465 092e FFF7BBBB 		b	.L196
 5466              	.LVL575:
 5467              	.L389:
 5468              	.LBB69:
1632:App/Src/fault_command.c ****         uint32_t id;
 5469              		.loc 1 1632 9 is_stmt 1 view .LVU1172
1633:App/Src/fault_command.c ****         uint32_t mask;
 5470              		.loc 1 1633 9 view .LVU1173
1634:App/Src/fault_command.c ****         uint8_t isExtended = 0U;
 5471              		.loc 1 1634 9 view .LVU1174
1635:App/Src/fault_command.c **** 
 5472              		.loc 1 1635 9 view .LVU1175
1637:App/Src/fault_command.c ****         {
 5473              		.loc 1 1637 9 view .LVU1176
1637:App/Src/fault_command.c ****         {
 5474              		.loc 1 1637 13 is_stmt 0 view .LVU1177
 5475 0932 0823     		movs	r3, #8
 5476 0934 08AA     		add	r2, sp, #32
 5477 0936 9249     		ldr	r1, .L407+24
 5478 0938 2046     		mov	r0, r4
 5479 093a FFF7FEFF 		bl	FaultCommand_JsonGetString
 5480              	.LVL576:
1637:App/Src/fault_command.c ****         {
 5481              		.loc 1 1637 12 discriminator 1 view .LVU1178
 5482 093e 08B3     		cbz	r0, .L392
1643:App/Src/fault_command.c ****         {
 5483              		.loc 1 1643 9 is_stmt 1 view .LVU1179
1643:App/Src/fault_command.c ****         {
 5484              		.loc 1 1643 13 is_stmt 0 view .LVU1180
 5485 0940 9049     		ldr	r1, .L407+28
 5486 0942 08A8     		add	r0, sp, #32
 5487 0944 FFF7FEFF 		bl	strcmp
 5488              	.LVL577:
1643:App/Src/fault_command.c ****         {
 5489              		.loc 1 1643 12 discriminator 1 view .LVU1181
 5490 0948 20B3     		cbz	r0, .L393
1650:App/Src/fault_command.c ****         {
 5491              		.loc 1 1650 9 is_stmt 1 view .LVU1182
1650:App/Src/fault_command.c ****         {
 5492              		.loc 1 1650 13 is_stmt 0 view .LVU1183
 5493 094a 8F49     		ldr	r1, .L407+32
 5494 094c 08A8     		add	r0, sp, #32
 5495 094e FFF7FEFF 		bl	strcmp
ARM GAS  C:\Users\hh\AppData\Local\Temp\ccntMbQq.s 			page 154


 5496              	.LVL578:
1650:App/Src/fault_command.c ****         {
 5497              		.loc 1 1650 12 discriminator 1 view .LVU1184
 5498 0952 38B3     		cbz	r0, .L394
1655:App/Src/fault_command.c ****         {
 5499              		.loc 1 1655 14 is_stmt 1 view .LVU1185
1655:App/Src/fault_command.c ****         {
 5500              		.loc 1 1655 18 is_stmt 0 view .LVU1186
 5501 0954 8D49     		ldr	r1, .L407+36
 5502 0956 08A8     		add	r0, sp, #32
 5503 0958 FFF7FEFF 		bl	strcmp
 5504              	.LVL579:
1655:App/Src/fault_command.c ****         {
 5505              		.loc 1 1655 17 discriminator 1 view .LVU1187
 5506 095c 60BB     		cbnz	r0, .L249
1657:App/Src/fault_command.c ****           mask = FaultCommand_JsonGetUintDefault(json, "mask", 0x1FFFFFFFU);
 5507              		.loc 1 1657 11 is_stmt 1 view .LVU1188
 5508              	.LVL580:
1658:App/Src/fault_command.c ****         }
 5509              		.loc 1 1658 11 view .LVU1189
1658:App/Src/fault_command.c ****         }
 5510              		.loc 1 1658 18 is_stmt 0 view .LVU1190
 5511 095e 6FF06042 		mvn	r2, #-536870912
 5512 0962 8B49     		ldr	r1, .L407+40
 5513 0964 2046     		mov	r0, r4
 5514 0966 FFF7FEFF 		bl	FaultCommand_JsonGetUintDefault
 5515              	.LVL581:
 5516 096a 0546     		mov	r5, r0
 5517              	.LVL582:
1657:App/Src/fault_command.c ****           mask = FaultCommand_JsonGetUintDefault(json, "mask", 0x1FFFFFFFU);
 5518              		.loc 1 1657 22 view .LVU1191
 5519 096c 0123     		movs	r3, #1
 5520 096e 9846     		mov	r8, r3
 5521              	.LVL583:
 5522              	.L248:
1666:App/Src/fault_command.c ****         {
 5523              		.loc 1 1666 9 is_stmt 1 view .LVU1192
1666:App/Src/fault_command.c ****         {
 5524              		.loc 1 1666 13 is_stmt 0 view .LVU1193
 5525 0970 06AA     		add	r2, sp, #24
 5526 0972 8849     		ldr	r1, .L407+44
 5527 0974 2046     		mov	r0, r4
 5528              	.LVL584:
1666:App/Src/fault_command.c ****         {
 5529              		.loc 1 1666 13 view .LVU1194
 5530 0976 FFF7FEFF 		bl	FaultCommand_JsonGetUint
 5531              	.LVL585:
1666:App/Src/fault_command.c ****         {
 5532              		.loc 1 1666 12 discriminator 1 view .LVU1195
 5533 097a 28BB     		cbnz	r0, .L395
1666:App/Src/fault_command.c ****         {
 5534              		.loc 1 1666 12 discriminator 1 view .LVU1196
 5535              	.LBE69:
 5536              	.LBE73:
1286:App/Src/fault_command.c **** 
 5537              		.loc 1 1286 21 view .LVU1197
 5538 097c 0123     		movs	r3, #1
ARM GAS  C:\Users\hh\AppData\Local\Temp\ccntMbQq.s 			page 155


 5539 097e 1C46     		mov	r4, r3
 5540              	.LVL586:
 5541              	.LBB74:
1286:App/Src/fault_command.c **** 
 5542              		.loc 1 1286 21 view .LVU1198
 5543 0980 FFF792BB 		b	.L196
 5544              	.LVL587:
 5545              	.L392:
 5546              	.LBB70:
1639:App/Src/fault_command.c ****           return;
 5547              		.loc 1 1639 11 is_stmt 1 view .LVU1199
 5548 0984 0123     		movs	r3, #1
 5549 0986 18AA     		add	r2, sp, #96
 5550 0988 3946     		mov	r1, r7
 5551 098a 3046     		mov	r0, r6
 5552 098c FFF7FEFF 		bl	FaultCommand_WriteJsonResult
 5553              	.LVL588:
1640:App/Src/fault_command.c ****         }
 5554              		.loc 1 1640 11 view .LVU1200
 5555 0990 FFF790BB 		b	.L190
 5556              	.L393:
1645:App/Src/fault_command.c ****           FaultCommand_WriteJsonBmsResponseLog(write, context);
 5557              		.loc 1 1645 11 view .LVU1201
 5558 0994 FFF7FEFF 		bl	BmsResponseLog_DisableFilter
 5559              	.LVL589:
1646:App/Src/fault_command.c ****           return;
 5560              		.loc 1 1646 11 view .LVU1202
 5561 0998 3946     		mov	r1, r7
 5562 099a 3046     		mov	r0, r6
 5563 099c FFF7FEFF 		bl	FaultCommand_WriteJsonBmsResponseLog
 5564              	.LVL590:
1647:App/Src/fault_command.c ****         }
 5565              		.loc 1 1647 11 view .LVU1203
 5566 09a0 FFF788BB 		b	.L190
 5567              	.L394:
1652:App/Src/fault_command.c ****           mask = FaultCommand_JsonGetUintDefault(json, "mask", 0x7FFU);
 5568              		.loc 1 1652 11 view .LVU1204
1653:App/Src/fault_command.c ****         }
 5569              		.loc 1 1653 11 view .LVU1205
1653:App/Src/fault_command.c ****         }
 5570              		.loc 1 1653 18 is_stmt 0 view .LVU1206
 5571 09a4 40F2FF72 		movw	r2, #2047
 5572 09a8 7949     		ldr	r1, .L407+40
 5573 09aa 2046     		mov	r0, r4
 5574 09ac FFF7FEFF 		bl	FaultCommand_JsonGetUintDefault
 5575              	.LVL591:
 5576 09b0 0546     		mov	r5, r0
 5577              	.LVL592:
1652:App/Src/fault_command.c ****           mask = FaultCommand_JsonGetUintDefault(json, "mask", 0x7FFU);
 5578              		.loc 1 1652 22 view .LVU1207
 5579 09b2 0023     		movs	r3, #0
 5580 09b4 9846     		mov	r8, r3
 5581 09b6 DBE7     		b	.L248
 5582              	.LVL593:
 5583              	.L249:
1662:App/Src/fault_command.c ****           return;
 5584              		.loc 1 1662 11 is_stmt 1 view .LVU1208
ARM GAS  C:\Users\hh\AppData\Local\Temp\ccntMbQq.s 			page 156


 5585 09b8 0123     		movs	r3, #1
 5586 09ba 18AA     		add	r2, sp, #96
 5587 09bc 3946     		mov	r1, r7
 5588 09be 3046     		mov	r0, r6
 5589 09c0 FFF7FEFF 		bl	FaultCommand_WriteJsonResult
 5590              	.LVL594:
1663:App/Src/fault_command.c ****         }
 5591              		.loc 1 1663 11 view .LVU1209
 5592 09c4 FFF776BB 		b	.L190
 5593              	.LVL595:
 5594              	.L395:
1668:App/Src/fault_command.c ****           FaultCommand_WriteJsonBmsResponseLog(write, context);
 5595              		.loc 1 1668 11 view .LVU1210
1668:App/Src/fault_command.c ****           FaultCommand_WriteJsonBmsResponseLog(write, context);
 5596              		.loc 1 1668 20 is_stmt 0 view .LVU1211
 5597 09c8 2B46     		mov	r3, r5
 5598 09ca 069A     		ldr	r2, [sp, #24]
 5599 09cc 4146     		mov	r1, r8
 5600 09ce 0120     		movs	r0, #1
 5601 09d0 FFF7FEFF 		bl	BmsResponseLog_SetFilter
 5602              	.LVL596:
1669:App/Src/fault_command.c ****           return;
 5603              		.loc 1 1669 11 is_stmt 1 view .LVU1212
 5604 09d4 3946     		mov	r1, r7
 5605 09d6 3046     		mov	r0, r6
 5606 09d8 FFF7FEFF 		bl	FaultCommand_WriteJsonBmsResponseLog
 5607              	.LVL597:
1670:App/Src/fault_command.c ****         }
 5608              		.loc 1 1670 11 view .LVU1213
 5609 09dc FFF76ABB 		b	.L190
 5610              	.LVL598:
 5611              	.L390:
1670:App/Src/fault_command.c ****         }
 5612              		.loc 1 1670 11 is_stmt 0 view .LVU1214
 5613              	.LBE70:
 5614              	.LBB71:
1675:App/Src/fault_command.c ****         uint32_t mask;
 5615              		.loc 1 1675 9 is_stmt 1 view .LVU1215
1676:App/Src/fault_command.c ****         uint32_t value;
 5616              		.loc 1 1676 9 view .LVU1216
1677:App/Src/fault_command.c **** 
 5617              		.loc 1 1677 9 view .LVU1217
1679:App/Src/fault_command.c ****             (FaultCommand_JsonGetUint(json, "mask", &mask) != 0U) &&
 5618              		.loc 1 1679 9 view .LVU1218
1679:App/Src/fault_command.c ****             (FaultCommand_JsonGetUint(json, "mask", &mask) != 0U) &&
 5619              		.loc 1 1679 14 is_stmt 0 view .LVU1219
 5620 09e0 05AA     		add	r2, sp, #20
 5621 09e2 6D49     		ldr	r1, .L407+48
 5622 09e4 2046     		mov	r0, r4
 5623 09e6 FFF7FEFF 		bl	FaultCommand_JsonGetUint
 5624              	.LVL599:
1679:App/Src/fault_command.c ****             (FaultCommand_JsonGetUint(json, "mask", &mask) != 0U) &&
 5625              		.loc 1 1679 12 discriminator 1 view .LVU1220
 5626 09ea 18B9     		cbnz	r0, .L396
 5627              	.L252:
 5628              	.LBE71:
 5629              	.LBE74:
ARM GAS  C:\Users\hh\AppData\Local\Temp\ccntMbQq.s 			page 157


1286:App/Src/fault_command.c **** 
 5630              		.loc 1 1286 21 view .LVU1221
 5631 09ec 0123     		movs	r3, #1
 5632 09ee 1C46     		mov	r4, r3
 5633              	.LVL600:
 5634              	.LBB75:
1286:App/Src/fault_command.c **** 
 5635              		.loc 1 1286 21 view .LVU1222
 5636 09f0 FFF75ABB 		b	.L196
 5637              	.LVL601:
 5638              	.L396:
 5639              	.LBB72:
1680:App/Src/fault_command.c ****             (FaultCommand_JsonGetUint(json, "value", &value) != 0U) &&
 5640              		.loc 1 1680 14 view .LVU1223
 5641 09f4 06AA     		add	r2, sp, #24
 5642 09f6 6649     		ldr	r1, .L407+40
 5643 09f8 2046     		mov	r0, r4
 5644 09fa FFF7FEFF 		bl	FaultCommand_JsonGetUint
 5645              	.LVL602:
1679:App/Src/fault_command.c ****             (FaultCommand_JsonGetUint(json, "mask", &mask) != 0U) &&
 5646              		.loc 1 1679 69 discriminator 2 view .LVU1224
 5647 09fe 0028     		cmp	r0, #0
 5648 0a00 F4D0     		beq	.L252
1681:App/Src/fault_command.c ****             (mask <= 0xFFU) &&
 5649              		.loc 1 1681 14 view .LVU1225
 5650 0a02 08AA     		add	r2, sp, #32
 5651 0a04 6549     		ldr	r1, .L407+52
 5652 0a06 2046     		mov	r0, r4
 5653 0a08 FFF7FEFF 		bl	FaultCommand_JsonGetUint
 5654              	.LVL603:
1680:App/Src/fault_command.c ****             (FaultCommand_JsonGetUint(json, "value", &value) != 0U) &&
 5655              		.loc 1 1680 67 view .LVU1226
 5656 0a0c 0028     		cmp	r0, #0
 5657 0a0e EDD0     		beq	.L252
1682:App/Src/fault_command.c ****             (value <= 0xFFU))
 5658              		.loc 1 1682 19 view .LVU1227
 5659 0a10 0699     		ldr	r1, [sp, #24]
1681:App/Src/fault_command.c ****             (mask <= 0xFFU) &&
 5660              		.loc 1 1681 69 view .LVU1228
 5661 0a12 FF29     		cmp	r1, #255
 5662 0a14 EAD8     		bhi	.L252
1683:App/Src/fault_command.c ****         {
 5663              		.loc 1 1683 20 view .LVU1229
 5664 0a16 089A     		ldr	r2, [sp, #32]
1682:App/Src/fault_command.c ****             (value <= 0xFFU))
 5665              		.loc 1 1682 29 view .LVU1230
 5666 0a18 FF2A     		cmp	r2, #255
 5667 0a1a E7D8     		bhi	.L252
1685:App/Src/fault_command.c ****                                                 (uint8_t)mask,
 5668              		.loc 1 1685 11 is_stmt 1 view .LVU1231
1685:App/Src/fault_command.c ****                                                 (uint8_t)mask,
 5669              		.loc 1 1685 20 is_stmt 0 view .LVU1232
 5670 0a1c D2B2     		uxtb	r2, r2
 5671 0a1e C9B2     		uxtb	r1, r1
 5672 0a20 9DF81400 		ldrb	r0, [sp, #20]	@ zero_extendqisi2
 5673 0a24 FFF7FEFF 		bl	BmsResponseLog_SetDataFilter
 5674              	.LVL604:
ARM GAS  C:\Users\hh\AppData\Local\Temp\ccntMbQq.s 			page 158


1688:App/Src/fault_command.c ****           return;
 5675              		.loc 1 1688 11 is_stmt 1 view .LVU1233
 5676 0a28 3946     		mov	r1, r7
 5677 0a2a 3046     		mov	r0, r6
 5678 0a2c FFF7FEFF 		bl	FaultCommand_WriteJsonBmsResponseLog
 5679              	.LVL605:
1689:App/Src/fault_command.c ****         }
 5680              		.loc 1 1689 11 view .LVU1234
 5681 0a30 FFF740BB 		b	.L190
 5682              	.LVL606:
 5683              	.L391:
1689:App/Src/fault_command.c ****         }
 5684              		.loc 1 1689 11 is_stmt 0 view .LVU1235
 5685              	.LBE72:
1694:App/Src/fault_command.c ****         FaultCommand_WriteJsonBmsResponseLog(write, context);
 5686              		.loc 1 1694 9 is_stmt 1 view .LVU1236
 5687 0a34 FFF7FEFF 		bl	BmsResponseLog_ClearDataFilter
 5688              	.LVL607:
1695:App/Src/fault_command.c ****         return;
 5689              		.loc 1 1695 9 view .LVU1237
 5690 0a38 3946     		mov	r1, r7
 5691 0a3a 3046     		mov	r0, r6
 5692 0a3c FFF7FEFF 		bl	FaultCommand_WriteJsonBmsResponseLog
 5693              	.LVL608:
1696:App/Src/fault_command.c ****       }
 5694              		.loc 1 1696 9 view .LVU1238
 5695 0a40 FFF738BB 		b	.L190
 5696              	.L313:
1696:App/Src/fault_command.c ****       }
 5697              		.loc 1 1696 9 is_stmt 0 view .LVU1239
 5698              	.LBE75:
1286:App/Src/fault_command.c **** 
 5699              		.loc 1 1286 21 view .LVU1240
 5700 0a44 0123     		movs	r3, #1
 5701 0a46 1C46     		mov	r4, r3
 5702              	.LVL609:
1286:App/Src/fault_command.c **** 
 5703              		.loc 1 1286 21 view .LVU1241
 5704 0a48 FFF72EBB 		b	.L196
 5705              	.LVL610:
 5706              	.L335:
 5707              	.LBB76:
1702:App/Src/fault_command.c **** 
 5708              		.loc 1 1702 5 is_stmt 1 view .LVU1242
1704:App/Src/fault_command.c ****     {
 5709              		.loc 1 1704 5 view .LVU1243
1704:App/Src/fault_command.c ****     {
 5710              		.loc 1 1704 9 is_stmt 0 view .LVU1244
 5711 0a4c 1023     		movs	r3, #16
 5712 0a4e 0AAA     		add	r2, sp, #40
 5713 0a50 4549     		ldr	r1, .L407
 5714 0a52 2046     		mov	r0, r4
 5715 0a54 FFF7FEFF 		bl	FaultCommand_JsonGetString
 5716              	.LVL611:
1704:App/Src/fault_command.c ****     {
 5717              		.loc 1 1704 8 discriminator 1 view .LVU1245
 5718 0a58 98B3     		cbz	r0, .L315
ARM GAS  C:\Users\hh\AppData\Local\Temp\ccntMbQq.s 			page 159


1706:App/Src/fault_command.c ****       {
 5719              		.loc 1 1706 7 is_stmt 1 view .LVU1246
1706:App/Src/fault_command.c ****       {
 5720              		.loc 1 1706 11 is_stmt 0 view .LVU1247
 5721 0a5a 4449     		ldr	r1, .L407+4
 5722 0a5c 0AA8     		add	r0, sp, #40
 5723 0a5e FFF7FEFF 		bl	strcmp
 5724              	.LVL612:
1706:App/Src/fault_command.c ****       {
 5725              		.loc 1 1706 10 discriminator 1 view .LVU1248
 5726 0a62 C8B1     		cbz	r0, .L397
1711:App/Src/fault_command.c ****       {
 5727              		.loc 1 1711 12 is_stmt 1 view .LVU1249
1711:App/Src/fault_command.c ****       {
 5728              		.loc 1 1711 17 is_stmt 0 view .LVU1250
 5729 0a64 4E49     		ldr	r1, .L407+56
 5730 0a66 0AA8     		add	r0, sp, #40
 5731 0a68 FFF7FEFF 		bl	strcmp
 5732              	.LVL613:
1711:App/Src/fault_command.c ****       {
 5733              		.loc 1 1711 15 discriminator 1 view .LVU1251
 5734 0a6c 20B1     		cbz	r0, .L256
1711:App/Src/fault_command.c ****       {
 5735              		.loc 1 1711 50 discriminator 2 view .LVU1252
 5736 0a6e 4D49     		ldr	r1, .L407+60
 5737 0a70 0AA8     		add	r0, sp, #40
 5738 0a72 FFF7FEFF 		bl	strcmp
 5739              	.LVL614:
1711:App/Src/fault_command.c ****       {
 5740              		.loc 1 1711 46 discriminator 3 view .LVU1253
 5741 0a76 A8B9     		cbnz	r0, .L257
 5742              	.L256:
1713:App/Src/fault_command.c ****         FaultCommand_StopAllWaveforms();
 5743              		.loc 1 1713 9 is_stmt 1 view .LVU1254
1713:App/Src/fault_command.c ****         FaultCommand_StopAllWaveforms();
 5744              		.loc 1 1713 14 is_stmt 0 view .LVU1255
 5745 0a78 4FF44862 		mov	r2, #3200
 5746 0a7c 4A49     		ldr	r1, .L407+64
 5747 0a7e 2046     		mov	r0, r4
 5748 0a80 FFF7FEFF 		bl	FaultCommand_JsonGetUintDefault
 5749              	.LVL615:
1713:App/Src/fault_command.c ****         FaultCommand_StopAllWaveforms();
 5750              		.loc 1 1713 12 discriminator 1 view .LVU1256
 5751 0a84 1290     		str	r0, [sp, #72]
1714:App/Src/fault_command.c ****         status = DacSafety_EmergencyStop((uint16_t)mv);
 5752              		.loc 1 1714 9 is_stmt 1 view .LVU1257
 5753 0a86 FFF7FEFF 		bl	FaultCommand_StopAllWaveforms
 5754              	.LVL616:
1715:App/Src/fault_command.c ****       }
 5755              		.loc 1 1715 9 view .LVU1258
1715:App/Src/fault_command.c ****       }
 5756              		.loc 1 1715 18 is_stmt 0 view .LVU1259
 5757 0a8a BDF84800 		ldrh	r0, [sp, #72]
 5758 0a8e FFF7FEFF 		bl	DacSafety_EmergencyStop
 5759              	.LVL617:
 5760 0a92 0446     		mov	r4, r0
 5761              	.LVL618:
ARM GAS  C:\Users\hh\AppData\Local\Temp\ccntMbQq.s 			page 160


1715:App/Src/fault_command.c ****       }
 5762              		.loc 1 1715 16 view .LVU1260
 5763 0a94 FFF708BB 		b	.L196
 5764              	.LVL619:
 5765              	.L397:
1708:App/Src/fault_command.c ****         return;
 5766              		.loc 1 1708 9 is_stmt 1 view .LVU1261
 5767 0a98 3946     		mov	r1, r7
 5768 0a9a 3046     		mov	r0, r6
 5769 0a9c FFF7FEFF 		bl	FaultCommand_WriteJsonSafetyStatus
 5770              	.LVL620:
1709:App/Src/fault_command.c ****       }
 5771              		.loc 1 1709 9 view .LVU1262
 5772 0aa0 FFF708BB 		b	.L190
 5773              	.L257:
1717:App/Src/fault_command.c ****       {
 5774              		.loc 1 1717 12 view .LVU1263
1717:App/Src/fault_command.c ****       {
 5775              		.loc 1 1717 16 is_stmt 0 view .LVU1264
 5776 0aa4 4149     		ldr	r1, .L407+68
 5777 0aa6 0AA8     		add	r0, sp, #40
 5778 0aa8 FFF7FEFF 		bl	strcmp
 5779              	.LVL621:
1717:App/Src/fault_command.c ****       {
 5780              		.loc 1 1717 15 discriminator 1 view .LVU1265
 5781 0aac 18B1     		cbz	r0, .L398
 5782              	.LBE76:
1286:App/Src/fault_command.c **** 
 5783              		.loc 1 1286 21 view .LVU1266
 5784 0aae 0123     		movs	r3, #1
 5785 0ab0 1C46     		mov	r4, r3
 5786              	.LVL622:
1286:App/Src/fault_command.c **** 
 5787              		.loc 1 1286 21 view .LVU1267
 5788 0ab2 FFF7F9BA 		b	.L196
 5789              	.LVL623:
 5790              	.L398:
 5791              	.LBB77:
1719:App/Src/fault_command.c ****         status = HAL_OK;
 5792              		.loc 1 1719 9 is_stmt 1 view .LVU1268
 5793 0ab6 FFF7FEFF 		bl	DacSafety_Release
 5794              	.LVL624:
1720:App/Src/fault_command.c ****       }
 5795              		.loc 1 1720 9 view .LVU1269
1720:App/Src/fault_command.c ****       }
 5796              		.loc 1 1720 16 is_stmt 0 view .LVU1270
 5797 0aba 0023     		movs	r3, #0
 5798 0abc 1C46     		mov	r4, r3
 5799              	.LVL625:
1720:App/Src/fault_command.c ****       }
 5800              		.loc 1 1720 16 view .LVU1271
 5801 0abe FFF7F3BA 		b	.L196
 5802              	.LVL626:
 5803              	.L315:
1720:App/Src/fault_command.c ****       }
 5804              		.loc 1 1720 16 view .LVU1272
 5805              	.LBE77:
ARM GAS  C:\Users\hh\AppData\Local\Temp\ccntMbQq.s 			page 161


1286:App/Src/fault_command.c **** 
 5806              		.loc 1 1286 21 view .LVU1273
 5807 0ac2 0123     		movs	r3, #1
 5808 0ac4 1C46     		mov	r4, r3
 5809              	.LVL627:
1286:App/Src/fault_command.c **** 
 5810              		.loc 1 1286 21 view .LVU1274
 5811 0ac6 FFF7EFBA 		b	.L196
 5812              	.LVL628:
 5813              	.L336:
 5814              	.LBB78:
1726:App/Src/fault_command.c **** 
 5815              		.loc 1 1726 5 is_stmt 1 view .LVU1275
1728:App/Src/fault_command.c ****     {
 5816              		.loc 1 1728 5 view .LVU1276
1728:App/Src/fault_command.c ****     {
 5817              		.loc 1 1728 9 is_stmt 0 view .LVU1277
 5818 0aca 1023     		movs	r3, #16
 5819 0acc 0AAA     		add	r2, sp, #40
 5820 0ace 2649     		ldr	r1, .L407
 5821 0ad0 2046     		mov	r0, r4
 5822 0ad2 FFF7FEFF 		bl	FaultCommand_JsonGetString
 5823              	.LVL629:
1728:App/Src/fault_command.c ****     {
 5824              		.loc 1 1728 8 discriminator 1 view .LVU1278
 5825 0ad6 48B1     		cbz	r0, .L259
1730:App/Src/fault_command.c ****       {
 5826              		.loc 1 1730 7 is_stmt 1 view .LVU1279
1730:App/Src/fault_command.c ****       {
 5827              		.loc 1 1730 11 is_stmt 0 view .LVU1280
 5828 0ad8 2449     		ldr	r1, .L407+4
 5829 0ada 0AA8     		add	r0, sp, #40
 5830 0adc FFF7FEFF 		bl	strcmp
 5831              	.LVL630:
1730:App/Src/fault_command.c ****       {
 5832              		.loc 1 1730 10 discriminator 1 view .LVU1281
 5833 0ae0 40B1     		cbz	r0, .L399
1735:App/Src/fault_command.c ****       {
 5834              		.loc 1 1735 12 is_stmt 1 view .LVU1282
1735:App/Src/fault_command.c ****       {
 5835              		.loc 1 1735 16 is_stmt 0 view .LVU1283
 5836 0ae2 3349     		ldr	r1, .L407+72
 5837 0ae4 0AA8     		add	r0, sp, #40
 5838 0ae6 FFF7FEFF 		bl	strcmp
 5839              	.LVL631:
1735:App/Src/fault_command.c ****       {
 5840              		.loc 1 1735 15 discriminator 1 view .LVU1284
 5841 0aea 50B1     		cbz	r0, .L400
 5842              	.L259:
 5843              	.LBE78:
1286:App/Src/fault_command.c **** 
 5844              		.loc 1 1286 21 view .LVU1285
 5845 0aec 0123     		movs	r3, #1
 5846 0aee 1C46     		mov	r4, r3
 5847              	.LVL632:
1286:App/Src/fault_command.c **** 
 5848              		.loc 1 1286 21 view .LVU1286
ARM GAS  C:\Users\hh\AppData\Local\Temp\ccntMbQq.s 			page 162


 5849 0af0 FFF7DABA 		b	.L196
 5850              	.LVL633:
 5851              	.L399:
 5852              	.LBB80:
1732:App/Src/fault_command.c ****         return;
 5853              		.loc 1 1732 9 is_stmt 1 view .LVU1287
 5854 0af4 0246     		mov	r2, r0
 5855 0af6 3946     		mov	r1, r7
 5856 0af8 3046     		mov	r0, r6
 5857 0afa FFF7FEFF 		bl	FaultCommand_WriteJsonSramStatus
 5858              	.LVL634:
1733:App/Src/fault_command.c ****       }
 5859              		.loc 1 1733 9 view .LVU1288
 5860 0afe FFF7D9BA 		b	.L190
 5861              	.L400:
 5862              	.LBB79:
1737:App/Src/fault_command.c ****                                                          "bytes",
 5863              		.loc 1 1737 9 view .LVU1289
1737:App/Src/fault_command.c ****                                                          "bytes",
 5864              		.loc 1 1737 26 is_stmt 0 view .LVU1290
 5865 0b02 4FF48032 		mov	r2, #65536
 5866 0b06 2B49     		ldr	r1, .L407+76
 5867 0b08 2046     		mov	r0, r4
 5868 0b0a FFF7FEFF 		bl	FaultCommand_JsonGetUintDefault
 5869              	.LVL635:
1740:App/Src/fault_command.c ****         FaultCommand_WriteJsonSramStatus(write, context, status);
 5870              		.loc 1 1740 9 is_stmt 1 view .LVU1291
1740:App/Src/fault_command.c ****         FaultCommand_WriteJsonSramStatus(write, context, status);
 5871              		.loc 1 1740 18 is_stmt 0 view .LVU1292
 5872 0b0e FFF7FEFF 		bl	BspSram_RunSelfTest
 5873              	.LVL636:
1740:App/Src/fault_command.c ****         FaultCommand_WriteJsonSramStatus(write, context, status);
 5874              		.loc 1 1740 18 view .LVU1293
 5875 0b12 0246     		mov	r2, r0
 5876              	.LVL637:
1741:App/Src/fault_command.c ****         return;
 5877              		.loc 1 1741 9 is_stmt 1 view .LVU1294
 5878 0b14 3946     		mov	r1, r7
 5879 0b16 3046     		mov	r0, r6
 5880 0b18 FFF7FEFF 		bl	FaultCommand_WriteJsonSramStatus
 5881              	.LVL638:
1742:App/Src/fault_command.c ****       }
 5882              		.loc 1 1742 9 view .LVU1295
 5883 0b1c FFF7CABA 		b	.L190
 5884              	.LVL639:
 5885              	.L337:
1742:App/Src/fault_command.c ****       }
 5886              		.loc 1 1742 9 is_stmt 0 view .LVU1296
 5887              	.LBE79:
 5888              	.LBE80:
1754:App/Src/fault_command.c ****       if (FaultCommand_JsonGetUint(json, "cell", &cell) != 0U)
 5889              		.loc 1 1754 7 is_stmt 1 view .LVU1297
 5890 0b20 FFF7FEFF 		bl	FaultCommand_StopAllWaveforms
 5891              	.LVL640:
1755:App/Src/fault_command.c ****       {
 5892              		.loc 1 1755 7 view .LVU1298
1755:App/Src/fault_command.c ****       {
ARM GAS  C:\Users\hh\AppData\Local\Temp\ccntMbQq.s 			page 163


 5893              		.loc 1 1755 11 is_stmt 0 view .LVU1299
 5894 0b24 13AA     		add	r2, sp, #76
 5895 0b26 2449     		ldr	r1, .L407+80
 5896 0b28 2046     		mov	r0, r4
 5897 0b2a FFF7FEFF 		bl	FaultCommand_JsonGetUint
 5898              	.LVL641:
1755:App/Src/fault_command.c ****       {
 5899              		.loc 1 1755 10 discriminator 1 view .LVU1300
 5900 0b2e 30B1     		cbz	r0, .L263
1757:App/Src/fault_command.c ****       }
 5901              		.loc 1 1757 9 is_stmt 1 view .LVU1301
1757:App/Src/fault_command.c ****       }
 5902              		.loc 1 1757 18 is_stmt 0 view .LVU1302
 5903 0b30 9DF84C00 		ldrb	r0, [sp, #76]	@ zero_extendqisi2
 5904 0b34 FFF7FEFF 		bl	VoltageSim_ClearCellFault
 5905              	.LVL642:
 5906 0b38 0446     		mov	r4, r0
 5907              	.LVL643:
1757:App/Src/fault_command.c ****       }
 5908              		.loc 1 1757 18 view .LVU1303
 5909 0b3a FFF7B5BA 		b	.L196
 5910              	.LVL644:
 5911              	.L263:
1761:App/Src/fault_command.c ****       }
 5912              		.loc 1 1761 9 is_stmt 1 view .LVU1304
1761:App/Src/fault_command.c ****       }
 5913              		.loc 1 1761 18 is_stmt 0 view .LVU1305
 5914 0b3e FFF7FEFF 		bl	VoltageSim_ClearAllFaults
 5915              	.LVL645:
 5916 0b42 0446     		mov	r4, r0
 5917              	.LVL646:
1761:App/Src/fault_command.c ****       }
 5918              		.loc 1 1761 18 view .LVU1306
 5919 0b44 FFF7B0BA 		b	.L196
 5920              	.LVL647:
 5921              	.L262:
1767:App/Src/fault_command.c ****     return;
 5922              		.loc 1 1767 5 is_stmt 1 view .LVU1307
 5923 0b48 1C4A     		ldr	r2, .L407+84
 5924 0b4a 3946     		mov	r1, r7
 5925 0b4c 3046     		mov	r0, r6
 5926 0b4e FFF7FEFF 		bl	FaultCommand_Write
 5927              	.LVL648:
1768:App/Src/fault_command.c ****   }
 5928              		.loc 1 1768 5 view .LVU1308
 5929 0b52 FFF7AFBA 		b	.L190
 5930              	.L273:
1286:App/Src/fault_command.c **** 
 5931              		.loc 1 1286 21 is_stmt 0 view .LVU1309
 5932 0b56 0123     		movs	r3, #1
 5933 0b58 1C46     		mov	r4, r3
 5934              	.LVL649:
1286:App/Src/fault_command.c **** 
 5935              		.loc 1 1286 21 view .LVU1310
 5936 0b5a FFF7A5BA 		b	.L196
 5937              	.LVL650:
 5938              	.L300:
ARM GAS  C:\Users\hh\AppData\Local\Temp\ccntMbQq.s 			page 164


1286:App/Src/fault_command.c **** 
 5939              		.loc 1 1286 21 view .LVU1311
 5940 0b5e 0123     		movs	r3, #1
 5941 0b60 1C46     		mov	r4, r3
 5942              	.LVL651:
1286:App/Src/fault_command.c **** 
 5943              		.loc 1 1286 21 view .LVU1312
 5944 0b62 FFF7A1BA 		b	.L196
 5945              	.L408:
 5946 0b66 00BF     		.align	2
 5947              	.L407:
 5948 0b68 D4010000 		.word	.LC118
 5949 0b6c 2C000000 		.word	.LC86
 5950 0b70 38020000 		.word	.LC124
 5951 0b74 80020000 		.word	.LC135
 5952 0b78 94020000 		.word	.LC138
 5953 0b7c AC020000 		.word	.LC141
 5954 0b80 58010000 		.word	.LC105
 5955 0b84 88020000 		.word	.LC136
 5956 0b88 04000000 		.word	.LC72
 5957 0b8c 00000000 		.word	.LC71
 5958 0b90 8C020000 		.word	.LC137
 5959 0b94 64020000 		.word	.LC130
 5960 0b98 9C020000 		.word	.LC139
 5961 0b9c A4020000 		.word	.LC140
 5962 0ba0 60010000 		.word	.LC106
 5963 0ba4 C0020000 		.word	.LC143
 5964 0ba8 CC000000 		.word	.LC90
 5965 0bac D0020000 		.word	.LC144
 5966 0bb0 40020000 		.word	.LC125
 5967 0bb4 E0020000 		.word	.LC146
 5968 0bb8 D4000000 		.word	.LC92
 5969 0bbc E8020000 		.word	.LC147
 5970              		.cfi_endproc
 5971              	.LFE183:
 5973              		.section	.rodata.FaultCommand_ParseCanSendText.str1.4,"aMS",%progbits,1
 5974              		.align	2
 5975              	.LC148:
 5976 0000 63616E20 		.ascii	"can send %lx %u %n\000"
 5976      73656E64 
 5976      20256C78 
 5976      20257520 
 5976      256E00
 5977              		.section	.text.FaultCommand_ParseCanSendText,"ax",%progbits
 5978              		.align	1
 5979              		.syntax unified
 5980              		.thumb
 5981              		.thumb_func
 5983              	FaultCommand_ParseCanSendText:
 5984              	.LVL652:
 5985              	.LFB174:
 624:App/Src/fault_command.c ****   unsigned long id;
 5986              		.loc 1 624 1 is_stmt 1 view -0
 5987              		.cfi_startproc
 5988              		@ args = 0, pretend = 0, frame = 24
 5989              		@ frame_needed = 0, uses_anonymous_args = 0
 624:App/Src/fault_command.c ****   unsigned long id;
ARM GAS  C:\Users\hh\AppData\Local\Temp\ccntMbQq.s 			page 165


 5990              		.loc 1 624 1 is_stmt 0 view .LVU1314
 5991 0000 30B5     		push	{r4, r5, lr}
 5992              	.LCFI82:
 5993              		.cfi_def_cfa_offset 12
 5994              		.cfi_offset 4, -12
 5995              		.cfi_offset 5, -8
 5996              		.cfi_offset 14, -4
 5997 0002 89B0     		sub	sp, sp, #36
 5998              	.LCFI83:
 5999              		.cfi_def_cfa_offset 48
 6000 0004 0446     		mov	r4, r0
 625:App/Src/fault_command.c ****   unsigned int length;
 6001              		.loc 1 625 3 is_stmt 1 view .LVU1315
 626:App/Src/fault_command.c ****   int consumed = 0;
 6002              		.loc 1 626 3 view .LVU1316
 627:App/Src/fault_command.c ****   const char *cursor;
 6003              		.loc 1 627 3 view .LVU1317
 627:App/Src/fault_command.c ****   const char *cursor;
 6004              		.loc 1 627 7 is_stmt 0 view .LVU1318
 6005 0006 0023     		movs	r3, #0
 6006 0008 0593     		str	r3, [sp, #20]
 628:App/Src/fault_command.c ****   uint8_t data[BSP_CAN_MAX_DATA_LEN] = {0};
 6007              		.loc 1 628 3 is_stmt 1 view .LVU1319
 629:App/Src/fault_command.c **** 
 6008              		.loc 1 629 3 view .LVU1320
 629:App/Src/fault_command.c **** 
 6009              		.loc 1 629 11 is_stmt 0 view .LVU1321
 6010 000a 0393     		str	r3, [sp, #12]
 6011 000c 0493     		str	r3, [sp, #16]
 631:App/Src/fault_command.c ****   {
 6012              		.loc 1 631 3 is_stmt 1 view .LVU1322
 631:App/Src/fault_command.c ****   {
 6013              		.loc 1 631 7 is_stmt 0 view .LVU1323
 6014 000e 05AB     		add	r3, sp, #20
 6015 0010 0093     		str	r3, [sp]
 6016 0012 06AB     		add	r3, sp, #24
 6017 0014 07AA     		add	r2, sp, #28
 6018 0016 1D49     		ldr	r1, .L420
 6019 0018 FFF7FEFF 		bl	sscanf
 6020              	.LVL653:
 631:App/Src/fault_command.c ****   {
 6021              		.loc 1 631 6 discriminator 1 view .LVU1324
 6022 001c 0128     		cmp	r0, #1
 6023 001e 2DDD     		ble	.L414
 636:App/Src/fault_command.c ****   {
 6024              		.loc 1 636 3 is_stmt 1 view .LVU1325
 636:App/Src/fault_command.c ****   {
 6025              		.loc 1 636 11 is_stmt 0 view .LVU1326
 6026 0020 079B     		ldr	r3, [sp, #28]
 636:App/Src/fault_command.c ****   {
 6027              		.loc 1 636 6 view .LVU1327
 6028 0022 B3F5006F 		cmp	r3, #2048
 6029 0026 2CD2     		bcs	.L415
 636:App/Src/fault_command.c ****   {
 6030              		.loc 1 636 33 discriminator 1 view .LVU1328
 6031 0028 069B     		ldr	r3, [sp, #24]
 636:App/Src/fault_command.c ****   {
ARM GAS  C:\Users\hh\AppData\Local\Temp\ccntMbQq.s 			page 166


 6032              		.loc 1 636 22 discriminator 1 view .LVU1329
 6033 002a 082B     		cmp	r3, #8
 6034 002c 2BD8     		bhi	.L416
 641:App/Src/fault_command.c ****   for (uint8_t index = 0U; index < length; index++)
 6035              		.loc 1 641 3 is_stmt 1 view .LVU1330
 641:App/Src/fault_command.c ****   for (uint8_t index = 0U; index < length; index++)
 6036              		.loc 1 641 17 is_stmt 0 view .LVU1331
 6037 002e 059B     		ldr	r3, [sp, #20]
 641:App/Src/fault_command.c ****   for (uint8_t index = 0U; index < length; index++)
 6038              		.loc 1 641 10 view .LVU1332
 6039 0030 E018     		adds	r0, r4, r3
 6040              	.LVL654:
 642:App/Src/fault_command.c ****   {
 6041              		.loc 1 642 3 is_stmt 1 view .LVU1333
 6042              	.LBB81:
 642:App/Src/fault_command.c ****   {
 6043              		.loc 1 642 8 view .LVU1334
 642:App/Src/fault_command.c ****   {
 6044              		.loc 1 642 16 is_stmt 0 view .LVU1335
 6045 0032 0024     		movs	r4, #0
 6046              	.LVL655:
 642:App/Src/fault_command.c ****   {
 6047              		.loc 1 642 3 view .LVU1336
 6048 0034 06E0     		b	.L411
 6049              	.LVL656:
 6050              	.L419:
 6051              	.LBB82:
 659:App/Src/fault_command.c ****     cursor = endPtr;
 6052              		.loc 1 659 5 is_stmt 1 view .LVU1337
 659:App/Src/fault_command.c ****     cursor = endPtr;
 6053              		.loc 1 659 17 is_stmt 0 view .LVU1338
 6054 0036 04F12002 		add	r2, r4, #32
 6055 003a 6A44     		add	r2, sp, r2
 6056 003c 02F8143C 		strb	r3, [r2, #-20]
 660:App/Src/fault_command.c ****   }
 6057              		.loc 1 660 5 is_stmt 1 view .LVU1339
 6058              	.LVL657:
 660:App/Src/fault_command.c ****   }
 6059              		.loc 1 660 5 is_stmt 0 view .LVU1340
 6060              	.LBE82:
 642:App/Src/fault_command.c ****   {
 6061              		.loc 1 642 49 is_stmt 1 discriminator 2 view .LVU1341
 6062 0040 0134     		adds	r4, r4, #1
 6063              	.LVL658:
 642:App/Src/fault_command.c ****   {
 6064              		.loc 1 642 49 is_stmt 0 discriminator 2 view .LVU1342
 6065 0042 E4B2     		uxtb	r4, r4
 6066              	.LVL659:
 6067              	.L411:
 642:App/Src/fault_command.c ****   {
 6068              		.loc 1 642 34 is_stmt 1 discriminator 1 view .LVU1343
 6069 0044 069B     		ldr	r3, [sp, #24]
 6070 0046 9C42     		cmp	r4, r3
 6071 0048 11D2     		bcs	.L418
 6072              	.LBB83:
 644:App/Src/fault_command.c ****     unsigned long value;
 6073              		.loc 1 644 5 view .LVU1344
ARM GAS  C:\Users\hh\AppData\Local\Temp\ccntMbQq.s 			page 167


 645:App/Src/fault_command.c **** 
 6074              		.loc 1 645 5 view .LVU1345
 647:App/Src/fault_command.c ****     if ((cursor == NULL) || (*cursor == '\0'))
 6075              		.loc 1 647 5 view .LVU1346
 647:App/Src/fault_command.c ****     if ((cursor == NULL) || (*cursor == '\0'))
 6076              		.loc 1 647 14 is_stmt 0 view .LVU1347
 6077 004a FFF7FEFF 		bl	FaultCommand_SkipSpaces
 6078              	.LVL660:
 648:App/Src/fault_command.c ****     {
 6079              		.loc 1 648 5 is_stmt 1 view .LVU1348
 648:App/Src/fault_command.c ****     {
 6080              		.loc 1 648 8 is_stmt 0 view .LVU1349
 6081 004e 0546     		mov	r5, r0
 6082 0050 58B1     		cbz	r0, .L412
 648:App/Src/fault_command.c ****     {
 6083              		.loc 1 648 30 discriminator 1 view .LVU1350
 6084 0052 0378     		ldrb	r3, [r0]	@ zero_extendqisi2
 648:App/Src/fault_command.c ****     {
 6085              		.loc 1 648 26 discriminator 1 view .LVU1351
 6086 0054 4BB1     		cbz	r3, .L412
 653:App/Src/fault_command.c ****     if ((endPtr == cursor) || (value > 0xFFUL))
 6087              		.loc 1 653 5 is_stmt 1 view .LVU1352
 653:App/Src/fault_command.c ****     if ((endPtr == cursor) || (value > 0xFFUL))
 6088              		.loc 1 653 13 is_stmt 0 view .LVU1353
 6089 0056 1022     		movs	r2, #16
 6090 0058 02A9     		add	r1, sp, #8
 6091 005a FFF7FEFF 		bl	strtoul
 6092              	.LVL661:
 653:App/Src/fault_command.c ****     if ((endPtr == cursor) || (value > 0xFFUL))
 6093              		.loc 1 653 13 view .LVU1354
 6094 005e 0346     		mov	r3, r0
 6095              	.LVL662:
 654:App/Src/fault_command.c ****     {
 6096              		.loc 1 654 5 is_stmt 1 view .LVU1355
 654:App/Src/fault_command.c ****     {
 6097              		.loc 1 654 17 is_stmt 0 view .LVU1356
 6098 0060 0298     		ldr	r0, [sp, #8]
 6099              	.LVL663:
 654:App/Src/fault_command.c ****     {
 6100              		.loc 1 654 8 view .LVU1357
 6101 0062 A842     		cmp	r0, r5
 6102 0064 01D0     		beq	.L412
 654:App/Src/fault_command.c ****     {
 6103              		.loc 1 654 28 discriminator 1 view .LVU1358
 6104 0066 FF2B     		cmp	r3, #255
 6105 0068 E5D9     		bls	.L419
 6106              	.LVL664:
 6107              	.L412:
 650:App/Src/fault_command.c ****     }
 6108              		.loc 1 650 14 discriminator 1 view .LVU1359
 6109 006a 0120     		movs	r0, #1
 6110 006c 07E0     		b	.L410
 6111              	.LVL665:
 6112              	.L418:
 650:App/Src/fault_command.c ****     }
 6113              		.loc 1 650 14 discriminator 1 view .LVU1360
 6114              	.LBE83:
ARM GAS  C:\Users\hh\AppData\Local\Temp\ccntMbQq.s 			page 168


 6115              	.LBE81:
 663:App/Src/fault_command.c **** }
 6116              		.loc 1 663 3 is_stmt 1 view .LVU1361
 663:App/Src/fault_command.c **** }
 6117              		.loc 1 663 10 is_stmt 0 view .LVU1362
 6118 006e DBB2     		uxtb	r3, r3
 6119 0070 03AA     		add	r2, sp, #12
 6120 0072 0021     		movs	r1, #0
 6121 0074 0798     		ldr	r0, [sp, #28]
 6122              	.LVL666:
 663:App/Src/fault_command.c **** }
 6123              		.loc 1 663 10 view .LVU1363
 6124 0076 FFF7FEFF 		bl	BspCan_SendClassic
 6125              	.LVL667:
 6126 007a 00E0     		b	.L410
 6127              	.LVL668:
 6128              	.L414:
 633:App/Src/fault_command.c ****   }
 6129              		.loc 1 633 12 view .LVU1364
 6130 007c 0120     		movs	r0, #1
 6131              	.LVL669:
 6132              	.L410:
 664:App/Src/fault_command.c **** 
 6133              		.loc 1 664 1 view .LVU1365
 6134 007e 09B0     		add	sp, sp, #36
 6135              	.LCFI84:
 6136              		.cfi_remember_state
 6137              		.cfi_def_cfa_offset 12
 6138              		@ sp needed
 6139 0080 30BD     		pop	{r4, r5, pc}
 6140              	.LVL670:
 6141              	.L415:
 6142              	.LCFI85:
 6143              		.cfi_restore_state
 638:App/Src/fault_command.c ****   }
 6144              		.loc 1 638 12 view .LVU1366
 6145 0082 0120     		movs	r0, #1
 6146 0084 FBE7     		b	.L410
 6147              	.L416:
 6148 0086 0120     		movs	r0, #1
 6149 0088 F9E7     		b	.L410
 6150              	.L421:
 6151 008a 00BF     		.align	2
 6152              	.L420:
 6153 008c 00000000 		.word	.LC148
 6154              		.cfi_endproc
 6155              	.LFE174:
 6157              		.section	.rodata.FaultCommand_ParseLogFilterText.str1.4,"aMS",%progbits,1
 6158              		.align	2
 6159              	.LC149:
 6160 0000 6C6F6720 		.ascii	"log filter off\000"
 6160      66696C74 
 6160      6572206F 
 6160      666600
 6161 000f 00       		.align	2
 6162              	.LC150:
 6163 0010 6C6F6720 		.ascii	"log filter %7s %lx %lx\000"
ARM GAS  C:\Users\hh\AppData\Local\Temp\ccntMbQq.s 			page 169


 6163      66696C74 
 6163      65722025 
 6163      37732025 
 6163      6C782025 
 6164              		.section	.text.FaultCommand_ParseLogFilterText,"ax",%progbits
 6165              		.align	1
 6166              		.syntax unified
 6167              		.thumb
 6168              		.thumb_func
 6170              	FaultCommand_ParseLogFilterText:
 6171              	.LVL671:
 6172              	.LFB175:
 667:App/Src/fault_command.c ****   char type[8];
 6173              		.loc 1 667 1 is_stmt 1 view -0
 6174              		.cfi_startproc
 6175              		@ args = 0, pretend = 0, frame = 16
 6176              		@ frame_needed = 0, uses_anonymous_args = 0
 667:App/Src/fault_command.c ****   char type[8];
 6177              		.loc 1 667 1 is_stmt 0 view .LVU1368
 6178 0000 10B5     		push	{r4, lr}
 6179              	.LCFI86:
 6180              		.cfi_def_cfa_offset 8
 6181              		.cfi_offset 4, -8
 6182              		.cfi_offset 14, -4
 6183 0002 86B0     		sub	sp, sp, #24
 6184              	.LCFI87:
 6185              		.cfi_def_cfa_offset 32
 6186 0004 0446     		mov	r4, r0
 668:App/Src/fault_command.c ****   unsigned long id;
 6187              		.loc 1 668 3 is_stmt 1 view .LVU1369
 669:App/Src/fault_command.c ****   unsigned long mask;
 6188              		.loc 1 669 3 view .LVU1370
 670:App/Src/fault_command.c ****   int parsed;
 6189              		.loc 1 670 3 view .LVU1371
 671:App/Src/fault_command.c ****   uint8_t isExtended;
 6190              		.loc 1 671 3 view .LVU1372
 672:App/Src/fault_command.c **** 
 6191              		.loc 1 672 3 view .LVU1373
 674:App/Src/fault_command.c ****   {
 6192              		.loc 1 674 3 view .LVU1374
 674:App/Src/fault_command.c ****   {
 6193              		.loc 1 674 7 is_stmt 0 view .LVU1375
 6194 0006 1A49     		ldr	r1, .L433
 6195 0008 FFF7FEFF 		bl	strcmp
 6196              	.LVL672:
 674:App/Src/fault_command.c ****   {
 6197              		.loc 1 674 6 discriminator 1 view .LVU1376
 6198 000c D8B1     		cbz	r0, .L431
 680:App/Src/fault_command.c ****   parsed = sscanf(line, "log filter %7s %lx %lx", type, &id, &mask);
 6199              		.loc 1 680 3 is_stmt 1 view .LVU1377
 680:App/Src/fault_command.c ****   parsed = sscanf(line, "log filter %7s %lx %lx", type, &id, &mask);
 6200              		.loc 1 680 8 is_stmt 0 view .LVU1378
 6201 000e 40F2FF73 		movw	r3, #2047
 6202 0012 0293     		str	r3, [sp, #8]
 681:App/Src/fault_command.c ****   if (parsed < 2)
 6203              		.loc 1 681 3 is_stmt 1 view .LVU1379
 681:App/Src/fault_command.c ****   if (parsed < 2)
ARM GAS  C:\Users\hh\AppData\Local\Temp\ccntMbQq.s 			page 170


 6204              		.loc 1 681 12 is_stmt 0 view .LVU1380
 6205 0014 02AB     		add	r3, sp, #8
 6206 0016 0093     		str	r3, [sp]
 6207 0018 03AB     		add	r3, sp, #12
 6208 001a 04AA     		add	r2, sp, #16
 6209 001c 1549     		ldr	r1, .L433+4
 6210 001e 2046     		mov	r0, r4
 6211 0020 FFF7FEFF 		bl	sscanf
 6212              	.LVL673:
 6213 0024 0446     		mov	r4, r0
 6214              	.LVL674:
 682:App/Src/fault_command.c ****   {
 6215              		.loc 1 682 3 is_stmt 1 view .LVU1381
 682:App/Src/fault_command.c ****   {
 6216              		.loc 1 682 6 is_stmt 0 view .LVU1382
 6217 0026 0128     		cmp	r0, #1
 6218 0028 1EDD     		ble	.L426
 687:App/Src/fault_command.c ****   {
 6219              		.loc 1 687 3 is_stmt 1 view .LVU1383
 687:App/Src/fault_command.c ****   {
 6220              		.loc 1 687 7 is_stmt 0 view .LVU1384
 6221 002a 1349     		ldr	r1, .L433+8
 6222 002c 04A8     		add	r0, sp, #16
 6223              	.LVL675:
 687:App/Src/fault_command.c ****   {
 6224              		.loc 1 687 7 view .LVU1385
 6225 002e FFF7FEFF 		bl	strcmp
 6226              	.LVL676:
 687:App/Src/fault_command.c ****   {
 6227              		.loc 1 687 6 discriminator 1 view .LVU1386
 6228 0032 88B1     		cbz	r0, .L427
 691:App/Src/fault_command.c ****   {
 6229              		.loc 1 691 8 is_stmt 1 view .LVU1387
 691:App/Src/fault_command.c ****   {
 6230              		.loc 1 691 12 is_stmt 0 view .LVU1388
 6231 0034 1149     		ldr	r1, .L433+12
 6232 0036 04A8     		add	r0, sp, #16
 6233 0038 FFF7FEFF 		bl	strcmp
 6234              	.LVL677:
 691:App/Src/fault_command.c ****   {
 6235              		.loc 1 691 11 discriminator 1 view .LVU1389
 6236 003c B0B9     		cbnz	r0, .L428
 693:App/Src/fault_command.c ****     if (parsed == 2)
 6237              		.loc 1 693 5 is_stmt 1 view .LVU1390
 6238              	.LVL678:
 694:App/Src/fault_command.c ****     {
 6239              		.loc 1 694 5 view .LVU1391
 694:App/Src/fault_command.c ****     {
 6240              		.loc 1 694 8 is_stmt 0 view .LVU1392
 6241 003e 022C     		cmp	r4, #2
 6242 0040 05D0     		beq	.L432
 693:App/Src/fault_command.c ****     if (parsed == 2)
 6243              		.loc 1 693 16 view .LVU1393
 6244 0042 0121     		movs	r1, #1
 6245 0044 09E0     		b	.L425
 6246              	.LVL679:
 6247              	.L431:
ARM GAS  C:\Users\hh\AppData\Local\Temp\ccntMbQq.s 			page 171


 676:App/Src/fault_command.c ****     return HAL_OK;
 6248              		.loc 1 676 5 is_stmt 1 view .LVU1394
 6249 0046 FFF7FEFF 		bl	BmsResponseLog_DisableFilter
 6250              	.LVL680:
 677:App/Src/fault_command.c ****   }
 6251              		.loc 1 677 5 view .LVU1395
 677:App/Src/fault_command.c ****   }
 6252              		.loc 1 677 12 is_stmt 0 view .LVU1396
 6253 004a 0020     		movs	r0, #0
 6254 004c 0AE0     		b	.L424
 6255              	.LVL681:
 6256              	.L432:
 696:App/Src/fault_command.c ****     }
 6257              		.loc 1 696 7 is_stmt 1 view .LVU1397
 696:App/Src/fault_command.c ****     }
 6258              		.loc 1 696 12 is_stmt 0 view .LVU1398
 6259 004e 6FF06043 		mvn	r3, #-536870912
 6260 0052 0293     		str	r3, [sp, #8]
 693:App/Src/fault_command.c ****     if (parsed == 2)
 6261              		.loc 1 693 16 view .LVU1399
 6262 0054 0121     		movs	r1, #1
 6263 0056 00E0     		b	.L425
 6264              	.LVL682:
 6265              	.L427:
 689:App/Src/fault_command.c ****   }
 6266              		.loc 1 689 16 view .LVU1400
 6267 0058 0146     		mov	r1, r0
 6268              	.L425:
 6269              	.LVL683:
 704:App/Src/fault_command.c **** }
 6270              		.loc 1 704 3 is_stmt 1 view .LVU1401
 704:App/Src/fault_command.c **** }
 6271              		.loc 1 704 10 is_stmt 0 view .LVU1402
 6272 005a 029B     		ldr	r3, [sp, #8]
 6273 005c 039A     		ldr	r2, [sp, #12]
 6274 005e 0120     		movs	r0, #1
 6275 0060 FFF7FEFF 		bl	BmsResponseLog_SetFilter
 6276              	.LVL684:
 6277              	.L424:
 705:App/Src/fault_command.c **** 
 6278              		.loc 1 705 1 view .LVU1403
 6279 0064 06B0     		add	sp, sp, #24
 6280              	.LCFI88:
 6281              		.cfi_remember_state
 6282              		.cfi_def_cfa_offset 8
 6283              		@ sp needed
 6284 0066 10BD     		pop	{r4, pc}
 6285              	.LVL685:
 6286              	.L426:
 6287              	.LCFI89:
 6288              		.cfi_restore_state
 684:App/Src/fault_command.c ****   }
 6289              		.loc 1 684 12 view .LVU1404
 6290 0068 0120     		movs	r0, #1
 6291              	.LVL686:
 684:App/Src/fault_command.c ****   }
 6292              		.loc 1 684 12 view .LVU1405
ARM GAS  C:\Users\hh\AppData\Local\Temp\ccntMbQq.s 			page 172


 6293 006a FBE7     		b	.L424
 6294              	.L428:
 701:App/Src/fault_command.c ****   }
 6295              		.loc 1 701 12 view .LVU1406
 6296 006c 0120     		movs	r0, #1
 6297 006e F9E7     		b	.L424
 6298              	.L434:
 6299              		.align	2
 6300              	.L433:
 6301 0070 00000000 		.word	.LC149
 6302 0074 10000000 		.word	.LC150
 6303 0078 04000000 		.word	.LC72
 6304 007c 00000000 		.word	.LC71
 6305              		.cfi_endproc
 6306              	.LFE175:
 6308              		.section	.rodata.FaultCommand_ParseLogDataText.str1.4,"aMS",%progbits,1
 6309              		.align	2
 6310              	.LC151:
 6311 0000 6C6F6720 		.ascii	"log data clear\000"
 6311      64617461 
 6311      20636C65 
 6311      617200
 6312 000f 00       		.align	2
 6313              	.LC152:
 6314 0010 6C6F6720 		.ascii	"log data %u %x %x\000"
 6314      64617461 
 6314      20257520 
 6314      25782025 
 6314      7800
 6315              		.section	.text.FaultCommand_ParseLogDataText,"ax",%progbits
 6316              		.align	1
 6317              		.syntax unified
 6318              		.thumb
 6319              		.thumb_func
 6321              	FaultCommand_ParseLogDataText:
 6322              	.LVL687:
 6323              	.LFB176:
 708:App/Src/fault_command.c ****   unsigned int index;
 6324              		.loc 1 708 1 is_stmt 1 view -0
 6325              		.cfi_startproc
 6326              		@ args = 0, pretend = 0, frame = 16
 6327              		@ frame_needed = 0, uses_anonymous_args = 0
 708:App/Src/fault_command.c ****   unsigned int index;
 6328              		.loc 1 708 1 is_stmt 0 view .LVU1408
 6329 0000 10B5     		push	{r4, lr}
 6330              	.LCFI90:
 6331              		.cfi_def_cfa_offset 8
 6332              		.cfi_offset 4, -8
 6333              		.cfi_offset 14, -4
 6334 0002 86B0     		sub	sp, sp, #24
 6335              	.LCFI91:
 6336              		.cfi_def_cfa_offset 32
 6337 0004 0446     		mov	r4, r0
 709:App/Src/fault_command.c ****   unsigned int mask;
 6338              		.loc 1 709 3 is_stmt 1 view .LVU1409
 710:App/Src/fault_command.c ****   unsigned int value;
 6339              		.loc 1 710 3 view .LVU1410
ARM GAS  C:\Users\hh\AppData\Local\Temp\ccntMbQq.s 			page 173


 711:App/Src/fault_command.c **** 
 6340              		.loc 1 711 3 view .LVU1411
 713:App/Src/fault_command.c ****   {
 6341              		.loc 1 713 3 view .LVU1412
 713:App/Src/fault_command.c ****   {
 6342              		.loc 1 713 7 is_stmt 0 view .LVU1413
 6343 0006 1549     		ldr	r1, .L445
 6344 0008 FFF7FEFF 		bl	strcmp
 6345              	.LVL688:
 713:App/Src/fault_command.c ****   {
 6346              		.loc 1 713 6 discriminator 1 view .LVU1414
 6347 000c A0B1     		cbz	r0, .L443
 719:App/Src/fault_command.c ****       (index >= BSP_CAN_MAX_DATA_LEN) ||
 6348              		.loc 1 719 3 is_stmt 1 view .LVU1415
 719:App/Src/fault_command.c ****       (index >= BSP_CAN_MAX_DATA_LEN) ||
 6349              		.loc 1 719 8 is_stmt 0 view .LVU1416
 6350 000e 03AB     		add	r3, sp, #12
 6351 0010 0093     		str	r3, [sp]
 6352 0012 04AB     		add	r3, sp, #16
 6353 0014 05AA     		add	r2, sp, #20
 6354 0016 1249     		ldr	r1, .L445+4
 6355 0018 2046     		mov	r0, r4
 6356 001a FFF7FEFF 		bl	sscanf
 6357              	.LVL689:
 719:App/Src/fault_command.c ****       (index >= BSP_CAN_MAX_DATA_LEN) ||
 6358              		.loc 1 719 6 discriminator 1 view .LVU1417
 6359 001e 0328     		cmp	r0, #3
 6360 0020 15D1     		bne	.L438
 720:App/Src/fault_command.c ****       (mask > 0xFFU) ||
 6361              		.loc 1 720 14 view .LVU1418
 6362 0022 0598     		ldr	r0, [sp, #20]
 719:App/Src/fault_command.c ****       (index >= BSP_CAN_MAX_DATA_LEN) ||
 6363              		.loc 1 719 71 discriminator 2 view .LVU1419
 6364 0024 0728     		cmp	r0, #7
 6365 0026 14D8     		bhi	.L439
 721:App/Src/fault_command.c ****       (value > 0xFFU))
 6366              		.loc 1 721 13 view .LVU1420
 6367 0028 0499     		ldr	r1, [sp, #16]
 720:App/Src/fault_command.c ****       (mask > 0xFFU) ||
 6368              		.loc 1 720 39 view .LVU1421
 6369 002a FF29     		cmp	r1, #255
 6370 002c 13D8     		bhi	.L440
 722:App/Src/fault_command.c ****   {
 6371              		.loc 1 722 14 view .LVU1422
 6372 002e 039A     		ldr	r2, [sp, #12]
 721:App/Src/fault_command.c ****       (value > 0xFFU))
 6373              		.loc 1 721 22 view .LVU1423
 6374 0030 FF2A     		cmp	r2, #255
 6375 0032 06D9     		bls	.L444
 724:App/Src/fault_command.c ****   }
 6376              		.loc 1 724 12 view .LVU1424
 6377 0034 0120     		movs	r0, #1
 6378 0036 02E0     		b	.L437
 6379              	.L443:
 715:App/Src/fault_command.c ****     return HAL_OK;
 6380              		.loc 1 715 5 is_stmt 1 view .LVU1425
 6381 0038 FFF7FEFF 		bl	BmsResponseLog_ClearDataFilter
ARM GAS  C:\Users\hh\AppData\Local\Temp\ccntMbQq.s 			page 174


 6382              	.LVL690:
 716:App/Src/fault_command.c ****   }
 6383              		.loc 1 716 5 view .LVU1426
 716:App/Src/fault_command.c ****   }
 6384              		.loc 1 716 12 is_stmt 0 view .LVU1427
 6385 003c 0020     		movs	r0, #0
 6386              	.L437:
 728:App/Src/fault_command.c **** 
 6387              		.loc 1 728 1 view .LVU1428
 6388 003e 06B0     		add	sp, sp, #24
 6389              	.LCFI92:
 6390              		.cfi_remember_state
 6391              		.cfi_def_cfa_offset 8
 6392              		@ sp needed
 6393 0040 10BD     		pop	{r4, pc}
 6394              	.LVL691:
 6395              	.L444:
 6396              	.LCFI93:
 6397              		.cfi_restore_state
 727:App/Src/fault_command.c **** }
 6398              		.loc 1 727 3 is_stmt 1 view .LVU1429
 727:App/Src/fault_command.c **** }
 6399              		.loc 1 727 10 is_stmt 0 view .LVU1430
 6400 0042 D2B2     		uxtb	r2, r2
 6401 0044 C9B2     		uxtb	r1, r1
 6402 0046 C0B2     		uxtb	r0, r0
 6403 0048 FFF7FEFF 		bl	BmsResponseLog_SetDataFilter
 6404              	.LVL692:
 6405 004c F7E7     		b	.L437
 6406              	.L438:
 724:App/Src/fault_command.c ****   }
 6407              		.loc 1 724 12 view .LVU1431
 6408 004e 0120     		movs	r0, #1
 6409 0050 F5E7     		b	.L437
 6410              	.L439:
 6411 0052 0120     		movs	r0, #1
 6412 0054 F3E7     		b	.L437
 6413              	.L440:
 6414 0056 0120     		movs	r0, #1
 6415 0058 F1E7     		b	.L437
 6416              	.L446:
 6417 005a 00BF     		.align	2
 6418              	.L445:
 6419 005c 00000000 		.word	.LC151
 6420 0060 10000000 		.word	.LC152
 6421              		.cfi_endproc
 6422              	.LFE176:
 6424              		.section	.rodata.FaultCommand_WriteTextWaveStatus.str1.4,"aMS",%progbits,1
 6425              		.align	2
 6426              	.LC153:
 6427 0000 5B776176 		.ascii	"[wave] active=%u type=%s cell=%u period=%lums last="
 6427      655D2061 
 6427      63746976 
 6427      653D2575 
 6427      20747970 
 6428 0033 25756D56 		.ascii	"%umV\015\012\000"
 6428      0D0A00
ARM GAS  C:\Users\hh\AppData\Local\Temp\ccntMbQq.s 			page 175


 6429 003a 0000     		.align	2
 6430              	.LC154:
 6431 003c 5B776176 		.ascii	"[wave-high] running=%u buffer=%u samples=%lu errors"
 6431      652D6869 
 6431      67685D20 
 6431      72756E6E 
 6431      696E673D 
 6432 006f 3D256C75 		.ascii	"=%lu\015\012\000"
 6432      0D0A00
 6433              		.section	.text.FaultCommand_WriteTextWaveStatus,"ax",%progbits
 6434              		.align	1
 6435              		.syntax unified
 6436              		.thumb
 6437              		.thumb_func
 6439              	FaultCommand_WriteTextWaveStatus:
 6440              	.LVL693:
 6441              	.LFB153:
  93:App/Src/fault_command.c ****   WaveformGen_Status status = WaveformGen_GetStatus();
 6442              		.loc 1 93 1 is_stmt 1 view -0
 6443              		.cfi_startproc
 6444              		@ args = 0, pretend = 0, frame = 32
 6445              		@ frame_needed = 0, uses_anonymous_args = 0
  93:App/Src/fault_command.c ****   WaveformGen_Status status = WaveformGen_GetStatus();
 6446              		.loc 1 93 1 is_stmt 0 view .LVU1433
 6447 0000 70B5     		push	{r4, r5, r6, lr}
 6448              	.LCFI94:
 6449              		.cfi_def_cfa_offset 16
 6450              		.cfi_offset 4, -16
 6451              		.cfi_offset 5, -12
 6452              		.cfi_offset 6, -8
 6453              		.cfi_offset 14, -4
 6454 0002 8CB0     		sub	sp, sp, #48
 6455              	.LCFI95:
 6456              		.cfi_def_cfa_offset 64
 6457 0004 0546     		mov	r5, r0
 6458 0006 0E46     		mov	r6, r1
  94:App/Src/fault_command.c ****   WaveformEngine_Status highStatus = WaveformEngine_GetStatus();
 6459              		.loc 1 94 3 is_stmt 1 view .LVU1434
  94:App/Src/fault_command.c ****   WaveformEngine_Status highStatus = WaveformEngine_GetStatus();
 6460              		.loc 1 94 31 is_stmt 0 view .LVU1435
 6461 0008 07A8     		add	r0, sp, #28
 6462              	.LVL694:
  94:App/Src/fault_command.c ****   WaveformEngine_Status highStatus = WaveformEngine_GetStatus();
 6463              		.loc 1 94 31 view .LVU1436
 6464 000a FFF7FEFF 		bl	WaveformGen_GetStatus
 6465              	.LVL695:
  95:App/Src/fault_command.c **** 
 6466              		.loc 1 95 3 is_stmt 1 view .LVU1437
  95:App/Src/fault_command.c **** 
 6467              		.loc 1 95 38 is_stmt 0 view .LVU1438
 6468 000e 04A8     		add	r0, sp, #16
 6469 0010 FFF7FEFF 		bl	WaveformEngine_GetStatus
 6470              	.LVL696:
  97:App/Src/fault_command.c ****                            context,
 6471              		.loc 1 97 3 is_stmt 1 view .LVU1439
 100:App/Src/fault_command.c ****                            WaveformGen_GetTypeName(status.type),
 6472              		.loc 1 100 34 is_stmt 0 view .LVU1440
ARM GAS  C:\Users\hh\AppData\Local\Temp\ccntMbQq.s 			page 176


 6473 0014 9DF81D40 		ldrb	r4, [sp, #29]	@ zero_extendqisi2
  97:App/Src/fault_command.c ****                            context,
 6474              		.loc 1 97 3 view .LVU1441
 6475 0018 9DF81C00 		ldrb	r0, [sp, #28]	@ zero_extendqisi2
 6476 001c FFF7FEFF 		bl	WaveformGen_GetTypeName
 6477              	.LVL697:
 102:App/Src/fault_command.c ****                            (unsigned long)status.periodMs,
 6478              		.loc 1 102 34 view .LVU1442
 6479 0020 9DF81E30 		ldrb	r3, [sp, #30]	@ zero_extendqisi2
 104:App/Src/fault_command.c ****   FaultCommand_WriteFormat(write,
 6480              		.loc 1 104 34 view .LVU1443
 6481 0024 BDF82C20 		ldrh	r2, [sp, #44]
  97:App/Src/fault_command.c ****                            context,
 6482              		.loc 1 97 3 view .LVU1444
 6483 0028 0392     		str	r2, [sp, #12]
 6484 002a 0A9A     		ldr	r2, [sp, #40]
 6485 002c 0292     		str	r2, [sp, #8]
 6486 002e 0193     		str	r3, [sp, #4]
 6487 0030 0090     		str	r0, [sp]
 6488 0032 2346     		mov	r3, r4
 6489 0034 0A4A     		ldr	r2, .L449
 6490 0036 3146     		mov	r1, r6
 6491 0038 2846     		mov	r0, r5
 6492 003a FFF7FEFF 		bl	FaultCommand_WriteFormat
 6493              	.LVL698:
 105:App/Src/fault_command.c ****                            context,
 6494              		.loc 1 105 3 is_stmt 1 view .LVU1445
 108:App/Src/fault_command.c ****                            highStatus.bufferIndex,
 6495              		.loc 1 108 38 is_stmt 0 view .LVU1446
 6496 003e 9DF81030 		ldrb	r3, [sp, #16]	@ zero_extendqisi2
 109:App/Src/fault_command.c ****                            (unsigned long)highStatus.sampleCount,
 6497              		.loc 1 109 38 view .LVU1447
 6498 0042 9DF81120 		ldrb	r2, [sp, #17]	@ zero_extendqisi2
 105:App/Src/fault_command.c ****                            context,
 6499              		.loc 1 105 3 view .LVU1448
 6500 0046 0699     		ldr	r1, [sp, #24]
 6501 0048 0291     		str	r1, [sp, #8]
 6502 004a 0599     		ldr	r1, [sp, #20]
 6503 004c 0191     		str	r1, [sp, #4]
 6504 004e 0092     		str	r2, [sp]
 6505 0050 044A     		ldr	r2, .L449+4
 6506 0052 3146     		mov	r1, r6
 6507 0054 2846     		mov	r0, r5
 6508 0056 FFF7FEFF 		bl	FaultCommand_WriteFormat
 6509              	.LVL699:
 112:App/Src/fault_command.c **** 
 6510              		.loc 1 112 1 view .LVU1449
 6511 005a 0CB0     		add	sp, sp, #48
 6512              	.LCFI96:
 6513              		.cfi_def_cfa_offset 16
 6514              		@ sp needed
 6515 005c 70BD     		pop	{r4, r5, r6, pc}
 6516              	.LVL700:
 6517              	.L450:
 112:App/Src/fault_command.c **** 
 6518              		.loc 1 112 1 view .LVU1450
 6519 005e 00BF     		.align	2
ARM GAS  C:\Users\hh\AppData\Local\Temp\ccntMbQq.s 			page 177


 6520              	.L449:
 6521 0060 00000000 		.word	.LC153
 6522 0064 3C000000 		.word	.LC154
 6523              		.cfi_endproc
 6524              	.LFE153:
 6526              		.section	.rodata.FaultCommand_ExecuteText.str1.4,"aMS",%progbits,1
 6527              		.align	2
 6528              	.LC155:
 6529 0000 3F00     		.ascii	"?\000"
 6530 0002 0000     		.align	2
 6531              	.LC156:
 6532 0004 6E6F726D 		.ascii	"normal %u\000"
 6532      616C2025 
 6532      7500
 6533 000e 0000     		.align	2
 6534              	.LC157:
 6535 0010 73657420 		.ascii	"set %u %u\000"
 6535      25752025 
 6535      7500
 6536 001a 0000     		.align	2
 6537              	.LC158:
 6538 001c 6F762000 		.ascii	"ov \000"
 6539              		.align	2
 6540              	.LC159:
 6541 0020 6F762025 		.ascii	"ov %u %u %lu %u\000"
 6541      75202575 
 6541      20256C75 
 6541      20257500 
 6542              		.align	2
 6543              	.LC160:
 6544 0030 75762000 		.ascii	"uv \000"
 6545              		.align	2
 6546              	.LC161:
 6547 0034 75762025 		.ascii	"uv %u %u %lu %u\000"
 6547      75202575 
 6547      20256C75 
 6547      20257500 
 6548              		.align	2
 6549              	.LC162:
 6550 0044 64696666 		.ascii	"diff \000"
 6550      2000
 6551 004a 0000     		.align	2
 6552              	.LC163:
 6553 004c 64696666 		.ascii	"diff %u %u %u %u %lu %u\000"
 6553      20257520 
 6553      25752025 
 6553      75202575 
 6553      20256C75 
 6554              		.align	2
 6555              	.LC164:
 6556 0064 77617665 		.ascii	"wave status\000"
 6556      20737461 
 6556      74757300 
 6557              		.align	2
 6558              	.LC165:
 6559 0070 77617665 		.ascii	"wave stop\000"
 6559      2073746F 
ARM GAS  C:\Users\hh\AppData\Local\Temp\ccntMbQq.s 			page 178


 6559      7000
 6560 007a 0000     		.align	2
 6561              	.LC166:
 6562 007c 77617665 		.ascii	"wave high \000"
 6562      20686967 
 6562      682000
 6563 0087 00       		.align	2
 6564              	.LC167:
 6565 0088 77617665 		.ascii	"wave-high\000"
 6565      2D686967 
 6565      6800
 6566 0092 0000     		.align	2
 6567              	.LC168:
 6568 0094 77617665 		.ascii	"wave high %u %u %u %u %u\000"
 6568      20686967 
 6568      68202575 
 6568      20257520 
 6568      25752025 
 6569 00ad 000000   		.align	2
 6570              	.LC169:
 6571 00b0 77617665 		.ascii	"wave square \000"
 6571      20737175 
 6571      61726520 
 6571      00
 6572 00bd 000000   		.align	2
 6573              	.LC170:
 6574 00c0 77617665 		.ascii	"wave square %u %u %u %lu\000"
 6574      20737175 
 6574      61726520 
 6574      25752025 
 6574      75202575 
 6575 00d9 000000   		.align	2
 6576              	.LC171:
 6577 00dc 77617665 		.ascii	"wave sine all \000"
 6577      2073696E 
 6577      6520616C 
 6577      6C2000
 6578 00eb 00       		.align	2
 6579              	.LC172:
 6580 00ec 77617665 		.ascii	"wave sine all %u %u %lu\000"
 6580      2073696E 
 6580      6520616C 
 6580      6C202575 
 6580      20257520 
 6581              		.align	2
 6582              	.LC173:
 6583 0104 77617665 		.ascii	"wave sine \000"
 6583      2073696E 
 6583      652000
 6584 010f 00       		.align	2
 6585              	.LC174:
 6586 0110 77617665 		.ascii	"wave sine %u %u %u %lu\000"
 6586      2073696E 
 6586      65202575 
 6586      20257520 
 6586      25752025 
 6587 0127 00       		.align	2
ARM GAS  C:\Users\hh\AppData\Local\Temp\ccntMbQq.s 			page 179


 6588              	.LC175:
 6589 0128 63616C20 		.ascii	"cal status\000"
 6589      73746174 
 6589      757300
 6590 0133 00       		.align	2
 6591              	.LC176:
 6592 0134 63616C20 		.ascii	"cal set \000"
 6592      73657420 
 6592      00
 6593 013d 000000   		.align	2
 6594              	.LC177:
 6595 0140 63616C20 		.ascii	"cal set %u %d\000"
 6595      73657420 
 6595      25752025 
 6595      6400
 6596 014e 0000     		.align	2
 6597              	.LC178:
 6598 0150 63616C20 		.ascii	"cal trim \000"
 6598      7472696D 
 6598      2000
 6599 015a 0000     		.align	2
 6600              	.LC179:
 6601 015c 63616C20 		.ascii	"cal trim %u %u %u\000"
 6601      7472696D 
 6601      20257520 
 6601      25752025 
 6601      7500
 6602 016e 0000     		.align	2
 6603              	.LC180:
 6604 0170 63616C20 		.ascii	"cal clear\000"
 6604      636C6561 
 6604      7200
 6605 017a 0000     		.align	2
 6606              	.LC181:
 6607 017c 63616C20 		.ascii	"cal clear %u\000"
 6607      636C6561 
 6607      72202575 
 6607      00
 6608 0189 000000   		.align	2
 6609              	.LC182:
 6610 018c 74657374 		.ascii	"test static \000"
 6610      20737461 
 6610      74696320 
 6610      00
 6611 0199 000000   		.align	2
 6612              	.LC183:
 6613 019c 74657374 		.ascii	"test static %u\000"
 6613      20737461 
 6613      74696320 
 6613      257500
 6614 01ab 00       		.align	2
 6615              	.LC184:
 6616 01ac 74657374 		.ascii	"test slew \000"
 6616      20736C65 
 6616      772000
 6617 01b7 00       		.align	2
 6618              	.LC185:
ARM GAS  C:\Users\hh\AppData\Local\Temp\ccntMbQq.s 			page 180


 6619 01b8 74657374 		.ascii	"test slew %u %u %u %lu\000"
 6619      20736C65 
 6619      77202575 
 6619      20257520 
 6619      25752025 
 6620 01cf 00       		.align	2
 6621              	.LC186:
 6622 01d0 63616E20 		.ascii	"can status\000"
 6622      73746174 
 6622      757300
 6623 01db 00       		.align	2
 6624              	.LC187:
 6625 01dc 63616E20 		.ascii	"can send \000"
 6625      73656E64 
 6625      2000
 6626 01e6 0000     		.align	2
 6627              	.LC188:
 6628 01e8 6C6F6720 		.ascii	"log status\000"
 6628      73746174 
 6628      757300
 6629 01f3 00       		.align	2
 6630              	.LC189:
 6631 01f4 6C6F6720 		.ascii	"log clear\000"
 6631      636C6561 
 6631      7200
 6632 01fe 0000     		.align	2
 6633              	.LC190:
 6634 0200 6C6F6720 		.ascii	"log filter \000"
 6634      66696C74 
 6634      65722000 
 6635              		.align	2
 6636              	.LC191:
 6637 020c 6C6F6720 		.ascii	"log data \000"
 6637      64617461 
 6637      2000
 6638 0216 0000     		.align	2
 6639              	.LC192:
 6640 0218 73616665 		.ascii	"safe status\000"
 6640      20737461 
 6640      74757300 
 6641              		.align	2
 6642              	.LC193:
 6643 0224 73616665 		.ascii	"safe stop\000"
 6643      2073746F 
 6643      7000
 6644 022e 0000     		.align	2
 6645              	.LC194:
 6646 0230 656D6572 		.ascii	"emergency stop\000"
 6646      67656E63 
 6646      79207374 
 6646      6F7000
 6647 023f 00       		.align	2
 6648              	.LC195:
 6649 0240 73616665 		.ascii	"safe stop %u\000"
 6649      2073746F 
 6649      70202575 
 6649      00
ARM GAS  C:\Users\hh\AppData\Local\Temp\ccntMbQq.s 			page 181


 6650 024d 000000   		.align	2
 6651              	.LC196:
 6652 0250 656D6572 		.ascii	"emergency stop %u\000"
 6652      67656E63 
 6652      79207374 
 6652      6F702025 
 6652      7500
 6653 0262 0000     		.align	2
 6654              	.LC197:
 6655 0264 73616665 		.ascii	"safe release\000"
 6655      2072656C 
 6655      65617365 
 6655      00
 6656 0271 000000   		.align	2
 6657              	.LC198:
 6658 0274 7372616D 		.ascii	"sram status\000"
 6658      20737461 
 6658      74757300 
 6659              		.align	2
 6660              	.LC199:
 6661 0280 7372616D 		.ascii	"sram test\000"
 6661      20746573 
 6661      7400
 6662 028a 0000     		.align	2
 6663              	.LC200:
 6664 028c 7372616D 		.ascii	"sram test %lu\000"
 6664      20746573 
 6664      7420256C 
 6664      7500
 6665 029a 0000     		.align	2
 6666              	.LC201:
 6667 029c 636C6561 		.ascii	"clear %u\000"
 6667      72202575 
 6667      00
 6668 02a5 000000   		.align	2
 6669              	.LC202:
 6670 02a8 5B636D64 		.ascii	"[cmd] unknown: %s\015\012\000"
 6670      5D20756E 
 6670      6B6E6F77 
 6670      6E3A2025 
 6670      730D0A00 
 6671              		.section	.text.FaultCommand_ExecuteText,"ax",%progbits
 6672              		.align	1
 6673              		.syntax unified
 6674              		.thumb
 6675              		.thumb_func
 6677              	FaultCommand_ExecuteText:
 6678              	.LVL701:
 6679              	.LFB177:
 731:App/Src/fault_command.c ****   unsigned int cell;
 6680              		.loc 1 731 1 is_stmt 1 view -0
 6681              		.cfi_startproc
 6682              		@ args = 0, pretend = 0, frame = 96
 6683              		@ frame_needed = 0, uses_anonymous_args = 0
 731:App/Src/fault_command.c ****   unsigned int cell;
 6684              		.loc 1 731 1 is_stmt 0 view .LVU1452
 6685 0000 70B5     		push	{r4, r5, r6, lr}
ARM GAS  C:\Users\hh\AppData\Local\Temp\ccntMbQq.s 			page 182


 6686              	.LCFI97:
 6687              		.cfi_def_cfa_offset 16
 6688              		.cfi_offset 4, -16
 6689              		.cfi_offset 5, -12
 6690              		.cfi_offset 6, -8
 6691              		.cfi_offset 14, -4
 6692 0002 9CB0     		sub	sp, sp, #112
 6693              	.LCFI98:
 6694              		.cfi_def_cfa_offset 128
 6695 0004 0446     		mov	r4, r0
 6696 0006 0E46     		mov	r6, r1
 6697 0008 1546     		mov	r5, r2
 732:App/Src/fault_command.c ****   unsigned int millivolts;
 6698              		.loc 1 732 3 is_stmt 1 view .LVU1453
 733:App/Src/fault_command.c ****   unsigned int target;
 6699              		.loc 1 733 3 view .LVU1454
 734:App/Src/fault_command.c ****   unsigned long duration;
 6700              		.loc 1 734 3 view .LVU1455
 735:App/Src/fault_command.c ****   unsigned int slew;
 6701              		.loc 1 735 3 view .LVU1456
 736:App/Src/fault_command.c ****   unsigned int lowMv;
 6702              		.loc 1 736 3 view .LVU1457
 737:App/Src/fault_command.c ****   unsigned int highMv;
 6703              		.loc 1 737 3 view .LVU1458
 738:App/Src/fault_command.c ****   unsigned int centerMv;
 6704              		.loc 1 738 3 view .LVU1459
 739:App/Src/fault_command.c ****   unsigned int amplitudeMv;
 6705              		.loc 1 739 3 view .LVU1460
 740:App/Src/fault_command.c ****   unsigned long periodMs;
 6706              		.loc 1 740 3 view .LVU1461
 741:App/Src/fault_command.c ****   int calOffsetMv;
 6707              		.loc 1 741 3 view .LVU1462
 742:App/Src/fault_command.c ****   unsigned int measuredMv;
 6708              		.loc 1 742 3 view .LVU1463
 743:App/Src/fault_command.c **** 
 6709              		.loc 1 743 3 view .LVU1464
 745:App/Src/fault_command.c ****   {
 6710              		.loc 1 745 3 view .LVU1465
 745:App/Src/fault_command.c ****   {
 6711              		.loc 1 745 8 is_stmt 0 view .LVU1466
 6712 000a A249     		ldr	r1, .L554
 6713              	.LVL702:
 745:App/Src/fault_command.c ****   {
 6714              		.loc 1 745 8 view .LVU1467
 6715 000c FFF7FEFF 		bl	strcmp
 6716              	.LVL703:
 745:App/Src/fault_command.c ****   {
 6717              		.loc 1 745 6 discriminator 1 view .LVU1468
 6718 0010 20B1     		cbz	r0, .L452
 745:App/Src/fault_command.c ****   {
 6719              		.loc 1 745 39 discriminator 2 view .LVU1469
 6720 0012 A149     		ldr	r1, .L554+4
 6721 0014 2046     		mov	r0, r4
 6722 0016 FFF7FEFF 		bl	strcmp
 6723              	.LVL704:
 745:App/Src/fault_command.c ****   {
 6724              		.loc 1 745 35 discriminator 3 view .LVU1470
ARM GAS  C:\Users\hh\AppData\Local\Temp\ccntMbQq.s 			page 183


 6725 001a 28B9     		cbnz	r0, .L453
 6726              	.L452:
 747:App/Src/fault_command.c ****   }
 6727              		.loc 1 747 5 is_stmt 1 view .LVU1471
 6728 001c 2946     		mov	r1, r5
 6729 001e 3046     		mov	r0, r6
 6730 0020 FFF7FEFF 		bl	FaultCommand_WriteTextHelp
 6731              	.LVL705:
 6732              	.L451:
1170:App/Src/fault_command.c **** 
 6733              		.loc 1 1170 1 is_stmt 0 view .LVU1472
 6734 0024 1CB0     		add	sp, sp, #112
 6735              	.LCFI99:
 6736              		.cfi_remember_state
 6737              		.cfi_def_cfa_offset 16
 6738              		@ sp needed
 6739 0026 70BD     		pop	{r4, r5, r6, pc}
 6740              	.LVL706:
 6741              	.L453:
 6742              	.LCFI100:
 6743              		.cfi_restore_state
 749:App/Src/fault_command.c ****   {
 6744              		.loc 1 749 8 is_stmt 1 view .LVU1473
 749:App/Src/fault_command.c ****   {
 6745              		.loc 1 749 12 is_stmt 0 view .LVU1474
 6746 0028 9C49     		ldr	r1, .L554+8
 6747 002a 2046     		mov	r0, r4
 6748 002c FFF7FEFF 		bl	strcmp
 6749              	.LVL707:
 749:App/Src/fault_command.c ****   {
 6750              		.loc 1 749 11 discriminator 1 view .LVU1475
 6751 0030 C0B1     		cbz	r0, .L512
 753:App/Src/fault_command.c ****   {
 6752              		.loc 1 753 8 is_stmt 1 view .LVU1476
 753:App/Src/fault_command.c ****   {
 6753              		.loc 1 753 12 is_stmt 0 view .LVU1477
 6754 0032 0622     		movs	r2, #6
 6755 0034 9A49     		ldr	r1, .L554+12
 6756 0036 2046     		mov	r0, r4
 6757 0038 FFF7FEFF 		bl	strncmp
 6758              	.LVL708:
 753:App/Src/fault_command.c ****   {
 6759              		.loc 1 753 11 discriminator 1 view .LVU1478
 6760 003c B8B9     		cbnz	r0, .L456
 755:App/Src/fault_command.c ****     (void)sscanf(line, "normal %u", &millivolts);
 6761              		.loc 1 755 5 is_stmt 1 view .LVU1479
 755:App/Src/fault_command.c ****     (void)sscanf(line, "normal %u", &millivolts);
 6762              		.loc 1 755 16 is_stmt 0 view .LVU1480
 6763 003e 4FF44863 		mov	r3, #3200
 6764 0042 1A93     		str	r3, [sp, #104]
 756:App/Src/fault_command.c ****     FaultCommand_WriteTextResult(write,
 6765              		.loc 1 756 5 is_stmt 1 view .LVU1481
 756:App/Src/fault_command.c ****     FaultCommand_WriteTextResult(write,
 6766              		.loc 1 756 11 is_stmt 0 view .LVU1482
 6767 0044 1AAA     		add	r2, sp, #104
 6768 0046 9749     		ldr	r1, .L554+16
 6769 0048 2046     		mov	r0, r4
ARM GAS  C:\Users\hh\AppData\Local\Temp\ccntMbQq.s 			page 184


 6770 004a FFF7FEFF 		bl	sscanf
 6771              	.LVL709:
 757:App/Src/fault_command.c ****                                  context,
 6772              		.loc 1 757 5 is_stmt 1 view .LVU1483
 6773 004e BDF86800 		ldrh	r0, [sp, #104]
 6774 0052 FFF7FEFF 		bl	FaultCommand_RunNormal
 6775              	.LVL710:
 6776 0056 0346     		mov	r3, r0
 757:App/Src/fault_command.c ****                                  context,
 6777              		.loc 1 757 5 is_stmt 0 discriminator 1 view .LVU1484
 6778 0058 914A     		ldr	r2, .L554+12
 6779 005a 2946     		mov	r1, r5
 6780 005c 3046     		mov	r0, r6
 6781 005e FFF7FEFF 		bl	FaultCommand_WriteTextResult
 6782              	.LVL711:
 6783 0062 DFE7     		b	.L451
 6784              	.L512:
 751:App/Src/fault_command.c ****   }
 6785              		.loc 1 751 5 is_stmt 1 view .LVU1485
 6786 0064 2946     		mov	r1, r5
 6787 0066 3046     		mov	r0, r6
 6788 0068 FFF7FEFF 		bl	FaultCommand_WriteTextStatus
 6789              	.LVL712:
 6790 006c DAE7     		b	.L451
 6791              	.L456:
 762:App/Src/fault_command.c ****   {
 6792              		.loc 1 762 8 view .LVU1486
 762:App/Src/fault_command.c ****   {
 6793              		.loc 1 762 12 is_stmt 0 view .LVU1487
 6794 006e 1AAB     		add	r3, sp, #104
 6795 0070 1BAA     		add	r2, sp, #108
 6796 0072 8D49     		ldr	r1, .L554+20
 6797 0074 2046     		mov	r0, r4
 6798 0076 FFF7FEFF 		bl	sscanf
 6799              	.LVL713:
 762:App/Src/fault_command.c ****   {
 6800              		.loc 1 762 11 discriminator 1 view .LVU1488
 6801 007a 0228     		cmp	r0, #2
 6802 007c 00F0D180 		beq	.L513
 769:App/Src/fault_command.c ****   {
 6803              		.loc 1 769 8 is_stmt 1 view .LVU1489
 769:App/Src/fault_command.c ****   {
 6804              		.loc 1 769 12 is_stmt 0 view .LVU1490
 6805 0080 0322     		movs	r2, #3
 6806 0082 8A49     		ldr	r1, .L554+24
 6807 0084 2046     		mov	r0, r4
 6808 0086 FFF7FEFF 		bl	strncmp
 6809              	.LVL714:
 769:App/Src/fault_command.c ****   {
 6810              		.loc 1 769 11 discriminator 1 view .LVU1491
 6811 008a 0028     		cmp	r0, #0
 6812 008c 00F0D680 		beq	.L514
 789:App/Src/fault_command.c ****   {
 6813              		.loc 1 789 8 is_stmt 1 view .LVU1492
 789:App/Src/fault_command.c ****   {
 6814              		.loc 1 789 12 is_stmt 0 view .LVU1493
 6815 0090 0322     		movs	r2, #3
ARM GAS  C:\Users\hh\AppData\Local\Temp\ccntMbQq.s 			page 185


 6816 0092 8749     		ldr	r1, .L554+28
 6817 0094 2046     		mov	r0, r4
 6818 0096 FFF7FEFF 		bl	strncmp
 6819              	.LVL715:
 789:App/Src/fault_command.c ****   {
 6820              		.loc 1 789 11 discriminator 1 view .LVU1494
 6821 009a 0028     		cmp	r0, #0
 6822 009c 00F04281 		beq	.L515
 809:App/Src/fault_command.c ****   {
 6823              		.loc 1 809 8 is_stmt 1 view .LVU1495
 809:App/Src/fault_command.c ****   {
 6824              		.loc 1 809 12 is_stmt 0 view .LVU1496
 6825 00a0 0522     		movs	r2, #5
 6826 00a2 8449     		ldr	r1, .L554+32
 6827 00a4 2046     		mov	r0, r4
 6828 00a6 FFF7FEFF 		bl	strncmp
 6829              	.LVL716:
 809:App/Src/fault_command.c ****   {
 6830              		.loc 1 809 11 discriminator 1 view .LVU1497
 6831 00aa 0028     		cmp	r0, #0
 6832 00ac 00F06681 		beq	.L516
 841:App/Src/fault_command.c ****   {
 6833              		.loc 1 841 8 is_stmt 1 view .LVU1498
 841:App/Src/fault_command.c ****   {
 6834              		.loc 1 841 12 is_stmt 0 view .LVU1499
 6835 00b0 8149     		ldr	r1, .L554+36
 6836 00b2 2046     		mov	r0, r4
 6837 00b4 FFF7FEFF 		bl	strcmp
 6838              	.LVL717:
 841:App/Src/fault_command.c ****   {
 6839              		.loc 1 841 11 discriminator 1 view .LVU1500
 6840 00b8 0028     		cmp	r0, #0
 6841 00ba 00F09181 		beq	.L517
 845:App/Src/fault_command.c ****   {
 6842              		.loc 1 845 8 is_stmt 1 view .LVU1501
 845:App/Src/fault_command.c ****   {
 6843              		.loc 1 845 12 is_stmt 0 view .LVU1502
 6844 00be 7F49     		ldr	r1, .L554+40
 6845 00c0 2046     		mov	r0, r4
 6846 00c2 FFF7FEFF 		bl	strcmp
 6847              	.LVL718:
 845:App/Src/fault_command.c ****   {
 6848              		.loc 1 845 11 discriminator 1 view .LVU1503
 6849 00c6 0028     		cmp	r0, #0
 6850 00c8 00F08F81 		beq	.L518
 850:App/Src/fault_command.c ****   {
 6851              		.loc 1 850 8 is_stmt 1 view .LVU1504
 850:App/Src/fault_command.c ****   {
 6852              		.loc 1 850 12 is_stmt 0 view .LVU1505
 6853 00cc 0A22     		movs	r2, #10
 6854 00ce 7C49     		ldr	r1, .L554+44
 6855 00d0 2046     		mov	r0, r4
 6856 00d2 FFF7FEFF 		bl	strncmp
 6857              	.LVL719:
 850:App/Src/fault_command.c ****   {
 6858              		.loc 1 850 11 discriminator 1 view .LVU1506
 6859 00d6 0028     		cmp	r0, #0
ARM GAS  C:\Users\hh\AppData\Local\Temp\ccntMbQq.s 			page 186


 6860 00d8 00F09081 		beq	.L519
 889:App/Src/fault_command.c ****   {
 6861              		.loc 1 889 8 is_stmt 1 view .LVU1507
 889:App/Src/fault_command.c ****   {
 6862              		.loc 1 889 12 is_stmt 0 view .LVU1508
 6863 00dc 0C22     		movs	r2, #12
 6864 00de 7949     		ldr	r1, .L554+48
 6865 00e0 2046     		mov	r0, r4
 6866 00e2 FFF7FEFF 		bl	strncmp
 6867              	.LVL720:
 889:App/Src/fault_command.c ****   {
 6868              		.loc 1 889 11 discriminator 1 view .LVU1509
 6869 00e6 0028     		cmp	r0, #0
 6870 00e8 00F0CF81 		beq	.L520
 917:App/Src/fault_command.c ****   {
 6871              		.loc 1 917 8 is_stmt 1 view .LVU1510
 917:App/Src/fault_command.c ****   {
 6872              		.loc 1 917 12 is_stmt 0 view .LVU1511
 6873 00ec 0E22     		movs	r2, #14
 6874 00ee 7649     		ldr	r1, .L554+52
 6875 00f0 2046     		mov	r0, r4
 6876 00f2 FFF7FEFF 		bl	strncmp
 6877              	.LVL721:
 917:App/Src/fault_command.c ****   {
 6878              		.loc 1 917 11 discriminator 1 view .LVU1512
 6879 00f6 0028     		cmp	r0, #0
 6880 00f8 00F0F681 		beq	.L521
 943:App/Src/fault_command.c ****   {
 6881              		.loc 1 943 8 is_stmt 1 view .LVU1513
 943:App/Src/fault_command.c ****   {
 6882              		.loc 1 943 12 is_stmt 0 view .LVU1514
 6883 00fc 0A22     		movs	r2, #10
 6884 00fe 7349     		ldr	r1, .L554+56
 6885 0100 2046     		mov	r0, r4
 6886 0102 FFF7FEFF 		bl	strncmp
 6887              	.LVL722:
 943:App/Src/fault_command.c ****   {
 6888              		.loc 1 943 11 discriminator 1 view .LVU1515
 6889 0106 0028     		cmp	r0, #0
 6890 0108 00F01982 		beq	.L522
 971:App/Src/fault_command.c ****   {
 6891              		.loc 1 971 8 is_stmt 1 view .LVU1516
 971:App/Src/fault_command.c ****   {
 6892              		.loc 1 971 12 is_stmt 0 view .LVU1517
 6893 010c 7049     		ldr	r1, .L554+60
 6894 010e 2046     		mov	r0, r4
 6895 0110 FFF7FEFF 		bl	strcmp
 6896              	.LVL723:
 971:App/Src/fault_command.c ****   {
 6897              		.loc 1 971 11 discriminator 1 view .LVU1518
 6898 0114 0028     		cmp	r0, #0
 6899 0116 00F04182 		beq	.L523
 975:App/Src/fault_command.c ****   {
 6900              		.loc 1 975 8 is_stmt 1 view .LVU1519
 975:App/Src/fault_command.c ****   {
 6901              		.loc 1 975 12 is_stmt 0 view .LVU1520
 6902 011a 0822     		movs	r2, #8
ARM GAS  C:\Users\hh\AppData\Local\Temp\ccntMbQq.s 			page 187


 6903 011c 6D49     		ldr	r1, .L554+64
 6904 011e 2046     		mov	r0, r4
 6905 0120 FFF7FEFF 		bl	strncmp
 6906              	.LVL724:
 975:App/Src/fault_command.c ****   {
 6907              		.loc 1 975 11 discriminator 1 view .LVU1521
 6908 0124 0028     		cmp	r0, #0
 6909 0126 00F03E82 		beq	.L524
 995:App/Src/fault_command.c ****   {
 6910              		.loc 1 995 8 is_stmt 1 view .LVU1522
 995:App/Src/fault_command.c ****   {
 6911              		.loc 1 995 12 is_stmt 0 view .LVU1523
 6912 012a 0922     		movs	r2, #9
 6913 012c 6A49     		ldr	r1, .L554+68
 6914 012e 2046     		mov	r0, r4
 6915 0130 FFF7FEFF 		bl	strncmp
 6916              	.LVL725:
 995:App/Src/fault_command.c ****   {
 6917              		.loc 1 995 11 discriminator 1 view .LVU1524
 6918 0134 0028     		cmp	r0, #0
 6919 0136 00F07582 		beq	.L525
1016:App/Src/fault_command.c ****   {
 6920              		.loc 1 1016 8 is_stmt 1 view .LVU1525
1016:App/Src/fault_command.c ****   {
 6921              		.loc 1 1016 12 is_stmt 0 view .LVU1526
 6922 013a 0922     		movs	r2, #9
 6923 013c 6749     		ldr	r1, .L554+72
 6924 013e 2046     		mov	r0, r4
 6925 0140 FFF7FEFF 		bl	strncmp
 6926              	.LVL726:
1016:App/Src/fault_command.c ****   {
 6927              		.loc 1 1016 11 discriminator 1 view .LVU1527
 6928 0144 0028     		cmp	r0, #0
 6929 0146 00F09782 		beq	.L526
1037:App/Src/fault_command.c ****   {
 6930              		.loc 1 1037 8 is_stmt 1 view .LVU1528
1037:App/Src/fault_command.c ****   {
 6931              		.loc 1 1037 12 is_stmt 0 view .LVU1529
 6932 014a 0C22     		movs	r2, #12
 6933 014c 6449     		ldr	r1, .L554+76
 6934 014e 2046     		mov	r0, r4
 6935 0150 FFF7FEFF 		bl	strncmp
 6936              	.LVL727:
1037:App/Src/fault_command.c ****   {
 6937              		.loc 1 1037 11 discriminator 1 view .LVU1530
 6938 0154 0028     		cmp	r0, #0
 6939 0156 00F0B482 		beq	.L527
1050:App/Src/fault_command.c ****   {
 6940              		.loc 1 1050 8 is_stmt 1 view .LVU1531
1050:App/Src/fault_command.c ****   {
 6941              		.loc 1 1050 12 is_stmt 0 view .LVU1532
 6942 015a 0A22     		movs	r2, #10
 6943 015c 6149     		ldr	r1, .L554+80
 6944 015e 2046     		mov	r0, r4
 6945 0160 FFF7FEFF 		bl	strncmp
 6946              	.LVL728:
1050:App/Src/fault_command.c ****   {
ARM GAS  C:\Users\hh\AppData\Local\Temp\ccntMbQq.s 			page 188


 6947              		.loc 1 1050 11 discriminator 1 view .LVU1533
 6948 0164 0028     		cmp	r0, #0
 6949 0166 00F0C582 		beq	.L528
1077:App/Src/fault_command.c ****   {
 6950              		.loc 1 1077 8 is_stmt 1 view .LVU1534
1077:App/Src/fault_command.c ****   {
 6951              		.loc 1 1077 12 is_stmt 0 view .LVU1535
 6952 016a 5F49     		ldr	r1, .L554+84
 6953 016c 2046     		mov	r0, r4
 6954 016e FFF7FEFF 		bl	strcmp
 6955              	.LVL729:
1077:App/Src/fault_command.c ****   {
 6956              		.loc 1 1077 11 discriminator 1 view .LVU1536
 6957 0172 0028     		cmp	r0, #0
 6958 0174 00F0EB82 		beq	.L529
1081:App/Src/fault_command.c ****   {
 6959              		.loc 1 1081 8 is_stmt 1 view .LVU1537
1081:App/Src/fault_command.c ****   {
 6960              		.loc 1 1081 12 is_stmt 0 view .LVU1538
 6961 0178 0922     		movs	r2, #9
 6962 017a 5C49     		ldr	r1, .L554+88
 6963 017c 2046     		mov	r0, r4
 6964 017e FFF7FEFF 		bl	strncmp
 6965              	.LVL730:
1081:App/Src/fault_command.c ****   {
 6966              		.loc 1 1081 11 discriminator 1 view .LVU1539
 6967 0182 0028     		cmp	r0, #0
 6968 0184 00F0E882 		beq	.L530
1088:App/Src/fault_command.c ****   {
 6969              		.loc 1 1088 8 is_stmt 1 view .LVU1540
1088:App/Src/fault_command.c ****   {
 6970              		.loc 1 1088 12 is_stmt 0 view .LVU1541
 6971 0188 5949     		ldr	r1, .L554+92
 6972 018a 2046     		mov	r0, r4
 6973 018c FFF7FEFF 		bl	strcmp
 6974              	.LVL731:
1088:App/Src/fault_command.c ****   {
 6975              		.loc 1 1088 11 discriminator 1 view .LVU1542
 6976 0190 0028     		cmp	r0, #0
 6977 0192 00F0EB82 		beq	.L531
1092:App/Src/fault_command.c ****   {
 6978              		.loc 1 1092 8 is_stmt 1 view .LVU1543
1092:App/Src/fault_command.c ****   {
 6979              		.loc 1 1092 12 is_stmt 0 view .LVU1544
 6980 0196 5749     		ldr	r1, .L554+96
 6981 0198 2046     		mov	r0, r4
 6982 019a FFF7FEFF 		bl	strcmp
 6983              	.LVL732:
1092:App/Src/fault_command.c ****   {
 6984              		.loc 1 1092 11 discriminator 1 view .LVU1545
 6985 019e 0028     		cmp	r0, #0
 6986 01a0 00F0E982 		beq	.L532
1097:App/Src/fault_command.c ****   {
 6987              		.loc 1 1097 8 is_stmt 1 view .LVU1546
1097:App/Src/fault_command.c ****   {
 6988              		.loc 1 1097 12 is_stmt 0 view .LVU1547
 6989 01a4 0B22     		movs	r2, #11
ARM GAS  C:\Users\hh\AppData\Local\Temp\ccntMbQq.s 			page 189


 6990 01a6 5449     		ldr	r1, .L554+100
 6991 01a8 2046     		mov	r0, r4
 6992 01aa FFF7FEFF 		bl	strncmp
 6993              	.LVL733:
1097:App/Src/fault_command.c ****   {
 6994              		.loc 1 1097 11 discriminator 1 view .LVU1548
 6995 01ae 0028     		cmp	r0, #0
 6996 01b0 00F0EA82 		beq	.L533
1105:App/Src/fault_command.c ****   {
 6997              		.loc 1 1105 8 is_stmt 1 view .LVU1549
1105:App/Src/fault_command.c ****   {
 6998              		.loc 1 1105 12 is_stmt 0 view .LVU1550
 6999 01b4 0922     		movs	r2, #9
 7000 01b6 5149     		ldr	r1, .L554+104
 7001 01b8 2046     		mov	r0, r4
 7002 01ba FFF7FEFF 		bl	strncmp
 7003              	.LVL734:
1105:App/Src/fault_command.c ****   {
 7004              		.loc 1 1105 11 discriminator 1 view .LVU1551
 7005 01be 0028     		cmp	r0, #0
 7006 01c0 00F0F082 		beq	.L534
1113:App/Src/fault_command.c ****   {
 7007              		.loc 1 1113 8 is_stmt 1 view .LVU1552
1113:App/Src/fault_command.c ****   {
 7008              		.loc 1 1113 12 is_stmt 0 view .LVU1553
 7009 01c4 4E49     		ldr	r1, .L554+108
 7010 01c6 2046     		mov	r0, r4
 7011 01c8 FFF7FEFF 		bl	strcmp
 7012              	.LVL735:
1113:App/Src/fault_command.c ****   {
 7013              		.loc 1 1113 11 discriminator 1 view .LVU1554
 7014 01cc 0028     		cmp	r0, #0
 7015 01ce 00F0F782 		beq	.L535
1117:App/Src/fault_command.c ****            (strncmp(line, "emergency stop", 14U) == 0))
 7016              		.loc 1 1117 8 is_stmt 1 view .LVU1555
1117:App/Src/fault_command.c ****            (strncmp(line, "emergency stop", 14U) == 0))
 7017              		.loc 1 1117 13 is_stmt 0 view .LVU1556
 7018 01d2 0922     		movs	r2, #9
 7019 01d4 4B49     		ldr	r1, .L554+112
 7020 01d6 2046     		mov	r0, r4
 7021 01d8 FFF7FEFF 		bl	strncmp
 7022              	.LVL736:
1117:App/Src/fault_command.c ****            (strncmp(line, "emergency stop", 14U) == 0))
 7023              		.loc 1 1117 11 discriminator 1 view .LVU1557
 7024 01dc 38B1     		cbz	r0, .L502
1118:App/Src/fault_command.c ****   {
 7025              		.loc 1 1118 13 view .LVU1558
 7026 01de 0E22     		movs	r2, #14
 7027 01e0 4949     		ldr	r1, .L554+116
 7028 01e2 2046     		mov	r0, r4
 7029 01e4 FFF7FEFF 		bl	strncmp
 7030              	.LVL737:
1117:App/Src/fault_command.c ****            (strncmp(line, "emergency stop", 14U) == 0))
 7031              		.loc 1 1117 50 discriminator 2 view .LVU1559
 7032 01e8 0028     		cmp	r0, #0
 7033 01ea 40F0EE82 		bne	.L503
 7034              	.L502:
ARM GAS  C:\Users\hh\AppData\Local\Temp\ccntMbQq.s 			page 190


1120:App/Src/fault_command.c ****     (void)sscanf(line, "safe stop %u", &millivolts);
 7035              		.loc 1 1120 5 is_stmt 1 view .LVU1560
1120:App/Src/fault_command.c ****     (void)sscanf(line, "safe stop %u", &millivolts);
 7036              		.loc 1 1120 16 is_stmt 0 view .LVU1561
 7037 01ee 4FF44863 		mov	r3, #3200
 7038 01f2 1A93     		str	r3, [sp, #104]
1121:App/Src/fault_command.c ****     (void)sscanf(line, "emergency stop %u", &millivolts);
 7039              		.loc 1 1121 5 is_stmt 1 view .LVU1562
1121:App/Src/fault_command.c ****     (void)sscanf(line, "emergency stop %u", &millivolts);
 7040              		.loc 1 1121 11 is_stmt 0 view .LVU1563
 7041 01f4 1AAA     		add	r2, sp, #104
 7042 01f6 4549     		ldr	r1, .L554+120
 7043 01f8 2046     		mov	r0, r4
 7044 01fa FFF7FEFF 		bl	sscanf
 7045              	.LVL738:
1122:App/Src/fault_command.c ****     FaultCommand_StopAllWaveforms();
 7046              		.loc 1 1122 5 is_stmt 1 view .LVU1564
1122:App/Src/fault_command.c ****     FaultCommand_StopAllWaveforms();
 7047              		.loc 1 1122 11 is_stmt 0 view .LVU1565
 7048 01fe 1AAA     		add	r2, sp, #104
 7049 0200 4349     		ldr	r1, .L554+124
 7050 0202 2046     		mov	r0, r4
 7051 0204 FFF7FEFF 		bl	sscanf
 7052              	.LVL739:
1123:App/Src/fault_command.c ****     FaultCommand_WriteTextResult(write,
 7053              		.loc 1 1123 5 is_stmt 1 view .LVU1566
 7054 0208 FFF7FEFF 		bl	FaultCommand_StopAllWaveforms
 7055              	.LVL740:
1124:App/Src/fault_command.c ****                                  context,
 7056              		.loc 1 1124 5 view .LVU1567
 7057 020c BDF86800 		ldrh	r0, [sp, #104]
 7058 0210 FFF7FEFF 		bl	DacSafety_EmergencyStop
 7059              	.LVL741:
 7060 0214 0346     		mov	r3, r0
1124:App/Src/fault_command.c ****                                  context,
 7061              		.loc 1 1124 5 is_stmt 0 discriminator 1 view .LVU1568
 7062 0216 3F4A     		ldr	r2, .L554+128
 7063 0218 2946     		mov	r1, r5
 7064 021a 3046     		mov	r0, r6
 7065 021c FFF7FEFF 		bl	FaultCommand_WriteTextResult
 7066              	.LVL742:
1124:App/Src/fault_command.c ****                                  context,
 7067              		.loc 1 1124 5 view .LVU1569
 7068 0220 00E7     		b	.L451
 7069              	.L513:
 764:App/Src/fault_command.c ****                                  context,
 7070              		.loc 1 764 5 is_stmt 1 view .LVU1570
 7071 0222 BDF86810 		ldrh	r1, [sp, #104]
 7072 0226 9DF86C00 		ldrb	r0, [sp, #108]	@ zero_extendqisi2
 7073 022a FFF7FEFF 		bl	FaultCommand_RunSet
 7074              	.LVL743:
 7075 022e 0346     		mov	r3, r0
 764:App/Src/fault_command.c ****                                  context,
 7076              		.loc 1 764 5 is_stmt 0 discriminator 1 view .LVU1571
 7077 0230 394A     		ldr	r2, .L554+132
 7078 0232 2946     		mov	r1, r5
 7079 0234 3046     		mov	r0, r6
ARM GAS  C:\Users\hh\AppData\Local\Temp\ccntMbQq.s 			page 191


 7080 0236 FFF7FEFF 		bl	FaultCommand_WriteTextResult
 7081              	.LVL744:
 7082 023a F3E6     		b	.L451
 7083              	.L514:
 771:App/Src/fault_command.c ****     target = VOLTAGE_SIM_DEFAULT_OV_MV;
 7084              		.loc 1 771 5 is_stmt 1 view .LVU1572
 771:App/Src/fault_command.c ****     target = VOLTAGE_SIM_DEFAULT_OV_MV;
 7085              		.loc 1 771 10 is_stmt 0 view .LVU1573
 7086 023c 1B90     		str	r0, [sp, #108]
 772:App/Src/fault_command.c ****     duration = FAULT_COMMAND_DEFAULT_DURATION_MS;
 7087              		.loc 1 772 5 is_stmt 1 view .LVU1574
 772:App/Src/fault_command.c ****     duration = FAULT_COMMAND_DEFAULT_DURATION_MS;
 7088              		.loc 1 772 12 is_stmt 0 view .LVU1575
 7089 023e 41F29413 		movw	r3, #4500
 7090 0242 1993     		str	r3, [sp, #100]
 773:App/Src/fault_command.c ****     slew = FAULT_COMMAND_DEFAULT_SLEW_MV_PER_MS;
 7091              		.loc 1 773 5 is_stmt 1 view .LVU1576
 773:App/Src/fault_command.c ****     slew = FAULT_COMMAND_DEFAULT_SLEW_MV_PER_MS;
 7092              		.loc 1 773 14 is_stmt 0 view .LVU1577
 7093 0244 6423     		movs	r3, #100
 7094 0246 1893     		str	r3, [sp, #96]
 774:App/Src/fault_command.c ****     if (sscanf(line, "ov %u %u %lu %u", &cell, &target, &duration, &slew) < 1)
 7095              		.loc 1 774 5 is_stmt 1 view .LVU1578
 774:App/Src/fault_command.c ****     if (sscanf(line, "ov %u %u %lu %u", &cell, &target, &duration, &slew) < 1)
 7096              		.loc 1 774 10 is_stmt 0 view .LVU1579
 7097 0248 40F6B833 		movw	r3, #3000
 7098 024c 1793     		str	r3, [sp, #92]
 775:App/Src/fault_command.c ****     {
 7099              		.loc 1 775 5 is_stmt 1 view .LVU1580
 775:App/Src/fault_command.c ****     {
 7100              		.loc 1 775 9 is_stmt 0 view .LVU1581
 7101 024e 17AB     		add	r3, sp, #92
 7102 0250 0193     		str	r3, [sp, #4]
 7103 0252 18AB     		add	r3, sp, #96
 7104 0254 0093     		str	r3, [sp]
 7105 0256 19AB     		add	r3, sp, #100
 7106 0258 1BAA     		add	r2, sp, #108
 7107 025a 3049     		ldr	r1, .L554+136
 7108 025c 2046     		mov	r0, r4
 7109 025e FFF7FEFF 		bl	sscanf
 7110              	.LVL745:
 775:App/Src/fault_command.c ****     {
 7111              		.loc 1 775 8 discriminator 1 view .LVU1582
 7112 0262 0028     		cmp	r0, #0
 7113 0264 0FDD     		ble	.L536
 781:App/Src/fault_command.c ****                                  context,
 7114              		.loc 1 781 5 is_stmt 1 view .LVU1583
 7115 0266 BDF85C30 		ldrh	r3, [sp, #92]
 7116 026a 189A     		ldr	r2, [sp, #96]
 7117 026c BDF86410 		ldrh	r1, [sp, #100]
 7118 0270 9DF86C00 		ldrb	r0, [sp, #108]	@ zero_extendqisi2
 7119 0274 FFF7FEFF 		bl	FaultCommand_RunOverVoltage
 7120              	.LVL746:
 7121 0278 0346     		mov	r3, r0
 781:App/Src/fault_command.c ****                                  context,
 7122              		.loc 1 781 5 is_stmt 0 discriminator 1 view .LVU1584
 7123 027a 294A     		ldr	r2, .L554+140
ARM GAS  C:\Users\hh\AppData\Local\Temp\ccntMbQq.s 			page 192


 7124 027c 2946     		mov	r1, r5
 7125 027e 3046     		mov	r0, r6
 7126 0280 FFF7FEFF 		bl	FaultCommand_WriteTextResult
 7127              	.LVL747:
 7128 0284 CEE6     		b	.L451
 7129              	.L536:
 777:App/Src/fault_command.c ****       return;
 7130              		.loc 1 777 7 is_stmt 1 view .LVU1585
 7131 0286 0123     		movs	r3, #1
 7132 0288 254A     		ldr	r2, .L554+140
 7133 028a 2946     		mov	r1, r5
 7134 028c 3046     		mov	r0, r6
 7135 028e FFF7FEFF 		bl	FaultCommand_WriteTextResult
 7136              	.LVL748:
 778:App/Src/fault_command.c ****     }
 7137              		.loc 1 778 7 view .LVU1586
 7138 0292 C7E6     		b	.L451
 7139              	.L555:
 7140              		.align	2
 7141              	.L554:
 7142 0294 34000000 		.word	.LC87
 7143 0298 00000000 		.word	.LC155
 7144 029c 2C000000 		.word	.LC86
 7145 02a0 C4000000 		.word	.LC89
 7146 02a4 04000000 		.word	.LC156
 7147 02a8 10000000 		.word	.LC157
 7148 02ac 1C000000 		.word	.LC158
 7149 02b0 30000000 		.word	.LC160
 7150 02b4 44000000 		.word	.LC162
 7151 02b8 64000000 		.word	.LC164
 7152 02bc 70000000 		.word	.LC165
 7153 02c0 7C000000 		.word	.LC166
 7154 02c4 B0000000 		.word	.LC169
 7155 02c8 DC000000 		.word	.LC171
 7156 02cc 04010000 		.word	.LC173
 7157 02d0 28010000 		.word	.LC175
 7158 02d4 34010000 		.word	.LC176
 7159 02d8 50010000 		.word	.LC178
 7160 02dc 70010000 		.word	.LC180
 7161 02e0 8C010000 		.word	.LC182
 7162 02e4 AC010000 		.word	.LC184
 7163 02e8 D0010000 		.word	.LC186
 7164 02ec DC010000 		.word	.LC187
 7165 02f0 E8010000 		.word	.LC188
 7166 02f4 F4010000 		.word	.LC189
 7167 02f8 00020000 		.word	.LC190
 7168 02fc 0C020000 		.word	.LC191
 7169 0300 18020000 		.word	.LC192
 7170 0304 24020000 		.word	.LC193
 7171 0308 30020000 		.word	.LC194
 7172 030c 40020000 		.word	.LC195
 7173 0310 50020000 		.word	.LC196
 7174 0314 B8020000 		.word	.LC142
 7175 0318 D0000000 		.word	.LC91
 7176 031c 20000000 		.word	.LC159
 7177 0320 DC000000 		.word	.LC93
 7178              	.L515:
ARM GAS  C:\Users\hh\AppData\Local\Temp\ccntMbQq.s 			page 193


 791:App/Src/fault_command.c ****     target = VOLTAGE_SIM_DEFAULT_UV_MV;
 7179              		.loc 1 791 5 view .LVU1587
 791:App/Src/fault_command.c ****     target = VOLTAGE_SIM_DEFAULT_UV_MV;
 7180              		.loc 1 791 10 is_stmt 0 view .LVU1588
 7181 0324 1B90     		str	r0, [sp, #108]
 792:App/Src/fault_command.c ****     duration = FAULT_COMMAND_DEFAULT_DURATION_MS;
 7182              		.loc 1 792 5 is_stmt 1 view .LVU1589
 792:App/Src/fault_command.c ****     duration = FAULT_COMMAND_DEFAULT_DURATION_MS;
 7183              		.loc 1 792 12 is_stmt 0 view .LVU1590
 7184 0326 4FF47A73 		mov	r3, #1000
 7185 032a 1993     		str	r3, [sp, #100]
 793:App/Src/fault_command.c ****     slew = FAULT_COMMAND_DEFAULT_SLEW_MV_PER_MS;
 7186              		.loc 1 793 5 is_stmt 1 view .LVU1591
 793:App/Src/fault_command.c ****     slew = FAULT_COMMAND_DEFAULT_SLEW_MV_PER_MS;
 7187              		.loc 1 793 14 is_stmt 0 view .LVU1592
 7188 032c 6423     		movs	r3, #100
 7189 032e 1893     		str	r3, [sp, #96]
 794:App/Src/fault_command.c ****     if (sscanf(line, "uv %u %u %lu %u", &cell, &target, &duration, &slew) < 1)
 7190              		.loc 1 794 5 is_stmt 1 view .LVU1593
 794:App/Src/fault_command.c ****     if (sscanf(line, "uv %u %u %lu %u", &cell, &target, &duration, &slew) < 1)
 7191              		.loc 1 794 10 is_stmt 0 view .LVU1594
 7192 0330 40F6B833 		movw	r3, #3000
 7193 0334 1793     		str	r3, [sp, #92]
 795:App/Src/fault_command.c ****     {
 7194              		.loc 1 795 5 is_stmt 1 view .LVU1595
 795:App/Src/fault_command.c ****     {
 7195              		.loc 1 795 9 is_stmt 0 view .LVU1596
 7196 0336 17AB     		add	r3, sp, #92
 7197 0338 0193     		str	r3, [sp, #4]
 7198 033a 18AB     		add	r3, sp, #96
 7199 033c 0093     		str	r3, [sp]
 7200 033e 19AB     		add	r3, sp, #100
 7201 0340 1BAA     		add	r2, sp, #108
 7202 0342 AC49     		ldr	r1, .L556
 7203 0344 2046     		mov	r0, r4
 7204 0346 FFF7FEFF 		bl	sscanf
 7205              	.LVL749:
 795:App/Src/fault_command.c ****     {
 7206              		.loc 1 795 8 discriminator 1 view .LVU1597
 7207 034a 0028     		cmp	r0, #0
 7208 034c 0FDD     		ble	.L537
 801:App/Src/fault_command.c ****                                  context,
 7209              		.loc 1 801 5 is_stmt 1 view .LVU1598
 7210 034e BDF85C30 		ldrh	r3, [sp, #92]
 7211 0352 189A     		ldr	r2, [sp, #96]
 7212 0354 BDF86410 		ldrh	r1, [sp, #100]
 7213 0358 9DF86C00 		ldrb	r0, [sp, #108]	@ zero_extendqisi2
 7214 035c FFF7FEFF 		bl	FaultCommand_RunUnderVoltage
 7215              	.LVL750:
 7216 0360 0346     		mov	r3, r0
 801:App/Src/fault_command.c ****                                  context,
 7217              		.loc 1 801 5 is_stmt 0 discriminator 1 view .LVU1599
 7218 0362 A54A     		ldr	r2, .L556+4
 7219 0364 2946     		mov	r1, r5
 7220 0366 3046     		mov	r0, r6
 7221 0368 FFF7FEFF 		bl	FaultCommand_WriteTextResult
 7222              	.LVL751:
ARM GAS  C:\Users\hh\AppData\Local\Temp\ccntMbQq.s 			page 194


 7223 036c 5AE6     		b	.L451
 7224              	.L537:
 797:App/Src/fault_command.c ****       return;
 7225              		.loc 1 797 7 is_stmt 1 view .LVU1600
 7226 036e 0123     		movs	r3, #1
 7227 0370 A14A     		ldr	r2, .L556+4
 7228 0372 2946     		mov	r1, r5
 7229 0374 3046     		mov	r0, r6
 7230 0376 FFF7FEFF 		bl	FaultCommand_WriteTextResult
 7231              	.LVL752:
 798:App/Src/fault_command.c ****     }
 7232              		.loc 1 798 7 view .LVU1601
 7233 037a 53E6     		b	.L451
 7234              	.L516:
 7235              	.LBB84:
 811:App/Src/fault_command.c ****     unsigned int highMv;
 7236              		.loc 1 811 5 view .LVU1602
 812:App/Src/fault_command.c ****     unsigned int lowCell;
 7237              		.loc 1 812 5 view .LVU1603
 813:App/Src/fault_command.c ****     unsigned int lowMv;
 7238              		.loc 1 813 5 view .LVU1604
 814:App/Src/fault_command.c **** 
 7239              		.loc 1 814 5 view .LVU1605
 816:App/Src/fault_command.c ****     slew = FAULT_COMMAND_DEFAULT_SLEW_MV_PER_MS;
 7240              		.loc 1 816 5 view .LVU1606
 816:App/Src/fault_command.c ****     slew = FAULT_COMMAND_DEFAULT_SLEW_MV_PER_MS;
 7241              		.loc 1 816 14 is_stmt 0 view .LVU1607
 7242 037c 6423     		movs	r3, #100
 7243 037e 1893     		str	r3, [sp, #96]
 817:App/Src/fault_command.c ****     if (sscanf(line,
 7244              		.loc 1 817 5 is_stmt 1 view .LVU1608
 817:App/Src/fault_command.c ****     if (sscanf(line,
 7245              		.loc 1 817 10 is_stmt 0 view .LVU1609
 7246 0380 40F6B833 		movw	r3, #3000
 7247 0384 1793     		str	r3, [sp, #92]
 818:App/Src/fault_command.c ****                "diff %u %u %u %u %lu %u",
 7248              		.loc 1 818 5 is_stmt 1 view .LVU1610
 818:App/Src/fault_command.c ****                "diff %u %u %u %u %lu %u",
 7249              		.loc 1 818 9 is_stmt 0 view .LVU1611
 7250 0386 17AB     		add	r3, sp, #92
 7251 0388 0393     		str	r3, [sp, #12]
 7252 038a 18AB     		add	r3, sp, #96
 7253 038c 0293     		str	r3, [sp, #8]
 7254 038e 08AB     		add	r3, sp, #32
 7255 0390 0193     		str	r3, [sp, #4]
 7256 0392 07AB     		add	r3, sp, #28
 7257 0394 0093     		str	r3, [sp]
 7258 0396 06AB     		add	r3, sp, #24
 7259 0398 05AA     		add	r2, sp, #20
 7260 039a 9849     		ldr	r1, .L556+8
 7261 039c 2046     		mov	r0, r4
 7262 039e FFF7FEFF 		bl	sscanf
 7263              	.LVL753:
 818:App/Src/fault_command.c ****                "diff %u %u %u %u %lu %u",
 7264              		.loc 1 818 8 discriminator 1 view .LVU1612
 7265 03a2 0328     		cmp	r0, #3
 7266 03a4 15DD     		ble	.L538
ARM GAS  C:\Users\hh\AppData\Local\Temp\ccntMbQq.s 			page 195


 831:App/Src/fault_command.c ****                                  context,
 7267              		.loc 1 831 5 is_stmt 1 view .LVU1613
 7268 03a6 BDF85C30 		ldrh	r3, [sp, #92]
 7269 03aa 0193     		str	r3, [sp, #4]
 7270 03ac 189B     		ldr	r3, [sp, #96]
 7271 03ae 0093     		str	r3, [sp]
 7272 03b0 BDF82030 		ldrh	r3, [sp, #32]
 7273 03b4 9DF81C20 		ldrb	r2, [sp, #28]	@ zero_extendqisi2
 7274 03b8 BDF81810 		ldrh	r1, [sp, #24]
 7275 03bc 9DF81400 		ldrb	r0, [sp, #20]	@ zero_extendqisi2
 7276 03c0 FFF7FEFF 		bl	FaultCommand_RunDiff
 7277              	.LVL754:
 7278 03c4 0346     		mov	r3, r0
 831:App/Src/fault_command.c ****                                  context,
 7279              		.loc 1 831 5 is_stmt 0 discriminator 1 view .LVU1614
 7280 03c6 8E4A     		ldr	r2, .L556+12
 7281 03c8 2946     		mov	r1, r5
 7282 03ca 3046     		mov	r0, r6
 7283 03cc FFF7FEFF 		bl	FaultCommand_WriteTextResult
 7284              	.LVL755:
 7285              	.LBE84:
 7286 03d0 28E6     		b	.L451
 7287              	.L538:
 7288              	.LBB85:
 827:App/Src/fault_command.c ****       return;
 7289              		.loc 1 827 7 is_stmt 1 view .LVU1615
 7290 03d2 0123     		movs	r3, #1
 7291 03d4 8A4A     		ldr	r2, .L556+12
 7292 03d6 2946     		mov	r1, r5
 7293 03d8 3046     		mov	r0, r6
 7294 03da FFF7FEFF 		bl	FaultCommand_WriteTextResult
 7295              	.LVL756:
 828:App/Src/fault_command.c ****     }
 7296              		.loc 1 828 7 view .LVU1616
 7297 03de 21E6     		b	.L451
 7298              	.L517:
 828:App/Src/fault_command.c ****     }
 7299              		.loc 1 828 7 is_stmt 0 view .LVU1617
 7300              	.LBE85:
 843:App/Src/fault_command.c ****   }
 7301              		.loc 1 843 5 is_stmt 1 view .LVU1618
 7302 03e0 2946     		mov	r1, r5
 7303 03e2 3046     		mov	r0, r6
 7304 03e4 FFF7FEFF 		bl	FaultCommand_WriteTextWaveStatus
 7305              	.LVL757:
 7306 03e8 1CE6     		b	.L451
 7307              	.L518:
 847:App/Src/fault_command.c ****     FaultCommand_WriteTextResult(write, context, "wave", HAL_OK);
 7308              		.loc 1 847 5 view .LVU1619
 7309 03ea FFF7FEFF 		bl	FaultCommand_StopAllWaveforms
 7310              	.LVL758:
 848:App/Src/fault_command.c ****   }
 7311              		.loc 1 848 5 view .LVU1620
 7312 03ee 0023     		movs	r3, #0
 7313 03f0 844A     		ldr	r2, .L556+16
 7314 03f2 2946     		mov	r1, r5
 7315 03f4 3046     		mov	r0, r6
ARM GAS  C:\Users\hh\AppData\Local\Temp\ccntMbQq.s 			page 196


 7316 03f6 FFF7FEFF 		bl	FaultCommand_WriteTextResult
 7317              	.LVL759:
 7318 03fa 13E6     		b	.L451
 7319              	.L519:
 7320              	.LBB86:
 852:App/Src/fault_command.c ****     unsigned int points;
 7321              		.loc 1 852 5 view .LVU1621
 853:App/Src/fault_command.c ****     WaveformEngine_Config cfg;
 7322              		.loc 1 853 5 view .LVU1622
 854:App/Src/fault_command.c **** 
 7323              		.loc 1 854 5 view .LVU1623
 856:App/Src/fault_command.c ****     {
 7324              		.loc 1 856 5 view .LVU1624
 856:App/Src/fault_command.c ****     {
 7325              		.loc 1 856 9 is_stmt 0 view .LVU1625
 7326 03fc FFF7FEFF 		bl	DacSafety_IsOutputAllowed
 7327              	.LVL760:
 856:App/Src/fault_command.c ****     {
 7328              		.loc 1 856 8 discriminator 1 view .LVU1626
 7329 0400 A0B1     		cbz	r0, .L539
 862:App/Src/fault_command.c ****                "wave high %u %u %u %u %u",
 7330              		.loc 1 862 5 is_stmt 1 view .LVU1627
 862:App/Src/fault_command.c ****                "wave high %u %u %u %u %u",
 7331              		.loc 1 862 9 is_stmt 0 view .LVU1628
 7332 0402 14AB     		add	r3, sp, #80
 7333 0404 0293     		str	r3, [sp, #8]
 7334 0406 13AB     		add	r3, sp, #76
 7335 0408 0193     		str	r3, [sp, #4]
 7336 040a 07AB     		add	r3, sp, #28
 7337 040c 0093     		str	r3, [sp]
 7338 040e 06AB     		add	r3, sp, #24
 7339 0410 1BAA     		add	r2, sp, #108
 7340 0412 7D49     		ldr	r1, .L556+20
 7341 0414 2046     		mov	r0, r4
 7342 0416 FFF7FEFF 		bl	sscanf
 7343              	.LVL761:
 862:App/Src/fault_command.c ****                "wave high %u %u %u %u %u",
 7344              		.loc 1 862 8 discriminator 1 view .LVU1629
 7345 041a 0528     		cmp	r0, #5
 7346 041c 0DD0     		beq	.L470
 870:App/Src/fault_command.c ****       return;
 7347              		.loc 1 870 7 is_stmt 1 view .LVU1630
 7348 041e 0123     		movs	r3, #1
 7349 0420 7A4A     		ldr	r2, .L556+24
 7350 0422 2946     		mov	r1, r5
 7351 0424 3046     		mov	r0, r6
 7352 0426 FFF7FEFF 		bl	FaultCommand_WriteTextResult
 7353              	.LVL762:
 871:App/Src/fault_command.c ****     }
 7354              		.loc 1 871 7 view .LVU1631
 7355 042a FBE5     		b	.L451
 7356              	.L539:
 858:App/Src/fault_command.c ****       return;
 7357              		.loc 1 858 7 view .LVU1632
 7358 042c 0223     		movs	r3, #2
 7359 042e 774A     		ldr	r2, .L556+24
 7360 0430 2946     		mov	r1, r5
ARM GAS  C:\Users\hh\AppData\Local\Temp\ccntMbQq.s 			page 197


 7361 0432 3046     		mov	r0, r6
 7362 0434 FFF7FEFF 		bl	FaultCommand_WriteTextResult
 7363              	.LVL763:
 859:App/Src/fault_command.c ****     }
 7364              		.loc 1 859 7 view .LVU1633
 7365 0438 F4E5     		b	.L451
 7366              	.L470:
 874:App/Src/fault_command.c ****     cfg.active = 1U;
 7367              		.loc 1 874 5 view .LVU1634
 7368 043a 2022     		movs	r2, #32
 7369 043c 0021     		movs	r1, #0
 7370 043e 0DEB0200 		add	r0, sp, r2
 7371 0442 FFF7FEFF 		bl	memset
 7372              	.LVL764:
 875:App/Src/fault_command.c ****     cfg.channels = 1U;
 7373              		.loc 1 875 5 view .LVU1635
 875:App/Src/fault_command.c ****     cfg.channels = 1U;
 7374              		.loc 1 875 16 is_stmt 0 view .LVU1636
 7375 0446 0123     		movs	r3, #1
 7376 0448 8DF82030 		strb	r3, [sp, #32]
 876:App/Src/fault_command.c ****     cfg.channelList[0] = (uint8_t)cell;
 7377              		.loc 1 876 5 is_stmt 1 view .LVU1637
 876:App/Src/fault_command.c ****     cfg.channelList[0] = (uint8_t)cell;
 7378              		.loc 1 876 18 is_stmt 0 view .LVU1638
 7379 044c 8DF82130 		strb	r3, [sp, #33]
 877:App/Src/fault_command.c ****     cfg.sampleRate = (uint32_t)freqHz * (uint32_t)points;
 7380              		.loc 1 877 5 is_stmt 1 view .LVU1639
 877:App/Src/fault_command.c ****     cfg.sampleRate = (uint32_t)freqHz * (uint32_t)points;
 7381              		.loc 1 877 26 is_stmt 0 view .LVU1640
 7382 0450 9DF86C20 		ldrb	r2, [sp, #108]	@ zero_extendqisi2
 877:App/Src/fault_command.c ****     cfg.sampleRate = (uint32_t)freqHz * (uint32_t)points;
 7383              		.loc 1 877 24 view .LVU1641
 7384 0454 8DF82220 		strb	r2, [sp, #34]
 878:App/Src/fault_command.c ****     cfg.pointCount = (uint32_t)points;
 7385              		.loc 1 878 5 is_stmt 1 view .LVU1642
 878:App/Src/fault_command.c ****     cfg.pointCount = (uint32_t)points;
 7386              		.loc 1 878 41 is_stmt 0 view .LVU1643
 7387 0458 0799     		ldr	r1, [sp, #28]
 878:App/Src/fault_command.c ****     cfg.pointCount = (uint32_t)points;
 7388              		.loc 1 878 39 view .LVU1644
 7389 045a 069A     		ldr	r2, [sp, #24]
 7390 045c 01FB02F2 		mul	r2, r1, r2
 878:App/Src/fault_command.c ****     cfg.pointCount = (uint32_t)points;
 7391              		.loc 1 878 20 view .LVU1645
 7392 0460 0C92     		str	r2, [sp, #48]
 879:App/Src/fault_command.c ****     cfg.cycleCount = 1U;
 7393              		.loc 1 879 5 is_stmt 1 view .LVU1646
 879:App/Src/fault_command.c ****     cfg.cycleCount = 1U;
 7394              		.loc 1 879 20 is_stmt 0 view .LVU1647
 7395 0462 0D91     		str	r1, [sp, #52]
 880:App/Src/fault_command.c ****     cfg.amplitudeMv = (uint16_t)amplitudeMv;
 7396              		.loc 1 880 5 is_stmt 1 view .LVU1648
 880:App/Src/fault_command.c ****     cfg.amplitudeMv = (uint16_t)amplitudeMv;
 7397              		.loc 1 880 20 is_stmt 0 view .LVU1649
 7398 0464 0E93     		str	r3, [sp, #56]
 881:App/Src/fault_command.c ****     cfg.offsetMv = (uint16_t)centerMv;
 7399              		.loc 1 881 5 is_stmt 1 view .LVU1650
ARM GAS  C:\Users\hh\AppData\Local\Temp\ccntMbQq.s 			page 198


 881:App/Src/fault_command.c ****     cfg.offsetMv = (uint16_t)centerMv;
 7400              		.loc 1 881 23 is_stmt 0 view .LVU1651
 7401 0466 BDF84C30 		ldrh	r3, [sp, #76]
 881:App/Src/fault_command.c ****     cfg.offsetMv = (uint16_t)centerMv;
 7402              		.loc 1 881 21 view .LVU1652
 7403 046a ADF83C30 		strh	r3, [sp, #60]	@ movhi
 882:App/Src/fault_command.c **** 
 7404              		.loc 1 882 5 is_stmt 1 view .LVU1653
 882:App/Src/fault_command.c **** 
 7405              		.loc 1 882 20 is_stmt 0 view .LVU1654
 7406 046e BDF85030 		ldrh	r3, [sp, #80]
 882:App/Src/fault_command.c **** 
 7407              		.loc 1 882 18 view .LVU1655
 7408 0472 ADF83E30 		strh	r3, [sp, #62]	@ movhi
 884:App/Src/fault_command.c ****                                  context,
 7409              		.loc 1 884 5 is_stmt 1 view .LVU1656
 7410 0476 08A8     		add	r0, sp, #32
 7411 0478 FFF7FEFF 		bl	WaveformEngine_StartSine
 7412              	.LVL765:
 7413 047c 0346     		mov	r3, r0
 884:App/Src/fault_command.c ****                                  context,
 7414              		.loc 1 884 5 is_stmt 0 discriminator 1 view .LVU1657
 7415 047e 634A     		ldr	r2, .L556+24
 7416 0480 2946     		mov	r1, r5
 7417 0482 3046     		mov	r0, r6
 7418 0484 FFF7FEFF 		bl	FaultCommand_WriteTextResult
 7419              	.LVL766:
 7420              	.LBE86:
 7421 0488 CCE5     		b	.L451
 7422              	.L520:
 891:App/Src/fault_command.c ****     {
 7423              		.loc 1 891 5 is_stmt 1 view .LVU1658
 891:App/Src/fault_command.c ****     {
 7424              		.loc 1 891 9 is_stmt 0 view .LVU1659
 7425 048a FFF7FEFF 		bl	DacSafety_IsOutputAllowed
 7426              	.LVL767:
 891:App/Src/fault_command.c ****     {
 7427              		.loc 1 891 8 discriminator 1 view .LVU1660
 7428 048e 90B1     		cbz	r0, .L540
 897:App/Src/fault_command.c ****                "wave square %u %u %u %lu",
 7429              		.loc 1 897 5 is_stmt 1 view .LVU1661
 897:App/Src/fault_command.c ****                "wave square %u %u %u %lu",
 7430              		.loc 1 897 9 is_stmt 0 view .LVU1662
 7431 0490 12AB     		add	r3, sp, #72
 7432 0492 0193     		str	r3, [sp, #4]
 7433 0494 15AB     		add	r3, sp, #84
 7434 0496 0093     		str	r3, [sp]
 7435 0498 16AB     		add	r3, sp, #88
 7436 049a 1BAA     		add	r2, sp, #108
 7437 049c 5C49     		ldr	r1, .L556+28
 7438 049e 2046     		mov	r0, r4
 7439 04a0 FFF7FEFF 		bl	sscanf
 7440              	.LVL768:
 897:App/Src/fault_command.c ****                "wave square %u %u %u %lu",
 7441              		.loc 1 897 8 discriminator 1 view .LVU1663
 7442 04a4 0428     		cmp	r0, #4
 7443 04a6 0DD0     		beq	.L473
ARM GAS  C:\Users\hh\AppData\Local\Temp\ccntMbQq.s 			page 199


 904:App/Src/fault_command.c ****       return;
 7444              		.loc 1 904 7 is_stmt 1 view .LVU1664
 7445 04a8 0123     		movs	r3, #1
 7446 04aa 564A     		ldr	r2, .L556+16
 7447 04ac 2946     		mov	r1, r5
 7448 04ae 3046     		mov	r0, r6
 7449 04b0 FFF7FEFF 		bl	FaultCommand_WriteTextResult
 7450              	.LVL769:
 905:App/Src/fault_command.c ****     }
 7451              		.loc 1 905 7 view .LVU1665
 7452 04b4 B6E5     		b	.L451
 7453              	.L540:
 893:App/Src/fault_command.c ****       return;
 7454              		.loc 1 893 7 view .LVU1666
 7455 04b6 0223     		movs	r3, #2
 7456 04b8 524A     		ldr	r2, .L556+16
 7457 04ba 2946     		mov	r1, r5
 7458 04bc 3046     		mov	r0, r6
 7459 04be FFF7FEFF 		bl	FaultCommand_WriteTextResult
 7460              	.LVL770:
 894:App/Src/fault_command.c ****     }
 7461              		.loc 1 894 7 view .LVU1667
 7462 04c2 AFE5     		b	.L451
 7463              	.L473:
 908:App/Src/fault_command.c ****     FaultCommand_WriteTextResult(write,
 7464              		.loc 1 908 5 view .LVU1668
 7465 04c4 FFF7FEFF 		bl	WaveformEngine_Stop
 7466              	.LVL771:
 909:App/Src/fault_command.c ****                                  context,
 7467              		.loc 1 909 5 view .LVU1669
 7468 04c8 129B     		ldr	r3, [sp, #72]
 7469 04ca BDF85420 		ldrh	r2, [sp, #84]
 7470 04ce BDF85810 		ldrh	r1, [sp, #88]
 7471 04d2 9DF86C00 		ldrb	r0, [sp, #108]	@ zero_extendqisi2
 7472 04d6 FFF7FEFF 		bl	WaveformGen_StartSquare
 7473              	.LVL772:
 7474 04da 0346     		mov	r3, r0
 909:App/Src/fault_command.c ****                                  context,
 7475              		.loc 1 909 5 is_stmt 0 discriminator 1 view .LVU1670
 7476 04dc 494A     		ldr	r2, .L556+16
 7477 04de 2946     		mov	r1, r5
 7478 04e0 3046     		mov	r0, r6
 7479 04e2 FFF7FEFF 		bl	FaultCommand_WriteTextResult
 7480              	.LVL773:
 7481 04e6 9DE5     		b	.L451
 7482              	.L521:
 919:App/Src/fault_command.c ****     {
 7483              		.loc 1 919 5 is_stmt 1 view .LVU1671
 919:App/Src/fault_command.c ****     {
 7484              		.loc 1 919 9 is_stmt 0 view .LVU1672
 7485 04e8 FFF7FEFF 		bl	DacSafety_IsOutputAllowed
 7486              	.LVL774:
 919:App/Src/fault_command.c ****     {
 7487              		.loc 1 919 8 discriminator 1 view .LVU1673
 7488 04ec 80B1     		cbz	r0, .L541
 925:App/Src/fault_command.c ****                "wave sine all %u %u %lu",
 7489              		.loc 1 925 5 is_stmt 1 view .LVU1674
ARM GAS  C:\Users\hh\AppData\Local\Temp\ccntMbQq.s 			page 200


 925:App/Src/fault_command.c ****                "wave sine all %u %u %lu",
 7490              		.loc 1 925 9 is_stmt 0 view .LVU1675
 7491 04ee 12AB     		add	r3, sp, #72
 7492 04f0 0093     		str	r3, [sp]
 7493 04f2 13AB     		add	r3, sp, #76
 7494 04f4 14AA     		add	r2, sp, #80
 7495 04f6 4749     		ldr	r1, .L556+32
 7496 04f8 2046     		mov	r0, r4
 7497 04fa FFF7FEFF 		bl	sscanf
 7498              	.LVL775:
 925:App/Src/fault_command.c ****                "wave sine all %u %u %lu",
 7499              		.loc 1 925 8 discriminator 1 view .LVU1676
 7500 04fe 0328     		cmp	r0, #3
 7501 0500 0DD0     		beq	.L476
 931:App/Src/fault_command.c ****       return;
 7502              		.loc 1 931 7 is_stmt 1 view .LVU1677
 7503 0502 0123     		movs	r3, #1
 7504 0504 3F4A     		ldr	r2, .L556+16
 7505 0506 2946     		mov	r1, r5
 7506 0508 3046     		mov	r0, r6
 7507 050a FFF7FEFF 		bl	FaultCommand_WriteTextResult
 7508              	.LVL776:
 932:App/Src/fault_command.c ****     }
 7509              		.loc 1 932 7 view .LVU1678
 7510 050e 89E5     		b	.L451
 7511              	.L541:
 921:App/Src/fault_command.c ****       return;
 7512              		.loc 1 921 7 view .LVU1679
 7513 0510 0223     		movs	r3, #2
 7514 0512 3C4A     		ldr	r2, .L556+16
 7515 0514 2946     		mov	r1, r5
 7516 0516 3046     		mov	r0, r6
 7517 0518 FFF7FEFF 		bl	FaultCommand_WriteTextResult
 7518              	.LVL777:
 922:App/Src/fault_command.c ****     }
 7519              		.loc 1 922 7 view .LVU1680
 7520 051c 82E5     		b	.L451
 7521              	.L476:
 935:App/Src/fault_command.c ****     FaultCommand_WriteTextResult(write,
 7522              		.loc 1 935 5 view .LVU1681
 7523 051e FFF7FEFF 		bl	WaveformEngine_Stop
 7524              	.LVL778:
 936:App/Src/fault_command.c ****                                  context,
 7525              		.loc 1 936 5 view .LVU1682
 7526 0522 129A     		ldr	r2, [sp, #72]
 7527 0524 BDF84C10 		ldrh	r1, [sp, #76]
 7528 0528 BDF85000 		ldrh	r0, [sp, #80]
 7529 052c FFF7FEFF 		bl	WaveformGen_StartSineAll
 7530              	.LVL779:
 7531 0530 0346     		mov	r3, r0
 936:App/Src/fault_command.c ****                                  context,
 7532              		.loc 1 936 5 is_stmt 0 discriminator 1 view .LVU1683
 7533 0532 344A     		ldr	r2, .L556+16
 7534 0534 2946     		mov	r1, r5
 7535 0536 3046     		mov	r0, r6
 7536 0538 FFF7FEFF 		bl	FaultCommand_WriteTextResult
 7537              	.LVL780:
ARM GAS  C:\Users\hh\AppData\Local\Temp\ccntMbQq.s 			page 201


 7538 053c 72E5     		b	.L451
 7539              	.L522:
 945:App/Src/fault_command.c ****     {
 7540              		.loc 1 945 5 is_stmt 1 view .LVU1684
 945:App/Src/fault_command.c ****     {
 7541              		.loc 1 945 9 is_stmt 0 view .LVU1685
 7542 053e FFF7FEFF 		bl	DacSafety_IsOutputAllowed
 7543              	.LVL781:
 945:App/Src/fault_command.c ****     {
 7544              		.loc 1 945 8 discriminator 1 view .LVU1686
 7545 0542 90B1     		cbz	r0, .L542
 951:App/Src/fault_command.c ****                "wave sine %u %u %u %lu",
 7546              		.loc 1 951 5 is_stmt 1 view .LVU1687
 951:App/Src/fault_command.c ****                "wave sine %u %u %u %lu",
 7547              		.loc 1 951 9 is_stmt 0 view .LVU1688
 7548 0544 12AB     		add	r3, sp, #72
 7549 0546 0193     		str	r3, [sp, #4]
 7550 0548 13AB     		add	r3, sp, #76
 7551 054a 0093     		str	r3, [sp]
 7552 054c 14AB     		add	r3, sp, #80
 7553 054e 1BAA     		add	r2, sp, #108
 7554 0550 3149     		ldr	r1, .L556+36
 7555 0552 2046     		mov	r0, r4
 7556 0554 FFF7FEFF 		bl	sscanf
 7557              	.LVL782:
 951:App/Src/fault_command.c ****                "wave sine %u %u %u %lu",
 7558              		.loc 1 951 8 discriminator 1 view .LVU1689
 7559 0558 0428     		cmp	r0, #4
 7560 055a 0DD0     		beq	.L479
 958:App/Src/fault_command.c ****       return;
 7561              		.loc 1 958 7 is_stmt 1 view .LVU1690
 7562 055c 0123     		movs	r3, #1
 7563 055e 294A     		ldr	r2, .L556+16
 7564 0560 2946     		mov	r1, r5
 7565 0562 3046     		mov	r0, r6
 7566 0564 FFF7FEFF 		bl	FaultCommand_WriteTextResult
 7567              	.LVL783:
 959:App/Src/fault_command.c ****     }
 7568              		.loc 1 959 7 view .LVU1691
 7569 0568 5CE5     		b	.L451
 7570              	.L542:
 947:App/Src/fault_command.c ****       return;
 7571              		.loc 1 947 7 view .LVU1692
 7572 056a 0223     		movs	r3, #2
 7573 056c 254A     		ldr	r2, .L556+16
 7574 056e 2946     		mov	r1, r5
 7575 0570 3046     		mov	r0, r6
 7576 0572 FFF7FEFF 		bl	FaultCommand_WriteTextResult
 7577              	.LVL784:
 948:App/Src/fault_command.c ****     }
 7578              		.loc 1 948 7 view .LVU1693
 7579 0576 55E5     		b	.L451
 7580              	.L479:
 962:App/Src/fault_command.c ****     FaultCommand_WriteTextResult(write,
 7581              		.loc 1 962 5 view .LVU1694
 7582 0578 FFF7FEFF 		bl	WaveformEngine_Stop
 7583              	.LVL785:
ARM GAS  C:\Users\hh\AppData\Local\Temp\ccntMbQq.s 			page 202


 963:App/Src/fault_command.c ****                                  context,
 7584              		.loc 1 963 5 view .LVU1695
 7585 057c 129B     		ldr	r3, [sp, #72]
 7586 057e BDF84C20 		ldrh	r2, [sp, #76]
 7587 0582 BDF85010 		ldrh	r1, [sp, #80]
 7588 0586 9DF86C00 		ldrb	r0, [sp, #108]	@ zero_extendqisi2
 7589 058a FFF7FEFF 		bl	WaveformGen_StartSine
 7590              	.LVL786:
 7591 058e 0346     		mov	r3, r0
 963:App/Src/fault_command.c ****                                  context,
 7592              		.loc 1 963 5 is_stmt 0 discriminator 1 view .LVU1696
 7593 0590 1C4A     		ldr	r2, .L556+16
 7594 0592 2946     		mov	r1, r5
 7595 0594 3046     		mov	r0, r6
 7596 0596 FFF7FEFF 		bl	FaultCommand_WriteTextResult
 7597              	.LVL787:
 7598 059a 43E5     		b	.L451
 7599              	.L523:
 973:App/Src/fault_command.c ****   }
 7600              		.loc 1 973 5 is_stmt 1 view .LVU1697
 7601 059c 2946     		mov	r1, r5
 7602 059e 3046     		mov	r0, r6
 7603 05a0 FFF7FEFF 		bl	FaultCommand_WriteTextCalibrationStatus
 7604              	.LVL788:
 7605 05a4 3EE5     		b	.L451
 7606              	.L524:
 977:App/Src/fault_command.c ****     {
 7607              		.loc 1 977 5 view .LVU1698
 977:App/Src/fault_command.c ****     {
 7608              		.loc 1 977 9 is_stmt 0 view .LVU1699
 7609 05a6 FFF7FEFF 		bl	DacSafety_IsOutputAllowed
 7610              	.LVL789:
 977:App/Src/fault_command.c ****     {
 7611              		.loc 1 977 8 discriminator 1 view .LVU1700
 7612 05aa 70B1     		cbz	r0, .L543
 983:App/Src/fault_command.c ****     {
 7613              		.loc 1 983 5 is_stmt 1 view .LVU1701
 983:App/Src/fault_command.c ****     {
 7614              		.loc 1 983 9 is_stmt 0 view .LVU1702
 7615 05ac 11AB     		add	r3, sp, #68
 7616 05ae 1BAA     		add	r2, sp, #108
 7617 05b0 1A49     		ldr	r1, .L556+40
 7618 05b2 2046     		mov	r0, r4
 7619 05b4 FFF7FEFF 		bl	sscanf
 7620              	.LVL790:
 983:App/Src/fault_command.c ****     {
 7621              		.loc 1 983 8 discriminator 1 view .LVU1703
 7622 05b8 0228     		cmp	r0, #2
 7623 05ba 0DD0     		beq	.L483
 985:App/Src/fault_command.c ****       return;
 7624              		.loc 1 985 7 is_stmt 1 view .LVU1704
 7625 05bc 0123     		movs	r3, #1
 7626 05be 184A     		ldr	r2, .L556+44
 7627 05c0 2946     		mov	r1, r5
 7628 05c2 3046     		mov	r0, r6
 7629 05c4 FFF7FEFF 		bl	FaultCommand_WriteTextResult
 7630              	.LVL791:
ARM GAS  C:\Users\hh\AppData\Local\Temp\ccntMbQq.s 			page 203


 986:App/Src/fault_command.c ****     }
 7631              		.loc 1 986 7 view .LVU1705
 7632 05c8 2CE5     		b	.L451
 7633              	.L543:
 979:App/Src/fault_command.c ****       return;
 7634              		.loc 1 979 7 view .LVU1706
 7635 05ca 0223     		movs	r3, #2
 7636 05cc 144A     		ldr	r2, .L556+44
 7637 05ce 2946     		mov	r1, r5
 7638 05d0 3046     		mov	r0, r6
 7639 05d2 FFF7FEFF 		bl	FaultCommand_WriteTextResult
 7640              	.LVL792:
 980:App/Src/fault_command.c ****     }
 7641              		.loc 1 980 7 view .LVU1707
 7642 05d6 25E5     		b	.L451
 7643              	.L483:
 989:App/Src/fault_command.c ****                                  context,
 7644              		.loc 1 989 5 view .LVU1708
 7645 05d8 BDF94410 		ldrsh	r1, [sp, #68]
 7646 05dc 9DF86C00 		ldrb	r0, [sp, #108]	@ zero_extendqisi2
 7647 05e0 FFF7FEFF 		bl	VoltageSim_SetCellCalibrationOffsetMv
 7648              	.LVL793:
 7649 05e4 0346     		mov	r3, r0
 989:App/Src/fault_command.c ****                                  context,
 7650              		.loc 1 989 5 is_stmt 0 discriminator 1 view .LVU1709
 7651 05e6 0E4A     		ldr	r2, .L556+44
 7652 05e8 2946     		mov	r1, r5
 7653 05ea 3046     		mov	r0, r6
 7654 05ec FFF7FEFF 		bl	FaultCommand_WriteTextResult
 7655              	.LVL794:
 7656 05f0 18E5     		b	.L451
 7657              	.L557:
 7658 05f2 00BF     		.align	2
 7659              	.L556:
 7660 05f4 34000000 		.word	.LC161
 7661 05f8 0C010000 		.word	.LC97
 7662 05fc 4C000000 		.word	.LC163
 7663 0600 20010000 		.word	.LC99
 7664 0604 50010000 		.word	.LC104
 7665 0608 94000000 		.word	.LC168
 7666 060c 88000000 		.word	.LC167
 7667 0610 C0000000 		.word	.LC170
 7668 0614 EC000000 		.word	.LC172
 7669 0618 10010000 		.word	.LC174
 7670 061c 40010000 		.word	.LC177
 7671 0620 D0010000 		.word	.LC117
 7672              	.L525:
 997:App/Src/fault_command.c ****     {
 7673              		.loc 1 997 5 is_stmt 1 view .LVU1710
 997:App/Src/fault_command.c ****     {
 7674              		.loc 1 997 9 is_stmt 0 view .LVU1711
 7675 0624 FFF7FEFF 		bl	DacSafety_IsOutputAllowed
 7676              	.LVL795:
 997:App/Src/fault_command.c ****     {
 7677              		.loc 1 997 8 discriminator 1 view .LVU1712
 7678 0628 80B1     		cbz	r0, .L544
1003:App/Src/fault_command.c ****     {
ARM GAS  C:\Users\hh\AppData\Local\Temp\ccntMbQq.s 			page 204


 7679              		.loc 1 1003 5 is_stmt 1 view .LVU1713
1003:App/Src/fault_command.c ****     {
 7680              		.loc 1 1003 9 is_stmt 0 view .LVU1714
 7681 062a 10AB     		add	r3, sp, #64
 7682 062c 0093     		str	r3, [sp]
 7683 062e 19AB     		add	r3, sp, #100
 7684 0630 1BAA     		add	r2, sp, #108
 7685 0632 9E49     		ldr	r1, .L558
 7686 0634 2046     		mov	r0, r4
 7687 0636 FFF7FEFF 		bl	sscanf
 7688              	.LVL796:
1003:App/Src/fault_command.c ****     {
 7689              		.loc 1 1003 8 discriminator 1 view .LVU1715
 7690 063a 0328     		cmp	r0, #3
 7691 063c 0DD0     		beq	.L486
1005:App/Src/fault_command.c ****       return;
 7692              		.loc 1 1005 7 is_stmt 1 view .LVU1716
 7693 063e 0123     		movs	r3, #1
 7694 0640 9B4A     		ldr	r2, .L558+4
 7695 0642 2946     		mov	r1, r5
 7696 0644 3046     		mov	r0, r6
 7697 0646 FFF7FEFF 		bl	FaultCommand_WriteTextResult
 7698              	.LVL797:
1006:App/Src/fault_command.c ****     }
 7699              		.loc 1 1006 7 view .LVU1717
 7700 064a EBE4     		b	.L451
 7701              	.L544:
 999:App/Src/fault_command.c ****       return;
 7702              		.loc 1 999 7 view .LVU1718
 7703 064c 0223     		movs	r3, #2
 7704 064e 984A     		ldr	r2, .L558+4
 7705 0650 2946     		mov	r1, r5
 7706 0652 3046     		mov	r0, r6
 7707 0654 FFF7FEFF 		bl	FaultCommand_WriteTextResult
 7708              	.LVL798:
1000:App/Src/fault_command.c ****     }
 7709              		.loc 1 1000 7 view .LVU1719
 7710 0658 E4E4     		b	.L451
 7711              	.L486:
1009:App/Src/fault_command.c ****                                  context,
 7712              		.loc 1 1009 5 view .LVU1720
 7713 065a BDF84020 		ldrh	r2, [sp, #64]
 7714 065e BDF86410 		ldrh	r1, [sp, #100]
 7715 0662 9DF86C00 		ldrb	r0, [sp, #108]	@ zero_extendqisi2
 7716 0666 FFF7FEFF 		bl	FaultCommand_RunCalibrationTrim
 7717              	.LVL799:
 7718 066a 0346     		mov	r3, r0
1009:App/Src/fault_command.c ****                                  context,
 7719              		.loc 1 1009 5 is_stmt 0 discriminator 1 view .LVU1721
 7720 066c 904A     		ldr	r2, .L558+4
 7721 066e 2946     		mov	r1, r5
 7722 0670 3046     		mov	r0, r6
 7723 0672 FFF7FEFF 		bl	FaultCommand_WriteTextResult
 7724              	.LVL800:
 7725 0676 D5E4     		b	.L451
 7726              	.L526:
1018:App/Src/fault_command.c ****     {
ARM GAS  C:\Users\hh\AppData\Local\Temp\ccntMbQq.s 			page 205


 7727              		.loc 1 1018 5 is_stmt 1 view .LVU1722
1018:App/Src/fault_command.c ****     {
 7728              		.loc 1 1018 9 is_stmt 0 view .LVU1723
 7729 0678 FFF7FEFF 		bl	DacSafety_IsOutputAllowed
 7730              	.LVL801:
1018:App/Src/fault_command.c ****     {
 7731              		.loc 1 1018 8 discriminator 1 view .LVU1724
 7732 067c 78B1     		cbz	r0, .L545
1024:App/Src/fault_command.c ****     {
 7733              		.loc 1 1024 5 is_stmt 1 view .LVU1725
1024:App/Src/fault_command.c ****     {
 7734              		.loc 1 1024 9 is_stmt 0 view .LVU1726
 7735 067e 1BAA     		add	r2, sp, #108
 7736 0680 8C49     		ldr	r1, .L558+8
 7737 0682 2046     		mov	r0, r4
 7738 0684 FFF7FEFF 		bl	sscanf
 7739              	.LVL802:
1024:App/Src/fault_command.c ****     {
 7740              		.loc 1 1024 8 discriminator 1 view .LVU1727
 7741 0688 0128     		cmp	r0, #1
 7742 068a 0FD0     		beq	.L546
1033:App/Src/fault_command.c ****       FaultCommand_WriteTextResult(write, context, "cal", HAL_OK);
 7743              		.loc 1 1033 7 is_stmt 1 view .LVU1728
 7744 068c FFF7FEFF 		bl	VoltageSim_ClearAllCalibrationOffsets
 7745              	.LVL803:
1034:App/Src/fault_command.c ****     }
 7746              		.loc 1 1034 7 view .LVU1729
 7747 0690 0023     		movs	r3, #0
 7748 0692 874A     		ldr	r2, .L558+4
 7749 0694 2946     		mov	r1, r5
 7750 0696 3046     		mov	r0, r6
 7751 0698 FFF7FEFF 		bl	FaultCommand_WriteTextResult
 7752              	.LVL804:
 7753 069c C2E4     		b	.L451
 7754              	.L545:
1020:App/Src/fault_command.c ****       return;
 7755              		.loc 1 1020 7 view .LVU1730
 7756 069e 0223     		movs	r3, #2
 7757 06a0 834A     		ldr	r2, .L558+4
 7758 06a2 2946     		mov	r1, r5
 7759 06a4 3046     		mov	r0, r6
 7760 06a6 FFF7FEFF 		bl	FaultCommand_WriteTextResult
 7761              	.LVL805:
1021:App/Src/fault_command.c ****     }
 7762              		.loc 1 1021 7 view .LVU1731
 7763 06aa BBE4     		b	.L451
 7764              	.L546:
1026:App/Src/fault_command.c ****                                    context,
 7765              		.loc 1 1026 7 view .LVU1732
 7766 06ac 9DF86C00 		ldrb	r0, [sp, #108]	@ zero_extendqisi2
 7767 06b0 FFF7FEFF 		bl	VoltageSim_ClearCellCalibrationOffset
 7768              	.LVL806:
 7769 06b4 0346     		mov	r3, r0
1026:App/Src/fault_command.c ****                                    context,
 7770              		.loc 1 1026 7 is_stmt 0 discriminator 1 view .LVU1733
 7771 06b6 7E4A     		ldr	r2, .L558+4
 7772 06b8 2946     		mov	r1, r5
ARM GAS  C:\Users\hh\AppData\Local\Temp\ccntMbQq.s 			page 206


 7773 06ba 3046     		mov	r0, r6
 7774 06bc FFF7FEFF 		bl	FaultCommand_WriteTextResult
 7775              	.LVL807:
 7776 06c0 B0E4     		b	.L451
 7777              	.L527:
1039:App/Src/fault_command.c ****     {
 7778              		.loc 1 1039 5 is_stmt 1 view .LVU1734
1039:App/Src/fault_command.c ****     {
 7779              		.loc 1 1039 9 is_stmt 0 view .LVU1735
 7780 06c2 1AAA     		add	r2, sp, #104
 7781 06c4 7C49     		ldr	r1, .L558+12
 7782 06c6 2046     		mov	r0, r4
 7783 06c8 FFF7FEFF 		bl	sscanf
 7784              	.LVL808:
1039:App/Src/fault_command.c ****     {
 7785              		.loc 1 1039 8 discriminator 1 view .LVU1736
 7786 06cc 0128     		cmp	r0, #1
 7787 06ce 06D0     		beq	.L491
1041:App/Src/fault_command.c ****       return;
 7788              		.loc 1 1041 7 is_stmt 1 view .LVU1737
 7789 06d0 0123     		movs	r3, #1
 7790 06d2 7A4A     		ldr	r2, .L558+16
 7791 06d4 2946     		mov	r1, r5
 7792 06d6 3046     		mov	r0, r6
 7793 06d8 FFF7FEFF 		bl	FaultCommand_WriteTextResult
 7794              	.LVL809:
1042:App/Src/fault_command.c ****     }
 7795              		.loc 1 1042 7 view .LVU1738
 7796 06dc A2E4     		b	.L451
 7797              	.L491:
1045:App/Src/fault_command.c ****                                  context,
 7798              		.loc 1 1045 5 view .LVU1739
 7799 06de BDF86800 		ldrh	r0, [sp, #104]
 7800 06e2 FFF7FEFF 		bl	FaultCommand_RunNormal
 7801              	.LVL810:
 7802 06e6 0346     		mov	r3, r0
1045:App/Src/fault_command.c ****                                  context,
 7803              		.loc 1 1045 5 is_stmt 0 discriminator 1 view .LVU1740
 7804 06e8 744A     		ldr	r2, .L558+16
 7805 06ea 2946     		mov	r1, r5
 7806 06ec 3046     		mov	r0, r6
 7807 06ee FFF7FEFF 		bl	FaultCommand_WriteTextResult
 7808              	.LVL811:
 7809 06f2 97E4     		b	.L451
 7810              	.L528:
1052:App/Src/fault_command.c ****     {
 7811              		.loc 1 1052 5 is_stmt 1 view .LVU1741
1052:App/Src/fault_command.c ****     {
 7812              		.loc 1 1052 9 is_stmt 0 view .LVU1742
 7813 06f4 FFF7FEFF 		bl	DacSafety_IsOutputAllowed
 7814              	.LVL812:
1052:App/Src/fault_command.c ****     {
 7815              		.loc 1 1052 8 discriminator 1 view .LVU1743
 7816 06f8 90B1     		cbz	r0, .L547
1058:App/Src/fault_command.c ****                "test slew %u %u %u %lu",
 7817              		.loc 1 1058 5 is_stmt 1 view .LVU1744
1058:App/Src/fault_command.c ****                "test slew %u %u %u %lu",
ARM GAS  C:\Users\hh\AppData\Local\Temp\ccntMbQq.s 			page 207


 7818              		.loc 1 1058 9 is_stmt 0 view .LVU1745
 7819 06fa 12AB     		add	r3, sp, #72
 7820 06fc 0193     		str	r3, [sp, #4]
 7821 06fe 15AB     		add	r3, sp, #84
 7822 0700 0093     		str	r3, [sp]
 7823 0702 16AB     		add	r3, sp, #88
 7824 0704 1BAA     		add	r2, sp, #108
 7825 0706 6E49     		ldr	r1, .L558+20
 7826 0708 2046     		mov	r0, r4
 7827 070a FFF7FEFF 		bl	sscanf
 7828              	.LVL813:
1058:App/Src/fault_command.c ****                "test slew %u %u %u %lu",
 7829              		.loc 1 1058 8 discriminator 1 view .LVU1746
 7830 070e 0428     		cmp	r0, #4
 7831 0710 0DD0     		beq	.L494
1065:App/Src/fault_command.c ****       return;
 7832              		.loc 1 1065 7 is_stmt 1 view .LVU1747
 7833 0712 0123     		movs	r3, #1
 7834 0714 694A     		ldr	r2, .L558+16
 7835 0716 2946     		mov	r1, r5
 7836 0718 3046     		mov	r0, r6
 7837 071a FFF7FEFF 		bl	FaultCommand_WriteTextResult
 7838              	.LVL814:
1066:App/Src/fault_command.c ****     }
 7839              		.loc 1 1066 7 view .LVU1748
 7840 071e 81E4     		b	.L451
 7841              	.L547:
1054:App/Src/fault_command.c ****       return;
 7842              		.loc 1 1054 7 view .LVU1749
 7843 0720 0223     		movs	r3, #2
 7844 0722 664A     		ldr	r2, .L558+16
 7845 0724 2946     		mov	r1, r5
 7846 0726 3046     		mov	r0, r6
 7847 0728 FFF7FEFF 		bl	FaultCommand_WriteTextResult
 7848              	.LVL815:
1055:App/Src/fault_command.c ****     }
 7849              		.loc 1 1055 7 view .LVU1750
 7850 072c 7AE4     		b	.L451
 7851              	.L494:
1069:App/Src/fault_command.c ****                                  context,
 7852              		.loc 1 1069 5 view .LVU1751
 7853 072e 129B     		ldr	r3, [sp, #72]
 7854 0730 BDF85420 		ldrh	r2, [sp, #84]
 7855 0734 BDF85810 		ldrh	r1, [sp, #88]
 7856 0738 9DF86C00 		ldrb	r0, [sp, #108]	@ zero_extendqisi2
 7857 073c FFF7FEFF 		bl	WaveformGen_StartSquare
 7858              	.LVL816:
 7859 0740 0346     		mov	r3, r0
1069:App/Src/fault_command.c ****                                  context,
 7860              		.loc 1 1069 5 is_stmt 0 discriminator 1 view .LVU1752
 7861 0742 5E4A     		ldr	r2, .L558+16
 7862 0744 2946     		mov	r1, r5
 7863 0746 3046     		mov	r0, r6
 7864 0748 FFF7FEFF 		bl	FaultCommand_WriteTextResult
 7865              	.LVL817:
 7866 074c 6AE4     		b	.L451
 7867              	.L529:
ARM GAS  C:\Users\hh\AppData\Local\Temp\ccntMbQq.s 			page 208


1079:App/Src/fault_command.c ****   }
 7868              		.loc 1 1079 5 is_stmt 1 view .LVU1753
 7869 074e 2946     		mov	r1, r5
 7870 0750 3046     		mov	r0, r6
 7871 0752 FFF7FEFF 		bl	FaultCommand_WriteTextCanStatus
 7872              	.LVL818:
 7873 0756 65E4     		b	.L451
 7874              	.L530:
1083:App/Src/fault_command.c ****                                  context,
 7875              		.loc 1 1083 5 view .LVU1754
 7876 0758 2046     		mov	r0, r4
 7877 075a FFF7FEFF 		bl	FaultCommand_ParseCanSendText
 7878              	.LVL819:
 7879 075e 0346     		mov	r3, r0
1083:App/Src/fault_command.c ****                                  context,
 7880              		.loc 1 1083 5 is_stmt 0 discriminator 1 view .LVU1755
 7881 0760 584A     		ldr	r2, .L558+24
 7882 0762 2946     		mov	r1, r5
 7883 0764 3046     		mov	r0, r6
 7884 0766 FFF7FEFF 		bl	FaultCommand_WriteTextResult
 7885              	.LVL820:
 7886 076a 5BE4     		b	.L451
 7887              	.L531:
1090:App/Src/fault_command.c ****   }
 7888              		.loc 1 1090 5 is_stmt 1 view .LVU1756
 7889 076c 2946     		mov	r1, r5
 7890 076e 3046     		mov	r0, r6
 7891 0770 FFF7FEFF 		bl	FaultCommand_WriteTextBmsResponseLog
 7892              	.LVL821:
 7893 0774 56E4     		b	.L451
 7894              	.L532:
1094:App/Src/fault_command.c ****     FaultCommand_WriteTextResult(write, context, "log", HAL_OK);
 7895              		.loc 1 1094 5 view .LVU1757
 7896 0776 FFF7FEFF 		bl	BmsResponseLog_Clear
 7897              	.LVL822:
1095:App/Src/fault_command.c ****   }
 7898              		.loc 1 1095 5 view .LVU1758
 7899 077a 0023     		movs	r3, #0
 7900 077c 524A     		ldr	r2, .L558+28
 7901 077e 2946     		mov	r1, r5
 7902 0780 3046     		mov	r0, r6
 7903 0782 FFF7FEFF 		bl	FaultCommand_WriteTextResult
 7904              	.LVL823:
 7905 0786 4DE4     		b	.L451
 7906              	.L533:
1099:App/Src/fault_command.c ****                                  context,
 7907              		.loc 1 1099 5 view .LVU1759
 7908 0788 2046     		mov	r0, r4
 7909 078a FFF7FEFF 		bl	FaultCommand_ParseLogFilterText
 7910              	.LVL824:
 7911 078e 0346     		mov	r3, r0
1099:App/Src/fault_command.c ****                                  context,
 7912              		.loc 1 1099 5 is_stmt 0 discriminator 1 view .LVU1760
 7913 0790 4D4A     		ldr	r2, .L558+28
 7914 0792 2946     		mov	r1, r5
 7915 0794 3046     		mov	r0, r6
 7916 0796 FFF7FEFF 		bl	FaultCommand_WriteTextResult
ARM GAS  C:\Users\hh\AppData\Local\Temp\ccntMbQq.s 			page 209


 7917              	.LVL825:
1103:App/Src/fault_command.c ****   }
 7918              		.loc 1 1103 5 is_stmt 1 view .LVU1761
 7919 079a 2946     		mov	r1, r5
 7920 079c 3046     		mov	r0, r6
 7921 079e FFF7FEFF 		bl	FaultCommand_WriteTextBmsResponseLog
 7922              	.LVL826:
 7923 07a2 3FE4     		b	.L451
 7924              	.L534:
1107:App/Src/fault_command.c ****                                  context,
 7925              		.loc 1 1107 5 view .LVU1762
 7926 07a4 2046     		mov	r0, r4
 7927 07a6 FFF7FEFF 		bl	FaultCommand_ParseLogDataText
 7928              	.LVL827:
 7929 07aa 0346     		mov	r3, r0
1107:App/Src/fault_command.c ****                                  context,
 7930              		.loc 1 1107 5 is_stmt 0 discriminator 1 view .LVU1763
 7931 07ac 464A     		ldr	r2, .L558+28
 7932 07ae 2946     		mov	r1, r5
 7933 07b0 3046     		mov	r0, r6
 7934 07b2 FFF7FEFF 		bl	FaultCommand_WriteTextResult
 7935              	.LVL828:
1111:App/Src/fault_command.c ****   }
 7936              		.loc 1 1111 5 is_stmt 1 view .LVU1764
 7937 07b6 2946     		mov	r1, r5
 7938 07b8 3046     		mov	r0, r6
 7939 07ba FFF7FEFF 		bl	FaultCommand_WriteTextBmsResponseLog
 7940              	.LVL829:
 7941 07be 31E4     		b	.L451
 7942              	.L535:
1115:App/Src/fault_command.c ****   }
 7943              		.loc 1 1115 5 view .LVU1765
 7944 07c0 2946     		mov	r1, r5
 7945 07c2 3046     		mov	r0, r6
 7946 07c4 FFF7FEFF 		bl	FaultCommand_WriteTextSafetyStatus
 7947              	.LVL830:
 7948 07c8 2CE4     		b	.L451
 7949              	.L503:
1129:App/Src/fault_command.c ****   {
 7950              		.loc 1 1129 8 view .LVU1766
1129:App/Src/fault_command.c ****   {
 7951              		.loc 1 1129 12 is_stmt 0 view .LVU1767
 7952 07ca 4049     		ldr	r1, .L558+32
 7953 07cc 2046     		mov	r0, r4
 7954 07ce FFF7FEFF 		bl	strcmp
 7955              	.LVL831:
1129:App/Src/fault_command.c ****   {
 7956              		.loc 1 1129 11 discriminator 1 view .LVU1768
 7957 07d2 D8B1     		cbz	r0, .L548
1134:App/Src/fault_command.c ****   {
 7958              		.loc 1 1134 8 is_stmt 1 view .LVU1769
1134:App/Src/fault_command.c ****   {
 7959              		.loc 1 1134 12 is_stmt 0 view .LVU1770
 7960 07d4 3E49     		ldr	r1, .L558+36
 7961 07d6 2046     		mov	r0, r4
 7962 07d8 FFF7FEFF 		bl	strcmp
 7963              	.LVL832:
ARM GAS  C:\Users\hh\AppData\Local\Temp\ccntMbQq.s 			page 210


1134:App/Src/fault_command.c ****   {
 7964              		.loc 1 1134 11 discriminator 1 view .LVU1771
 7965 07dc F8B1     		cbz	r0, .L549
1138:App/Src/fault_command.c ****   {
 7966              		.loc 1 1138 8 is_stmt 1 view .LVU1772
1138:App/Src/fault_command.c ****   {
 7967              		.loc 1 1138 12 is_stmt 0 view .LVU1773
 7968 07de 0922     		movs	r2, #9
 7969 07e0 3C49     		ldr	r1, .L558+40
 7970 07e2 2046     		mov	r0, r4
 7971 07e4 FFF7FEFF 		bl	strncmp
 7972              	.LVL833:
1138:App/Src/fault_command.c ****   {
 7973              		.loc 1 1138 11 discriminator 1 view .LVU1774
 7974 07e8 F8B1     		cbz	r0, .L550
1148:App/Src/fault_command.c ****   {
 7975              		.loc 1 1148 8 is_stmt 1 view .LVU1775
1148:App/Src/fault_command.c ****   {
 7976              		.loc 1 1148 12 is_stmt 0 view .LVU1776
 7977 07ea 0522     		movs	r2, #5
 7978 07ec 3A49     		ldr	r1, .L558+44
 7979 07ee 2046     		mov	r0, r4
 7980 07f0 FFF7FEFF 		bl	strncmp
 7981              	.LVL834:
1148:App/Src/fault_command.c ****   {
 7982              		.loc 1 1148 11 discriminator 1 view .LVU1777
 7983 07f4 80B3     		cbz	r0, .L551
1166:App/Src/fault_command.c ****   {
 7984              		.loc 1 1166 8 is_stmt 1 view .LVU1778
1166:App/Src/fault_command.c ****   {
 7985              		.loc 1 1166 12 is_stmt 0 view .LVU1779
 7986 07f6 2378     		ldrb	r3, [r4]	@ zero_extendqisi2
1166:App/Src/fault_command.c ****   {
 7987              		.loc 1 1166 11 view .LVU1780
 7988 07f8 002B     		cmp	r3, #0
 7989 07fa 3FF413AC 		beq	.L451
1168:App/Src/fault_command.c ****   }
 7990              		.loc 1 1168 5 is_stmt 1 view .LVU1781
 7991 07fe 2346     		mov	r3, r4
 7992 0800 364A     		ldr	r2, .L558+48
 7993 0802 2946     		mov	r1, r5
 7994 0804 3046     		mov	r0, r6
 7995 0806 FFF7FEFF 		bl	FaultCommand_WriteFormat
 7996              	.LVL835:
 7997 080a 0BE4     		b	.L451
 7998              	.L548:
1131:App/Src/fault_command.c ****     FaultCommand_WriteTextResult(write, context, "safe", HAL_OK);
 7999              		.loc 1 1131 5 view .LVU1782
 8000 080c FFF7FEFF 		bl	DacSafety_Release
 8001              	.LVL836:
1132:App/Src/fault_command.c ****   }
 8002              		.loc 1 1132 5 view .LVU1783
 8003 0810 0023     		movs	r3, #0
 8004 0812 334A     		ldr	r2, .L558+52
 8005 0814 2946     		mov	r1, r5
 8006 0816 3046     		mov	r0, r6
 8007 0818 FFF7FEFF 		bl	FaultCommand_WriteTextResult
ARM GAS  C:\Users\hh\AppData\Local\Temp\ccntMbQq.s 			page 211


 8008              	.LVL837:
 8009 081c 02E4     		b	.L451
 8010              	.L549:
1136:App/Src/fault_command.c ****   }
 8011              		.loc 1 1136 5 view .LVU1784
 8012 081e 2946     		mov	r1, r5
 8013 0820 3046     		mov	r0, r6
 8014 0822 FFF7FEFF 		bl	FaultCommand_WriteTextSramStatus
 8015              	.LVL838:
 8016 0826 FFF7FDBB 		b	.L451
 8017              	.L550:
 8018              	.LBB87:
1140:App/Src/fault_command.c ****     HAL_StatusTypeDef status;
 8019              		.loc 1 1140 5 view .LVU1785
1140:App/Src/fault_command.c ****     HAL_StatusTypeDef status;
 8020              		.loc 1 1140 19 is_stmt 0 view .LVU1786
 8021 082a 4FF48033 		mov	r3, #65536
 8022 082e 0893     		str	r3, [sp, #32]
1141:App/Src/fault_command.c **** 
 8023              		.loc 1 1141 5 is_stmt 1 view .LVU1787
1143:App/Src/fault_command.c ****     status = BspSram_RunSelfTest((uint32_t)bytes);
 8024              		.loc 1 1143 5 view .LVU1788
1143:App/Src/fault_command.c ****     status = BspSram_RunSelfTest((uint32_t)bytes);
 8025              		.loc 1 1143 11 is_stmt 0 view .LVU1789
 8026 0830 08AA     		add	r2, sp, #32
 8027 0832 2C49     		ldr	r1, .L558+56
 8028 0834 2046     		mov	r0, r4
 8029 0836 FFF7FEFF 		bl	sscanf
 8030              	.LVL839:
1144:App/Src/fault_command.c ****     FaultCommand_WriteTextResult(write, context, "sram", status);
 8031              		.loc 1 1144 5 is_stmt 1 view .LVU1790
1144:App/Src/fault_command.c ****     FaultCommand_WriteTextResult(write, context, "sram", status);
 8032              		.loc 1 1144 14 is_stmt 0 view .LVU1791
 8033 083a 0898     		ldr	r0, [sp, #32]
 8034 083c FFF7FEFF 		bl	BspSram_RunSelfTest
 8035              	.LVL840:
 8036 0840 0346     		mov	r3, r0
 8037              	.LVL841:
1145:App/Src/fault_command.c ****     FaultCommand_WriteTextSramStatus(write, context);
 8038              		.loc 1 1145 5 is_stmt 1 view .LVU1792
 8039 0842 294A     		ldr	r2, .L558+60
 8040 0844 2946     		mov	r1, r5
 8041 0846 3046     		mov	r0, r6
 8042 0848 FFF7FEFF 		bl	FaultCommand_WriteTextResult
 8043              	.LVL842:
1146:App/Src/fault_command.c ****   }
 8044              		.loc 1 1146 5 view .LVU1793
 8045 084c 2946     		mov	r1, r5
 8046 084e 3046     		mov	r0, r6
 8047 0850 FFF7FEFF 		bl	FaultCommand_WriteTextSramStatus
 8048              	.LVL843:
 8049              	.LBE87:
 8050 0854 FFF7E6BB 		b	.L451
 8051              	.LVL844:
 8052              	.L551:
1150:App/Src/fault_command.c ****     {
 8053              		.loc 1 1150 5 view .LVU1794
ARM GAS  C:\Users\hh\AppData\Local\Temp\ccntMbQq.s 			page 212


1150:App/Src/fault_command.c ****     {
 8054              		.loc 1 1150 9 is_stmt 0 view .LVU1795
 8055 0858 FFF7FEFF 		bl	DacSafety_IsOutputAllowed
 8056              	.LVL845:
1150:App/Src/fault_command.c ****     {
 8057              		.loc 1 1150 8 discriminator 1 view .LVU1796
 8058 085c 90B1     		cbz	r0, .L552
1156:App/Src/fault_command.c ****     if (sscanf(line, "clear %u", &cell) == 1)
 8059              		.loc 1 1156 5 is_stmt 1 view .LVU1797
 8060 085e FFF7FEFF 		bl	FaultCommand_StopAllWaveforms
 8061              	.LVL846:
1157:App/Src/fault_command.c ****     {
 8062              		.loc 1 1157 5 view .LVU1798
1157:App/Src/fault_command.c ****     {
 8063              		.loc 1 1157 9 is_stmt 0 view .LVU1799
 8064 0862 1BAA     		add	r2, sp, #108
 8065 0864 2149     		ldr	r1, .L558+64
 8066 0866 2046     		mov	r0, r4
 8067 0868 FFF7FEFF 		bl	sscanf
 8068              	.LVL847:
1157:App/Src/fault_command.c ****     {
 8069              		.loc 1 1157 8 discriminator 1 view .LVU1800
 8070 086c 0128     		cmp	r0, #1
 8071 086e 11D0     		beq	.L553
1163:App/Src/fault_command.c ****     }
 8072              		.loc 1 1163 7 is_stmt 1 view .LVU1801
 8073 0870 FFF7FEFF 		bl	VoltageSim_ClearAllFaults
 8074              	.LVL848:
 8075 0874 0346     		mov	r3, r0
1163:App/Src/fault_command.c ****     }
 8076              		.loc 1 1163 7 is_stmt 0 discriminator 1 view .LVU1802
 8077 0876 184A     		ldr	r2, .L558+44
 8078 0878 2946     		mov	r1, r5
 8079 087a 3046     		mov	r0, r6
 8080 087c FFF7FEFF 		bl	FaultCommand_WriteTextResult
 8081              	.LVL849:
 8082 0880 FFF7D0BB 		b	.L451
 8083              	.L552:
1152:App/Src/fault_command.c ****       return;
 8084              		.loc 1 1152 7 is_stmt 1 view .LVU1803
 8085 0884 0223     		movs	r3, #2
 8086 0886 144A     		ldr	r2, .L558+44
 8087 0888 2946     		mov	r1, r5
 8088 088a 3046     		mov	r0, r6
 8089 088c FFF7FEFF 		bl	FaultCommand_WriteTextResult
 8090              	.LVL850:
1153:App/Src/fault_command.c ****     }
 8091              		.loc 1 1153 7 view .LVU1804
 8092 0890 FFF7C8BB 		b	.L451
 8093              	.L553:
1159:App/Src/fault_command.c ****     }
 8094              		.loc 1 1159 7 view .LVU1805
 8095 0894 9DF86C00 		ldrb	r0, [sp, #108]	@ zero_extendqisi2
 8096 0898 FFF7FEFF 		bl	VoltageSim_ClearCellFault
 8097              	.LVL851:
 8098 089c 0346     		mov	r3, r0
1159:App/Src/fault_command.c ****     }
ARM GAS  C:\Users\hh\AppData\Local\Temp\ccntMbQq.s 			page 213


 8099              		.loc 1 1159 7 is_stmt 0 discriminator 1 view .LVU1806
 8100 089e 0E4A     		ldr	r2, .L558+44
 8101 08a0 2946     		mov	r1, r5
 8102 08a2 3046     		mov	r0, r6
 8103 08a4 FFF7FEFF 		bl	FaultCommand_WriteTextResult
 8104              	.LVL852:
 8105 08a8 FFF7BCBB 		b	.L451
 8106              	.L559:
 8107              		.align	2
 8108              	.L558:
 8109 08ac 5C010000 		.word	.LC179
 8110 08b0 D0010000 		.word	.LC117
 8111 08b4 7C010000 		.word	.LC181
 8112 08b8 9C010000 		.word	.LC183
 8113 08bc 40020000 		.word	.LC125
 8114 08c0 B8010000 		.word	.LC185
 8115 08c4 58020000 		.word	.LC128
 8116 08c8 7C020000 		.word	.LC134
 8117 08cc 64020000 		.word	.LC197
 8118 08d0 74020000 		.word	.LC198
 8119 08d4 80020000 		.word	.LC199
 8120 08d8 38020000 		.word	.LC124
 8121 08dc A8020000 		.word	.LC202
 8122 08e0 B8020000 		.word	.LC142
 8123 08e4 8C020000 		.word	.LC200
 8124 08e8 D8020000 		.word	.LC145
 8125 08ec 9C020000 		.word	.LC201
 8126              		.cfi_endproc
 8127              	.LFE177:
 8129              		.section	.text.FaultCommand_ExecuteLine,"ax",%progbits
 8130              		.align	1
 8131              		.global	FaultCommand_ExecuteLine
 8132              		.syntax unified
 8133              		.thumb
 8134              		.thumb_func
 8136              	FaultCommand_ExecuteLine:
 8137              	.LVL853:
 8138              	.LFB184:
1773:App/Src/fault_command.c **** 
1774:App/Src/fault_command.c **** void FaultCommand_ExecuteLine(const char *line, FaultCommand_WriteFn write, void *context)
1775:App/Src/fault_command.c **** {
 8139              		.loc 1 1775 1 is_stmt 1 view -0
 8140              		.cfi_startproc
 8141              		@ args = 0, pretend = 0, frame = 0
 8142              		@ frame_needed = 0, uses_anonymous_args = 0
 8143              		.loc 1 1775 1 is_stmt 0 view .LVU1808
 8144 0000 38B5     		push	{r3, r4, r5, lr}
 8145              	.LCFI101:
 8146              		.cfi_def_cfa_offset 16
 8147              		.cfi_offset 3, -16
 8148              		.cfi_offset 4, -12
 8149              		.cfi_offset 5, -8
 8150              		.cfi_offset 14, -4
 8151 0002 0C46     		mov	r4, r1
 8152 0004 1546     		mov	r5, r2
1776:App/Src/fault_command.c ****   line = FaultCommand_SkipSpaces(line);
 8153              		.loc 1 1776 3 is_stmt 1 view .LVU1809
ARM GAS  C:\Users\hh\AppData\Local\Temp\ccntMbQq.s 			page 214


 8154              		.loc 1 1776 10 is_stmt 0 view .LVU1810
 8155 0006 FFF7FEFF 		bl	FaultCommand_SkipSpaces
 8156              	.LVL854:
1777:App/Src/fault_command.c **** 
1778:App/Src/fault_command.c ****   if (line == NULL)
 8157              		.loc 1 1778 3 is_stmt 1 view .LVU1811
 8158              		.loc 1 1778 6 is_stmt 0 view .LVU1812
 8159 000a 30B1     		cbz	r0, .L560
1779:App/Src/fault_command.c ****   {
1780:App/Src/fault_command.c ****     return;
1781:App/Src/fault_command.c ****   }
1782:App/Src/fault_command.c **** 
1783:App/Src/fault_command.c ****   if (*line == '{')
 8160              		.loc 1 1783 3 is_stmt 1 view .LVU1813
 8161              		.loc 1 1783 7 is_stmt 0 view .LVU1814
 8162 000c 0278     		ldrb	r2, [r0]	@ zero_extendqisi2
 8163              		.loc 1 1783 6 view .LVU1815
 8164 000e 7B2A     		cmp	r2, #123
 8165 0010 04D0     		beq	.L564
1784:App/Src/fault_command.c ****   {
1785:App/Src/fault_command.c ****     FaultCommand_ExecuteJson(line, write, context);
1786:App/Src/fault_command.c ****   }
1787:App/Src/fault_command.c ****   else
1788:App/Src/fault_command.c ****   {
1789:App/Src/fault_command.c ****     FaultCommand_ExecuteText(line, write, context);
 8166              		.loc 1 1789 5 is_stmt 1 view .LVU1816
 8167 0012 2A46     		mov	r2, r5
 8168 0014 2146     		mov	r1, r4
 8169 0016 FFF7FEFF 		bl	FaultCommand_ExecuteText
 8170              	.LVL855:
 8171              	.L560:
1790:App/Src/fault_command.c ****   }
1791:App/Src/fault_command.c **** }
 8172              		.loc 1 1791 1 is_stmt 0 view .LVU1817
 8173 001a 38BD     		pop	{r3, r4, r5, pc}
 8174              	.LVL856:
 8175              	.L564:
1785:App/Src/fault_command.c ****   }
 8176              		.loc 1 1785 5 is_stmt 1 view .LVU1818
 8177 001c 2A46     		mov	r2, r5
 8178 001e 2146     		mov	r1, r4
 8179 0020 FFF7FEFF 		bl	FaultCommand_ExecuteJson
 8180              	.LVL857:
1785:App/Src/fault_command.c ****   }
 8181              		.loc 1 1785 5 is_stmt 0 view .LVU1819
 8182 0024 F9E7     		b	.L560
 8183              		.cfi_endproc
 8184              	.LFE184:
 8186              		.text
 8187              	.Letext0:
 8188              		.file 2 "C:/Program Files (x86)/ARM/arm-gnu-toolchain-15.2.rel1-mingw-w64-i686-arm-none-eabi/arm-n
 8189              		.file 3 "C:/Program Files (x86)/ARM/arm-gnu-toolchain-15.2.rel1-mingw-w64-i686-arm-none-eabi/arm-n
 8190              		.file 4 "Drivers/STM32H7xx_HAL_Driver/Inc/stm32h7xx_hal_def.h"
 8191              		.file 5 "App/Inc/fault_command.h"
 8192              		.file 6 "C:/Program Files (x86)/ARM/arm-gnu-toolchain-15.2.rel1-mingw-w64-i686-arm-none-eabi/lib/g
 8193              		.file 7 "BSP/Inc/bsp_can.h"
 8194              		.file 8 "App/Inc/bms_response_log.h"
ARM GAS  C:\Users\hh\AppData\Local\Temp\ccntMbQq.s 			page 215


 8195              		.file 9 "BSP/Inc/bsp_sram.h"
 8196              		.file 10 "App/Inc/voltage_sim.h"
 8197              		.file 11 "App/Inc/dac_safety.h"
 8198              		.file 12 "App/Inc/waveform_engine.h"
 8199              		.file 13 "App/Inc/waveform_gen.h"
 8200              		.file 14 "C:/Program Files (x86)/ARM/arm-gnu-toolchain-15.2.rel1-mingw-w64-i686-arm-none-eabi/arm-
 8201              		.file 15 "C:/Program Files (x86)/ARM/arm-gnu-toolchain-15.2.rel1-mingw-w64-i686-arm-none-eabi/arm-
 8202              		.file 16 "C:/Program Files (x86)/ARM/arm-gnu-toolchain-15.2.rel1-mingw-w64-i686-arm-none-eabi/arm-
 8203              		.file 17 "<built-in>"
ARM GAS  C:\Users\hh\AppData\Local\Temp\ccntMbQq.s 			page 216


DEFINED SYMBOLS
                            *ABS*:00000000 fault_command.c
C:\Users\hh\AppData\Local\Temp\ccntMbQq.s:20     .text.FaultCommand_Write:00000000 $t
C:\Users\hh\AppData\Local\Temp\ccntMbQq.s:25     .text.FaultCommand_Write:00000000 FaultCommand_Write
C:\Users\hh\AppData\Local\Temp\ccntMbQq.s:65     .text.FaultCommand_SkipSpaces:00000000 $t
C:\Users\hh\AppData\Local\Temp\ccntMbQq.s:70     .text.FaultCommand_SkipSpaces:00000000 FaultCommand_SkipSpaces
C:\Users\hh\AppData\Local\Temp\ccntMbQq.s:102    .rodata.FaultCommand_WriteTextHelp.str1.4:00000000 $d
C:\Users\hh\AppData\Local\Temp\ccntMbQq.s:223    .text.FaultCommand_WriteTextHelp:00000000 $t
C:\Users\hh\AppData\Local\Temp\ccntMbQq.s:228    .text.FaultCommand_WriteTextHelp:00000000 FaultCommand_WriteTextHelp
C:\Users\hh\AppData\Local\Temp\ccntMbQq.s:466    .text.FaultCommand_WriteTextHelp:0000016c $d
C:\Users\hh\AppData\Local\Temp\ccntMbQq.s:506    .text.FaultCommand_RunCalibrationTrim:00000000 $t
C:\Users\hh\AppData\Local\Temp\ccntMbQq.s:511    .text.FaultCommand_RunCalibrationTrim:00000000 FaultCommand_RunCalibrationTrim
C:\Users\hh\AppData\Local\Temp\ccntMbQq.s:568    .text.FaultCommand_WriteFormat:00000000 $t
C:\Users\hh\AppData\Local\Temp\ccntMbQq.s:573    .text.FaultCommand_WriteFormat:00000000 FaultCommand_WriteFormat
C:\Users\hh\AppData\Local\Temp\ccntMbQq.s:646    .rodata.FaultCommand_WriteJsonStatus.str1.4:00000000 $d
C:\Users\hh\AppData\Local\Temp\ccntMbQq.s:668    .text.FaultCommand_WriteJsonStatus:00000000 $t
C:\Users\hh\AppData\Local\Temp\ccntMbQq.s:673    .text.FaultCommand_WriteJsonStatus:00000000 FaultCommand_WriteJsonStatus
C:\Users\hh\AppData\Local\Temp\ccntMbQq.s:849    .text.FaultCommand_WriteJsonStatus:000000e8 $d
C:\Users\hh\AppData\Local\Temp\ccntMbQq.s:858    .rodata.FaultCommand_WriteJsonSafetyStatus.str1.4:00000000 $d
C:\Users\hh\AppData\Local\Temp\ccntMbQq.s:865    .text.FaultCommand_WriteJsonSafetyStatus:00000000 $t
C:\Users\hh\AppData\Local\Temp\ccntMbQq.s:870    .text.FaultCommand_WriteJsonSafetyStatus:00000000 FaultCommand_WriteJsonSafetyStatus
C:\Users\hh\AppData\Local\Temp\ccntMbQq.s:932    .text.FaultCommand_WriteJsonSafetyStatus:00000040 $d
C:\Users\hh\AppData\Local\Temp\ccntMbQq.s:937    .rodata.FaultCommand_WriteJsonResult.str1.4:00000000 $d
C:\Users\hh\AppData\Local\Temp\ccntMbQq.s:947    .text.FaultCommand_WriteJsonResult:00000000 $t
C:\Users\hh\AppData\Local\Temp\ccntMbQq.s:952    .text.FaultCommand_WriteJsonResult:00000000 FaultCommand_WriteJsonResult
C:\Users\hh\AppData\Local\Temp\ccntMbQq.s:999    .text.FaultCommand_WriteJsonResult:00000018 $d
C:\Users\hh\AppData\Local\Temp\ccntMbQq.s:1006   .rodata.FaultCommand_WriteTextStatus.str1.4:00000000 $d
C:\Users\hh\AppData\Local\Temp\ccntMbQq.s:1027   .text.FaultCommand_WriteTextStatus:00000000 $t
C:\Users\hh\AppData\Local\Temp\ccntMbQq.s:1032   .text.FaultCommand_WriteTextStatus:00000000 FaultCommand_WriteTextStatus
C:\Users\hh\AppData\Local\Temp\ccntMbQq.s:1202   .text.FaultCommand_WriteTextStatus:000000c8 $d
C:\Users\hh\AppData\Local\Temp\ccntMbQq.s:1212   .rodata.FaultCommand_WriteTextCalibrationStatus.str1.4:00000000 $d
C:\Users\hh\AppData\Local\Temp\ccntMbQq.s:1219   .text.FaultCommand_WriteTextCalibrationStatus:00000000 $t
C:\Users\hh\AppData\Local\Temp\ccntMbQq.s:1224   .text.FaultCommand_WriteTextCalibrationStatus:00000000 FaultCommand_WriteTextCalibrationStatus
C:\Users\hh\AppData\Local\Temp\ccntMbQq.s:1292   .text.FaultCommand_WriteTextCalibrationStatus:00000034 $d
C:\Users\hh\AppData\Local\Temp\ccntMbQq.s:1298   .rodata.FaultCommand_WriteTextSafetyStatus.str1.4:00000000 $d
C:\Users\hh\AppData\Local\Temp\ccntMbQq.s:1304   .text.FaultCommand_WriteTextSafetyStatus:00000000 $t
C:\Users\hh\AppData\Local\Temp\ccntMbQq.s:1309   .text.FaultCommand_WriteTextSafetyStatus:00000000 FaultCommand_WriteTextSafetyStatus
C:\Users\hh\AppData\Local\Temp\ccntMbQq.s:1371   .text.FaultCommand_WriteTextSafetyStatus:00000040 $d
C:\Users\hh\AppData\Local\Temp\ccntMbQq.s:1376   .rodata.FaultCommand_WriteTextResult.str1.4:00000000 $d
C:\Users\hh\AppData\Local\Temp\ccntMbQq.s:1386   .text.FaultCommand_WriteTextResult:00000000 $t
C:\Users\hh\AppData\Local\Temp\ccntMbQq.s:1391   .text.FaultCommand_WriteTextResult:00000000 FaultCommand_WriteTextResult
C:\Users\hh\AppData\Local\Temp\ccntMbQq.s:1439   .text.FaultCommand_WriteTextResult:0000001c $d
C:\Users\hh\AppData\Local\Temp\ccntMbQq.s:1446   .rodata.FaultCommand_FindJsonKey.str1.4:00000000 $d
C:\Users\hh\AppData\Local\Temp\ccntMbQq.s:1450   .text.FaultCommand_FindJsonKey:00000000 $t
C:\Users\hh\AppData\Local\Temp\ccntMbQq.s:1455   .text.FaultCommand_FindJsonKey:00000000 FaultCommand_FindJsonKey
C:\Users\hh\AppData\Local\Temp\ccntMbQq.s:1503   .text.FaultCommand_FindJsonKey:00000020 $d
C:\Users\hh\AppData\Local\Temp\ccntMbQq.s:1508   .text.FaultCommand_JsonGetInt:00000000 $t
C:\Users\hh\AppData\Local\Temp\ccntMbQq.s:1513   .text.FaultCommand_JsonGetInt:00000000 FaultCommand_JsonGetInt
C:\Users\hh\AppData\Local\Temp\ccntMbQq.s:1591   .text.FaultCommand_JsonGetString:00000000 $t
C:\Users\hh\AppData\Local\Temp\ccntMbQq.s:1596   .text.FaultCommand_JsonGetString:00000000 FaultCommand_JsonGetString
C:\Users\hh\AppData\Local\Temp\ccntMbQq.s:1734   .rodata.FaultCommand_WriteJsonCanStatus.str1.4:00000000 $d
C:\Users\hh\AppData\Local\Temp\ccntMbQq.s:1747   .text.FaultCommand_WriteJsonCanStatus:00000000 $t
C:\Users\hh\AppData\Local\Temp\ccntMbQq.s:1752   .text.FaultCommand_WriteJsonCanStatus:00000000 FaultCommand_WriteJsonCanStatus
C:\Users\hh\AppData\Local\Temp\ccntMbQq.s:1864   .text.FaultCommand_WriteJsonCanStatus:00000078 $d
C:\Users\hh\AppData\Local\Temp\ccntMbQq.s:1873   .rodata.FaultCommand_WriteTextCanStatus.str1.4:00000000 $d
C:\Users\hh\AppData\Local\Temp\ccntMbQq.s:1884   .text.FaultCommand_WriteTextCanStatus:00000000 $t
C:\Users\hh\AppData\Local\Temp\ccntMbQq.s:1889   .text.FaultCommand_WriteTextCanStatus:00000000 FaultCommand_WriteTextCanStatus
ARM GAS  C:\Users\hh\AppData\Local\Temp\ccntMbQq.s 			page 217


C:\Users\hh\AppData\Local\Temp\ccntMbQq.s:1999   .text.FaultCommand_WriteTextCanStatus:00000074 $d
C:\Users\hh\AppData\Local\Temp\ccntMbQq.s:2008   .rodata.FaultCommand_WriteJsonBmsResponseLog.str1.4:00000000 $d
C:\Users\hh\AppData\Local\Temp\ccntMbQq.s:2037   .text.FaultCommand_WriteJsonBmsResponseLog:00000000 $t
C:\Users\hh\AppData\Local\Temp\ccntMbQq.s:2042   .text.FaultCommand_WriteJsonBmsResponseLog:00000000 FaultCommand_WriteJsonBmsResponseLog
C:\Users\hh\AppData\Local\Temp\ccntMbQq.s:2227   .text.FaultCommand_WriteJsonBmsResponseLog:000000f4 $d
C:\Users\hh\AppData\Local\Temp\ccntMbQq.s:2242   .rodata.FaultCommand_WriteTextBmsResponseLog.str1.4:00000000 $d
C:\Users\hh\AppData\Local\Temp\ccntMbQq.s:2264   .text.FaultCommand_WriteTextBmsResponseLog:00000000 $t
C:\Users\hh\AppData\Local\Temp\ccntMbQq.s:2269   .text.FaultCommand_WriteTextBmsResponseLog:00000000 FaultCommand_WriteTextBmsResponseLog
C:\Users\hh\AppData\Local\Temp\ccntMbQq.s:2495   .text.FaultCommand_WriteTextBmsResponseLog:00000110 $d
C:\Users\hh\AppData\Local\Temp\ccntMbQq.s:2510   .rodata.FaultCommand_WriteJsonSramStatus.str1.4:00000000 $d
C:\Users\hh\AppData\Local\Temp\ccntMbQq.s:2529   .text.FaultCommand_WriteJsonSramStatus:00000000 $t
C:\Users\hh\AppData\Local\Temp\ccntMbQq.s:2534   .text.FaultCommand_WriteJsonSramStatus:00000000 FaultCommand_WriteJsonSramStatus
C:\Users\hh\AppData\Local\Temp\ccntMbQq.s:2652   .text.FaultCommand_WriteJsonSramStatus:00000088 $d
C:\Users\hh\AppData\Local\Temp\ccntMbQq.s:2663   .rodata.FaultCommand_WriteTextSramStatus.str1.4:00000000 $d
C:\Users\hh\AppData\Local\Temp\ccntMbQq.s:2672   .text.FaultCommand_WriteTextSramStatus:00000000 $t
C:\Users\hh\AppData\Local\Temp\ccntMbQq.s:2677   .text.FaultCommand_WriteTextSramStatus:00000000 FaultCommand_WriteTextSramStatus
C:\Users\hh\AppData\Local\Temp\ccntMbQq.s:2776   .text.FaultCommand_WriteTextSramStatus:00000074 $d
C:\Users\hh\AppData\Local\Temp\ccntMbQq.s:2783   .text.FaultCommand_StopAllWaveforms:00000000 $t
C:\Users\hh\AppData\Local\Temp\ccntMbQq.s:2788   .text.FaultCommand_StopAllWaveforms:00000000 FaultCommand_StopAllWaveforms
C:\Users\hh\AppData\Local\Temp\ccntMbQq.s:2811   .text.FaultCommand_RunSet:00000000 $t
C:\Users\hh\AppData\Local\Temp\ccntMbQq.s:2816   .text.FaultCommand_RunSet:00000000 FaultCommand_RunSet
C:\Users\hh\AppData\Local\Temp\ccntMbQq.s:2860   .text.FaultCommand_RunOverVoltage:00000000 $t
C:\Users\hh\AppData\Local\Temp\ccntMbQq.s:2865   .text.FaultCommand_RunOverVoltage:00000000 FaultCommand_RunOverVoltage
C:\Users\hh\AppData\Local\Temp\ccntMbQq.s:2949   .text.FaultCommand_RunUnderVoltage:00000000 $t
C:\Users\hh\AppData\Local\Temp\ccntMbQq.s:2954   .text.FaultCommand_RunUnderVoltage:00000000 FaultCommand_RunUnderVoltage
C:\Users\hh\AppData\Local\Temp\ccntMbQq.s:3038   .text.FaultCommand_RunDiff:00000000 $t
C:\Users\hh\AppData\Local\Temp\ccntMbQq.s:3043   .text.FaultCommand_RunDiff:00000000 FaultCommand_RunDiff
C:\Users\hh\AppData\Local\Temp\ccntMbQq.s:3131   .text.FaultCommand_RunNormal:00000000 $t
C:\Users\hh\AppData\Local\Temp\ccntMbQq.s:3136   .text.FaultCommand_RunNormal:00000000 FaultCommand_RunNormal
C:\Users\hh\AppData\Local\Temp\ccntMbQq.s:3176   .text.FaultCommand_JsonGetUint:00000000 $t
C:\Users\hh\AppData\Local\Temp\ccntMbQq.s:3181   .text.FaultCommand_JsonGetUint:00000000 FaultCommand_JsonGetUint
C:\Users\hh\AppData\Local\Temp\ccntMbQq.s:3259   .text.FaultCommand_JsonGetUintDefault:00000000 $t
C:\Users\hh\AppData\Local\Temp\ccntMbQq.s:3264   .text.FaultCommand_JsonGetUintDefault:00000000 FaultCommand_JsonGetUintDefault
C:\Users\hh\AppData\Local\Temp\ccntMbQq.s:3301   .rodata.FaultCommand_ExecuteJson.str1.4:00000000 $d
C:\Users\hh\AppData\Local\Temp\ccntMbQq.s:3497   .text.FaultCommand_ExecuteJson:00000000 $t
C:\Users\hh\AppData\Local\Temp\ccntMbQq.s:3502   .text.FaultCommand_ExecuteJson:00000000 FaultCommand_ExecuteJson
C:\Users\hh\AppData\Local\Temp\ccntMbQq.s:4063   .text.FaultCommand_ExecuteJson:000002a0 $d
C:\Users\hh\AppData\Local\Temp\ccntMbQq.s:4098   .text.FaultCommand_ExecuteJson:00000314 $t
C:\Users\hh\AppData\Local\Temp\ccntMbQq.s:4674   .text.FaultCommand_ExecuteJson:00000590 $d
C:\Users\hh\AppData\Local\Temp\ccntMbQq.s:4697   .text.FaultCommand_ExecuteJson:000005e0 $t
C:\Users\hh\AppData\Local\Temp\ccntMbQq.s:5335   .text.FaultCommand_ExecuteJson:0000085c $d
C:\Users\hh\AppData\Local\Temp\ccntMbQq.s:5360   .text.FaultCommand_ExecuteJson:000008b4 $t
C:\Users\hh\AppData\Local\Temp\ccntMbQq.s:5948   .text.FaultCommand_ExecuteJson:00000b68 $d
C:\Users\hh\AppData\Local\Temp\ccntMbQq.s:5974   .rodata.FaultCommand_ParseCanSendText.str1.4:00000000 $d
C:\Users\hh\AppData\Local\Temp\ccntMbQq.s:5978   .text.FaultCommand_ParseCanSendText:00000000 $t
C:\Users\hh\AppData\Local\Temp\ccntMbQq.s:5983   .text.FaultCommand_ParseCanSendText:00000000 FaultCommand_ParseCanSendText
C:\Users\hh\AppData\Local\Temp\ccntMbQq.s:6153   .text.FaultCommand_ParseCanSendText:0000008c $d
C:\Users\hh\AppData\Local\Temp\ccntMbQq.s:6158   .rodata.FaultCommand_ParseLogFilterText.str1.4:00000000 $d
C:\Users\hh\AppData\Local\Temp\ccntMbQq.s:6165   .text.FaultCommand_ParseLogFilterText:00000000 $t
C:\Users\hh\AppData\Local\Temp\ccntMbQq.s:6170   .text.FaultCommand_ParseLogFilterText:00000000 FaultCommand_ParseLogFilterText
C:\Users\hh\AppData\Local\Temp\ccntMbQq.s:6301   .text.FaultCommand_ParseLogFilterText:00000070 $d
C:\Users\hh\AppData\Local\Temp\ccntMbQq.s:6309   .rodata.FaultCommand_ParseLogDataText.str1.4:00000000 $d
C:\Users\hh\AppData\Local\Temp\ccntMbQq.s:6316   .text.FaultCommand_ParseLogDataText:00000000 $t
C:\Users\hh\AppData\Local\Temp\ccntMbQq.s:6321   .text.FaultCommand_ParseLogDataText:00000000 FaultCommand_ParseLogDataText
C:\Users\hh\AppData\Local\Temp\ccntMbQq.s:6419   .text.FaultCommand_ParseLogDataText:0000005c $d
C:\Users\hh\AppData\Local\Temp\ccntMbQq.s:6425   .rodata.FaultCommand_WriteTextWaveStatus.str1.4:00000000 $d
C:\Users\hh\AppData\Local\Temp\ccntMbQq.s:6434   .text.FaultCommand_WriteTextWaveStatus:00000000 $t
ARM GAS  C:\Users\hh\AppData\Local\Temp\ccntMbQq.s 			page 218


C:\Users\hh\AppData\Local\Temp\ccntMbQq.s:6439   .text.FaultCommand_WriteTextWaveStatus:00000000 FaultCommand_WriteTextWaveStatus
C:\Users\hh\AppData\Local\Temp\ccntMbQq.s:6521   .text.FaultCommand_WriteTextWaveStatus:00000060 $d
C:\Users\hh\AppData\Local\Temp\ccntMbQq.s:6527   .rodata.FaultCommand_ExecuteText.str1.4:00000000 $d
C:\Users\hh\AppData\Local\Temp\ccntMbQq.s:6672   .text.FaultCommand_ExecuteText:00000000 $t
C:\Users\hh\AppData\Local\Temp\ccntMbQq.s:6677   .text.FaultCommand_ExecuteText:00000000 FaultCommand_ExecuteText
C:\Users\hh\AppData\Local\Temp\ccntMbQq.s:7142   .text.FaultCommand_ExecuteText:00000294 $d
C:\Users\hh\AppData\Local\Temp\ccntMbQq.s:7181   .text.FaultCommand_ExecuteText:00000324 $t
C:\Users\hh\AppData\Local\Temp\ccntMbQq.s:7660   .text.FaultCommand_ExecuteText:000005f4 $d
C:\Users\hh\AppData\Local\Temp\ccntMbQq.s:7675   .text.FaultCommand_ExecuteText:00000624 $t
C:\Users\hh\AppData\Local\Temp\ccntMbQq.s:8109   .text.FaultCommand_ExecuteText:000008ac $d
C:\Users\hh\AppData\Local\Temp\ccntMbQq.s:8130   .text.FaultCommand_ExecuteLine:00000000 $t
C:\Users\hh\AppData\Local\Temp\ccntMbQq.s:8136   .text.FaultCommand_ExecuteLine:00000000 FaultCommand_ExecuteLine

UNDEFINED SYMBOLS
VoltageSim_GetCellCalibrationOffsetMv
VoltageSim_SetCellCalibrationOffsetMv
vsnprintf
WaveformGen_GetStatus
DacSafety_GetStatus
VoltageSim_GetActiveFaultCount
WaveformGen_GetTypeName
VoltageSim_GetLastCellVoltageMv
VoltageSim_GetFaultTypeName
VoltageSim_GetCellFaultInfo
snprintf
strstr
strchr
strtol
BspCan_GetStatus
BmsResponseLog_GetStatus
BmsResponseLog_GetTriggerName
BspSram_GetStatus
BspSram_GetResultName
WaveformEngine_Stop
WaveformGen_Stop
DacSafety_IsOutputAllowed
VoltageSim_SetCellVoltageMv
VoltageSim_InjectCellOverVoltageRamp
BmsResponseLog_RecordFaultTrigger
VoltageSim_InjectCellUnderVoltageRamp
VoltageSim_InjectVoltageDifference
VoltageSim_SetAllCellsVoltageMv
strtoul
strcmp
WaveformGen_StartSquare
WaveformGen_StartSine
WaveformGen_StartSineAll
memset
WaveformEngine_StartSine
VoltageSim_ClearCellCalibrationOffset
VoltageSim_ClearAllCalibrationOffsets
BspCan_SendClassic
BmsResponseLog_Clear
BmsResponseLog_DisableFilter
BmsResponseLog_SetFilter
BmsResponseLog_SetDataFilter
BmsResponseLog_ClearDataFilter
ARM GAS  C:\Users\hh\AppData\Local\Temp\ccntMbQq.s 			page 219


DacSafety_EmergencyStop
DacSafety_Release
BspSram_RunSelfTest
VoltageSim_ClearCellFault
VoltageSim_ClearAllFaults
sscanf
WaveformEngine_GetStatus
strncmp
