ARM GAS  C:\Users\hh\AppData\Local\Temp\ccnvB5Va.s 			page 1


   1              		.cpu cortex-m7
   2              		.arch armv7e-m
   3              		.fpu fpv5-d16
   4              		.eabi_attribute 28, 1
   5              		.eabi_attribute 20, 1
   6              		.eabi_attribute 21, 1
   7              		.eabi_attribute 23, 3
   8              		.eabi_attribute 24, 1
   9              		.eabi_attribute 25, 1
  10              		.eabi_attribute 26, 1
  11              		.eabi_attribute 30, 1
  12              		.eabi_attribute 34, 1
  13              		.eabi_attribute 18, 4
  14              		.file	"fault_command.c"
  15              		.text
  16              	.Ltext0:
  17              		.cfi_sections	.debug_frame
  18              		.file 1 "App/Src/fault_command.c"
  19              		.section	.text.FaultCommand_Write,"ax",%progbits
  20              		.align	1
  21              		.syntax unified
  22              		.thumb
  23              		.thumb_func
  25              	FaultCommand_Write:
  26              	.LVL0:
  27              	.LFB149:
   1:App/Src/fault_command.c **** #include "fault_command.h"
   2:App/Src/fault_command.c **** 
   3:App/Src/fault_command.c **** #include <stdarg.h>
   4:App/Src/fault_command.c **** #include <stdio.h>
   5:App/Src/fault_command.c **** #include <stdlib.h>
   6:App/Src/fault_command.c **** #include <string.h>
   7:App/Src/fault_command.c **** 
   8:App/Src/fault_command.c **** #include "bms_response_log.h"
   9:App/Src/fault_command.c **** #include "bsp_can.h"
  10:App/Src/fault_command.c **** #include "bsp_sram.h"
  11:App/Src/fault_command.c **** #include "dac_safety.h"
  12:App/Src/fault_command.c **** #include "voltage_sim.h"
  13:App/Src/fault_command.c **** #include "waveform_gen.h"
  14:App/Src/fault_command.c **** 
  15:App/Src/fault_command.c **** #define FAULT_COMMAND_DEFAULT_DURATION_MS 100U
  16:App/Src/fault_command.c **** #define FAULT_COMMAND_DEFAULT_SLEW_MV_PER_MS 3000U
  17:App/Src/fault_command.c **** 
  18:App/Src/fault_command.c **** static void FaultCommand_Write(FaultCommand_WriteFn write, void *context, const char *text)
  19:App/Src/fault_command.c **** {
  28              		.loc 1 19 1 view -0
  29              		.cfi_startproc
  30              		@ args = 0, pretend = 0, frame = 0
  31              		@ frame_needed = 0, uses_anonymous_args = 0
  20:App/Src/fault_command.c ****   if ((write != NULL) && (text != NULL))
  32              		.loc 1 20 3 view .LVU1
  33              		.loc 1 20 6 is_stmt 0 view .LVU2
  34 0000 0028     		cmp	r0, #0
  35 0002 18BF     		it	ne
  36 0004 002A     		cmpne	r2, #0
  37 0006 04D0     		beq	.L4
  19:App/Src/fault_command.c ****   if ((write != NULL) && (text != NULL))
ARM GAS  C:\Users\hh\AppData\Local\Temp\ccnvB5Va.s 			page 2


  38              		.loc 1 19 1 view .LVU3
  39 0008 08B5     		push	{r3, lr}
  40              	.LCFI0:
  41              		.cfi_def_cfa_offset 8
  42              		.cfi_offset 3, -8
  43              		.cfi_offset 14, -4
  44 000a 0346     		mov	r3, r0
  21:App/Src/fault_command.c ****   {
  22:App/Src/fault_command.c ****     write(text, context);
  45              		.loc 1 22 5 is_stmt 1 view .LVU4
  46 000c 1046     		mov	r0, r2
  47              	.LVL1:
  48              		.loc 1 22 5 is_stmt 0 view .LVU5
  49 000e 9847     		blx	r3
  50              	.LVL2:
  23:App/Src/fault_command.c ****   }
  24:App/Src/fault_command.c **** }
  51              		.loc 1 24 1 view .LVU6
  52 0010 08BD     		pop	{r3, pc}
  53              	.LVL3:
  54              	.L4:
  55              	.LCFI1:
  56              		.cfi_def_cfa_offset 0
  57              		.cfi_restore 3
  58              		.cfi_restore 14
  59              		.loc 1 24 1 view .LVU7
  60 0012 7047     		bx	lr
  61              		.cfi_endproc
  62              	.LFE149:
  64              		.section	.text.FaultCommand_SkipSpaces,"ax",%progbits
  65              		.align	1
  66              		.syntax unified
  67              		.thumb
  68              		.thumb_func
  70              	FaultCommand_SkipSpaces:
  71              	.LVL4:
  72              	.LFB151:
  25:App/Src/fault_command.c **** 
  26:App/Src/fault_command.c **** static void FaultCommand_WriteFormat(FaultCommand_WriteFn write,
  27:App/Src/fault_command.c ****                                      void *context,
  28:App/Src/fault_command.c ****                                      const char *format,
  29:App/Src/fault_command.c ****                                      ...)
  30:App/Src/fault_command.c **** {
  31:App/Src/fault_command.c ****   char buffer[512];
  32:App/Src/fault_command.c ****   va_list args;
  33:App/Src/fault_command.c **** 
  34:App/Src/fault_command.c ****   va_start(args, format);
  35:App/Src/fault_command.c ****   (void)vsnprintf(buffer, sizeof(buffer), format, args);
  36:App/Src/fault_command.c ****   va_end(args);
  37:App/Src/fault_command.c **** 
  38:App/Src/fault_command.c ****   FaultCommand_Write(write, context, buffer);
  39:App/Src/fault_command.c **** }
  40:App/Src/fault_command.c **** 
  41:App/Src/fault_command.c **** static const char *FaultCommand_SkipSpaces(const char *text)
  42:App/Src/fault_command.c **** {
  73              		.loc 1 42 1 is_stmt 1 view -0
  74              		.cfi_startproc
ARM GAS  C:\Users\hh\AppData\Local\Temp\ccnvB5Va.s 			page 3


  75              		@ args = 0, pretend = 0, frame = 0
  76              		@ frame_needed = 0, uses_anonymous_args = 0
  77              		@ link register save eliminated.
  43:App/Src/fault_command.c ****   while ((text != NULL) && (*text == ' '))
  78              		.loc 1 43 3 view .LVU9
  79              		.loc 1 43 9 is_stmt 0 view .LVU10
  80 0000 00E0     		b	.L8
  81              	.L10:
  44:App/Src/fault_command.c ****   {
  45:App/Src/fault_command.c ****     text++;
  82              		.loc 1 45 5 is_stmt 1 view .LVU11
  83              		.loc 1 45 9 is_stmt 0 view .LVU12
  84 0002 0130     		adds	r0, r0, #1
  85              	.LVL5:
  86              	.L8:
  43:App/Src/fault_command.c ****   while ((text != NULL) && (*text == ' '))
  87              		.loc 1 43 25 is_stmt 1 view .LVU13
  88 0004 10B1     		cbz	r0, .L9
  43:App/Src/fault_command.c ****   while ((text != NULL) && (*text == ' '))
  89              		.loc 1 43 29 is_stmt 0 discriminator 1 view .LVU14
  90 0006 0378     		ldrb	r3, [r0]	@ zero_extendqisi2
  43:App/Src/fault_command.c ****   while ((text != NULL) && (*text == ' '))
  91              		.loc 1 43 25 discriminator 1 view .LVU15
  92 0008 202B     		cmp	r3, #32
  93 000a FAD0     		beq	.L10
  94              	.L9:
  46:App/Src/fault_command.c ****   }
  47:App/Src/fault_command.c **** 
  48:App/Src/fault_command.c ****   return text;
  95              		.loc 1 48 3 is_stmt 1 view .LVU16
  49:App/Src/fault_command.c **** }
  96              		.loc 1 49 1 is_stmt 0 view .LVU17
  97 000c 7047     		bx	lr
  98              		.cfi_endproc
  99              	.LFE151:
 101              		.section	.rodata.FaultCommand_WriteTextHelp.str1.4,"aMS",%progbits,1
 102              		.align	2
 103              	.LC0:
 104 0000 0D0A5B63 		.ascii	"\015\012[cmd] help\015\012\000"
 104      6D645D20 
 104      68656C70 
 104      0D0A00
 105 000f 00       		.align	2
 106              	.LC1:
 107 0010 20206865 		.ascii	"  help\015\012\000"
 107      6C700D0A 
 107      00
 108 0019 000000   		.align	2
 109              	.LC2:
 110 001c 20207374 		.ascii	"  status\015\012\000"
 110      61747573 
 110      0D0A00
 111 0027 00       		.align	2
 112              	.LC3:
 113 0028 20206E6F 		.ascii	"  normal [mv]\015\012\000"
 113      726D616C 
 113      205B6D76 
ARM GAS  C:\Users\hh\AppData\Local\Temp\ccnvB5Va.s 			page 4


 113      5D0D0A00 
 114              		.align	2
 115              	.LC4:
 116 0038 20207365 		.ascii	"  set <cell> <mv>\015\012\000"
 116      74203C63 
 116      656C6C3E 
 116      203C6D76 
 116      3E0D0A00 
 117              		.align	2
 118              	.LC5:
 119 004c 20206F76 		.ascii	"  ov <cell> [mv] [duration_ms] [slew_mv_per_ms]\015"
 119      203C6365 
 119      6C6C3E20 
 119      5B6D765D 
 119      205B6475 
 120 007c 0A00     		.ascii	"\012\000"
 121 007e 0000     		.align	2
 122              	.LC6:
 123 0080 20207576 		.ascii	"  uv <cell> [mv] [duration_ms] [slew_mv_per_ms]\015"
 123      203C6365 
 123      6C6C3E20 
 123      5B6D765D 
 123      205B6475 
 124 00b0 0A00     		.ascii	"\012\000"
 125 00b2 0000     		.align	2
 126              	.LC7:
 127 00b4 20206469 		.ascii	"  diff <high_cell> <high_mv> <low_cell> <low_mv> [d"
 127      6666203C 
 127      68696768 
 127      5F63656C 
 127      6C3E203C 
 128 00e7 75726174 		.ascii	"uration_ms] [slew_mv_per_ms]\015\012\000"
 128      696F6E5F 
 128      6D735D20 
 128      5B736C65 
 128      775F6D76 
 129 0106 0000     		.align	2
 130              	.LC8:
 131 0108 20207761 		.ascii	"  wave status\015\012\000"
 131      76652073 
 131      74617475 
 131      730D0A00 
 132              		.align	2
 133              	.LC9:
 134 0118 20207761 		.ascii	"  wave stop\015\012\000"
 134      76652073 
 134      746F700D 
 134      0A00
 135 0126 0000     		.align	2
 136              	.LC10:
 137 0128 20207761 		.ascii	"  wave square <cell> <low_mv> <high_mv> <period_ms>"
 137      76652073 
 137      71756172 
 137      65203C63 
 137      656C6C3E 
 138 015b 0D0A00   		.ascii	"\015\012\000"
 139 015e 0000     		.align	2
ARM GAS  C:\Users\hh\AppData\Local\Temp\ccnvB5Va.s 			page 5


 140              	.LC11:
 141 0160 20207761 		.ascii	"  wave sine <cell> <offset_mv> <amplitude_mv> <peri"
 141      76652073 
 141      696E6520 
 141      3C63656C 
 141      6C3E203C 
 142 0193 6F645F6D 		.ascii	"od_ms>\015\012\000"
 142      733E0D0A 
 142      00
 143              		.align	2
 144              	.LC12:
 145 019c 20207761 		.ascii	"  wave sine all <offset_mv> <amplitude_mv> <period_"
 145      76652073 
 145      696E6520 
 145      616C6C20 
 145      3C6F6666 
 146 01cf 6D733E0D 		.ascii	"ms>\015\012\000"
 146      0A00
 147 01d5 000000   		.align	2
 148              	.LC13:
 149 01d8 20206361 		.ascii	"  cal status\015\012\000"
 149      6C207374 
 149      61747573 
 149      0D0A00
 150 01e7 00       		.align	2
 151              	.LC14:
 152 01e8 20206361 		.ascii	"  cal set <cell> <offset_mv>\015\012\000"
 152      6C207365 
 152      74203C63 
 152      656C6C3E 
 152      203C6F66 
 153 0207 00       		.align	2
 154              	.LC15:
 155 0208 20206361 		.ascii	"  cal trim <cell> <target_mv> <measured_mv>\015\012"
 155      6C207472 
 155      696D203C 
 155      63656C6C 
 155      3E203C74 
 156 0235 00       		.ascii	"\000"
 157 0236 0000     		.align	2
 158              	.LC16:
 159 0238 20206361 		.ascii	"  cal clear [cell]\015\012\000"
 159      6C20636C 
 159      65617220 
 159      5B63656C 
 159      6C5D0D0A 
 160 024d 000000   		.align	2
 161              	.LC17:
 162 0250 20207465 		.ascii	"  test static <mv>\015\012\000"
 162      73742073 
 162      74617469 
 162      63203C6D 
 162      763E0D0A 
 163 0265 000000   		.align	2
 164              	.LC18:
 165 0268 20207465 		.ascii	"  test slew <cell> <low_mv> <high_mv> <period_ms>\015"
 165      73742073 
ARM GAS  C:\Users\hh\AppData\Local\Temp\ccnvB5Va.s 			page 6


 165      6C657720 
 165      3C63656C 
 165      6C3E203C 
 166 029a 0A00     		.ascii	"\012\000"
 167              		.align	2
 168              	.LC19:
 169 029c 20206361 		.ascii	"  can status\015\012\000"
 169      6E207374 
 169      61747573 
 169      0D0A00
 170 02ab 00       		.align	2
 171              	.LC20:
 172 02ac 20206361 		.ascii	"  can send <std_id_hex> <len> [byte_hex ...]\015\012"
 172      6E207365 
 172      6E64203C 
 172      7374645F 
 172      69645F68 
 173 02da 00       		.ascii	"\000"
 174 02db 00       		.align	2
 175              	.LC21:
 176 02dc 20206C6F 		.ascii	"  log status\015\012\000"
 176      67207374 
 176      61747573 
 176      0D0A00
 177 02eb 00       		.align	2
 178              	.LC22:
 179 02ec 20206C6F 		.ascii	"  log clear\015\012\000"
 179      6720636C 
 179      6561720D 
 179      0A00
 180 02fa 0000     		.align	2
 181              	.LC23:
 182 02fc 20207361 		.ascii	"  safe status\015\012\000"
 182      66652073 
 182      74617475 
 182      730D0A00 
 183              		.align	2
 184              	.LC24:
 185 030c 20207361 		.ascii	"  safe stop [safe_mv]\015\012\000"
 185      66652073 
 185      746F7020 
 185      5B736166 
 185      655F6D76 
 186              		.align	2
 187              	.LC25:
 188 0324 20207361 		.ascii	"  safe release\015\012\000"
 188      66652072 
 188      656C6561 
 188      73650D0A 
 188      00
 189 0335 000000   		.align	2
 190              	.LC26:
 191 0338 2020656D 		.ascii	"  emergency stop [safe_mv]\015\012\000"
 191      65726765 
 191      6E637920 
 191      73746F70 
 191      205B7361 
ARM GAS  C:\Users\hh\AppData\Local\Temp\ccnvB5Va.s 			page 7


 192 0355 000000   		.align	2
 193              	.LC27:
 194 0358 20207372 		.ascii	"  sram status\015\012\000"
 194      616D2073 
 194      74617475 
 194      730D0A00 
 195              		.align	2
 196              	.LC28:
 197 0368 20207372 		.ascii	"  sram test [bytes]\015\012\000"
 197      616D2074 
 197      65737420 
 197      5B627974 
 197      65735D0D 
 198 037e 0000     		.align	2
 199              	.LC29:
 200 0380 2020636C 		.ascii	"  clear [cell]\015\012\000"
 200      65617220 
 200      5B63656C 
 200      6C5D0D0A 
 200      00
 201 0391 000000   		.align	2
 202              	.LC30:
 203 0394 20204A53 		.ascii	"  JSON examples: {\"cmd\":\"status\"}, {\"cmd\":\"c"
 203      4F4E2065 
 203      78616D70 
 203      6C65733A 
 203      207B2263 
 204 03c0 616C222C 		.ascii	"al\",\"action\":\"trim\",\"cell\":1,\"target_mv\":2"
 204      22616374 
 204      696F6E22 
 204      3A227472 
 204      696D222C 
 205 03ea 3530302C 		.ascii	"500,\"measured_mv\":2485}\015\012\000"
 205      226D6561 
 205      73757265 
 205      645F6D76 
 205      223A3234 
 206              		.section	.text.FaultCommand_WriteTextHelp,"ax",%progbits
 207              		.align	1
 208              		.syntax unified
 209              		.thumb
 210              		.thumb_func
 212              	FaultCommand_WriteTextHelp:
 213              	.LVL6:
 214              	.LFB152:
  50:App/Src/fault_command.c **** 
  51:App/Src/fault_command.c **** static void FaultCommand_WriteTextHelp(FaultCommand_WriteFn write, void *context)
  52:App/Src/fault_command.c **** {
 215              		.loc 1 52 1 is_stmt 1 view -0
 216              		.cfi_startproc
 217              		@ args = 0, pretend = 0, frame = 0
 218              		@ frame_needed = 0, uses_anonymous_args = 0
 219              		.loc 1 52 1 is_stmt 0 view .LVU19
 220 0000 38B5     		push	{r3, r4, r5, lr}
 221              	.LCFI2:
 222              		.cfi_def_cfa_offset 16
 223              		.cfi_offset 3, -16
ARM GAS  C:\Users\hh\AppData\Local\Temp\ccnvB5Va.s 			page 8


 224              		.cfi_offset 4, -12
 225              		.cfi_offset 5, -8
 226              		.cfi_offset 14, -4
 227 0002 0446     		mov	r4, r0
 228 0004 0D46     		mov	r5, r1
  53:App/Src/fault_command.c ****   FaultCommand_Write(write, context, "\r\n[cmd] help\r\n");
 229              		.loc 1 53 3 is_stmt 1 view .LVU20
 230 0006 4D4A     		ldr	r2, .L13
 231 0008 FFF7FEFF 		bl	FaultCommand_Write
 232              	.LVL7:
  54:App/Src/fault_command.c ****   FaultCommand_Write(write, context, "  help\r\n");
 233              		.loc 1 54 3 view .LVU21
 234 000c 4C4A     		ldr	r2, .L13+4
 235 000e 2946     		mov	r1, r5
 236 0010 2046     		mov	r0, r4
 237 0012 FFF7FEFF 		bl	FaultCommand_Write
 238              	.LVL8:
  55:App/Src/fault_command.c ****   FaultCommand_Write(write, context, "  status\r\n");
 239              		.loc 1 55 3 view .LVU22
 240 0016 4B4A     		ldr	r2, .L13+8
 241 0018 2946     		mov	r1, r5
 242 001a 2046     		mov	r0, r4
 243 001c FFF7FEFF 		bl	FaultCommand_Write
 244              	.LVL9:
  56:App/Src/fault_command.c ****   FaultCommand_Write(write, context, "  normal [mv]\r\n");
 245              		.loc 1 56 3 view .LVU23
 246 0020 494A     		ldr	r2, .L13+12
 247 0022 2946     		mov	r1, r5
 248 0024 2046     		mov	r0, r4
 249 0026 FFF7FEFF 		bl	FaultCommand_Write
 250              	.LVL10:
  57:App/Src/fault_command.c ****   FaultCommand_Write(write, context, "  set <cell> <mv>\r\n");
 251              		.loc 1 57 3 view .LVU24
 252 002a 484A     		ldr	r2, .L13+16
 253 002c 2946     		mov	r1, r5
 254 002e 2046     		mov	r0, r4
 255 0030 FFF7FEFF 		bl	FaultCommand_Write
 256              	.LVL11:
  58:App/Src/fault_command.c ****   FaultCommand_Write(write, context, "  ov <cell> [mv] [duration_ms] [slew_mv_per_ms]\r\n");
 257              		.loc 1 58 3 view .LVU25
 258 0034 464A     		ldr	r2, .L13+20
 259 0036 2946     		mov	r1, r5
 260 0038 2046     		mov	r0, r4
 261 003a FFF7FEFF 		bl	FaultCommand_Write
 262              	.LVL12:
  59:App/Src/fault_command.c ****   FaultCommand_Write(write, context, "  uv <cell> [mv] [duration_ms] [slew_mv_per_ms]\r\n");
 263              		.loc 1 59 3 view .LVU26
 264 003e 454A     		ldr	r2, .L13+24
 265 0040 2946     		mov	r1, r5
 266 0042 2046     		mov	r0, r4
 267 0044 FFF7FEFF 		bl	FaultCommand_Write
 268              	.LVL13:
  60:App/Src/fault_command.c ****   FaultCommand_Write(write, context, "  diff <high_cell> <high_mv> <low_cell> <low_mv> [duration_ms
 269              		.loc 1 60 3 view .LVU27
 270 0048 434A     		ldr	r2, .L13+28
 271 004a 2946     		mov	r1, r5
 272 004c 2046     		mov	r0, r4
ARM GAS  C:\Users\hh\AppData\Local\Temp\ccnvB5Va.s 			page 9


 273 004e FFF7FEFF 		bl	FaultCommand_Write
 274              	.LVL14:
  61:App/Src/fault_command.c ****   FaultCommand_Write(write, context, "  wave status\r\n");
 275              		.loc 1 61 3 view .LVU28
 276 0052 424A     		ldr	r2, .L13+32
 277 0054 2946     		mov	r1, r5
 278 0056 2046     		mov	r0, r4
 279 0058 FFF7FEFF 		bl	FaultCommand_Write
 280              	.LVL15:
  62:App/Src/fault_command.c ****   FaultCommand_Write(write, context, "  wave stop\r\n");
 281              		.loc 1 62 3 view .LVU29
 282 005c 404A     		ldr	r2, .L13+36
 283 005e 2946     		mov	r1, r5
 284 0060 2046     		mov	r0, r4
 285 0062 FFF7FEFF 		bl	FaultCommand_Write
 286              	.LVL16:
  63:App/Src/fault_command.c ****   FaultCommand_Write(write, context, "  wave square <cell> <low_mv> <high_mv> <period_ms>\r\n");
 287              		.loc 1 63 3 view .LVU30
 288 0066 3F4A     		ldr	r2, .L13+40
 289 0068 2946     		mov	r1, r5
 290 006a 2046     		mov	r0, r4
 291 006c FFF7FEFF 		bl	FaultCommand_Write
 292              	.LVL17:
  64:App/Src/fault_command.c ****   FaultCommand_Write(write, context, "  wave sine <cell> <offset_mv> <amplitude_mv> <period_ms>\r\n
 293              		.loc 1 64 3 view .LVU31
 294 0070 3D4A     		ldr	r2, .L13+44
 295 0072 2946     		mov	r1, r5
 296 0074 2046     		mov	r0, r4
 297 0076 FFF7FEFF 		bl	FaultCommand_Write
 298              	.LVL18:
  65:App/Src/fault_command.c ****   FaultCommand_Write(write, context, "  wave sine all <offset_mv> <amplitude_mv> <period_ms>\r\n");
 299              		.loc 1 65 3 view .LVU32
 300 007a 3C4A     		ldr	r2, .L13+48
 301 007c 2946     		mov	r1, r5
 302 007e 2046     		mov	r0, r4
 303 0080 FFF7FEFF 		bl	FaultCommand_Write
 304              	.LVL19:
  66:App/Src/fault_command.c ****   FaultCommand_Write(write, context, "  cal status\r\n");
 305              		.loc 1 66 3 view .LVU33
 306 0084 3A4A     		ldr	r2, .L13+52
 307 0086 2946     		mov	r1, r5
 308 0088 2046     		mov	r0, r4
 309 008a FFF7FEFF 		bl	FaultCommand_Write
 310              	.LVL20:
  67:App/Src/fault_command.c ****   FaultCommand_Write(write, context, "  cal set <cell> <offset_mv>\r\n");
 311              		.loc 1 67 3 view .LVU34
 312 008e 394A     		ldr	r2, .L13+56
 313 0090 2946     		mov	r1, r5
 314 0092 2046     		mov	r0, r4
 315 0094 FFF7FEFF 		bl	FaultCommand_Write
 316              	.LVL21:
  68:App/Src/fault_command.c ****   FaultCommand_Write(write, context, "  cal trim <cell> <target_mv> <measured_mv>\r\n");
 317              		.loc 1 68 3 view .LVU35
 318 0098 374A     		ldr	r2, .L13+60
 319 009a 2946     		mov	r1, r5
 320 009c 2046     		mov	r0, r4
 321 009e FFF7FEFF 		bl	FaultCommand_Write
ARM GAS  C:\Users\hh\AppData\Local\Temp\ccnvB5Va.s 			page 10


 322              	.LVL22:
  69:App/Src/fault_command.c ****   FaultCommand_Write(write, context, "  cal clear [cell]\r\n");
 323              		.loc 1 69 3 view .LVU36
 324 00a2 364A     		ldr	r2, .L13+64
 325 00a4 2946     		mov	r1, r5
 326 00a6 2046     		mov	r0, r4
 327 00a8 FFF7FEFF 		bl	FaultCommand_Write
 328              	.LVL23:
  70:App/Src/fault_command.c ****   FaultCommand_Write(write, context, "  test static <mv>\r\n");
 329              		.loc 1 70 3 view .LVU37
 330 00ac 344A     		ldr	r2, .L13+68
 331 00ae 2946     		mov	r1, r5
 332 00b0 2046     		mov	r0, r4
 333 00b2 FFF7FEFF 		bl	FaultCommand_Write
 334              	.LVL24:
  71:App/Src/fault_command.c ****   FaultCommand_Write(write, context, "  test slew <cell> <low_mv> <high_mv> <period_ms>\r\n");
 335              		.loc 1 71 3 view .LVU38
 336 00b6 334A     		ldr	r2, .L13+72
 337 00b8 2946     		mov	r1, r5
 338 00ba 2046     		mov	r0, r4
 339 00bc FFF7FEFF 		bl	FaultCommand_Write
 340              	.LVL25:
  72:App/Src/fault_command.c ****   FaultCommand_Write(write, context, "  can status\r\n");
 341              		.loc 1 72 3 view .LVU39
 342 00c0 314A     		ldr	r2, .L13+76
 343 00c2 2946     		mov	r1, r5
 344 00c4 2046     		mov	r0, r4
 345 00c6 FFF7FEFF 		bl	FaultCommand_Write
 346              	.LVL26:
  73:App/Src/fault_command.c ****   FaultCommand_Write(write, context, "  can send <std_id_hex> <len> [byte_hex ...]\r\n");
 347              		.loc 1 73 3 view .LVU40
 348 00ca 304A     		ldr	r2, .L13+80
 349 00cc 2946     		mov	r1, r5
 350 00ce 2046     		mov	r0, r4
 351 00d0 FFF7FEFF 		bl	FaultCommand_Write
 352              	.LVL27:
  74:App/Src/fault_command.c ****   FaultCommand_Write(write, context, "  log status\r\n");
 353              		.loc 1 74 3 view .LVU41
 354 00d4 2E4A     		ldr	r2, .L13+84
 355 00d6 2946     		mov	r1, r5
 356 00d8 2046     		mov	r0, r4
 357 00da FFF7FEFF 		bl	FaultCommand_Write
 358              	.LVL28:
  75:App/Src/fault_command.c ****   FaultCommand_Write(write, context, "  log clear\r\n");
 359              		.loc 1 75 3 view .LVU42
 360 00de 2D4A     		ldr	r2, .L13+88
 361 00e0 2946     		mov	r1, r5
 362 00e2 2046     		mov	r0, r4
 363 00e4 FFF7FEFF 		bl	FaultCommand_Write
 364              	.LVL29:
  76:App/Src/fault_command.c ****   FaultCommand_Write(write, context, "  safe status\r\n");
 365              		.loc 1 76 3 view .LVU43
 366 00e8 2B4A     		ldr	r2, .L13+92
 367 00ea 2946     		mov	r1, r5
 368 00ec 2046     		mov	r0, r4
 369 00ee FFF7FEFF 		bl	FaultCommand_Write
 370              	.LVL30:
ARM GAS  C:\Users\hh\AppData\Local\Temp\ccnvB5Va.s 			page 11


  77:App/Src/fault_command.c ****   FaultCommand_Write(write, context, "  safe stop [safe_mv]\r\n");
 371              		.loc 1 77 3 view .LVU44
 372 00f2 2A4A     		ldr	r2, .L13+96
 373 00f4 2946     		mov	r1, r5
 374 00f6 2046     		mov	r0, r4
 375 00f8 FFF7FEFF 		bl	FaultCommand_Write
 376              	.LVL31:
  78:App/Src/fault_command.c ****   FaultCommand_Write(write, context, "  safe release\r\n");
 377              		.loc 1 78 3 view .LVU45
 378 00fc 284A     		ldr	r2, .L13+100
 379 00fe 2946     		mov	r1, r5
 380 0100 2046     		mov	r0, r4
 381 0102 FFF7FEFF 		bl	FaultCommand_Write
 382              	.LVL32:
  79:App/Src/fault_command.c ****   FaultCommand_Write(write, context, "  emergency stop [safe_mv]\r\n");
 383              		.loc 1 79 3 view .LVU46
 384 0106 274A     		ldr	r2, .L13+104
 385 0108 2946     		mov	r1, r5
 386 010a 2046     		mov	r0, r4
 387 010c FFF7FEFF 		bl	FaultCommand_Write
 388              	.LVL33:
  80:App/Src/fault_command.c ****   FaultCommand_Write(write, context, "  sram status\r\n");
 389              		.loc 1 80 3 view .LVU47
 390 0110 254A     		ldr	r2, .L13+108
 391 0112 2946     		mov	r1, r5
 392 0114 2046     		mov	r0, r4
 393 0116 FFF7FEFF 		bl	FaultCommand_Write
 394              	.LVL34:
  81:App/Src/fault_command.c ****   FaultCommand_Write(write, context, "  sram test [bytes]\r\n");
 395              		.loc 1 81 3 view .LVU48
 396 011a 244A     		ldr	r2, .L13+112
 397 011c 2946     		mov	r1, r5
 398 011e 2046     		mov	r0, r4
 399 0120 FFF7FEFF 		bl	FaultCommand_Write
 400              	.LVL35:
  82:App/Src/fault_command.c ****   FaultCommand_Write(write, context, "  clear [cell]\r\n");
 401              		.loc 1 82 3 view .LVU49
 402 0124 224A     		ldr	r2, .L13+116
 403 0126 2946     		mov	r1, r5
 404 0128 2046     		mov	r0, r4
 405 012a FFF7FEFF 		bl	FaultCommand_Write
 406              	.LVL36:
  83:App/Src/fault_command.c ****   FaultCommand_Write(write, context, "  JSON examples: {\"cmd\":\"status\"}, {\"cmd\":\"cal\",\"act
 407              		.loc 1 83 3 view .LVU50
 408 012e 214A     		ldr	r2, .L13+120
 409 0130 2946     		mov	r1, r5
 410 0132 2046     		mov	r0, r4
 411 0134 FFF7FEFF 		bl	FaultCommand_Write
 412              	.LVL37:
  84:App/Src/fault_command.c **** }
 413              		.loc 1 84 1 is_stmt 0 view .LVU51
 414 0138 38BD     		pop	{r3, r4, r5, pc}
 415              	.LVL38:
 416              	.L14:
 417              		.loc 1 84 1 view .LVU52
 418 013a 00BF     		.align	2
 419              	.L13:
ARM GAS  C:\Users\hh\AppData\Local\Temp\ccnvB5Va.s 			page 12


 420 013c 00000000 		.word	.LC0
 421 0140 10000000 		.word	.LC1
 422 0144 1C000000 		.word	.LC2
 423 0148 28000000 		.word	.LC3
 424 014c 38000000 		.word	.LC4
 425 0150 4C000000 		.word	.LC5
 426 0154 80000000 		.word	.LC6
 427 0158 B4000000 		.word	.LC7
 428 015c 08010000 		.word	.LC8
 429 0160 18010000 		.word	.LC9
 430 0164 28010000 		.word	.LC10
 431 0168 60010000 		.word	.LC11
 432 016c 9C010000 		.word	.LC12
 433 0170 D8010000 		.word	.LC13
 434 0174 E8010000 		.word	.LC14
 435 0178 08020000 		.word	.LC15
 436 017c 38020000 		.word	.LC16
 437 0180 50020000 		.word	.LC17
 438 0184 68020000 		.word	.LC18
 439 0188 9C020000 		.word	.LC19
 440 018c AC020000 		.word	.LC20
 441 0190 DC020000 		.word	.LC21
 442 0194 EC020000 		.word	.LC22
 443 0198 FC020000 		.word	.LC23
 444 019c 0C030000 		.word	.LC24
 445 01a0 24030000 		.word	.LC25
 446 01a4 38030000 		.word	.LC26
 447 01a8 58030000 		.word	.LC27
 448 01ac 68030000 		.word	.LC28
 449 01b0 80030000 		.word	.LC29
 450 01b4 94030000 		.word	.LC30
 451              		.cfi_endproc
 452              	.LFE152:
 454              		.section	.text.FaultCommand_RunCalibrationTrim,"ax",%progbits
 455              		.align	1
 456              		.syntax unified
 457              		.thumb
 458              		.thumb_func
 460              	FaultCommand_RunCalibrationTrim:
 461              	.LVL39:
 462              	.LFB169:
  85:App/Src/fault_command.c **** 
  86:App/Src/fault_command.c **** static void FaultCommand_WriteTextWaveStatus(FaultCommand_WriteFn write, void *context)
  87:App/Src/fault_command.c **** {
  88:App/Src/fault_command.c ****   WaveformGen_Status status = WaveformGen_GetStatus();
  89:App/Src/fault_command.c **** 
  90:App/Src/fault_command.c ****   FaultCommand_WriteFormat(write,
  91:App/Src/fault_command.c ****                            context,
  92:App/Src/fault_command.c ****                            "[wave] active=%u type=%s cell=%u period=%lums last=%umV\r\n",
  93:App/Src/fault_command.c ****                            status.active,
  94:App/Src/fault_command.c ****                            WaveformGen_GetTypeName(status.type),
  95:App/Src/fault_command.c ****                            status.cell,
  96:App/Src/fault_command.c ****                            (unsigned long)status.periodMs,
  97:App/Src/fault_command.c ****                            status.lastMillivolts);
  98:App/Src/fault_command.c **** }
  99:App/Src/fault_command.c **** 
 100:App/Src/fault_command.c **** static void FaultCommand_WriteTextCanStatus(FaultCommand_WriteFn write, void *context)
ARM GAS  C:\Users\hh\AppData\Local\Temp\ccnvB5Va.s 			page 13


 101:App/Src/fault_command.c **** {
 102:App/Src/fault_command.c ****   BspCan_Status status = BspCan_GetStatus();
 103:App/Src/fault_command.c **** 
 104:App/Src/fault_command.c ****   FaultCommand_WriteFormat(write,
 105:App/Src/fault_command.c ****                            context,
 106:App/Src/fault_command.c ****                            "\r\n[can] started=%u tx=%lu rx=%lu err=%lu last_id=0x%lX last_len=%u la
 107:App/Src/fault_command.c ****                            status.started,
 108:App/Src/fault_command.c ****                            (unsigned long)status.txCount,
 109:App/Src/fault_command.c ****                            (unsigned long)status.rxCount,
 110:App/Src/fault_command.c ****                            (unsigned long)status.errorCount,
 111:App/Src/fault_command.c ****                            (unsigned long)status.lastRxId,
 112:App/Src/fault_command.c ****                            status.lastRxLength,
 113:App/Src/fault_command.c ****                            (unsigned long)status.lastRxTick);
 114:App/Src/fault_command.c **** 
 115:App/Src/fault_command.c ****   for (uint8_t index = 0U; index < status.lastRxLength; index++)
 116:App/Src/fault_command.c ****   {
 117:App/Src/fault_command.c ****     FaultCommand_WriteFormat(write,
 118:App/Src/fault_command.c ****                              context,
 119:App/Src/fault_command.c ****                              "%02X%s",
 120:App/Src/fault_command.c ****                              status.lastRxData[index],
 121:App/Src/fault_command.c ****                              (index + 1U == status.lastRxLength) ? "" : " ");
 122:App/Src/fault_command.c ****   }
 123:App/Src/fault_command.c ****   FaultCommand_Write(write, context, "\r\n");
 124:App/Src/fault_command.c **** }
 125:App/Src/fault_command.c **** 
 126:App/Src/fault_command.c **** static void FaultCommand_WriteTextBmsResponseLog(FaultCommand_WriteFn write, void *context)
 127:App/Src/fault_command.c **** {
 128:App/Src/fault_command.c ****   BmsResponseLog_Status status = BmsResponseLog_GetStatus();
 129:App/Src/fault_command.c **** 
 130:App/Src/fault_command.c ****   FaultCommand_WriteFormat(write,
 131:App/Src/fault_command.c ****                            context,
 132:App/Src/fault_command.c ****                            "\r\n[log] armed=%u trigger=%s t1=%lums primary=C%02u/%umV secondary=C%0
 133:App/Src/fault_command.c ****                            status.armed,
 134:App/Src/fault_command.c ****                            BmsResponseLog_GetTriggerName(status.triggerType),
 135:App/Src/fault_command.c ****                            (unsigned long)status.triggerTick,
 136:App/Src/fault_command.c ****                            status.primaryCell,
 137:App/Src/fault_command.c ****                            status.primaryMillivolts,
 138:App/Src/fault_command.c ****                            status.secondaryCell,
 139:App/Src/fault_command.c ****                            status.secondaryMillivolts,
 140:App/Src/fault_command.c ****                            (unsigned long)status.canFramesAfterTrigger,
 141:App/Src/fault_command.c ****                            status.responseCaptured);
 142:App/Src/fault_command.c **** 
 143:App/Src/fault_command.c ****   if (status.responseCaptured != 0U)
 144:App/Src/fault_command.c ****   {
 145:App/Src/fault_command.c ****     FaultCommand_WriteFormat(write,
 146:App/Src/fault_command.c ****                              context,
 147:App/Src/fault_command.c ****                              " t2=%lums delay=%lums id=0x%lX ext=%u len=%u data=",
 148:App/Src/fault_command.c ****                              (unsigned long)status.responseTick,
 149:App/Src/fault_command.c ****                              (unsigned long)status.responseDelayMs,
 150:App/Src/fault_command.c ****                              (unsigned long)status.responseCanId,
 151:App/Src/fault_command.c ****                              status.responseCanIsExtended,
 152:App/Src/fault_command.c ****                              status.responseCanLength);
 153:App/Src/fault_command.c ****     for (uint8_t index = 0U; index < status.responseCanLength; index++)
 154:App/Src/fault_command.c ****     {
 155:App/Src/fault_command.c ****       FaultCommand_WriteFormat(write,
 156:App/Src/fault_command.c ****                                context,
 157:App/Src/fault_command.c ****                                "%02X%s",
ARM GAS  C:\Users\hh\AppData\Local\Temp\ccnvB5Va.s 			page 14


 158:App/Src/fault_command.c ****                                status.responseCanData[index],
 159:App/Src/fault_command.c ****                                (index + 1U == status.responseCanLength) ? "" : " ");
 160:App/Src/fault_command.c ****     }
 161:App/Src/fault_command.c ****   }
 162:App/Src/fault_command.c **** 
 163:App/Src/fault_command.c ****   FaultCommand_Write(write, context, "\r\n");
 164:App/Src/fault_command.c **** }
 165:App/Src/fault_command.c **** 
 166:App/Src/fault_command.c **** static void FaultCommand_WriteTextSafetyStatus(FaultCommand_WriteFn write, void *context)
 167:App/Src/fault_command.c **** {
 168:App/Src/fault_command.c ****   DacSafety_Status status = DacSafety_GetStatus();
 169:App/Src/fault_command.c **** 
 170:App/Src/fault_command.c ****   FaultCommand_WriteFormat(write,
 171:App/Src/fault_command.c ****                            context,
 172:App/Src/fault_command.c ****                            "\r\n[safe] emergency=%u safe_mv=%u alarm_pin=%u alarm_active=%u alarm_l
 173:App/Src/fault_command.c ****                            status.emergencyActive,
 174:App/Src/fault_command.c ****                            status.safeMillivolts,
 175:App/Src/fault_command.c ****                            status.alarmPinState,
 176:App/Src/fault_command.c ****                            status.alarmActive,
 177:App/Src/fault_command.c ****                            status.alarmLatched,
 178:App/Src/fault_command.c ****                            (unsigned long)status.alarmCount,
 179:App/Src/fault_command.c ****                            (unsigned long)status.lastAlarmTick);
 180:App/Src/fault_command.c **** }
 181:App/Src/fault_command.c **** 
 182:App/Src/fault_command.c **** static void FaultCommand_WriteTextSramStatus(FaultCommand_WriteFn write, void *context)
 183:App/Src/fault_command.c **** {
 184:App/Src/fault_command.c ****   BspSram_Status status = BspSram_GetStatus();
 185:App/Src/fault_command.c **** 
 186:App/Src/fault_command.c ****   FaultCommand_WriteFormat(write,
 187:App/Src/fault_command.c ****                            context,
 188:App/Src/fault_command.c ****                            "\r\n[sram] base=0x%08lX size=%lubytes bus=%u-bit last=%s test_bytes=%lu
 189:App/Src/fault_command.c ****                            (unsigned long)status.baseAddress,
 190:App/Src/fault_command.c ****                            (unsigned long)status.sizeBytes,
 191:App/Src/fault_command.c ****                            status.busWidthBits,
 192:App/Src/fault_command.c ****                            BspSram_GetResultName(status.lastResult),
 193:App/Src/fault_command.c ****                            (unsigned long)status.lastTestBytes,
 194:App/Src/fault_command.c ****                            (unsigned long)status.passCount,
 195:App/Src/fault_command.c ****                            (unsigned long)status.failCount,
 196:App/Src/fault_command.c ****                            (unsigned long)status.lastTestTick);
 197:App/Src/fault_command.c **** 
 198:App/Src/fault_command.c ****   if (status.lastResult == HAL_ERROR)
 199:App/Src/fault_command.c ****   {
 200:App/Src/fault_command.c ****     FaultCommand_WriteFormat(write,
 201:App/Src/fault_command.c ****                              context,
 202:App/Src/fault_command.c ****                              " fail_addr=0x%08lX expected=0x%04X actual=0x%04X",
 203:App/Src/fault_command.c ****                              (unsigned long)status.lastFailedAddress,
 204:App/Src/fault_command.c ****                              status.expected,
 205:App/Src/fault_command.c ****                              status.actual);
 206:App/Src/fault_command.c ****   }
 207:App/Src/fault_command.c **** 
 208:App/Src/fault_command.c ****   FaultCommand_Write(write, context, "\r\n");
 209:App/Src/fault_command.c **** }
 210:App/Src/fault_command.c **** 
 211:App/Src/fault_command.c **** static void FaultCommand_WriteTextStatus(FaultCommand_WriteFn write, void *context)
 212:App/Src/fault_command.c **** {
 213:App/Src/fault_command.c ****   DacSafety_Status safety = DacSafety_GetStatus();
 214:App/Src/fault_command.c **** 
ARM GAS  C:\Users\hh\AppData\Local\Temp\ccnvB5Va.s 			page 15


 215:App/Src/fault_command.c ****   FaultCommand_WriteFormat(write, context, "\r\n[status] active_faults=%u\r\n",
 216:App/Src/fault_command.c ****                            VoltageSim_GetActiveFaultCount());
 217:App/Src/fault_command.c ****   FaultCommand_WriteFormat(write,
 218:App/Src/fault_command.c ****                            context,
 219:App/Src/fault_command.c ****                            "  safety emergency=%u safe=%umV alarm_active=%u alarm_latched=%u alarm_
 220:App/Src/fault_command.c ****                            safety.emergencyActive,
 221:App/Src/fault_command.c ****                            safety.safeMillivolts,
 222:App/Src/fault_command.c ****                            safety.alarmActive,
 223:App/Src/fault_command.c ****                            safety.alarmLatched,
 224:App/Src/fault_command.c ****                            (unsigned long)safety.alarmCount);
 225:App/Src/fault_command.c **** 
 226:App/Src/fault_command.c ****   for (uint8_t cell = 1U; cell <= VOLTAGE_SIM_CELL_COUNT; cell++)
 227:App/Src/fault_command.c ****   {
 228:App/Src/fault_command.c ****     VoltageSim_CellFaultInfo info = VoltageSim_GetCellFaultInfo(cell);
 229:App/Src/fault_command.c **** 
 230:App/Src/fault_command.c ****     FaultCommand_WriteFormat(write, context, "  C%02u=%umV",
 231:App/Src/fault_command.c ****                              cell,
 232:App/Src/fault_command.c ****                              VoltageSim_GetLastCellVoltageMv(cell));
 233:App/Src/fault_command.c ****     if (VoltageSim_GetCellCalibrationOffsetMv(cell) != 0)
 234:App/Src/fault_command.c ****     {
 235:App/Src/fault_command.c ****       FaultCommand_WriteFormat(write,
 236:App/Src/fault_command.c ****                                context,
 237:App/Src/fault_command.c ****                                " cal=%dmV",
 238:App/Src/fault_command.c ****                                (int)VoltageSim_GetCellCalibrationOffsetMv(cell));
 239:App/Src/fault_command.c ****     }
 240:App/Src/fault_command.c ****     if (info.type != VOLTAGE_SIM_FAULT_NONE)
 241:App/Src/fault_command.c ****     {
 242:App/Src/fault_command.c ****       FaultCommand_WriteFormat(write,
 243:App/Src/fault_command.c ****                                context,
 244:App/Src/fault_command.c ****                                " fault=%s target=%umV restore=%umV duration=%lums slew=%umV/ms",
 245:App/Src/fault_command.c ****                                VoltageSim_GetFaultTypeName(info.type),
 246:App/Src/fault_command.c ****                                info.targetMillivolts,
 247:App/Src/fault_command.c ****                                info.restoreMillivolts,
 248:App/Src/fault_command.c ****                                (unsigned long)info.durationMs,
 249:App/Src/fault_command.c ****                                info.slewRateMvPerMs);
 250:App/Src/fault_command.c ****     }
 251:App/Src/fault_command.c ****     FaultCommand_Write(write, context, "\r\n");
 252:App/Src/fault_command.c ****   }
 253:App/Src/fault_command.c **** }
 254:App/Src/fault_command.c **** 
 255:App/Src/fault_command.c **** static void FaultCommand_WriteTextCalibrationStatus(FaultCommand_WriteFn write, void *context)
 256:App/Src/fault_command.c **** {
 257:App/Src/fault_command.c ****   FaultCommand_Write(write, context, "\r\n[cal]\r\n");
 258:App/Src/fault_command.c **** 
 259:App/Src/fault_command.c ****   for (uint8_t cell = 1U; cell <= VOLTAGE_SIM_CELL_COUNT; cell++)
 260:App/Src/fault_command.c ****   {
 261:App/Src/fault_command.c ****     FaultCommand_WriteFormat(write,
 262:App/Src/fault_command.c ****                              context,
 263:App/Src/fault_command.c ****                              "  C%02u offset=%dmV\r\n",
 264:App/Src/fault_command.c ****                              cell,
 265:App/Src/fault_command.c ****                              (int)VoltageSim_GetCellCalibrationOffsetMv(cell));
 266:App/Src/fault_command.c ****   }
 267:App/Src/fault_command.c **** }
 268:App/Src/fault_command.c **** 
 269:App/Src/fault_command.c **** static void FaultCommand_WriteTextResult(FaultCommand_WriteFn write,
 270:App/Src/fault_command.c ****                                          void *context,
 271:App/Src/fault_command.c ****                                          const char *name,
ARM GAS  C:\Users\hh\AppData\Local\Temp\ccnvB5Va.s 			page 16


 272:App/Src/fault_command.c ****                                          HAL_StatusTypeDef status)
 273:App/Src/fault_command.c **** {
 274:App/Src/fault_command.c ****   FaultCommand_WriteFormat(write, context, "[cmd] %s %s\r\n",
 275:App/Src/fault_command.c ****                            name,
 276:App/Src/fault_command.c ****                            (status == HAL_OK) ? "OK" : "ERR");
 277:App/Src/fault_command.c **** }
 278:App/Src/fault_command.c **** 
 279:App/Src/fault_command.c **** static void FaultCommand_WriteJsonResult(FaultCommand_WriteFn write,
 280:App/Src/fault_command.c ****                                          void *context,
 281:App/Src/fault_command.c ****                                          const char *cmd,
 282:App/Src/fault_command.c ****                                          HAL_StatusTypeDef status)
 283:App/Src/fault_command.c **** {
 284:App/Src/fault_command.c ****   FaultCommand_WriteFormat(write, context, "{\"ok\":%s,\"cmd\":\"%s\"}\r\n",
 285:App/Src/fault_command.c ****                            (status == HAL_OK) ? "true" : "false",
 286:App/Src/fault_command.c ****                            cmd);
 287:App/Src/fault_command.c **** }
 288:App/Src/fault_command.c **** 
 289:App/Src/fault_command.c **** static void FaultCommand_WriteJsonStatus(FaultCommand_WriteFn write, void *context)
 290:App/Src/fault_command.c **** {
 291:App/Src/fault_command.c ****   WaveformGen_Status waveform = WaveformGen_GetStatus();
 292:App/Src/fault_command.c ****   DacSafety_Status safety = DacSafety_GetStatus();
 293:App/Src/fault_command.c **** 
 294:App/Src/fault_command.c ****   FaultCommand_WriteFormat(write,
 295:App/Src/fault_command.c ****                            context,
 296:App/Src/fault_command.c ****                            "{\"ok\":true,\"active_faults\":%u,\"safety\":{\"emergency\":%u,\"safe_m
 297:App/Src/fault_command.c ****                            VoltageSim_GetActiveFaultCount(),
 298:App/Src/fault_command.c ****                            safety.emergencyActive,
 299:App/Src/fault_command.c ****                            safety.safeMillivolts,
 300:App/Src/fault_command.c ****                            safety.alarmActive,
 301:App/Src/fault_command.c ****                            safety.alarmLatched,
 302:App/Src/fault_command.c ****                            (unsigned long)safety.alarmCount,
 303:App/Src/fault_command.c ****                            waveform.active,
 304:App/Src/fault_command.c ****                            WaveformGen_GetTypeName(waveform.type),
 305:App/Src/fault_command.c ****                            waveform.cell,
 306:App/Src/fault_command.c ****                            (unsigned long)waveform.periodMs,
 307:App/Src/fault_command.c ****                            waveform.lastMillivolts);
 308:App/Src/fault_command.c **** 
 309:App/Src/fault_command.c ****   for (uint8_t cell = 1U; cell <= VOLTAGE_SIM_CELL_COUNT; cell++)
 310:App/Src/fault_command.c ****   {
 311:App/Src/fault_command.c ****     VoltageSim_CellFaultInfo info = VoltageSim_GetCellFaultInfo(cell);
 312:App/Src/fault_command.c **** 
 313:App/Src/fault_command.c ****     FaultCommand_WriteFormat(write,
 314:App/Src/fault_command.c ****                              context,
 315:App/Src/fault_command.c ****                              "%s{\"cell\":%u,\"mv\":%u,\"cal_mv\":%d,\"fault\":\"%s\",\"target_mv\"
 316:App/Src/fault_command.c ****                              (cell == 1U) ? "" : ",",
 317:App/Src/fault_command.c ****                              cell,
 318:App/Src/fault_command.c ****                              VoltageSim_GetLastCellVoltageMv(cell),
 319:App/Src/fault_command.c ****                              (int)VoltageSim_GetCellCalibrationOffsetMv(cell),
 320:App/Src/fault_command.c ****                              VoltageSim_GetFaultTypeName(info.type),
 321:App/Src/fault_command.c ****                              info.targetMillivolts,
 322:App/Src/fault_command.c ****                              info.restoreMillivolts,
 323:App/Src/fault_command.c ****                              (unsigned long)info.durationMs,
 324:App/Src/fault_command.c ****                              info.slewRateMvPerMs);
 325:App/Src/fault_command.c ****   }
 326:App/Src/fault_command.c **** 
 327:App/Src/fault_command.c ****   FaultCommand_Write(write, context, "]}\r\n");
 328:App/Src/fault_command.c **** }
ARM GAS  C:\Users\hh\AppData\Local\Temp\ccnvB5Va.s 			page 17


 329:App/Src/fault_command.c **** 
 330:App/Src/fault_command.c **** static void FaultCommand_WriteJsonCanStatus(FaultCommand_WriteFn write, void *context)
 331:App/Src/fault_command.c **** {
 332:App/Src/fault_command.c ****   BspCan_Status status = BspCan_GetStatus();
 333:App/Src/fault_command.c **** 
 334:App/Src/fault_command.c ****   FaultCommand_WriteFormat(write,
 335:App/Src/fault_command.c ****                            context,
 336:App/Src/fault_command.c ****                            "{\"ok\":true,\"can\":{\"started\":%u,\"tx\":%lu,\"rx\":%lu,\"err\":%lu,
 337:App/Src/fault_command.c ****                            status.started,
 338:App/Src/fault_command.c ****                            (unsigned long)status.txCount,
 339:App/Src/fault_command.c ****                            (unsigned long)status.rxCount,
 340:App/Src/fault_command.c ****                            (unsigned long)status.errorCount,
 341:App/Src/fault_command.c ****                            (unsigned long)status.lastRxId,
 342:App/Src/fault_command.c ****                            (unsigned long)status.lastRxId,
 343:App/Src/fault_command.c ****                            status.lastRxIsExtended,
 344:App/Src/fault_command.c ****                            status.lastRxLength,
 345:App/Src/fault_command.c ****                            (unsigned long)status.lastRxTick);
 346:App/Src/fault_command.c **** 
 347:App/Src/fault_command.c ****   for (uint8_t index = 0U; index < status.lastRxLength; index++)
 348:App/Src/fault_command.c ****   {
 349:App/Src/fault_command.c ****     FaultCommand_WriteFormat(write,
 350:App/Src/fault_command.c ****                              context,
 351:App/Src/fault_command.c ****                              "%s%u",
 352:App/Src/fault_command.c ****                              (index == 0U) ? "" : ",",
 353:App/Src/fault_command.c ****                              status.lastRxData[index]);
 354:App/Src/fault_command.c ****   }
 355:App/Src/fault_command.c ****   FaultCommand_Write(write, context, "]}}\r\n");
 356:App/Src/fault_command.c **** }
 357:App/Src/fault_command.c **** 
 358:App/Src/fault_command.c **** static void FaultCommand_WriteJsonBmsResponseLog(FaultCommand_WriteFn write, void *context)
 359:App/Src/fault_command.c **** {
 360:App/Src/fault_command.c ****   BmsResponseLog_Status status = BmsResponseLog_GetStatus();
 361:App/Src/fault_command.c **** 
 362:App/Src/fault_command.c ****   FaultCommand_WriteFormat(write,
 363:App/Src/fault_command.c ****                            context,
 364:App/Src/fault_command.c ****                            "{\"ok\":true,\"log\":{\"armed\":%u,\"trigger\":\"%s\",\"trigger_tick\":
 365:App/Src/fault_command.c ****                            status.armed,
 366:App/Src/fault_command.c ****                            BmsResponseLog_GetTriggerName(status.triggerType),
 367:App/Src/fault_command.c ****                            (unsigned long)status.triggerTick,
 368:App/Src/fault_command.c ****                            status.primaryCell,
 369:App/Src/fault_command.c ****                            status.primaryMillivolts,
 370:App/Src/fault_command.c ****                            status.secondaryCell,
 371:App/Src/fault_command.c ****                            status.secondaryMillivolts,
 372:App/Src/fault_command.c ****                            (unsigned long)status.canFramesAfterTrigger,
 373:App/Src/fault_command.c ****                            status.responseCaptured,
 374:App/Src/fault_command.c ****                            (unsigned long)status.responseTick,
 375:App/Src/fault_command.c ****                            (unsigned long)status.responseDelayMs,
 376:App/Src/fault_command.c ****                            (unsigned long)status.responseCanId,
 377:App/Src/fault_command.c ****                            (unsigned long)status.responseCanId,
 378:App/Src/fault_command.c ****                            status.responseCanIsExtended,
 379:App/Src/fault_command.c ****                            status.responseCanLength);
 380:App/Src/fault_command.c **** 
 381:App/Src/fault_command.c ****   for (uint8_t index = 0U; index < status.responseCanLength; index++)
 382:App/Src/fault_command.c ****   {
 383:App/Src/fault_command.c ****     FaultCommand_WriteFormat(write,
 384:App/Src/fault_command.c ****                              context,
 385:App/Src/fault_command.c ****                              "%s%u",
ARM GAS  C:\Users\hh\AppData\Local\Temp\ccnvB5Va.s 			page 18


 386:App/Src/fault_command.c ****                              (index == 0U) ? "" : ",",
 387:App/Src/fault_command.c ****                              status.responseCanData[index]);
 388:App/Src/fault_command.c ****   }
 389:App/Src/fault_command.c ****   FaultCommand_Write(write, context, "]}}\r\n");
 390:App/Src/fault_command.c **** }
 391:App/Src/fault_command.c **** 
 392:App/Src/fault_command.c **** static void FaultCommand_WriteJsonSafetyStatus(FaultCommand_WriteFn write, void *context)
 393:App/Src/fault_command.c **** {
 394:App/Src/fault_command.c ****   DacSafety_Status status = DacSafety_GetStatus();
 395:App/Src/fault_command.c **** 
 396:App/Src/fault_command.c ****   FaultCommand_WriteFormat(write,
 397:App/Src/fault_command.c ****                            context,
 398:App/Src/fault_command.c ****                            "{\"ok\":true,\"safe\":{\"emergency\":%u,\"safe_mv\":%u,\"alarm_pin\":%u
 399:App/Src/fault_command.c ****                            status.emergencyActive,
 400:App/Src/fault_command.c ****                            status.safeMillivolts,
 401:App/Src/fault_command.c ****                            status.alarmPinState,
 402:App/Src/fault_command.c ****                            status.alarmActive,
 403:App/Src/fault_command.c ****                            status.alarmLatched,
 404:App/Src/fault_command.c ****                            (unsigned long)status.alarmCount,
 405:App/Src/fault_command.c ****                            (unsigned long)status.lastAlarmTick);
 406:App/Src/fault_command.c **** }
 407:App/Src/fault_command.c **** 
 408:App/Src/fault_command.c **** static void FaultCommand_WriteJsonSramStatus(FaultCommand_WriteFn write,
 409:App/Src/fault_command.c ****                                              void *context,
 410:App/Src/fault_command.c ****                                              HAL_StatusTypeDef commandResult)
 411:App/Src/fault_command.c **** {
 412:App/Src/fault_command.c ****   BspSram_Status status = BspSram_GetStatus();
 413:App/Src/fault_command.c **** 
 414:App/Src/fault_command.c ****   FaultCommand_WriteFormat(write,
 415:App/Src/fault_command.c ****                            context,
 416:App/Src/fault_command.c ****                            "{\"ok\":%s,\"sram\":{\"base\":%lu,\"base_hex\":\"0x%08lX\",",
 417:App/Src/fault_command.c ****                            (commandResult == HAL_OK) ? "true" : "false",
 418:App/Src/fault_command.c ****                            (unsigned long)status.baseAddress,
 419:App/Src/fault_command.c ****                            (unsigned long)status.baseAddress);
 420:App/Src/fault_command.c ****   FaultCommand_WriteFormat(write,
 421:App/Src/fault_command.c ****                            context,
 422:App/Src/fault_command.c ****                            "\"size_bytes\":%lu,\"bus_width_bits\":%u,\"last\":\"%s\",",
 423:App/Src/fault_command.c ****                            (unsigned long)status.sizeBytes,
 424:App/Src/fault_command.c ****                            status.busWidthBits,
 425:App/Src/fault_command.c ****                            BspSram_GetResultName(status.lastResult));
 426:App/Src/fault_command.c ****   FaultCommand_WriteFormat(write,
 427:App/Src/fault_command.c ****                            context,
 428:App/Src/fault_command.c ****                            "\"test_bytes\":%lu,\"pass\":%lu,\"fail\":%lu,\"tick\":%lu,",
 429:App/Src/fault_command.c ****                            (unsigned long)status.lastTestBytes,
 430:App/Src/fault_command.c ****                            (unsigned long)status.passCount,
 431:App/Src/fault_command.c ****                            (unsigned long)status.failCount,
 432:App/Src/fault_command.c ****                            (unsigned long)status.lastTestTick);
 433:App/Src/fault_command.c ****   FaultCommand_WriteFormat(write,
 434:App/Src/fault_command.c ****                            context,
 435:App/Src/fault_command.c ****                            "\"fail_addr\":%lu,\"fail_addr_hex\":\"0x%08lX\",",
 436:App/Src/fault_command.c ****                            (unsigned long)status.lastFailedAddress,
 437:App/Src/fault_command.c ****                            (unsigned long)status.lastFailedAddress);
 438:App/Src/fault_command.c ****   FaultCommand_WriteFormat(write,
 439:App/Src/fault_command.c ****                            context,
 440:App/Src/fault_command.c ****                            "\"expected\":%u,\"actual\":%u}}\r\n",
 441:App/Src/fault_command.c ****                            status.expected,
 442:App/Src/fault_command.c ****                            status.actual);
ARM GAS  C:\Users\hh\AppData\Local\Temp\ccnvB5Va.s 			page 19


 443:App/Src/fault_command.c **** }
 444:App/Src/fault_command.c **** 
 445:App/Src/fault_command.c **** static HAL_StatusTypeDef FaultCommand_RunNormal(uint16_t millivolts)
 446:App/Src/fault_command.c **** {
 447:App/Src/fault_command.c ****   if (DacSafety_IsOutputAllowed() == 0U)
 448:App/Src/fault_command.c ****   {
 449:App/Src/fault_command.c ****     return HAL_BUSY;
 450:App/Src/fault_command.c ****   }
 451:App/Src/fault_command.c **** 
 452:App/Src/fault_command.c ****   WaveformGen_Stop();
 453:App/Src/fault_command.c ****   return VoltageSim_SetAllCellsVoltageMv(millivolts);
 454:App/Src/fault_command.c **** }
 455:App/Src/fault_command.c **** 
 456:App/Src/fault_command.c **** static HAL_StatusTypeDef FaultCommand_RunSet(uint8_t cell, uint16_t millivolts)
 457:App/Src/fault_command.c **** {
 458:App/Src/fault_command.c ****   if (DacSafety_IsOutputAllowed() == 0U)
 459:App/Src/fault_command.c ****   {
 460:App/Src/fault_command.c ****     return HAL_BUSY;
 461:App/Src/fault_command.c ****   }
 462:App/Src/fault_command.c **** 
 463:App/Src/fault_command.c ****   WaveformGen_Stop();
 464:App/Src/fault_command.c ****   return VoltageSim_SetCellVoltageMv(cell, millivolts);
 465:App/Src/fault_command.c **** }
 466:App/Src/fault_command.c **** 
 467:App/Src/fault_command.c **** static HAL_StatusTypeDef FaultCommand_RunCalibrationTrim(uint8_t cell,
 468:App/Src/fault_command.c ****                                                          uint16_t targetMillivolts,
 469:App/Src/fault_command.c ****                                                          uint16_t measuredMillivolts)
 470:App/Src/fault_command.c **** {
 463              		.loc 1 470 1 is_stmt 1 view -0
 464              		.cfi_startproc
 465              		@ args = 0, pretend = 0, frame = 0
 466              		@ frame_needed = 0, uses_anonymous_args = 0
 467              		.loc 1 470 1 is_stmt 0 view .LVU54
 468 0000 70B5     		push	{r4, r5, r6, lr}
 469              	.LCFI3:
 470              		.cfi_def_cfa_offset 16
 471              		.cfi_offset 4, -16
 472              		.cfi_offset 5, -12
 473              		.cfi_offset 6, -8
 474              		.cfi_offset 14, -4
 475 0002 0646     		mov	r6, r0
 476 0004 0D46     		mov	r5, r1
 477 0006 1446     		mov	r4, r2
 471:App/Src/fault_command.c ****   int32_t offset;
 478              		.loc 1 471 3 is_stmt 1 view .LVU55
 472:App/Src/fault_command.c **** 
 473:App/Src/fault_command.c ****   offset = (int32_t)VoltageSim_GetCellCalibrationOffsetMv(cell) +
 479              		.loc 1 473 3 view .LVU56
 480              		.loc 1 473 21 is_stmt 0 view .LVU57
 481 0008 FFF7FEFF 		bl	VoltageSim_GetCellCalibrationOffsetMv
 482              	.LVL40:
 483              		.loc 1 473 65 view .LVU58
 484 000c 2946     		mov	r1, r5
 485 000e 0144     		add	r1, r1, r0
 486              		.loc 1 473 10 view .LVU59
 487 0010 091B     		subs	r1, r1, r4
 488              	.LVL41:
ARM GAS  C:\Users\hh\AppData\Local\Temp\ccnvB5Va.s 			page 20


 474:App/Src/fault_command.c ****            (int32_t)targetMillivolts -
 475:App/Src/fault_command.c ****            (int32_t)measuredMillivolts;
 476:App/Src/fault_command.c **** 
 477:App/Src/fault_command.c ****   if ((offset < -VOLTAGE_SIM_CAL_OFFSET_LIMIT_MV) ||
 489              		.loc 1 477 3 is_stmt 1 view .LVU60
 490              		.loc 1 477 51 is_stmt 0 view .LVU61
 491 0012 01F5FA73 		add	r3, r1, #500
 492              		.loc 1 477 6 view .LVU62
 493 0016 B3F57A7F 		cmp	r3, #1000
 494 001a 01D9     		bls	.L19
 478:App/Src/fault_command.c ****       (offset > VOLTAGE_SIM_CAL_OFFSET_LIMIT_MV))
 479:App/Src/fault_command.c ****   {
 480:App/Src/fault_command.c ****     return HAL_ERROR;
 495              		.loc 1 480 12 view .LVU63
 496 001c 0120     		movs	r0, #1
 497              	.LVL42:
 498              	.L16:
 481:App/Src/fault_command.c ****   }
 482:App/Src/fault_command.c **** 
 483:App/Src/fault_command.c ****   return VoltageSim_SetCellCalibrationOffsetMv(cell, (int16_t)offset);
 484:App/Src/fault_command.c **** }
 499              		.loc 1 484 1 view .LVU64
 500 001e 70BD     		pop	{r4, r5, r6, pc}
 501              	.LVL43:
 502              	.L19:
 483:App/Src/fault_command.c **** }
 503              		.loc 1 483 3 is_stmt 1 view .LVU65
 483:App/Src/fault_command.c **** }
 504              		.loc 1 483 10 is_stmt 0 view .LVU66
 505 0020 09B2     		sxth	r1, r1
 506              	.LVL44:
 483:App/Src/fault_command.c **** }
 507              		.loc 1 483 10 view .LVU67
 508 0022 3046     		mov	r0, r6
 509 0024 FFF7FEFF 		bl	VoltageSim_SetCellCalibrationOffsetMv
 510              	.LVL45:
 483:App/Src/fault_command.c **** }
 511              		.loc 1 483 10 view .LVU68
 512 0028 F9E7     		b	.L16
 513              		.cfi_endproc
 514              	.LFE169:
 516              		.section	.text.FaultCommand_RunSet,"ax",%progbits
 517              		.align	1
 518              		.syntax unified
 519              		.thumb
 520              		.thumb_func
 522              	FaultCommand_RunSet:
 523              	.LVL46:
 524              	.LFB168:
 457:App/Src/fault_command.c ****   if (DacSafety_IsOutputAllowed() == 0U)
 525              		.loc 1 457 1 is_stmt 1 view -0
 526              		.cfi_startproc
 527              		@ args = 0, pretend = 0, frame = 0
 528              		@ frame_needed = 0, uses_anonymous_args = 0
 457:App/Src/fault_command.c ****   if (DacSafety_IsOutputAllowed() == 0U)
 529              		.loc 1 457 1 is_stmt 0 view .LVU70
 530 0000 38B5     		push	{r3, r4, r5, lr}
ARM GAS  C:\Users\hh\AppData\Local\Temp\ccnvB5Va.s 			page 21


 531              	.LCFI4:
 532              		.cfi_def_cfa_offset 16
 533              		.cfi_offset 3, -16
 534              		.cfi_offset 4, -12
 535              		.cfi_offset 5, -8
 536              		.cfi_offset 14, -4
 537 0002 0546     		mov	r5, r0
 538 0004 0C46     		mov	r4, r1
 458:App/Src/fault_command.c ****   {
 539              		.loc 1 458 3 is_stmt 1 view .LVU71
 458:App/Src/fault_command.c ****   {
 540              		.loc 1 458 7 is_stmt 0 view .LVU72
 541 0006 FFF7FEFF 		bl	DacSafety_IsOutputAllowed
 542              	.LVL47:
 458:App/Src/fault_command.c ****   {
 543              		.loc 1 458 6 discriminator 1 view .LVU73
 544 000a 30B1     		cbz	r0, .L22
 463:App/Src/fault_command.c ****   return VoltageSim_SetCellVoltageMv(cell, millivolts);
 545              		.loc 1 463 3 is_stmt 1 view .LVU74
 546 000c FFF7FEFF 		bl	WaveformGen_Stop
 547              	.LVL48:
 464:App/Src/fault_command.c **** }
 548              		.loc 1 464 3 view .LVU75
 464:App/Src/fault_command.c **** }
 549              		.loc 1 464 10 is_stmt 0 view .LVU76
 550 0010 2146     		mov	r1, r4
 551 0012 2846     		mov	r0, r5
 552 0014 FFF7FEFF 		bl	VoltageSim_SetCellVoltageMv
 553              	.LVL49:
 554              	.L21:
 465:App/Src/fault_command.c **** 
 555              		.loc 1 465 1 view .LVU77
 556 0018 38BD     		pop	{r3, r4, r5, pc}
 557              	.LVL50:
 558              	.L22:
 460:App/Src/fault_command.c ****   }
 559              		.loc 1 460 12 view .LVU78
 560 001a 0220     		movs	r0, #2
 561 001c FCE7     		b	.L21
 562              		.cfi_endproc
 563              	.LFE168:
 565              		.section	.text.FaultCommand_RunOverVoltage,"ax",%progbits
 566              		.align	1
 567              		.syntax unified
 568              		.thumb
 569              		.thumb_func
 571              	FaultCommand_RunOverVoltage:
 572              	.LVL51:
 573              	.LFB170:
 485:App/Src/fault_command.c **** 
 486:App/Src/fault_command.c **** static HAL_StatusTypeDef FaultCommand_RunOverVoltage(uint8_t cell,
 487:App/Src/fault_command.c ****                                                      uint16_t target,
 488:App/Src/fault_command.c ****                                                      uint32_t duration,
 489:App/Src/fault_command.c ****                                                      uint16_t slew)
 490:App/Src/fault_command.c **** {
 574              		.loc 1 490 1 is_stmt 1 view -0
 575              		.cfi_startproc
ARM GAS  C:\Users\hh\AppData\Local\Temp\ccnvB5Va.s 			page 22


 576              		@ args = 0, pretend = 0, frame = 0
 577              		@ frame_needed = 0, uses_anonymous_args = 0
 578              		.loc 1 490 1 is_stmt 0 view .LVU80
 579 0000 2DE9F041 		push	{r4, r5, r6, r7, r8, lr}
 580              	.LCFI5:
 581              		.cfi_def_cfa_offset 24
 582              		.cfi_offset 4, -24
 583              		.cfi_offset 5, -20
 584              		.cfi_offset 6, -16
 585              		.cfi_offset 7, -12
 586              		.cfi_offset 8, -8
 587              		.cfi_offset 14, -4
 588 0004 82B0     		sub	sp, sp, #8
 589              	.LCFI6:
 590              		.cfi_def_cfa_offset 32
 591 0006 0546     		mov	r5, r0
 592 0008 0C46     		mov	r4, r1
 593 000a 8846     		mov	r8, r1
 594 000c 1746     		mov	r7, r2
 595 000e 1E46     		mov	r6, r3
 491:App/Src/fault_command.c ****   HAL_StatusTypeDef status;
 596              		.loc 1 491 3 is_stmt 1 view .LVU81
 492:App/Src/fault_command.c **** 
 493:App/Src/fault_command.c ****   if (DacSafety_IsOutputAllowed() == 0U)
 597              		.loc 1 493 3 view .LVU82
 598              		.loc 1 493 7 is_stmt 0 view .LVU83
 599 0010 FFF7FEFF 		bl	DacSafety_IsOutputAllowed
 600              	.LVL52:
 601              		.loc 1 493 6 discriminator 1 view .LVU84
 602 0014 A8B1     		cbz	r0, .L26
 494:App/Src/fault_command.c ****   {
 495:App/Src/fault_command.c ****     return HAL_BUSY;
 496:App/Src/fault_command.c ****   }
 497:App/Src/fault_command.c **** 
 498:App/Src/fault_command.c ****   WaveformGen_Stop();
 603              		.loc 1 498 3 is_stmt 1 view .LVU85
 604 0016 FFF7FEFF 		bl	WaveformGen_Stop
 605              	.LVL53:
 499:App/Src/fault_command.c ****   status = VoltageSim_InjectCellOverVoltageRamp(cell, target, duration, slew);
 606              		.loc 1 499 3 view .LVU86
 607              		.loc 1 499 12 is_stmt 0 view .LVU87
 608 001a 3346     		mov	r3, r6
 609 001c 3A46     		mov	r2, r7
 610 001e 2146     		mov	r1, r4
 611 0020 2846     		mov	r0, r5
 612 0022 FFF7FEFF 		bl	VoltageSim_InjectCellOverVoltageRamp
 613              	.LVL54:
 500:App/Src/fault_command.c ****   if (status == HAL_OK)
 614              		.loc 1 500 3 is_stmt 1 view .LVU88
 615              		.loc 1 500 6 is_stmt 0 view .LVU89
 616 0026 0446     		mov	r4, r0
 617              	.LVL55:
 618              		.loc 1 500 6 view .LVU90
 619 0028 18B1     		cbz	r0, .L28
 620              	.LVL56:
 621              	.L25:
 501:App/Src/fault_command.c ****   {
ARM GAS  C:\Users\hh\AppData\Local\Temp\ccnvB5Va.s 			page 23


 502:App/Src/fault_command.c ****     BmsResponseLog_RecordFaultTrigger(BMS_RESPONSE_LOG_TRIGGER_OV, cell, target, 0U, 0U);
 503:App/Src/fault_command.c ****   }
 504:App/Src/fault_command.c **** 
 505:App/Src/fault_command.c ****   return status;
 506:App/Src/fault_command.c **** }
 622              		.loc 1 506 1 view .LVU91
 623 002a 2046     		mov	r0, r4
 624 002c 02B0     		add	sp, sp, #8
 625              	.LCFI7:
 626              		.cfi_remember_state
 627              		.cfi_def_cfa_offset 24
 628              		@ sp needed
 629 002e BDE8F081 		pop	{r4, r5, r6, r7, r8, pc}
 630              	.LVL57:
 631              	.L28:
 632              	.LCFI8:
 633              		.cfi_restore_state
 502:App/Src/fault_command.c ****   }
 634              		.loc 1 502 5 is_stmt 1 view .LVU92
 635 0032 0346     		mov	r3, r0
 636 0034 0090     		str	r0, [sp]
 637 0036 4246     		mov	r2, r8
 638 0038 2946     		mov	r1, r5
 639 003a 0120     		movs	r0, #1
 640              	.LVL58:
 502:App/Src/fault_command.c ****   }
 641              		.loc 1 502 5 is_stmt 0 view .LVU93
 642 003c FFF7FEFF 		bl	BmsResponseLog_RecordFaultTrigger
 643              	.LVL59:
 644 0040 F3E7     		b	.L25
 645              	.LVL60:
 646              	.L26:
 495:App/Src/fault_command.c ****   }
 647              		.loc 1 495 12 view .LVU94
 648 0042 0223     		movs	r3, #2
 649 0044 1C46     		mov	r4, r3
 650 0046 F0E7     		b	.L25
 651              		.cfi_endproc
 652              	.LFE170:
 654              		.section	.text.FaultCommand_RunUnderVoltage,"ax",%progbits
 655              		.align	1
 656              		.syntax unified
 657              		.thumb
 658              		.thumb_func
 660              	FaultCommand_RunUnderVoltage:
 661              	.LVL61:
 662              	.LFB171:
 507:App/Src/fault_command.c **** 
 508:App/Src/fault_command.c **** static HAL_StatusTypeDef FaultCommand_RunUnderVoltage(uint8_t cell,
 509:App/Src/fault_command.c ****                                                       uint16_t target,
 510:App/Src/fault_command.c ****                                                       uint32_t duration,
 511:App/Src/fault_command.c ****                                                       uint16_t slew)
 512:App/Src/fault_command.c **** {
 663              		.loc 1 512 1 is_stmt 1 view -0
 664              		.cfi_startproc
 665              		@ args = 0, pretend = 0, frame = 0
 666              		@ frame_needed = 0, uses_anonymous_args = 0
ARM GAS  C:\Users\hh\AppData\Local\Temp\ccnvB5Va.s 			page 24


 667              		.loc 1 512 1 is_stmt 0 view .LVU96
 668 0000 2DE9F041 		push	{r4, r5, r6, r7, r8, lr}
 669              	.LCFI9:
 670              		.cfi_def_cfa_offset 24
 671              		.cfi_offset 4, -24
 672              		.cfi_offset 5, -20
 673              		.cfi_offset 6, -16
 674              		.cfi_offset 7, -12
 675              		.cfi_offset 8, -8
 676              		.cfi_offset 14, -4
 677 0004 82B0     		sub	sp, sp, #8
 678              	.LCFI10:
 679              		.cfi_def_cfa_offset 32
 680 0006 0546     		mov	r5, r0
 681 0008 0C46     		mov	r4, r1
 682 000a 8846     		mov	r8, r1
 683 000c 1746     		mov	r7, r2
 684 000e 1E46     		mov	r6, r3
 513:App/Src/fault_command.c ****   HAL_StatusTypeDef status;
 685              		.loc 1 513 3 is_stmt 1 view .LVU97
 514:App/Src/fault_command.c **** 
 515:App/Src/fault_command.c ****   if (DacSafety_IsOutputAllowed() == 0U)
 686              		.loc 1 515 3 view .LVU98
 687              		.loc 1 515 7 is_stmt 0 view .LVU99
 688 0010 FFF7FEFF 		bl	DacSafety_IsOutputAllowed
 689              	.LVL62:
 690              		.loc 1 515 6 discriminator 1 view .LVU100
 691 0014 A8B1     		cbz	r0, .L31
 516:App/Src/fault_command.c ****   {
 517:App/Src/fault_command.c ****     return HAL_BUSY;
 518:App/Src/fault_command.c ****   }
 519:App/Src/fault_command.c **** 
 520:App/Src/fault_command.c ****   WaveformGen_Stop();
 692              		.loc 1 520 3 is_stmt 1 view .LVU101
 693 0016 FFF7FEFF 		bl	WaveformGen_Stop
 694              	.LVL63:
 521:App/Src/fault_command.c ****   status = VoltageSim_InjectCellUnderVoltageRamp(cell, target, duration, slew);
 695              		.loc 1 521 3 view .LVU102
 696              		.loc 1 521 12 is_stmt 0 view .LVU103
 697 001a 3346     		mov	r3, r6
 698 001c 3A46     		mov	r2, r7
 699 001e 2146     		mov	r1, r4
 700 0020 2846     		mov	r0, r5
 701 0022 FFF7FEFF 		bl	VoltageSim_InjectCellUnderVoltageRamp
 702              	.LVL64:
 522:App/Src/fault_command.c ****   if (status == HAL_OK)
 703              		.loc 1 522 3 is_stmt 1 view .LVU104
 704              		.loc 1 522 6 is_stmt 0 view .LVU105
 705 0026 0446     		mov	r4, r0
 706              	.LVL65:
 707              		.loc 1 522 6 view .LVU106
 708 0028 18B1     		cbz	r0, .L33
 709              	.LVL66:
 710              	.L30:
 523:App/Src/fault_command.c ****   {
 524:App/Src/fault_command.c ****     BmsResponseLog_RecordFaultTrigger(BMS_RESPONSE_LOG_TRIGGER_UV, cell, target, 0U, 0U);
 525:App/Src/fault_command.c ****   }
ARM GAS  C:\Users\hh\AppData\Local\Temp\ccnvB5Va.s 			page 25


 526:App/Src/fault_command.c **** 
 527:App/Src/fault_command.c ****   return status;
 528:App/Src/fault_command.c **** }
 711              		.loc 1 528 1 view .LVU107
 712 002a 2046     		mov	r0, r4
 713 002c 02B0     		add	sp, sp, #8
 714              	.LCFI11:
 715              		.cfi_remember_state
 716              		.cfi_def_cfa_offset 24
 717              		@ sp needed
 718 002e BDE8F081 		pop	{r4, r5, r6, r7, r8, pc}
 719              	.LVL67:
 720              	.L33:
 721              	.LCFI12:
 722              		.cfi_restore_state
 524:App/Src/fault_command.c ****   }
 723              		.loc 1 524 5 is_stmt 1 view .LVU108
 724 0032 0346     		mov	r3, r0
 725 0034 0090     		str	r0, [sp]
 726 0036 4246     		mov	r2, r8
 727 0038 2946     		mov	r1, r5
 728 003a 0220     		movs	r0, #2
 729              	.LVL68:
 524:App/Src/fault_command.c ****   }
 730              		.loc 1 524 5 is_stmt 0 view .LVU109
 731 003c FFF7FEFF 		bl	BmsResponseLog_RecordFaultTrigger
 732              	.LVL69:
 733 0040 F3E7     		b	.L30
 734              	.LVL70:
 735              	.L31:
 517:App/Src/fault_command.c ****   }
 736              		.loc 1 517 12 view .LVU110
 737 0042 0223     		movs	r3, #2
 738 0044 1C46     		mov	r4, r3
 739 0046 F0E7     		b	.L30
 740              		.cfi_endproc
 741              	.LFE171:
 743              		.section	.text.FaultCommand_RunDiff,"ax",%progbits
 744              		.align	1
 745              		.syntax unified
 746              		.thumb
 747              		.thumb_func
 749              	FaultCommand_RunDiff:
 750              	.LVL71:
 751              	.LFB172:
 529:App/Src/fault_command.c **** 
 530:App/Src/fault_command.c **** static HAL_StatusTypeDef FaultCommand_RunDiff(uint8_t highCell,
 531:App/Src/fault_command.c ****                                               uint16_t highMv,
 532:App/Src/fault_command.c ****                                               uint8_t lowCell,
 533:App/Src/fault_command.c ****                                               uint16_t lowMv,
 534:App/Src/fault_command.c ****                                               uint32_t duration,
 535:App/Src/fault_command.c ****                                               uint16_t slew)
 536:App/Src/fault_command.c **** {
 752              		.loc 1 536 1 is_stmt 1 view -0
 753              		.cfi_startproc
 754              		@ args = 8, pretend = 0, frame = 0
 755              		@ frame_needed = 0, uses_anonymous_args = 0
ARM GAS  C:\Users\hh\AppData\Local\Temp\ccnvB5Va.s 			page 26


 756              		.loc 1 536 1 is_stmt 0 view .LVU112
 757 0000 2DE9F041 		push	{r4, r5, r6, r7, r8, lr}
 758              	.LCFI13:
 759              		.cfi_def_cfa_offset 24
 760              		.cfi_offset 4, -24
 761              		.cfi_offset 5, -20
 762              		.cfi_offset 6, -16
 763              		.cfi_offset 7, -12
 764              		.cfi_offset 8, -8
 765              		.cfi_offset 14, -4
 766 0004 82B0     		sub	sp, sp, #8
 767              	.LCFI14:
 768              		.cfi_def_cfa_offset 32
 769 0006 0746     		mov	r7, r0
 770 0008 0E46     		mov	r6, r1
 771 000a 1546     		mov	r5, r2
 772 000c 1C46     		mov	r4, r3
 773 000e 9846     		mov	r8, r3
 537:App/Src/fault_command.c ****   HAL_StatusTypeDef status;
 774              		.loc 1 537 3 is_stmt 1 view .LVU113
 538:App/Src/fault_command.c **** 
 539:App/Src/fault_command.c ****   if (DacSafety_IsOutputAllowed() == 0U)
 775              		.loc 1 539 3 view .LVU114
 776              		.loc 1 539 7 is_stmt 0 view .LVU115
 777 0010 FFF7FEFF 		bl	DacSafety_IsOutputAllowed
 778              	.LVL72:
 779              		.loc 1 539 6 discriminator 1 view .LVU116
 780 0014 D8B1     		cbz	r0, .L36
 540:App/Src/fault_command.c ****   {
 541:App/Src/fault_command.c ****     return HAL_BUSY;
 542:App/Src/fault_command.c ****   }
 543:App/Src/fault_command.c **** 
 544:App/Src/fault_command.c ****   WaveformGen_Stop();
 781              		.loc 1 544 3 is_stmt 1 view .LVU117
 782 0016 FFF7FEFF 		bl	WaveformGen_Stop
 783              	.LVL73:
 545:App/Src/fault_command.c ****   status = VoltageSim_InjectVoltageDifference(highCell, highMv, lowCell, lowMv, duration, slew);
 784              		.loc 1 545 3 view .LVU118
 785              		.loc 1 545 12 is_stmt 0 view .LVU119
 786 001a BDF82430 		ldrh	r3, [sp, #36]
 787 001e 0193     		str	r3, [sp, #4]
 788 0020 089B     		ldr	r3, [sp, #32]
 789 0022 0093     		str	r3, [sp]
 790 0024 2346     		mov	r3, r4
 791 0026 2A46     		mov	r2, r5
 792 0028 3146     		mov	r1, r6
 793 002a 3846     		mov	r0, r7
 794 002c FFF7FEFF 		bl	VoltageSim_InjectVoltageDifference
 795              	.LVL74:
 546:App/Src/fault_command.c ****   if (status == HAL_OK)
 796              		.loc 1 546 3 is_stmt 1 view .LVU120
 797              		.loc 1 546 6 is_stmt 0 view .LVU121
 798 0030 0446     		mov	r4, r0
 799              	.LVL75:
 800              		.loc 1 546 6 view .LVU122
 801 0032 18B1     		cbz	r0, .L38
 802              	.LVL76:
ARM GAS  C:\Users\hh\AppData\Local\Temp\ccnvB5Va.s 			page 27


 803              	.L35:
 547:App/Src/fault_command.c ****   {
 548:App/Src/fault_command.c ****     BmsResponseLog_RecordFaultTrigger(BMS_RESPONSE_LOG_TRIGGER_DIFF,
 549:App/Src/fault_command.c ****                                       highCell,
 550:App/Src/fault_command.c ****                                       highMv,
 551:App/Src/fault_command.c ****                                       lowCell,
 552:App/Src/fault_command.c ****                                       lowMv);
 553:App/Src/fault_command.c ****   }
 554:App/Src/fault_command.c **** 
 555:App/Src/fault_command.c ****   return status;
 556:App/Src/fault_command.c **** }
 804              		.loc 1 556 1 view .LVU123
 805 0034 2046     		mov	r0, r4
 806 0036 02B0     		add	sp, sp, #8
 807              	.LCFI15:
 808              		.cfi_remember_state
 809              		.cfi_def_cfa_offset 24
 810              		@ sp needed
 811 0038 BDE8F081 		pop	{r4, r5, r6, r7, r8, pc}
 812              	.LVL77:
 813              	.L38:
 814              	.LCFI16:
 815              		.cfi_restore_state
 548:App/Src/fault_command.c ****                                       highCell,
 816              		.loc 1 548 5 is_stmt 1 view .LVU124
 817 003c CDF80080 		str	r8, [sp]
 818 0040 2B46     		mov	r3, r5
 819 0042 3246     		mov	r2, r6
 820 0044 3946     		mov	r1, r7
 821 0046 0320     		movs	r0, #3
 822              	.LVL78:
 548:App/Src/fault_command.c ****                                       highCell,
 823              		.loc 1 548 5 is_stmt 0 view .LVU125
 824 0048 FFF7FEFF 		bl	BmsResponseLog_RecordFaultTrigger
 825              	.LVL79:
 826 004c F2E7     		b	.L35
 827              	.LVL80:
 828              	.L36:
 541:App/Src/fault_command.c ****   }
 829              		.loc 1 541 12 view .LVU126
 830 004e 0223     		movs	r3, #2
 831 0050 1C46     		mov	r4, r3
 832 0052 EFE7     		b	.L35
 833              		.cfi_endproc
 834              	.LFE172:
 836              		.section	.text.FaultCommand_WriteFormat,"ax",%progbits
 837              		.align	1
 838              		.syntax unified
 839              		.thumb
 840              		.thumb_func
 842              	FaultCommand_WriteFormat:
 843              	.LVL81:
 844              	.LFB150:
  30:App/Src/fault_command.c ****   char buffer[512];
 845              		.loc 1 30 1 is_stmt 1 view -0
 846              		.cfi_startproc
 847              		@ args = 4, pretend = 8, frame = 520
ARM GAS  C:\Users\hh\AppData\Local\Temp\ccnvB5Va.s 			page 28


 848              		@ frame_needed = 0, uses_anonymous_args = 1
  30:App/Src/fault_command.c ****   char buffer[512];
 849              		.loc 1 30 1 is_stmt 0 view .LVU128
 850 0000 0CB4     		push	{r2, r3}
 851              	.LCFI17:
 852              		.cfi_def_cfa_offset 8
 853              		.cfi_offset 2, -8
 854              		.cfi_offset 3, -4
 855 0002 70B5     		push	{r4, r5, r6, lr}
 856              	.LCFI18:
 857              		.cfi_def_cfa_offset 24
 858              		.cfi_offset 4, -24
 859              		.cfi_offset 5, -20
 860              		.cfi_offset 6, -16
 861              		.cfi_offset 14, -12
 862 0004 ADF5027D 		sub	sp, sp, #520
 863              	.LCFI19:
 864              		.cfi_def_cfa_offset 544
 865 0008 0646     		mov	r6, r0
 866 000a 0D46     		mov	r5, r1
 867 000c 86AB     		add	r3, sp, #536
 868 000e 53F8042B 		ldr	r2, [r3], #4
  31:App/Src/fault_command.c ****   va_list args;
 869              		.loc 1 31 3 is_stmt 1 view .LVU129
  32:App/Src/fault_command.c **** 
 870              		.loc 1 32 3 view .LVU130
  34:App/Src/fault_command.c ****   (void)vsnprintf(buffer, sizeof(buffer), format, args);
 871              		.loc 1 34 3 view .LVU131
 872 0012 0193     		str	r3, [sp, #4]
  35:App/Src/fault_command.c ****   va_end(args);
 873              		.loc 1 35 3 view .LVU132
  35:App/Src/fault_command.c ****   va_end(args);
 874              		.loc 1 35 9 is_stmt 0 view .LVU133
 875 0014 02AC     		add	r4, sp, #8
 876 0016 4FF40071 		mov	r1, #512
 877              	.LVL82:
  35:App/Src/fault_command.c ****   va_end(args);
 878              		.loc 1 35 9 view .LVU134
 879 001a 2046     		mov	r0, r4
 880              	.LVL83:
  35:App/Src/fault_command.c ****   va_end(args);
 881              		.loc 1 35 9 view .LVU135
 882 001c FFF7FEFF 		bl	vsnprintf
 883              	.LVL84:
  36:App/Src/fault_command.c **** 
 884              		.loc 1 36 3 is_stmt 1 view .LVU136
  38:App/Src/fault_command.c **** }
 885              		.loc 1 38 3 view .LVU137
 886 0020 2246     		mov	r2, r4
 887 0022 2946     		mov	r1, r5
 888 0024 3046     		mov	r0, r6
 889 0026 FFF7FEFF 		bl	FaultCommand_Write
 890              	.LVL85:
  39:App/Src/fault_command.c **** 
 891              		.loc 1 39 1 is_stmt 0 view .LVU138
 892 002a 0DF5027D 		add	sp, sp, #520
 893              	.LCFI20:
ARM GAS  C:\Users\hh\AppData\Local\Temp\ccnvB5Va.s 			page 29


 894              		.cfi_def_cfa_offset 24
 895              		@ sp needed
 896 002e BDE87040 		pop	{r4, r5, r6, lr}
 897              	.LCFI21:
 898              		.cfi_restore 14
 899              		.cfi_restore 6
 900              		.cfi_restore 5
 901              		.cfi_restore 4
 902              		.cfi_def_cfa_offset 8
 903              	.LVL86:
  39:App/Src/fault_command.c **** 
 904              		.loc 1 39 1 view .LVU139
 905 0032 02B0     		add	sp, sp, #8
 906              	.LCFI22:
 907              		.cfi_restore 3
 908              		.cfi_restore 2
 909              		.cfi_def_cfa_offset 0
 910 0034 7047     		bx	lr
 911              		.cfi_endproc
 912              	.LFE150:
 914              		.section	.rodata.FaultCommand_WriteJsonStatus.str1.4,"aMS",%progbits,1
 915              		.align	2
 916              	.LC31:
 917 0000 00       		.ascii	"\000"
 918 0001 000000   		.align	2
 919              	.LC32:
 920 0004 2C00     		.ascii	",\000"
 921 0006 0000     		.align	2
 922              	.LC33:
 923 0008 7B226F6B 		.ascii	"{\"ok\":true,\"active_faults\":%u,\"safety\":{\"eme"
 923      223A7472 
 923      75652C22 
 923      61637469 
 923      76655F66 
 924 0034 7267656E 		.ascii	"rgency\":%u,\"safe_mv\":%u,\"alarm_active\":%u,\"al"
 924      6379223A 
 924      25752C22 
 924      73616665 
 924      5F6D7622 
 925 0061 61726D5F 		.ascii	"arm_latched\":%u,\"alarm_count\":%lu},\"waveform\":"
 925      6C617463 
 925      68656422 
 925      3A25752C 
 925      22616C61 
 926 008f 7B226163 		.ascii	"{\"active\":%u,\"type\":\"%s\",\"cell\":%u,\"period"
 926      74697665 
 926      223A2575 
 926      2C227479 
 926      7065223A 
 927 00b9 5F6D7322 		.ascii	"_ms\":%lu,\"last_mv\":%u},\"cells\":[\000"
 927      3A256C75 
 927      2C226C61 
 927      73745F6D 
 927      76223A25 
 928 00da 0000     		.align	2
 929              	.LC34:
 930 00dc 25737B22 		.ascii	"%s{\"cell\":%u,\"mv\":%u,\"cal_mv\":%d,\"fault\":\""
ARM GAS  C:\Users\hh\AppData\Local\Temp\ccnvB5Va.s 			page 30


 930      63656C6C 
 930      223A2575 
 930      2C226D76 
 930      223A2575 
 931 0106 2573222C 		.ascii	"%s\",\"target_mv\":%u,\"restore_mv\":%u,\"duration_"
 931      22746172 
 931      6765745F 
 931      6D76223A 
 931      25752C22 
 932 0133 6D73223A 		.ascii	"ms\":%lu,\"slew_mv_per_ms\":%u}\000"
 932      256C752C 
 932      22736C65 
 932      775F6D76 
 932      5F706572 
 933              		.align	2
 934              	.LC35:
 935 0150 5D7D0D0A 		.ascii	"]}\015\012\000"
 935      00
 936              		.section	.text.FaultCommand_WriteJsonStatus,"ax",%progbits
 937              		.align	1
 938              		.syntax unified
 939              		.thumb
 940              		.thumb_func
 942              	FaultCommand_WriteJsonStatus:
 943              	.LVL87:
 944              	.LFB162:
 290:App/Src/fault_command.c ****   WaveformGen_Status waveform = WaveformGen_GetStatus();
 945              		.loc 1 290 1 is_stmt 1 view -0
 946              		.cfi_startproc
 947              		@ args = 0, pretend = 0, frame = 64
 948              		@ frame_needed = 0, uses_anonymous_args = 0
 290:App/Src/fault_command.c ****   WaveformGen_Status waveform = WaveformGen_GetStatus();
 949              		.loc 1 290 1 is_stmt 0 view .LVU141
 950 0000 2DE9F047 		push	{r4, r5, r6, r7, r8, r9, r10, lr}
 951              	.LCFI23:
 952              		.cfi_def_cfa_offset 32
 953              		.cfi_offset 4, -32
 954              		.cfi_offset 5, -28
 955              		.cfi_offset 6, -24
 956              		.cfi_offset 7, -20
 957              		.cfi_offset 8, -16
 958              		.cfi_offset 9, -12
 959              		.cfi_offset 10, -8
 960              		.cfi_offset 14, -4
 961 0004 9AB0     		sub	sp, sp, #104
 962              	.LCFI24:
 963              		.cfi_def_cfa_offset 136
 964 0006 0446     		mov	r4, r0
 965 0008 0D46     		mov	r5, r1
 291:App/Src/fault_command.c ****   DacSafety_Status safety = DacSafety_GetStatus();
 966              		.loc 1 291 3 is_stmt 1 view .LVU142
 291:App/Src/fault_command.c ****   DacSafety_Status safety = DacSafety_GetStatus();
 967              		.loc 1 291 33 is_stmt 0 view .LVU143
 968 000a 15A8     		add	r0, sp, #84
 969              	.LVL88:
 291:App/Src/fault_command.c ****   DacSafety_Status safety = DacSafety_GetStatus();
 970              		.loc 1 291 33 view .LVU144
ARM GAS  C:\Users\hh\AppData\Local\Temp\ccnvB5Va.s 			page 31


 971 000c FFF7FEFF 		bl	WaveformGen_GetStatus
 972              	.LVL89:
 292:App/Src/fault_command.c **** 
 973              		.loc 1 292 3 is_stmt 1 view .LVU145
 292:App/Src/fault_command.c **** 
 974              		.loc 1 292 29 is_stmt 0 view .LVU146
 975 0010 11A8     		add	r0, sp, #68
 976 0012 FFF7FEFF 		bl	DacSafety_GetStatus
 977              	.LVL90:
 294:App/Src/fault_command.c ****                            context,
 978              		.loc 1 294 3 is_stmt 1 view .LVU147
 297:App/Src/fault_command.c ****                            safety.emergencyActive,
 979              		.loc 1 297 28 is_stmt 0 view .LVU148
 980 0016 FFF7FEFF 		bl	VoltageSim_GetActiveFaultCount
 981              	.LVL91:
 982 001a 8246     		mov	r10, r0
 298:App/Src/fault_command.c ****                            safety.safeMillivolts,
 983              		.loc 1 298 34 view .LVU149
 984 001c 9DF84460 		ldrb	r6, [sp, #68]	@ zero_extendqisi2
 299:App/Src/fault_command.c ****                            safety.alarmActive,
 985              		.loc 1 299 34 view .LVU150
 986 0020 BDF85070 		ldrh	r7, [sp, #80]
 300:App/Src/fault_command.c ****                            safety.alarmLatched,
 987              		.loc 1 300 34 view .LVU151
 988 0024 9DF84690 		ldrb	r9, [sp, #70]	@ zero_extendqisi2
 301:App/Src/fault_command.c ****                            (unsigned long)safety.alarmCount,
 989              		.loc 1 301 34 view .LVU152
 990 0028 9DF84780 		ldrb	r8, [sp, #71]	@ zero_extendqisi2
 302:App/Src/fault_command.c ****                            waveform.active,
 991              		.loc 1 302 49 view .LVU153
 992 002c 129A     		ldr	r2, [sp, #72]
 993 002e 0A92     		str	r2, [sp, #40]
 303:App/Src/fault_command.c ****                            WaveformGen_GetTypeName(waveform.type),
 994              		.loc 1 303 36 view .LVU154
 995 0030 9DF85510 		ldrb	r1, [sp, #85]	@ zero_extendqisi2
 996 0034 0B91     		str	r1, [sp, #44]
 294:App/Src/fault_command.c ****                            context,
 997              		.loc 1 294 3 view .LVU155
 998 0036 9DF85400 		ldrb	r0, [sp, #84]	@ zero_extendqisi2
 999 003a FFF7FEFF 		bl	WaveformGen_GetTypeName
 1000              	.LVL92:
 305:App/Src/fault_command.c ****                            (unsigned long)waveform.periodMs,
 1001              		.loc 1 305 36 view .LVU156
 1002 003e 9DF85630 		ldrb	r3, [sp, #86]	@ zero_extendqisi2
 307:App/Src/fault_command.c **** 
 1003              		.loc 1 307 36 view .LVU157
 1004 0042 BDF86420 		ldrh	r2, [sp, #100]
 294:App/Src/fault_command.c ****                            context,
 1005              		.loc 1 294 3 view .LVU158
 1006 0046 0992     		str	r2, [sp, #36]
 1007 0048 189A     		ldr	r2, [sp, #96]
 1008 004a 0892     		str	r2, [sp, #32]
 1009 004c 0793     		str	r3, [sp, #28]
 1010 004e 0690     		str	r0, [sp, #24]
 1011 0050 0B99     		ldr	r1, [sp, #44]
 1012 0052 0591     		str	r1, [sp, #20]
 1013 0054 0A9A     		ldr	r2, [sp, #40]
ARM GAS  C:\Users\hh\AppData\Local\Temp\ccnvB5Va.s 			page 32


 1014 0056 0492     		str	r2, [sp, #16]
 1015 0058 CDF80C80 		str	r8, [sp, #12]
 1016 005c CDF80890 		str	r9, [sp, #8]
 1017 0060 0197     		str	r7, [sp, #4]
 1018 0062 0096     		str	r6, [sp]
 1019 0064 5346     		mov	r3, r10
 1020 0066 204A     		ldr	r2, .L49
 1021 0068 2946     		mov	r1, r5
 1022 006a 2046     		mov	r0, r4
 1023 006c FFF7FEFF 		bl	FaultCommand_WriteFormat
 1024              	.LVL93:
 309:App/Src/fault_command.c ****   {
 1025              		.loc 1 309 3 is_stmt 1 view .LVU159
 1026              	.LBB2:
 309:App/Src/fault_command.c ****   {
 1027              		.loc 1 309 8 view .LVU160
 309:App/Src/fault_command.c ****   {
 1028              		.loc 1 309 16 is_stmt 0 view .LVU161
 1029 0070 0126     		movs	r6, #1
 309:App/Src/fault_command.c ****   {
 1030              		.loc 1 309 3 view .LVU162
 1031 0072 25E0     		b	.L42
 1032              	.LVL94:
 1033              	.L48:
 1034              	.LBB3:
 313:App/Src/fault_command.c ****                              context,
 1035              		.loc 1 313 5 discriminator 1 view .LVU163
 1036 0074 DFF87C90 		ldr	r9, .L49+12
 1037              	.L43:
 318:App/Src/fault_command.c ****                              (int)VoltageSim_GetCellCalibrationOffsetMv(cell),
 1038              		.loc 1 318 30 view .LVU164
 1039 0078 3046     		mov	r0, r6
 1040 007a FFF7FEFF 		bl	VoltageSim_GetLastCellVoltageMv
 1041              	.LVL95:
 1042 007e 0746     		mov	r7, r0
 319:App/Src/fault_command.c ****                              VoltageSim_GetFaultTypeName(info.type),
 1043              		.loc 1 319 35 view .LVU165
 1044 0080 3046     		mov	r0, r6
 1045 0082 FFF7FEFF 		bl	VoltageSim_GetCellCalibrationOffsetMv
 1046              	.LVL96:
 1047 0086 8046     		mov	r8, r0
 313:App/Src/fault_command.c ****                              context,
 1048              		.loc 1 313 5 discriminator 4 view .LVU166
 1049 0088 9DF83400 		ldrb	r0, [sp, #52]	@ zero_extendqisi2
 1050 008c FFF7FEFF 		bl	VoltageSim_GetFaultTypeName
 1051              	.LVL97:
 321:App/Src/fault_command.c ****                              info.restoreMillivolts,
 1052              		.loc 1 321 34 view .LVU167
 1053 0090 BDF83630 		ldrh	r3, [sp, #54]
 322:App/Src/fault_command.c ****                              (unsigned long)info.durationMs,
 1054              		.loc 1 322 34 view .LVU168
 1055 0094 BDF83820 		ldrh	r2, [sp, #56]
 324:App/Src/fault_command.c ****   }
 1056              		.loc 1 324 34 view .LVU169
 1057 0098 BDF84010 		ldrh	r1, [sp, #64]
 313:App/Src/fault_command.c ****                              context,
 1058              		.loc 1 313 5 discriminator 4 view .LVU170
ARM GAS  C:\Users\hh\AppData\Local\Temp\ccnvB5Va.s 			page 33


 1059 009c 0791     		str	r1, [sp, #28]
 1060 009e 0F99     		ldr	r1, [sp, #60]
 1061 00a0 0691     		str	r1, [sp, #24]
 1062 00a2 0592     		str	r2, [sp, #20]
 1063 00a4 0493     		str	r3, [sp, #16]
 1064 00a6 0390     		str	r0, [sp, #12]
 1065 00a8 CDF80880 		str	r8, [sp, #8]
 1066 00ac 0197     		str	r7, [sp, #4]
 1067 00ae 0096     		str	r6, [sp]
 1068 00b0 4B46     		mov	r3, r9
 1069 00b2 0E4A     		ldr	r2, .L49+4
 1070 00b4 2946     		mov	r1, r5
 1071 00b6 2046     		mov	r0, r4
 1072 00b8 FFF7FEFF 		bl	FaultCommand_WriteFormat
 1073              	.LVL98:
 1074              	.LBE3:
 309:App/Src/fault_command.c ****   {
 1075              		.loc 1 309 63 is_stmt 1 discriminator 2 view .LVU171
 1076 00bc 0136     		adds	r6, r6, #1
 1077              	.LVL99:
 309:App/Src/fault_command.c ****   {
 1078              		.loc 1 309 63 is_stmt 0 discriminator 2 view .LVU172
 1079 00be F6B2     		uxtb	r6, r6
 1080              	.LVL100:
 1081              	.L42:
 309:App/Src/fault_command.c ****   {
 1082              		.loc 1 309 32 is_stmt 1 discriminator 1 view .LVU173
 1083 00c0 0D2E     		cmp	r6, #13
 1084 00c2 08D8     		bhi	.L47
 1085              	.LBB4:
 311:App/Src/fault_command.c **** 
 1086              		.loc 1 311 5 view .LVU174
 311:App/Src/fault_command.c **** 
 1087              		.loc 1 311 37 is_stmt 0 view .LVU175
 1088 00c4 3146     		mov	r1, r6
 1089 00c6 0DA8     		add	r0, sp, #52
 1090 00c8 FFF7FEFF 		bl	VoltageSim_GetCellFaultInfo
 1091              	.LVL101:
 313:App/Src/fault_command.c ****                              context,
 1092              		.loc 1 313 5 is_stmt 1 view .LVU176
 1093 00cc 012E     		cmp	r6, #1
 1094 00ce D1D0     		beq	.L48
 313:App/Src/fault_command.c ****                              context,
 1095              		.loc 1 313 5 is_stmt 0 discriminator 2 view .LVU177
 1096 00d0 DFF82490 		ldr	r9, .L49+16
 1097 00d4 D0E7     		b	.L43
 1098              	.L47:
 1099              	.LBE4:
 1100              	.LBE2:
 327:App/Src/fault_command.c **** }
 1101              		.loc 1 327 3 is_stmt 1 view .LVU178
 1102 00d6 064A     		ldr	r2, .L49+8
 1103 00d8 2946     		mov	r1, r5
 1104 00da 2046     		mov	r0, r4
 1105 00dc FFF7FEFF 		bl	FaultCommand_Write
 1106              	.LVL102:
 328:App/Src/fault_command.c **** 
ARM GAS  C:\Users\hh\AppData\Local\Temp\ccnvB5Va.s 			page 34


 1107              		.loc 1 328 1 is_stmt 0 view .LVU179
 1108 00e0 1AB0     		add	sp, sp, #104
 1109              	.LCFI25:
 1110              		.cfi_def_cfa_offset 32
 1111              		@ sp needed
 1112 00e2 BDE8F087 		pop	{r4, r5, r6, r7, r8, r9, r10, pc}
 1113              	.LVL103:
 1114              	.L50:
 328:App/Src/fault_command.c **** 
 1115              		.loc 1 328 1 view .LVU180
 1116 00e6 00BF     		.align	2
 1117              	.L49:
 1118 00e8 08000000 		.word	.LC33
 1119 00ec DC000000 		.word	.LC34
 1120 00f0 50010000 		.word	.LC35
 1121 00f4 00000000 		.word	.LC31
 1122 00f8 04000000 		.word	.LC32
 1123              		.cfi_endproc
 1124              	.LFE162:
 1126              		.section	.rodata.FaultCommand_WriteJsonSafetyStatus.str1.4,"aMS",%progbits,1
 1127              		.align	2
 1128              	.LC36:
 1129 0000 7B226F6B 		.ascii	"{\"ok\":true,\"safe\":{\"emergency\":%u,\"safe_mv\""
 1129      223A7472 
 1129      75652C22 
 1129      73616665 
 1129      223A7B22 
 1130 002b 3A25752C 		.ascii	":%u,\"alarm_pin\":%u,\"alarm_active\":%u,\"alarm_la"
 1130      22616C61 
 1130      726D5F70 
 1130      696E223A 
 1130      25752C22 
 1131 0059 74636865 		.ascii	"tched\":%u,\"alarm_count\":%lu,\"last_alarm_tick\":"
 1131      64223A25 
 1131      752C2261 
 1131      6C61726D 
 1131      5F636F75 
 1132 0087 256C757D 		.ascii	"%lu}}\015\012\000"
 1132      7D0D0A00 
 1133              		.section	.text.FaultCommand_WriteJsonSafetyStatus,"ax",%progbits
 1134              		.align	1
 1135              		.syntax unified
 1136              		.thumb
 1137              		.thumb_func
 1139              	FaultCommand_WriteJsonSafetyStatus:
 1140              	.LVL104:
 1141              	.LFB165:
 393:App/Src/fault_command.c ****   DacSafety_Status status = DacSafety_GetStatus();
 1142              		.loc 1 393 1 is_stmt 1 view -0
 1143              		.cfi_startproc
 1144              		@ args = 0, pretend = 0, frame = 16
 1145              		@ frame_needed = 0, uses_anonymous_args = 0
 393:App/Src/fault_command.c ****   DacSafety_Status status = DacSafety_GetStatus();
 1146              		.loc 1 393 1 is_stmt 0 view .LVU182
 1147 0000 70B5     		push	{r4, r5, r6, lr}
 1148              	.LCFI26:
 1149              		.cfi_def_cfa_offset 16
ARM GAS  C:\Users\hh\AppData\Local\Temp\ccnvB5Va.s 			page 35


 1150              		.cfi_offset 4, -16
 1151              		.cfi_offset 5, -12
 1152              		.cfi_offset 6, -8
 1153              		.cfi_offset 14, -4
 1154 0002 8AB0     		sub	sp, sp, #40
 1155              	.LCFI27:
 1156              		.cfi_def_cfa_offset 56
 1157 0004 0646     		mov	r6, r0
 1158 0006 0D46     		mov	r5, r1
 394:App/Src/fault_command.c **** 
 1159              		.loc 1 394 3 is_stmt 1 view .LVU183
 394:App/Src/fault_command.c **** 
 1160              		.loc 1 394 29 is_stmt 0 view .LVU184
 1161 0008 06A8     		add	r0, sp, #24
 1162              	.LVL105:
 394:App/Src/fault_command.c **** 
 1163              		.loc 1 394 29 view .LVU185
 1164 000a FFF7FEFF 		bl	DacSafety_GetStatus
 1165              	.LVL106:
 396:App/Src/fault_command.c ****                            context,
 1166              		.loc 1 396 3 is_stmt 1 view .LVU186
 400:App/Src/fault_command.c ****                            status.alarmPinState,
 1167              		.loc 1 400 34 is_stmt 0 view .LVU187
 1168 000e BDF82430 		ldrh	r3, [sp, #36]
 401:App/Src/fault_command.c ****                            status.alarmActive,
 1169              		.loc 1 401 34 view .LVU188
 1170 0012 9DF81920 		ldrb	r2, [sp, #25]	@ zero_extendqisi2
 402:App/Src/fault_command.c ****                            status.alarmLatched,
 1171              		.loc 1 402 34 view .LVU189
 1172 0016 9DF81A10 		ldrb	r1, [sp, #26]	@ zero_extendqisi2
 403:App/Src/fault_command.c ****                            (unsigned long)status.alarmCount,
 1173              		.loc 1 403 34 view .LVU190
 1174 001a 9DF81B00 		ldrb	r0, [sp, #27]	@ zero_extendqisi2
 396:App/Src/fault_command.c ****                            context,
 1175              		.loc 1 396 3 view .LVU191
 1176 001e 089C     		ldr	r4, [sp, #32]
 1177 0020 0594     		str	r4, [sp, #20]
 1178 0022 079C     		ldr	r4, [sp, #28]
 1179 0024 0494     		str	r4, [sp, #16]
 1180 0026 0390     		str	r0, [sp, #12]
 1181 0028 0291     		str	r1, [sp, #8]
 1182 002a 0192     		str	r2, [sp, #4]
 1183 002c 0093     		str	r3, [sp]
 1184 002e 9DF81830 		ldrb	r3, [sp, #24]	@ zero_extendqisi2
 1185 0032 034A     		ldr	r2, .L53
 1186 0034 2946     		mov	r1, r5
 1187 0036 3046     		mov	r0, r6
 1188 0038 FFF7FEFF 		bl	FaultCommand_WriteFormat
 1189              	.LVL107:
 406:App/Src/fault_command.c **** 
 1190              		.loc 1 406 1 view .LVU192
 1191 003c 0AB0     		add	sp, sp, #40
 1192              	.LCFI28:
 1193              		.cfi_def_cfa_offset 16
 1194              		@ sp needed
 1195 003e 70BD     		pop	{r4, r5, r6, pc}
 1196              	.LVL108:
ARM GAS  C:\Users\hh\AppData\Local\Temp\ccnvB5Va.s 			page 36


 1197              	.L54:
 406:App/Src/fault_command.c **** 
 1198              		.loc 1 406 1 view .LVU193
 1199              		.align	2
 1200              	.L53:
 1201 0040 00000000 		.word	.LC36
 1202              		.cfi_endproc
 1203              	.LFE165:
 1205              		.section	.rodata.FaultCommand_WriteJsonResult.str1.4,"aMS",%progbits,1
 1206              		.align	2
 1207              	.LC37:
 1208 0000 74727565 		.ascii	"true\000"
 1208      00
 1209 0005 000000   		.align	2
 1210              	.LC38:
 1211 0008 66616C73 		.ascii	"false\000"
 1211      6500
 1212 000e 0000     		.align	2
 1213              	.LC39:
 1214 0010 7B226F6B 		.ascii	"{\"ok\":%s,\"cmd\":\"%s\"}\015\012\000"
 1214      223A2573 
 1214      2C22636D 
 1214      64223A22 
 1214      2573227D 
 1215              		.section	.text.FaultCommand_WriteJsonResult,"ax",%progbits
 1216              		.align	1
 1217              		.syntax unified
 1218              		.thumb
 1219              		.thumb_func
 1221              	FaultCommand_WriteJsonResult:
 1222              	.LVL109:
 1223              	.LFB161:
 283:App/Src/fault_command.c ****   FaultCommand_WriteFormat(write, context, "{\"ok\":%s,\"cmd\":\"%s\"}\r\n",
 1224              		.loc 1 283 1 is_stmt 1 view -0
 1225              		.cfi_startproc
 1226              		@ args = 0, pretend = 0, frame = 0
 1227              		@ frame_needed = 0, uses_anonymous_args = 0
 283:App/Src/fault_command.c ****   FaultCommand_WriteFormat(write, context, "{\"ok\":%s,\"cmd\":\"%s\"}\r\n",
 1228              		.loc 1 283 1 is_stmt 0 view .LVU195
 1229 0000 00B5     		push	{lr}
 1230              	.LCFI29:
 1231              		.cfi_def_cfa_offset 4
 1232              		.cfi_offset 14, -4
 1233 0002 83B0     		sub	sp, sp, #12
 1234              	.LCFI30:
 1235              		.cfi_def_cfa_offset 16
 284:App/Src/fault_command.c ****                            (status == HAL_OK) ? "true" : "false",
 1236              		.loc 1 284 3 is_stmt 1 view .LVU196
 1237 0004 33B9     		cbnz	r3, .L57
 284:App/Src/fault_command.c ****                            (status == HAL_OK) ? "true" : "false",
 1238              		.loc 1 284 3 is_stmt 0 discriminator 1 view .LVU197
 1239 0006 044B     		ldr	r3, .L59
 1240              	.LVL110:
 1241              	.L56:
 284:App/Src/fault_command.c ****                            (status == HAL_OK) ? "true" : "false",
 1242              		.loc 1 284 3 discriminator 4 view .LVU198
 1243 0008 0092     		str	r2, [sp]
ARM GAS  C:\Users\hh\AppData\Local\Temp\ccnvB5Va.s 			page 37


 1244 000a 044A     		ldr	r2, .L59+4
 1245              	.LVL111:
 284:App/Src/fault_command.c ****                            (status == HAL_OK) ? "true" : "false",
 1246              		.loc 1 284 3 discriminator 4 view .LVU199
 1247 000c FFF7FEFF 		bl	FaultCommand_WriteFormat
 1248              	.LVL112:
 287:App/Src/fault_command.c **** 
 1249              		.loc 1 287 1 view .LVU200
 1250 0010 03B0     		add	sp, sp, #12
 1251              	.LCFI31:
 1252              		.cfi_remember_state
 1253              		.cfi_def_cfa_offset 4
 1254              		@ sp needed
 1255 0012 00BD     		pop	{pc}
 1256              	.LVL113:
 1257              	.L57:
 1258              	.LCFI32:
 1259              		.cfi_restore_state
 284:App/Src/fault_command.c ****                            (status == HAL_OK) ? "true" : "false",
 1260              		.loc 1 284 3 discriminator 2 view .LVU201
 1261 0014 024B     		ldr	r3, .L59+8
 1262              	.LVL114:
 284:App/Src/fault_command.c ****                            (status == HAL_OK) ? "true" : "false",
 1263              		.loc 1 284 3 discriminator 2 view .LVU202
 1264 0016 F7E7     		b	.L56
 1265              	.L60:
 1266              		.align	2
 1267              	.L59:
 1268 0018 00000000 		.word	.LC37
 1269 001c 10000000 		.word	.LC39
 1270 0020 08000000 		.word	.LC38
 1271              		.cfi_endproc
 1272              	.LFE161:
 1274              		.section	.rodata.FaultCommand_WriteTextStatus.str1.4,"aMS",%progbits,1
 1275              		.align	2
 1276              	.LC40:
 1277 0000 0D0A5B73 		.ascii	"\015\012[status] active_faults=%u\015\012\000"
 1277      74617475 
 1277      735D2061 
 1277      63746976 
 1277      655F6661 
 1278 001e 0000     		.align	2
 1279              	.LC41:
 1280 0020 20207361 		.ascii	"  safety emergency=%u safe=%umV alarm_active=%u ala"
 1280      66657479 
 1280      20656D65 
 1280      7267656E 
 1280      63793D25 
 1281 0053 726D5F6C 		.ascii	"rm_latched=%u alarm_count=%lu\015\012\000"
 1281      61746368 
 1281      65643D25 
 1281      7520616C 
 1281      61726D5F 
 1282 0073 00       		.align	2
 1283              	.LC42:
 1284 0074 20204325 		.ascii	"  C%02u=%umV\000"
 1284      3032753D 
ARM GAS  C:\Users\hh\AppData\Local\Temp\ccnvB5Va.s 			page 38


 1284      25756D56 
 1284      00
 1285 0081 000000   		.align	2
 1286              	.LC43:
 1287 0084 2063616C 		.ascii	" cal=%dmV\000"
 1287      3D25646D 
 1287      5600
 1288 008e 0000     		.align	2
 1289              	.LC44:
 1290 0090 20666175 		.ascii	" fault=%s target=%umV restore=%umV duration=%lums s"
 1290      6C743D25 
 1290      73207461 
 1290      72676574 
 1290      3D25756D 
 1291 00c3 6C65773D 		.ascii	"lew=%umV/ms\000"
 1291      25756D56 
 1291      2F6D7300 
 1292 00cf 00       		.align	2
 1293              	.LC45:
 1294 00d0 0D0A00   		.ascii	"\015\012\000"
 1295              		.section	.text.FaultCommand_WriteTextStatus,"ax",%progbits
 1296              		.align	1
 1297              		.syntax unified
 1298              		.thumb
 1299              		.thumb_func
 1301              	FaultCommand_WriteTextStatus:
 1302              	.LVL115:
 1303              	.LFB158:
 212:App/Src/fault_command.c ****   DacSafety_Status safety = DacSafety_GetStatus();
 1304              		.loc 1 212 1 is_stmt 1 view -0
 1305              		.cfi_startproc
 1306              		@ args = 0, pretend = 0, frame = 32
 1307              		@ frame_needed = 0, uses_anonymous_args = 0
 212:App/Src/fault_command.c ****   DacSafety_Status safety = DacSafety_GetStatus();
 1308              		.loc 1 212 1 is_stmt 0 view .LVU204
 1309 0000 70B5     		push	{r4, r5, r6, lr}
 1310              	.LCFI33:
 1311              		.cfi_def_cfa_offset 16
 1312              		.cfi_offset 4, -16
 1313              		.cfi_offset 5, -12
 1314              		.cfi_offset 6, -8
 1315              		.cfi_offset 14, -4
 1316 0002 8CB0     		sub	sp, sp, #48
 1317              	.LCFI34:
 1318              		.cfi_def_cfa_offset 64
 1319 0004 0546     		mov	r5, r0
 1320 0006 0E46     		mov	r6, r1
 213:App/Src/fault_command.c **** 
 1321              		.loc 1 213 3 is_stmt 1 view .LVU205
 213:App/Src/fault_command.c **** 
 1322              		.loc 1 213 29 is_stmt 0 view .LVU206
 1323 0008 08A8     		add	r0, sp, #32
 1324              	.LVL116:
 213:App/Src/fault_command.c **** 
 1325              		.loc 1 213 29 view .LVU207
 1326 000a FFF7FEFF 		bl	DacSafety_GetStatus
 1327              	.LVL117:
ARM GAS  C:\Users\hh\AppData\Local\Temp\ccnvB5Va.s 			page 39


 215:App/Src/fault_command.c ****                            VoltageSim_GetActiveFaultCount());
 1328              		.loc 1 215 3 is_stmt 1 view .LVU208
 216:App/Src/fault_command.c ****   FaultCommand_WriteFormat(write,
 1329              		.loc 1 216 28 is_stmt 0 view .LVU209
 1330 000e FFF7FEFF 		bl	VoltageSim_GetActiveFaultCount
 1331              	.LVL118:
 1332 0012 0346     		mov	r3, r0
 215:App/Src/fault_command.c ****                            VoltageSim_GetActiveFaultCount());
 1333              		.loc 1 215 3 view .LVU210
 1334 0014 2C4A     		ldr	r2, .L69
 1335 0016 3146     		mov	r1, r6
 1336 0018 2846     		mov	r0, r5
 1337 001a FFF7FEFF 		bl	FaultCommand_WriteFormat
 1338              	.LVL119:
 217:App/Src/fault_command.c ****                            context,
 1339              		.loc 1 217 3 is_stmt 1 view .LVU211
 221:App/Src/fault_command.c ****                            safety.alarmActive,
 1340              		.loc 1 221 34 is_stmt 0 view .LVU212
 1341 001e BDF82C30 		ldrh	r3, [sp, #44]
 222:App/Src/fault_command.c ****                            safety.alarmLatched,
 1342              		.loc 1 222 34 view .LVU213
 1343 0022 9DF82220 		ldrb	r2, [sp, #34]	@ zero_extendqisi2
 223:App/Src/fault_command.c ****                            (unsigned long)safety.alarmCount);
 1344              		.loc 1 223 34 view .LVU214
 1345 0026 9DF82310 		ldrb	r1, [sp, #35]	@ zero_extendqisi2
 217:App/Src/fault_command.c ****                            context,
 1346              		.loc 1 217 3 view .LVU215
 1347 002a 0998     		ldr	r0, [sp, #36]
 1348 002c 0390     		str	r0, [sp, #12]
 1349 002e 0291     		str	r1, [sp, #8]
 1350 0030 0192     		str	r2, [sp, #4]
 1351 0032 0093     		str	r3, [sp]
 1352 0034 9DF82030 		ldrb	r3, [sp, #32]	@ zero_extendqisi2
 1353 0038 244A     		ldr	r2, .L69+4
 1354 003a 3146     		mov	r1, r6
 1355 003c 2846     		mov	r0, r5
 1356 003e FFF7FEFF 		bl	FaultCommand_WriteFormat
 1357              	.LVL120:
 226:App/Src/fault_command.c ****   {
 1358              		.loc 1 226 3 is_stmt 1 view .LVU216
 1359              	.LBB5:
 226:App/Src/fault_command.c ****   {
 1360              		.loc 1 226 8 view .LVU217
 226:App/Src/fault_command.c ****   {
 1361              		.loc 1 226 16 is_stmt 0 view .LVU218
 1362 0042 0124     		movs	r4, #1
 226:App/Src/fault_command.c ****   {
 1363              		.loc 1 226 3 view .LVU219
 1364 0044 10E0     		b	.L62
 1365              	.LVL121:
 1366              	.L68:
 1367              	.LBB6:
 235:App/Src/fault_command.c ****                                context,
 1368              		.loc 1 235 7 is_stmt 1 view .LVU220
 238:App/Src/fault_command.c ****     }
 1369              		.loc 1 238 37 is_stmt 0 view .LVU221
 1370 0046 2046     		mov	r0, r4
ARM GAS  C:\Users\hh\AppData\Local\Temp\ccnvB5Va.s 			page 40


 1371 0048 FFF7FEFF 		bl	VoltageSim_GetCellCalibrationOffsetMv
 1372              	.LVL122:
 1373 004c 0346     		mov	r3, r0
 235:App/Src/fault_command.c ****                                context,
 1374              		.loc 1 235 7 view .LVU222
 1375 004e 204A     		ldr	r2, .L69+8
 1376 0050 3146     		mov	r1, r6
 1377 0052 2846     		mov	r0, r5
 1378 0054 FFF7FEFF 		bl	FaultCommand_WriteFormat
 1379              	.LVL123:
 1380 0058 1BE0     		b	.L63
 1381              	.L64:
 251:App/Src/fault_command.c ****   }
 1382              		.loc 1 251 5 is_stmt 1 view .LVU223
 1383 005a 1E4A     		ldr	r2, .L69+12
 1384 005c 3146     		mov	r1, r6
 1385 005e 2846     		mov	r0, r5
 1386 0060 FFF7FEFF 		bl	FaultCommand_Write
 1387              	.LVL124:
 1388              	.LBE6:
 226:App/Src/fault_command.c ****   {
 1389              		.loc 1 226 63 discriminator 2 view .LVU224
 1390 0064 0134     		adds	r4, r4, #1
 1391              	.LVL125:
 226:App/Src/fault_command.c ****   {
 1392              		.loc 1 226 63 is_stmt 0 discriminator 2 view .LVU225
 1393 0066 E4B2     		uxtb	r4, r4
 1394              	.LVL126:
 1395              	.L62:
 226:App/Src/fault_command.c ****   {
 1396              		.loc 1 226 32 is_stmt 1 discriminator 1 view .LVU226
 1397 0068 0D2C     		cmp	r4, #13
 1398 006a 2AD8     		bhi	.L67
 1399              	.LBB7:
 228:App/Src/fault_command.c **** 
 1400              		.loc 1 228 5 view .LVU227
 228:App/Src/fault_command.c **** 
 1401              		.loc 1 228 37 is_stmt 0 view .LVU228
 1402 006c 2146     		mov	r1, r4
 1403 006e 04A8     		add	r0, sp, #16
 1404 0070 FFF7FEFF 		bl	VoltageSim_GetCellFaultInfo
 1405              	.LVL127:
 230:App/Src/fault_command.c ****                              cell,
 1406              		.loc 1 230 5 is_stmt 1 view .LVU229
 232:App/Src/fault_command.c ****     if (VoltageSim_GetCellCalibrationOffsetMv(cell) != 0)
 1407              		.loc 1 232 30 is_stmt 0 view .LVU230
 1408 0074 2046     		mov	r0, r4
 1409 0076 FFF7FEFF 		bl	VoltageSim_GetLastCellVoltageMv
 1410              	.LVL128:
 230:App/Src/fault_command.c ****                              cell,
 1411              		.loc 1 230 5 view .LVU231
 1412 007a 0090     		str	r0, [sp]
 1413 007c 2346     		mov	r3, r4
 1414 007e 164A     		ldr	r2, .L69+16
 1415 0080 3146     		mov	r1, r6
 1416 0082 2846     		mov	r0, r5
 1417 0084 FFF7FEFF 		bl	FaultCommand_WriteFormat
ARM GAS  C:\Users\hh\AppData\Local\Temp\ccnvB5Va.s 			page 41


 1418              	.LVL129:
 233:App/Src/fault_command.c ****     {
 1419              		.loc 1 233 5 is_stmt 1 view .LVU232
 233:App/Src/fault_command.c ****     {
 1420              		.loc 1 233 9 is_stmt 0 view .LVU233
 1421 0088 2046     		mov	r0, r4
 1422 008a FFF7FEFF 		bl	VoltageSim_GetCellCalibrationOffsetMv
 1423              	.LVL130:
 233:App/Src/fault_command.c ****     {
 1424              		.loc 1 233 8 discriminator 1 view .LVU234
 1425 008e 0028     		cmp	r0, #0
 1426 0090 D9D1     		bne	.L68
 1427              	.L63:
 240:App/Src/fault_command.c ****     {
 1428              		.loc 1 240 5 is_stmt 1 view .LVU235
 240:App/Src/fault_command.c ****     {
 1429              		.loc 1 240 13 is_stmt 0 view .LVU236
 1430 0092 9DF81000 		ldrb	r0, [sp, #16]	@ zero_extendqisi2
 240:App/Src/fault_command.c ****     {
 1431              		.loc 1 240 8 view .LVU237
 1432 0096 0028     		cmp	r0, #0
 1433 0098 DFD0     		beq	.L64
 242:App/Src/fault_command.c ****                                context,
 1434              		.loc 1 242 7 is_stmt 1 view .LVU238
 1435 009a FFF7FEFF 		bl	VoltageSim_GetFaultTypeName
 1436              	.LVL131:
 1437 009e 0346     		mov	r3, r0
 246:App/Src/fault_command.c ****                                info.restoreMillivolts,
 1438              		.loc 1 246 36 is_stmt 0 view .LVU239
 1439 00a0 BDF81220 		ldrh	r2, [sp, #18]
 247:App/Src/fault_command.c ****                                (unsigned long)info.durationMs,
 1440              		.loc 1 247 36 view .LVU240
 1441 00a4 BDF81410 		ldrh	r1, [sp, #20]
 249:App/Src/fault_command.c ****     }
 1442              		.loc 1 249 36 view .LVU241
 1443 00a8 BDF81C00 		ldrh	r0, [sp, #28]
 242:App/Src/fault_command.c ****                                context,
 1444              		.loc 1 242 7 view .LVU242
 1445 00ac 0390     		str	r0, [sp, #12]
 1446 00ae 0698     		ldr	r0, [sp, #24]
 1447 00b0 0290     		str	r0, [sp, #8]
 1448 00b2 0191     		str	r1, [sp, #4]
 1449 00b4 0092     		str	r2, [sp]
 1450 00b6 094A     		ldr	r2, .L69+20
 1451 00b8 3146     		mov	r1, r6
 1452 00ba 2846     		mov	r0, r5
 1453 00bc FFF7FEFF 		bl	FaultCommand_WriteFormat
 1454              	.LVL132:
 1455 00c0 CBE7     		b	.L64
 1456              	.L67:
 242:App/Src/fault_command.c ****                                context,
 1457              		.loc 1 242 7 view .LVU243
 1458              	.LBE7:
 1459              	.LBE5:
 253:App/Src/fault_command.c **** 
 1460              		.loc 1 253 1 view .LVU244
 1461 00c2 0CB0     		add	sp, sp, #48
ARM GAS  C:\Users\hh\AppData\Local\Temp\ccnvB5Va.s 			page 42


 1462              	.LCFI35:
 1463              		.cfi_def_cfa_offset 16
 1464              		@ sp needed
 1465 00c4 70BD     		pop	{r4, r5, r6, pc}
 1466              	.LVL133:
 1467              	.L70:
 253:App/Src/fault_command.c **** 
 1468              		.loc 1 253 1 view .LVU245
 1469 00c6 00BF     		.align	2
 1470              	.L69:
 1471 00c8 00000000 		.word	.LC40
 1472 00cc 20000000 		.word	.LC41
 1473 00d0 84000000 		.word	.LC43
 1474 00d4 D0000000 		.word	.LC45
 1475 00d8 74000000 		.word	.LC42
 1476 00dc 90000000 		.word	.LC44
 1477              		.cfi_endproc
 1478              	.LFE158:
 1480              		.section	.rodata.FaultCommand_WriteTextWaveStatus.str1.4,"aMS",%progbits,1
 1481              		.align	2
 1482              	.LC46:
 1483 0000 5B776176 		.ascii	"[wave] active=%u type=%s cell=%u period=%lums last="
 1483      655D2061 
 1483      63746976 
 1483      653D2575 
 1483      20747970 
 1484 0033 25756D56 		.ascii	"%umV\015\012\000"
 1484      0D0A00
 1485              		.section	.text.FaultCommand_WriteTextWaveStatus,"ax",%progbits
 1486              		.align	1
 1487              		.syntax unified
 1488              		.thumb
 1489              		.thumb_func
 1491              	FaultCommand_WriteTextWaveStatus:
 1492              	.LVL134:
 1493              	.LFB153:
  87:App/Src/fault_command.c ****   WaveformGen_Status status = WaveformGen_GetStatus();
 1494              		.loc 1 87 1 is_stmt 1 view -0
 1495              		.cfi_startproc
 1496              		@ args = 0, pretend = 0, frame = 24
 1497              		@ frame_needed = 0, uses_anonymous_args = 0
  87:App/Src/fault_command.c ****   WaveformGen_Status status = WaveformGen_GetStatus();
 1498              		.loc 1 87 1 is_stmt 0 view .LVU247
 1499 0000 70B5     		push	{r4, r5, r6, lr}
 1500              	.LCFI36:
 1501              		.cfi_def_cfa_offset 16
 1502              		.cfi_offset 4, -16
 1503              		.cfi_offset 5, -12
 1504              		.cfi_offset 6, -8
 1505              		.cfi_offset 14, -4
 1506 0002 8AB0     		sub	sp, sp, #40
 1507              	.LCFI37:
 1508              		.cfi_def_cfa_offset 56
 1509 0004 0646     		mov	r6, r0
 1510 0006 0D46     		mov	r5, r1
  88:App/Src/fault_command.c **** 
 1511              		.loc 1 88 3 is_stmt 1 view .LVU248
ARM GAS  C:\Users\hh\AppData\Local\Temp\ccnvB5Va.s 			page 43


  88:App/Src/fault_command.c **** 
 1512              		.loc 1 88 31 is_stmt 0 view .LVU249
 1513 0008 05A8     		add	r0, sp, #20
 1514              	.LVL135:
  88:App/Src/fault_command.c **** 
 1515              		.loc 1 88 31 view .LVU250
 1516 000a FFF7FEFF 		bl	WaveformGen_GetStatus
 1517              	.LVL136:
  90:App/Src/fault_command.c ****                            context,
 1518              		.loc 1 90 3 is_stmt 1 view .LVU251
  93:App/Src/fault_command.c ****                            WaveformGen_GetTypeName(status.type),
 1519              		.loc 1 93 34 is_stmt 0 view .LVU252
 1520 000e 9DF81540 		ldrb	r4, [sp, #21]	@ zero_extendqisi2
  90:App/Src/fault_command.c ****                            context,
 1521              		.loc 1 90 3 view .LVU253
 1522 0012 9DF81400 		ldrb	r0, [sp, #20]	@ zero_extendqisi2
 1523 0016 FFF7FEFF 		bl	WaveformGen_GetTypeName
 1524              	.LVL137:
  95:App/Src/fault_command.c ****                            (unsigned long)status.periodMs,
 1525              		.loc 1 95 34 view .LVU254
 1526 001a 9DF81630 		ldrb	r3, [sp, #22]	@ zero_extendqisi2
  97:App/Src/fault_command.c **** }
 1527              		.loc 1 97 34 view .LVU255
 1528 001e BDF82420 		ldrh	r2, [sp, #36]
  90:App/Src/fault_command.c ****                            context,
 1529              		.loc 1 90 3 view .LVU256
 1530 0022 0392     		str	r2, [sp, #12]
 1531 0024 089A     		ldr	r2, [sp, #32]
 1532 0026 0292     		str	r2, [sp, #8]
 1533 0028 0193     		str	r3, [sp, #4]
 1534 002a 0090     		str	r0, [sp]
 1535 002c 2346     		mov	r3, r4
 1536 002e 034A     		ldr	r2, .L73
 1537 0030 2946     		mov	r1, r5
 1538 0032 3046     		mov	r0, r6
 1539 0034 FFF7FEFF 		bl	FaultCommand_WriteFormat
 1540              	.LVL138:
  98:App/Src/fault_command.c **** 
 1541              		.loc 1 98 1 view .LVU257
 1542 0038 0AB0     		add	sp, sp, #40
 1543              	.LCFI38:
 1544              		.cfi_def_cfa_offset 16
 1545              		@ sp needed
 1546 003a 70BD     		pop	{r4, r5, r6, pc}
 1547              	.LVL139:
 1548              	.L74:
  98:App/Src/fault_command.c **** 
 1549              		.loc 1 98 1 view .LVU258
 1550              		.align	2
 1551              	.L73:
 1552 003c 00000000 		.word	.LC46
 1553              		.cfi_endproc
 1554              	.LFE153:
 1556              		.section	.rodata.FaultCommand_WriteTextCalibrationStatus.str1.4,"aMS",%progbits,1
 1557              		.align	2
 1558              	.LC47:
 1559 0000 0D0A5B63 		.ascii	"\015\012[cal]\015\012\000"
ARM GAS  C:\Users\hh\AppData\Local\Temp\ccnvB5Va.s 			page 44


 1559      616C5D0D 
 1559      0A00
 1560 000a 0000     		.align	2
 1561              	.LC48:
 1562 000c 20204325 		.ascii	"  C%02u offset=%dmV\015\012\000"
 1562      30327520 
 1562      6F666673 
 1562      65743D25 
 1562      646D560D 
 1563              		.section	.text.FaultCommand_WriteTextCalibrationStatus,"ax",%progbits
 1564              		.align	1
 1565              		.syntax unified
 1566              		.thumb
 1567              		.thumb_func
 1569              	FaultCommand_WriteTextCalibrationStatus:
 1570              	.LVL140:
 1571              	.LFB159:
 256:App/Src/fault_command.c ****   FaultCommand_Write(write, context, "\r\n[cal]\r\n");
 1572              		.loc 1 256 1 is_stmt 1 view -0
 1573              		.cfi_startproc
 1574              		@ args = 0, pretend = 0, frame = 0
 1575              		@ frame_needed = 0, uses_anonymous_args = 0
 256:App/Src/fault_command.c ****   FaultCommand_Write(write, context, "\r\n[cal]\r\n");
 1576              		.loc 1 256 1 is_stmt 0 view .LVU260
 1577 0000 70B5     		push	{r4, r5, r6, lr}
 1578              	.LCFI39:
 1579              		.cfi_def_cfa_offset 16
 1580              		.cfi_offset 4, -16
 1581              		.cfi_offset 5, -12
 1582              		.cfi_offset 6, -8
 1583              		.cfi_offset 14, -4
 1584 0002 82B0     		sub	sp, sp, #8
 1585              	.LCFI40:
 1586              		.cfi_def_cfa_offset 24
 1587 0004 0646     		mov	r6, r0
 1588 0006 0D46     		mov	r5, r1
 257:App/Src/fault_command.c **** 
 1589              		.loc 1 257 3 is_stmt 1 view .LVU261
 1590 0008 0A4A     		ldr	r2, .L79
 1591 000a FFF7FEFF 		bl	FaultCommand_Write
 1592              	.LVL141:
 259:App/Src/fault_command.c ****   {
 1593              		.loc 1 259 3 view .LVU262
 1594              	.LBB8:
 259:App/Src/fault_command.c ****   {
 1595              		.loc 1 259 8 view .LVU263
 259:App/Src/fault_command.c ****   {
 1596              		.loc 1 259 16 is_stmt 0 view .LVU264
 1597 000e 0124     		movs	r4, #1
 259:App/Src/fault_command.c ****   {
 1598              		.loc 1 259 3 view .LVU265
 1599 0010 0BE0     		b	.L76
 1600              	.LVL142:
 1601              	.L77:
 261:App/Src/fault_command.c ****                              context,
 1602              		.loc 1 261 5 is_stmt 1 view .LVU266
 265:App/Src/fault_command.c ****   }
ARM GAS  C:\Users\hh\AppData\Local\Temp\ccnvB5Va.s 			page 45


 1603              		.loc 1 265 35 is_stmt 0 view .LVU267
 1604 0012 2046     		mov	r0, r4
 1605 0014 FFF7FEFF 		bl	VoltageSim_GetCellCalibrationOffsetMv
 1606              	.LVL143:
 261:App/Src/fault_command.c ****                              context,
 1607              		.loc 1 261 5 view .LVU268
 1608 0018 0090     		str	r0, [sp]
 1609 001a 2346     		mov	r3, r4
 1610 001c 064A     		ldr	r2, .L79+4
 1611 001e 2946     		mov	r1, r5
 1612 0020 3046     		mov	r0, r6
 1613 0022 FFF7FEFF 		bl	FaultCommand_WriteFormat
 1614              	.LVL144:
 259:App/Src/fault_command.c ****   {
 1615              		.loc 1 259 63 is_stmt 1 discriminator 3 view .LVU269
 1616 0026 0134     		adds	r4, r4, #1
 1617              	.LVL145:
 259:App/Src/fault_command.c ****   {
 1618              		.loc 1 259 63 is_stmt 0 discriminator 3 view .LVU270
 1619 0028 E4B2     		uxtb	r4, r4
 1620              	.LVL146:
 1621              	.L76:
 259:App/Src/fault_command.c ****   {
 1622              		.loc 1 259 32 is_stmt 1 discriminator 1 view .LVU271
 1623 002a 0D2C     		cmp	r4, #13
 1624 002c F1D9     		bls	.L77
 1625              	.LBE8:
 267:App/Src/fault_command.c **** 
 1626              		.loc 1 267 1 is_stmt 0 view .LVU272
 1627 002e 02B0     		add	sp, sp, #8
 1628              	.LCFI41:
 1629              		.cfi_def_cfa_offset 16
 1630              		@ sp needed
 1631 0030 70BD     		pop	{r4, r5, r6, pc}
 1632              	.LVL147:
 1633              	.L80:
 267:App/Src/fault_command.c **** 
 1634              		.loc 1 267 1 view .LVU273
 1635 0032 00BF     		.align	2
 1636              	.L79:
 1637 0034 00000000 		.word	.LC47
 1638 0038 0C000000 		.word	.LC48
 1639              		.cfi_endproc
 1640              	.LFE159:
 1642              		.section	.rodata.FaultCommand_WriteTextSafetyStatus.str1.4,"aMS",%progbits,1
 1643              		.align	2
 1644              	.LC49:
 1645 0000 0D0A5B73 		.ascii	"\015\012[safe] emergency=%u safe_mv=%u alarm_pin=%u"
 1645      6166655D 
 1645      20656D65 
 1645      7267656E 
 1645      63793D25 
 1646 002d 20616C61 		.ascii	" alarm_active=%u alarm_latched=%u alarm_count=%lu l"
 1646      726D5F61 
 1646      63746976 
 1646      653D2575 
 1646      20616C61 
ARM GAS  C:\Users\hh\AppData\Local\Temp\ccnvB5Va.s 			page 46


 1647 0060 6173745F 		.ascii	"ast_alarm_tick=%lu\015\012\000"
 1647      616C6172 
 1647      6D5F7469 
 1647      636B3D25 
 1647      6C750D0A 
 1648              		.section	.text.FaultCommand_WriteTextSafetyStatus,"ax",%progbits
 1649              		.align	1
 1650              		.syntax unified
 1651              		.thumb
 1652              		.thumb_func
 1654              	FaultCommand_WriteTextSafetyStatus:
 1655              	.LVL148:
 1656              	.LFB156:
 167:App/Src/fault_command.c ****   DacSafety_Status status = DacSafety_GetStatus();
 1657              		.loc 1 167 1 is_stmt 1 view -0
 1658              		.cfi_startproc
 1659              		@ args = 0, pretend = 0, frame = 16
 1660              		@ frame_needed = 0, uses_anonymous_args = 0
 167:App/Src/fault_command.c ****   DacSafety_Status status = DacSafety_GetStatus();
 1661              		.loc 1 167 1 is_stmt 0 view .LVU275
 1662 0000 70B5     		push	{r4, r5, r6, lr}
 1663              	.LCFI42:
 1664              		.cfi_def_cfa_offset 16
 1665              		.cfi_offset 4, -16
 1666              		.cfi_offset 5, -12
 1667              		.cfi_offset 6, -8
 1668              		.cfi_offset 14, -4
 1669 0002 8AB0     		sub	sp, sp, #40
 1670              	.LCFI43:
 1671              		.cfi_def_cfa_offset 56
 1672 0004 0646     		mov	r6, r0
 1673 0006 0D46     		mov	r5, r1
 168:App/Src/fault_command.c **** 
 1674              		.loc 1 168 3 is_stmt 1 view .LVU276
 168:App/Src/fault_command.c **** 
 1675              		.loc 1 168 29 is_stmt 0 view .LVU277
 1676 0008 06A8     		add	r0, sp, #24
 1677              	.LVL149:
 168:App/Src/fault_command.c **** 
 1678              		.loc 1 168 29 view .LVU278
 1679 000a FFF7FEFF 		bl	DacSafety_GetStatus
 1680              	.LVL150:
 170:App/Src/fault_command.c ****                            context,
 1681              		.loc 1 170 3 is_stmt 1 view .LVU279
 174:App/Src/fault_command.c ****                            status.alarmPinState,
 1682              		.loc 1 174 34 is_stmt 0 view .LVU280
 1683 000e BDF82430 		ldrh	r3, [sp, #36]
 175:App/Src/fault_command.c ****                            status.alarmActive,
 1684              		.loc 1 175 34 view .LVU281
 1685 0012 9DF81920 		ldrb	r2, [sp, #25]	@ zero_extendqisi2
 176:App/Src/fault_command.c ****                            status.alarmLatched,
 1686              		.loc 1 176 34 view .LVU282
 1687 0016 9DF81A10 		ldrb	r1, [sp, #26]	@ zero_extendqisi2
 177:App/Src/fault_command.c ****                            (unsigned long)status.alarmCount,
 1688              		.loc 1 177 34 view .LVU283
 1689 001a 9DF81B00 		ldrb	r0, [sp, #27]	@ zero_extendqisi2
 170:App/Src/fault_command.c ****                            context,
ARM GAS  C:\Users\hh\AppData\Local\Temp\ccnvB5Va.s 			page 47


 1690              		.loc 1 170 3 view .LVU284
 1691 001e 089C     		ldr	r4, [sp, #32]
 1692 0020 0594     		str	r4, [sp, #20]
 1693 0022 079C     		ldr	r4, [sp, #28]
 1694 0024 0494     		str	r4, [sp, #16]
 1695 0026 0390     		str	r0, [sp, #12]
 1696 0028 0291     		str	r1, [sp, #8]
 1697 002a 0192     		str	r2, [sp, #4]
 1698 002c 0093     		str	r3, [sp]
 1699 002e 9DF81830 		ldrb	r3, [sp, #24]	@ zero_extendqisi2
 1700 0032 034A     		ldr	r2, .L83
 1701 0034 2946     		mov	r1, r5
 1702 0036 3046     		mov	r0, r6
 1703 0038 FFF7FEFF 		bl	FaultCommand_WriteFormat
 1704              	.LVL151:
 180:App/Src/fault_command.c **** 
 1705              		.loc 1 180 1 view .LVU285
 1706 003c 0AB0     		add	sp, sp, #40
 1707              	.LCFI44:
 1708              		.cfi_def_cfa_offset 16
 1709              		@ sp needed
 1710 003e 70BD     		pop	{r4, r5, r6, pc}
 1711              	.LVL152:
 1712              	.L84:
 180:App/Src/fault_command.c **** 
 1713              		.loc 1 180 1 view .LVU286
 1714              		.align	2
 1715              	.L83:
 1716 0040 00000000 		.word	.LC49
 1717              		.cfi_endproc
 1718              	.LFE156:
 1720              		.section	.rodata.FaultCommand_WriteTextResult.str1.4,"aMS",%progbits,1
 1721              		.align	2
 1722              	.LC50:
 1723 0000 4F4B00   		.ascii	"OK\000"
 1724 0003 00       		.align	2
 1725              	.LC51:
 1726 0004 45525200 		.ascii	"ERR\000"
 1727              		.align	2
 1728              	.LC52:
 1729 0008 5B636D64 		.ascii	"[cmd] %s %s\015\012\000"
 1729      5D202573 
 1729      2025730D 
 1729      0A00
 1730              		.section	.text.FaultCommand_WriteTextResult,"ax",%progbits
 1731              		.align	1
 1732              		.syntax unified
 1733              		.thumb
 1734              		.thumb_func
 1736              	FaultCommand_WriteTextResult:
 1737              	.LVL153:
 1738              	.LFB160:
 273:App/Src/fault_command.c ****   FaultCommand_WriteFormat(write, context, "[cmd] %s %s\r\n",
 1739              		.loc 1 273 1 is_stmt 1 view -0
 1740              		.cfi_startproc
 1741              		@ args = 0, pretend = 0, frame = 0
 1742              		@ frame_needed = 0, uses_anonymous_args = 0
ARM GAS  C:\Users\hh\AppData\Local\Temp\ccnvB5Va.s 			page 48


 273:App/Src/fault_command.c ****   FaultCommand_WriteFormat(write, context, "[cmd] %s %s\r\n",
 1743              		.loc 1 273 1 is_stmt 0 view .LVU288
 1744 0000 00B5     		push	{lr}
 1745              	.LCFI45:
 1746              		.cfi_def_cfa_offset 4
 1747              		.cfi_offset 14, -4
 1748 0002 83B0     		sub	sp, sp, #12
 1749              	.LCFI46:
 1750              		.cfi_def_cfa_offset 16
 274:App/Src/fault_command.c ****                            name,
 1751              		.loc 1 274 3 is_stmt 1 view .LVU289
 1752 0004 3BB9     		cbnz	r3, .L87
 274:App/Src/fault_command.c ****                            name,
 1753              		.loc 1 274 3 is_stmt 0 discriminator 1 view .LVU290
 1754 0006 054B     		ldr	r3, .L89
 1755              	.LVL154:
 1756              	.L86:
 274:App/Src/fault_command.c ****                            name,
 1757              		.loc 1 274 3 discriminator 4 view .LVU291
 1758 0008 0093     		str	r3, [sp]
 1759 000a 1346     		mov	r3, r2
 1760 000c 044A     		ldr	r2, .L89+4
 1761              	.LVL155:
 274:App/Src/fault_command.c ****                            name,
 1762              		.loc 1 274 3 discriminator 4 view .LVU292
 1763 000e FFF7FEFF 		bl	FaultCommand_WriteFormat
 1764              	.LVL156:
 277:App/Src/fault_command.c **** 
 1765              		.loc 1 277 1 view .LVU293
 1766 0012 03B0     		add	sp, sp, #12
 1767              	.LCFI47:
 1768              		.cfi_remember_state
 1769              		.cfi_def_cfa_offset 4
 1770              		@ sp needed
 1771 0014 00BD     		pop	{pc}
 1772              	.LVL157:
 1773              	.L87:
 1774              	.LCFI48:
 1775              		.cfi_restore_state
 274:App/Src/fault_command.c ****                            name,
 1776              		.loc 1 274 3 discriminator 2 view .LVU294
 1777 0016 034B     		ldr	r3, .L89+8
 1778              	.LVL158:
 274:App/Src/fault_command.c ****                            name,
 1779              		.loc 1 274 3 discriminator 2 view .LVU295
 1780 0018 F6E7     		b	.L86
 1781              	.L90:
 1782 001a 00BF     		.align	2
 1783              	.L89:
 1784 001c 00000000 		.word	.LC50
 1785 0020 08000000 		.word	.LC52
 1786 0024 04000000 		.word	.LC51
 1787              		.cfi_endproc
 1788              	.LFE160:
 1790              		.section	.rodata.FaultCommand_FindJsonKey.str1.4,"aMS",%progbits,1
 1791              		.align	2
 1792              	.LC53:
ARM GAS  C:\Users\hh\AppData\Local\Temp\ccnvB5Va.s 			page 49


 1793 0000 22257322 		.ascii	"\"%s\"\000"
 1793      00
 1794              		.section	.text.FaultCommand_FindJsonKey,"ax",%progbits
 1795              		.align	1
 1796              		.syntax unified
 1797              		.thumb
 1798              		.thumb_func
 1800              	FaultCommand_FindJsonKey:
 1801              	.LVL159:
 1802              	.LFB175:
 557:App/Src/fault_command.c **** 
 558:App/Src/fault_command.c **** static HAL_StatusTypeDef FaultCommand_ParseCanSendText(const char *line)
 559:App/Src/fault_command.c **** {
 560:App/Src/fault_command.c ****   unsigned long id;
 561:App/Src/fault_command.c ****   unsigned int length;
 562:App/Src/fault_command.c ****   int consumed = 0;
 563:App/Src/fault_command.c ****   const char *cursor;
 564:App/Src/fault_command.c ****   uint8_t data[BSP_CAN_MAX_DATA_LEN] = {0};
 565:App/Src/fault_command.c **** 
 566:App/Src/fault_command.c ****   if (sscanf(line, "can send %lx %u %n", &id, &length, &consumed) < 2)
 567:App/Src/fault_command.c ****   {
 568:App/Src/fault_command.c ****     return HAL_ERROR;
 569:App/Src/fault_command.c ****   }
 570:App/Src/fault_command.c **** 
 571:App/Src/fault_command.c ****   if ((id > 0x7FFUL) || (length > BSP_CAN_MAX_DATA_LEN))
 572:App/Src/fault_command.c ****   {
 573:App/Src/fault_command.c ****     return HAL_ERROR;
 574:App/Src/fault_command.c ****   }
 575:App/Src/fault_command.c **** 
 576:App/Src/fault_command.c ****   cursor = line + consumed;
 577:App/Src/fault_command.c ****   for (uint8_t index = 0U; index < length; index++)
 578:App/Src/fault_command.c ****   {
 579:App/Src/fault_command.c ****     char *endPtr;
 580:App/Src/fault_command.c ****     unsigned long value;
 581:App/Src/fault_command.c **** 
 582:App/Src/fault_command.c ****     cursor = FaultCommand_SkipSpaces(cursor);
 583:App/Src/fault_command.c ****     if ((cursor == NULL) || (*cursor == '\0'))
 584:App/Src/fault_command.c ****     {
 585:App/Src/fault_command.c ****       return HAL_ERROR;
 586:App/Src/fault_command.c ****     }
 587:App/Src/fault_command.c **** 
 588:App/Src/fault_command.c ****     value = strtoul(cursor, &endPtr, 16);
 589:App/Src/fault_command.c ****     if ((endPtr == cursor) || (value > 0xFFUL))
 590:App/Src/fault_command.c ****     {
 591:App/Src/fault_command.c ****       return HAL_ERROR;
 592:App/Src/fault_command.c ****     }
 593:App/Src/fault_command.c **** 
 594:App/Src/fault_command.c ****     data[index] = (uint8_t)value;
 595:App/Src/fault_command.c ****     cursor = endPtr;
 596:App/Src/fault_command.c ****   }
 597:App/Src/fault_command.c **** 
 598:App/Src/fault_command.c ****   return BspCan_SendClassic((uint32_t)id, 0U, data, (uint8_t)length);
 599:App/Src/fault_command.c **** }
 600:App/Src/fault_command.c **** 
 601:App/Src/fault_command.c **** static void FaultCommand_ExecuteText(const char *line, FaultCommand_WriteFn write, void *context)
 602:App/Src/fault_command.c **** {
 603:App/Src/fault_command.c ****   unsigned int cell;
ARM GAS  C:\Users\hh\AppData\Local\Temp\ccnvB5Va.s 			page 50


 604:App/Src/fault_command.c ****   unsigned int millivolts;
 605:App/Src/fault_command.c ****   unsigned int target;
 606:App/Src/fault_command.c ****   unsigned long duration;
 607:App/Src/fault_command.c ****   unsigned int slew;
 608:App/Src/fault_command.c ****   unsigned int lowMv;
 609:App/Src/fault_command.c ****   unsigned int highMv;
 610:App/Src/fault_command.c ****   unsigned int centerMv;
 611:App/Src/fault_command.c ****   unsigned int amplitudeMv;
 612:App/Src/fault_command.c ****   unsigned long periodMs;
 613:App/Src/fault_command.c ****   int calOffsetMv;
 614:App/Src/fault_command.c ****   unsigned int measuredMv;
 615:App/Src/fault_command.c **** 
 616:App/Src/fault_command.c ****   if ((strcmp(line, "help") == 0) || (strcmp(line, "?") == 0))
 617:App/Src/fault_command.c ****   {
 618:App/Src/fault_command.c ****     FaultCommand_WriteTextHelp(write, context);
 619:App/Src/fault_command.c ****   }
 620:App/Src/fault_command.c ****   else if (strcmp(line, "status") == 0)
 621:App/Src/fault_command.c ****   {
 622:App/Src/fault_command.c ****     FaultCommand_WriteTextStatus(write, context);
 623:App/Src/fault_command.c ****   }
 624:App/Src/fault_command.c ****   else if (strncmp(line, "normal", 6U) == 0)
 625:App/Src/fault_command.c ****   {
 626:App/Src/fault_command.c ****     millivolts = VOLTAGE_SIM_DEFAULT_NORMAL_MV;
 627:App/Src/fault_command.c ****     (void)sscanf(line, "normal %u", &millivolts);
 628:App/Src/fault_command.c ****     FaultCommand_WriteTextResult(write,
 629:App/Src/fault_command.c ****                                  context,
 630:App/Src/fault_command.c ****                                  "normal",
 631:App/Src/fault_command.c ****                                  FaultCommand_RunNormal((uint16_t)millivolts));
 632:App/Src/fault_command.c ****   }
 633:App/Src/fault_command.c ****   else if (sscanf(line, "set %u %u", &cell, &millivolts) == 2)
 634:App/Src/fault_command.c ****   {
 635:App/Src/fault_command.c ****     FaultCommand_WriteTextResult(write,
 636:App/Src/fault_command.c ****                                  context,
 637:App/Src/fault_command.c ****                                  "set",
 638:App/Src/fault_command.c ****                                  FaultCommand_RunSet((uint8_t)cell, (uint16_t)millivolts));
 639:App/Src/fault_command.c ****   }
 640:App/Src/fault_command.c ****   else if (strncmp(line, "ov ", 3U) == 0)
 641:App/Src/fault_command.c ****   {
 642:App/Src/fault_command.c ****     cell = 0U;
 643:App/Src/fault_command.c ****     target = VOLTAGE_SIM_DEFAULT_OV_MV;
 644:App/Src/fault_command.c ****     duration = FAULT_COMMAND_DEFAULT_DURATION_MS;
 645:App/Src/fault_command.c ****     slew = FAULT_COMMAND_DEFAULT_SLEW_MV_PER_MS;
 646:App/Src/fault_command.c ****     if (sscanf(line, "ov %u %u %lu %u", &cell, &target, &duration, &slew) < 1)
 647:App/Src/fault_command.c ****     {
 648:App/Src/fault_command.c ****       FaultCommand_WriteTextResult(write, context, "ov", HAL_ERROR);
 649:App/Src/fault_command.c ****       return;
 650:App/Src/fault_command.c ****     }
 651:App/Src/fault_command.c **** 
 652:App/Src/fault_command.c ****     FaultCommand_WriteTextResult(write,
 653:App/Src/fault_command.c ****                                  context,
 654:App/Src/fault_command.c ****                                  "ov",
 655:App/Src/fault_command.c ****                                  FaultCommand_RunOverVoltage((uint8_t)cell,
 656:App/Src/fault_command.c ****                                                              (uint16_t)target,
 657:App/Src/fault_command.c ****                                                              (uint32_t)duration,
 658:App/Src/fault_command.c ****                                                              (uint16_t)slew));
 659:App/Src/fault_command.c ****   }
 660:App/Src/fault_command.c ****   else if (strncmp(line, "uv ", 3U) == 0)
ARM GAS  C:\Users\hh\AppData\Local\Temp\ccnvB5Va.s 			page 51


 661:App/Src/fault_command.c ****   {
 662:App/Src/fault_command.c ****     cell = 0U;
 663:App/Src/fault_command.c ****     target = VOLTAGE_SIM_DEFAULT_UV_MV;
 664:App/Src/fault_command.c ****     duration = FAULT_COMMAND_DEFAULT_DURATION_MS;
 665:App/Src/fault_command.c ****     slew = FAULT_COMMAND_DEFAULT_SLEW_MV_PER_MS;
 666:App/Src/fault_command.c ****     if (sscanf(line, "uv %u %u %lu %u", &cell, &target, &duration, &slew) < 1)
 667:App/Src/fault_command.c ****     {
 668:App/Src/fault_command.c ****       FaultCommand_WriteTextResult(write, context, "uv", HAL_ERROR);
 669:App/Src/fault_command.c ****       return;
 670:App/Src/fault_command.c ****     }
 671:App/Src/fault_command.c **** 
 672:App/Src/fault_command.c ****     FaultCommand_WriteTextResult(write,
 673:App/Src/fault_command.c ****                                  context,
 674:App/Src/fault_command.c ****                                  "uv",
 675:App/Src/fault_command.c ****                                  FaultCommand_RunUnderVoltage((uint8_t)cell,
 676:App/Src/fault_command.c ****                                                               (uint16_t)target,
 677:App/Src/fault_command.c ****                                                               (uint32_t)duration,
 678:App/Src/fault_command.c ****                                                               (uint16_t)slew));
 679:App/Src/fault_command.c ****   }
 680:App/Src/fault_command.c ****   else if (strncmp(line, "diff ", 5U) == 0)
 681:App/Src/fault_command.c ****   {
 682:App/Src/fault_command.c ****     unsigned int highCell;
 683:App/Src/fault_command.c ****     unsigned int highMv;
 684:App/Src/fault_command.c ****     unsigned int lowCell;
 685:App/Src/fault_command.c ****     unsigned int lowMv;
 686:App/Src/fault_command.c **** 
 687:App/Src/fault_command.c ****     duration = FAULT_COMMAND_DEFAULT_DURATION_MS;
 688:App/Src/fault_command.c ****     slew = FAULT_COMMAND_DEFAULT_SLEW_MV_PER_MS;
 689:App/Src/fault_command.c ****     if (sscanf(line,
 690:App/Src/fault_command.c ****                "diff %u %u %u %u %lu %u",
 691:App/Src/fault_command.c ****                &highCell,
 692:App/Src/fault_command.c ****                &highMv,
 693:App/Src/fault_command.c ****                &lowCell,
 694:App/Src/fault_command.c ****                &lowMv,
 695:App/Src/fault_command.c ****                &duration,
 696:App/Src/fault_command.c ****                &slew) < 4)
 697:App/Src/fault_command.c ****     {
 698:App/Src/fault_command.c ****       FaultCommand_WriteTextResult(write, context, "diff", HAL_ERROR);
 699:App/Src/fault_command.c ****       return;
 700:App/Src/fault_command.c ****     }
 701:App/Src/fault_command.c **** 
 702:App/Src/fault_command.c ****     FaultCommand_WriteTextResult(write,
 703:App/Src/fault_command.c ****                                  context,
 704:App/Src/fault_command.c ****                                  "diff",
 705:App/Src/fault_command.c ****                                  FaultCommand_RunDiff((uint8_t)highCell,
 706:App/Src/fault_command.c ****                                                       (uint16_t)highMv,
 707:App/Src/fault_command.c ****                                                       (uint8_t)lowCell,
 708:App/Src/fault_command.c ****                                                       (uint16_t)lowMv,
 709:App/Src/fault_command.c ****                                                       (uint32_t)duration,
 710:App/Src/fault_command.c ****                                                       (uint16_t)slew));
 711:App/Src/fault_command.c ****   }
 712:App/Src/fault_command.c ****   else if (strcmp(line, "wave status") == 0)
 713:App/Src/fault_command.c ****   {
 714:App/Src/fault_command.c ****     FaultCommand_WriteTextWaveStatus(write, context);
 715:App/Src/fault_command.c ****   }
 716:App/Src/fault_command.c ****   else if (strcmp(line, "wave stop") == 0)
 717:App/Src/fault_command.c ****   {
ARM GAS  C:\Users\hh\AppData\Local\Temp\ccnvB5Va.s 			page 52


 718:App/Src/fault_command.c ****     WaveformGen_Stop();
 719:App/Src/fault_command.c ****     FaultCommand_WriteTextResult(write, context, "wave", HAL_OK);
 720:App/Src/fault_command.c ****   }
 721:App/Src/fault_command.c ****   else if (strncmp(line, "wave square ", 12U) == 0)
 722:App/Src/fault_command.c ****   {
 723:App/Src/fault_command.c ****     if (DacSafety_IsOutputAllowed() == 0U)
 724:App/Src/fault_command.c ****     {
 725:App/Src/fault_command.c ****       FaultCommand_WriteTextResult(write, context, "wave", HAL_BUSY);
 726:App/Src/fault_command.c ****       return;
 727:App/Src/fault_command.c ****     }
 728:App/Src/fault_command.c **** 
 729:App/Src/fault_command.c ****     if (sscanf(line,
 730:App/Src/fault_command.c ****                "wave square %u %u %u %lu",
 731:App/Src/fault_command.c ****                &cell,
 732:App/Src/fault_command.c ****                &lowMv,
 733:App/Src/fault_command.c ****                &highMv,
 734:App/Src/fault_command.c ****                &periodMs) != 4)
 735:App/Src/fault_command.c ****     {
 736:App/Src/fault_command.c ****       FaultCommand_WriteTextResult(write, context, "wave", HAL_ERROR);
 737:App/Src/fault_command.c ****       return;
 738:App/Src/fault_command.c ****     }
 739:App/Src/fault_command.c **** 
 740:App/Src/fault_command.c ****     FaultCommand_WriteTextResult(write,
 741:App/Src/fault_command.c ****                                  context,
 742:App/Src/fault_command.c ****                                  "wave",
 743:App/Src/fault_command.c ****                                  WaveformGen_StartSquare((uint8_t)cell,
 744:App/Src/fault_command.c ****                                                          (uint16_t)lowMv,
 745:App/Src/fault_command.c ****                                                          (uint16_t)highMv,
 746:App/Src/fault_command.c ****                                                          (uint32_t)periodMs));
 747:App/Src/fault_command.c ****   }
 748:App/Src/fault_command.c ****   else if (strncmp(line, "wave sine all ", 14U) == 0)
 749:App/Src/fault_command.c ****   {
 750:App/Src/fault_command.c ****     if (DacSafety_IsOutputAllowed() == 0U)
 751:App/Src/fault_command.c ****     {
 752:App/Src/fault_command.c ****       FaultCommand_WriteTextResult(write, context, "wave", HAL_BUSY);
 753:App/Src/fault_command.c ****       return;
 754:App/Src/fault_command.c ****     }
 755:App/Src/fault_command.c **** 
 756:App/Src/fault_command.c ****     if (sscanf(line,
 757:App/Src/fault_command.c ****                "wave sine all %u %u %lu",
 758:App/Src/fault_command.c ****                &centerMv,
 759:App/Src/fault_command.c ****                &amplitudeMv,
 760:App/Src/fault_command.c ****                &periodMs) != 3)
 761:App/Src/fault_command.c ****     {
 762:App/Src/fault_command.c ****       FaultCommand_WriteTextResult(write, context, "wave", HAL_ERROR);
 763:App/Src/fault_command.c ****       return;
 764:App/Src/fault_command.c ****     }
 765:App/Src/fault_command.c **** 
 766:App/Src/fault_command.c ****     FaultCommand_WriteTextResult(write,
 767:App/Src/fault_command.c ****                                  context,
 768:App/Src/fault_command.c ****                                  "wave",
 769:App/Src/fault_command.c ****                                  WaveformGen_StartSineAll((uint16_t)centerMv,
 770:App/Src/fault_command.c ****                                                           (uint16_t)amplitudeMv,
 771:App/Src/fault_command.c ****                                                           (uint32_t)periodMs));
 772:App/Src/fault_command.c ****   }
 773:App/Src/fault_command.c ****   else if (strncmp(line, "wave sine ", 10U) == 0)
 774:App/Src/fault_command.c ****   {
ARM GAS  C:\Users\hh\AppData\Local\Temp\ccnvB5Va.s 			page 53


 775:App/Src/fault_command.c ****     if (DacSafety_IsOutputAllowed() == 0U)
 776:App/Src/fault_command.c ****     {
 777:App/Src/fault_command.c ****       FaultCommand_WriteTextResult(write, context, "wave", HAL_BUSY);
 778:App/Src/fault_command.c ****       return;
 779:App/Src/fault_command.c ****     }
 780:App/Src/fault_command.c **** 
 781:App/Src/fault_command.c ****     if (sscanf(line,
 782:App/Src/fault_command.c ****                "wave sine %u %u %u %lu",
 783:App/Src/fault_command.c ****                &cell,
 784:App/Src/fault_command.c ****                &centerMv,
 785:App/Src/fault_command.c ****                &amplitudeMv,
 786:App/Src/fault_command.c ****                &periodMs) != 4)
 787:App/Src/fault_command.c ****     {
 788:App/Src/fault_command.c ****       FaultCommand_WriteTextResult(write, context, "wave", HAL_ERROR);
 789:App/Src/fault_command.c ****       return;
 790:App/Src/fault_command.c ****     }
 791:App/Src/fault_command.c **** 
 792:App/Src/fault_command.c ****     FaultCommand_WriteTextResult(write,
 793:App/Src/fault_command.c ****                                  context,
 794:App/Src/fault_command.c ****                                  "wave",
 795:App/Src/fault_command.c ****                                  WaveformGen_StartSine((uint8_t)cell,
 796:App/Src/fault_command.c ****                                                        (uint16_t)centerMv,
 797:App/Src/fault_command.c ****                                                        (uint16_t)amplitudeMv,
 798:App/Src/fault_command.c ****                                                        (uint32_t)periodMs));
 799:App/Src/fault_command.c ****   }
 800:App/Src/fault_command.c ****   else if (strcmp(line, "cal status") == 0)
 801:App/Src/fault_command.c ****   {
 802:App/Src/fault_command.c ****     FaultCommand_WriteTextCalibrationStatus(write, context);
 803:App/Src/fault_command.c ****   }
 804:App/Src/fault_command.c ****   else if (strncmp(line, "cal set ", 8U) == 0)
 805:App/Src/fault_command.c ****   {
 806:App/Src/fault_command.c ****     if (DacSafety_IsOutputAllowed() == 0U)
 807:App/Src/fault_command.c ****     {
 808:App/Src/fault_command.c ****       FaultCommand_WriteTextResult(write, context, "cal", HAL_BUSY);
 809:App/Src/fault_command.c ****       return;
 810:App/Src/fault_command.c ****     }
 811:App/Src/fault_command.c **** 
 812:App/Src/fault_command.c ****     if (sscanf(line, "cal set %u %d", &cell, &calOffsetMv) != 2)
 813:App/Src/fault_command.c ****     {
 814:App/Src/fault_command.c ****       FaultCommand_WriteTextResult(write, context, "cal", HAL_ERROR);
 815:App/Src/fault_command.c ****       return;
 816:App/Src/fault_command.c ****     }
 817:App/Src/fault_command.c **** 
 818:App/Src/fault_command.c ****     FaultCommand_WriteTextResult(write,
 819:App/Src/fault_command.c ****                                  context,
 820:App/Src/fault_command.c ****                                  "cal",
 821:App/Src/fault_command.c ****                                  VoltageSim_SetCellCalibrationOffsetMv((uint8_t)cell,
 822:App/Src/fault_command.c ****                                                                         (int16_t)calOffsetMv));
 823:App/Src/fault_command.c ****   }
 824:App/Src/fault_command.c ****   else if (strncmp(line, "cal trim ", 9U) == 0)
 825:App/Src/fault_command.c ****   {
 826:App/Src/fault_command.c ****     if (DacSafety_IsOutputAllowed() == 0U)
 827:App/Src/fault_command.c ****     {
 828:App/Src/fault_command.c ****       FaultCommand_WriteTextResult(write, context, "cal", HAL_BUSY);
 829:App/Src/fault_command.c ****       return;
 830:App/Src/fault_command.c ****     }
 831:App/Src/fault_command.c **** 
ARM GAS  C:\Users\hh\AppData\Local\Temp\ccnvB5Va.s 			page 54


 832:App/Src/fault_command.c ****     if (sscanf(line, "cal trim %u %u %u", &cell, &target, &measuredMv) != 3)
 833:App/Src/fault_command.c ****     {
 834:App/Src/fault_command.c ****       FaultCommand_WriteTextResult(write, context, "cal", HAL_ERROR);
 835:App/Src/fault_command.c ****       return;
 836:App/Src/fault_command.c ****     }
 837:App/Src/fault_command.c **** 
 838:App/Src/fault_command.c ****     FaultCommand_WriteTextResult(write,
 839:App/Src/fault_command.c ****                                  context,
 840:App/Src/fault_command.c ****                                  "cal",
 841:App/Src/fault_command.c ****                                  FaultCommand_RunCalibrationTrim((uint8_t)cell,
 842:App/Src/fault_command.c ****                                                                  (uint16_t)target,
 843:App/Src/fault_command.c ****                                                                  (uint16_t)measuredMv));
 844:App/Src/fault_command.c ****   }
 845:App/Src/fault_command.c ****   else if (strncmp(line, "cal clear", 9U) == 0)
 846:App/Src/fault_command.c ****   {
 847:App/Src/fault_command.c ****     if (DacSafety_IsOutputAllowed() == 0U)
 848:App/Src/fault_command.c ****     {
 849:App/Src/fault_command.c ****       FaultCommand_WriteTextResult(write, context, "cal", HAL_BUSY);
 850:App/Src/fault_command.c ****       return;
 851:App/Src/fault_command.c ****     }
 852:App/Src/fault_command.c **** 
 853:App/Src/fault_command.c ****     if (sscanf(line, "cal clear %u", &cell) == 1)
 854:App/Src/fault_command.c ****     {
 855:App/Src/fault_command.c ****       FaultCommand_WriteTextResult(write,
 856:App/Src/fault_command.c ****                                    context,
 857:App/Src/fault_command.c ****                                    "cal",
 858:App/Src/fault_command.c ****                                    VoltageSim_ClearCellCalibrationOffset((uint8_t)cell));
 859:App/Src/fault_command.c ****     }
 860:App/Src/fault_command.c ****     else
 861:App/Src/fault_command.c ****     {
 862:App/Src/fault_command.c ****       VoltageSim_ClearAllCalibrationOffsets();
 863:App/Src/fault_command.c ****       FaultCommand_WriteTextResult(write, context, "cal", HAL_OK);
 864:App/Src/fault_command.c ****     }
 865:App/Src/fault_command.c ****   }
 866:App/Src/fault_command.c ****   else if (strncmp(line, "test static ", 12U) == 0)
 867:App/Src/fault_command.c ****   {
 868:App/Src/fault_command.c ****     if (sscanf(line, "test static %u", &millivolts) != 1)
 869:App/Src/fault_command.c ****     {
 870:App/Src/fault_command.c ****       FaultCommand_WriteTextResult(write, context, "test", HAL_ERROR);
 871:App/Src/fault_command.c ****       return;
 872:App/Src/fault_command.c ****     }
 873:App/Src/fault_command.c **** 
 874:App/Src/fault_command.c ****     FaultCommand_WriteTextResult(write,
 875:App/Src/fault_command.c ****                                  context,
 876:App/Src/fault_command.c ****                                  "test",
 877:App/Src/fault_command.c ****                                  FaultCommand_RunNormal((uint16_t)millivolts));
 878:App/Src/fault_command.c ****   }
 879:App/Src/fault_command.c ****   else if (strncmp(line, "test slew ", 10U) == 0)
 880:App/Src/fault_command.c ****   {
 881:App/Src/fault_command.c ****     if (DacSafety_IsOutputAllowed() == 0U)
 882:App/Src/fault_command.c ****     {
 883:App/Src/fault_command.c ****       FaultCommand_WriteTextResult(write, context, "test", HAL_BUSY);
 884:App/Src/fault_command.c ****       return;
 885:App/Src/fault_command.c ****     }
 886:App/Src/fault_command.c **** 
 887:App/Src/fault_command.c ****     if (sscanf(line,
 888:App/Src/fault_command.c ****                "test slew %u %u %u %lu",
ARM GAS  C:\Users\hh\AppData\Local\Temp\ccnvB5Va.s 			page 55


 889:App/Src/fault_command.c ****                &cell,
 890:App/Src/fault_command.c ****                &lowMv,
 891:App/Src/fault_command.c ****                &highMv,
 892:App/Src/fault_command.c ****                &periodMs) != 4)
 893:App/Src/fault_command.c ****     {
 894:App/Src/fault_command.c ****       FaultCommand_WriteTextResult(write, context, "test", HAL_ERROR);
 895:App/Src/fault_command.c ****       return;
 896:App/Src/fault_command.c ****     }
 897:App/Src/fault_command.c **** 
 898:App/Src/fault_command.c ****     FaultCommand_WriteTextResult(write,
 899:App/Src/fault_command.c ****                                  context,
 900:App/Src/fault_command.c ****                                  "test",
 901:App/Src/fault_command.c ****                                  WaveformGen_StartSquare((uint8_t)cell,
 902:App/Src/fault_command.c ****                                                          (uint16_t)lowMv,
 903:App/Src/fault_command.c ****                                                          (uint16_t)highMv,
 904:App/Src/fault_command.c ****                                                          (uint32_t)periodMs));
 905:App/Src/fault_command.c ****   }
 906:App/Src/fault_command.c ****   else if (strcmp(line, "can status") == 0)
 907:App/Src/fault_command.c ****   {
 908:App/Src/fault_command.c ****     FaultCommand_WriteTextCanStatus(write, context);
 909:App/Src/fault_command.c ****   }
 910:App/Src/fault_command.c ****   else if (strncmp(line, "can send ", 9U) == 0)
 911:App/Src/fault_command.c ****   {
 912:App/Src/fault_command.c ****     FaultCommand_WriteTextResult(write,
 913:App/Src/fault_command.c ****                                  context,
 914:App/Src/fault_command.c ****                                  "can",
 915:App/Src/fault_command.c ****                                  FaultCommand_ParseCanSendText(line));
 916:App/Src/fault_command.c ****   }
 917:App/Src/fault_command.c ****   else if (strcmp(line, "log status") == 0)
 918:App/Src/fault_command.c ****   {
 919:App/Src/fault_command.c ****     FaultCommand_WriteTextBmsResponseLog(write, context);
 920:App/Src/fault_command.c ****   }
 921:App/Src/fault_command.c ****   else if (strcmp(line, "log clear") == 0)
 922:App/Src/fault_command.c ****   {
 923:App/Src/fault_command.c ****     BmsResponseLog_Clear();
 924:App/Src/fault_command.c ****     FaultCommand_WriteTextResult(write, context, "log", HAL_OK);
 925:App/Src/fault_command.c ****   }
 926:App/Src/fault_command.c ****   else if (strcmp(line, "safe status") == 0)
 927:App/Src/fault_command.c ****   {
 928:App/Src/fault_command.c ****     FaultCommand_WriteTextSafetyStatus(write, context);
 929:App/Src/fault_command.c ****   }
 930:App/Src/fault_command.c ****   else if ((strncmp(line, "safe stop", 9U) == 0) ||
 931:App/Src/fault_command.c ****            (strncmp(line, "emergency stop", 14U) == 0))
 932:App/Src/fault_command.c ****   {
 933:App/Src/fault_command.c ****     millivolts = DAC_SAFETY_DEFAULT_SAFE_MV;
 934:App/Src/fault_command.c ****     (void)sscanf(line, "safe stop %u", &millivolts);
 935:App/Src/fault_command.c ****     (void)sscanf(line, "emergency stop %u", &millivolts);
 936:App/Src/fault_command.c ****     FaultCommand_WriteTextResult(write,
 937:App/Src/fault_command.c ****                                  context,
 938:App/Src/fault_command.c ****                                  "safe",
 939:App/Src/fault_command.c ****                                  DacSafety_EmergencyStop((uint16_t)millivolts));
 940:App/Src/fault_command.c ****   }
 941:App/Src/fault_command.c ****   else if (strcmp(line, "safe release") == 0)
 942:App/Src/fault_command.c ****   {
 943:App/Src/fault_command.c ****     DacSafety_Release();
 944:App/Src/fault_command.c ****     FaultCommand_WriteTextResult(write, context, "safe", HAL_OK);
 945:App/Src/fault_command.c ****   }
ARM GAS  C:\Users\hh\AppData\Local\Temp\ccnvB5Va.s 			page 56


 946:App/Src/fault_command.c ****   else if (strcmp(line, "sram status") == 0)
 947:App/Src/fault_command.c ****   {
 948:App/Src/fault_command.c ****     FaultCommand_WriteTextSramStatus(write, context);
 949:App/Src/fault_command.c ****   }
 950:App/Src/fault_command.c ****   else if (strncmp(line, "sram test", 9U) == 0)
 951:App/Src/fault_command.c ****   {
 952:App/Src/fault_command.c ****     unsigned long bytes = BSP_SRAM_DEFAULT_TEST_BYTES;
 953:App/Src/fault_command.c ****     HAL_StatusTypeDef status;
 954:App/Src/fault_command.c **** 
 955:App/Src/fault_command.c ****     (void)sscanf(line, "sram test %lu", &bytes);
 956:App/Src/fault_command.c ****     status = BspSram_RunSelfTest((uint32_t)bytes);
 957:App/Src/fault_command.c ****     FaultCommand_WriteTextResult(write, context, "sram", status);
 958:App/Src/fault_command.c ****     FaultCommand_WriteTextSramStatus(write, context);
 959:App/Src/fault_command.c ****   }
 960:App/Src/fault_command.c ****   else if (strncmp(line, "clear", 5U) == 0)
 961:App/Src/fault_command.c ****   {
 962:App/Src/fault_command.c ****     if (DacSafety_IsOutputAllowed() == 0U)
 963:App/Src/fault_command.c ****     {
 964:App/Src/fault_command.c ****       FaultCommand_WriteTextResult(write, context, "clear", HAL_BUSY);
 965:App/Src/fault_command.c ****       return;
 966:App/Src/fault_command.c ****     }
 967:App/Src/fault_command.c **** 
 968:App/Src/fault_command.c ****     WaveformGen_Stop();
 969:App/Src/fault_command.c ****     if (sscanf(line, "clear %u", &cell) == 1)
 970:App/Src/fault_command.c ****     {
 971:App/Src/fault_command.c ****       FaultCommand_WriteTextResult(write, context, "clear", VoltageSim_ClearCellFault((uint8_t)cell
 972:App/Src/fault_command.c ****     }
 973:App/Src/fault_command.c ****     else
 974:App/Src/fault_command.c ****     {
 975:App/Src/fault_command.c ****       FaultCommand_WriteTextResult(write, context, "clear", VoltageSim_ClearAllFaults());
 976:App/Src/fault_command.c ****     }
 977:App/Src/fault_command.c ****   }
 978:App/Src/fault_command.c ****   else if (*line != '\0')
 979:App/Src/fault_command.c ****   {
 980:App/Src/fault_command.c ****     FaultCommand_WriteFormat(write, context, "[cmd] unknown: %s\r\n", line);
 981:App/Src/fault_command.c ****   }
 982:App/Src/fault_command.c **** }
 983:App/Src/fault_command.c **** 
 984:App/Src/fault_command.c **** static const char *FaultCommand_FindJsonKey(const char *json, const char *key)
 985:App/Src/fault_command.c **** {
 1803              		.loc 1 985 1 is_stmt 1 view -0
 1804              		.cfi_startproc
 1805              		@ args = 0, pretend = 0, frame = 32
 1806              		@ frame_needed = 0, uses_anonymous_args = 0
 1807              		.loc 1 985 1 is_stmt 0 view .LVU297
 1808 0000 30B5     		push	{r4, r5, lr}
 1809              	.LCFI49:
 1810              		.cfi_def_cfa_offset 12
 1811              		.cfi_offset 4, -12
 1812              		.cfi_offset 5, -8
 1813              		.cfi_offset 14, -4
 1814 0002 89B0     		sub	sp, sp, #36
 1815              	.LCFI50:
 1816              		.cfi_def_cfa_offset 48
 1817 0004 0546     		mov	r5, r0
 1818 0006 0B46     		mov	r3, r1
 986:App/Src/fault_command.c ****   char pattern[32];
ARM GAS  C:\Users\hh\AppData\Local\Temp\ccnvB5Va.s 			page 57


 1819              		.loc 1 986 3 is_stmt 1 view .LVU298
 987:App/Src/fault_command.c **** 
 988:App/Src/fault_command.c ****   (void)snprintf(pattern, sizeof(pattern), "\"%s\"", key);
 1820              		.loc 1 988 3 view .LVU299
 1821              		.loc 1 988 9 is_stmt 0 view .LVU300
 1822 0008 054A     		ldr	r2, .L93
 1823 000a 2021     		movs	r1, #32
 1824              	.LVL160:
 1825              		.loc 1 988 9 view .LVU301
 1826 000c 6846     		mov	r0, sp
 1827              	.LVL161:
 1828              		.loc 1 988 9 view .LVU302
 1829 000e FFF7FEFF 		bl	snprintf
 1830              	.LVL162:
 989:App/Src/fault_command.c ****   return strstr(json, pattern);
 1831              		.loc 1 989 3 is_stmt 1 view .LVU303
 1832              		.loc 1 989 10 is_stmt 0 view .LVU304
 1833 0012 6946     		mov	r1, sp
 1834 0014 2846     		mov	r0, r5
 1835 0016 FFF7FEFF 		bl	strstr
 1836              	.LVL163:
 990:App/Src/fault_command.c **** }
 1837              		.loc 1 990 1 view .LVU305
 1838 001a 09B0     		add	sp, sp, #36
 1839              	.LCFI51:
 1840              		.cfi_def_cfa_offset 12
 1841              		@ sp needed
 1842 001c 30BD     		pop	{r4, r5, pc}
 1843              	.LVL164:
 1844              	.L94:
 1845              		.loc 1 990 1 view .LVU306
 1846 001e 00BF     		.align	2
 1847              	.L93:
 1848 0020 00000000 		.word	.LC53
 1849              		.cfi_endproc
 1850              	.LFE175:
 1852              		.section	.text.FaultCommand_JsonGetInt,"ax",%progbits
 1853              		.align	1
 1854              		.syntax unified
 1855              		.thumb
 1856              		.thumb_func
 1858              	FaultCommand_JsonGetInt:
 1859              	.LVL165:
 1860              	.LFB178:
 991:App/Src/fault_command.c **** 
 992:App/Src/fault_command.c **** static uint8_t FaultCommand_JsonGetString(const char *json,
 993:App/Src/fault_command.c ****                                           const char *key,
 994:App/Src/fault_command.c ****                                           char *value,
 995:App/Src/fault_command.c ****                                           uint32_t valueSize)
 996:App/Src/fault_command.c **** {
 997:App/Src/fault_command.c ****   const char *cursor = FaultCommand_FindJsonKey(json, key);
 998:App/Src/fault_command.c ****   uint32_t index = 0U;
 999:App/Src/fault_command.c **** 
1000:App/Src/fault_command.c ****   if ((cursor == NULL) || (value == NULL) || (valueSize == 0U))
1001:App/Src/fault_command.c ****   {
1002:App/Src/fault_command.c ****     return 0U;
1003:App/Src/fault_command.c ****   }
ARM GAS  C:\Users\hh\AppData\Local\Temp\ccnvB5Va.s 			page 58


1004:App/Src/fault_command.c **** 
1005:App/Src/fault_command.c ****   cursor = strchr(cursor, ':');
1006:App/Src/fault_command.c ****   if (cursor == NULL)
1007:App/Src/fault_command.c ****   {
1008:App/Src/fault_command.c ****     return 0U;
1009:App/Src/fault_command.c ****   }
1010:App/Src/fault_command.c **** 
1011:App/Src/fault_command.c ****   cursor++;
1012:App/Src/fault_command.c ****   while (*cursor == ' ')
1013:App/Src/fault_command.c ****   {
1014:App/Src/fault_command.c ****     cursor++;
1015:App/Src/fault_command.c ****   }
1016:App/Src/fault_command.c **** 
1017:App/Src/fault_command.c ****   if (*cursor != '"')
1018:App/Src/fault_command.c ****   {
1019:App/Src/fault_command.c ****     return 0U;
1020:App/Src/fault_command.c ****   }
1021:App/Src/fault_command.c **** 
1022:App/Src/fault_command.c ****   cursor++;
1023:App/Src/fault_command.c ****   while ((*cursor != '\0') && (*cursor != '"') && (index < (valueSize - 1U)))
1024:App/Src/fault_command.c ****   {
1025:App/Src/fault_command.c ****     value[index++] = *cursor++;
1026:App/Src/fault_command.c ****   }
1027:App/Src/fault_command.c ****   value[index] = '\0';
1028:App/Src/fault_command.c **** 
1029:App/Src/fault_command.c ****   return (*cursor == '"') ? 1U : 0U;
1030:App/Src/fault_command.c **** }
1031:App/Src/fault_command.c **** 
1032:App/Src/fault_command.c **** static uint8_t FaultCommand_JsonGetUint(const char *json, const char *key, uint32_t *value)
1033:App/Src/fault_command.c **** {
1034:App/Src/fault_command.c ****   const char *cursor = FaultCommand_FindJsonKey(json, key);
1035:App/Src/fault_command.c **** 
1036:App/Src/fault_command.c ****   if ((cursor == NULL) || (value == NULL))
1037:App/Src/fault_command.c ****   {
1038:App/Src/fault_command.c ****     return 0U;
1039:App/Src/fault_command.c ****   }
1040:App/Src/fault_command.c **** 
1041:App/Src/fault_command.c ****   cursor = strchr(cursor, ':');
1042:App/Src/fault_command.c ****   if (cursor == NULL)
1043:App/Src/fault_command.c ****   {
1044:App/Src/fault_command.c ****     return 0U;
1045:App/Src/fault_command.c ****   }
1046:App/Src/fault_command.c **** 
1047:App/Src/fault_command.c ****   cursor++;
1048:App/Src/fault_command.c ****   while (*cursor == ' ')
1049:App/Src/fault_command.c ****   {
1050:App/Src/fault_command.c ****     cursor++;
1051:App/Src/fault_command.c ****   }
1052:App/Src/fault_command.c **** 
1053:App/Src/fault_command.c ****   *value = (uint32_t)strtoul(cursor, NULL, 10);
1054:App/Src/fault_command.c ****   return 1U;
1055:App/Src/fault_command.c **** }
1056:App/Src/fault_command.c **** 
1057:App/Src/fault_command.c **** static uint8_t FaultCommand_JsonGetInt(const char *json, const char *key, int32_t *value)
1058:App/Src/fault_command.c **** {
 1861              		.loc 1 1058 1 is_stmt 1 view -0
 1862              		.cfi_startproc
ARM GAS  C:\Users\hh\AppData\Local\Temp\ccnvB5Va.s 			page 59


 1863              		@ args = 0, pretend = 0, frame = 0
 1864              		@ frame_needed = 0, uses_anonymous_args = 0
 1865              		.loc 1 1058 1 is_stmt 0 view .LVU308
 1866 0000 10B5     		push	{r4, lr}
 1867              	.LCFI52:
 1868              		.cfi_def_cfa_offset 8
 1869              		.cfi_offset 4, -8
 1870              		.cfi_offset 14, -4
 1871 0002 1446     		mov	r4, r2
1059:App/Src/fault_command.c ****   const char *cursor = FaultCommand_FindJsonKey(json, key);
 1872              		.loc 1 1059 3 is_stmt 1 view .LVU309
 1873              		.loc 1 1059 24 is_stmt 0 view .LVU310
 1874 0004 FFF7FEFF 		bl	FaultCommand_FindJsonKey
 1875              	.LVL166:
1060:App/Src/fault_command.c **** 
1061:App/Src/fault_command.c ****   if ((cursor == NULL) || (value == NULL))
 1876              		.loc 1 1061 3 is_stmt 1 view .LVU311
 1877              		.loc 1 1061 6 is_stmt 0 view .LVU312
 1878 0008 002C     		cmp	r4, #0
 1879 000a 18BF     		it	ne
 1880 000c 0028     		cmpne	r0, #0
 1881 000e 10D0     		beq	.L99
1062:App/Src/fault_command.c ****   {
1063:App/Src/fault_command.c ****     return 0U;
1064:App/Src/fault_command.c ****   }
1065:App/Src/fault_command.c **** 
1066:App/Src/fault_command.c ****   cursor = strchr(cursor, ':');
 1882              		.loc 1 1066 3 is_stmt 1 view .LVU313
 1883              		.loc 1 1066 12 is_stmt 0 view .LVU314
 1884 0010 3A21     		movs	r1, #58
 1885 0012 FFF7FEFF 		bl	strchr
 1886              	.LVL167:
1067:App/Src/fault_command.c ****   if (cursor == NULL)
 1887              		.loc 1 1067 3 is_stmt 1 view .LVU315
 1888              		.loc 1 1067 6 is_stmt 0 view .LVU316
 1889 0016 58B1     		cbz	r0, .L96
1068:App/Src/fault_command.c ****   {
1069:App/Src/fault_command.c ****     return 0U;
1070:App/Src/fault_command.c ****   }
1071:App/Src/fault_command.c **** 
1072:App/Src/fault_command.c ****   cursor++;
 1890              		.loc 1 1072 3 is_stmt 1 view .LVU317
 1891              		.loc 1 1072 9 is_stmt 0 view .LVU318
 1892 0018 0130     		adds	r0, r0, #1
 1893              	.LVL168:
1073:App/Src/fault_command.c ****   while (*cursor == ' ')
 1894              		.loc 1 1073 3 is_stmt 1 view .LVU319
 1895              	.L97:
 1896              		.loc 1 1073 18 view .LVU320
 1897              		.loc 1 1073 10 is_stmt 0 view .LVU321
 1898 001a 0378     		ldrb	r3, [r0]	@ zero_extendqisi2
 1899              		.loc 1 1073 18 view .LVU322
 1900 001c 202B     		cmp	r3, #32
 1901 001e 01D1     		bne	.L102
1074:App/Src/fault_command.c ****   {
1075:App/Src/fault_command.c ****     cursor++;
 1902              		.loc 1 1075 5 is_stmt 1 view .LVU323
ARM GAS  C:\Users\hh\AppData\Local\Temp\ccnvB5Va.s 			page 60


 1903              		.loc 1 1075 11 is_stmt 0 view .LVU324
 1904 0020 0130     		adds	r0, r0, #1
 1905              	.LVL169:
 1906              		.loc 1 1075 11 view .LVU325
 1907 0022 FAE7     		b	.L97
 1908              	.LVL170:
 1909              	.L102:
1076:App/Src/fault_command.c ****   }
1077:App/Src/fault_command.c **** 
1078:App/Src/fault_command.c ****   *value = (int32_t)strtol(cursor, NULL, 10);
 1910              		.loc 1 1078 3 is_stmt 1 view .LVU326
 1911              		.loc 1 1078 12 is_stmt 0 view .LVU327
 1912 0024 0A22     		movs	r2, #10
 1913 0026 0021     		movs	r1, #0
 1914 0028 FFF7FEFF 		bl	strtol
 1915              	.LVL171:
 1916              		.loc 1 1078 10 discriminator 1 view .LVU328
 1917 002c 2060     		str	r0, [r4]
1079:App/Src/fault_command.c ****   return 1U;
 1918              		.loc 1 1079 3 is_stmt 1 view .LVU329
 1919              		.loc 1 1079 10 is_stmt 0 view .LVU330
 1920 002e 0120     		movs	r0, #1
 1921              	.LVL172:
 1922              	.L96:
1080:App/Src/fault_command.c **** }
 1923              		.loc 1 1080 1 view .LVU331
 1924 0030 10BD     		pop	{r4, pc}
 1925              	.LVL173:
 1926              	.L99:
1063:App/Src/fault_command.c ****   }
 1927              		.loc 1 1063 12 view .LVU332
 1928 0032 0020     		movs	r0, #0
 1929              	.LVL174:
1063:App/Src/fault_command.c ****   }
 1930              		.loc 1 1063 12 view .LVU333
 1931 0034 FCE7     		b	.L96
 1932              		.cfi_endproc
 1933              	.LFE178:
 1935              		.section	.text.FaultCommand_JsonGetString,"ax",%progbits
 1936              		.align	1
 1937              		.syntax unified
 1938              		.thumb
 1939              		.thumb_func
 1941              	FaultCommand_JsonGetString:
 1942              	.LVL175:
 1943              	.LFB176:
 996:App/Src/fault_command.c ****   const char *cursor = FaultCommand_FindJsonKey(json, key);
 1944              		.loc 1 996 1 is_stmt 1 view -0
 1945              		.cfi_startproc
 1946              		@ args = 0, pretend = 0, frame = 0
 1947              		@ frame_needed = 0, uses_anonymous_args = 0
 996:App/Src/fault_command.c ****   const char *cursor = FaultCommand_FindJsonKey(json, key);
 1948              		.loc 1 996 1 is_stmt 0 view .LVU335
 1949 0000 38B5     		push	{r3, r4, r5, lr}
 1950              	.LCFI53:
 1951              		.cfi_def_cfa_offset 16
 1952              		.cfi_offset 3, -16
ARM GAS  C:\Users\hh\AppData\Local\Temp\ccnvB5Va.s 			page 61


 1953              		.cfi_offset 4, -12
 1954              		.cfi_offset 5, -8
 1955              		.cfi_offset 14, -4
 1956 0002 1446     		mov	r4, r2
 1957 0004 1D46     		mov	r5, r3
 997:App/Src/fault_command.c ****   uint32_t index = 0U;
 1958              		.loc 1 997 3 is_stmt 1 view .LVU336
 997:App/Src/fault_command.c ****   uint32_t index = 0U;
 1959              		.loc 1 997 24 is_stmt 0 view .LVU337
 1960 0006 FFF7FEFF 		bl	FaultCommand_FindJsonKey
 1961              	.LVL176:
 998:App/Src/fault_command.c **** 
 1962              		.loc 1 998 3 is_stmt 1 view .LVU338
1000:App/Src/fault_command.c ****   {
 1963              		.loc 1 1000 3 view .LVU339
1000:App/Src/fault_command.c ****   {
 1964              		.loc 1 1000 6 is_stmt 0 view .LVU340
 1965 000a 002C     		cmp	r4, #0
 1966 000c 18BF     		it	ne
 1967 000e 0028     		cmpne	r0, #0
 1968 0010 28D0     		beq	.L110
1000:App/Src/fault_command.c ****   {
 1969              		.loc 1 1000 43 discriminator 1 view .LVU341
 1970 0012 4DB3     		cbz	r5, .L111
1005:App/Src/fault_command.c ****   if (cursor == NULL)
 1971              		.loc 1 1005 3 is_stmt 1 view .LVU342
1005:App/Src/fault_command.c ****   if (cursor == NULL)
 1972              		.loc 1 1005 12 is_stmt 0 view .LVU343
 1973 0014 3A21     		movs	r1, #58
 1974 0016 FFF7FEFF 		bl	strchr
 1975              	.LVL177:
1006:App/Src/fault_command.c ****   {
 1976              		.loc 1 1006 3 is_stmt 1 view .LVU344
1006:App/Src/fault_command.c ****   {
 1977              		.loc 1 1006 6 is_stmt 0 view .LVU345
 1978 001a 0146     		mov	r1, r0
 1979 001c 18B3     		cbz	r0, .L104
1011:App/Src/fault_command.c ****   while (*cursor == ' ')
 1980              		.loc 1 1011 3 is_stmt 1 view .LVU346
1011:App/Src/fault_command.c ****   while (*cursor == ' ')
 1981              		.loc 1 1011 9 is_stmt 0 view .LVU347
 1982 001e 0131     		adds	r1, r1, #1
 1983              	.LVL178:
1012:App/Src/fault_command.c ****   {
 1984              		.loc 1 1012 3 is_stmt 1 view .LVU348
1012:App/Src/fault_command.c ****   {
 1985              		.loc 1 1012 9 is_stmt 0 view .LVU349
 1986 0020 00E0     		b	.L105
 1987              	.L106:
1014:App/Src/fault_command.c ****   }
 1988              		.loc 1 1014 5 is_stmt 1 view .LVU350
1014:App/Src/fault_command.c ****   }
 1989              		.loc 1 1014 11 is_stmt 0 view .LVU351
 1990 0022 0131     		adds	r1, r1, #1
 1991              	.LVL179:
 1992              	.L105:
1012:App/Src/fault_command.c ****   {
ARM GAS  C:\Users\hh\AppData\Local\Temp\ccnvB5Va.s 			page 62


 1993              		.loc 1 1012 18 is_stmt 1 view .LVU352
1012:App/Src/fault_command.c ****   {
 1994              		.loc 1 1012 10 is_stmt 0 view .LVU353
 1995 0024 0878     		ldrb	r0, [r1]	@ zero_extendqisi2
1012:App/Src/fault_command.c ****   {
 1996              		.loc 1 1012 18 view .LVU354
 1997 0026 2028     		cmp	r0, #32
 1998 0028 FBD0     		beq	.L106
1017:App/Src/fault_command.c ****   {
 1999              		.loc 1 1017 3 is_stmt 1 view .LVU355
1017:App/Src/fault_command.c ****   {
 2000              		.loc 1 1017 6 is_stmt 0 view .LVU356
 2001 002a 2228     		cmp	r0, #34
 2002 002c 1ED1     		bne	.L113
1022:App/Src/fault_command.c ****   while ((*cursor != '\0') && (*cursor != '"') && (index < (valueSize - 1U)))
 2003              		.loc 1 1022 3 is_stmt 1 view .LVU357
1022:App/Src/fault_command.c ****   while ((*cursor != '\0') && (*cursor != '"') && (index < (valueSize - 1U)))
 2004              		.loc 1 1022 9 is_stmt 0 view .LVU358
 2005 002e 0131     		adds	r1, r1, #1
 2006              	.LVL180:
1023:App/Src/fault_command.c ****   {
 2007              		.loc 1 1023 3 is_stmt 1 view .LVU359
 998:App/Src/fault_command.c **** 
 2008              		.loc 1 998 12 is_stmt 0 view .LVU360
 2009 0030 4FF0000C 		mov	ip, #0
1023:App/Src/fault_command.c ****   {
 2010              		.loc 1 1023 9 view .LVU361
 2011 0034 04E0     		b	.L107
 2012              	.LVL181:
 2013              	.L109:
1025:App/Src/fault_command.c ****   }
 2014              		.loc 1 1025 5 is_stmt 1 view .LVU362
1025:App/Src/fault_command.c ****   }
 2015              		.loc 1 1025 29 is_stmt 0 view .LVU363
 2016 0036 0131     		adds	r1, r1, #1
 2017              	.LVL182:
1025:App/Src/fault_command.c ****   }
 2018              		.loc 1 1025 20 view .LVU364
 2019 0038 04F80C00 		strb	r0, [r4, ip]
1025:App/Src/fault_command.c ****   }
 2020              		.loc 1 1025 16 view .LVU365
 2021 003c 0CF1010C 		add	ip, ip, #1
 2022              	.LVL183:
 2023              	.L107:
1023:App/Src/fault_command.c ****   {
 2024              		.loc 1 1023 48 is_stmt 1 view .LVU366
1023:App/Src/fault_command.c ****   {
 2025              		.loc 1 1023 11 is_stmt 0 view .LVU367
 2026 0040 0878     		ldrb	r0, [r1]	@ zero_extendqisi2
1023:App/Src/fault_command.c ****   {
 2027              		.loc 1 1023 48 view .LVU368
 2028 0042 0028     		cmp	r0, #0
 2029 0044 18BF     		it	ne
 2030 0046 2228     		cmpne	r0, #34
 2031 0048 02D0     		beq	.L108
1023:App/Src/fault_command.c ****   {
 2032              		.loc 1 1023 71 discriminator 1 view .LVU369
ARM GAS  C:\Users\hh\AppData\Local\Temp\ccnvB5Va.s 			page 63


 2033 004a 6B1E     		subs	r3, r5, #1
1023:App/Src/fault_command.c ****   {
 2034              		.loc 1 1023 48 discriminator 1 view .LVU370
 2035 004c 6345     		cmp	r3, ip
 2036 004e F2D8     		bhi	.L109
 2037              	.L108:
1027:App/Src/fault_command.c **** 
 2038              		.loc 1 1027 3 is_stmt 1 view .LVU371
1027:App/Src/fault_command.c **** 
 2039              		.loc 1 1027 16 is_stmt 0 view .LVU372
 2040 0050 0023     		movs	r3, #0
 2041 0052 04F80C30 		strb	r3, [r4, ip]
1029:App/Src/fault_command.c **** }
 2042              		.loc 1 1029 3 is_stmt 1 view .LVU373
1029:App/Src/fault_command.c **** }
 2043              		.loc 1 1029 11 is_stmt 0 view .LVU374
 2044 0056 0B78     		ldrb	r3, [r1]	@ zero_extendqisi2
1029:App/Src/fault_command.c **** }
 2045              		.loc 1 1029 32 view .LVU375
 2046 0058 222B     		cmp	r3, #34
 2047 005a 01D0     		beq	.L116
1029:App/Src/fault_command.c **** }
 2048              		.loc 1 1029 32 discriminator 2 view .LVU376
 2049 005c 0020     		movs	r0, #0
 2050 005e 02E0     		b	.L104
 2051              	.L116:
1029:App/Src/fault_command.c **** }
 2052              		.loc 1 1029 32 discriminator 1 view .LVU377
 2053 0060 0120     		movs	r0, #1
 2054 0062 00E0     		b	.L104
 2055              	.LVL184:
 2056              	.L110:
1002:App/Src/fault_command.c ****   }
 2057              		.loc 1 1002 12 view .LVU378
 2058 0064 0020     		movs	r0, #0
 2059              	.LVL185:
 2060              	.L104:
1030:App/Src/fault_command.c **** 
 2061              		.loc 1 1030 1 view .LVU379
 2062 0066 38BD     		pop	{r3, r4, r5, pc}
 2063              	.LVL186:
 2064              	.L111:
1002:App/Src/fault_command.c ****   }
 2065              		.loc 1 1002 12 view .LVU380
 2066 0068 2846     		mov	r0, r5
 2067              	.LVL187:
1002:App/Src/fault_command.c ****   }
 2068              		.loc 1 1002 12 view .LVU381
 2069 006a FCE7     		b	.L104
 2070              	.LVL188:
 2071              	.L113:
1019:App/Src/fault_command.c ****   }
 2072              		.loc 1 1019 12 view .LVU382
 2073 006c 0020     		movs	r0, #0
 2074 006e FAE7     		b	.L104
 2075              		.cfi_endproc
 2076              	.LFE176:
ARM GAS  C:\Users\hh\AppData\Local\Temp\ccnvB5Va.s 			page 64


 2078              		.section	.text.FaultCommand_RunNormal,"ax",%progbits
 2079              		.align	1
 2080              		.syntax unified
 2081              		.thumb
 2082              		.thumb_func
 2084              	FaultCommand_RunNormal:
 2085              	.LVL189:
 2086              	.LFB167:
 446:App/Src/fault_command.c ****   if (DacSafety_IsOutputAllowed() == 0U)
 2087              		.loc 1 446 1 is_stmt 1 view -0
 2088              		.cfi_startproc
 2089              		@ args = 0, pretend = 0, frame = 0
 2090              		@ frame_needed = 0, uses_anonymous_args = 0
 446:App/Src/fault_command.c ****   if (DacSafety_IsOutputAllowed() == 0U)
 2091              		.loc 1 446 1 is_stmt 0 view .LVU384
 2092 0000 10B5     		push	{r4, lr}
 2093              	.LCFI54:
 2094              		.cfi_def_cfa_offset 8
 2095              		.cfi_offset 4, -8
 2096              		.cfi_offset 14, -4
 2097 0002 0446     		mov	r4, r0
 447:App/Src/fault_command.c ****   {
 2098              		.loc 1 447 3 is_stmt 1 view .LVU385
 447:App/Src/fault_command.c ****   {
 2099              		.loc 1 447 7 is_stmt 0 view .LVU386
 2100 0004 FFF7FEFF 		bl	DacSafety_IsOutputAllowed
 2101              	.LVL190:
 447:App/Src/fault_command.c ****   {
 2102              		.loc 1 447 6 discriminator 1 view .LVU387
 2103 0008 28B1     		cbz	r0, .L119
 452:App/Src/fault_command.c ****   return VoltageSim_SetAllCellsVoltageMv(millivolts);
 2104              		.loc 1 452 3 is_stmt 1 view .LVU388
 2105 000a FFF7FEFF 		bl	WaveformGen_Stop
 2106              	.LVL191:
 453:App/Src/fault_command.c **** }
 2107              		.loc 1 453 3 view .LVU389
 453:App/Src/fault_command.c **** }
 2108              		.loc 1 453 10 is_stmt 0 view .LVU390
 2109 000e 2046     		mov	r0, r4
 2110 0010 FFF7FEFF 		bl	VoltageSim_SetAllCellsVoltageMv
 2111              	.LVL192:
 2112              	.L118:
 454:App/Src/fault_command.c **** 
 2113              		.loc 1 454 1 view .LVU391
 2114 0014 10BD     		pop	{r4, pc}
 2115              	.LVL193:
 2116              	.L119:
 449:App/Src/fault_command.c ****   }
 2117              		.loc 1 449 12 view .LVU392
 2118 0016 0220     		movs	r0, #2
 2119 0018 FCE7     		b	.L118
 2120              		.cfi_endproc
 2121              	.LFE167:
 2123              		.section	.rodata.FaultCommand_WriteJsonCanStatus.str1.4,"aMS",%progbits,1
 2124              		.align	2
 2125              	.LC54:
 2126 0000 7B226F6B 		.ascii	"{\"ok\":true,\"can\":{\"started\":%u,\"tx\":%lu,\"r"
ARM GAS  C:\Users\hh\AppData\Local\Temp\ccnvB5Va.s 			page 65


 2126      223A7472 
 2126      75652C22 
 2126      63616E22 
 2126      3A7B2273 
 2127 002a 78223A25 		.ascii	"x\":%lu,\"err\":%lu,\"last_id\":%lu,\"last_id_hex\""
 2127      6C752C22 
 2127      65727222 
 2127      3A256C75 
 2127      2C226C61 
 2128 0056 3A223078 		.ascii	":\"0x%lX\",\"last_ext\":%u,\"last_len\":%u,\"last_t"
 2128      256C5822 
 2128      2C226C61 
 2128      73745F65 
 2128      7874223A 
 2129 0082 69636B22 		.ascii	"ick\":%lu,\"last_data\":[\000"
 2129      3A256C75 
 2129      2C226C61 
 2129      73745F64 
 2129      61746122 
 2130 0099 000000   		.align	2
 2131              	.LC55:
 2132 009c 25732575 		.ascii	"%s%u\000"
 2132      00
 2133 00a1 000000   		.align	2
 2134              	.LC56:
 2135 00a4 5D7D7D0D 		.ascii	"]}}\015\012\000"
 2135      0A00
 2136              		.section	.text.FaultCommand_WriteJsonCanStatus,"ax",%progbits
 2137              		.align	1
 2138              		.syntax unified
 2139              		.thumb
 2140              		.thumb_func
 2142              	FaultCommand_WriteJsonCanStatus:
 2143              	.LVL194:
 2144              	.LFB163:
 331:App/Src/fault_command.c ****   BspCan_Status status = BspCan_GetStatus();
 2145              		.loc 1 331 1 is_stmt 1 view -0
 2146              		.cfi_startproc
 2147              		@ args = 0, pretend = 0, frame = 40
 2148              		@ frame_needed = 0, uses_anonymous_args = 0
 331:App/Src/fault_command.c ****   BspCan_Status status = BspCan_GetStatus();
 2149              		.loc 1 331 1 is_stmt 0 view .LVU394
 2150 0000 F0B5     		push	{r4, r5, r6, r7, lr}
 2151              	.LCFI55:
 2152              		.cfi_def_cfa_offset 20
 2153              		.cfi_offset 4, -20
 2154              		.cfi_offset 5, -16
 2155              		.cfi_offset 6, -12
 2156              		.cfi_offset 7, -8
 2157              		.cfi_offset 14, -4
 2158 0002 93B0     		sub	sp, sp, #76
 2159              	.LCFI56:
 2160              		.cfi_def_cfa_offset 96
 2161 0004 0546     		mov	r5, r0
 2162 0006 0E46     		mov	r6, r1
 332:App/Src/fault_command.c **** 
 2163              		.loc 1 332 3 is_stmt 1 view .LVU395
ARM GAS  C:\Users\hh\AppData\Local\Temp\ccnvB5Va.s 			page 66


 332:App/Src/fault_command.c **** 
 2164              		.loc 1 332 26 is_stmt 0 view .LVU396
 2165 0008 09A8     		add	r0, sp, #36
 2166              	.LVL195:
 332:App/Src/fault_command.c **** 
 2167              		.loc 1 332 26 view .LVU397
 2168 000a FFF7FEFF 		bl	BspCan_GetStatus
 2169              	.LVL196:
 334:App/Src/fault_command.c ****                            context,
 2170              		.loc 1 334 3 is_stmt 1 view .LVU398
 341:App/Src/fault_command.c ****                            (unsigned long)status.lastRxId,
 2171              		.loc 1 341 49 is_stmt 0 view .LVU399
 2172 000e 0D9B     		ldr	r3, [sp, #52]
 343:App/Src/fault_command.c ****                            status.lastRxLength,
 2173              		.loc 1 343 34 view .LVU400
 2174 0010 9DF83C20 		ldrb	r2, [sp, #60]	@ zero_extendqisi2
 344:App/Src/fault_command.c ****                            (unsigned long)status.lastRxTick);
 2175              		.loc 1 344 34 view .LVU401
 2176 0014 9DF83D70 		ldrb	r7, [sp, #61]	@ zero_extendqisi2
 334:App/Src/fault_command.c ****                            context,
 2177              		.loc 1 334 3 view .LVU402
 2178 0018 0E99     		ldr	r1, [sp, #56]
 2179 001a 0791     		str	r1, [sp, #28]
 2180 001c 0697     		str	r7, [sp, #24]
 2181 001e 0592     		str	r2, [sp, #20]
 2182 0020 0493     		str	r3, [sp, #16]
 2183 0022 0393     		str	r3, [sp, #12]
 2184 0024 0C9B     		ldr	r3, [sp, #48]
 2185 0026 0293     		str	r3, [sp, #8]
 2186 0028 0B9B     		ldr	r3, [sp, #44]
 2187 002a 0193     		str	r3, [sp, #4]
 2188 002c 0A9B     		ldr	r3, [sp, #40]
 2189 002e 0093     		str	r3, [sp]
 2190 0030 9DF82430 		ldrb	r3, [sp, #36]	@ zero_extendqisi2
 2191 0034 104A     		ldr	r2, .L129
 2192 0036 3146     		mov	r1, r6
 2193 0038 2846     		mov	r0, r5
 2194 003a FFF7FEFF 		bl	FaultCommand_WriteFormat
 2195              	.LVL197:
 347:App/Src/fault_command.c ****   {
 2196              		.loc 1 347 3 is_stmt 1 view .LVU403
 2197              	.LBB9:
 347:App/Src/fault_command.c ****   {
 2198              		.loc 1 347 8 view .LVU404
 347:App/Src/fault_command.c ****   {
 2199              		.loc 1 347 16 is_stmt 0 view .LVU405
 2200 003e 0024     		movs	r4, #0
 347:App/Src/fault_command.c ****   {
 2201              		.loc 1 347 3 view .LVU406
 2202 0040 0DE0     		b	.L122
 2203              	.LVL198:
 2204              	.L128:
 349:App/Src/fault_command.c ****                              context,
 2205              		.loc 1 349 5 discriminator 1 view .LVU407
 2206 0042 0E4B     		ldr	r3, .L129+4
 2207              	.L123:
 353:App/Src/fault_command.c ****   }
ARM GAS  C:\Users\hh\AppData\Local\Temp\ccnvB5Va.s 			page 67


 2208              		.loc 1 353 47 view .LVU408
 2209 0044 04F14802 		add	r2, r4, #72
 2210 0048 6A44     		add	r2, sp, r2
 2211 004a 12F80A2C 		ldrb	r2, [r2, #-10]	@ zero_extendqisi2
 349:App/Src/fault_command.c ****                              context,
 2212              		.loc 1 349 5 view .LVU409
 2213 004e 0092     		str	r2, [sp]
 2214 0050 0B4A     		ldr	r2, .L129+8
 2215 0052 3146     		mov	r1, r6
 2216 0054 2846     		mov	r0, r5
 2217 0056 FFF7FEFF 		bl	FaultCommand_WriteFormat
 2218              	.LVL199:
 347:App/Src/fault_command.c ****   {
 2219              		.loc 1 347 62 is_stmt 1 discriminator 2 view .LVU410
 2220 005a 0134     		adds	r4, r4, #1
 2221              	.LVL200:
 347:App/Src/fault_command.c ****   {
 2222              		.loc 1 347 62 is_stmt 0 discriminator 2 view .LVU411
 2223 005c E4B2     		uxtb	r4, r4
 2224              	.LVL201:
 2225              	.L122:
 347:App/Src/fault_command.c ****   {
 2226              		.loc 1 347 34 is_stmt 1 discriminator 1 view .LVU412
 2227 005e A742     		cmp	r7, r4
 2228 0060 03D9     		bls	.L127
 349:App/Src/fault_command.c ****                              context,
 2229              		.loc 1 349 5 view .LVU413
 2230 0062 002C     		cmp	r4, #0
 2231 0064 EDD0     		beq	.L128
 349:App/Src/fault_command.c ****                              context,
 2232              		.loc 1 349 5 is_stmt 0 discriminator 2 view .LVU414
 2233 0066 074B     		ldr	r3, .L129+12
 2234 0068 ECE7     		b	.L123
 2235              	.L127:
 2236              	.LBE9:
 355:App/Src/fault_command.c **** }
 2237              		.loc 1 355 3 is_stmt 1 view .LVU415
 2238 006a 074A     		ldr	r2, .L129+16
 2239 006c 3146     		mov	r1, r6
 2240 006e 2846     		mov	r0, r5
 2241 0070 FFF7FEFF 		bl	FaultCommand_Write
 2242              	.LVL202:
 356:App/Src/fault_command.c **** 
 2243              		.loc 1 356 1 is_stmt 0 view .LVU416
 2244 0074 13B0     		add	sp, sp, #76
 2245              	.LCFI57:
 2246              		.cfi_def_cfa_offset 20
 2247              		@ sp needed
 2248 0076 F0BD     		pop	{r4, r5, r6, r7, pc}
 2249              	.LVL203:
 2250              	.L130:
 356:App/Src/fault_command.c **** 
 2251              		.loc 1 356 1 view .LVU417
 2252              		.align	2
 2253              	.L129:
 2254 0078 00000000 		.word	.LC54
 2255 007c 00000000 		.word	.LC31
ARM GAS  C:\Users\hh\AppData\Local\Temp\ccnvB5Va.s 			page 68


 2256 0080 9C000000 		.word	.LC55
 2257 0084 04000000 		.word	.LC32
 2258 0088 A4000000 		.word	.LC56
 2259              		.cfi_endproc
 2260              	.LFE163:
 2262              		.section	.rodata.FaultCommand_WriteTextCanStatus.str1.4,"aMS",%progbits,1
 2263              		.align	2
 2264              	.LC57:
 2265 0000 2000     		.ascii	" \000"
 2266 0002 0000     		.align	2
 2267              	.LC58:
 2268 0004 0D0A5B63 		.ascii	"\015\012[can] started=%u tx=%lu rx=%lu err=%lu last"
 2268      616E5D20 
 2268      73746172 
 2268      7465643D 
 2268      25752074 
 2269 0031 5F69643D 		.ascii	"_id=0x%lX last_len=%u last_tick=%lu last_data=\000"
 2269      3078256C 
 2269      58206C61 
 2269      73745F6C 
 2269      656E3D25 
 2270              		.align	2
 2271              	.LC59:
 2272 0060 25303258 		.ascii	"%02X%s\000"
 2272      257300
 2273              		.section	.text.FaultCommand_WriteTextCanStatus,"ax",%progbits
 2274              		.align	1
 2275              		.syntax unified
 2276              		.thumb
 2277              		.thumb_func
 2279              	FaultCommand_WriteTextCanStatus:
 2280              	.LVL204:
 2281              	.LFB154:
 101:App/Src/fault_command.c ****   BspCan_Status status = BspCan_GetStatus();
 2282              		.loc 1 101 1 is_stmt 1 view -0
 2283              		.cfi_startproc
 2284              		@ args = 0, pretend = 0, frame = 40
 2285              		@ frame_needed = 0, uses_anonymous_args = 0
 101:App/Src/fault_command.c ****   BspCan_Status status = BspCan_GetStatus();
 2286              		.loc 1 101 1 is_stmt 0 view .LVU419
 2287 0000 F0B5     		push	{r4, r5, r6, r7, lr}
 2288              	.LCFI58:
 2289              		.cfi_def_cfa_offset 20
 2290              		.cfi_offset 4, -20
 2291              		.cfi_offset 5, -16
 2292              		.cfi_offset 6, -12
 2293              		.cfi_offset 7, -8
 2294              		.cfi_offset 14, -4
 2295 0002 91B0     		sub	sp, sp, #68
 2296              	.LCFI59:
 2297              		.cfi_def_cfa_offset 88
 2298 0004 0646     		mov	r6, r0
 2299 0006 0F46     		mov	r7, r1
 102:App/Src/fault_command.c **** 
 2300              		.loc 1 102 3 is_stmt 1 view .LVU420
 102:App/Src/fault_command.c **** 
 2301              		.loc 1 102 26 is_stmt 0 view .LVU421
ARM GAS  C:\Users\hh\AppData\Local\Temp\ccnvB5Va.s 			page 69


 2302 0008 07A8     		add	r0, sp, #28
 2303              	.LVL205:
 102:App/Src/fault_command.c **** 
 2304              		.loc 1 102 26 view .LVU422
 2305 000a FFF7FEFF 		bl	BspCan_GetStatus
 2306              	.LVL206:
 104:App/Src/fault_command.c ****                            context,
 2307              		.loc 1 104 3 is_stmt 1 view .LVU423
 112:App/Src/fault_command.c ****                            (unsigned long)status.lastRxTick);
 2308              		.loc 1 112 34 is_stmt 0 view .LVU424
 2309 000e 9DF83550 		ldrb	r5, [sp, #53]	@ zero_extendqisi2
 104:App/Src/fault_command.c ****                            context,
 2310              		.loc 1 104 3 view .LVU425
 2311 0012 0C9B     		ldr	r3, [sp, #48]
 2312 0014 0593     		str	r3, [sp, #20]
 2313 0016 0495     		str	r5, [sp, #16]
 2314 0018 0B9B     		ldr	r3, [sp, #44]
 2315 001a 0393     		str	r3, [sp, #12]
 2316 001c 0A9B     		ldr	r3, [sp, #40]
 2317 001e 0293     		str	r3, [sp, #8]
 2318 0020 099B     		ldr	r3, [sp, #36]
 2319 0022 0193     		str	r3, [sp, #4]
 2320 0024 089B     		ldr	r3, [sp, #32]
 2321 0026 0093     		str	r3, [sp]
 2322 0028 9DF81C30 		ldrb	r3, [sp, #28]	@ zero_extendqisi2
 2323 002c 114A     		ldr	r2, .L139
 2324 002e 3946     		mov	r1, r7
 2325 0030 3046     		mov	r0, r6
 2326 0032 FFF7FEFF 		bl	FaultCommand_WriteFormat
 2327              	.LVL207:
 115:App/Src/fault_command.c ****   {
 2328              		.loc 1 115 3 is_stmt 1 view .LVU426
 2329              	.LBB10:
 115:App/Src/fault_command.c ****   {
 2330              		.loc 1 115 8 view .LVU427
 115:App/Src/fault_command.c ****   {
 2331              		.loc 1 115 16 is_stmt 0 view .LVU428
 2332 0036 0024     		movs	r4, #0
 115:App/Src/fault_command.c ****   {
 2333              		.loc 1 115 3 view .LVU429
 2334 0038 08E0     		b	.L132
 2335              	.LVL208:
 2336              	.L138:
 117:App/Src/fault_command.c ****                              context,
 2337              		.loc 1 117 5 discriminator 1 view .LVU430
 2338 003a 0F4A     		ldr	r2, .L139+4
 2339              	.L133:
 117:App/Src/fault_command.c ****                              context,
 2340              		.loc 1 117 5 discriminator 4 view .LVU431
 2341 003c 0092     		str	r2, [sp]
 2342 003e 0F4A     		ldr	r2, .L139+8
 2343 0040 3946     		mov	r1, r7
 2344 0042 3046     		mov	r0, r6
 2345 0044 FFF7FEFF 		bl	FaultCommand_WriteFormat
 2346              	.LVL209:
 115:App/Src/fault_command.c ****   {
 2347              		.loc 1 115 62 is_stmt 1 discriminator 2 view .LVU432
ARM GAS  C:\Users\hh\AppData\Local\Temp\ccnvB5Va.s 			page 70


 2348 0048 0134     		adds	r4, r4, #1
 2349              	.LVL210:
 115:App/Src/fault_command.c ****   {
 2350              		.loc 1 115 62 is_stmt 0 discriminator 2 view .LVU433
 2351 004a E4B2     		uxtb	r4, r4
 2352              	.LVL211:
 2353              	.L132:
 115:App/Src/fault_command.c ****   {
 2354              		.loc 1 115 34 is_stmt 1 discriminator 1 view .LVU434
 2355 004c A542     		cmp	r5, r4
 2356 004e 09D9     		bls	.L137
 117:App/Src/fault_command.c ****                              context,
 2357              		.loc 1 117 5 view .LVU435
 120:App/Src/fault_command.c ****                              (index + 1U == status.lastRxLength) ? "" : " ");
 2358              		.loc 1 120 47 is_stmt 0 view .LVU436
 2359 0050 04F14003 		add	r3, r4, #64
 2360 0054 6B44     		add	r3, sp, r3
 2361 0056 13F80A3C 		ldrb	r3, [r3, #-10]	@ zero_extendqisi2
 121:App/Src/fault_command.c ****   }
 2362              		.loc 1 121 37 view .LVU437
 2363 005a 621C     		adds	r2, r4, #1
 117:App/Src/fault_command.c ****                              context,
 2364              		.loc 1 117 5 view .LVU438
 2365 005c AA42     		cmp	r2, r5
 2366 005e ECD0     		beq	.L138
 117:App/Src/fault_command.c ****                              context,
 2367              		.loc 1 117 5 discriminator 2 view .LVU439
 2368 0060 074A     		ldr	r2, .L139+12
 2369 0062 EBE7     		b	.L133
 2370              	.L137:
 2371              	.LBE10:
 123:App/Src/fault_command.c **** }
 2372              		.loc 1 123 3 is_stmt 1 view .LVU440
 2373 0064 074A     		ldr	r2, .L139+16
 2374 0066 3946     		mov	r1, r7
 2375 0068 3046     		mov	r0, r6
 2376 006a FFF7FEFF 		bl	FaultCommand_Write
 2377              	.LVL212:
 124:App/Src/fault_command.c **** 
 2378              		.loc 1 124 1 is_stmt 0 view .LVU441
 2379 006e 11B0     		add	sp, sp, #68
 2380              	.LCFI60:
 2381              		.cfi_def_cfa_offset 20
 2382              		@ sp needed
 2383 0070 F0BD     		pop	{r4, r5, r6, r7, pc}
 2384              	.LVL213:
 2385              	.L140:
 124:App/Src/fault_command.c **** 
 2386              		.loc 1 124 1 view .LVU442
 2387 0072 00BF     		.align	2
 2388              	.L139:
 2389 0074 04000000 		.word	.LC58
 2390 0078 00000000 		.word	.LC31
 2391 007c 60000000 		.word	.LC59
 2392 0080 00000000 		.word	.LC57
 2393 0084 D0000000 		.word	.LC45
 2394              		.cfi_endproc
ARM GAS  C:\Users\hh\AppData\Local\Temp\ccnvB5Va.s 			page 71


 2395              	.LFE154:
 2397              		.section	.rodata.FaultCommand_WriteJsonBmsResponseLog.str1.4,"aMS",%progbits,1
 2398              		.align	2
 2399              	.LC60:
 2400 0000 7B226F6B 		.ascii	"{\"ok\":true,\"log\":{\"armed\":%u,\"trigger\":\"%s"
 2400      223A7472 
 2400      75652C22 
 2400      6C6F6722 
 2400      3A7B2261 
 2401 002a 222C2274 		.ascii	"\",\"trigger_tick\":%lu,\"primary_cell\":%u,\"prima"
 2401      72696767 
 2401      65725F74 
 2401      69636B22 
 2401      3A256C75 
 2402 0057 72795F6D 		.ascii	"ry_mv\":%u,\"secondary_cell\":%u,\"secondary_mv\":%"
 2402      76223A25 
 2402      752C2273 
 2402      65636F6E 
 2402      64617279 
 2403 0085 752C2263 		.ascii	"u,\"can_after\":%lu,\"captured\":%u,\"response_tick"
 2403      616E5F61 
 2403      66746572 
 2403      223A256C 
 2403      752C2263 
 2404 00b3 223A256C 		.ascii	"\":%lu,\"delay_ms\":%lu,\"response_id\":%lu,\"respo"
 2404      752C2264 
 2404      656C6179 
 2404      5F6D7322 
 2404      3A256C75 
 2405 00e0 6E73655F 		.ascii	"nse_id_hex\":\"0x%lX\",\"response_ext\":%u,\"respon"
 2405      69645F68 
 2405      6578223A 
 2405      22307825 
 2405      6C58222C 
 2406 010d 73655F6C 		.ascii	"se_len\":%u,\"response_data\":[\000"
 2406      656E223A 
 2406      25752C22 
 2406      72657370 
 2406      6F6E7365 
 2407              		.section	.text.FaultCommand_WriteJsonBmsResponseLog,"ax",%progbits
 2408              		.align	1
 2409              		.syntax unified
 2410              		.thumb
 2411              		.thumb_func
 2413              	FaultCommand_WriteJsonBmsResponseLog:
 2414              	.LVL214:
 2415              	.LFB164:
 359:App/Src/fault_command.c ****   BmsResponseLog_Status status = BmsResponseLog_GetStatus();
 2416              		.loc 1 359 1 is_stmt 1 view -0
 2417              		.cfi_startproc
 2418              		@ args = 0, pretend = 0, frame = 56
 2419              		@ frame_needed = 0, uses_anonymous_args = 0
 359:App/Src/fault_command.c ****   BmsResponseLog_Status status = BmsResponseLog_GetStatus();
 2420              		.loc 1 359 1 is_stmt 0 view .LVU444
 2421 0000 F0B5     		push	{r4, r5, r6, r7, lr}
 2422              	.LCFI61:
 2423              		.cfi_def_cfa_offset 20
ARM GAS  C:\Users\hh\AppData\Local\Temp\ccnvB5Va.s 			page 72


 2424              		.cfi_offset 4, -20
 2425              		.cfi_offset 5, -16
 2426              		.cfi_offset 6, -12
 2427              		.cfi_offset 7, -8
 2428              		.cfi_offset 14, -4
 2429 0002 9DB0     		sub	sp, sp, #116
 2430              	.LCFI62:
 2431              		.cfi_def_cfa_offset 136
 2432 0004 0546     		mov	r5, r0
 2433 0006 0E46     		mov	r6, r1
 360:App/Src/fault_command.c **** 
 2434              		.loc 1 360 3 is_stmt 1 view .LVU445
 360:App/Src/fault_command.c **** 
 2435              		.loc 1 360 34 is_stmt 0 view .LVU446
 2436 0008 11A8     		add	r0, sp, #68
 2437              	.LVL215:
 360:App/Src/fault_command.c **** 
 2438              		.loc 1 360 34 view .LVU447
 2439 000a FFF7FEFF 		bl	BmsResponseLog_GetStatus
 2440              	.LVL216:
 362:App/Src/fault_command.c ****                            context,
 2441              		.loc 1 362 3 is_stmt 1 view .LVU448
 365:App/Src/fault_command.c ****                            BmsResponseLog_GetTriggerName(status.triggerType),
 2442              		.loc 1 365 34 is_stmt 0 view .LVU449
 2443 000e 9DF84430 		ldrb	r3, [sp, #68]	@ zero_extendqisi2
 2444 0012 0F93     		str	r3, [sp, #60]
 362:App/Src/fault_command.c ****                            context,
 2445              		.loc 1 362 3 view .LVU450
 2446 0014 9DF84500 		ldrb	r0, [sp, #69]	@ zero_extendqisi2
 2447 0018 FFF7FEFF 		bl	BmsResponseLog_GetTriggerName
 2448              	.LVL217:
 368:App/Src/fault_command.c ****                            status.primaryMillivolts,
 2449              		.loc 1 368 34 view .LVU451
 2450 001c 9DF84620 		ldrb	r2, [sp, #70]	@ zero_extendqisi2
 369:App/Src/fault_command.c ****                            status.secondaryCell,
 2451              		.loc 1 369 34 view .LVU452
 2452 0020 BDF84810 		ldrh	r1, [sp, #72]
 370:App/Src/fault_command.c ****                            status.secondaryMillivolts,
 2453              		.loc 1 370 34 view .LVU453
 2454 0024 9DF847C0 		ldrb	ip, [sp, #71]	@ zero_extendqisi2
 371:App/Src/fault_command.c ****                            (unsigned long)status.canFramesAfterTrigger,
 2455              		.loc 1 371 34 view .LVU454
 2456 0028 BDF84AE0 		ldrh	lr, [sp, #74]
 373:App/Src/fault_command.c ****                            (unsigned long)status.responseTick,
 2457              		.loc 1 373 34 view .LVU455
 2458 002c 9DF85430 		ldrb	r3, [sp, #84]	@ zero_extendqisi2
 378:App/Src/fault_command.c ****                            status.responseCanLength);
 2459              		.loc 1 378 34 view .LVU456
 2460 0030 9DF86440 		ldrb	r4, [sp, #100]	@ zero_extendqisi2
 379:App/Src/fault_command.c **** 
 2461              		.loc 1 379 34 view .LVU457
 2462 0034 9DF86570 		ldrb	r7, [sp, #101]	@ zero_extendqisi2
 362:App/Src/fault_command.c ****                            context,
 2463              		.loc 1 362 3 view .LVU458
 2464 0038 0D97     		str	r7, [sp, #52]
 2465 003a 0C94     		str	r4, [sp, #48]
 2466 003c 189C     		ldr	r4, [sp, #96]
ARM GAS  C:\Users\hh\AppData\Local\Temp\ccnvB5Va.s 			page 73


 2467 003e 0B94     		str	r4, [sp, #44]
 2468 0040 0A94     		str	r4, [sp, #40]
 2469 0042 179C     		ldr	r4, [sp, #92]
 2470 0044 0994     		str	r4, [sp, #36]
 2471 0046 169C     		ldr	r4, [sp, #88]
 2472 0048 0894     		str	r4, [sp, #32]
 2473 004a 0793     		str	r3, [sp, #28]
 2474 004c 149B     		ldr	r3, [sp, #80]
 2475 004e 0693     		str	r3, [sp, #24]
 2476 0050 CDF814E0 		str	lr, [sp, #20]
 2477 0054 CDF810C0 		str	ip, [sp, #16]
 2478 0058 0391     		str	r1, [sp, #12]
 2479 005a 0292     		str	r2, [sp, #8]
 2480 005c 139B     		ldr	r3, [sp, #76]
 2481 005e 0193     		str	r3, [sp, #4]
 2482 0060 0090     		str	r0, [sp]
 2483 0062 0F9B     		ldr	r3, [sp, #60]
 2484 0064 104A     		ldr	r2, .L149
 2485 0066 3146     		mov	r1, r6
 2486 0068 2846     		mov	r0, r5
 2487 006a FFF7FEFF 		bl	FaultCommand_WriteFormat
 2488              	.LVL218:
 381:App/Src/fault_command.c ****   {
 2489              		.loc 1 381 3 is_stmt 1 view .LVU459
 2490              	.LBB11:
 381:App/Src/fault_command.c ****   {
 2491              		.loc 1 381 8 view .LVU460
 381:App/Src/fault_command.c ****   {
 2492              		.loc 1 381 16 is_stmt 0 view .LVU461
 2493 006e 0024     		movs	r4, #0
 381:App/Src/fault_command.c ****   {
 2494              		.loc 1 381 3 view .LVU462
 2495 0070 0DE0     		b	.L142
 2496              	.LVL219:
 2497              	.L148:
 383:App/Src/fault_command.c ****                              context,
 2498              		.loc 1 383 5 discriminator 1 view .LVU463
 2499 0072 0E4B     		ldr	r3, .L149+4
 2500              	.L143:
 387:App/Src/fault_command.c ****   }
 2501              		.loc 1 387 52 view .LVU464
 2502 0074 04F17002 		add	r2, r4, #112
 2503 0078 6A44     		add	r2, sp, r2
 2504 007a 12F80A2C 		ldrb	r2, [r2, #-10]	@ zero_extendqisi2
 383:App/Src/fault_command.c ****                              context,
 2505              		.loc 1 383 5 view .LVU465
 2506 007e 0092     		str	r2, [sp]
 2507 0080 0B4A     		ldr	r2, .L149+8
 2508 0082 3146     		mov	r1, r6
 2509 0084 2846     		mov	r0, r5
 2510 0086 FFF7FEFF 		bl	FaultCommand_WriteFormat
 2511              	.LVL220:
 381:App/Src/fault_command.c ****   {
 2512              		.loc 1 381 67 is_stmt 1 discriminator 2 view .LVU466
 2513 008a 0134     		adds	r4, r4, #1
 2514              	.LVL221:
 381:App/Src/fault_command.c ****   {
ARM GAS  C:\Users\hh\AppData\Local\Temp\ccnvB5Va.s 			page 74


 2515              		.loc 1 381 67 is_stmt 0 discriminator 2 view .LVU467
 2516 008c E4B2     		uxtb	r4, r4
 2517              	.LVL222:
 2518              	.L142:
 381:App/Src/fault_command.c ****   {
 2519              		.loc 1 381 34 is_stmt 1 discriminator 1 view .LVU468
 2520 008e A742     		cmp	r7, r4
 2521 0090 03D9     		bls	.L147
 383:App/Src/fault_command.c ****                              context,
 2522              		.loc 1 383 5 view .LVU469
 2523 0092 002C     		cmp	r4, #0
 2524 0094 EDD0     		beq	.L148
 383:App/Src/fault_command.c ****                              context,
 2525              		.loc 1 383 5 is_stmt 0 discriminator 2 view .LVU470
 2526 0096 074B     		ldr	r3, .L149+12
 2527 0098 ECE7     		b	.L143
 2528              	.L147:
 2529              	.LBE11:
 389:App/Src/fault_command.c **** }
 2530              		.loc 1 389 3 is_stmt 1 view .LVU471
 2531 009a 074A     		ldr	r2, .L149+16
 2532 009c 3146     		mov	r1, r6
 2533 009e 2846     		mov	r0, r5
 2534 00a0 FFF7FEFF 		bl	FaultCommand_Write
 2535              	.LVL223:
 390:App/Src/fault_command.c **** 
 2536              		.loc 1 390 1 is_stmt 0 view .LVU472
 2537 00a4 1DB0     		add	sp, sp, #116
 2538              	.LCFI63:
 2539              		.cfi_def_cfa_offset 20
 2540              		@ sp needed
 2541 00a6 F0BD     		pop	{r4, r5, r6, r7, pc}
 2542              	.LVL224:
 2543              	.L150:
 390:App/Src/fault_command.c **** 
 2544              		.loc 1 390 1 view .LVU473
 2545              		.align	2
 2546              	.L149:
 2547 00a8 00000000 		.word	.LC60
 2548 00ac 00000000 		.word	.LC31
 2549 00b0 9C000000 		.word	.LC55
 2550 00b4 04000000 		.word	.LC32
 2551 00b8 A4000000 		.word	.LC56
 2552              		.cfi_endproc
 2553              	.LFE164:
 2555              		.section	.rodata.FaultCommand_WriteTextBmsResponseLog.str1.4,"aMS",%progbits,1
 2556              		.align	2
 2557              	.LC61:
 2558 0000 0D0A5B6C 		.ascii	"\015\012[log] armed=%u trigger=%s t1=%lums primary="
 2558      6F675D20 
 2558      61726D65 
 2558      643D2575 
 2558      20747269 
 2559 002d 43253032 		.ascii	"C%02u/%umV secondary=C%02u/%umV can_after=%lu captu"
 2559      752F2575 
 2559      6D562073 
 2559      65636F6E 
ARM GAS  C:\Users\hh\AppData\Local\Temp\ccnvB5Va.s 			page 75


 2559      64617279 
 2560 0060 7265643D 		.ascii	"red=%u\000"
 2560      257500
 2561 0067 00       		.align	2
 2562              	.LC62:
 2563 0068 2074323D 		.ascii	" t2=%lums delay=%lums id=0x%lX ext=%u len=%u data=\000"
 2563      256C756D 
 2563      73206465 
 2563      6C61793D 
 2563      256C756D 
 2564              		.section	.text.FaultCommand_WriteTextBmsResponseLog,"ax",%progbits
 2565              		.align	1
 2566              		.syntax unified
 2567              		.thumb
 2568              		.thumb_func
 2570              	FaultCommand_WriteTextBmsResponseLog:
 2571              	.LVL225:
 2572              	.LFB155:
 127:App/Src/fault_command.c ****   BmsResponseLog_Status status = BmsResponseLog_GetStatus();
 2573              		.loc 1 127 1 is_stmt 1 view -0
 2574              		.cfi_startproc
 2575              		@ args = 0, pretend = 0, frame = 48
 2576              		@ frame_needed = 0, uses_anonymous_args = 0
 127:App/Src/fault_command.c ****   BmsResponseLog_Status status = BmsResponseLog_GetStatus();
 2577              		.loc 1 127 1 is_stmt 0 view .LVU475
 2578 0000 F0B5     		push	{r4, r5, r6, r7, lr}
 2579              	.LCFI64:
 2580              		.cfi_def_cfa_offset 20
 2581              		.cfi_offset 4, -20
 2582              		.cfi_offset 5, -16
 2583              		.cfi_offset 6, -12
 2584              		.cfi_offset 7, -8
 2585              		.cfi_offset 14, -4
 2586 0002 95B0     		sub	sp, sp, #84
 2587              	.LCFI65:
 2588              		.cfi_def_cfa_offset 104
 2589 0004 0546     		mov	r5, r0
 2590 0006 0E46     		mov	r6, r1
 128:App/Src/fault_command.c **** 
 2591              		.loc 1 128 3 is_stmt 1 view .LVU476
 128:App/Src/fault_command.c **** 
 2592              		.loc 1 128 34 is_stmt 0 view .LVU477
 2593 0008 09A8     		add	r0, sp, #36
 2594              	.LVL226:
 128:App/Src/fault_command.c **** 
 2595              		.loc 1 128 34 view .LVU478
 2596 000a FFF7FEFF 		bl	BmsResponseLog_GetStatus
 2597              	.LVL227:
 130:App/Src/fault_command.c ****                            context,
 2598              		.loc 1 130 3 is_stmt 1 view .LVU479
 133:App/Src/fault_command.c ****                            BmsResponseLog_GetTriggerName(status.triggerType),
 2599              		.loc 1 133 34 is_stmt 0 view .LVU480
 2600 000e 9DF82470 		ldrb	r7, [sp, #36]	@ zero_extendqisi2
 130:App/Src/fault_command.c ****                            context,
 2601              		.loc 1 130 3 view .LVU481
 2602 0012 9DF82500 		ldrb	r0, [sp, #37]	@ zero_extendqisi2
 2603 0016 FFF7FEFF 		bl	BmsResponseLog_GetTriggerName
ARM GAS  C:\Users\hh\AppData\Local\Temp\ccnvB5Va.s 			page 76


 2604              	.LVL228:
 136:App/Src/fault_command.c ****                            status.primaryMillivolts,
 2605              		.loc 1 136 34 view .LVU482
 2606 001a 9DF826C0 		ldrb	ip, [sp, #38]	@ zero_extendqisi2
 137:App/Src/fault_command.c ****                            status.secondaryCell,
 2607              		.loc 1 137 34 view .LVU483
 2608 001e BDF82820 		ldrh	r2, [sp, #40]
 138:App/Src/fault_command.c ****                            status.secondaryMillivolts,
 2609              		.loc 1 138 34 view .LVU484
 2610 0022 9DF82710 		ldrb	r1, [sp, #39]	@ zero_extendqisi2
 139:App/Src/fault_command.c ****                            (unsigned long)status.canFramesAfterTrigger,
 2611              		.loc 1 139 34 view .LVU485
 2612 0026 BDF82AE0 		ldrh	lr, [sp, #42]
 141:App/Src/fault_command.c **** 
 2613              		.loc 1 141 34 view .LVU486
 2614 002a 9DF83440 		ldrb	r4, [sp, #52]	@ zero_extendqisi2
 130:App/Src/fault_command.c ****                            context,
 2615              		.loc 1 130 3 view .LVU487
 2616 002e 0794     		str	r4, [sp, #28]
 2617 0030 0C9B     		ldr	r3, [sp, #48]
 2618 0032 0693     		str	r3, [sp, #24]
 2619 0034 CDF814E0 		str	lr, [sp, #20]
 2620 0038 0491     		str	r1, [sp, #16]
 2621 003a 0392     		str	r2, [sp, #12]
 2622 003c CDF808C0 		str	ip, [sp, #8]
 2623 0040 0B9B     		ldr	r3, [sp, #44]
 2624 0042 0193     		str	r3, [sp, #4]
 2625 0044 0090     		str	r0, [sp]
 2626 0046 3B46     		mov	r3, r7
 2627 0048 194A     		ldr	r2, .L160
 2628 004a 3146     		mov	r1, r6
 2629 004c 2846     		mov	r0, r5
 2630 004e FFF7FEFF 		bl	FaultCommand_WriteFormat
 2631              	.LVL229:
 143:App/Src/fault_command.c ****   {
 2632              		.loc 1 143 3 is_stmt 1 view .LVU488
 143:App/Src/fault_command.c ****   {
 2633              		.loc 1 143 6 is_stmt 0 view .LVU489
 2634 0052 34B9     		cbnz	r4, .L158
 2635              	.L152:
 163:App/Src/fault_command.c **** }
 2636              		.loc 1 163 3 is_stmt 1 view .LVU490
 2637 0054 174A     		ldr	r2, .L160+4
 2638 0056 3146     		mov	r1, r6
 2639 0058 2846     		mov	r0, r5
 2640 005a FFF7FEFF 		bl	FaultCommand_Write
 2641              	.LVL230:
 164:App/Src/fault_command.c **** 
 2642              		.loc 1 164 1 is_stmt 0 view .LVU491
 2643 005e 15B0     		add	sp, sp, #84
 2644              	.LCFI66:
 2645              		.cfi_remember_state
 2646              		.cfi_def_cfa_offset 20
 2647              		@ sp needed
 2648 0060 F0BD     		pop	{r4, r5, r6, r7, pc}
 2649              	.LVL231:
 2650              	.L158:
ARM GAS  C:\Users\hh\AppData\Local\Temp\ccnvB5Va.s 			page 77


 2651              	.LCFI67:
 2652              		.cfi_restore_state
 145:App/Src/fault_command.c ****                              context,
 2653              		.loc 1 145 5 is_stmt 1 view .LVU492
 151:App/Src/fault_command.c ****                              status.responseCanLength);
 2654              		.loc 1 151 36 is_stmt 0 view .LVU493
 2655 0062 9DF84430 		ldrb	r3, [sp, #68]	@ zero_extendqisi2
 152:App/Src/fault_command.c ****     for (uint8_t index = 0U; index < status.responseCanLength; index++)
 2656              		.loc 1 152 36 view .LVU494
 2657 0066 9DF84570 		ldrb	r7, [sp, #69]	@ zero_extendqisi2
 145:App/Src/fault_command.c ****                              context,
 2658              		.loc 1 145 5 view .LVU495
 2659 006a 0397     		str	r7, [sp, #12]
 2660 006c 0293     		str	r3, [sp, #8]
 2661 006e 109B     		ldr	r3, [sp, #64]
 2662 0070 0193     		str	r3, [sp, #4]
 2663 0072 0F9B     		ldr	r3, [sp, #60]
 2664 0074 0093     		str	r3, [sp]
 2665 0076 0E9B     		ldr	r3, [sp, #56]
 2666 0078 0F4A     		ldr	r2, .L160+8
 2667 007a 3146     		mov	r1, r6
 2668 007c 2846     		mov	r0, r5
 2669 007e FFF7FEFF 		bl	FaultCommand_WriteFormat
 2670              	.LVL232:
 153:App/Src/fault_command.c ****     {
 2671              		.loc 1 153 5 is_stmt 1 view .LVU496
 2672              	.LBB12:
 153:App/Src/fault_command.c ****     {
 2673              		.loc 1 153 10 view .LVU497
 153:App/Src/fault_command.c ****     {
 2674              		.loc 1 153 18 is_stmt 0 view .LVU498
 2675 0082 0024     		movs	r4, #0
 153:App/Src/fault_command.c ****     {
 2676              		.loc 1 153 5 view .LVU499
 2677 0084 08E0     		b	.L153
 2678              	.LVL233:
 2679              	.L159:
 155:App/Src/fault_command.c ****                                context,
 2680              		.loc 1 155 7 discriminator 1 view .LVU500
 2681 0086 0D4A     		ldr	r2, .L160+12
 2682              	.L154:
 155:App/Src/fault_command.c ****                                context,
 2683              		.loc 1 155 7 discriminator 4 view .LVU501
 2684 0088 0092     		str	r2, [sp]
 2685 008a 0D4A     		ldr	r2, .L160+16
 2686 008c 3146     		mov	r1, r6
 2687 008e 2846     		mov	r0, r5
 2688 0090 FFF7FEFF 		bl	FaultCommand_WriteFormat
 2689              	.LVL234:
 153:App/Src/fault_command.c ****     {
 2690              		.loc 1 153 69 is_stmt 1 discriminator 2 view .LVU502
 2691 0094 0134     		adds	r4, r4, #1
 2692              	.LVL235:
 153:App/Src/fault_command.c ****     {
 2693              		.loc 1 153 69 is_stmt 0 discriminator 2 view .LVU503
 2694 0096 E4B2     		uxtb	r4, r4
 2695              	.LVL236:
ARM GAS  C:\Users\hh\AppData\Local\Temp\ccnvB5Va.s 			page 78


 2696              	.L153:
 153:App/Src/fault_command.c ****     {
 2697              		.loc 1 153 36 is_stmt 1 discriminator 1 view .LVU504
 2698 0098 A742     		cmp	r7, r4
 2699 009a DBD9     		bls	.L152
 155:App/Src/fault_command.c ****                                context,
 2700              		.loc 1 155 7 view .LVU505
 158:App/Src/fault_command.c ****                                (index + 1U == status.responseCanLength) ? "" : " ");
 2701              		.loc 1 158 54 is_stmt 0 view .LVU506
 2702 009c 04F15003 		add	r3, r4, #80
 2703 00a0 6B44     		add	r3, sp, r3
 2704 00a2 13F80A3C 		ldrb	r3, [r3, #-10]	@ zero_extendqisi2
 159:App/Src/fault_command.c ****     }
 2705              		.loc 1 159 39 view .LVU507
 2706 00a6 621C     		adds	r2, r4, #1
 155:App/Src/fault_command.c ****                                context,
 2707              		.loc 1 155 7 view .LVU508
 2708 00a8 BA42     		cmp	r2, r7
 2709 00aa ECD0     		beq	.L159
 155:App/Src/fault_command.c ****                                context,
 2710              		.loc 1 155 7 discriminator 2 view .LVU509
 2711 00ac 054A     		ldr	r2, .L160+20
 2712 00ae EBE7     		b	.L154
 2713              	.L161:
 2714              		.align	2
 2715              	.L160:
 2716 00b0 00000000 		.word	.LC61
 2717 00b4 D0000000 		.word	.LC45
 2718 00b8 68000000 		.word	.LC62
 2719 00bc 00000000 		.word	.LC31
 2720 00c0 60000000 		.word	.LC59
 2721 00c4 00000000 		.word	.LC57
 2722              	.LBE12:
 2723              		.cfi_endproc
 2724              	.LFE155:
 2726              		.section	.rodata.FaultCommand_WriteJsonSramStatus.str1.4,"aMS",%progbits,1
 2727              		.align	2
 2728              	.LC63:
 2729 0000 7B226F6B 		.ascii	"{\"ok\":%s,\"sram\":{\"base\":%lu,\"base_hex\":\"0x"
 2729      223A2573 
 2729      2C227372 
 2729      616D223A 
 2729      7B226261 
 2730 002a 2530386C 		.ascii	"%08lX\",\000"
 2730      58222C00 
 2731 0032 0000     		.align	2
 2732              	.LC64:
 2733 0034 2273697A 		.ascii	"\"size_bytes\":%lu,\"bus_width_bits\":%u,\"last\":\""
 2733      655F6279 
 2733      74657322 
 2733      3A256C75 
 2733      2C226275 
 2734 0061 2573222C 		.ascii	"%s\",\000"
 2734      00
 2735 0066 0000     		.align	2
 2736              	.LC65:
 2737 0068 22746573 		.ascii	"\"test_bytes\":%lu,\"pass\":%lu,\"fail\":%lu,\"tick"
ARM GAS  C:\Users\hh\AppData\Local\Temp\ccnvB5Va.s 			page 79


 2737      745F6279 
 2737      74657322 
 2737      3A256C75 
 2737      2C227061 
 2738 0094 223A256C 		.ascii	"\":%lu,\000"
 2738      752C00
 2739 009b 00       		.align	2
 2740              	.LC66:
 2741 009c 22666169 		.ascii	"\"fail_addr\":%lu,\"fail_addr_hex\":\"0x%08lX\",\000"
 2741      6C5F6164 
 2741      6472223A 
 2741      256C752C 
 2741      22666169 
 2742 00c7 00       		.align	2
 2743              	.LC67:
 2744 00c8 22657870 		.ascii	"\"expected\":%u,\"actual\":%u}}\015\012\000"
 2744      65637465 
 2744      64223A25 
 2744      752C2261 
 2744      63747561 
 2745              		.section	.text.FaultCommand_WriteJsonSramStatus,"ax",%progbits
 2746              		.align	1
 2747              		.syntax unified
 2748              		.thumb
 2749              		.thumb_func
 2751              	FaultCommand_WriteJsonSramStatus:
 2752              	.LVL237:
 2753              	.LFB166:
 411:App/Src/fault_command.c ****   BspSram_Status status = BspSram_GetStatus();
 2754              		.loc 1 411 1 is_stmt 1 view -0
 2755              		.cfi_startproc
 2756              		@ args = 0, pretend = 0, frame = 40
 2757              		@ frame_needed = 0, uses_anonymous_args = 0
 411:App/Src/fault_command.c ****   BspSram_Status status = BspSram_GetStatus();
 2758              		.loc 1 411 1 is_stmt 0 view .LVU511
 2759 0000 F0B5     		push	{r4, r5, r6, r7, lr}
 2760              	.LCFI68:
 2761              		.cfi_def_cfa_offset 20
 2762              		.cfi_offset 4, -20
 2763              		.cfi_offset 5, -16
 2764              		.cfi_offset 6, -12
 2765              		.cfi_offset 7, -8
 2766              		.cfi_offset 14, -4
 2767 0002 8FB0     		sub	sp, sp, #60
 2768              	.LCFI69:
 2769              		.cfi_def_cfa_offset 80
 2770 0004 0446     		mov	r4, r0
 2771 0006 0D46     		mov	r5, r1
 2772 0008 1646     		mov	r6, r2
 412:App/Src/fault_command.c **** 
 2773              		.loc 1 412 3 is_stmt 1 view .LVU512
 412:App/Src/fault_command.c **** 
 2774              		.loc 1 412 27 is_stmt 0 view .LVU513
 2775 000a 04A8     		add	r0, sp, #16
 2776              	.LVL238:
 412:App/Src/fault_command.c **** 
 2777              		.loc 1 412 27 view .LVU514
ARM GAS  C:\Users\hh\AppData\Local\Temp\ccnvB5Va.s 			page 80


 2778 000c FFF7FEFF 		bl	BspSram_GetStatus
 2779              	.LVL239:
 414:App/Src/fault_command.c ****                            context,
 2780              		.loc 1 414 3 is_stmt 1 view .LVU515
 2781 0010 002E     		cmp	r6, #0
 2782 0012 37D1     		bne	.L164
 414:App/Src/fault_command.c ****                            context,
 2783              		.loc 1 414 3 is_stmt 0 discriminator 1 view .LVU516
 2784 0014 1C4B     		ldr	r3, .L166
 2785              	.L163:
 418:App/Src/fault_command.c ****                            (unsigned long)status.baseAddress);
 2786              		.loc 1 418 49 view .LVU517
 2787 0016 049A     		ldr	r2, [sp, #16]
 414:App/Src/fault_command.c ****                            context,
 2788              		.loc 1 414 3 view .LVU518
 2789 0018 0192     		str	r2, [sp, #4]
 2790 001a 0092     		str	r2, [sp]
 2791 001c 1B4A     		ldr	r2, .L166+4
 2792 001e 2946     		mov	r1, r5
 2793 0020 2046     		mov	r0, r4
 2794 0022 FFF7FEFF 		bl	FaultCommand_WriteFormat
 2795              	.LVL240:
 420:App/Src/fault_command.c ****                            context,
 2796              		.loc 1 420 3 is_stmt 1 view .LVU519
 423:App/Src/fault_command.c ****                            status.busWidthBits,
 2797              		.loc 1 423 49 is_stmt 0 view .LVU520
 2798 0026 059B     		ldr	r3, [sp, #20]
 2799 0028 1F46     		mov	r7, r3
 424:App/Src/fault_command.c ****                            BspSram_GetResultName(status.lastResult));
 2800              		.loc 1 424 34 view .LVU521
 2801 002a 9DF81860 		ldrb	r6, [sp, #24]	@ zero_extendqisi2
 2802              	.LVL241:
 420:App/Src/fault_command.c ****                            context,
 2803              		.loc 1 420 3 view .LVU522
 2804 002e 9DF83400 		ldrb	r0, [sp, #52]	@ zero_extendqisi2
 2805 0032 FFF7FEFF 		bl	BspSram_GetResultName
 2806              	.LVL242:
 420:App/Src/fault_command.c ****                            context,
 2807              		.loc 1 420 3 discriminator 1 view .LVU523
 2808 0036 0190     		str	r0, [sp, #4]
 420:App/Src/fault_command.c ****                            context,
 2809              		.loc 1 420 3 view .LVU524
 2810 0038 0096     		str	r6, [sp]
 420:App/Src/fault_command.c ****                            context,
 2811              		.loc 1 420 3 discriminator 1 view .LVU525
 2812 003a 3B46     		mov	r3, r7
 2813 003c 144A     		ldr	r2, .L166+8
 2814 003e 2946     		mov	r1, r5
 2815 0040 2046     		mov	r0, r4
 2816 0042 FFF7FEFF 		bl	FaultCommand_WriteFormat
 2817              	.LVL243:
 426:App/Src/fault_command.c ****                            context,
 2818              		.loc 1 426 3 is_stmt 1 view .LVU526
 2819 0046 089B     		ldr	r3, [sp, #32]
 2820 0048 0293     		str	r3, [sp, #8]
 2821 004a 0B9B     		ldr	r3, [sp, #44]
 2822 004c 0193     		str	r3, [sp, #4]
ARM GAS  C:\Users\hh\AppData\Local\Temp\ccnvB5Va.s 			page 81


 2823 004e 0A9B     		ldr	r3, [sp, #40]
 2824 0050 0093     		str	r3, [sp]
 2825 0052 079B     		ldr	r3, [sp, #28]
 2826 0054 0F4A     		ldr	r2, .L166+12
 2827 0056 2946     		mov	r1, r5
 2828 0058 2046     		mov	r0, r4
 2829 005a FFF7FEFF 		bl	FaultCommand_WriteFormat
 2830              	.LVL244:
 433:App/Src/fault_command.c ****                            context,
 2831              		.loc 1 433 3 view .LVU527
 436:App/Src/fault_command.c ****                            (unsigned long)status.lastFailedAddress);
 2832              		.loc 1 436 49 is_stmt 0 view .LVU528
 2833 005e 099B     		ldr	r3, [sp, #36]
 433:App/Src/fault_command.c ****                            context,
 2834              		.loc 1 433 3 view .LVU529
 2835 0060 0093     		str	r3, [sp]
 2836 0062 0D4A     		ldr	r2, .L166+16
 2837 0064 2946     		mov	r1, r5
 2838 0066 2046     		mov	r0, r4
 2839 0068 FFF7FEFF 		bl	FaultCommand_WriteFormat
 2840              	.LVL245:
 438:App/Src/fault_command.c ****                            context,
 2841              		.loc 1 438 3 is_stmt 1 view .LVU530
 442:App/Src/fault_command.c **** }
 2842              		.loc 1 442 34 is_stmt 0 view .LVU531
 2843 006c BDF83230 		ldrh	r3, [sp, #50]
 438:App/Src/fault_command.c ****                            context,
 2844              		.loc 1 438 3 view .LVU532
 2845 0070 0093     		str	r3, [sp]
 2846 0072 BDF83030 		ldrh	r3, [sp, #48]
 2847 0076 094A     		ldr	r2, .L166+20
 2848 0078 2946     		mov	r1, r5
 2849 007a 2046     		mov	r0, r4
 2850 007c FFF7FEFF 		bl	FaultCommand_WriteFormat
 2851              	.LVL246:
 443:App/Src/fault_command.c **** 
 2852              		.loc 1 443 1 view .LVU533
 2853 0080 0FB0     		add	sp, sp, #60
 2854              	.LCFI70:
 2855              		.cfi_remember_state
 2856              		.cfi_def_cfa_offset 20
 2857              		@ sp needed
 2858 0082 F0BD     		pop	{r4, r5, r6, r7, pc}
 2859              	.LVL247:
 2860              	.L164:
 2861              	.LCFI71:
 2862              		.cfi_restore_state
 414:App/Src/fault_command.c ****                            context,
 2863              		.loc 1 414 3 discriminator 2 view .LVU534
 2864 0084 064B     		ldr	r3, .L166+24
 2865 0086 C6E7     		b	.L163
 2866              	.L167:
 2867              		.align	2
 2868              	.L166:
 2869 0088 00000000 		.word	.LC37
 2870 008c 00000000 		.word	.LC63
 2871 0090 34000000 		.word	.LC64
ARM GAS  C:\Users\hh\AppData\Local\Temp\ccnvB5Va.s 			page 82


 2872 0094 68000000 		.word	.LC65
 2873 0098 9C000000 		.word	.LC66
 2874 009c C8000000 		.word	.LC67
 2875 00a0 08000000 		.word	.LC38
 2876              		.cfi_endproc
 2877              	.LFE166:
 2879              		.section	.rodata.FaultCommand_WriteTextSramStatus.str1.4,"aMS",%progbits,1
 2880              		.align	2
 2881              	.LC68:
 2882 0000 0D0A5B73 		.ascii	"\015\012[sram] base=0x%08lX size=%lubytes bus=%u-bi"
 2882      72616D5D 
 2882      20626173 
 2882      653D3078 
 2882      2530386C 
 2883 002d 74206C61 		.ascii	"t last=%s test_bytes=%lu pass=%lu fail=%lu tick=%lu"
 2883      73743D25 
 2883      73207465 
 2883      73745F62 
 2883      79746573 
 2884 0060 00       		.ascii	"\000"
 2885 0061 000000   		.align	2
 2886              	.LC69:
 2887 0064 20666169 		.ascii	" fail_addr=0x%08lX expected=0x%04X actual=0x%04X\000"
 2887      6C5F6164 
 2887      64723D30 
 2887      78253038 
 2887      6C582065 
 2888              		.section	.text.FaultCommand_WriteTextSramStatus,"ax",%progbits
 2889              		.align	1
 2890              		.syntax unified
 2891              		.thumb
 2892              		.thumb_func
 2894              	FaultCommand_WriteTextSramStatus:
 2895              	.LVL248:
 2896              	.LFB157:
 183:App/Src/fault_command.c ****   BspSram_Status status = BspSram_GetStatus();
 2897              		.loc 1 183 1 is_stmt 1 view -0
 2898              		.cfi_startproc
 2899              		@ args = 0, pretend = 0, frame = 40
 2900              		@ frame_needed = 0, uses_anonymous_args = 0
 183:App/Src/fault_command.c ****   BspSram_Status status = BspSram_GetStatus();
 2901              		.loc 1 183 1 is_stmt 0 view .LVU536
 2902 0000 2DE9F043 		push	{r4, r5, r6, r7, r8, r9, lr}
 2903              	.LCFI72:
 2904              		.cfi_def_cfa_offset 28
 2905              		.cfi_offset 4, -28
 2906              		.cfi_offset 5, -24
 2907              		.cfi_offset 6, -20
 2908              		.cfi_offset 7, -16
 2909              		.cfi_offset 8, -12
 2910              		.cfi_offset 9, -8
 2911              		.cfi_offset 14, -4
 2912 0004 93B0     		sub	sp, sp, #76
 2913              	.LCFI73:
 2914              		.cfi_def_cfa_offset 104
 2915 0006 8146     		mov	r9, r0
 2916 0008 8846     		mov	r8, r1
ARM GAS  C:\Users\hh\AppData\Local\Temp\ccnvB5Va.s 			page 83


 184:App/Src/fault_command.c **** 
 2917              		.loc 1 184 3 is_stmt 1 view .LVU537
 184:App/Src/fault_command.c **** 
 2918              		.loc 1 184 27 is_stmt 0 view .LVU538
 2919 000a 08A8     		add	r0, sp, #32
 2920              	.LVL249:
 184:App/Src/fault_command.c **** 
 2921              		.loc 1 184 27 view .LVU539
 2922 000c FFF7FEFF 		bl	BspSram_GetStatus
 2923              	.LVL250:
 186:App/Src/fault_command.c ****                            context,
 2924              		.loc 1 186 3 is_stmt 1 view .LVU540
 189:App/Src/fault_command.c ****                            (unsigned long)status.sizeBytes,
 2925              		.loc 1 189 49 is_stmt 0 view .LVU541
 2926 0010 089F     		ldr	r7, [sp, #32]
 190:App/Src/fault_command.c ****                            status.busWidthBits,
 2927              		.loc 1 190 49 view .LVU542
 2928 0012 099D     		ldr	r5, [sp, #36]
 191:App/Src/fault_command.c ****                            BspSram_GetResultName(status.lastResult),
 2929              		.loc 1 191 34 view .LVU543
 2930 0014 9DF82860 		ldrb	r6, [sp, #40]	@ zero_extendqisi2
 186:App/Src/fault_command.c ****                            context,
 2931              		.loc 1 186 3 view .LVU544
 2932 0018 9DF84440 		ldrb	r4, [sp, #68]	@ zero_extendqisi2
 2933 001c 2046     		mov	r0, r4
 2934 001e FFF7FEFF 		bl	BspSram_GetResultName
 2935              	.LVL251:
 2936 0022 0C9B     		ldr	r3, [sp, #48]
 2937 0024 0693     		str	r3, [sp, #24]
 2938 0026 0F9B     		ldr	r3, [sp, #60]
 2939 0028 0593     		str	r3, [sp, #20]
 2940 002a 0E9B     		ldr	r3, [sp, #56]
 2941 002c 0493     		str	r3, [sp, #16]
 2942 002e 0B9B     		ldr	r3, [sp, #44]
 2943 0030 0393     		str	r3, [sp, #12]
 2944 0032 0290     		str	r0, [sp, #8]
 2945 0034 0196     		str	r6, [sp, #4]
 2946 0036 0095     		str	r5, [sp]
 2947 0038 3B46     		mov	r3, r7
 2948 003a 0E4A     		ldr	r2, .L172
 2949 003c 4146     		mov	r1, r8
 2950 003e 4846     		mov	r0, r9
 2951 0040 FFF7FEFF 		bl	FaultCommand_WriteFormat
 2952              	.LVL252:
 198:App/Src/fault_command.c ****   {
 2953              		.loc 1 198 3 is_stmt 1 view .LVU545
 198:App/Src/fault_command.c ****   {
 2954              		.loc 1 198 6 is_stmt 0 view .LVU546
 2955 0044 012C     		cmp	r4, #1
 2956 0046 07D0     		beq	.L171
 2957              	.L169:
 208:App/Src/fault_command.c **** }
 2958              		.loc 1 208 3 is_stmt 1 view .LVU547
 2959 0048 0B4A     		ldr	r2, .L172+4
 2960 004a 4146     		mov	r1, r8
 2961 004c 4846     		mov	r0, r9
 2962 004e FFF7FEFF 		bl	FaultCommand_Write
ARM GAS  C:\Users\hh\AppData\Local\Temp\ccnvB5Va.s 			page 84


 2963              	.LVL253:
 209:App/Src/fault_command.c **** 
 2964              		.loc 1 209 1 is_stmt 0 view .LVU548
 2965 0052 13B0     		add	sp, sp, #76
 2966              	.LCFI74:
 2967              		.cfi_remember_state
 2968              		.cfi_def_cfa_offset 28
 2969              		@ sp needed
 2970 0054 BDE8F083 		pop	{r4, r5, r6, r7, r8, r9, pc}
 2971              	.LVL254:
 2972              	.L171:
 2973              	.LCFI75:
 2974              		.cfi_restore_state
 200:App/Src/fault_command.c ****                              context,
 2975              		.loc 1 200 5 is_stmt 1 view .LVU549
 204:App/Src/fault_command.c ****                              status.actual);
 2976              		.loc 1 204 36 is_stmt 0 view .LVU550
 2977 0058 BDF84030 		ldrh	r3, [sp, #64]
 205:App/Src/fault_command.c ****   }
 2978              		.loc 1 205 36 view .LVU551
 2979 005c BDF84220 		ldrh	r2, [sp, #66]
 200:App/Src/fault_command.c ****                              context,
 2980              		.loc 1 200 5 view .LVU552
 2981 0060 0192     		str	r2, [sp, #4]
 2982 0062 0093     		str	r3, [sp]
 2983 0064 0D9B     		ldr	r3, [sp, #52]
 2984 0066 054A     		ldr	r2, .L172+8
 2985 0068 4146     		mov	r1, r8
 2986 006a 4846     		mov	r0, r9
 2987 006c FFF7FEFF 		bl	FaultCommand_WriteFormat
 2988              	.LVL255:
 2989 0070 EAE7     		b	.L169
 2990              	.L173:
 2991 0072 00BF     		.align	2
 2992              	.L172:
 2993 0074 00000000 		.word	.LC68
 2994 0078 D0000000 		.word	.LC45
 2995 007c 64000000 		.word	.LC69
 2996              		.cfi_endproc
 2997              	.LFE157:
 2999              		.section	.text.FaultCommand_JsonGetUint,"ax",%progbits
 3000              		.align	1
 3001              		.syntax unified
 3002              		.thumb
 3003              		.thumb_func
 3005              	FaultCommand_JsonGetUint:
 3006              	.LVL256:
 3007              	.LFB177:
1033:App/Src/fault_command.c ****   const char *cursor = FaultCommand_FindJsonKey(json, key);
 3008              		.loc 1 1033 1 is_stmt 1 view -0
 3009              		.cfi_startproc
 3010              		@ args = 0, pretend = 0, frame = 0
 3011              		@ frame_needed = 0, uses_anonymous_args = 0
1033:App/Src/fault_command.c ****   const char *cursor = FaultCommand_FindJsonKey(json, key);
 3012              		.loc 1 1033 1 is_stmt 0 view .LVU554
 3013 0000 10B5     		push	{r4, lr}
 3014              	.LCFI76:
ARM GAS  C:\Users\hh\AppData\Local\Temp\ccnvB5Va.s 			page 85


 3015              		.cfi_def_cfa_offset 8
 3016              		.cfi_offset 4, -8
 3017              		.cfi_offset 14, -4
 3018 0002 1446     		mov	r4, r2
1034:App/Src/fault_command.c **** 
 3019              		.loc 1 1034 3 is_stmt 1 view .LVU555
1034:App/Src/fault_command.c **** 
 3020              		.loc 1 1034 24 is_stmt 0 view .LVU556
 3021 0004 FFF7FEFF 		bl	FaultCommand_FindJsonKey
 3022              	.LVL257:
1036:App/Src/fault_command.c ****   {
 3023              		.loc 1 1036 3 is_stmt 1 view .LVU557
1036:App/Src/fault_command.c ****   {
 3024              		.loc 1 1036 6 is_stmt 0 view .LVU558
 3025 0008 002C     		cmp	r4, #0
 3026 000a 18BF     		it	ne
 3027 000c 0028     		cmpne	r0, #0
 3028 000e 10D0     		beq	.L178
1041:App/Src/fault_command.c ****   if (cursor == NULL)
 3029              		.loc 1 1041 3 is_stmt 1 view .LVU559
1041:App/Src/fault_command.c ****   if (cursor == NULL)
 3030              		.loc 1 1041 12 is_stmt 0 view .LVU560
 3031 0010 3A21     		movs	r1, #58
 3032 0012 FFF7FEFF 		bl	strchr
 3033              	.LVL258:
1042:App/Src/fault_command.c ****   {
 3034              		.loc 1 1042 3 is_stmt 1 view .LVU561
1042:App/Src/fault_command.c ****   {
 3035              		.loc 1 1042 6 is_stmt 0 view .LVU562
 3036 0016 58B1     		cbz	r0, .L175
1047:App/Src/fault_command.c ****   while (*cursor == ' ')
 3037              		.loc 1 1047 3 is_stmt 1 view .LVU563
1047:App/Src/fault_command.c ****   while (*cursor == ' ')
 3038              		.loc 1 1047 9 is_stmt 0 view .LVU564
 3039 0018 0130     		adds	r0, r0, #1
 3040              	.LVL259:
1048:App/Src/fault_command.c ****   {
 3041              		.loc 1 1048 3 is_stmt 1 view .LVU565
 3042              	.L176:
1048:App/Src/fault_command.c ****   {
 3043              		.loc 1 1048 18 view .LVU566
1048:App/Src/fault_command.c ****   {
 3044              		.loc 1 1048 10 is_stmt 0 view .LVU567
 3045 001a 0378     		ldrb	r3, [r0]	@ zero_extendqisi2
1048:App/Src/fault_command.c ****   {
 3046              		.loc 1 1048 18 view .LVU568
 3047 001c 202B     		cmp	r3, #32
 3048 001e 01D1     		bne	.L181
1050:App/Src/fault_command.c ****   }
 3049              		.loc 1 1050 5 is_stmt 1 view .LVU569
1050:App/Src/fault_command.c ****   }
 3050              		.loc 1 1050 11 is_stmt 0 view .LVU570
 3051 0020 0130     		adds	r0, r0, #1
 3052              	.LVL260:
1050:App/Src/fault_command.c ****   }
 3053              		.loc 1 1050 11 view .LVU571
 3054 0022 FAE7     		b	.L176
ARM GAS  C:\Users\hh\AppData\Local\Temp\ccnvB5Va.s 			page 86


 3055              	.LVL261:
 3056              	.L181:
1053:App/Src/fault_command.c ****   return 1U;
 3057              		.loc 1 1053 3 is_stmt 1 view .LVU572
1053:App/Src/fault_command.c ****   return 1U;
 3058              		.loc 1 1053 12 is_stmt 0 view .LVU573
 3059 0024 0A22     		movs	r2, #10
 3060 0026 0021     		movs	r1, #0
 3061 0028 FFF7FEFF 		bl	strtoul
 3062              	.LVL262:
1053:App/Src/fault_command.c ****   return 1U;
 3063              		.loc 1 1053 10 discriminator 1 view .LVU574
 3064 002c 2060     		str	r0, [r4]
1054:App/Src/fault_command.c **** }
 3065              		.loc 1 1054 3 is_stmt 1 view .LVU575
1054:App/Src/fault_command.c **** }
 3066              		.loc 1 1054 10 is_stmt 0 view .LVU576
 3067 002e 0120     		movs	r0, #1
 3068              	.LVL263:
 3069              	.L175:
1055:App/Src/fault_command.c **** 
 3070              		.loc 1 1055 1 view .LVU577
 3071 0030 10BD     		pop	{r4, pc}
 3072              	.LVL264:
 3073              	.L178:
1038:App/Src/fault_command.c ****   }
 3074              		.loc 1 1038 12 view .LVU578
 3075 0032 0020     		movs	r0, #0
 3076              	.LVL265:
1038:App/Src/fault_command.c ****   }
 3077              		.loc 1 1038 12 view .LVU579
 3078 0034 FCE7     		b	.L175
 3079              		.cfi_endproc
 3080              	.LFE177:
 3082              		.section	.text.FaultCommand_JsonGetUintDefault,"ax",%progbits
 3083              		.align	1
 3084              		.syntax unified
 3085              		.thumb
 3086              		.thumb_func
 3088              	FaultCommand_JsonGetUintDefault:
 3089              	.LVL266:
 3090              	.LFB179:
1081:App/Src/fault_command.c **** 
1082:App/Src/fault_command.c **** static uint32_t FaultCommand_JsonGetUintDefault(const char *json, const char *key, uint32_t default
1083:App/Src/fault_command.c **** {
 3091              		.loc 1 1083 1 is_stmt 1 view -0
 3092              		.cfi_startproc
 3093              		@ args = 0, pretend = 0, frame = 8
 3094              		@ frame_needed = 0, uses_anonymous_args = 0
 3095              		.loc 1 1083 1 is_stmt 0 view .LVU581
 3096 0000 00B5     		push	{lr}
 3097              	.LCFI77:
 3098              		.cfi_def_cfa_offset 4
 3099              		.cfi_offset 14, -4
 3100 0002 83B0     		sub	sp, sp, #12
 3101              	.LCFI78:
 3102              		.cfi_def_cfa_offset 16
ARM GAS  C:\Users\hh\AppData\Local\Temp\ccnvB5Va.s 			page 87


1084:App/Src/fault_command.c ****   uint32_t value = defaultValue;
 3103              		.loc 1 1084 3 is_stmt 1 view .LVU582
 3104              		.loc 1 1084 12 is_stmt 0 view .LVU583
 3105 0004 0192     		str	r2, [sp, #4]
1085:App/Src/fault_command.c **** 
1086:App/Src/fault_command.c ****   (void)FaultCommand_JsonGetUint(json, key, &value);
 3106              		.loc 1 1086 3 is_stmt 1 view .LVU584
 3107              		.loc 1 1086 9 is_stmt 0 view .LVU585
 3108 0006 01AA     		add	r2, sp, #4
 3109              	.LVL267:
 3110              		.loc 1 1086 9 view .LVU586
 3111 0008 FFF7FEFF 		bl	FaultCommand_JsonGetUint
 3112              	.LVL268:
1087:App/Src/fault_command.c ****   return value;
 3113              		.loc 1 1087 3 is_stmt 1 view .LVU587
1088:App/Src/fault_command.c **** }
 3114              		.loc 1 1088 1 is_stmt 0 view .LVU588
 3115 000c 0198     		ldr	r0, [sp, #4]
 3116 000e 03B0     		add	sp, sp, #12
 3117              	.LCFI79:
 3118              		.cfi_def_cfa_offset 4
 3119              		@ sp needed
 3120 0010 00BD     		pop	{pc}
 3121              		.cfi_endproc
 3122              	.LFE179:
 3124              		.section	.rodata.FaultCommand_ExecuteJson.str1.4,"aMS",%progbits,1
 3125              		.align	2
 3126              	.LC70:
 3127 0000 636D6400 		.ascii	"cmd\000"
 3128              		.align	2
 3129              	.LC71:
 3130 0004 7B226F6B 		.ascii	"{\"ok\":false,\"error\":\"missing_cmd\"}\015\012\000"
 3130      223A6661 
 3130      6C73652C 
 3130      22657272 
 3130      6F72223A 
 3131 0029 000000   		.align	2
 3132              	.LC72:
 3133 002c 73746174 		.ascii	"status\000"
 3133      757300
 3134 0033 00       		.align	2
 3135              	.LC73:
 3136 0034 68656C70 		.ascii	"help\000"
 3136      00
 3137 0039 000000   		.align	2
 3138              	.LC74:
 3139 003c 7B226F6B 		.ascii	"{\"ok\":true,\"commands\":[\"status\",\"normal\",\""
 3139      223A7472 
 3139      75652C22 
 3139      636F6D6D 
 3139      616E6473 
 3140 0066 73657422 		.ascii	"set\",\"ov\",\"uv\",\"diff\",\"wave\",\"wave_stop\""
 3140      2C226F76 
 3140      222C2275 
 3140      76222C22 
 3140      64696666 
 3141 008e 2C226361 		.ascii	",\"cal\",\"test\",\"can\",\"log\",\"safe\",\"sram\""
ARM GAS  C:\Users\hh\AppData\Local\Temp\ccnvB5Va.s 			page 88


 3141      6C222C22 
 3141      74657374 
 3141      222C2263 
 3141      616E222C 
 3142 00b5 2C22636C 		.ascii	",\"clear\"]}\015\012\000"
 3142      65617222 
 3142      5D7D0D0A 
 3142      00
 3143 00c2 0000     		.align	2
 3144              	.LC75:
 3145 00c4 6E6F726D 		.ascii	"normal\000"
 3145      616C00
 3146 00cb 00       		.align	2
 3147              	.LC76:
 3148 00cc 6D7600   		.ascii	"mv\000"
 3149 00cf 00       		.align	2
 3150              	.LC77:
 3151 00d0 73657400 		.ascii	"set\000"
 3152              		.align	2
 3153              	.LC78:
 3154 00d4 63656C6C 		.ascii	"cell\000"
 3154      00
 3155 00d9 000000   		.align	2
 3156              	.LC79:
 3157 00dc 6F7600   		.ascii	"ov\000"
 3158 00df 00       		.align	2
 3159              	.LC80:
 3160 00e0 6F766572 		.ascii	"over_voltage\000"
 3160      5F766F6C 
 3160      74616765 
 3160      00
 3161 00ed 000000   		.align	2
 3162              	.LC81:
 3163 00f0 64757261 		.ascii	"duration_ms\000"
 3163      74696F6E 
 3163      5F6D7300 
 3164              		.align	2
 3165              	.LC82:
 3166 00fc 736C6577 		.ascii	"slew_mv_per_ms\000"
 3166      5F6D765F 
 3166      7065725F 
 3166      6D7300
 3167 010b 00       		.align	2
 3168              	.LC83:
 3169 010c 757600   		.ascii	"uv\000"
 3170 010f 00       		.align	2
 3171              	.LC84:
 3172 0110 756E6465 		.ascii	"under_voltage\000"
 3172      725F766F 
 3172      6C746167 
 3172      6500
 3173 011e 0000     		.align	2
 3174              	.LC85:
 3175 0120 64696666 		.ascii	"diff\000"
 3175      00
 3176 0125 000000   		.align	2
 3177              	.LC86:
ARM GAS  C:\Users\hh\AppData\Local\Temp\ccnvB5Va.s 			page 89


 3178 0128 68696768 		.ascii	"high_cell\000"
 3178      5F63656C 
 3178      6C00
 3179 0132 0000     		.align	2
 3180              	.LC87:
 3181 0134 68696768 		.ascii	"high_mv\000"
 3181      5F6D7600 
 3182              		.align	2
 3183              	.LC88:
 3184 013c 6C6F775F 		.ascii	"low_cell\000"
 3184      63656C6C 
 3184      00
 3185 0145 000000   		.align	2
 3186              	.LC89:
 3187 0148 6C6F775F 		.ascii	"low_mv\000"
 3187      6D7600
 3188 014f 00       		.align	2
 3189              	.LC90:
 3190 0150 77617665 		.ascii	"wave\000"
 3190      00
 3191 0155 000000   		.align	2
 3192              	.LC91:
 3193 0158 74797065 		.ascii	"type\000"
 3193      00
 3194 015d 000000   		.align	2
 3195              	.LC92:
 3196 0160 73746F70 		.ascii	"stop\000"
 3196      00
 3197 0165 000000   		.align	2
 3198              	.LC93:
 3199 0168 73717561 		.ascii	"square\000"
 3199      726500
 3200 016f 00       		.align	2
 3201              	.LC94:
 3202 0170 70657269 		.ascii	"period_ms\000"
 3202      6F645F6D 
 3202      7300
 3203 017a 0000     		.align	2
 3204              	.LC95:
 3205 017c 73696E65 		.ascii	"sine\000"
 3205      00
 3206 0181 000000   		.align	2
 3207              	.LC96:
 3208 0184 6F666673 		.ascii	"offset_mv\000"
 3208      65745F6D 
 3208      7600
 3209 018e 0000     		.align	2
 3210              	.LC97:
 3211 0190 616D706C 		.ascii	"amplitude_mv\000"
 3211      69747564 
 3211      655F6D76 
 3211      00
 3212 019d 000000   		.align	2
 3213              	.LC98:
 3214 01a0 73696E65 		.ascii	"sine_all\000"
 3214      5F616C6C 
 3214      00
ARM GAS  C:\Users\hh\AppData\Local\Temp\ccnvB5Va.s 			page 90


 3215 01a9 000000   		.align	2
 3216              	.LC99:
 3217 01ac 77617665 		.ascii	"wave_stop\000"
 3217      5F73746F 
 3217      7000
 3218 01b6 0000     		.align	2
 3219              	.LC100:
 3220 01b8 63616C00 		.ascii	"cal\000"
 3221              		.align	2
 3222              	.LC101:
 3223 01bc 61637469 		.ascii	"action\000"
 3223      6F6E00
 3224 01c3 00       		.align	2
 3225              	.LC102:
 3226 01c4 7B226F6B 		.ascii	"{\"ok\":true,\"calibration\":[\000"
 3226      223A7472 
 3226      75652C22 
 3226      63616C69 
 3226      62726174 
 3227 01df 00       		.align	2
 3228              	.LC103:
 3229 01e0 25737B22 		.ascii	"%s{\"cell\":%u,\"offset_mv\":%d}\000"
 3229      63656C6C 
 3229      223A2575 
 3229      2C226F66 
 3229      66736574 
 3230 01fd 000000   		.align	2
 3231              	.LC104:
 3232 0200 7472696D 		.ascii	"trim\000"
 3232      00
 3233 0205 000000   		.align	2
 3234              	.LC105:
 3235 0208 74617267 		.ascii	"target_mv\000"
 3235      65745F6D 
 3235      7600
 3236 0212 0000     		.align	2
 3237              	.LC106:
 3238 0214 6D656173 		.ascii	"measured_mv\000"
 3238      75726564 
 3238      5F6D7600 
 3239              		.align	2
 3240              	.LC107:
 3241 0220 636C6561 		.ascii	"clear\000"
 3241      7200
 3242 0226 0000     		.align	2
 3243              	.LC108:
 3244 0228 74657374 		.ascii	"test\000"
 3244      00
 3245 022d 000000   		.align	2
 3246              	.LC109:
 3247 0230 73746174 		.ascii	"static\000"
 3247      696300
 3248 0237 00       		.align	2
 3249              	.LC110:
 3250 0238 736C6577 		.ascii	"slew\000"
 3250      00
 3251 023d 000000   		.align	2
ARM GAS  C:\Users\hh\AppData\Local\Temp\ccnvB5Va.s 			page 91


 3252              	.LC111:
 3253 0240 63616E00 		.ascii	"can\000"
 3254              		.align	2
 3255              	.LC112:
 3256 0244 73656E64 		.ascii	"send\000"
 3256      00
 3257 0249 000000   		.align	2
 3258              	.LC113:
 3259 024c 696400   		.ascii	"id\000"
 3260 024f 00       		.align	2
 3261              	.LC114:
 3262 0250 6C656E00 		.ascii	"len\000"
 3263              		.align	2
 3264              	.LC115:
 3265 0254 65787465 		.ascii	"extended\000"
 3265      6E646564 
 3265      00
 3266 025d 000000   		.align	2
 3267              	.LC116:
 3268 0260 64257500 		.ascii	"d%u\000"
 3269              		.align	2
 3270              	.LC117:
 3271 0264 6C6F6700 		.ascii	"log\000"
 3272              		.align	2
 3273              	.LC118:
 3274 0268 73616665 		.ascii	"safe\000"
 3274      00
 3275 026d 000000   		.align	2
 3276              	.LC119:
 3277 0270 656D6572 		.ascii	"emergency_stop\000"
 3277      67656E63 
 3277      795F7374 
 3277      6F7000
 3278 027f 00       		.align	2
 3279              	.LC120:
 3280 0280 72656C65 		.ascii	"release\000"
 3280      61736500 
 3281              		.align	2
 3282              	.LC121:
 3283 0288 7372616D 		.ascii	"sram\000"
 3283      00
 3284 028d 000000   		.align	2
 3285              	.LC122:
 3286 0290 62797465 		.ascii	"bytes\000"
 3286      7300
 3287 0296 0000     		.align	2
 3288              	.LC123:
 3289 0298 7B226F6B 		.ascii	"{\"ok\":false,\"error\":\"unknown_cmd\"}\015\012\000"
 3289      223A6661 
 3289      6C73652C 
 3289      22657272 
 3289      6F72223A 
 3290              		.section	.text.FaultCommand_ExecuteJson,"ax",%progbits
 3291              		.align	1
 3292              		.syntax unified
 3293              		.thumb
 3294              		.thumb_func
ARM GAS  C:\Users\hh\AppData\Local\Temp\ccnvB5Va.s 			page 92


 3296              	FaultCommand_ExecuteJson:
 3297              	.LVL269:
 3298              	.LFB180:
1089:App/Src/fault_command.c **** 
1090:App/Src/fault_command.c **** static void FaultCommand_ExecuteJson(const char *json, FaultCommand_WriteFn write, void *context)
1091:App/Src/fault_command.c **** {
 3299              		.loc 1 1091 1 is_stmt 1 view -0
 3300              		.cfi_startproc
 3301              		@ args = 0, pretend = 0, frame = 88
 3302              		@ frame_needed = 0, uses_anonymous_args = 0
 3303              		.loc 1 1091 1 is_stmt 0 view .LVU590
 3304 0000 2DE9F041 		push	{r4, r5, r6, r7, r8, lr}
 3305              	.LCFI80:
 3306              		.cfi_def_cfa_offset 24
 3307              		.cfi_offset 4, -24
 3308              		.cfi_offset 5, -20
 3309              		.cfi_offset 6, -16
 3310              		.cfi_offset 7, -12
 3311              		.cfi_offset 8, -8
 3312              		.cfi_offset 14, -4
 3313 0004 98B0     		sub	sp, sp, #96
 3314              	.LCFI81:
 3315              		.cfi_def_cfa_offset 120
 3316 0006 0446     		mov	r4, r0
 3317 0008 0E46     		mov	r6, r1
 3318 000a 1746     		mov	r7, r2
1092:App/Src/fault_command.c ****   char cmd[16];
 3319              		.loc 1 1092 3 is_stmt 1 view .LVU591
1093:App/Src/fault_command.c ****   char type[16];
 3320              		.loc 1 1093 3 view .LVU592
1094:App/Src/fault_command.c ****   uint32_t cell;
 3321              		.loc 1 1094 3 view .LVU593
1095:App/Src/fault_command.c ****   uint32_t mv;
 3322              		.loc 1 1095 3 view .LVU594
1096:App/Src/fault_command.c ****   uint32_t duration;
 3323              		.loc 1 1096 3 view .LVU595
1097:App/Src/fault_command.c ****   uint32_t slew;
 3324              		.loc 1 1097 3 view .LVU596
1098:App/Src/fault_command.c ****   HAL_StatusTypeDef status = HAL_ERROR;
 3325              		.loc 1 1098 3 view .LVU597
 3326              	.LVL270:
1099:App/Src/fault_command.c **** 
1100:App/Src/fault_command.c ****   if (FaultCommand_JsonGetString(json, "cmd", cmd, sizeof(cmd)) == 0U)
 3327              		.loc 1 1100 3 view .LVU598
 3328              		.loc 1 1100 7 is_stmt 0 view .LVU599
 3329 000c 1023     		movs	r3, #16
 3330 000e 14AA     		add	r2, sp, #80
 3331              	.LVL271:
 3332              		.loc 1 1100 7 view .LVU600
 3333 0010 A349     		ldr	r1, .L362
 3334              	.LVL272:
 3335              		.loc 1 1100 7 view .LVU601
 3336 0012 FFF7FEFF 		bl	FaultCommand_JsonGetString
 3337              	.LVL273:
 3338              		.loc 1 1100 6 discriminator 1 view .LVU602
 3339 0016 0028     		cmp	r0, #0
 3340 0018 2AD0     		beq	.L294
ARM GAS  C:\Users\hh\AppData\Local\Temp\ccnvB5Va.s 			page 93


1101:App/Src/fault_command.c ****   {
1102:App/Src/fault_command.c ****     FaultCommand_Write(write, context, "{\"ok\":false,\"error\":\"missing_cmd\"}\r\n");
1103:App/Src/fault_command.c ****     return;
1104:App/Src/fault_command.c ****   }
1105:App/Src/fault_command.c **** 
1106:App/Src/fault_command.c ****   if (strcmp(cmd, "status") == 0)
 3341              		.loc 1 1106 3 is_stmt 1 view .LVU603
 3342              		.loc 1 1106 7 is_stmt 0 view .LVU604
 3343 001a A249     		ldr	r1, .L362+4
 3344 001c 14A8     		add	r0, sp, #80
 3345 001e FFF7FEFF 		bl	strcmp
 3346              	.LVL274:
 3347              		.loc 1 1106 6 discriminator 1 view .LVU605
 3348 0022 0028     		cmp	r0, #0
 3349 0024 2AD0     		beq	.L295
1107:App/Src/fault_command.c ****   {
1108:App/Src/fault_command.c ****     FaultCommand_WriteJsonStatus(write, context);
1109:App/Src/fault_command.c ****     return;
1110:App/Src/fault_command.c ****   }
1111:App/Src/fault_command.c **** 
1112:App/Src/fault_command.c ****   if (strcmp(cmd, "help") == 0)
 3350              		.loc 1 1112 3 is_stmt 1 view .LVU606
 3351              		.loc 1 1112 7 is_stmt 0 view .LVU607
 3352 0026 A049     		ldr	r1, .L362+8
 3353 0028 14A8     		add	r0, sp, #80
 3354 002a FFF7FEFF 		bl	strcmp
 3355              	.LVL275:
 3356              		.loc 1 1112 6 discriminator 1 view .LVU608
 3357 002e 50B3     		cbz	r0, .L296
1113:App/Src/fault_command.c ****   {
1114:App/Src/fault_command.c ****     FaultCommand_Write(write,
1115:App/Src/fault_command.c ****                        context,
1116:App/Src/fault_command.c ****                        "{\"ok\":true,\"commands\":[\"status\",\"normal\",\"set\",\"ov\",\"uv\",\"di
1117:App/Src/fault_command.c ****     return;
1118:App/Src/fault_command.c ****   }
1119:App/Src/fault_command.c **** 
1120:App/Src/fault_command.c ****   if (strcmp(cmd, "normal") == 0)
 3358              		.loc 1 1120 3 is_stmt 1 view .LVU609
 3359              		.loc 1 1120 7 is_stmt 0 view .LVU610
 3360 0030 9E49     		ldr	r1, .L362+12
 3361 0032 14A8     		add	r0, sp, #80
 3362 0034 FFF7FEFF 		bl	strcmp
 3363              	.LVL276:
 3364              		.loc 1 1120 6 discriminator 1 view .LVU611
 3365 0038 58B3     		cbz	r0, .L297
1121:App/Src/fault_command.c ****   {
1122:App/Src/fault_command.c ****     mv = FaultCommand_JsonGetUintDefault(json, "mv", VOLTAGE_SIM_DEFAULT_NORMAL_MV);
1123:App/Src/fault_command.c ****     status = FaultCommand_RunNormal((uint16_t)mv);
1124:App/Src/fault_command.c ****   }
1125:App/Src/fault_command.c ****   else if (strcmp(cmd, "set") == 0)
 3366              		.loc 1 1125 8 is_stmt 1 view .LVU612
 3367              		.loc 1 1125 12 is_stmt 0 view .LVU613
 3368 003a 9D49     		ldr	r1, .L362+16
 3369 003c 14A8     		add	r0, sp, #80
 3370 003e FFF7FEFF 		bl	strcmp
 3371              	.LVL277:
 3372              		.loc 1 1125 11 discriminator 1 view .LVU614
ARM GAS  C:\Users\hh\AppData\Local\Temp\ccnvB5Va.s 			page 94


 3373 0042 0028     		cmp	r0, #0
 3374 0044 39D0     		beq	.L298
1126:App/Src/fault_command.c ****   {
1127:App/Src/fault_command.c ****     if ((FaultCommand_JsonGetUint(json, "cell", &cell) != 0U) &&
1128:App/Src/fault_command.c ****         (FaultCommand_JsonGetUint(json, "mv", &mv) != 0U))
1129:App/Src/fault_command.c ****     {
1130:App/Src/fault_command.c ****       status = FaultCommand_RunSet((uint8_t)cell, (uint16_t)mv);
1131:App/Src/fault_command.c ****     }
1132:App/Src/fault_command.c ****   }
1133:App/Src/fault_command.c ****   else if ((strcmp(cmd, "ov") == 0) || (strcmp(cmd, "over_voltage") == 0))
 3375              		.loc 1 1133 8 is_stmt 1 view .LVU615
 3376              		.loc 1 1133 13 is_stmt 0 view .LVU616
 3377 0046 9B49     		ldr	r1, .L362+20
 3378 0048 14A8     		add	r0, sp, #80
 3379 004a FFF7FEFF 		bl	strcmp
 3380              	.LVL278:
 3381              		.loc 1 1133 11 discriminator 1 view .LVU617
 3382 004e 28B1     		cbz	r0, .L192
 3383              		.loc 1 1133 41 discriminator 2 view .LVU618
 3384 0050 9949     		ldr	r1, .L362+24
 3385 0052 14A8     		add	r0, sp, #80
 3386 0054 FFF7FEFF 		bl	strcmp
 3387              	.LVL279:
 3388              		.loc 1 1133 37 discriminator 3 view .LVU619
 3389 0058 0028     		cmp	r0, #0
 3390 005a 65D1     		bne	.L193
 3391              	.L192:
1134:App/Src/fault_command.c ****   {
1135:App/Src/fault_command.c ****     if (FaultCommand_JsonGetUint(json, "cell", &cell) != 0U)
 3392              		.loc 1 1135 5 is_stmt 1 view .LVU620
 3393              		.loc 1 1135 9 is_stmt 0 view .LVU621
 3394 005c 0FAA     		add	r2, sp, #60
 3395 005e 9749     		ldr	r1, .L362+28
 3396 0060 2046     		mov	r0, r4
 3397 0062 FFF7FEFF 		bl	FaultCommand_JsonGetUint
 3398              	.LVL280:
 3399              		.loc 1 1135 8 discriminator 1 view .LVU622
 3400 0066 0028     		cmp	r0, #0
 3401 0068 41D1     		bne	.L299
1098:App/Src/fault_command.c **** 
 3402              		.loc 1 1098 21 view .LVU623
 3403 006a 0123     		movs	r3, #1
 3404 006c 1C46     		mov	r4, r3
 3405              	.LVL281:
1098:App/Src/fault_command.c **** 
 3406              		.loc 1 1098 21 view .LVU624
 3407 006e 1BE0     		b	.L190
 3408              	.LVL282:
 3409              	.L294:
1102:App/Src/fault_command.c ****     return;
 3410              		.loc 1 1102 5 is_stmt 1 view .LVU625
 3411 0070 934A     		ldr	r2, .L362+32
 3412 0072 3946     		mov	r1, r7
 3413 0074 3046     		mov	r0, r6
 3414 0076 FFF7FEFF 		bl	FaultCommand_Write
 3415              	.LVL283:
1103:App/Src/fault_command.c ****   }
ARM GAS  C:\Users\hh\AppData\Local\Temp\ccnvB5Va.s 			page 95


 3416              		.loc 1 1103 5 view .LVU626
 3417 007a 1BE0     		b	.L184
 3418              	.L295:
1108:App/Src/fault_command.c ****     return;
 3419              		.loc 1 1108 5 view .LVU627
 3420 007c 3946     		mov	r1, r7
 3421 007e 3046     		mov	r0, r6
 3422 0080 FFF7FEFF 		bl	FaultCommand_WriteJsonStatus
 3423              	.LVL284:
1109:App/Src/fault_command.c ****   }
 3424              		.loc 1 1109 5 view .LVU628
 3425 0084 16E0     		b	.L184
 3426              	.L296:
1114:App/Src/fault_command.c ****                        context,
 3427              		.loc 1 1114 5 view .LVU629
 3428 0086 8F4A     		ldr	r2, .L362+36
 3429 0088 3946     		mov	r1, r7
 3430 008a 3046     		mov	r0, r6
 3431 008c FFF7FEFF 		bl	FaultCommand_Write
 3432              	.LVL285:
1117:App/Src/fault_command.c ****   }
 3433              		.loc 1 1117 5 view .LVU630
 3434 0090 10E0     		b	.L184
 3435              	.L297:
1122:App/Src/fault_command.c ****     status = FaultCommand_RunNormal((uint16_t)mv);
 3436              		.loc 1 1122 5 view .LVU631
1122:App/Src/fault_command.c ****     status = FaultCommand_RunNormal((uint16_t)mv);
 3437              		.loc 1 1122 10 is_stmt 0 view .LVU632
 3438 0092 4FF44862 		mov	r2, #3200
 3439 0096 8C49     		ldr	r1, .L362+40
 3440 0098 2046     		mov	r0, r4
 3441 009a FFF7FEFF 		bl	FaultCommand_JsonGetUintDefault
 3442              	.LVL286:
1122:App/Src/fault_command.c ****     status = FaultCommand_RunNormal((uint16_t)mv);
 3443              		.loc 1 1122 8 discriminator 1 view .LVU633
 3444 009e 0E90     		str	r0, [sp, #56]
1123:App/Src/fault_command.c ****   }
 3445              		.loc 1 1123 5 is_stmt 1 view .LVU634
1123:App/Src/fault_command.c ****   }
 3446              		.loc 1 1123 14 is_stmt 0 view .LVU635
 3447 00a0 80B2     		uxth	r0, r0
 3448 00a2 FFF7FEFF 		bl	FaultCommand_RunNormal
 3449              	.LVL287:
 3450 00a6 0446     		mov	r4, r0
 3451              	.LVL288:
 3452              	.L190:
1136:App/Src/fault_command.c ****     {
1137:App/Src/fault_command.c ****       mv = FaultCommand_JsonGetUintDefault(json, "mv", VOLTAGE_SIM_DEFAULT_OV_MV);
1138:App/Src/fault_command.c ****       duration = FaultCommand_JsonGetUintDefault(json, "duration_ms", FAULT_COMMAND_DEFAULT_DURATIO
1139:App/Src/fault_command.c ****       slew = FaultCommand_JsonGetUintDefault(json, "slew_mv_per_ms", FAULT_COMMAND_DEFAULT_SLEW_MV_
1140:App/Src/fault_command.c ****       status = FaultCommand_RunOverVoltage((uint8_t)cell, (uint16_t)mv, duration, (uint16_t)slew);
1141:App/Src/fault_command.c ****     }
1142:App/Src/fault_command.c ****   }
1143:App/Src/fault_command.c ****   else if ((strcmp(cmd, "uv") == 0) || (strcmp(cmd, "under_voltage") == 0))
1144:App/Src/fault_command.c ****   {
1145:App/Src/fault_command.c ****     if (FaultCommand_JsonGetUint(json, "cell", &cell) != 0U)
1146:App/Src/fault_command.c ****     {
ARM GAS  C:\Users\hh\AppData\Local\Temp\ccnvB5Va.s 			page 96


1147:App/Src/fault_command.c ****       mv = FaultCommand_JsonGetUintDefault(json, "mv", VOLTAGE_SIM_DEFAULT_UV_MV);
1148:App/Src/fault_command.c ****       duration = FaultCommand_JsonGetUintDefault(json, "duration_ms", FAULT_COMMAND_DEFAULT_DURATIO
1149:App/Src/fault_command.c ****       slew = FaultCommand_JsonGetUintDefault(json, "slew_mv_per_ms", FAULT_COMMAND_DEFAULT_SLEW_MV_
1150:App/Src/fault_command.c ****       status = FaultCommand_RunUnderVoltage((uint8_t)cell, (uint16_t)mv, duration, (uint16_t)slew);
1151:App/Src/fault_command.c ****     }
1152:App/Src/fault_command.c ****   }
1153:App/Src/fault_command.c ****   else if (strcmp(cmd, "diff") == 0)
1154:App/Src/fault_command.c ****   {
1155:App/Src/fault_command.c ****     uint32_t highCell;
1156:App/Src/fault_command.c ****     uint32_t highMv;
1157:App/Src/fault_command.c ****     uint32_t lowCell;
1158:App/Src/fault_command.c ****     uint32_t lowMv;
1159:App/Src/fault_command.c **** 
1160:App/Src/fault_command.c ****     if ((FaultCommand_JsonGetUint(json, "high_cell", &highCell) != 0U) &&
1161:App/Src/fault_command.c ****         (FaultCommand_JsonGetUint(json, "high_mv", &highMv) != 0U) &&
1162:App/Src/fault_command.c ****         (FaultCommand_JsonGetUint(json, "low_cell", &lowCell) != 0U) &&
1163:App/Src/fault_command.c ****         (FaultCommand_JsonGetUint(json, "low_mv", &lowMv) != 0U))
1164:App/Src/fault_command.c ****     {
1165:App/Src/fault_command.c ****       duration = FaultCommand_JsonGetUintDefault(json, "duration_ms", FAULT_COMMAND_DEFAULT_DURATIO
1166:App/Src/fault_command.c ****       slew = FaultCommand_JsonGetUintDefault(json, "slew_mv_per_ms", FAULT_COMMAND_DEFAULT_SLEW_MV_
1167:App/Src/fault_command.c ****       status = FaultCommand_RunDiff((uint8_t)highCell,
1168:App/Src/fault_command.c ****                                     (uint16_t)highMv,
1169:App/Src/fault_command.c ****                                     (uint8_t)lowCell,
1170:App/Src/fault_command.c ****                                     (uint16_t)lowMv,
1171:App/Src/fault_command.c ****                                     duration,
1172:App/Src/fault_command.c ****                                     (uint16_t)slew);
1173:App/Src/fault_command.c ****     }
1174:App/Src/fault_command.c ****   }
1175:App/Src/fault_command.c ****   else if (strcmp(cmd, "wave") == 0)
1176:App/Src/fault_command.c ****   {
1177:App/Src/fault_command.c ****     if (FaultCommand_JsonGetString(json, "type", type, sizeof(type)) != 0U)
1178:App/Src/fault_command.c ****     {
1179:App/Src/fault_command.c ****       if ((strcmp(type, "stop") != 0) && (DacSafety_IsOutputAllowed() == 0U))
1180:App/Src/fault_command.c ****       {
1181:App/Src/fault_command.c ****         status = HAL_BUSY;
1182:App/Src/fault_command.c ****       }
1183:App/Src/fault_command.c ****       else if (strcmp(type, "square") == 0)
1184:App/Src/fault_command.c ****       {
1185:App/Src/fault_command.c ****         uint32_t low;
1186:App/Src/fault_command.c ****         uint32_t high;
1187:App/Src/fault_command.c ****         uint32_t period;
1188:App/Src/fault_command.c **** 
1189:App/Src/fault_command.c ****         if ((FaultCommand_JsonGetUint(json, "cell", &cell) != 0U) &&
1190:App/Src/fault_command.c ****             (FaultCommand_JsonGetUint(json, "low_mv", &low) != 0U) &&
1191:App/Src/fault_command.c ****             (FaultCommand_JsonGetUint(json, "high_mv", &high) != 0U))
1192:App/Src/fault_command.c ****         {
1193:App/Src/fault_command.c ****           period = FaultCommand_JsonGetUintDefault(json, "period_ms", 1000U);
1194:App/Src/fault_command.c ****           status = WaveformGen_StartSquare((uint8_t)cell,
1195:App/Src/fault_command.c ****                                            (uint16_t)low,
1196:App/Src/fault_command.c ****                                            (uint16_t)high,
1197:App/Src/fault_command.c ****                                            period);
1198:App/Src/fault_command.c ****         }
1199:App/Src/fault_command.c ****       }
1200:App/Src/fault_command.c ****       else if (strcmp(type, "sine") == 0)
1201:App/Src/fault_command.c ****       {
1202:App/Src/fault_command.c ****         uint32_t offset;
1203:App/Src/fault_command.c ****         uint32_t amplitude;
ARM GAS  C:\Users\hh\AppData\Local\Temp\ccnvB5Va.s 			page 97


1204:App/Src/fault_command.c ****         uint32_t period;
1205:App/Src/fault_command.c **** 
1206:App/Src/fault_command.c ****         if ((FaultCommand_JsonGetUint(json, "cell", &cell) != 0U) &&
1207:App/Src/fault_command.c ****             (FaultCommand_JsonGetUint(json, "offset_mv", &offset) != 0U) &&
1208:App/Src/fault_command.c ****             (FaultCommand_JsonGetUint(json, "amplitude_mv", &amplitude) != 0U))
1209:App/Src/fault_command.c ****         {
1210:App/Src/fault_command.c ****           period = FaultCommand_JsonGetUintDefault(json, "period_ms", 1000U);
1211:App/Src/fault_command.c ****           status = WaveformGen_StartSine((uint8_t)cell,
1212:App/Src/fault_command.c ****                                          (uint16_t)offset,
1213:App/Src/fault_command.c ****                                          (uint16_t)amplitude,
1214:App/Src/fault_command.c ****                                          period);
1215:App/Src/fault_command.c ****         }
1216:App/Src/fault_command.c ****       }
1217:App/Src/fault_command.c ****       else if (strcmp(type, "sine_all") == 0)
1218:App/Src/fault_command.c ****       {
1219:App/Src/fault_command.c ****         uint32_t offset;
1220:App/Src/fault_command.c ****         uint32_t amplitude;
1221:App/Src/fault_command.c ****         uint32_t period;
1222:App/Src/fault_command.c **** 
1223:App/Src/fault_command.c ****         if ((FaultCommand_JsonGetUint(json, "offset_mv", &offset) != 0U) &&
1224:App/Src/fault_command.c ****             (FaultCommand_JsonGetUint(json, "amplitude_mv", &amplitude) != 0U))
1225:App/Src/fault_command.c ****         {
1226:App/Src/fault_command.c ****           period = FaultCommand_JsonGetUintDefault(json, "period_ms", 1000U);
1227:App/Src/fault_command.c ****           status = WaveformGen_StartSineAll((uint16_t)offset,
1228:App/Src/fault_command.c ****                                             (uint16_t)amplitude,
1229:App/Src/fault_command.c ****                                             period);
1230:App/Src/fault_command.c ****         }
1231:App/Src/fault_command.c ****       }
1232:App/Src/fault_command.c ****       else if (strcmp(type, "stop") == 0)
1233:App/Src/fault_command.c ****       {
1234:App/Src/fault_command.c ****         WaveformGen_Stop();
1235:App/Src/fault_command.c ****         status = HAL_OK;
1236:App/Src/fault_command.c ****       }
1237:App/Src/fault_command.c ****     }
1238:App/Src/fault_command.c ****   }
1239:App/Src/fault_command.c ****   else if (strcmp(cmd, "wave_stop") == 0)
1240:App/Src/fault_command.c ****   {
1241:App/Src/fault_command.c ****     WaveformGen_Stop();
1242:App/Src/fault_command.c ****     status = HAL_OK;
1243:App/Src/fault_command.c ****   }
1244:App/Src/fault_command.c ****   else if (strcmp(cmd, "cal") == 0)
1245:App/Src/fault_command.c ****   {
1246:App/Src/fault_command.c ****     char action[16];
1247:App/Src/fault_command.c **** 
1248:App/Src/fault_command.c ****     if (FaultCommand_JsonGetString(json, "action", action, sizeof(action)) != 0U)
1249:App/Src/fault_command.c ****     {
1250:App/Src/fault_command.c ****       if (strcmp(action, "status") == 0)
1251:App/Src/fault_command.c ****       {
1252:App/Src/fault_command.c ****         FaultCommand_Write(write, context, "{\"ok\":true,\"calibration\":[");
1253:App/Src/fault_command.c ****         for (uint8_t calCell = 1U; calCell <= VOLTAGE_SIM_CELL_COUNT; calCell++)
1254:App/Src/fault_command.c ****         {
1255:App/Src/fault_command.c ****           FaultCommand_WriteFormat(write,
1256:App/Src/fault_command.c ****                                    context,
1257:App/Src/fault_command.c ****                                    "%s{\"cell\":%u,\"offset_mv\":%d}",
1258:App/Src/fault_command.c ****                                    (calCell == 1U) ? "" : ",",
1259:App/Src/fault_command.c ****                                    calCell,
1260:App/Src/fault_command.c ****                                    (int)VoltageSim_GetCellCalibrationOffsetMv(calCell));
ARM GAS  C:\Users\hh\AppData\Local\Temp\ccnvB5Va.s 			page 98


1261:App/Src/fault_command.c ****         }
1262:App/Src/fault_command.c ****         FaultCommand_Write(write, context, "]}\r\n");
1263:App/Src/fault_command.c ****         return;
1264:App/Src/fault_command.c ****       }
1265:App/Src/fault_command.c ****       else if (strcmp(action, "set") == 0)
1266:App/Src/fault_command.c ****       {
1267:App/Src/fault_command.c ****         int32_t signedOffset;
1268:App/Src/fault_command.c **** 
1269:App/Src/fault_command.c ****         if (DacSafety_IsOutputAllowed() == 0U)
1270:App/Src/fault_command.c ****         {
1271:App/Src/fault_command.c ****           status = HAL_BUSY;
1272:App/Src/fault_command.c ****         }
1273:App/Src/fault_command.c ****         else if ((FaultCommand_JsonGetUint(json, "cell", &cell) != 0U) &&
1274:App/Src/fault_command.c ****             (FaultCommand_JsonGetInt(json, "offset_mv", &signedOffset) != 0U))
1275:App/Src/fault_command.c ****         {
1276:App/Src/fault_command.c ****           status = VoltageSim_SetCellCalibrationOffsetMv((uint8_t)cell,
1277:App/Src/fault_command.c ****                                                          (int16_t)signedOffset);
1278:App/Src/fault_command.c ****         }
1279:App/Src/fault_command.c ****       }
1280:App/Src/fault_command.c ****       else if (strcmp(action, "trim") == 0)
1281:App/Src/fault_command.c ****       {
1282:App/Src/fault_command.c ****         uint32_t targetMv;
1283:App/Src/fault_command.c ****         uint32_t measuredMv;
1284:App/Src/fault_command.c **** 
1285:App/Src/fault_command.c ****         if (DacSafety_IsOutputAllowed() == 0U)
1286:App/Src/fault_command.c ****         {
1287:App/Src/fault_command.c ****           status = HAL_BUSY;
1288:App/Src/fault_command.c ****         }
1289:App/Src/fault_command.c ****         else if ((FaultCommand_JsonGetUint(json, "cell", &cell) != 0U) &&
1290:App/Src/fault_command.c ****             (FaultCommand_JsonGetUint(json, "target_mv", &targetMv) != 0U) &&
1291:App/Src/fault_command.c ****             (FaultCommand_JsonGetUint(json, "measured_mv", &measuredMv) != 0U))
1292:App/Src/fault_command.c ****         {
1293:App/Src/fault_command.c ****           status = FaultCommand_RunCalibrationTrim((uint8_t)cell,
1294:App/Src/fault_command.c ****                                                   (uint16_t)targetMv,
1295:App/Src/fault_command.c ****                                                   (uint16_t)measuredMv);
1296:App/Src/fault_command.c ****         }
1297:App/Src/fault_command.c ****       }
1298:App/Src/fault_command.c ****       else if (strcmp(action, "clear") == 0)
1299:App/Src/fault_command.c ****       {
1300:App/Src/fault_command.c ****         if (DacSafety_IsOutputAllowed() == 0U)
1301:App/Src/fault_command.c ****         {
1302:App/Src/fault_command.c ****           status = HAL_BUSY;
1303:App/Src/fault_command.c ****         }
1304:App/Src/fault_command.c ****         else if (FaultCommand_JsonGetUint(json, "cell", &cell) != 0U)
1305:App/Src/fault_command.c ****         {
1306:App/Src/fault_command.c ****           status = VoltageSim_ClearCellCalibrationOffset((uint8_t)cell);
1307:App/Src/fault_command.c ****         }
1308:App/Src/fault_command.c ****         else
1309:App/Src/fault_command.c ****         {
1310:App/Src/fault_command.c ****           VoltageSim_ClearAllCalibrationOffsets();
1311:App/Src/fault_command.c ****           status = HAL_OK;
1312:App/Src/fault_command.c ****         }
1313:App/Src/fault_command.c ****       }
1314:App/Src/fault_command.c ****     }
1315:App/Src/fault_command.c ****   }
1316:App/Src/fault_command.c ****   else if (strcmp(cmd, "test") == 0)
1317:App/Src/fault_command.c ****   {
ARM GAS  C:\Users\hh\AppData\Local\Temp\ccnvB5Va.s 			page 99


1318:App/Src/fault_command.c ****     if (FaultCommand_JsonGetString(json, "type", type, sizeof(type)) != 0U)
1319:App/Src/fault_command.c ****     {
1320:App/Src/fault_command.c ****       if (strcmp(type, "static") == 0)
1321:App/Src/fault_command.c ****       {
1322:App/Src/fault_command.c ****         if (FaultCommand_JsonGetUint(json, "mv", &mv) != 0U)
1323:App/Src/fault_command.c ****         {
1324:App/Src/fault_command.c ****           status = FaultCommand_RunNormal((uint16_t)mv);
1325:App/Src/fault_command.c ****         }
1326:App/Src/fault_command.c ****       }
1327:App/Src/fault_command.c ****       else if (strcmp(type, "slew") == 0)
1328:App/Src/fault_command.c ****       {
1329:App/Src/fault_command.c ****         uint32_t low;
1330:App/Src/fault_command.c ****         uint32_t high;
1331:App/Src/fault_command.c ****         uint32_t period;
1332:App/Src/fault_command.c **** 
1333:App/Src/fault_command.c ****         if (DacSafety_IsOutputAllowed() == 0U)
1334:App/Src/fault_command.c ****         {
1335:App/Src/fault_command.c ****           status = HAL_BUSY;
1336:App/Src/fault_command.c ****         }
1337:App/Src/fault_command.c ****         else if ((FaultCommand_JsonGetUint(json, "cell", &cell) != 0U) &&
1338:App/Src/fault_command.c ****             (FaultCommand_JsonGetUint(json, "low_mv", &low) != 0U) &&
1339:App/Src/fault_command.c ****             (FaultCommand_JsonGetUint(json, "high_mv", &high) != 0U))
1340:App/Src/fault_command.c ****         {
1341:App/Src/fault_command.c ****           period = FaultCommand_JsonGetUintDefault(json, "period_ms", 1000U);
1342:App/Src/fault_command.c ****           status = WaveformGen_StartSquare((uint8_t)cell,
1343:App/Src/fault_command.c ****                                            (uint16_t)low,
1344:App/Src/fault_command.c ****                                            (uint16_t)high,
1345:App/Src/fault_command.c ****                                            period);
1346:App/Src/fault_command.c ****         }
1347:App/Src/fault_command.c ****       }
1348:App/Src/fault_command.c ****     }
1349:App/Src/fault_command.c ****   }
1350:App/Src/fault_command.c ****   else if (strcmp(cmd, "can") == 0)
1351:App/Src/fault_command.c ****   {
1352:App/Src/fault_command.c ****     char action[16];
1353:App/Src/fault_command.c **** 
1354:App/Src/fault_command.c ****     if (FaultCommand_JsonGetString(json, "action", action, sizeof(action)) != 0U)
1355:App/Src/fault_command.c ****     {
1356:App/Src/fault_command.c ****       if (strcmp(action, "status") == 0)
1357:App/Src/fault_command.c ****       {
1358:App/Src/fault_command.c ****         FaultCommand_WriteJsonCanStatus(write, context);
1359:App/Src/fault_command.c ****         return;
1360:App/Src/fault_command.c ****       }
1361:App/Src/fault_command.c ****       else if (strcmp(action, "send") == 0)
1362:App/Src/fault_command.c ****       {
1363:App/Src/fault_command.c ****         uint32_t id;
1364:App/Src/fault_command.c ****         uint32_t length;
1365:App/Src/fault_command.c ****         uint32_t extended;
1366:App/Src/fault_command.c ****         uint8_t data[BSP_CAN_MAX_DATA_LEN] = {0};
1367:App/Src/fault_command.c **** 
1368:App/Src/fault_command.c ****         if ((FaultCommand_JsonGetUint(json, "id", &id) != 0U) &&
1369:App/Src/fault_command.c ****             (FaultCommand_JsonGetUint(json, "len", &length) != 0U) &&
1370:App/Src/fault_command.c ****             (length <= BSP_CAN_MAX_DATA_LEN))
1371:App/Src/fault_command.c ****         {
1372:App/Src/fault_command.c ****           extended = FaultCommand_JsonGetUintDefault(json, "extended", 0U);
1373:App/Src/fault_command.c ****           status = HAL_OK;
1374:App/Src/fault_command.c **** 
ARM GAS  C:\Users\hh\AppData\Local\Temp\ccnvB5Va.s 			page 100


1375:App/Src/fault_command.c ****           for (uint8_t index = 0U; index < length; index++)
1376:App/Src/fault_command.c ****           {
1377:App/Src/fault_command.c ****             char key[8];
1378:App/Src/fault_command.c ****             uint32_t value;
1379:App/Src/fault_command.c **** 
1380:App/Src/fault_command.c ****             (void)snprintf(key, sizeof(key), "d%u", index);
1381:App/Src/fault_command.c ****             if ((FaultCommand_JsonGetUint(json, key, &value) == 0U) || (value > 0xFFU))
1382:App/Src/fault_command.c ****             {
1383:App/Src/fault_command.c ****               status = HAL_ERROR;
1384:App/Src/fault_command.c ****               break;
1385:App/Src/fault_command.c ****             }
1386:App/Src/fault_command.c ****             data[index] = (uint8_t)value;
1387:App/Src/fault_command.c ****           }
1388:App/Src/fault_command.c **** 
1389:App/Src/fault_command.c ****           if (status == HAL_OK)
1390:App/Src/fault_command.c ****           {
1391:App/Src/fault_command.c ****             status = BspCan_SendClassic(id, (extended != 0U) ? 1U : 0U, data, (uint8_t)length);
1392:App/Src/fault_command.c ****           }
1393:App/Src/fault_command.c ****         }
1394:App/Src/fault_command.c ****       }
1395:App/Src/fault_command.c ****     }
1396:App/Src/fault_command.c ****   }
1397:App/Src/fault_command.c ****   else if (strcmp(cmd, "log") == 0)
1398:App/Src/fault_command.c ****   {
1399:App/Src/fault_command.c ****     char action[16];
1400:App/Src/fault_command.c **** 
1401:App/Src/fault_command.c ****     if (FaultCommand_JsonGetString(json, "action", action, sizeof(action)) != 0U)
1402:App/Src/fault_command.c ****     {
1403:App/Src/fault_command.c ****       if (strcmp(action, "status") == 0)
1404:App/Src/fault_command.c ****       {
1405:App/Src/fault_command.c ****         FaultCommand_WriteJsonBmsResponseLog(write, context);
1406:App/Src/fault_command.c ****         return;
1407:App/Src/fault_command.c ****       }
1408:App/Src/fault_command.c ****       else if (strcmp(action, "clear") == 0)
1409:App/Src/fault_command.c ****       {
1410:App/Src/fault_command.c ****         BmsResponseLog_Clear();
1411:App/Src/fault_command.c ****         status = HAL_OK;
1412:App/Src/fault_command.c ****       }
1413:App/Src/fault_command.c ****     }
1414:App/Src/fault_command.c ****   }
1415:App/Src/fault_command.c ****   else if (strcmp(cmd, "safe") == 0)
1416:App/Src/fault_command.c ****   {
1417:App/Src/fault_command.c ****     char action[16];
1418:App/Src/fault_command.c **** 
1419:App/Src/fault_command.c ****     if (FaultCommand_JsonGetString(json, "action", action, sizeof(action)) != 0U)
1420:App/Src/fault_command.c ****     {
1421:App/Src/fault_command.c ****       if (strcmp(action, "status") == 0)
1422:App/Src/fault_command.c ****       {
1423:App/Src/fault_command.c ****         FaultCommand_WriteJsonSafetyStatus(write, context);
1424:App/Src/fault_command.c ****         return;
1425:App/Src/fault_command.c ****       }
1426:App/Src/fault_command.c ****       else if ((strcmp(action, "stop") == 0) || (strcmp(action, "emergency_stop") == 0))
1427:App/Src/fault_command.c ****       {
1428:App/Src/fault_command.c ****         mv = FaultCommand_JsonGetUintDefault(json, "mv", DAC_SAFETY_DEFAULT_SAFE_MV);
1429:App/Src/fault_command.c ****         status = DacSafety_EmergencyStop((uint16_t)mv);
1430:App/Src/fault_command.c ****       }
1431:App/Src/fault_command.c ****       else if (strcmp(action, "release") == 0)
ARM GAS  C:\Users\hh\AppData\Local\Temp\ccnvB5Va.s 			page 101


1432:App/Src/fault_command.c ****       {
1433:App/Src/fault_command.c ****         DacSafety_Release();
1434:App/Src/fault_command.c ****         status = HAL_OK;
1435:App/Src/fault_command.c ****       }
1436:App/Src/fault_command.c ****     }
1437:App/Src/fault_command.c ****   }
1438:App/Src/fault_command.c ****   else if (strcmp(cmd, "sram") == 0)
1439:App/Src/fault_command.c ****   {
1440:App/Src/fault_command.c ****     char action[16];
1441:App/Src/fault_command.c **** 
1442:App/Src/fault_command.c ****     if (FaultCommand_JsonGetString(json, "action", action, sizeof(action)) != 0U)
1443:App/Src/fault_command.c ****     {
1444:App/Src/fault_command.c ****       if (strcmp(action, "status") == 0)
1445:App/Src/fault_command.c ****       {
1446:App/Src/fault_command.c ****         FaultCommand_WriteJsonSramStatus(write, context, HAL_OK);
1447:App/Src/fault_command.c ****         return;
1448:App/Src/fault_command.c ****       }
1449:App/Src/fault_command.c ****       else if (strcmp(action, "test") == 0)
1450:App/Src/fault_command.c ****       {
1451:App/Src/fault_command.c ****         uint32_t bytes = FaultCommand_JsonGetUintDefault(json,
1452:App/Src/fault_command.c ****                                                          "bytes",
1453:App/Src/fault_command.c ****                                                          BSP_SRAM_DEFAULT_TEST_BYTES);
1454:App/Src/fault_command.c ****         status = BspSram_RunSelfTest(bytes);
1455:App/Src/fault_command.c ****         FaultCommand_WriteJsonSramStatus(write, context, status);
1456:App/Src/fault_command.c ****         return;
1457:App/Src/fault_command.c ****       }
1458:App/Src/fault_command.c ****     }
1459:App/Src/fault_command.c ****   }
1460:App/Src/fault_command.c ****   else if (strcmp(cmd, "clear") == 0)
1461:App/Src/fault_command.c ****   {
1462:App/Src/fault_command.c ****     if (DacSafety_IsOutputAllowed() == 0U)
1463:App/Src/fault_command.c ****     {
1464:App/Src/fault_command.c ****       status = HAL_BUSY;
1465:App/Src/fault_command.c ****     }
1466:App/Src/fault_command.c ****     else
1467:App/Src/fault_command.c ****     {
1468:App/Src/fault_command.c ****       WaveformGen_Stop();
1469:App/Src/fault_command.c ****       if (FaultCommand_JsonGetUint(json, "cell", &cell) != 0U)
1470:App/Src/fault_command.c ****       {
1471:App/Src/fault_command.c ****         status = VoltageSim_ClearCellFault((uint8_t)cell);
1472:App/Src/fault_command.c ****       }
1473:App/Src/fault_command.c ****       else
1474:App/Src/fault_command.c ****       {
1475:App/Src/fault_command.c ****         status = VoltageSim_ClearAllFaults();
1476:App/Src/fault_command.c ****       }
1477:App/Src/fault_command.c ****     }
1478:App/Src/fault_command.c ****   }
1479:App/Src/fault_command.c ****   else
1480:App/Src/fault_command.c ****   {
1481:App/Src/fault_command.c ****     FaultCommand_Write(write, context, "{\"ok\":false,\"error\":\"unknown_cmd\"}\r\n");
1482:App/Src/fault_command.c ****     return;
1483:App/Src/fault_command.c ****   }
1484:App/Src/fault_command.c **** 
1485:App/Src/fault_command.c ****   FaultCommand_WriteJsonResult(write, context, cmd, status);
 3453              		.loc 1 1485 3 is_stmt 1 view .LVU636
 3454 00a8 2346     		mov	r3, r4
 3455 00aa 14AA     		add	r2, sp, #80
ARM GAS  C:\Users\hh\AppData\Local\Temp\ccnvB5Va.s 			page 102


 3456 00ac 3946     		mov	r1, r7
 3457 00ae 3046     		mov	r0, r6
 3458 00b0 FFF7FEFF 		bl	FaultCommand_WriteJsonResult
 3459              	.LVL289:
 3460              	.L184:
1486:App/Src/fault_command.c **** }
 3461              		.loc 1 1486 1 is_stmt 0 view .LVU637
 3462 00b4 18B0     		add	sp, sp, #96
 3463              	.LCFI82:
 3464              		.cfi_remember_state
 3465              		.cfi_def_cfa_offset 24
 3466              		@ sp needed
 3467 00b6 BDE8F081 		pop	{r4, r5, r6, r7, r8, pc}
 3468              	.LVL290:
 3469              	.L298:
 3470              	.LCFI83:
 3471              		.cfi_restore_state
1127:App/Src/fault_command.c ****         (FaultCommand_JsonGetUint(json, "mv", &mv) != 0U))
 3472              		.loc 1 1127 5 is_stmt 1 view .LVU638
1127:App/Src/fault_command.c ****         (FaultCommand_JsonGetUint(json, "mv", &mv) != 0U))
 3473              		.loc 1 1127 10 is_stmt 0 view .LVU639
 3474 00ba 0FAA     		add	r2, sp, #60
 3475 00bc 7F49     		ldr	r1, .L362+28
 3476 00be 2046     		mov	r0, r4
 3477 00c0 FFF7FEFF 		bl	FaultCommand_JsonGetUint
 3478              	.LVL291:
1127:App/Src/fault_command.c ****         (FaultCommand_JsonGetUint(json, "mv", &mv) != 0U))
 3479              		.loc 1 1127 8 discriminator 1 view .LVU640
 3480 00c4 10B9     		cbnz	r0, .L300
1098:App/Src/fault_command.c **** 
 3481              		.loc 1 1098 21 view .LVU641
 3482 00c6 0123     		movs	r3, #1
 3483 00c8 1C46     		mov	r4, r3
 3484              	.LVL292:
1098:App/Src/fault_command.c **** 
 3485              		.loc 1 1098 21 view .LVU642
 3486 00ca EDE7     		b	.L190
 3487              	.LVL293:
 3488              	.L300:
1128:App/Src/fault_command.c ****     {
 3489              		.loc 1 1128 10 view .LVU643
 3490 00cc 0EAA     		add	r2, sp, #56
 3491 00ce 7E49     		ldr	r1, .L362+40
 3492 00d0 2046     		mov	r0, r4
 3493 00d2 FFF7FEFF 		bl	FaultCommand_JsonGetUint
 3494              	.LVL294:
1127:App/Src/fault_command.c ****         (FaultCommand_JsonGetUint(json, "mv", &mv) != 0U))
 3495              		.loc 1 1127 63 discriminator 2 view .LVU644
 3496 00d6 10B9     		cbnz	r0, .L301
1098:App/Src/fault_command.c **** 
 3497              		.loc 1 1098 21 view .LVU645
 3498 00d8 0123     		movs	r3, #1
 3499 00da 1C46     		mov	r4, r3
 3500              	.LVL295:
1098:App/Src/fault_command.c **** 
 3501              		.loc 1 1098 21 view .LVU646
 3502 00dc E4E7     		b	.L190
ARM GAS  C:\Users\hh\AppData\Local\Temp\ccnvB5Va.s 			page 103


 3503              	.LVL296:
 3504              	.L301:
1130:App/Src/fault_command.c ****     }
 3505              		.loc 1 1130 7 is_stmt 1 view .LVU647
1130:App/Src/fault_command.c ****     }
 3506              		.loc 1 1130 16 is_stmt 0 view .LVU648
 3507 00de BDF83810 		ldrh	r1, [sp, #56]
 3508 00e2 9DF83C00 		ldrb	r0, [sp, #60]	@ zero_extendqisi2
 3509 00e6 FFF7FEFF 		bl	FaultCommand_RunSet
 3510              	.LVL297:
 3511 00ea 0446     		mov	r4, r0
 3512              	.LVL298:
1130:App/Src/fault_command.c ****     }
 3513              		.loc 1 1130 16 view .LVU649
 3514 00ec DCE7     		b	.L190
 3515              	.LVL299:
 3516              	.L299:
1137:App/Src/fault_command.c ****       duration = FaultCommand_JsonGetUintDefault(json, "duration_ms", FAULT_COMMAND_DEFAULT_DURATIO
 3517              		.loc 1 1137 7 is_stmt 1 view .LVU650
1137:App/Src/fault_command.c ****       duration = FaultCommand_JsonGetUintDefault(json, "duration_ms", FAULT_COMMAND_DEFAULT_DURATIO
 3518              		.loc 1 1137 12 is_stmt 0 view .LVU651
 3519 00ee 41F29412 		movw	r2, #4500
 3520 00f2 7549     		ldr	r1, .L362+40
 3521 00f4 2046     		mov	r0, r4
 3522 00f6 FFF7FEFF 		bl	FaultCommand_JsonGetUintDefault
 3523              	.LVL300:
1137:App/Src/fault_command.c ****       duration = FaultCommand_JsonGetUintDefault(json, "duration_ms", FAULT_COMMAND_DEFAULT_DURATIO
 3524              		.loc 1 1137 10 discriminator 1 view .LVU652
 3525 00fa 0E90     		str	r0, [sp, #56]
1138:App/Src/fault_command.c ****       slew = FaultCommand_JsonGetUintDefault(json, "slew_mv_per_ms", FAULT_COMMAND_DEFAULT_SLEW_MV_
 3526              		.loc 1 1138 7 is_stmt 1 view .LVU653
1138:App/Src/fault_command.c ****       slew = FaultCommand_JsonGetUintDefault(json, "slew_mv_per_ms", FAULT_COMMAND_DEFAULT_SLEW_MV_
 3527              		.loc 1 1138 18 is_stmt 0 view .LVU654
 3528 00fc 6422     		movs	r2, #100
 3529 00fe 7349     		ldr	r1, .L362+44
 3530 0100 2046     		mov	r0, r4
 3531 0102 FFF7FEFF 		bl	FaultCommand_JsonGetUintDefault
 3532              	.LVL301:
 3533 0106 0546     		mov	r5, r0
 3534              	.LVL302:
1139:App/Src/fault_command.c ****       status = FaultCommand_RunOverVoltage((uint8_t)cell, (uint16_t)mv, duration, (uint16_t)slew);
 3535              		.loc 1 1139 7 is_stmt 1 view .LVU655
1139:App/Src/fault_command.c ****       status = FaultCommand_RunOverVoltage((uint8_t)cell, (uint16_t)mv, duration, (uint16_t)slew);
 3536              		.loc 1 1139 14 is_stmt 0 view .LVU656
 3537 0108 40F6B832 		movw	r2, #3000
 3538 010c 7049     		ldr	r1, .L362+48
 3539 010e 2046     		mov	r0, r4
 3540              	.LVL303:
1139:App/Src/fault_command.c ****       status = FaultCommand_RunOverVoltage((uint8_t)cell, (uint16_t)mv, duration, (uint16_t)slew);
 3541              		.loc 1 1139 14 view .LVU657
 3542 0110 FFF7FEFF 		bl	FaultCommand_JsonGetUintDefault
 3543              	.LVL304:
1140:App/Src/fault_command.c ****     }
 3544              		.loc 1 1140 7 is_stmt 1 view .LVU658
1140:App/Src/fault_command.c ****     }
 3545              		.loc 1 1140 16 is_stmt 0 view .LVU659
 3546 0114 83B2     		uxth	r3, r0
ARM GAS  C:\Users\hh\AppData\Local\Temp\ccnvB5Va.s 			page 104


 3547 0116 2A46     		mov	r2, r5
 3548 0118 BDF83810 		ldrh	r1, [sp, #56]
 3549 011c 9DF83C00 		ldrb	r0, [sp, #60]	@ zero_extendqisi2
 3550              	.LVL305:
1140:App/Src/fault_command.c ****     }
 3551              		.loc 1 1140 16 view .LVU660
 3552 0120 FFF7FEFF 		bl	FaultCommand_RunOverVoltage
 3553              	.LVL306:
 3554 0124 0446     		mov	r4, r0
 3555              	.LVL307:
1140:App/Src/fault_command.c ****     }
 3556              		.loc 1 1140 16 view .LVU661
 3557 0126 BFE7     		b	.L190
 3558              	.LVL308:
 3559              	.L193:
1143:App/Src/fault_command.c ****   {
 3560              		.loc 1 1143 8 is_stmt 1 view .LVU662
1143:App/Src/fault_command.c ****   {
 3561              		.loc 1 1143 13 is_stmt 0 view .LVU663
 3562 0128 6A49     		ldr	r1, .L362+52
 3563 012a 14A8     		add	r0, sp, #80
 3564 012c FFF7FEFF 		bl	strcmp
 3565              	.LVL309:
1143:App/Src/fault_command.c ****   {
 3566              		.loc 1 1143 11 discriminator 1 view .LVU664
 3567 0130 20B1     		cbz	r0, .L194
1143:App/Src/fault_command.c ****   {
 3568              		.loc 1 1143 41 discriminator 2 view .LVU665
 3569 0132 6949     		ldr	r1, .L362+56
 3570 0134 14A8     		add	r0, sp, #80
 3571 0136 FFF7FEFF 		bl	strcmp
 3572              	.LVL310:
1143:App/Src/fault_command.c ****   {
 3573              		.loc 1 1143 37 discriminator 3 view .LVU666
 3574 013a 28BB     		cbnz	r0, .L195
 3575              	.L194:
1145:App/Src/fault_command.c ****     {
 3576              		.loc 1 1145 5 is_stmt 1 view .LVU667
1145:App/Src/fault_command.c ****     {
 3577              		.loc 1 1145 9 is_stmt 0 view .LVU668
 3578 013c 0FAA     		add	r2, sp, #60
 3579 013e 5F49     		ldr	r1, .L362+28
 3580 0140 2046     		mov	r0, r4
 3581 0142 FFF7FEFF 		bl	FaultCommand_JsonGetUint
 3582              	.LVL311:
1145:App/Src/fault_command.c ****     {
 3583              		.loc 1 1145 8 discriminator 1 view .LVU669
 3584 0146 10B9     		cbnz	r0, .L302
1098:App/Src/fault_command.c **** 
 3585              		.loc 1 1098 21 view .LVU670
 3586 0148 0123     		movs	r3, #1
 3587 014a 1C46     		mov	r4, r3
 3588              	.LVL312:
1098:App/Src/fault_command.c **** 
 3589              		.loc 1 1098 21 view .LVU671
 3590 014c ACE7     		b	.L190
 3591              	.LVL313:
ARM GAS  C:\Users\hh\AppData\Local\Temp\ccnvB5Va.s 			page 105


 3592              	.L302:
1147:App/Src/fault_command.c ****       duration = FaultCommand_JsonGetUintDefault(json, "duration_ms", FAULT_COMMAND_DEFAULT_DURATIO
 3593              		.loc 1 1147 7 is_stmt 1 view .LVU672
1147:App/Src/fault_command.c ****       duration = FaultCommand_JsonGetUintDefault(json, "duration_ms", FAULT_COMMAND_DEFAULT_DURATIO
 3594              		.loc 1 1147 12 is_stmt 0 view .LVU673
 3595 014e 4FF47A72 		mov	r2, #1000
 3596 0152 5D49     		ldr	r1, .L362+40
 3597 0154 2046     		mov	r0, r4
 3598 0156 FFF7FEFF 		bl	FaultCommand_JsonGetUintDefault
 3599              	.LVL314:
1147:App/Src/fault_command.c ****       duration = FaultCommand_JsonGetUintDefault(json, "duration_ms", FAULT_COMMAND_DEFAULT_DURATIO
 3600              		.loc 1 1147 10 discriminator 1 view .LVU674
 3601 015a 0E90     		str	r0, [sp, #56]
1148:App/Src/fault_command.c ****       slew = FaultCommand_JsonGetUintDefault(json, "slew_mv_per_ms", FAULT_COMMAND_DEFAULT_SLEW_MV_
 3602              		.loc 1 1148 7 is_stmt 1 view .LVU675
1148:App/Src/fault_command.c ****       slew = FaultCommand_JsonGetUintDefault(json, "slew_mv_per_ms", FAULT_COMMAND_DEFAULT_SLEW_MV_
 3603              		.loc 1 1148 18 is_stmt 0 view .LVU676
 3604 015c 6422     		movs	r2, #100
 3605 015e 5B49     		ldr	r1, .L362+44
 3606 0160 2046     		mov	r0, r4
 3607 0162 FFF7FEFF 		bl	FaultCommand_JsonGetUintDefault
 3608              	.LVL315:
 3609 0166 0546     		mov	r5, r0
 3610              	.LVL316:
1149:App/Src/fault_command.c ****       status = FaultCommand_RunUnderVoltage((uint8_t)cell, (uint16_t)mv, duration, (uint16_t)slew);
 3611              		.loc 1 1149 7 is_stmt 1 view .LVU677
1149:App/Src/fault_command.c ****       status = FaultCommand_RunUnderVoltage((uint8_t)cell, (uint16_t)mv, duration, (uint16_t)slew);
 3612              		.loc 1 1149 14 is_stmt 0 view .LVU678
 3613 0168 40F6B832 		movw	r2, #3000
 3614 016c 5849     		ldr	r1, .L362+48
 3615 016e 2046     		mov	r0, r4
 3616              	.LVL317:
1149:App/Src/fault_command.c ****       status = FaultCommand_RunUnderVoltage((uint8_t)cell, (uint16_t)mv, duration, (uint16_t)slew);
 3617              		.loc 1 1149 14 view .LVU679
 3618 0170 FFF7FEFF 		bl	FaultCommand_JsonGetUintDefault
 3619              	.LVL318:
1150:App/Src/fault_command.c ****     }
 3620              		.loc 1 1150 7 is_stmt 1 view .LVU680
1150:App/Src/fault_command.c ****     }
 3621              		.loc 1 1150 16 is_stmt 0 view .LVU681
 3622 0174 83B2     		uxth	r3, r0
 3623 0176 2A46     		mov	r2, r5
 3624 0178 BDF83810 		ldrh	r1, [sp, #56]
 3625 017c 9DF83C00 		ldrb	r0, [sp, #60]	@ zero_extendqisi2
 3626              	.LVL319:
1150:App/Src/fault_command.c ****     }
 3627              		.loc 1 1150 16 view .LVU682
 3628 0180 FFF7FEFF 		bl	FaultCommand_RunUnderVoltage
 3629              	.LVL320:
 3630 0184 0446     		mov	r4, r0
 3631              	.LVL321:
1150:App/Src/fault_command.c ****     }
 3632              		.loc 1 1150 16 view .LVU683
 3633 0186 8FE7     		b	.L190
 3634              	.LVL322:
 3635              	.L195:
1153:App/Src/fault_command.c ****   {
ARM GAS  C:\Users\hh\AppData\Local\Temp\ccnvB5Va.s 			page 106


 3636              		.loc 1 1153 8 is_stmt 1 view .LVU684
1153:App/Src/fault_command.c ****   {
 3637              		.loc 1 1153 12 is_stmt 0 view .LVU685
 3638 0188 5449     		ldr	r1, .L362+60
 3639 018a 14A8     		add	r0, sp, #80
 3640 018c FFF7FEFF 		bl	strcmp
 3641              	.LVL323:
1153:App/Src/fault_command.c ****   {
 3642              		.loc 1 1153 11 discriminator 1 view .LVU686
 3643 0190 0028     		cmp	r0, #0
 3644 0192 46D0     		beq	.L303
1175:App/Src/fault_command.c ****   {
 3645              		.loc 1 1175 8 is_stmt 1 view .LVU687
1175:App/Src/fault_command.c ****   {
 3646              		.loc 1 1175 12 is_stmt 0 view .LVU688
 3647 0194 5249     		ldr	r1, .L362+64
 3648 0196 14A8     		add	r0, sp, #80
 3649 0198 FFF7FEFF 		bl	strcmp
 3650              	.LVL324:
1175:App/Src/fault_command.c ****   {
 3651              		.loc 1 1175 11 discriminator 1 view .LVU689
 3652 019c 0028     		cmp	r0, #0
 3653 019e 00F0B980 		beq	.L304
1239:App/Src/fault_command.c ****   {
 3654              		.loc 1 1239 8 is_stmt 1 view .LVU690
1239:App/Src/fault_command.c ****   {
 3655              		.loc 1 1239 12 is_stmt 0 view .LVU691
 3656 01a2 5049     		ldr	r1, .L362+68
 3657 01a4 14A8     		add	r0, sp, #80
 3658 01a6 FFF7FEFF 		bl	strcmp
 3659              	.LVL325:
1239:App/Src/fault_command.c ****   {
 3660              		.loc 1 1239 11 discriminator 1 view .LVU692
 3661 01aa 0028     		cmp	r0, #0
 3662 01ac 00F06081 		beq	.L305
1244:App/Src/fault_command.c ****   {
 3663              		.loc 1 1244 8 is_stmt 1 view .LVU693
1244:App/Src/fault_command.c ****   {
 3664              		.loc 1 1244 12 is_stmt 0 view .LVU694
 3665 01b0 4D49     		ldr	r1, .L362+72
 3666 01b2 14A8     		add	r0, sp, #80
 3667 01b4 FFF7FEFF 		bl	strcmp
 3668              	.LVL326:
1244:App/Src/fault_command.c ****   {
 3669              		.loc 1 1244 11 discriminator 1 view .LVU695
 3670 01b8 0028     		cmp	r0, #0
 3671 01ba 00F05E81 		beq	.L306
1316:App/Src/fault_command.c ****   {
 3672              		.loc 1 1316 8 is_stmt 1 view .LVU696
1316:App/Src/fault_command.c ****   {
 3673              		.loc 1 1316 12 is_stmt 0 view .LVU697
 3674 01be 4B49     		ldr	r1, .L362+76
 3675 01c0 14A8     		add	r0, sp, #80
 3676 01c2 FFF7FEFF 		bl	strcmp
 3677              	.LVL327:
1316:App/Src/fault_command.c ****   {
 3678              		.loc 1 1316 11 discriminator 1 view .LVU698
ARM GAS  C:\Users\hh\AppData\Local\Temp\ccnvB5Va.s 			page 107


 3679 01c6 0028     		cmp	r0, #0
 3680 01c8 00F03582 		beq	.L307
1350:App/Src/fault_command.c ****   {
 3681              		.loc 1 1350 8 is_stmt 1 view .LVU699
1350:App/Src/fault_command.c ****   {
 3682              		.loc 1 1350 12 is_stmt 0 view .LVU700
 3683 01cc 4849     		ldr	r1, .L362+80
 3684 01ce 14A8     		add	r0, sp, #80
 3685 01d0 FFF7FEFF 		bl	strcmp
 3686              	.LVL328:
1350:App/Src/fault_command.c ****   {
 3687              		.loc 1 1350 11 discriminator 1 view .LVU701
 3688 01d4 0028     		cmp	r0, #0
 3689 01d6 00F08582 		beq	.L308
1397:App/Src/fault_command.c ****   {
 3690              		.loc 1 1397 8 is_stmt 1 view .LVU702
1397:App/Src/fault_command.c ****   {
 3691              		.loc 1 1397 12 is_stmt 0 view .LVU703
 3692 01da 4649     		ldr	r1, .L362+84
 3693 01dc 14A8     		add	r0, sp, #80
 3694 01de FFF7FEFF 		bl	strcmp
 3695              	.LVL329:
1397:App/Src/fault_command.c ****   {
 3696              		.loc 1 1397 11 discriminator 1 view .LVU704
 3697 01e2 0028     		cmp	r0, #0
 3698 01e4 00F0E882 		beq	.L309
1415:App/Src/fault_command.c ****   {
 3699              		.loc 1 1415 8 is_stmt 1 view .LVU705
1415:App/Src/fault_command.c ****   {
 3700              		.loc 1 1415 12 is_stmt 0 view .LVU706
 3701 01e8 4349     		ldr	r1, .L362+88
 3702 01ea 14A8     		add	r0, sp, #80
 3703 01ec FFF7FEFF 		bl	strcmp
 3704              	.LVL330:
1415:App/Src/fault_command.c ****   {
 3705              		.loc 1 1415 11 discriminator 1 view .LVU707
 3706 01f0 0028     		cmp	r0, #0
 3707 01f2 00F00283 		beq	.L310
1438:App/Src/fault_command.c ****   {
 3708              		.loc 1 1438 8 is_stmt 1 view .LVU708
1438:App/Src/fault_command.c ****   {
 3709              		.loc 1 1438 12 is_stmt 0 view .LVU709
 3710 01f6 4149     		ldr	r1, .L362+92
 3711 01f8 14A8     		add	r0, sp, #80
 3712 01fa FFF7FEFF 		bl	strcmp
 3713              	.LVL331:
1438:App/Src/fault_command.c ****   {
 3714              		.loc 1 1438 11 discriminator 1 view .LVU710
 3715 01fe 0028     		cmp	r0, #0
 3716 0200 00F05883 		beq	.L311
1460:App/Src/fault_command.c ****   {
 3717              		.loc 1 1460 8 is_stmt 1 view .LVU711
1460:App/Src/fault_command.c ****   {
 3718              		.loc 1 1460 12 is_stmt 0 view .LVU712
 3719 0204 3E49     		ldr	r1, .L362+96
 3720 0206 14A8     		add	r0, sp, #80
 3721 0208 FFF7FEFF 		bl	strcmp
ARM GAS  C:\Users\hh\AppData\Local\Temp\ccnvB5Va.s 			page 108


 3722              	.LVL332:
1460:App/Src/fault_command.c ****   {
 3723              		.loc 1 1460 11 discriminator 1 view .LVU713
 3724 020c 0028     		cmp	r0, #0
 3725 020e 40F09083 		bne	.L242
1462:App/Src/fault_command.c ****     {
 3726              		.loc 1 1462 5 is_stmt 1 view .LVU714
1462:App/Src/fault_command.c ****     {
 3727              		.loc 1 1462 9 is_stmt 0 view .LVU715
 3728 0212 FFF7FEFF 		bl	DacSafety_IsOutputAllowed
 3729              	.LVL333:
1462:App/Src/fault_command.c ****     {
 3730              		.loc 1 1462 8 discriminator 1 view .LVU716
 3731 0216 0028     		cmp	r0, #0
 3732 0218 40F07783 		bne	.L312
1464:App/Src/fault_command.c ****     }
 3733              		.loc 1 1464 14 view .LVU717
 3734 021c 0223     		movs	r3, #2
 3735 021e 1C46     		mov	r4, r3
 3736              	.LVL334:
1464:App/Src/fault_command.c ****     }
 3737              		.loc 1 1464 14 view .LVU718
 3738 0220 42E7     		b	.L190
 3739              	.LVL335:
 3740              	.L303:
 3741              	.LBB13:
1155:App/Src/fault_command.c ****     uint32_t highMv;
 3742              		.loc 1 1155 5 is_stmt 1 view .LVU719
1156:App/Src/fault_command.c ****     uint32_t lowCell;
 3743              		.loc 1 1156 5 view .LVU720
1157:App/Src/fault_command.c ****     uint32_t lowMv;
 3744              		.loc 1 1157 5 view .LVU721
1158:App/Src/fault_command.c **** 
 3745              		.loc 1 1158 5 view .LVU722
1160:App/Src/fault_command.c ****         (FaultCommand_JsonGetUint(json, "high_mv", &highMv) != 0U) &&
 3746              		.loc 1 1160 5 view .LVU723
1160:App/Src/fault_command.c ****         (FaultCommand_JsonGetUint(json, "high_mv", &highMv) != 0U) &&
 3747              		.loc 1 1160 10 is_stmt 0 view .LVU724
 3748 0222 05AA     		add	r2, sp, #20
 3749 0224 3749     		ldr	r1, .L362+100
 3750 0226 2046     		mov	r0, r4
 3751 0228 FFF7FEFF 		bl	FaultCommand_JsonGetUint
 3752              	.LVL336:
1160:App/Src/fault_command.c ****         (FaultCommand_JsonGetUint(json, "high_mv", &highMv) != 0U) &&
 3753              		.loc 1 1160 8 discriminator 1 view .LVU725
 3754 022c 10B9     		cbnz	r0, .L313
 3755              	.LBE13:
1098:App/Src/fault_command.c **** 
 3756              		.loc 1 1098 21 view .LVU726
 3757 022e 0123     		movs	r3, #1
 3758 0230 1C46     		mov	r4, r3
 3759              	.LVL337:
1098:App/Src/fault_command.c **** 
 3760              		.loc 1 1098 21 view .LVU727
 3761 0232 39E7     		b	.L190
 3762              	.LVL338:
 3763              	.L313:
ARM GAS  C:\Users\hh\AppData\Local\Temp\ccnvB5Va.s 			page 109


 3764              	.LBB14:
1161:App/Src/fault_command.c ****         (FaultCommand_JsonGetUint(json, "low_cell", &lowCell) != 0U) &&
 3765              		.loc 1 1161 10 view .LVU728
 3766 0234 06AA     		add	r2, sp, #24
 3767 0236 3449     		ldr	r1, .L362+104
 3768 0238 2046     		mov	r0, r4
 3769 023a FFF7FEFF 		bl	FaultCommand_JsonGetUint
 3770              	.LVL339:
1160:App/Src/fault_command.c ****         (FaultCommand_JsonGetUint(json, "high_mv", &highMv) != 0U) &&
 3771              		.loc 1 1160 72 discriminator 2 view .LVU729
 3772 023e 10B9     		cbnz	r0, .L314
 3773              	.LBE14:
1098:App/Src/fault_command.c **** 
 3774              		.loc 1 1098 21 view .LVU730
 3775 0240 0123     		movs	r3, #1
 3776 0242 1C46     		mov	r4, r3
 3777              	.LVL340:
1098:App/Src/fault_command.c **** 
 3778              		.loc 1 1098 21 view .LVU731
 3779 0244 30E7     		b	.L190
 3780              	.LVL341:
 3781              	.L314:
 3782              	.LBB15:
1162:App/Src/fault_command.c ****         (FaultCommand_JsonGetUint(json, "low_mv", &lowMv) != 0U))
 3783              		.loc 1 1162 10 view .LVU732
 3784 0246 08AA     		add	r2, sp, #32
 3785 0248 3049     		ldr	r1, .L362+108
 3786 024a 2046     		mov	r0, r4
 3787 024c FFF7FEFF 		bl	FaultCommand_JsonGetUint
 3788              	.LVL342:
1161:App/Src/fault_command.c ****         (FaultCommand_JsonGetUint(json, "low_cell", &lowCell) != 0U) &&
 3789              		.loc 1 1161 68 view .LVU733
 3790 0250 10B9     		cbnz	r0, .L315
 3791              	.LBE15:
1098:App/Src/fault_command.c **** 
 3792              		.loc 1 1098 21 view .LVU734
 3793 0252 0123     		movs	r3, #1
 3794 0254 1C46     		mov	r4, r3
 3795              	.LVL343:
1098:App/Src/fault_command.c **** 
 3796              		.loc 1 1098 21 view .LVU735
 3797 0256 27E7     		b	.L190
 3798              	.LVL344:
 3799              	.L315:
 3800              	.LBB16:
1163:App/Src/fault_command.c ****     {
 3801              		.loc 1 1163 10 view .LVU736
 3802 0258 0AAA     		add	r2, sp, #40
 3803 025a 2D49     		ldr	r1, .L362+112
 3804 025c 2046     		mov	r0, r4
 3805 025e FFF7FEFF 		bl	FaultCommand_JsonGetUint
 3806              	.LVL345:
1162:App/Src/fault_command.c ****         (FaultCommand_JsonGetUint(json, "low_mv", &lowMv) != 0U))
 3807              		.loc 1 1162 70 view .LVU737
 3808 0262 10B9     		cbnz	r0, .L316
 3809              	.LBE16:
1098:App/Src/fault_command.c **** 
ARM GAS  C:\Users\hh\AppData\Local\Temp\ccnvB5Va.s 			page 110


 3810              		.loc 1 1098 21 view .LVU738
 3811 0264 0123     		movs	r3, #1
 3812 0266 1C46     		mov	r4, r3
 3813              	.LVL346:
1098:App/Src/fault_command.c **** 
 3814              		.loc 1 1098 21 view .LVU739
 3815 0268 1EE7     		b	.L190
 3816              	.LVL347:
 3817              	.L316:
 3818              	.LBB17:
1165:App/Src/fault_command.c ****       slew = FaultCommand_JsonGetUintDefault(json, "slew_mv_per_ms", FAULT_COMMAND_DEFAULT_SLEW_MV_
 3819              		.loc 1 1165 7 is_stmt 1 view .LVU740
1165:App/Src/fault_command.c ****       slew = FaultCommand_JsonGetUintDefault(json, "slew_mv_per_ms", FAULT_COMMAND_DEFAULT_SLEW_MV_
 3820              		.loc 1 1165 18 is_stmt 0 view .LVU741
 3821 026a 6422     		movs	r2, #100
 3822 026c 1749     		ldr	r1, .L362+44
 3823 026e 2046     		mov	r0, r4
 3824 0270 FFF7FEFF 		bl	FaultCommand_JsonGetUintDefault
 3825              	.LVL348:
 3826 0274 0546     		mov	r5, r0
 3827              	.LVL349:
1166:App/Src/fault_command.c ****       status = FaultCommand_RunDiff((uint8_t)highCell,
 3828              		.loc 1 1166 7 is_stmt 1 view .LVU742
1166:App/Src/fault_command.c ****       status = FaultCommand_RunDiff((uint8_t)highCell,
 3829              		.loc 1 1166 14 is_stmt 0 view .LVU743
 3830 0276 40F6B832 		movw	r2, #3000
 3831 027a 1549     		ldr	r1, .L362+48
 3832 027c 2046     		mov	r0, r4
 3833              	.LVL350:
1166:App/Src/fault_command.c ****       status = FaultCommand_RunDiff((uint8_t)highCell,
 3834              		.loc 1 1166 14 view .LVU744
 3835 027e FFF7FEFF 		bl	FaultCommand_JsonGetUintDefault
 3836              	.LVL351:
1167:App/Src/fault_command.c ****                                     (uint16_t)highMv,
 3837              		.loc 1 1167 7 is_stmt 1 view .LVU745
1167:App/Src/fault_command.c ****                                     (uint16_t)highMv,
 3838              		.loc 1 1167 16 is_stmt 0 view .LVU746
 3839 0282 80B2     		uxth	r0, r0
 3840              	.LVL352:
1167:App/Src/fault_command.c ****                                     (uint16_t)highMv,
 3841              		.loc 1 1167 16 view .LVU747
 3842 0284 0190     		str	r0, [sp, #4]
 3843 0286 0095     		str	r5, [sp]
 3844 0288 BDF82830 		ldrh	r3, [sp, #40]
 3845 028c 9DF82020 		ldrb	r2, [sp, #32]	@ zero_extendqisi2
 3846 0290 BDF81810 		ldrh	r1, [sp, #24]
 3847 0294 9DF81400 		ldrb	r0, [sp, #20]	@ zero_extendqisi2
 3848 0298 FFF7FEFF 		bl	FaultCommand_RunDiff
 3849              	.LVL353:
 3850 029c 0446     		mov	r4, r0
 3851              	.LVL354:
1167:App/Src/fault_command.c ****                                     (uint16_t)highMv,
 3852              		.loc 1 1167 16 view .LVU748
 3853 029e 03E7     		b	.L190
 3854              	.L363:
 3855              		.align	2
 3856              	.L362:
ARM GAS  C:\Users\hh\AppData\Local\Temp\ccnvB5Va.s 			page 111


 3857 02a0 00000000 		.word	.LC70
 3858 02a4 2C000000 		.word	.LC72
 3859 02a8 34000000 		.word	.LC73
 3860 02ac C4000000 		.word	.LC75
 3861 02b0 D0000000 		.word	.LC77
 3862 02b4 DC000000 		.word	.LC79
 3863 02b8 E0000000 		.word	.LC80
 3864 02bc D4000000 		.word	.LC78
 3865 02c0 04000000 		.word	.LC71
 3866 02c4 3C000000 		.word	.LC74
 3867 02c8 CC000000 		.word	.LC76
 3868 02cc F0000000 		.word	.LC81
 3869 02d0 FC000000 		.word	.LC82
 3870 02d4 0C010000 		.word	.LC83
 3871 02d8 10010000 		.word	.LC84
 3872 02dc 20010000 		.word	.LC85
 3873 02e0 50010000 		.word	.LC90
 3874 02e4 AC010000 		.word	.LC99
 3875 02e8 B8010000 		.word	.LC100
 3876 02ec 28020000 		.word	.LC108
 3877 02f0 40020000 		.word	.LC111
 3878 02f4 64020000 		.word	.LC117
 3879 02f8 68020000 		.word	.LC118
 3880 02fc 88020000 		.word	.LC121
 3881 0300 20020000 		.word	.LC107
 3882 0304 28010000 		.word	.LC86
 3883 0308 34010000 		.word	.LC87
 3884 030c 3C010000 		.word	.LC88
 3885 0310 48010000 		.word	.LC89
 3886              	.LVL355:
 3887              	.L304:
1167:App/Src/fault_command.c ****                                     (uint16_t)highMv,
 3888              		.loc 1 1167 16 view .LVU749
 3889              	.LBE17:
1177:App/Src/fault_command.c ****     {
 3890              		.loc 1 1177 5 is_stmt 1 view .LVU750
1177:App/Src/fault_command.c ****     {
 3891              		.loc 1 1177 9 is_stmt 0 view .LVU751
 3892 0314 1023     		movs	r3, #16
 3893 0316 10AA     		add	r2, sp, #64
 3894 0318 9E49     		ldr	r1, .L364
 3895 031a 2046     		mov	r0, r4
 3896 031c FFF7FEFF 		bl	FaultCommand_JsonGetString
 3897              	.LVL356:
1177:App/Src/fault_command.c ****     {
 3898              		.loc 1 1177 8 discriminator 1 view .LVU752
 3899 0320 0028     		cmp	r0, #0
 3900 0322 00F00D83 		beq	.L253
1179:App/Src/fault_command.c ****       {
 3901              		.loc 1 1179 7 is_stmt 1 view .LVU753
1179:App/Src/fault_command.c ****       {
 3902              		.loc 1 1179 12 is_stmt 0 view .LVU754
 3903 0326 9C49     		ldr	r1, .L364+4
 3904 0328 10A8     		add	r0, sp, #64
 3905 032a FFF7FEFF 		bl	strcmp
 3906              	.LVL357:
1179:App/Src/fault_command.c ****       {
ARM GAS  C:\Users\hh\AppData\Local\Temp\ccnvB5Va.s 			page 112


 3907              		.loc 1 1179 10 discriminator 1 view .LVU755
 3908 032e D0B9     		cbnz	r0, .L317
 3909              	.L199:
1183:App/Src/fault_command.c ****       {
 3910              		.loc 1 1183 12 is_stmt 1 view .LVU756
1183:App/Src/fault_command.c ****       {
 3911              		.loc 1 1183 16 is_stmt 0 view .LVU757
 3912 0330 9A49     		ldr	r1, .L364+8
 3913 0332 10A8     		add	r0, sp, #64
 3914 0334 FFF7FEFF 		bl	strcmp
 3915              	.LVL358:
1183:App/Src/fault_command.c ****       {
 3916              		.loc 1 1183 15 discriminator 1 view .LVU758
 3917 0338 E0B1     		cbz	r0, .L318
1200:App/Src/fault_command.c ****       {
 3918              		.loc 1 1200 12 is_stmt 1 view .LVU759
1200:App/Src/fault_command.c ****       {
 3919              		.loc 1 1200 16 is_stmt 0 view .LVU760
 3920 033a 9949     		ldr	r1, .L364+12
 3921 033c 10A8     		add	r0, sp, #64
 3922 033e FFF7FEFF 		bl	strcmp
 3923              	.LVL359:
1200:App/Src/fault_command.c ****       {
 3924              		.loc 1 1200 15 discriminator 1 view .LVU761
 3925 0342 0028     		cmp	r0, #0
 3926 0344 42D0     		beq	.L319
1217:App/Src/fault_command.c ****       {
 3927              		.loc 1 1217 12 is_stmt 1 view .LVU762
1217:App/Src/fault_command.c ****       {
 3928              		.loc 1 1217 16 is_stmt 0 view .LVU763
 3929 0346 9749     		ldr	r1, .L364+16
 3930 0348 10A8     		add	r0, sp, #64
 3931 034a FFF7FEFF 		bl	strcmp
 3932              	.LVL360:
1217:App/Src/fault_command.c ****       {
 3933              		.loc 1 1217 15 discriminator 1 view .LVU764
 3934 034e 0028     		cmp	r0, #0
 3935 0350 68D0     		beq	.L320
1232:App/Src/fault_command.c ****       {
 3936              		.loc 1 1232 12 is_stmt 1 view .LVU765
1232:App/Src/fault_command.c ****       {
 3937              		.loc 1 1232 16 is_stmt 0 view .LVU766
 3938 0352 9149     		ldr	r1, .L364+4
 3939 0354 10A8     		add	r0, sp, #64
 3940 0356 FFF7FEFF 		bl	strcmp
 3941              	.LVL361:
1232:App/Src/fault_command.c ****       {
 3942              		.loc 1 1232 15 discriminator 1 view .LVU767
 3943 035a 0028     		cmp	r0, #0
 3944 035c 00F08380 		beq	.L321
1098:App/Src/fault_command.c **** 
 3945              		.loc 1 1098 21 view .LVU768
 3946 0360 0123     		movs	r3, #1
 3947 0362 1C46     		mov	r4, r3
 3948              	.LVL362:
1098:App/Src/fault_command.c **** 
 3949              		.loc 1 1098 21 view .LVU769
ARM GAS  C:\Users\hh\AppData\Local\Temp\ccnvB5Va.s 			page 113


 3950 0364 A0E6     		b	.L190
 3951              	.LVL363:
 3952              	.L317:
1179:App/Src/fault_command.c ****       {
 3953              		.loc 1 1179 43 discriminator 2 view .LVU770
 3954 0366 FFF7FEFF 		bl	DacSafety_IsOutputAllowed
 3955              	.LVL364:
1179:App/Src/fault_command.c ****       {
 3956              		.loc 1 1179 39 discriminator 3 view .LVU771
 3957 036a 0028     		cmp	r0, #0
 3958 036c E0D1     		bne	.L199
1181:App/Src/fault_command.c ****       }
 3959              		.loc 1 1181 16 view .LVU772
 3960 036e 0223     		movs	r3, #2
 3961 0370 1C46     		mov	r4, r3
 3962              	.LVL365:
1181:App/Src/fault_command.c ****       }
 3963              		.loc 1 1181 16 view .LVU773
 3964 0372 99E6     		b	.L190
 3965              	.LVL366:
 3966              	.L318:
 3967              	.LBB18:
1185:App/Src/fault_command.c ****         uint32_t high;
 3968              		.loc 1 1185 9 is_stmt 1 view .LVU774
1186:App/Src/fault_command.c ****         uint32_t period;
 3969              		.loc 1 1186 9 view .LVU775
1187:App/Src/fault_command.c **** 
 3970              		.loc 1 1187 9 view .LVU776
1189:App/Src/fault_command.c ****             (FaultCommand_JsonGetUint(json, "low_mv", &low) != 0U) &&
 3971              		.loc 1 1189 9 view .LVU777
1189:App/Src/fault_command.c ****             (FaultCommand_JsonGetUint(json, "low_mv", &low) != 0U) &&
 3972              		.loc 1 1189 14 is_stmt 0 view .LVU778
 3973 0374 0FAA     		add	r2, sp, #60
 3974 0376 8C49     		ldr	r1, .L364+20
 3975 0378 2046     		mov	r0, r4
 3976 037a FFF7FEFF 		bl	FaultCommand_JsonGetUint
 3977              	.LVL367:
1189:App/Src/fault_command.c ****             (FaultCommand_JsonGetUint(json, "low_mv", &low) != 0U) &&
 3978              		.loc 1 1189 12 discriminator 1 view .LVU779
 3979 037e 10B9     		cbnz	r0, .L322
 3980              	.LBE18:
1098:App/Src/fault_command.c **** 
 3981              		.loc 1 1098 21 view .LVU780
 3982 0380 0123     		movs	r3, #1
 3983 0382 1C46     		mov	r4, r3
 3984              	.LVL368:
1098:App/Src/fault_command.c **** 
 3985              		.loc 1 1098 21 view .LVU781
 3986 0384 90E6     		b	.L190
 3987              	.LVL369:
 3988              	.L322:
 3989              	.LBB19:
1190:App/Src/fault_command.c ****             (FaultCommand_JsonGetUint(json, "high_mv", &high) != 0U))
 3990              		.loc 1 1190 14 view .LVU782
 3991 0386 08AA     		add	r2, sp, #32
 3992 0388 8849     		ldr	r1, .L364+24
 3993 038a 2046     		mov	r0, r4
ARM GAS  C:\Users\hh\AppData\Local\Temp\ccnvB5Va.s 			page 114


 3994 038c FFF7FEFF 		bl	FaultCommand_JsonGetUint
 3995              	.LVL370:
1189:App/Src/fault_command.c ****             (FaultCommand_JsonGetUint(json, "low_mv", &low) != 0U) &&
 3996              		.loc 1 1189 67 discriminator 2 view .LVU783
 3997 0390 10B9     		cbnz	r0, .L323
 3998              	.LBE19:
1098:App/Src/fault_command.c **** 
 3999              		.loc 1 1098 21 view .LVU784
 4000 0392 0123     		movs	r3, #1
 4001 0394 1C46     		mov	r4, r3
 4002              	.LVL371:
1098:App/Src/fault_command.c **** 
 4003              		.loc 1 1098 21 view .LVU785
 4004 0396 87E6     		b	.L190
 4005              	.LVL372:
 4006              	.L323:
 4007              	.LBB20:
1191:App/Src/fault_command.c ****         {
 4008              		.loc 1 1191 14 view .LVU786
 4009 0398 0AAA     		add	r2, sp, #40
 4010 039a 8549     		ldr	r1, .L364+28
 4011 039c 2046     		mov	r0, r4
 4012 039e FFF7FEFF 		bl	FaultCommand_JsonGetUint
 4013              	.LVL373:
1190:App/Src/fault_command.c ****             (FaultCommand_JsonGetUint(json, "high_mv", &high) != 0U))
 4014              		.loc 1 1190 68 view .LVU787
 4015 03a2 10B9     		cbnz	r0, .L324
 4016              	.LBE20:
1098:App/Src/fault_command.c **** 
 4017              		.loc 1 1098 21 view .LVU788
 4018 03a4 0123     		movs	r3, #1
 4019 03a6 1C46     		mov	r4, r3
 4020              	.LVL374:
1098:App/Src/fault_command.c **** 
 4021              		.loc 1 1098 21 view .LVU789
 4022 03a8 7EE6     		b	.L190
 4023              	.LVL375:
 4024              	.L324:
 4025              	.LBB21:
1193:App/Src/fault_command.c ****           status = WaveformGen_StartSquare((uint8_t)cell,
 4026              		.loc 1 1193 11 is_stmt 1 view .LVU790
1193:App/Src/fault_command.c ****           status = WaveformGen_StartSquare((uint8_t)cell,
 4027              		.loc 1 1193 20 is_stmt 0 view .LVU791
 4028 03aa 4FF47A72 		mov	r2, #1000
 4029 03ae 8149     		ldr	r1, .L364+32
 4030 03b0 2046     		mov	r0, r4
 4031 03b2 FFF7FEFF 		bl	FaultCommand_JsonGetUintDefault
 4032              	.LVL376:
 4033 03b6 0346     		mov	r3, r0
 4034              	.LVL377:
1194:App/Src/fault_command.c ****                                            (uint16_t)low,
 4035              		.loc 1 1194 11 is_stmt 1 view .LVU792
1194:App/Src/fault_command.c ****                                            (uint16_t)low,
 4036              		.loc 1 1194 20 is_stmt 0 view .LVU793
 4037 03b8 BDF82820 		ldrh	r2, [sp, #40]
 4038 03bc BDF82010 		ldrh	r1, [sp, #32]
 4039 03c0 9DF83C00 		ldrb	r0, [sp, #60]	@ zero_extendqisi2
ARM GAS  C:\Users\hh\AppData\Local\Temp\ccnvB5Va.s 			page 115


 4040              	.LVL378:
1194:App/Src/fault_command.c ****                                            (uint16_t)low,
 4041              		.loc 1 1194 20 view .LVU794
 4042 03c4 FFF7FEFF 		bl	WaveformGen_StartSquare
 4043              	.LVL379:
1194:App/Src/fault_command.c ****                                            (uint16_t)low,
 4044              		.loc 1 1194 20 view .LVU795
 4045 03c8 0446     		mov	r4, r0
 4046              	.LVL380:
1194:App/Src/fault_command.c ****                                            (uint16_t)low,
 4047              		.loc 1 1194 20 view .LVU796
 4048 03ca 6DE6     		b	.L190
 4049              	.LVL381:
 4050              	.L319:
1194:App/Src/fault_command.c ****                                            (uint16_t)low,
 4051              		.loc 1 1194 20 view .LVU797
 4052              	.LBE21:
 4053              	.LBB22:
1202:App/Src/fault_command.c ****         uint32_t amplitude;
 4054              		.loc 1 1202 9 is_stmt 1 view .LVU798
1203:App/Src/fault_command.c ****         uint32_t period;
 4055              		.loc 1 1203 9 view .LVU799
1204:App/Src/fault_command.c **** 
 4056              		.loc 1 1204 9 view .LVU800
1206:App/Src/fault_command.c ****             (FaultCommand_JsonGetUint(json, "offset_mv", &offset) != 0U) &&
 4057              		.loc 1 1206 9 view .LVU801
1206:App/Src/fault_command.c ****             (FaultCommand_JsonGetUint(json, "offset_mv", &offset) != 0U) &&
 4058              		.loc 1 1206 14 is_stmt 0 view .LVU802
 4059 03cc 0FAA     		add	r2, sp, #60
 4060 03ce 7649     		ldr	r1, .L364+20
 4061 03d0 2046     		mov	r0, r4
 4062 03d2 FFF7FEFF 		bl	FaultCommand_JsonGetUint
 4063              	.LVL382:
1206:App/Src/fault_command.c ****             (FaultCommand_JsonGetUint(json, "offset_mv", &offset) != 0U) &&
 4064              		.loc 1 1206 12 discriminator 1 view .LVU803
 4065 03d6 10B9     		cbnz	r0, .L325
 4066              	.LBE22:
1098:App/Src/fault_command.c **** 
 4067              		.loc 1 1098 21 view .LVU804
 4068 03d8 0123     		movs	r3, #1
 4069 03da 1C46     		mov	r4, r3
 4070              	.LVL383:
1098:App/Src/fault_command.c **** 
 4071              		.loc 1 1098 21 view .LVU805
 4072 03dc 64E6     		b	.L190
 4073              	.LVL384:
 4074              	.L325:
 4075              	.LBB23:
1207:App/Src/fault_command.c ****             (FaultCommand_JsonGetUint(json, "amplitude_mv", &amplitude) != 0U))
 4076              		.loc 1 1207 14 view .LVU806
 4077 03de 08AA     		add	r2, sp, #32
 4078 03e0 7549     		ldr	r1, .L364+36
 4079 03e2 2046     		mov	r0, r4
 4080 03e4 FFF7FEFF 		bl	FaultCommand_JsonGetUint
 4081              	.LVL385:
1206:App/Src/fault_command.c ****             (FaultCommand_JsonGetUint(json, "offset_mv", &offset) != 0U) &&
 4082              		.loc 1 1206 67 discriminator 2 view .LVU807
ARM GAS  C:\Users\hh\AppData\Local\Temp\ccnvB5Va.s 			page 116


 4083 03e8 10B9     		cbnz	r0, .L326
 4084              	.LBE23:
1098:App/Src/fault_command.c **** 
 4085              		.loc 1 1098 21 view .LVU808
 4086 03ea 0123     		movs	r3, #1
 4087 03ec 1C46     		mov	r4, r3
 4088              	.LVL386:
1098:App/Src/fault_command.c **** 
 4089              		.loc 1 1098 21 view .LVU809
 4090 03ee 5BE6     		b	.L190
 4091              	.LVL387:
 4092              	.L326:
 4093              	.LBB24:
1208:App/Src/fault_command.c ****         {
 4094              		.loc 1 1208 14 view .LVU810
 4095 03f0 0AAA     		add	r2, sp, #40
 4096 03f2 7249     		ldr	r1, .L364+40
 4097 03f4 2046     		mov	r0, r4
 4098 03f6 FFF7FEFF 		bl	FaultCommand_JsonGetUint
 4099              	.LVL388:
1207:App/Src/fault_command.c ****             (FaultCommand_JsonGetUint(json, "amplitude_mv", &amplitude) != 0U))
 4100              		.loc 1 1207 74 view .LVU811
 4101 03fa 10B9     		cbnz	r0, .L327
 4102              	.LBE24:
1098:App/Src/fault_command.c **** 
 4103              		.loc 1 1098 21 view .LVU812
 4104 03fc 0123     		movs	r3, #1
 4105 03fe 1C46     		mov	r4, r3
 4106              	.LVL389:
1098:App/Src/fault_command.c **** 
 4107              		.loc 1 1098 21 view .LVU813
 4108 0400 52E6     		b	.L190
 4109              	.LVL390:
 4110              	.L327:
 4111              	.LBB25:
1210:App/Src/fault_command.c ****           status = WaveformGen_StartSine((uint8_t)cell,
 4112              		.loc 1 1210 11 is_stmt 1 view .LVU814
1210:App/Src/fault_command.c ****           status = WaveformGen_StartSine((uint8_t)cell,
 4113              		.loc 1 1210 20 is_stmt 0 view .LVU815
 4114 0402 4FF47A72 		mov	r2, #1000
 4115 0406 6B49     		ldr	r1, .L364+32
 4116 0408 2046     		mov	r0, r4
 4117 040a FFF7FEFF 		bl	FaultCommand_JsonGetUintDefault
 4118              	.LVL391:
 4119 040e 0346     		mov	r3, r0
 4120              	.LVL392:
1211:App/Src/fault_command.c ****                                          (uint16_t)offset,
 4121              		.loc 1 1211 11 is_stmt 1 view .LVU816
1211:App/Src/fault_command.c ****                                          (uint16_t)offset,
 4122              		.loc 1 1211 20 is_stmt 0 view .LVU817
 4123 0410 BDF82820 		ldrh	r2, [sp, #40]
 4124 0414 BDF82010 		ldrh	r1, [sp, #32]
 4125 0418 9DF83C00 		ldrb	r0, [sp, #60]	@ zero_extendqisi2
 4126              	.LVL393:
1211:App/Src/fault_command.c ****                                          (uint16_t)offset,
 4127              		.loc 1 1211 20 view .LVU818
 4128 041c FFF7FEFF 		bl	WaveformGen_StartSine
ARM GAS  C:\Users\hh\AppData\Local\Temp\ccnvB5Va.s 			page 117


 4129              	.LVL394:
1211:App/Src/fault_command.c ****                                          (uint16_t)offset,
 4130              		.loc 1 1211 20 view .LVU819
 4131 0420 0446     		mov	r4, r0
 4132              	.LVL395:
1211:App/Src/fault_command.c ****                                          (uint16_t)offset,
 4133              		.loc 1 1211 20 view .LVU820
 4134 0422 41E6     		b	.L190
 4135              	.LVL396:
 4136              	.L320:
1211:App/Src/fault_command.c ****                                          (uint16_t)offset,
 4137              		.loc 1 1211 20 view .LVU821
 4138              	.LBE25:
 4139              	.LBB26:
1219:App/Src/fault_command.c ****         uint32_t amplitude;
 4140              		.loc 1 1219 9 is_stmt 1 view .LVU822
1220:App/Src/fault_command.c ****         uint32_t period;
 4141              		.loc 1 1220 9 view .LVU823
1221:App/Src/fault_command.c **** 
 4142              		.loc 1 1221 9 view .LVU824
1223:App/Src/fault_command.c ****             (FaultCommand_JsonGetUint(json, "amplitude_mv", &amplitude) != 0U))
 4143              		.loc 1 1223 9 view .LVU825
1223:App/Src/fault_command.c ****             (FaultCommand_JsonGetUint(json, "amplitude_mv", &amplitude) != 0U))
 4144              		.loc 1 1223 14 is_stmt 0 view .LVU826
 4145 0424 08AA     		add	r2, sp, #32
 4146 0426 6449     		ldr	r1, .L364+36
 4147 0428 2046     		mov	r0, r4
 4148 042a FFF7FEFF 		bl	FaultCommand_JsonGetUint
 4149              	.LVL397:
1223:App/Src/fault_command.c ****             (FaultCommand_JsonGetUint(json, "amplitude_mv", &amplitude) != 0U))
 4150              		.loc 1 1223 12 discriminator 1 view .LVU827
 4151 042e 10B9     		cbnz	r0, .L328
 4152              	.LBE26:
1098:App/Src/fault_command.c **** 
 4153              		.loc 1 1098 21 view .LVU828
 4154 0430 0123     		movs	r3, #1
 4155 0432 1C46     		mov	r4, r3
 4156              	.LVL398:
1098:App/Src/fault_command.c **** 
 4157              		.loc 1 1098 21 view .LVU829
 4158 0434 38E6     		b	.L190
 4159              	.LVL399:
 4160              	.L328:
 4161              	.LBB27:
1224:App/Src/fault_command.c ****         {
 4162              		.loc 1 1224 14 view .LVU830
 4163 0436 0AAA     		add	r2, sp, #40
 4164 0438 6049     		ldr	r1, .L364+40
 4165 043a 2046     		mov	r0, r4
 4166 043c FFF7FEFF 		bl	FaultCommand_JsonGetUint
 4167              	.LVL400:
1223:App/Src/fault_command.c ****             (FaultCommand_JsonGetUint(json, "amplitude_mv", &amplitude) != 0U))
 4168              		.loc 1 1223 74 discriminator 2 view .LVU831
 4169 0440 10B9     		cbnz	r0, .L329
 4170              	.LBE27:
1098:App/Src/fault_command.c **** 
 4171              		.loc 1 1098 21 view .LVU832
ARM GAS  C:\Users\hh\AppData\Local\Temp\ccnvB5Va.s 			page 118


 4172 0442 0123     		movs	r3, #1
 4173 0444 1C46     		mov	r4, r3
 4174              	.LVL401:
1098:App/Src/fault_command.c **** 
 4175              		.loc 1 1098 21 view .LVU833
 4176 0446 2FE6     		b	.L190
 4177              	.LVL402:
 4178              	.L329:
 4179              	.LBB28:
1226:App/Src/fault_command.c ****           status = WaveformGen_StartSineAll((uint16_t)offset,
 4180              		.loc 1 1226 11 is_stmt 1 view .LVU834
1226:App/Src/fault_command.c ****           status = WaveformGen_StartSineAll((uint16_t)offset,
 4181              		.loc 1 1226 20 is_stmt 0 view .LVU835
 4182 0448 4FF47A72 		mov	r2, #1000
 4183 044c 5949     		ldr	r1, .L364+32
 4184 044e 2046     		mov	r0, r4
 4185 0450 FFF7FEFF 		bl	FaultCommand_JsonGetUintDefault
 4186              	.LVL403:
 4187 0454 0246     		mov	r2, r0
 4188              	.LVL404:
1227:App/Src/fault_command.c ****                                             (uint16_t)amplitude,
 4189              		.loc 1 1227 11 is_stmt 1 view .LVU836
1227:App/Src/fault_command.c ****                                             (uint16_t)amplitude,
 4190              		.loc 1 1227 20 is_stmt 0 view .LVU837
 4191 0456 BDF82810 		ldrh	r1, [sp, #40]
 4192 045a BDF82000 		ldrh	r0, [sp, #32]
 4193              	.LVL405:
1227:App/Src/fault_command.c ****                                             (uint16_t)amplitude,
 4194              		.loc 1 1227 20 view .LVU838
 4195 045e FFF7FEFF 		bl	WaveformGen_StartSineAll
 4196              	.LVL406:
1227:App/Src/fault_command.c ****                                             (uint16_t)amplitude,
 4197              		.loc 1 1227 20 view .LVU839
 4198 0462 0446     		mov	r4, r0
 4199              	.LVL407:
1227:App/Src/fault_command.c ****                                             (uint16_t)amplitude,
 4200              		.loc 1 1227 20 view .LVU840
 4201 0464 20E6     		b	.L190
 4202              	.LVL408:
 4203              	.L321:
1227:App/Src/fault_command.c ****                                             (uint16_t)amplitude,
 4204              		.loc 1 1227 20 view .LVU841
 4205              	.LBE28:
1234:App/Src/fault_command.c ****         status = HAL_OK;
 4206              		.loc 1 1234 9 is_stmt 1 view .LVU842
 4207 0466 FFF7FEFF 		bl	WaveformGen_Stop
 4208              	.LVL409:
1235:App/Src/fault_command.c ****       }
 4209              		.loc 1 1235 9 view .LVU843
1235:App/Src/fault_command.c ****       }
 4210              		.loc 1 1235 16 is_stmt 0 view .LVU844
 4211 046a 0023     		movs	r3, #0
 4212 046c 1C46     		mov	r4, r3
 4213              	.LVL410:
1235:App/Src/fault_command.c ****       }
 4214              		.loc 1 1235 16 view .LVU845
 4215 046e 1BE6     		b	.L190
ARM GAS  C:\Users\hh\AppData\Local\Temp\ccnvB5Va.s 			page 119


 4216              	.LVL411:
 4217              	.L305:
1241:App/Src/fault_command.c ****     status = HAL_OK;
 4218              		.loc 1 1241 5 is_stmt 1 view .LVU846
 4219 0470 FFF7FEFF 		bl	WaveformGen_Stop
 4220              	.LVL412:
1242:App/Src/fault_command.c ****   }
 4221              		.loc 1 1242 5 view .LVU847
1242:App/Src/fault_command.c ****   }
 4222              		.loc 1 1242 12 is_stmt 0 view .LVU848
 4223 0474 0023     		movs	r3, #0
 4224 0476 1C46     		mov	r4, r3
 4225              	.LVL413:
1242:App/Src/fault_command.c ****   }
 4226              		.loc 1 1242 12 view .LVU849
 4227 0478 16E6     		b	.L190
 4228              	.LVL414:
 4229              	.L306:
 4230              	.LBB29:
1246:App/Src/fault_command.c **** 
 4231              		.loc 1 1246 5 is_stmt 1 view .LVU850
1248:App/Src/fault_command.c ****     {
 4232              		.loc 1 1248 5 view .LVU851
1248:App/Src/fault_command.c ****     {
 4233              		.loc 1 1248 9 is_stmt 0 view .LVU852
 4234 047a 1023     		movs	r3, #16
 4235 047c 0AAA     		add	r2, sp, #40
 4236 047e 5049     		ldr	r1, .L364+44
 4237 0480 2046     		mov	r0, r4
 4238 0482 FFF7FEFF 		bl	FaultCommand_JsonGetString
 4239              	.LVL415:
1248:App/Src/fault_command.c ****     {
 4240              		.loc 1 1248 8 discriminator 1 view .LVU853
 4241 0486 0028     		cmp	r0, #0
 4242 0488 00F0D280 		beq	.L264
1250:App/Src/fault_command.c ****       {
 4243              		.loc 1 1250 7 is_stmt 1 view .LVU854
1250:App/Src/fault_command.c ****       {
 4244              		.loc 1 1250 11 is_stmt 0 view .LVU855
 4245 048c 4D49     		ldr	r1, .L364+48
 4246 048e 0AA8     		add	r0, sp, #40
 4247 0490 FFF7FEFF 		bl	strcmp
 4248              	.LVL416:
1250:App/Src/fault_command.c ****       {
 4249              		.loc 1 1250 10 discriminator 1 view .LVU856
 4250 0494 A8B1     		cbz	r0, .L330
1265:App/Src/fault_command.c ****       {
 4251              		.loc 1 1265 12 is_stmt 1 view .LVU857
1265:App/Src/fault_command.c ****       {
 4252              		.loc 1 1265 16 is_stmt 0 view .LVU858
 4253 0496 4C49     		ldr	r1, .L364+52
 4254 0498 0AA8     		add	r0, sp, #40
 4255 049a FFF7FEFF 		bl	strcmp
 4256              	.LVL417:
1265:App/Src/fault_command.c ****       {
 4257              		.loc 1 1265 15 discriminator 1 view .LVU859
 4258 049e 0028     		cmp	r0, #0
ARM GAS  C:\Users\hh\AppData\Local\Temp\ccnvB5Va.s 			page 120


 4259 04a0 36D0     		beq	.L331
1280:App/Src/fault_command.c ****       {
 4260              		.loc 1 1280 12 is_stmt 1 view .LVU860
1280:App/Src/fault_command.c ****       {
 4261              		.loc 1 1280 16 is_stmt 0 view .LVU861
 4262 04a2 4A49     		ldr	r1, .L364+56
 4263 04a4 0AA8     		add	r0, sp, #40
 4264 04a6 FFF7FEFF 		bl	strcmp
 4265              	.LVL418:
1280:App/Src/fault_command.c ****       {
 4266              		.loc 1 1280 15 discriminator 1 view .LVU862
 4267 04aa 0028     		cmp	r0, #0
 4268 04ac 50D0     		beq	.L332
1298:App/Src/fault_command.c ****       {
 4269              		.loc 1 1298 12 is_stmt 1 view .LVU863
1298:App/Src/fault_command.c ****       {
 4270              		.loc 1 1298 16 is_stmt 0 view .LVU864
 4271 04ae 4849     		ldr	r1, .L364+60
 4272 04b0 0AA8     		add	r0, sp, #40
 4273 04b2 FFF7FEFF 		bl	strcmp
 4274              	.LVL419:
1298:App/Src/fault_command.c ****       {
 4275              		.loc 1 1298 15 discriminator 1 view .LVU865
 4276 04b6 0028     		cmp	r0, #0
 4277 04b8 00F0A480 		beq	.L333
 4278              	.LBE29:
1098:App/Src/fault_command.c **** 
 4279              		.loc 1 1098 21 view .LVU866
 4280 04bc 0123     		movs	r3, #1
 4281 04be 1C46     		mov	r4, r3
 4282              	.LVL420:
1098:App/Src/fault_command.c **** 
 4283              		.loc 1 1098 21 view .LVU867
 4284 04c0 F2E5     		b	.L190
 4285              	.LVL421:
 4286              	.L330:
 4287              	.LBB38:
1252:App/Src/fault_command.c ****         for (uint8_t calCell = 1U; calCell <= VOLTAGE_SIM_CELL_COUNT; calCell++)
 4288              		.loc 1 1252 9 is_stmt 1 view .LVU868
 4289 04c2 444A     		ldr	r2, .L364+64
 4290 04c4 3946     		mov	r1, r7
 4291 04c6 3046     		mov	r0, r6
 4292 04c8 FFF7FEFF 		bl	FaultCommand_Write
 4293              	.LVL422:
1253:App/Src/fault_command.c ****         {
 4294              		.loc 1 1253 9 view .LVU869
 4295              	.LBB30:
1253:App/Src/fault_command.c ****         {
 4296              		.loc 1 1253 14 view .LVU870
1253:App/Src/fault_command.c ****         {
 4297              		.loc 1 1253 22 is_stmt 0 view .LVU871
 4298 04cc 0123     		movs	r3, #1
 4299 04ce 1A46     		mov	r2, r3
1253:App/Src/fault_command.c ****         {
 4300              		.loc 1 1253 9 view .LVU872
 4301 04d0 11E0     		b	.L210
 4302              	.LVL423:
ARM GAS  C:\Users\hh\AppData\Local\Temp\ccnvB5Va.s 			page 121


 4303              	.L335:
1255:App/Src/fault_command.c ****                                    context,
 4304              		.loc 1 1255 11 discriminator 1 view .LVU873
 4305 04d2 414B     		ldr	r3, .L364+68
 4306 04d4 1D46     		mov	r5, r3
 4307              	.L211:
1260:App/Src/fault_command.c ****         }
 4308              		.loc 1 1260 41 view .LVU874
 4309 04d6 1446     		mov	r4, r2
 4310 04d8 1046     		mov	r0, r2
 4311 04da FFF7FEFF 		bl	VoltageSim_GetCellCalibrationOffsetMv
 4312              	.LVL424:
1255:App/Src/fault_command.c ****                                    context,
 4313              		.loc 1 1255 11 discriminator 4 view .LVU875
 4314 04de 0190     		str	r0, [sp, #4]
 4315 04e0 0094     		str	r4, [sp]
 4316 04e2 2B46     		mov	r3, r5
 4317 04e4 3D4A     		ldr	r2, .L364+72
 4318 04e6 3946     		mov	r1, r7
 4319 04e8 3046     		mov	r0, r6
 4320 04ea FFF7FEFF 		bl	FaultCommand_WriteFormat
 4321              	.LVL425:
1253:App/Src/fault_command.c ****         {
 4322              		.loc 1 1253 78 is_stmt 1 discriminator 2 view .LVU876
 4323 04ee 2346     		mov	r3, r4
 4324 04f0 0133     		adds	r3, r3, #1
 4325 04f2 DBB2     		uxtb	r3, r3
 4326 04f4 1A46     		mov	r2, r3
 4327              	.LVL426:
 4328              	.L210:
1253:App/Src/fault_command.c ****         {
 4329              		.loc 1 1253 44 discriminator 1 view .LVU877
 4330 04f6 0D2A     		cmp	r2, #13
 4331 04f8 04D8     		bhi	.L334
1255:App/Src/fault_command.c ****                                    context,
 4332              		.loc 1 1255 11 view .LVU878
 4333 04fa 012A     		cmp	r2, #1
 4334 04fc E9D0     		beq	.L335
1255:App/Src/fault_command.c ****                                    context,
 4335              		.loc 1 1255 11 is_stmt 0 discriminator 2 view .LVU879
 4336 04fe 384B     		ldr	r3, .L364+76
 4337 0500 1D46     		mov	r5, r3
 4338 0502 E8E7     		b	.L211
 4339              	.L334:
 4340              	.LBE30:
1262:App/Src/fault_command.c ****         return;
 4341              		.loc 1 1262 9 is_stmt 1 view .LVU880
 4342 0504 374A     		ldr	r2, .L364+80
 4343              	.LVL427:
1262:App/Src/fault_command.c ****         return;
 4344              		.loc 1 1262 9 is_stmt 0 view .LVU881
 4345 0506 3946     		mov	r1, r7
 4346 0508 3046     		mov	r0, r6
 4347 050a FFF7FEFF 		bl	FaultCommand_Write
 4348              	.LVL428:
1263:App/Src/fault_command.c ****       }
 4349              		.loc 1 1263 9 is_stmt 1 view .LVU882
ARM GAS  C:\Users\hh\AppData\Local\Temp\ccnvB5Va.s 			page 122


 4350 050e D1E5     		b	.L184
 4351              	.LVL429:
 4352              	.L331:
 4353              	.LBB31:
1267:App/Src/fault_command.c **** 
 4354              		.loc 1 1267 9 view .LVU883
1269:App/Src/fault_command.c ****         {
 4355              		.loc 1 1269 9 view .LVU884
1269:App/Src/fault_command.c ****         {
 4356              		.loc 1 1269 13 is_stmt 0 view .LVU885
 4357 0510 FFF7FEFF 		bl	DacSafety_IsOutputAllowed
 4358              	.LVL430:
1269:App/Src/fault_command.c ****         {
 4359              		.loc 1 1269 12 discriminator 1 view .LVU886
 4360 0514 10B9     		cbnz	r0, .L336
1271:App/Src/fault_command.c ****         }
 4361              		.loc 1 1271 18 view .LVU887
 4362 0516 0223     		movs	r3, #2
 4363 0518 1C46     		mov	r4, r3
 4364              	.LVL431:
1271:App/Src/fault_command.c ****         }
 4365              		.loc 1 1271 18 view .LVU888
 4366 051a C5E5     		b	.L190
 4367              	.LVL432:
 4368              	.L336:
1273:App/Src/fault_command.c ****             (FaultCommand_JsonGetInt(json, "offset_mv", &signedOffset) != 0U))
 4369              		.loc 1 1273 14 is_stmt 1 view .LVU889
1273:App/Src/fault_command.c ****             (FaultCommand_JsonGetInt(json, "offset_mv", &signedOffset) != 0U))
 4370              		.loc 1 1273 19 is_stmt 0 view .LVU890
 4371 051c 0FAA     		add	r2, sp, #60
 4372 051e 2249     		ldr	r1, .L364+20
 4373 0520 2046     		mov	r0, r4
 4374 0522 FFF7FEFF 		bl	FaultCommand_JsonGetUint
 4375              	.LVL433:
1273:App/Src/fault_command.c ****             (FaultCommand_JsonGetInt(json, "offset_mv", &signedOffset) != 0U))
 4376              		.loc 1 1273 17 discriminator 1 view .LVU891
 4377 0526 10B9     		cbnz	r0, .L337
 4378              	.LBE31:
 4379              	.LBE38:
1098:App/Src/fault_command.c **** 
 4380              		.loc 1 1098 21 view .LVU892
 4381 0528 0123     		movs	r3, #1
 4382 052a 1C46     		mov	r4, r3
 4383              	.LVL434:
1098:App/Src/fault_command.c **** 
 4384              		.loc 1 1098 21 view .LVU893
 4385 052c BCE5     		b	.L190
 4386              	.LVL435:
 4387              	.L337:
 4388              	.LBB39:
 4389              	.LBB32:
1274:App/Src/fault_command.c ****         {
 4390              		.loc 1 1274 14 view .LVU894
 4391 052e 08AA     		add	r2, sp, #32
 4392 0530 2149     		ldr	r1, .L364+36
 4393 0532 2046     		mov	r0, r4
 4394 0534 FFF7FEFF 		bl	FaultCommand_JsonGetInt
ARM GAS  C:\Users\hh\AppData\Local\Temp\ccnvB5Va.s 			page 123


 4395              	.LVL436:
1273:App/Src/fault_command.c ****             (FaultCommand_JsonGetInt(json, "offset_mv", &signedOffset) != 0U))
 4396              		.loc 1 1273 72 discriminator 2 view .LVU895
 4397 0538 10B9     		cbnz	r0, .L338
 4398              	.LBE32:
 4399              	.LBE39:
1098:App/Src/fault_command.c **** 
 4400              		.loc 1 1098 21 view .LVU896
 4401 053a 0123     		movs	r3, #1
 4402 053c 1C46     		mov	r4, r3
 4403              	.LVL437:
1098:App/Src/fault_command.c **** 
 4404              		.loc 1 1098 21 view .LVU897
 4405 053e B3E5     		b	.L190
 4406              	.LVL438:
 4407              	.L338:
 4408              	.LBB40:
 4409              	.LBB33:
1276:App/Src/fault_command.c ****                                                          (int16_t)signedOffset);
 4410              		.loc 1 1276 11 is_stmt 1 view .LVU898
1276:App/Src/fault_command.c ****                                                          (int16_t)signedOffset);
 4411              		.loc 1 1276 20 is_stmt 0 view .LVU899
 4412 0540 BDF92010 		ldrsh	r1, [sp, #32]
 4413 0544 9DF83C00 		ldrb	r0, [sp, #60]	@ zero_extendqisi2
 4414 0548 FFF7FEFF 		bl	VoltageSim_SetCellCalibrationOffsetMv
 4415              	.LVL439:
 4416 054c 0446     		mov	r4, r0
 4417              	.LVL440:
1276:App/Src/fault_command.c ****                                                          (int16_t)signedOffset);
 4418              		.loc 1 1276 20 view .LVU900
 4419 054e ABE5     		b	.L190
 4420              	.LVL441:
 4421              	.L332:
1276:App/Src/fault_command.c ****                                                          (int16_t)signedOffset);
 4422              		.loc 1 1276 20 view .LVU901
 4423              	.LBE33:
 4424              	.LBB34:
1282:App/Src/fault_command.c ****         uint32_t measuredMv;
 4425              		.loc 1 1282 9 is_stmt 1 view .LVU902
1283:App/Src/fault_command.c **** 
 4426              		.loc 1 1283 9 view .LVU903
1285:App/Src/fault_command.c ****         {
 4427              		.loc 1 1285 9 view .LVU904
1285:App/Src/fault_command.c ****         {
 4428              		.loc 1 1285 13 is_stmt 0 view .LVU905
 4429 0550 FFF7FEFF 		bl	DacSafety_IsOutputAllowed
 4430              	.LVL442:
1285:App/Src/fault_command.c ****         {
 4431              		.loc 1 1285 12 discriminator 1 view .LVU906
 4432 0554 10B9     		cbnz	r0, .L339
1287:App/Src/fault_command.c ****         }
 4433              		.loc 1 1287 18 view .LVU907
 4434 0556 0223     		movs	r3, #2
 4435 0558 1C46     		mov	r4, r3
 4436              	.LVL443:
1287:App/Src/fault_command.c ****         }
 4437              		.loc 1 1287 18 view .LVU908
ARM GAS  C:\Users\hh\AppData\Local\Temp\ccnvB5Va.s 			page 124


 4438 055a A5E5     		b	.L190
 4439              	.LVL444:
 4440              	.L339:
1289:App/Src/fault_command.c ****             (FaultCommand_JsonGetUint(json, "target_mv", &targetMv) != 0U) &&
 4441              		.loc 1 1289 14 is_stmt 1 view .LVU909
1289:App/Src/fault_command.c ****             (FaultCommand_JsonGetUint(json, "target_mv", &targetMv) != 0U) &&
 4442              		.loc 1 1289 19 is_stmt 0 view .LVU910
 4443 055c 0FAA     		add	r2, sp, #60
 4444 055e 1249     		ldr	r1, .L364+20
 4445 0560 2046     		mov	r0, r4
 4446 0562 FFF7FEFF 		bl	FaultCommand_JsonGetUint
 4447              	.LVL445:
1289:App/Src/fault_command.c ****             (FaultCommand_JsonGetUint(json, "target_mv", &targetMv) != 0U) &&
 4448              		.loc 1 1289 17 discriminator 1 view .LVU911
 4449 0566 10B9     		cbnz	r0, .L340
 4450              	.LBE34:
 4451              	.LBE40:
1098:App/Src/fault_command.c **** 
 4452              		.loc 1 1098 21 view .LVU912
 4453 0568 0123     		movs	r3, #1
 4454 056a 1C46     		mov	r4, r3
 4455              	.LVL446:
1098:App/Src/fault_command.c **** 
 4456              		.loc 1 1098 21 view .LVU913
 4457 056c 9CE5     		b	.L190
 4458              	.LVL447:
 4459              	.L340:
 4460              	.LBB41:
 4461              	.LBB35:
1290:App/Src/fault_command.c ****             (FaultCommand_JsonGetUint(json, "measured_mv", &measuredMv) != 0U))
 4462              		.loc 1 1290 14 view .LVU914
 4463 056e 06AA     		add	r2, sp, #24
 4464 0570 1D49     		ldr	r1, .L364+84
 4465 0572 2046     		mov	r0, r4
 4466 0574 FFF7FEFF 		bl	FaultCommand_JsonGetUint
 4467              	.LVL448:
1289:App/Src/fault_command.c ****             (FaultCommand_JsonGetUint(json, "target_mv", &targetMv) != 0U) &&
 4468              		.loc 1 1289 72 discriminator 2 view .LVU915
 4469 0578 10B9     		cbnz	r0, .L341
 4470              	.LBE35:
 4471              	.LBE41:
1098:App/Src/fault_command.c **** 
 4472              		.loc 1 1098 21 view .LVU916
 4473 057a 0123     		movs	r3, #1
 4474 057c 1C46     		mov	r4, r3
 4475              	.LVL449:
1098:App/Src/fault_command.c **** 
 4476              		.loc 1 1098 21 view .LVU917
 4477 057e 93E5     		b	.L190
 4478              	.LVL450:
 4479              	.L341:
 4480              	.LBB42:
 4481              	.LBB36:
1291:App/Src/fault_command.c ****         {
 4482              		.loc 1 1291 14 view .LVU918
 4483 0580 08AA     		add	r2, sp, #32
 4484 0582 1A49     		ldr	r1, .L364+88
ARM GAS  C:\Users\hh\AppData\Local\Temp\ccnvB5Va.s 			page 125


 4485 0584 2046     		mov	r0, r4
 4486 0586 FFF7FEFF 		bl	FaultCommand_JsonGetUint
 4487              	.LVL451:
1290:App/Src/fault_command.c ****             (FaultCommand_JsonGetUint(json, "measured_mv", &measuredMv) != 0U))
 4488              		.loc 1 1290 76 view .LVU919
 4489 058a 88BB     		cbnz	r0, .L342
 4490              	.LBE36:
 4491              	.LBE42:
1098:App/Src/fault_command.c **** 
 4492              		.loc 1 1098 21 view .LVU920
 4493 058c 0123     		movs	r3, #1
 4494 058e 1C46     		mov	r4, r3
 4495              	.LVL452:
1098:App/Src/fault_command.c **** 
 4496              		.loc 1 1098 21 view .LVU921
 4497 0590 8AE5     		b	.L190
 4498              	.L365:
 4499 0592 00BF     		.align	2
 4500              	.L364:
 4501 0594 58010000 		.word	.LC91
 4502 0598 60010000 		.word	.LC92
 4503 059c 68010000 		.word	.LC93
 4504 05a0 7C010000 		.word	.LC95
 4505 05a4 A0010000 		.word	.LC98
 4506 05a8 D4000000 		.word	.LC78
 4507 05ac 48010000 		.word	.LC89
 4508 05b0 34010000 		.word	.LC87
 4509 05b4 70010000 		.word	.LC94
 4510 05b8 84010000 		.word	.LC96
 4511 05bc 90010000 		.word	.LC97
 4512 05c0 BC010000 		.word	.LC101
 4513 05c4 2C000000 		.word	.LC72
 4514 05c8 D0000000 		.word	.LC77
 4515 05cc 00020000 		.word	.LC104
 4516 05d0 20020000 		.word	.LC107
 4517 05d4 C4010000 		.word	.LC102
 4518 05d8 00000000 		.word	.LC31
 4519 05dc E0010000 		.word	.LC103
 4520 05e0 04000000 		.word	.LC32
 4521 05e4 50010000 		.word	.LC35
 4522 05e8 08020000 		.word	.LC105
 4523 05ec 14020000 		.word	.LC106
 4524              	.LVL453:
 4525              	.L342:
 4526              	.LBB43:
 4527              	.LBB37:
1293:App/Src/fault_command.c ****                                                   (uint16_t)targetMv,
 4528              		.loc 1 1293 11 is_stmt 1 view .LVU922
1293:App/Src/fault_command.c ****                                                   (uint16_t)targetMv,
 4529              		.loc 1 1293 20 is_stmt 0 view .LVU923
 4530 05f0 BDF82020 		ldrh	r2, [sp, #32]
 4531 05f4 BDF81810 		ldrh	r1, [sp, #24]
 4532 05f8 9DF83C00 		ldrb	r0, [sp, #60]	@ zero_extendqisi2
 4533 05fc FFF7FEFF 		bl	FaultCommand_RunCalibrationTrim
 4534              	.LVL454:
 4535 0600 0446     		mov	r4, r0
 4536              	.LVL455:
ARM GAS  C:\Users\hh\AppData\Local\Temp\ccnvB5Va.s 			page 126


1293:App/Src/fault_command.c ****                                                   (uint16_t)targetMv,
 4537              		.loc 1 1293 20 view .LVU924
 4538 0602 51E5     		b	.L190
 4539              	.LVL456:
 4540              	.L333:
1293:App/Src/fault_command.c ****                                                   (uint16_t)targetMv,
 4541              		.loc 1 1293 20 view .LVU925
 4542              	.LBE37:
1300:App/Src/fault_command.c ****         {
 4543              		.loc 1 1300 9 is_stmt 1 view .LVU926
1300:App/Src/fault_command.c ****         {
 4544              		.loc 1 1300 13 is_stmt 0 view .LVU927
 4545 0604 FFF7FEFF 		bl	DacSafety_IsOutputAllowed
 4546              	.LVL457:
1300:App/Src/fault_command.c ****         {
 4547              		.loc 1 1300 12 discriminator 1 view .LVU928
 4548 0608 10B9     		cbnz	r0, .L343
1302:App/Src/fault_command.c ****         }
 4549              		.loc 1 1302 18 view .LVU929
 4550 060a 0223     		movs	r3, #2
 4551 060c 1C46     		mov	r4, r3
 4552              	.LVL458:
1302:App/Src/fault_command.c ****         }
 4553              		.loc 1 1302 18 view .LVU930
 4554 060e 4BE5     		b	.L190
 4555              	.LVL459:
 4556              	.L343:
1304:App/Src/fault_command.c ****         {
 4557              		.loc 1 1304 14 is_stmt 1 view .LVU931
1304:App/Src/fault_command.c ****         {
 4558              		.loc 1 1304 18 is_stmt 0 view .LVU932
 4559 0610 0FAA     		add	r2, sp, #60
 4560 0612 9549     		ldr	r1, .L366
 4561 0614 2046     		mov	r0, r4
 4562 0616 FFF7FEFF 		bl	FaultCommand_JsonGetUint
 4563              	.LVL460:
1304:App/Src/fault_command.c ****         {
 4564              		.loc 1 1304 17 discriminator 1 view .LVU933
 4565 061a 0446     		mov	r4, r0
 4566              	.LVL461:
1304:App/Src/fault_command.c ****         {
 4567              		.loc 1 1304 17 discriminator 1 view .LVU934
 4568 061c 28B1     		cbz	r0, .L217
1306:App/Src/fault_command.c ****         }
 4569              		.loc 1 1306 11 is_stmt 1 view .LVU935
1306:App/Src/fault_command.c ****         }
 4570              		.loc 1 1306 20 is_stmt 0 view .LVU936
 4571 061e 9DF83C00 		ldrb	r0, [sp, #60]	@ zero_extendqisi2
 4572 0622 FFF7FEFF 		bl	VoltageSim_ClearCellCalibrationOffset
 4573              	.LVL462:
 4574 0626 0446     		mov	r4, r0
 4575              	.LVL463:
1306:App/Src/fault_command.c ****         }
 4576              		.loc 1 1306 20 view .LVU937
 4577 0628 3EE5     		b	.L190
 4578              	.LVL464:
 4579              	.L217:
ARM GAS  C:\Users\hh\AppData\Local\Temp\ccnvB5Va.s 			page 127


1310:App/Src/fault_command.c ****           status = HAL_OK;
 4580              		.loc 1 1310 11 is_stmt 1 view .LVU938
 4581 062a FFF7FEFF 		bl	VoltageSim_ClearAllCalibrationOffsets
 4582              	.LVL465:
1311:App/Src/fault_command.c ****         }
 4583              		.loc 1 1311 11 view .LVU939
1311:App/Src/fault_command.c ****         }
 4584              		.loc 1 1311 11 is_stmt 0 view .LVU940
 4585 062e 3BE5     		b	.L190
 4586              	.LVL466:
 4587              	.L264:
1311:App/Src/fault_command.c ****         }
 4588              		.loc 1 1311 11 view .LVU941
 4589              	.LBE43:
1098:App/Src/fault_command.c **** 
 4590              		.loc 1 1098 21 view .LVU942
 4591 0630 0123     		movs	r3, #1
 4592 0632 1C46     		mov	r4, r3
 4593              	.LVL467:
1098:App/Src/fault_command.c **** 
 4594              		.loc 1 1098 21 view .LVU943
 4595 0634 38E5     		b	.L190
 4596              	.LVL468:
 4597              	.L307:
1318:App/Src/fault_command.c ****     {
 4598              		.loc 1 1318 5 is_stmt 1 view .LVU944
1318:App/Src/fault_command.c ****     {
 4599              		.loc 1 1318 9 is_stmt 0 view .LVU945
 4600 0636 1023     		movs	r3, #16
 4601 0638 10AA     		add	r2, sp, #64
 4602 063a 8C49     		ldr	r1, .L366+4
 4603 063c 2046     		mov	r0, r4
 4604 063e FFF7FEFF 		bl	FaultCommand_JsonGetString
 4605              	.LVL469:
1318:App/Src/fault_command.c ****     {
 4606              		.loc 1 1318 8 discriminator 1 view .LVU946
 4607 0642 0028     		cmp	r0, #0
 4608 0644 00F08081 		beq	.L275
1320:App/Src/fault_command.c ****       {
 4609              		.loc 1 1320 7 is_stmt 1 view .LVU947
1320:App/Src/fault_command.c ****       {
 4610              		.loc 1 1320 11 is_stmt 0 view .LVU948
 4611 0648 8949     		ldr	r1, .L366+8
 4612 064a 10A8     		add	r0, sp, #64
 4613 064c FFF7FEFF 		bl	strcmp
 4614              	.LVL470:
1320:App/Src/fault_command.c ****       {
 4615              		.loc 1 1320 10 discriminator 1 view .LVU949
 4616 0650 38B1     		cbz	r0, .L344
1327:App/Src/fault_command.c ****       {
 4617              		.loc 1 1327 12 is_stmt 1 view .LVU950
1327:App/Src/fault_command.c ****       {
 4618              		.loc 1 1327 16 is_stmt 0 view .LVU951
 4619 0652 8849     		ldr	r1, .L366+12
 4620 0654 10A8     		add	r0, sp, #64
 4621 0656 FFF7FEFF 		bl	strcmp
 4622              	.LVL471:
ARM GAS  C:\Users\hh\AppData\Local\Temp\ccnvB5Va.s 			page 128


1327:App/Src/fault_command.c ****       {
 4623              		.loc 1 1327 15 discriminator 1 view .LVU952
 4624 065a 88B1     		cbz	r0, .L345
1098:App/Src/fault_command.c **** 
 4625              		.loc 1 1098 21 view .LVU953
 4626 065c 0123     		movs	r3, #1
 4627 065e 1C46     		mov	r4, r3
 4628              	.LVL472:
1098:App/Src/fault_command.c **** 
 4629              		.loc 1 1098 21 view .LVU954
 4630 0660 22E5     		b	.L190
 4631              	.LVL473:
 4632              	.L344:
1322:App/Src/fault_command.c ****         {
 4633              		.loc 1 1322 9 is_stmt 1 view .LVU955
1322:App/Src/fault_command.c ****         {
 4634              		.loc 1 1322 13 is_stmt 0 view .LVU956
 4635 0662 0EAA     		add	r2, sp, #56
 4636 0664 8449     		ldr	r1, .L366+16
 4637 0666 2046     		mov	r0, r4
 4638 0668 FFF7FEFF 		bl	FaultCommand_JsonGetUint
 4639              	.LVL474:
1322:App/Src/fault_command.c ****         {
 4640              		.loc 1 1322 12 discriminator 1 view .LVU957
 4641 066c 10B9     		cbnz	r0, .L346
1098:App/Src/fault_command.c **** 
 4642              		.loc 1 1098 21 view .LVU958
 4643 066e 0123     		movs	r3, #1
 4644 0670 1C46     		mov	r4, r3
 4645              	.LVL475:
1098:App/Src/fault_command.c **** 
 4646              		.loc 1 1098 21 view .LVU959
 4647 0672 19E5     		b	.L190
 4648              	.LVL476:
 4649              	.L346:
1324:App/Src/fault_command.c ****         }
 4650              		.loc 1 1324 11 is_stmt 1 view .LVU960
1324:App/Src/fault_command.c ****         }
 4651              		.loc 1 1324 20 is_stmt 0 view .LVU961
 4652 0674 BDF83800 		ldrh	r0, [sp, #56]
 4653 0678 FFF7FEFF 		bl	FaultCommand_RunNormal
 4654              	.LVL477:
 4655 067c 0446     		mov	r4, r0
 4656              	.LVL478:
1324:App/Src/fault_command.c ****         }
 4657              		.loc 1 1324 20 view .LVU962
 4658 067e 13E5     		b	.L190
 4659              	.LVL479:
 4660              	.L345:
 4661              	.LBB44:
1329:App/Src/fault_command.c ****         uint32_t high;
 4662              		.loc 1 1329 9 is_stmt 1 view .LVU963
1330:App/Src/fault_command.c ****         uint32_t period;
 4663              		.loc 1 1330 9 view .LVU964
1331:App/Src/fault_command.c **** 
 4664              		.loc 1 1331 9 view .LVU965
1333:App/Src/fault_command.c ****         {
ARM GAS  C:\Users\hh\AppData\Local\Temp\ccnvB5Va.s 			page 129


 4665              		.loc 1 1333 9 view .LVU966
1333:App/Src/fault_command.c ****         {
 4666              		.loc 1 1333 13 is_stmt 0 view .LVU967
 4667 0680 FFF7FEFF 		bl	DacSafety_IsOutputAllowed
 4668              	.LVL480:
1333:App/Src/fault_command.c ****         {
 4669              		.loc 1 1333 12 discriminator 1 view .LVU968
 4670 0684 10B9     		cbnz	r0, .L347
1335:App/Src/fault_command.c ****         }
 4671              		.loc 1 1335 18 view .LVU969
 4672 0686 0223     		movs	r3, #2
 4673 0688 1C46     		mov	r4, r3
 4674              	.LVL481:
1335:App/Src/fault_command.c ****         }
 4675              		.loc 1 1335 18 view .LVU970
 4676 068a 0DE5     		b	.L190
 4677              	.LVL482:
 4678              	.L347:
1337:App/Src/fault_command.c ****             (FaultCommand_JsonGetUint(json, "low_mv", &low) != 0U) &&
 4679              		.loc 1 1337 14 is_stmt 1 view .LVU971
1337:App/Src/fault_command.c ****             (FaultCommand_JsonGetUint(json, "low_mv", &low) != 0U) &&
 4680              		.loc 1 1337 19 is_stmt 0 view .LVU972
 4681 068c 0FAA     		add	r2, sp, #60
 4682 068e 7649     		ldr	r1, .L366
 4683 0690 2046     		mov	r0, r4
 4684 0692 FFF7FEFF 		bl	FaultCommand_JsonGetUint
 4685              	.LVL483:
1337:App/Src/fault_command.c ****             (FaultCommand_JsonGetUint(json, "low_mv", &low) != 0U) &&
 4686              		.loc 1 1337 17 discriminator 1 view .LVU973
 4687 0696 10B9     		cbnz	r0, .L348
 4688              	.LBE44:
1098:App/Src/fault_command.c **** 
 4689              		.loc 1 1098 21 view .LVU974
 4690 0698 0123     		movs	r3, #1
 4691 069a 1C46     		mov	r4, r3
 4692              	.LVL484:
1098:App/Src/fault_command.c **** 
 4693              		.loc 1 1098 21 view .LVU975
 4694 069c 04E5     		b	.L190
 4695              	.LVL485:
 4696              	.L348:
 4697              	.LBB45:
1338:App/Src/fault_command.c ****             (FaultCommand_JsonGetUint(json, "high_mv", &high) != 0U))
 4698              		.loc 1 1338 14 view .LVU976
 4699 069e 08AA     		add	r2, sp, #32
 4700 06a0 7649     		ldr	r1, .L366+20
 4701 06a2 2046     		mov	r0, r4
 4702 06a4 FFF7FEFF 		bl	FaultCommand_JsonGetUint
 4703              	.LVL486:
1337:App/Src/fault_command.c ****             (FaultCommand_JsonGetUint(json, "low_mv", &low) != 0U) &&
 4704              		.loc 1 1337 72 discriminator 2 view .LVU977
 4705 06a8 10B9     		cbnz	r0, .L349
 4706              	.LBE45:
1098:App/Src/fault_command.c **** 
 4707              		.loc 1 1098 21 view .LVU978
 4708 06aa 0123     		movs	r3, #1
 4709 06ac 1C46     		mov	r4, r3
ARM GAS  C:\Users\hh\AppData\Local\Temp\ccnvB5Va.s 			page 130


 4710              	.LVL487:
1098:App/Src/fault_command.c **** 
 4711              		.loc 1 1098 21 view .LVU979
 4712 06ae FBE4     		b	.L190
 4713              	.LVL488:
 4714              	.L349:
 4715              	.LBB46:
1339:App/Src/fault_command.c ****         {
 4716              		.loc 1 1339 14 view .LVU980
 4717 06b0 0AAA     		add	r2, sp, #40
 4718 06b2 7349     		ldr	r1, .L366+24
 4719 06b4 2046     		mov	r0, r4
 4720 06b6 FFF7FEFF 		bl	FaultCommand_JsonGetUint
 4721              	.LVL489:
1338:App/Src/fault_command.c ****             (FaultCommand_JsonGetUint(json, "high_mv", &high) != 0U))
 4722              		.loc 1 1338 68 view .LVU981
 4723 06ba 10B9     		cbnz	r0, .L350
 4724              	.LBE46:
1098:App/Src/fault_command.c **** 
 4725              		.loc 1 1098 21 view .LVU982
 4726 06bc 0123     		movs	r3, #1
 4727 06be 1C46     		mov	r4, r3
 4728              	.LVL490:
1098:App/Src/fault_command.c **** 
 4729              		.loc 1 1098 21 view .LVU983
 4730 06c0 F2E4     		b	.L190
 4731              	.LVL491:
 4732              	.L350:
 4733              	.LBB47:
1341:App/Src/fault_command.c ****           status = WaveformGen_StartSquare((uint8_t)cell,
 4734              		.loc 1 1341 11 is_stmt 1 view .LVU984
1341:App/Src/fault_command.c ****           status = WaveformGen_StartSquare((uint8_t)cell,
 4735              		.loc 1 1341 20 is_stmt 0 view .LVU985
 4736 06c2 4FF47A72 		mov	r2, #1000
 4737 06c6 6F49     		ldr	r1, .L366+28
 4738 06c8 2046     		mov	r0, r4
 4739 06ca FFF7FEFF 		bl	FaultCommand_JsonGetUintDefault
 4740              	.LVL492:
 4741 06ce 0346     		mov	r3, r0
 4742              	.LVL493:
1342:App/Src/fault_command.c ****                                            (uint16_t)low,
 4743              		.loc 1 1342 11 is_stmt 1 view .LVU986
1342:App/Src/fault_command.c ****                                            (uint16_t)low,
 4744              		.loc 1 1342 20 is_stmt 0 view .LVU987
 4745 06d0 BDF82820 		ldrh	r2, [sp, #40]
 4746 06d4 BDF82010 		ldrh	r1, [sp, #32]
 4747 06d8 9DF83C00 		ldrb	r0, [sp, #60]	@ zero_extendqisi2
 4748              	.LVL494:
1342:App/Src/fault_command.c ****                                            (uint16_t)low,
 4749              		.loc 1 1342 20 view .LVU988
 4750 06dc FFF7FEFF 		bl	WaveformGen_StartSquare
 4751              	.LVL495:
1342:App/Src/fault_command.c ****                                            (uint16_t)low,
 4752              		.loc 1 1342 20 view .LVU989
 4753 06e0 0446     		mov	r4, r0
 4754              	.LVL496:
1342:App/Src/fault_command.c ****                                            (uint16_t)low,
ARM GAS  C:\Users\hh\AppData\Local\Temp\ccnvB5Va.s 			page 131


 4755              		.loc 1 1342 20 view .LVU990
 4756 06e2 E1E4     		b	.L190
 4757              	.LVL497:
 4758              	.L308:
1342:App/Src/fault_command.c ****                                            (uint16_t)low,
 4759              		.loc 1 1342 20 view .LVU991
 4760              	.LBE47:
 4761              	.LBB48:
1352:App/Src/fault_command.c **** 
 4762              		.loc 1 1352 5 is_stmt 1 view .LVU992
1354:App/Src/fault_command.c ****     {
 4763              		.loc 1 1354 5 view .LVU993
1354:App/Src/fault_command.c ****     {
 4764              		.loc 1 1354 9 is_stmt 0 view .LVU994
 4765 06e4 1023     		movs	r3, #16
 4766 06e6 0AAA     		add	r2, sp, #40
 4767 06e8 6749     		ldr	r1, .L366+32
 4768 06ea 2046     		mov	r0, r4
 4769 06ec FFF7FEFF 		bl	FaultCommand_JsonGetString
 4770              	.LVL498:
1354:App/Src/fault_command.c ****     {
 4771              		.loc 1 1354 8 discriminator 1 view .LVU995
 4772 06f0 0028     		cmp	r0, #0
 4773 06f2 5ED0     		beq	.L282
1356:App/Src/fault_command.c ****       {
 4774              		.loc 1 1356 7 is_stmt 1 view .LVU996
1356:App/Src/fault_command.c ****       {
 4775              		.loc 1 1356 11 is_stmt 0 view .LVU997
 4776 06f4 6549     		ldr	r1, .L366+36
 4777 06f6 0AA8     		add	r0, sp, #40
 4778 06f8 FFF7FEFF 		bl	strcmp
 4779              	.LVL499:
1356:App/Src/fault_command.c ****       {
 4780              		.loc 1 1356 10 discriminator 1 view .LVU998
 4781 06fc 38B1     		cbz	r0, .L351
1361:App/Src/fault_command.c ****       {
 4782              		.loc 1 1361 12 is_stmt 1 view .LVU999
1361:App/Src/fault_command.c ****       {
 4783              		.loc 1 1361 16 is_stmt 0 view .LVU1000
 4784 06fe 6449     		ldr	r1, .L366+40
 4785 0700 0AA8     		add	r0, sp, #40
 4786 0702 FFF7FEFF 		bl	strcmp
 4787              	.LVL500:
1361:App/Src/fault_command.c ****       {
 4788              		.loc 1 1361 15 discriminator 1 view .LVU1001
 4789 0706 38B1     		cbz	r0, .L352
 4790              	.LBE48:
1098:App/Src/fault_command.c **** 
 4791              		.loc 1 1098 21 view .LVU1002
 4792 0708 0123     		movs	r3, #1
 4793 070a 1C46     		mov	r4, r3
 4794              	.LVL501:
1098:App/Src/fault_command.c **** 
 4795              		.loc 1 1098 21 view .LVU1003
 4796 070c CCE4     		b	.L190
 4797              	.LVL502:
 4798              	.L351:
ARM GAS  C:\Users\hh\AppData\Local\Temp\ccnvB5Va.s 			page 132


 4799              	.LBB57:
1358:App/Src/fault_command.c ****         return;
 4800              		.loc 1 1358 9 is_stmt 1 view .LVU1004
 4801 070e 3946     		mov	r1, r7
 4802 0710 3046     		mov	r0, r6
 4803 0712 FFF7FEFF 		bl	FaultCommand_WriteJsonCanStatus
 4804              	.LVL503:
1359:App/Src/fault_command.c ****       }
 4805              		.loc 1 1359 9 view .LVU1005
 4806 0716 CDE4     		b	.L184
 4807              	.L352:
 4808              	.LBB49:
1363:App/Src/fault_command.c ****         uint32_t length;
 4809              		.loc 1 1363 9 view .LVU1006
1364:App/Src/fault_command.c ****         uint32_t extended;
 4810              		.loc 1 1364 9 view .LVU1007
1365:App/Src/fault_command.c ****         uint8_t data[BSP_CAN_MAX_DATA_LEN] = {0};
 4811              		.loc 1 1365 9 view .LVU1008
1366:App/Src/fault_command.c **** 
 4812              		.loc 1 1366 9 view .LVU1009
1366:App/Src/fault_command.c **** 
 4813              		.loc 1 1366 17 is_stmt 0 view .LVU1010
 4814 0718 0690     		str	r0, [sp, #24]
 4815 071a 0790     		str	r0, [sp, #28]
1368:App/Src/fault_command.c ****             (FaultCommand_JsonGetUint(json, "len", &length) != 0U) &&
 4816              		.loc 1 1368 9 is_stmt 1 view .LVU1011
1368:App/Src/fault_command.c ****             (FaultCommand_JsonGetUint(json, "len", &length) != 0U) &&
 4817              		.loc 1 1368 14 is_stmt 0 view .LVU1012
 4818 071c 03AA     		add	r2, sp, #12
 4819 071e 5D49     		ldr	r1, .L366+44
 4820 0720 2046     		mov	r0, r4
 4821 0722 FFF7FEFF 		bl	FaultCommand_JsonGetUint
 4822              	.LVL504:
1368:App/Src/fault_command.c ****             (FaultCommand_JsonGetUint(json, "len", &length) != 0U) &&
 4823              		.loc 1 1368 12 discriminator 1 view .LVU1013
 4824 0726 10B9     		cbnz	r0, .L353
 4825              	.LBE49:
 4826              	.LBE57:
1098:App/Src/fault_command.c **** 
 4827              		.loc 1 1098 21 view .LVU1014
 4828 0728 0123     		movs	r3, #1
 4829 072a 1C46     		mov	r4, r3
 4830              	.LVL505:
1098:App/Src/fault_command.c **** 
 4831              		.loc 1 1098 21 view .LVU1015
 4832 072c BCE4     		b	.L190
 4833              	.LVL506:
 4834              	.L353:
 4835              	.LBB58:
 4836              	.LBB55:
1369:App/Src/fault_command.c ****             (length <= BSP_CAN_MAX_DATA_LEN))
 4837              		.loc 1 1369 14 view .LVU1016
 4838 072e 04AA     		add	r2, sp, #16
 4839 0730 5949     		ldr	r1, .L366+48
 4840 0732 2046     		mov	r0, r4
 4841 0734 FFF7FEFF 		bl	FaultCommand_JsonGetUint
 4842              	.LVL507:
ARM GAS  C:\Users\hh\AppData\Local\Temp\ccnvB5Va.s 			page 133


1368:App/Src/fault_command.c ****             (FaultCommand_JsonGetUint(json, "len", &length) != 0U) &&
 4843              		.loc 1 1368 63 discriminator 2 view .LVU1017
 4844 0738 0028     		cmp	r0, #0
 4845 073a 37D0     		beq	.L285
1370:App/Src/fault_command.c ****         {
 4846              		.loc 1 1370 21 view .LVU1018
 4847 073c 049B     		ldr	r3, [sp, #16]
1369:App/Src/fault_command.c ****             (length <= BSP_CAN_MAX_DATA_LEN))
 4848              		.loc 1 1369 68 view .LVU1019
 4849 073e 082B     		cmp	r3, #8
 4850 0740 02D9     		bls	.L354
 4851              	.LBE55:
 4852              	.LBE58:
1098:App/Src/fault_command.c **** 
 4853              		.loc 1 1098 21 view .LVU1020
 4854 0742 0123     		movs	r3, #1
 4855 0744 1C46     		mov	r4, r3
 4856              	.LVL508:
1098:App/Src/fault_command.c **** 
 4857              		.loc 1 1098 21 view .LVU1021
 4858 0746 AFE4     		b	.L190
 4859              	.LVL509:
 4860              	.L354:
 4861              	.LBB59:
 4862              	.LBB56:
1372:App/Src/fault_command.c ****           status = HAL_OK;
 4863              		.loc 1 1372 11 is_stmt 1 view .LVU1022
1372:App/Src/fault_command.c ****           status = HAL_OK;
 4864              		.loc 1 1372 22 is_stmt 0 view .LVU1023
 4865 0748 0022     		movs	r2, #0
 4866 074a 5449     		ldr	r1, .L366+52
 4867 074c 2046     		mov	r0, r4
 4868 074e FFF7FEFF 		bl	FaultCommand_JsonGetUintDefault
 4869              	.LVL510:
 4870 0752 8046     		mov	r8, r0
 4871              	.LVL511:
1373:App/Src/fault_command.c **** 
 4872              		.loc 1 1373 11 is_stmt 1 view .LVU1024
1375:App/Src/fault_command.c ****           {
 4873              		.loc 1 1375 11 view .LVU1025
 4874              	.LBB50:
1375:App/Src/fault_command.c ****           {
 4875              		.loc 1 1375 16 view .LVU1026
1375:App/Src/fault_command.c ****           {
 4876              		.loc 1 1375 24 is_stmt 0 view .LVU1027
 4877 0754 0023     		movs	r3, #0
 4878 0756 1D46     		mov	r5, r3
 4879              	.LVL512:
 4880              	.L225:
1375:App/Src/fault_command.c ****           {
 4881              		.loc 1 1375 42 is_stmt 1 discriminator 1 view .LVU1028
 4882 0758 049B     		ldr	r3, [sp, #16]
 4883 075a 9D42     		cmp	r5, r3
 4884 075c 1AD2     		bcs	.L355
 4885              	.LBB51:
1377:App/Src/fault_command.c ****             uint32_t value;
 4886              		.loc 1 1377 13 view .LVU1029
ARM GAS  C:\Users\hh\AppData\Local\Temp\ccnvB5Va.s 			page 134


1378:App/Src/fault_command.c **** 
 4887              		.loc 1 1378 13 view .LVU1030
1380:App/Src/fault_command.c ****             if ((FaultCommand_JsonGetUint(json, key, &value) == 0U) || (value > 0xFFU))
 4888              		.loc 1 1380 13 view .LVU1031
1380:App/Src/fault_command.c ****             if ((FaultCommand_JsonGetUint(json, key, &value) == 0U) || (value > 0xFFU))
 4889              		.loc 1 1380 19 is_stmt 0 view .LVU1032
 4890 075e 2B46     		mov	r3, r5
 4891 0760 4F4A     		ldr	r2, .L366+56
 4892 0762 0821     		movs	r1, #8
 4893 0764 08A8     		add	r0, sp, #32
 4894 0766 FFF7FEFF 		bl	snprintf
 4895              	.LVL513:
1381:App/Src/fault_command.c ****             {
 4896              		.loc 1 1381 13 is_stmt 1 view .LVU1033
1381:App/Src/fault_command.c ****             {
 4897              		.loc 1 1381 18 is_stmt 0 view .LVU1034
 4898 076a 05AA     		add	r2, sp, #20
 4899 076c 08A9     		add	r1, sp, #32
 4900 076e 2046     		mov	r0, r4
 4901 0770 FFF7FEFF 		bl	FaultCommand_JsonGetUint
 4902              	.LVL514:
1381:App/Src/fault_command.c ****             {
 4903              		.loc 1 1381 16 discriminator 1 view .LVU1035
 4904 0774 58B1     		cbz	r0, .L226
1381:App/Src/fault_command.c ****             {
 4905              		.loc 1 1381 79 discriminator 2 view .LVU1036
 4906 0776 059B     		ldr	r3, [sp, #20]
1381:App/Src/fault_command.c ****             {
 4907              		.loc 1 1381 69 discriminator 2 view .LVU1037
 4908 0778 FF2B     		cmp	r3, #255
 4909 077a 08D8     		bhi	.L226
1386:App/Src/fault_command.c ****           }
 4910              		.loc 1 1386 13 is_stmt 1 view .LVU1038
1386:App/Src/fault_command.c ****           }
 4911              		.loc 1 1386 25 is_stmt 0 view .LVU1039
 4912 077c 05F16002 		add	r2, r5, #96
 4913 0780 6A44     		add	r2, sp, r2
 4914 0782 02F8483C 		strb	r3, [r2, #-72]
 4915              	.LBE51:
1375:App/Src/fault_command.c ****           {
 4916              		.loc 1 1375 57 is_stmt 1 discriminator 2 view .LVU1040
 4917 0786 6B1C     		adds	r3, r5, #1
 4918 0788 DBB2     		uxtb	r3, r3
 4919 078a 1D46     		mov	r5, r3
 4920              	.LVL515:
1375:App/Src/fault_command.c ****           {
 4921              		.loc 1 1375 57 is_stmt 0 discriminator 2 view .LVU1041
 4922 078c E4E7     		b	.L225
 4923              	.LVL516:
 4924              	.L226:
 4925              	.LBB52:
1383:App/Src/fault_command.c ****               break;
 4926              		.loc 1 1383 15 is_stmt 1 view .LVU1042
1384:App/Src/fault_command.c ****             }
 4927              		.loc 1 1384 15 view .LVU1043
1384:App/Src/fault_command.c ****             }
 4928              		.loc 1 1384 15 is_stmt 0 view .LVU1044
ARM GAS  C:\Users\hh\AppData\Local\Temp\ccnvB5Va.s 			page 135


 4929              	.LBE52:
 4930              	.LBE50:
1389:App/Src/fault_command.c ****           {
 4931              		.loc 1 1389 11 is_stmt 1 view .LVU1045
 4932              	.LBB54:
 4933              	.LBB53:
1383:App/Src/fault_command.c ****               break;
 4934              		.loc 1 1383 22 is_stmt 0 view .LVU1046
 4935 078e 0123     		movs	r3, #1
 4936 0790 1C46     		mov	r4, r3
 4937              	.LVL517:
1383:App/Src/fault_command.c ****               break;
 4938              		.loc 1 1383 22 view .LVU1047
 4939 0792 89E4     		b	.L190
 4940              	.LVL518:
 4941              	.L355:
1383:App/Src/fault_command.c ****               break;
 4942              		.loc 1 1383 22 view .LVU1048
 4943              	.LBE53:
 4944              	.LBE54:
1389:App/Src/fault_command.c ****           {
 4945              		.loc 1 1389 11 is_stmt 1 view .LVU1049
1391:App/Src/fault_command.c ****           }
 4946              		.loc 1 1391 13 view .LVU1050
1391:App/Src/fault_command.c ****           }
 4947              		.loc 1 1391 22 is_stmt 0 view .LVU1051
 4948 0794 0398     		ldr	r0, [sp, #12]
 4949 0796 4246     		mov	r2, r8
 4950 0798 32B1     		cbz	r2, .L287
 4951              	.LVL519:
1391:App/Src/fault_command.c ****           }
 4952              		.loc 1 1391 22 discriminator 1 view .LVU1052
 4953 079a 0121     		movs	r1, #1
 4954              	.L229:
1391:App/Src/fault_command.c ****           }
 4955              		.loc 1 1391 22 discriminator 4 view .LVU1053
 4956 079c DBB2     		uxtb	r3, r3
 4957 079e 06AA     		add	r2, sp, #24
 4958              	.LVL520:
1391:App/Src/fault_command.c ****           }
 4959              		.loc 1 1391 22 discriminator 4 view .LVU1054
 4960 07a0 FFF7FEFF 		bl	BspCan_SendClassic
 4961              	.LVL521:
 4962 07a4 0446     		mov	r4, r0
 4963              	.LVL522:
1391:App/Src/fault_command.c ****           }
 4964              		.loc 1 1391 22 discriminator 4 view .LVU1055
 4965 07a6 7FE4     		b	.L190
 4966              	.LVL523:
 4967              	.L287:
1391:App/Src/fault_command.c ****           }
 4968              		.loc 1 1391 22 discriminator 2 view .LVU1056
 4969 07a8 4146     		mov	r1, r8
 4970 07aa F7E7     		b	.L229
 4971              	.LVL524:
 4972              	.L285:
1391:App/Src/fault_command.c ****           }
ARM GAS  C:\Users\hh\AppData\Local\Temp\ccnvB5Va.s 			page 136


 4973              		.loc 1 1391 22 discriminator 2 view .LVU1057
 4974              	.LBE56:
 4975              	.LBE59:
1098:App/Src/fault_command.c **** 
 4976              		.loc 1 1098 21 view .LVU1058
 4977 07ac 0123     		movs	r3, #1
 4978 07ae 1C46     		mov	r4, r3
 4979              	.LVL525:
1098:App/Src/fault_command.c **** 
 4980              		.loc 1 1098 21 view .LVU1059
 4981 07b0 7AE4     		b	.L190
 4982              	.LVL526:
 4983              	.L282:
1098:App/Src/fault_command.c **** 
 4984              		.loc 1 1098 21 view .LVU1060
 4985 07b2 0123     		movs	r3, #1
 4986 07b4 1C46     		mov	r4, r3
 4987              	.LVL527:
1098:App/Src/fault_command.c **** 
 4988              		.loc 1 1098 21 view .LVU1061
 4989 07b6 77E4     		b	.L190
 4990              	.LVL528:
 4991              	.L309:
 4992              	.LBB60:
1399:App/Src/fault_command.c **** 
 4993              		.loc 1 1399 5 is_stmt 1 view .LVU1062
1401:App/Src/fault_command.c ****     {
 4994              		.loc 1 1401 5 view .LVU1063
1401:App/Src/fault_command.c ****     {
 4995              		.loc 1 1401 9 is_stmt 0 view .LVU1064
 4996 07b8 1023     		movs	r3, #16
 4997 07ba 0AAA     		add	r2, sp, #40
 4998 07bc 3249     		ldr	r1, .L366+32
 4999 07be 2046     		mov	r0, r4
 5000 07c0 FFF7FEFF 		bl	FaultCommand_JsonGetString
 5001              	.LVL529:
1401:App/Src/fault_command.c ****     {
 5002              		.loc 1 1401 8 discriminator 1 view .LVU1065
 5003 07c4 B0B1     		cbz	r0, .L288
1403:App/Src/fault_command.c ****       {
 5004              		.loc 1 1403 7 is_stmt 1 view .LVU1066
1403:App/Src/fault_command.c ****       {
 5005              		.loc 1 1403 11 is_stmt 0 view .LVU1067
 5006 07c6 3149     		ldr	r1, .L366+36
 5007 07c8 0AA8     		add	r0, sp, #40
 5008 07ca FFF7FEFF 		bl	strcmp
 5009              	.LVL530:
1403:App/Src/fault_command.c ****       {
 5010              		.loc 1 1403 10 discriminator 1 view .LVU1068
 5011 07ce 38B1     		cbz	r0, .L356
1408:App/Src/fault_command.c ****       {
 5012              		.loc 1 1408 12 is_stmt 1 view .LVU1069
1408:App/Src/fault_command.c ****       {
 5013              		.loc 1 1408 16 is_stmt 0 view .LVU1070
 5014 07d0 3449     		ldr	r1, .L366+60
 5015 07d2 0AA8     		add	r0, sp, #40
 5016 07d4 FFF7FEFF 		bl	strcmp
ARM GAS  C:\Users\hh\AppData\Local\Temp\ccnvB5Va.s 			page 137


 5017              	.LVL531:
1408:App/Src/fault_command.c ****       {
 5018              		.loc 1 1408 15 discriminator 1 view .LVU1071
 5019 07d8 38B1     		cbz	r0, .L357
 5020              	.LBE60:
1098:App/Src/fault_command.c **** 
 5021              		.loc 1 1098 21 view .LVU1072
 5022 07da 0123     		movs	r3, #1
 5023 07dc 1C46     		mov	r4, r3
 5024              	.LVL532:
1098:App/Src/fault_command.c **** 
 5025              		.loc 1 1098 21 view .LVU1073
 5026 07de 63E4     		b	.L190
 5027              	.LVL533:
 5028              	.L356:
 5029              	.LBB61:
1405:App/Src/fault_command.c ****         return;
 5030              		.loc 1 1405 9 is_stmt 1 view .LVU1074
 5031 07e0 3946     		mov	r1, r7
 5032 07e2 3046     		mov	r0, r6
 5033 07e4 FFF7FEFF 		bl	FaultCommand_WriteJsonBmsResponseLog
 5034              	.LVL534:
1406:App/Src/fault_command.c ****       }
 5035              		.loc 1 1406 9 view .LVU1075
 5036 07e8 64E4     		b	.L184
 5037              	.L357:
1410:App/Src/fault_command.c ****         status = HAL_OK;
 5038              		.loc 1 1410 9 view .LVU1076
 5039 07ea FFF7FEFF 		bl	BmsResponseLog_Clear
 5040              	.LVL535:
1411:App/Src/fault_command.c ****       }
 5041              		.loc 1 1411 9 view .LVU1077
1411:App/Src/fault_command.c ****       }
 5042              		.loc 1 1411 16 is_stmt 0 view .LVU1078
 5043 07ee 0023     		movs	r3, #0
 5044 07f0 1C46     		mov	r4, r3
 5045              	.LVL536:
1411:App/Src/fault_command.c ****       }
 5046              		.loc 1 1411 16 view .LVU1079
 5047 07f2 59E4     		b	.L190
 5048              	.LVL537:
 5049              	.L288:
1411:App/Src/fault_command.c ****       }
 5050              		.loc 1 1411 16 view .LVU1080
 5051              	.LBE61:
1098:App/Src/fault_command.c **** 
 5052              		.loc 1 1098 21 view .LVU1081
 5053 07f4 0123     		movs	r3, #1
 5054 07f6 1C46     		mov	r4, r3
 5055              	.LVL538:
1098:App/Src/fault_command.c **** 
 5056              		.loc 1 1098 21 view .LVU1082
 5057 07f8 56E4     		b	.L190
 5058              	.LVL539:
 5059              	.L310:
 5060              	.LBB62:
1417:App/Src/fault_command.c **** 
ARM GAS  C:\Users\hh\AppData\Local\Temp\ccnvB5Va.s 			page 138


 5061              		.loc 1 1417 5 is_stmt 1 view .LVU1083
1419:App/Src/fault_command.c ****     {
 5062              		.loc 1 1419 5 view .LVU1084
1419:App/Src/fault_command.c ****     {
 5063              		.loc 1 1419 9 is_stmt 0 view .LVU1085
 5064 07fa 1023     		movs	r3, #16
 5065 07fc 0AAA     		add	r2, sp, #40
 5066 07fe 2249     		ldr	r1, .L366+32
 5067 0800 2046     		mov	r0, r4
 5068 0802 FFF7FEFF 		bl	FaultCommand_JsonGetString
 5069              	.LVL540:
1419:App/Src/fault_command.c ****     {
 5070              		.loc 1 1419 8 discriminator 1 view .LVU1086
 5071 0806 60B3     		cbz	r0, .L290
1421:App/Src/fault_command.c ****       {
 5072              		.loc 1 1421 7 is_stmt 1 view .LVU1087
1421:App/Src/fault_command.c ****       {
 5073              		.loc 1 1421 11 is_stmt 0 view .LVU1088
 5074 0808 2049     		ldr	r1, .L366+36
 5075 080a 0AA8     		add	r0, sp, #40
 5076 080c FFF7FEFF 		bl	strcmp
 5077              	.LVL541:
1421:App/Src/fault_command.c ****       {
 5078              		.loc 1 1421 10 discriminator 1 view .LVU1089
 5079 0810 A8B1     		cbz	r0, .L358
1426:App/Src/fault_command.c ****       {
 5080              		.loc 1 1426 12 is_stmt 1 view .LVU1090
1426:App/Src/fault_command.c ****       {
 5081              		.loc 1 1426 17 is_stmt 0 view .LVU1091
 5082 0812 2549     		ldr	r1, .L366+64
 5083 0814 0AA8     		add	r0, sp, #40
 5084 0816 FFF7FEFF 		bl	strcmp
 5085              	.LVL542:
1426:App/Src/fault_command.c ****       {
 5086              		.loc 1 1426 15 discriminator 1 view .LVU1092
 5087 081a 20B1     		cbz	r0, .L236
1426:App/Src/fault_command.c ****       {
 5088              		.loc 1 1426 50 discriminator 2 view .LVU1093
 5089 081c 2349     		ldr	r1, .L366+68
 5090 081e 0AA8     		add	r0, sp, #40
 5091 0820 FFF7FEFF 		bl	strcmp
 5092              	.LVL543:
1426:App/Src/fault_command.c ****       {
 5093              		.loc 1 1426 46 discriminator 3 view .LVU1094
 5094 0824 80B9     		cbnz	r0, .L237
 5095              	.L236:
1428:App/Src/fault_command.c ****         status = DacSafety_EmergencyStop((uint16_t)mv);
 5096              		.loc 1 1428 9 is_stmt 1 view .LVU1095
1428:App/Src/fault_command.c ****         status = DacSafety_EmergencyStop((uint16_t)mv);
 5097              		.loc 1 1428 14 is_stmt 0 view .LVU1096
 5098 0826 4FF44862 		mov	r2, #3200
 5099 082a 1349     		ldr	r1, .L366+16
 5100 082c 2046     		mov	r0, r4
 5101 082e FFF7FEFF 		bl	FaultCommand_JsonGetUintDefault
 5102              	.LVL544:
1428:App/Src/fault_command.c ****         status = DacSafety_EmergencyStop((uint16_t)mv);
 5103              		.loc 1 1428 12 discriminator 1 view .LVU1097
ARM GAS  C:\Users\hh\AppData\Local\Temp\ccnvB5Va.s 			page 139


 5104 0832 0E90     		str	r0, [sp, #56]
1429:App/Src/fault_command.c ****       }
 5105              		.loc 1 1429 9 is_stmt 1 view .LVU1098
1429:App/Src/fault_command.c ****       }
 5106              		.loc 1 1429 18 is_stmt 0 view .LVU1099
 5107 0834 80B2     		uxth	r0, r0
 5108 0836 FFF7FEFF 		bl	DacSafety_EmergencyStop
 5109              	.LVL545:
 5110 083a 0446     		mov	r4, r0
 5111              	.LVL546:
1429:App/Src/fault_command.c ****       }
 5112              		.loc 1 1429 16 view .LVU1100
 5113 083c 34E4     		b	.L190
 5114              	.LVL547:
 5115              	.L358:
1423:App/Src/fault_command.c ****         return;
 5116              		.loc 1 1423 9 is_stmt 1 view .LVU1101
 5117 083e 3946     		mov	r1, r7
 5118 0840 3046     		mov	r0, r6
 5119 0842 FFF7FEFF 		bl	FaultCommand_WriteJsonSafetyStatus
 5120              	.LVL548:
1424:App/Src/fault_command.c ****       }
 5121              		.loc 1 1424 9 view .LVU1102
 5122 0846 35E4     		b	.L184
 5123              	.L237:
1431:App/Src/fault_command.c ****       {
 5124              		.loc 1 1431 12 view .LVU1103
1431:App/Src/fault_command.c ****       {
 5125              		.loc 1 1431 16 is_stmt 0 view .LVU1104
 5126 0848 1949     		ldr	r1, .L366+72
 5127 084a 0AA8     		add	r0, sp, #40
 5128 084c FFF7FEFF 		bl	strcmp
 5129              	.LVL549:
1431:App/Src/fault_command.c ****       {
 5130              		.loc 1 1431 15 discriminator 1 view .LVU1105
 5131 0850 10B1     		cbz	r0, .L359
 5132              	.LBE62:
1098:App/Src/fault_command.c **** 
 5133              		.loc 1 1098 21 view .LVU1106
 5134 0852 0123     		movs	r3, #1
 5135 0854 1C46     		mov	r4, r3
 5136              	.LVL550:
1098:App/Src/fault_command.c **** 
 5137              		.loc 1 1098 21 view .LVU1107
 5138 0856 27E4     		b	.L190
 5139              	.LVL551:
 5140              	.L359:
 5141              	.LBB63:
1433:App/Src/fault_command.c ****         status = HAL_OK;
 5142              		.loc 1 1433 9 is_stmt 1 view .LVU1108
 5143 0858 FFF7FEFF 		bl	DacSafety_Release
 5144              	.LVL552:
1434:App/Src/fault_command.c ****       }
 5145              		.loc 1 1434 9 view .LVU1109
1434:App/Src/fault_command.c ****       }
 5146              		.loc 1 1434 16 is_stmt 0 view .LVU1110
 5147 085c 0023     		movs	r3, #0
ARM GAS  C:\Users\hh\AppData\Local\Temp\ccnvB5Va.s 			page 140


 5148 085e 1C46     		mov	r4, r3
 5149              	.LVL553:
1434:App/Src/fault_command.c ****       }
 5150              		.loc 1 1434 16 view .LVU1111
 5151 0860 22E4     		b	.L190
 5152              	.LVL554:
 5153              	.L290:
1434:App/Src/fault_command.c ****       }
 5154              		.loc 1 1434 16 view .LVU1112
 5155              	.LBE63:
1098:App/Src/fault_command.c **** 
 5156              		.loc 1 1098 21 view .LVU1113
 5157 0862 0123     		movs	r3, #1
 5158 0864 1C46     		mov	r4, r3
 5159              	.LVL555:
1098:App/Src/fault_command.c **** 
 5160              		.loc 1 1098 21 view .LVU1114
 5161 0866 1FE4     		b	.L190
 5162              	.L367:
 5163              		.align	2
 5164              	.L366:
 5165 0868 D4000000 		.word	.LC78
 5166 086c 58010000 		.word	.LC91
 5167 0870 30020000 		.word	.LC109
 5168 0874 38020000 		.word	.LC110
 5169 0878 CC000000 		.word	.LC76
 5170 087c 48010000 		.word	.LC89
 5171 0880 34010000 		.word	.LC87
 5172 0884 70010000 		.word	.LC94
 5173 0888 BC010000 		.word	.LC101
 5174 088c 2C000000 		.word	.LC72
 5175 0890 44020000 		.word	.LC112
 5176 0894 4C020000 		.word	.LC113
 5177 0898 50020000 		.word	.LC114
 5178 089c 54020000 		.word	.LC115
 5179 08a0 60020000 		.word	.LC116
 5180 08a4 20020000 		.word	.LC107
 5181 08a8 60010000 		.word	.LC92
 5182 08ac 70020000 		.word	.LC119
 5183 08b0 80020000 		.word	.LC120
 5184              	.LVL556:
 5185              	.L311:
 5186              	.LBB64:
1440:App/Src/fault_command.c **** 
 5187              		.loc 1 1440 5 is_stmt 1 view .LVU1115
1442:App/Src/fault_command.c ****     {
 5188              		.loc 1 1442 5 view .LVU1116
1442:App/Src/fault_command.c ****     {
 5189              		.loc 1 1442 9 is_stmt 0 view .LVU1117
 5190 08b4 1023     		movs	r3, #16
 5191 08b6 0AAA     		add	r2, sp, #40
 5192 08b8 2549     		ldr	r1, .L368
 5193 08ba 2046     		mov	r0, r4
 5194 08bc FFF7FEFF 		bl	FaultCommand_JsonGetString
 5195              	.LVL557:
1442:App/Src/fault_command.c ****     {
 5196              		.loc 1 1442 8 discriminator 1 view .LVU1118
ARM GAS  C:\Users\hh\AppData\Local\Temp\ccnvB5Va.s 			page 141


 5197 08c0 48B1     		cbz	r0, .L239
1444:App/Src/fault_command.c ****       {
 5198              		.loc 1 1444 7 is_stmt 1 view .LVU1119
1444:App/Src/fault_command.c ****       {
 5199              		.loc 1 1444 11 is_stmt 0 view .LVU1120
 5200 08c2 2449     		ldr	r1, .L368+4
 5201 08c4 0AA8     		add	r0, sp, #40
 5202 08c6 FFF7FEFF 		bl	strcmp
 5203              	.LVL558:
1444:App/Src/fault_command.c ****       {
 5204              		.loc 1 1444 10 discriminator 1 view .LVU1121
 5205 08ca 40B1     		cbz	r0, .L360
1449:App/Src/fault_command.c ****       {
 5206              		.loc 1 1449 12 is_stmt 1 view .LVU1122
1449:App/Src/fault_command.c ****       {
 5207              		.loc 1 1449 16 is_stmt 0 view .LVU1123
 5208 08cc 2249     		ldr	r1, .L368+8
 5209 08ce 0AA8     		add	r0, sp, #40
 5210 08d0 FFF7FEFF 		bl	strcmp
 5211              	.LVL559:
1449:App/Src/fault_command.c ****       {
 5212              		.loc 1 1449 15 discriminator 1 view .LVU1124
 5213 08d4 50B1     		cbz	r0, .L361
 5214              	.L239:
 5215              	.LBE64:
1098:App/Src/fault_command.c **** 
 5216              		.loc 1 1098 21 view .LVU1125
 5217 08d6 0123     		movs	r3, #1
 5218 08d8 1C46     		mov	r4, r3
 5219              	.LVL560:
1098:App/Src/fault_command.c **** 
 5220              		.loc 1 1098 21 view .LVU1126
 5221 08da FFF7E5BB 		b	.L190
 5222              	.LVL561:
 5223              	.L360:
 5224              	.LBB66:
1446:App/Src/fault_command.c ****         return;
 5225              		.loc 1 1446 9 is_stmt 1 view .LVU1127
 5226 08de 0246     		mov	r2, r0
 5227 08e0 3946     		mov	r1, r7
 5228 08e2 3046     		mov	r0, r6
 5229 08e4 FFF7FEFF 		bl	FaultCommand_WriteJsonSramStatus
 5230              	.LVL562:
1447:App/Src/fault_command.c ****       }
 5231              		.loc 1 1447 9 view .LVU1128
 5232 08e8 FFF7E4BB 		b	.L184
 5233              	.L361:
 5234              	.LBB65:
1451:App/Src/fault_command.c ****                                                          "bytes",
 5235              		.loc 1 1451 9 view .LVU1129
1451:App/Src/fault_command.c ****                                                          "bytes",
 5236              		.loc 1 1451 26 is_stmt 0 view .LVU1130
 5237 08ec 4FF48032 		mov	r2, #65536
 5238 08f0 1A49     		ldr	r1, .L368+12
 5239 08f2 2046     		mov	r0, r4
 5240 08f4 FFF7FEFF 		bl	FaultCommand_JsonGetUintDefault
 5241              	.LVL563:
ARM GAS  C:\Users\hh\AppData\Local\Temp\ccnvB5Va.s 			page 142


1454:App/Src/fault_command.c ****         FaultCommand_WriteJsonSramStatus(write, context, status);
 5242              		.loc 1 1454 9 is_stmt 1 view .LVU1131
1454:App/Src/fault_command.c ****         FaultCommand_WriteJsonSramStatus(write, context, status);
 5243              		.loc 1 1454 18 is_stmt 0 view .LVU1132
 5244 08f8 FFF7FEFF 		bl	BspSram_RunSelfTest
 5245              	.LVL564:
1454:App/Src/fault_command.c ****         FaultCommand_WriteJsonSramStatus(write, context, status);
 5246              		.loc 1 1454 18 view .LVU1133
 5247 08fc 0246     		mov	r2, r0
 5248              	.LVL565:
1455:App/Src/fault_command.c ****         return;
 5249              		.loc 1 1455 9 is_stmt 1 view .LVU1134
 5250 08fe 3946     		mov	r1, r7
 5251 0900 3046     		mov	r0, r6
 5252 0902 FFF7FEFF 		bl	FaultCommand_WriteJsonSramStatus
 5253              	.LVL566:
1456:App/Src/fault_command.c ****       }
 5254              		.loc 1 1456 9 view .LVU1135
 5255 0906 FFF7D5BB 		b	.L184
 5256              	.LVL567:
 5257              	.L312:
1456:App/Src/fault_command.c ****       }
 5258              		.loc 1 1456 9 is_stmt 0 view .LVU1136
 5259              	.LBE65:
 5260              	.LBE66:
1468:App/Src/fault_command.c ****       if (FaultCommand_JsonGetUint(json, "cell", &cell) != 0U)
 5261              		.loc 1 1468 7 is_stmt 1 view .LVU1137
 5262 090a FFF7FEFF 		bl	WaveformGen_Stop
 5263              	.LVL568:
1469:App/Src/fault_command.c ****       {
 5264              		.loc 1 1469 7 view .LVU1138
1469:App/Src/fault_command.c ****       {
 5265              		.loc 1 1469 11 is_stmt 0 view .LVU1139
 5266 090e 0FAA     		add	r2, sp, #60
 5267 0910 1349     		ldr	r1, .L368+16
 5268 0912 2046     		mov	r0, r4
 5269 0914 FFF7FEFF 		bl	FaultCommand_JsonGetUint
 5270              	.LVL569:
1469:App/Src/fault_command.c ****       {
 5271              		.loc 1 1469 10 discriminator 1 view .LVU1140
 5272 0918 30B1     		cbz	r0, .L243
1471:App/Src/fault_command.c ****       }
 5273              		.loc 1 1471 9 is_stmt 1 view .LVU1141
1471:App/Src/fault_command.c ****       }
 5274              		.loc 1 1471 18 is_stmt 0 view .LVU1142
 5275 091a 9DF83C00 		ldrb	r0, [sp, #60]	@ zero_extendqisi2
 5276 091e FFF7FEFF 		bl	VoltageSim_ClearCellFault
 5277              	.LVL570:
 5278 0922 0446     		mov	r4, r0
 5279              	.LVL571:
1471:App/Src/fault_command.c ****       }
 5280              		.loc 1 1471 18 view .LVU1143
 5281 0924 FFF7C0BB 		b	.L190
 5282              	.LVL572:
 5283              	.L243:
1475:App/Src/fault_command.c ****       }
 5284              		.loc 1 1475 9 is_stmt 1 view .LVU1144
ARM GAS  C:\Users\hh\AppData\Local\Temp\ccnvB5Va.s 			page 143


1475:App/Src/fault_command.c ****       }
 5285              		.loc 1 1475 18 is_stmt 0 view .LVU1145
 5286 0928 FFF7FEFF 		bl	VoltageSim_ClearAllFaults
 5287              	.LVL573:
 5288 092c 0446     		mov	r4, r0
 5289              	.LVL574:
1475:App/Src/fault_command.c ****       }
 5290              		.loc 1 1475 18 view .LVU1146
 5291 092e FFF7BBBB 		b	.L190
 5292              	.LVL575:
 5293              	.L242:
1481:App/Src/fault_command.c ****     return;
 5294              		.loc 1 1481 5 is_stmt 1 view .LVU1147
 5295 0932 0C4A     		ldr	r2, .L368+20
 5296 0934 3946     		mov	r1, r7
 5297 0936 3046     		mov	r0, r6
 5298 0938 FFF7FEFF 		bl	FaultCommand_Write
 5299              	.LVL576:
1482:App/Src/fault_command.c ****   }
 5300              		.loc 1 1482 5 view .LVU1148
 5301 093c FFF7BABB 		b	.L184
 5302              	.L253:
1098:App/Src/fault_command.c **** 
 5303              		.loc 1 1098 21 is_stmt 0 view .LVU1149
 5304 0940 0123     		movs	r3, #1
 5305 0942 1C46     		mov	r4, r3
 5306              	.LVL577:
1098:App/Src/fault_command.c **** 
 5307              		.loc 1 1098 21 view .LVU1150
 5308 0944 FFF7B0BB 		b	.L190
 5309              	.LVL578:
 5310              	.L275:
1098:App/Src/fault_command.c **** 
 5311              		.loc 1 1098 21 view .LVU1151
 5312 0948 0123     		movs	r3, #1
 5313 094a 1C46     		mov	r4, r3
 5314              	.LVL579:
1098:App/Src/fault_command.c **** 
 5315              		.loc 1 1098 21 view .LVU1152
 5316 094c FFF7ACBB 		b	.L190
 5317              	.L369:
 5318              		.align	2
 5319              	.L368:
 5320 0950 BC010000 		.word	.LC101
 5321 0954 2C000000 		.word	.LC72
 5322 0958 28020000 		.word	.LC108
 5323 095c 90020000 		.word	.LC122
 5324 0960 D4000000 		.word	.LC78
 5325 0964 98020000 		.word	.LC123
 5326              		.cfi_endproc
 5327              	.LFE180:
 5329              		.section	.rodata.FaultCommand_ParseCanSendText.str1.4,"aMS",%progbits,1
 5330              		.align	2
 5331              	.LC124:
 5332 0000 63616E20 		.ascii	"can send %lx %u %n\000"
 5332      73656E64 
 5332      20256C78 
ARM GAS  C:\Users\hh\AppData\Local\Temp\ccnvB5Va.s 			page 144


 5332      20257520 
 5332      256E00
 5333              		.section	.text.FaultCommand_ParseCanSendText,"ax",%progbits
 5334              		.align	1
 5335              		.syntax unified
 5336              		.thumb
 5337              		.thumb_func
 5339              	FaultCommand_ParseCanSendText:
 5340              	.LVL580:
 5341              	.LFB173:
 559:App/Src/fault_command.c ****   unsigned long id;
 5342              		.loc 1 559 1 is_stmt 1 view -0
 5343              		.cfi_startproc
 5344              		@ args = 0, pretend = 0, frame = 24
 5345              		@ frame_needed = 0, uses_anonymous_args = 0
 559:App/Src/fault_command.c ****   unsigned long id;
 5346              		.loc 1 559 1 is_stmt 0 view .LVU1154
 5347 0000 30B5     		push	{r4, r5, lr}
 5348              	.LCFI84:
 5349              		.cfi_def_cfa_offset 12
 5350              		.cfi_offset 4, -12
 5351              		.cfi_offset 5, -8
 5352              		.cfi_offset 14, -4
 5353 0002 89B0     		sub	sp, sp, #36
 5354              	.LCFI85:
 5355              		.cfi_def_cfa_offset 48
 5356 0004 0446     		mov	r4, r0
 560:App/Src/fault_command.c ****   unsigned int length;
 5357              		.loc 1 560 3 is_stmt 1 view .LVU1155
 561:App/Src/fault_command.c ****   int consumed = 0;
 5358              		.loc 1 561 3 view .LVU1156
 562:App/Src/fault_command.c ****   const char *cursor;
 5359              		.loc 1 562 3 view .LVU1157
 562:App/Src/fault_command.c ****   const char *cursor;
 5360              		.loc 1 562 7 is_stmt 0 view .LVU1158
 5361 0006 0023     		movs	r3, #0
 5362 0008 0593     		str	r3, [sp, #20]
 563:App/Src/fault_command.c ****   uint8_t data[BSP_CAN_MAX_DATA_LEN] = {0};
 5363              		.loc 1 563 3 is_stmt 1 view .LVU1159
 564:App/Src/fault_command.c **** 
 5364              		.loc 1 564 3 view .LVU1160
 564:App/Src/fault_command.c **** 
 5365              		.loc 1 564 11 is_stmt 0 view .LVU1161
 5366 000a 0393     		str	r3, [sp, #12]
 5367 000c 0493     		str	r3, [sp, #16]
 566:App/Src/fault_command.c ****   {
 5368              		.loc 1 566 3 is_stmt 1 view .LVU1162
 566:App/Src/fault_command.c ****   {
 5369              		.loc 1 566 7 is_stmt 0 view .LVU1163
 5370 000e 05AB     		add	r3, sp, #20
 5371 0010 0093     		str	r3, [sp]
 5372 0012 06AB     		add	r3, sp, #24
 5373 0014 07AA     		add	r2, sp, #28
 5374 0016 1D49     		ldr	r1, .L381
 5375 0018 FFF7FEFF 		bl	sscanf
 5376              	.LVL581:
 566:App/Src/fault_command.c ****   {
ARM GAS  C:\Users\hh\AppData\Local\Temp\ccnvB5Va.s 			page 145


 5377              		.loc 1 566 6 discriminator 1 view .LVU1164
 5378 001c 0128     		cmp	r0, #1
 5379 001e 2DDD     		ble	.L375
 571:App/Src/fault_command.c ****   {
 5380              		.loc 1 571 3 is_stmt 1 view .LVU1165
 571:App/Src/fault_command.c ****   {
 5381              		.loc 1 571 11 is_stmt 0 view .LVU1166
 5382 0020 079B     		ldr	r3, [sp, #28]
 571:App/Src/fault_command.c ****   {
 5383              		.loc 1 571 6 view .LVU1167
 5384 0022 B3F5006F 		cmp	r3, #2048
 5385 0026 2CD2     		bcs	.L376
 571:App/Src/fault_command.c ****   {
 5386              		.loc 1 571 33 discriminator 1 view .LVU1168
 5387 0028 069B     		ldr	r3, [sp, #24]
 571:App/Src/fault_command.c ****   {
 5388              		.loc 1 571 22 discriminator 1 view .LVU1169
 5389 002a 082B     		cmp	r3, #8
 5390 002c 2BD8     		bhi	.L377
 576:App/Src/fault_command.c ****   for (uint8_t index = 0U; index < length; index++)
 5391              		.loc 1 576 3 is_stmt 1 view .LVU1170
 576:App/Src/fault_command.c ****   for (uint8_t index = 0U; index < length; index++)
 5392              		.loc 1 576 17 is_stmt 0 view .LVU1171
 5393 002e 059B     		ldr	r3, [sp, #20]
 576:App/Src/fault_command.c ****   for (uint8_t index = 0U; index < length; index++)
 5394              		.loc 1 576 10 view .LVU1172
 5395 0030 E018     		adds	r0, r4, r3
 5396              	.LVL582:
 577:App/Src/fault_command.c ****   {
 5397              		.loc 1 577 3 is_stmt 1 view .LVU1173
 5398              	.LBB67:
 577:App/Src/fault_command.c ****   {
 5399              		.loc 1 577 8 view .LVU1174
 577:App/Src/fault_command.c ****   {
 5400              		.loc 1 577 16 is_stmt 0 view .LVU1175
 5401 0032 0024     		movs	r4, #0
 5402              	.LVL583:
 577:App/Src/fault_command.c ****   {
 5403              		.loc 1 577 3 view .LVU1176
 5404 0034 06E0     		b	.L372
 5405              	.LVL584:
 5406              	.L380:
 5407              	.LBB68:
 594:App/Src/fault_command.c ****     cursor = endPtr;
 5408              		.loc 1 594 5 is_stmt 1 view .LVU1177
 594:App/Src/fault_command.c ****     cursor = endPtr;
 5409              		.loc 1 594 17 is_stmt 0 view .LVU1178
 5410 0036 04F12002 		add	r2, r4, #32
 5411 003a 6A44     		add	r2, sp, r2
 5412 003c 02F8143C 		strb	r3, [r2, #-20]
 595:App/Src/fault_command.c ****   }
 5413              		.loc 1 595 5 is_stmt 1 view .LVU1179
 5414              	.LVL585:
 595:App/Src/fault_command.c ****   }
 5415              		.loc 1 595 5 is_stmt 0 view .LVU1180
 5416              	.LBE68:
 577:App/Src/fault_command.c ****   {
ARM GAS  C:\Users\hh\AppData\Local\Temp\ccnvB5Va.s 			page 146


 5417              		.loc 1 577 49 is_stmt 1 discriminator 2 view .LVU1181
 5418 0040 0134     		adds	r4, r4, #1
 5419              	.LVL586:
 577:App/Src/fault_command.c ****   {
 5420              		.loc 1 577 49 is_stmt 0 discriminator 2 view .LVU1182
 5421 0042 E4B2     		uxtb	r4, r4
 5422              	.LVL587:
 5423              	.L372:
 577:App/Src/fault_command.c ****   {
 5424              		.loc 1 577 34 is_stmt 1 discriminator 1 view .LVU1183
 5425 0044 069B     		ldr	r3, [sp, #24]
 5426 0046 9C42     		cmp	r4, r3
 5427 0048 11D2     		bcs	.L379
 5428              	.LBB69:
 579:App/Src/fault_command.c ****     unsigned long value;
 5429              		.loc 1 579 5 view .LVU1184
 580:App/Src/fault_command.c **** 
 5430              		.loc 1 580 5 view .LVU1185
 582:App/Src/fault_command.c ****     if ((cursor == NULL) || (*cursor == '\0'))
 5431              		.loc 1 582 5 view .LVU1186
 582:App/Src/fault_command.c ****     if ((cursor == NULL) || (*cursor == '\0'))
 5432              		.loc 1 582 14 is_stmt 0 view .LVU1187
 5433 004a FFF7FEFF 		bl	FaultCommand_SkipSpaces
 5434              	.LVL588:
 583:App/Src/fault_command.c ****     {
 5435              		.loc 1 583 5 is_stmt 1 view .LVU1188
 583:App/Src/fault_command.c ****     {
 5436              		.loc 1 583 8 is_stmt 0 view .LVU1189
 5437 004e 0546     		mov	r5, r0
 5438 0050 58B1     		cbz	r0, .L373
 583:App/Src/fault_command.c ****     {
 5439              		.loc 1 583 30 discriminator 1 view .LVU1190
 5440 0052 0378     		ldrb	r3, [r0]	@ zero_extendqisi2
 583:App/Src/fault_command.c ****     {
 5441              		.loc 1 583 26 discriminator 1 view .LVU1191
 5442 0054 4BB1     		cbz	r3, .L373
 588:App/Src/fault_command.c ****     if ((endPtr == cursor) || (value > 0xFFUL))
 5443              		.loc 1 588 5 is_stmt 1 view .LVU1192
 588:App/Src/fault_command.c ****     if ((endPtr == cursor) || (value > 0xFFUL))
 5444              		.loc 1 588 13 is_stmt 0 view .LVU1193
 5445 0056 1022     		movs	r2, #16
 5446 0058 02A9     		add	r1, sp, #8
 5447 005a FFF7FEFF 		bl	strtoul
 5448              	.LVL589:
 588:App/Src/fault_command.c ****     if ((endPtr == cursor) || (value > 0xFFUL))
 5449              		.loc 1 588 13 view .LVU1194
 5450 005e 0346     		mov	r3, r0
 5451              	.LVL590:
 589:App/Src/fault_command.c ****     {
 5452              		.loc 1 589 5 is_stmt 1 view .LVU1195
 589:App/Src/fault_command.c ****     {
 5453              		.loc 1 589 17 is_stmt 0 view .LVU1196
 5454 0060 0298     		ldr	r0, [sp, #8]
 5455              	.LVL591:
 589:App/Src/fault_command.c ****     {
 5456              		.loc 1 589 8 view .LVU1197
 5457 0062 A842     		cmp	r0, r5
ARM GAS  C:\Users\hh\AppData\Local\Temp\ccnvB5Va.s 			page 147


 5458 0064 01D0     		beq	.L373
 589:App/Src/fault_command.c ****     {
 5459              		.loc 1 589 28 discriminator 1 view .LVU1198
 5460 0066 FF2B     		cmp	r3, #255
 5461 0068 E5D9     		bls	.L380
 5462              	.LVL592:
 5463              	.L373:
 585:App/Src/fault_command.c ****     }
 5464              		.loc 1 585 14 discriminator 1 view .LVU1199
 5465 006a 0120     		movs	r0, #1
 5466 006c 07E0     		b	.L371
 5467              	.LVL593:
 5468              	.L379:
 585:App/Src/fault_command.c ****     }
 5469              		.loc 1 585 14 discriminator 1 view .LVU1200
 5470              	.LBE69:
 5471              	.LBE67:
 598:App/Src/fault_command.c **** }
 5472              		.loc 1 598 3 is_stmt 1 view .LVU1201
 598:App/Src/fault_command.c **** }
 5473              		.loc 1 598 10 is_stmt 0 view .LVU1202
 5474 006e DBB2     		uxtb	r3, r3
 5475 0070 03AA     		add	r2, sp, #12
 5476 0072 0021     		movs	r1, #0
 5477 0074 0798     		ldr	r0, [sp, #28]
 5478              	.LVL594:
 598:App/Src/fault_command.c **** }
 5479              		.loc 1 598 10 view .LVU1203
 5480 0076 FFF7FEFF 		bl	BspCan_SendClassic
 5481              	.LVL595:
 5482 007a 00E0     		b	.L371
 5483              	.LVL596:
 5484              	.L375:
 568:App/Src/fault_command.c ****   }
 5485              		.loc 1 568 12 view .LVU1204
 5486 007c 0120     		movs	r0, #1
 5487              	.LVL597:
 5488              	.L371:
 599:App/Src/fault_command.c **** 
 5489              		.loc 1 599 1 view .LVU1205
 5490 007e 09B0     		add	sp, sp, #36
 5491              	.LCFI86:
 5492              		.cfi_remember_state
 5493              		.cfi_def_cfa_offset 12
 5494              		@ sp needed
 5495 0080 30BD     		pop	{r4, r5, pc}
 5496              	.LVL598:
 5497              	.L376:
 5498              	.LCFI87:
 5499              		.cfi_restore_state
 573:App/Src/fault_command.c ****   }
 5500              		.loc 1 573 12 view .LVU1206
 5501 0082 0120     		movs	r0, #1
 5502 0084 FBE7     		b	.L371
 5503              	.L377:
 5504 0086 0120     		movs	r0, #1
 5505 0088 F9E7     		b	.L371
ARM GAS  C:\Users\hh\AppData\Local\Temp\ccnvB5Va.s 			page 148


 5506              	.L382:
 5507 008a 00BF     		.align	2
 5508              	.L381:
 5509 008c 00000000 		.word	.LC124
 5510              		.cfi_endproc
 5511              	.LFE173:
 5513              		.section	.rodata.FaultCommand_ExecuteText.str1.4,"aMS",%progbits,1
 5514              		.align	2
 5515              	.LC125:
 5516 0000 3F00     		.ascii	"?\000"
 5517 0002 0000     		.align	2
 5518              	.LC126:
 5519 0004 6E6F726D 		.ascii	"normal %u\000"
 5519      616C2025 
 5519      7500
 5520 000e 0000     		.align	2
 5521              	.LC127:
 5522 0010 73657420 		.ascii	"set %u %u\000"
 5522      25752025 
 5522      7500
 5523 001a 0000     		.align	2
 5524              	.LC128:
 5525 001c 6F762000 		.ascii	"ov \000"
 5526              		.align	2
 5527              	.LC129:
 5528 0020 6F762025 		.ascii	"ov %u %u %lu %u\000"
 5528      75202575 
 5528      20256C75 
 5528      20257500 
 5529              		.align	2
 5530              	.LC130:
 5531 0030 75762000 		.ascii	"uv \000"
 5532              		.align	2
 5533              	.LC131:
 5534 0034 75762025 		.ascii	"uv %u %u %lu %u\000"
 5534      75202575 
 5534      20256C75 
 5534      20257500 
 5535              		.align	2
 5536              	.LC132:
 5537 0044 64696666 		.ascii	"diff \000"
 5537      2000
 5538 004a 0000     		.align	2
 5539              	.LC133:
 5540 004c 64696666 		.ascii	"diff %u %u %u %u %lu %u\000"
 5540      20257520 
 5540      25752025 
 5540      75202575 
 5540      20256C75 
 5541              		.align	2
 5542              	.LC134:
 5543 0064 77617665 		.ascii	"wave status\000"
 5543      20737461 
 5543      74757300 
 5544              		.align	2
 5545              	.LC135:
 5546 0070 77617665 		.ascii	"wave stop\000"
ARM GAS  C:\Users\hh\AppData\Local\Temp\ccnvB5Va.s 			page 149


 5546      2073746F 
 5546      7000
 5547 007a 0000     		.align	2
 5548              	.LC136:
 5549 007c 77617665 		.ascii	"wave square \000"
 5549      20737175 
 5549      61726520 
 5549      00
 5550 0089 000000   		.align	2
 5551              	.LC137:
 5552 008c 77617665 		.ascii	"wave square %u %u %u %lu\000"
 5552      20737175 
 5552      61726520 
 5552      25752025 
 5552      75202575 
 5553 00a5 000000   		.align	2
 5554              	.LC138:
 5555 00a8 77617665 		.ascii	"wave sine all \000"
 5555      2073696E 
 5555      6520616C 
 5555      6C2000
 5556 00b7 00       		.align	2
 5557              	.LC139:
 5558 00b8 77617665 		.ascii	"wave sine all %u %u %lu\000"
 5558      2073696E 
 5558      6520616C 
 5558      6C202575 
 5558      20257520 
 5559              		.align	2
 5560              	.LC140:
 5561 00d0 77617665 		.ascii	"wave sine \000"
 5561      2073696E 
 5561      652000
 5562 00db 00       		.align	2
 5563              	.LC141:
 5564 00dc 77617665 		.ascii	"wave sine %u %u %u %lu\000"
 5564      2073696E 
 5564      65202575 
 5564      20257520 
 5564      25752025 
 5565 00f3 00       		.align	2
 5566              	.LC142:
 5567 00f4 63616C20 		.ascii	"cal status\000"
 5567      73746174 
 5567      757300
 5568 00ff 00       		.align	2
 5569              	.LC143:
 5570 0100 63616C20 		.ascii	"cal set \000"
 5570      73657420 
 5570      00
 5571 0109 000000   		.align	2
 5572              	.LC144:
 5573 010c 63616C20 		.ascii	"cal set %u %d\000"
 5573      73657420 
 5573      25752025 
 5573      6400
 5574 011a 0000     		.align	2
ARM GAS  C:\Users\hh\AppData\Local\Temp\ccnvB5Va.s 			page 150


 5575              	.LC145:
 5576 011c 63616C20 		.ascii	"cal trim \000"
 5576      7472696D 
 5576      2000
 5577 0126 0000     		.align	2
 5578              	.LC146:
 5579 0128 63616C20 		.ascii	"cal trim %u %u %u\000"
 5579      7472696D 
 5579      20257520 
 5579      25752025 
 5579      7500
 5580 013a 0000     		.align	2
 5581              	.LC147:
 5582 013c 63616C20 		.ascii	"cal clear\000"
 5582      636C6561 
 5582      7200
 5583 0146 0000     		.align	2
 5584              	.LC148:
 5585 0148 63616C20 		.ascii	"cal clear %u\000"
 5585      636C6561 
 5585      72202575 
 5585      00
 5586 0155 000000   		.align	2
 5587              	.LC149:
 5588 0158 74657374 		.ascii	"test static \000"
 5588      20737461 
 5588      74696320 
 5588      00
 5589 0165 000000   		.align	2
 5590              	.LC150:
 5591 0168 74657374 		.ascii	"test static %u\000"
 5591      20737461 
 5591      74696320 
 5591      257500
 5592 0177 00       		.align	2
 5593              	.LC151:
 5594 0178 74657374 		.ascii	"test slew \000"
 5594      20736C65 
 5594      772000
 5595 0183 00       		.align	2
 5596              	.LC152:
 5597 0184 74657374 		.ascii	"test slew %u %u %u %lu\000"
 5597      20736C65 
 5597      77202575 
 5597      20257520 
 5597      25752025 
 5598 019b 00       		.align	2
 5599              	.LC153:
 5600 019c 63616E20 		.ascii	"can status\000"
 5600      73746174 
 5600      757300
 5601 01a7 00       		.align	2
 5602              	.LC154:
 5603 01a8 63616E20 		.ascii	"can send \000"
 5603      73656E64 
 5603      2000
 5604 01b2 0000     		.align	2
ARM GAS  C:\Users\hh\AppData\Local\Temp\ccnvB5Va.s 			page 151


 5605              	.LC155:
 5606 01b4 6C6F6720 		.ascii	"log status\000"
 5606      73746174 
 5606      757300
 5607 01bf 00       		.align	2
 5608              	.LC156:
 5609 01c0 6C6F6720 		.ascii	"log clear\000"
 5609      636C6561 
 5609      7200
 5610 01ca 0000     		.align	2
 5611              	.LC157:
 5612 01cc 73616665 		.ascii	"safe status\000"
 5612      20737461 
 5612      74757300 
 5613              		.align	2
 5614              	.LC158:
 5615 01d8 73616665 		.ascii	"safe stop\000"
 5615      2073746F 
 5615      7000
 5616 01e2 0000     		.align	2
 5617              	.LC159:
 5618 01e4 656D6572 		.ascii	"emergency stop\000"
 5618      67656E63 
 5618      79207374 
 5618      6F7000
 5619 01f3 00       		.align	2
 5620              	.LC160:
 5621 01f4 73616665 		.ascii	"safe stop %u\000"
 5621      2073746F 
 5621      70202575 
 5621      00
 5622 0201 000000   		.align	2
 5623              	.LC161:
 5624 0204 656D6572 		.ascii	"emergency stop %u\000"
 5624      67656E63 
 5624      79207374 
 5624      6F702025 
 5624      7500
 5625 0216 0000     		.align	2
 5626              	.LC162:
 5627 0218 73616665 		.ascii	"safe release\000"
 5627      2072656C 
 5627      65617365 
 5627      00
 5628 0225 000000   		.align	2
 5629              	.LC163:
 5630 0228 7372616D 		.ascii	"sram status\000"
 5630      20737461 
 5630      74757300 
 5631              		.align	2
 5632              	.LC164:
 5633 0234 7372616D 		.ascii	"sram test\000"
 5633      20746573 
 5633      7400
 5634 023e 0000     		.align	2
 5635              	.LC165:
 5636 0240 7372616D 		.ascii	"sram test %lu\000"
ARM GAS  C:\Users\hh\AppData\Local\Temp\ccnvB5Va.s 			page 152


 5636      20746573 
 5636      7420256C 
 5636      7500
 5637 024e 0000     		.align	2
 5638              	.LC166:
 5639 0250 636C6561 		.ascii	"clear %u\000"
 5639      72202575 
 5639      00
 5640 0259 000000   		.align	2
 5641              	.LC167:
 5642 025c 5B636D64 		.ascii	"[cmd] unknown: %s\015\012\000"
 5642      5D20756E 
 5642      6B6E6F77 
 5642      6E3A2025 
 5642      730D0A00 
 5643              		.section	.text.FaultCommand_ExecuteText,"ax",%progbits
 5644              		.align	1
 5645              		.syntax unified
 5646              		.thumb
 5647              		.thumb_func
 5649              	FaultCommand_ExecuteText:
 5650              	.LVL599:
 5651              	.LFB174:
 602:App/Src/fault_command.c ****   unsigned int cell;
 5652              		.loc 1 602 1 is_stmt 1 view -0
 5653              		.cfi_startproc
 5654              		@ args = 0, pretend = 0, frame = 64
 5655              		@ frame_needed = 0, uses_anonymous_args = 0
 602:App/Src/fault_command.c ****   unsigned int cell;
 5656              		.loc 1 602 1 is_stmt 0 view .LVU1208
 5657 0000 70B5     		push	{r4, r5, r6, lr}
 5658              	.LCFI88:
 5659              		.cfi_def_cfa_offset 16
 5660              		.cfi_offset 4, -16
 5661              		.cfi_offset 5, -12
 5662              		.cfi_offset 6, -8
 5663              		.cfi_offset 14, -4
 5664 0002 94B0     		sub	sp, sp, #80
 5665              	.LCFI89:
 5666              		.cfi_def_cfa_offset 96
 5667 0004 0446     		mov	r4, r0
 5668 0006 0E46     		mov	r6, r1
 5669 0008 1546     		mov	r5, r2
 603:App/Src/fault_command.c ****   unsigned int millivolts;
 5670              		.loc 1 603 3 is_stmt 1 view .LVU1209
 604:App/Src/fault_command.c ****   unsigned int target;
 5671              		.loc 1 604 3 view .LVU1210
 605:App/Src/fault_command.c ****   unsigned long duration;
 5672              		.loc 1 605 3 view .LVU1211
 606:App/Src/fault_command.c ****   unsigned int slew;
 5673              		.loc 1 606 3 view .LVU1212
 607:App/Src/fault_command.c ****   unsigned int lowMv;
 5674              		.loc 1 607 3 view .LVU1213
 608:App/Src/fault_command.c ****   unsigned int highMv;
 5675              		.loc 1 608 3 view .LVU1214
 609:App/Src/fault_command.c ****   unsigned int centerMv;
 5676              		.loc 1 609 3 view .LVU1215
ARM GAS  C:\Users\hh\AppData\Local\Temp\ccnvB5Va.s 			page 153


 610:App/Src/fault_command.c ****   unsigned int amplitudeMv;
 5677              		.loc 1 610 3 view .LVU1216
 611:App/Src/fault_command.c ****   unsigned long periodMs;
 5678              		.loc 1 611 3 view .LVU1217
 612:App/Src/fault_command.c ****   int calOffsetMv;
 5679              		.loc 1 612 3 view .LVU1218
 613:App/Src/fault_command.c ****   unsigned int measuredMv;
 5680              		.loc 1 613 3 view .LVU1219
 614:App/Src/fault_command.c **** 
 5681              		.loc 1 614 3 view .LVU1220
 616:App/Src/fault_command.c ****   {
 5682              		.loc 1 616 3 view .LVU1221
 616:App/Src/fault_command.c ****   {
 5683              		.loc 1 616 8 is_stmt 0 view .LVU1222
 5684 000a AB49     		ldr	r1, .L476
 5685              	.LVL600:
 616:App/Src/fault_command.c ****   {
 5686              		.loc 1 616 8 view .LVU1223
 5687 000c FFF7FEFF 		bl	strcmp
 5688              	.LVL601:
 616:App/Src/fault_command.c ****   {
 5689              		.loc 1 616 6 discriminator 1 view .LVU1224
 5690 0010 20B1     		cbz	r0, .L384
 616:App/Src/fault_command.c ****   {
 5691              		.loc 1 616 39 discriminator 2 view .LVU1225
 5692 0012 AA49     		ldr	r1, .L476+4
 5693 0014 2046     		mov	r0, r4
 5694 0016 FFF7FEFF 		bl	strcmp
 5695              	.LVL602:
 616:App/Src/fault_command.c ****   {
 5696              		.loc 1 616 35 discriminator 3 view .LVU1226
 5697 001a 28B9     		cbnz	r0, .L385
 5698              	.L384:
 618:App/Src/fault_command.c ****   }
 5699              		.loc 1 618 5 is_stmt 1 view .LVU1227
 5700 001c 2946     		mov	r1, r5
 5701 001e 3046     		mov	r0, r6
 5702 0020 FFF7FEFF 		bl	FaultCommand_WriteTextHelp
 5703              	.LVL603:
 5704              	.L383:
 982:App/Src/fault_command.c **** 
 5705              		.loc 1 982 1 is_stmt 0 view .LVU1228
 5706 0024 14B0     		add	sp, sp, #80
 5707              	.LCFI90:
 5708              		.cfi_remember_state
 5709              		.cfi_def_cfa_offset 16
 5710              		@ sp needed
 5711 0026 70BD     		pop	{r4, r5, r6, pc}
 5712              	.LVL604:
 5713              	.L385:
 5714              	.LCFI91:
 5715              		.cfi_restore_state
 620:App/Src/fault_command.c ****   {
 5716              		.loc 1 620 8 is_stmt 1 view .LVU1229
 620:App/Src/fault_command.c ****   {
 5717              		.loc 1 620 12 is_stmt 0 view .LVU1230
 5718 0028 A549     		ldr	r1, .L476+8
ARM GAS  C:\Users\hh\AppData\Local\Temp\ccnvB5Va.s 			page 154


 5719 002a 2046     		mov	r0, r4
 5720 002c FFF7FEFF 		bl	strcmp
 5721              	.LVL605:
 620:App/Src/fault_command.c ****   {
 5722              		.loc 1 620 11 discriminator 1 view .LVU1231
 5723 0030 C0B1     		cbz	r0, .L438
 624:App/Src/fault_command.c ****   {
 5724              		.loc 1 624 8 is_stmt 1 view .LVU1232
 624:App/Src/fault_command.c ****   {
 5725              		.loc 1 624 12 is_stmt 0 view .LVU1233
 5726 0032 0622     		movs	r2, #6
 5727 0034 A349     		ldr	r1, .L476+12
 5728 0036 2046     		mov	r0, r4
 5729 0038 FFF7FEFF 		bl	strncmp
 5730              	.LVL606:
 624:App/Src/fault_command.c ****   {
 5731              		.loc 1 624 11 discriminator 1 view .LVU1234
 5732 003c B8B9     		cbnz	r0, .L388
 626:App/Src/fault_command.c ****     (void)sscanf(line, "normal %u", &millivolts);
 5733              		.loc 1 626 5 is_stmt 1 view .LVU1235
 626:App/Src/fault_command.c ****     (void)sscanf(line, "normal %u", &millivolts);
 5734              		.loc 1 626 16 is_stmt 0 view .LVU1236
 5735 003e 4FF44863 		mov	r3, #3200
 5736 0042 1293     		str	r3, [sp, #72]
 627:App/Src/fault_command.c ****     FaultCommand_WriteTextResult(write,
 5737              		.loc 1 627 5 is_stmt 1 view .LVU1237
 627:App/Src/fault_command.c ****     FaultCommand_WriteTextResult(write,
 5738              		.loc 1 627 11 is_stmt 0 view .LVU1238
 5739 0044 12AA     		add	r2, sp, #72
 5740 0046 A049     		ldr	r1, .L476+16
 5741 0048 2046     		mov	r0, r4
 5742 004a FFF7FEFF 		bl	sscanf
 5743              	.LVL607:
 628:App/Src/fault_command.c ****                                  context,
 5744              		.loc 1 628 5 is_stmt 1 view .LVU1239
 5745 004e BDF84800 		ldrh	r0, [sp, #72]
 5746 0052 FFF7FEFF 		bl	FaultCommand_RunNormal
 5747              	.LVL608:
 5748 0056 0346     		mov	r3, r0
 628:App/Src/fault_command.c ****                                  context,
 5749              		.loc 1 628 5 is_stmt 0 discriminator 1 view .LVU1240
 5750 0058 9A4A     		ldr	r2, .L476+12
 5751 005a 2946     		mov	r1, r5
 5752 005c 3046     		mov	r0, r6
 5753 005e FFF7FEFF 		bl	FaultCommand_WriteTextResult
 5754              	.LVL609:
 5755 0062 DFE7     		b	.L383
 5756              	.L438:
 622:App/Src/fault_command.c ****   }
 5757              		.loc 1 622 5 is_stmt 1 view .LVU1241
 5758 0064 2946     		mov	r1, r5
 5759 0066 3046     		mov	r0, r6
 5760 0068 FFF7FEFF 		bl	FaultCommand_WriteTextStatus
 5761              	.LVL610:
 5762 006c DAE7     		b	.L383
 5763              	.L388:
 633:App/Src/fault_command.c ****   {
ARM GAS  C:\Users\hh\AppData\Local\Temp\ccnvB5Va.s 			page 155


 5764              		.loc 1 633 8 view .LVU1242
 633:App/Src/fault_command.c ****   {
 5765              		.loc 1 633 12 is_stmt 0 view .LVU1243
 5766 006e 12AB     		add	r3, sp, #72
 5767 0070 13AA     		add	r2, sp, #76
 5768 0072 9649     		ldr	r1, .L476+20
 5769 0074 2046     		mov	r0, r4
 5770 0076 FFF7FEFF 		bl	sscanf
 5771              	.LVL611:
 633:App/Src/fault_command.c ****   {
 5772              		.loc 1 633 11 discriminator 1 view .LVU1244
 5773 007a 0228     		cmp	r0, #2
 5774 007c 00F0B780 		beq	.L439
 640:App/Src/fault_command.c ****   {
 5775              		.loc 1 640 8 is_stmt 1 view .LVU1245
 640:App/Src/fault_command.c ****   {
 5776              		.loc 1 640 12 is_stmt 0 view .LVU1246
 5777 0080 0322     		movs	r2, #3
 5778 0082 9349     		ldr	r1, .L476+24
 5779 0084 2046     		mov	r0, r4
 5780 0086 FFF7FEFF 		bl	strncmp
 5781              	.LVL612:
 640:App/Src/fault_command.c ****   {
 5782              		.loc 1 640 11 discriminator 1 view .LVU1247
 5783 008a 0028     		cmp	r0, #0
 5784 008c 00F0BC80 		beq	.L440
 660:App/Src/fault_command.c ****   {
 5785              		.loc 1 660 8 is_stmt 1 view .LVU1248
 660:App/Src/fault_command.c ****   {
 5786              		.loc 1 660 12 is_stmt 0 view .LVU1249
 5787 0090 0322     		movs	r2, #3
 5788 0092 9049     		ldr	r1, .L476+28
 5789 0094 2046     		mov	r0, r4
 5790 0096 FFF7FEFF 		bl	strncmp
 5791              	.LVL613:
 660:App/Src/fault_command.c ****   {
 5792              		.loc 1 660 11 discriminator 1 view .LVU1250
 5793 009a 0028     		cmp	r0, #0
 5794 009c 00F0E080 		beq	.L441
 680:App/Src/fault_command.c ****   {
 5795              		.loc 1 680 8 is_stmt 1 view .LVU1251
 680:App/Src/fault_command.c ****   {
 5796              		.loc 1 680 12 is_stmt 0 view .LVU1252
 5797 00a0 0522     		movs	r2, #5
 5798 00a2 8D49     		ldr	r1, .L476+32
 5799 00a4 2046     		mov	r0, r4
 5800 00a6 FFF7FEFF 		bl	strncmp
 5801              	.LVL614:
 680:App/Src/fault_command.c ****   {
 5802              		.loc 1 680 11 discriminator 1 view .LVU1253
 5803 00aa 0028     		cmp	r0, #0
 5804 00ac 00F04A81 		beq	.L442
 712:App/Src/fault_command.c ****   {
 5805              		.loc 1 712 8 is_stmt 1 view .LVU1254
 712:App/Src/fault_command.c ****   {
 5806              		.loc 1 712 12 is_stmt 0 view .LVU1255
 5807 00b0 8A49     		ldr	r1, .L476+36
ARM GAS  C:\Users\hh\AppData\Local\Temp\ccnvB5Va.s 			page 156


 5808 00b2 2046     		mov	r0, r4
 5809 00b4 FFF7FEFF 		bl	strcmp
 5810              	.LVL615:
 712:App/Src/fault_command.c ****   {
 5811              		.loc 1 712 11 discriminator 1 view .LVU1256
 5812 00b8 0028     		cmp	r0, #0
 5813 00ba 00F07581 		beq	.L443
 716:App/Src/fault_command.c ****   {
 5814              		.loc 1 716 8 is_stmt 1 view .LVU1257
 716:App/Src/fault_command.c ****   {
 5815              		.loc 1 716 12 is_stmt 0 view .LVU1258
 5816 00be 8849     		ldr	r1, .L476+40
 5817 00c0 2046     		mov	r0, r4
 5818 00c2 FFF7FEFF 		bl	strcmp
 5819              	.LVL616:
 716:App/Src/fault_command.c ****   {
 5820              		.loc 1 716 11 discriminator 1 view .LVU1259
 5821 00c6 0028     		cmp	r0, #0
 5822 00c8 00F07381 		beq	.L444
 721:App/Src/fault_command.c ****   {
 5823              		.loc 1 721 8 is_stmt 1 view .LVU1260
 721:App/Src/fault_command.c ****   {
 5824              		.loc 1 721 12 is_stmt 0 view .LVU1261
 5825 00cc 0C22     		movs	r2, #12
 5826 00ce 8549     		ldr	r1, .L476+44
 5827 00d0 2046     		mov	r0, r4
 5828 00d2 FFF7FEFF 		bl	strncmp
 5829              	.LVL617:
 721:App/Src/fault_command.c ****   {
 5830              		.loc 1 721 11 discriminator 1 view .LVU1262
 5831 00d6 0028     		cmp	r0, #0
 5832 00d8 00F07481 		beq	.L445
 748:App/Src/fault_command.c ****   {
 5833              		.loc 1 748 8 is_stmt 1 view .LVU1263
 748:App/Src/fault_command.c ****   {
 5834              		.loc 1 748 12 is_stmt 0 view .LVU1264
 5835 00dc 0E22     		movs	r2, #14
 5836 00de 8249     		ldr	r1, .L476+48
 5837 00e0 2046     		mov	r0, r4
 5838 00e2 FFF7FEFF 		bl	strncmp
 5839              	.LVL618:
 748:App/Src/fault_command.c ****   {
 5840              		.loc 1 748 11 discriminator 1 view .LVU1265
 5841 00e6 0028     		cmp	r0, #0
 5842 00e8 00F09981 		beq	.L446
 773:App/Src/fault_command.c ****   {
 5843              		.loc 1 773 8 is_stmt 1 view .LVU1266
 773:App/Src/fault_command.c ****   {
 5844              		.loc 1 773 12 is_stmt 0 view .LVU1267
 5845 00ec 0A22     		movs	r2, #10
 5846 00ee 7F49     		ldr	r1, .L476+52
 5847 00f0 2046     		mov	r0, r4
 5848 00f2 FFF7FEFF 		bl	strncmp
 5849              	.LVL619:
 773:App/Src/fault_command.c ****   {
 5850              		.loc 1 773 11 discriminator 1 view .LVU1268
 5851 00f6 0028     		cmp	r0, #0
ARM GAS  C:\Users\hh\AppData\Local\Temp\ccnvB5Va.s 			page 157


 5852 00f8 00F0BA81 		beq	.L447
 800:App/Src/fault_command.c ****   {
 5853              		.loc 1 800 8 is_stmt 1 view .LVU1269
 800:App/Src/fault_command.c ****   {
 5854              		.loc 1 800 12 is_stmt 0 view .LVU1270
 5855 00fc 7C49     		ldr	r1, .L476+56
 5856 00fe 2046     		mov	r0, r4
 5857 0100 FFF7FEFF 		bl	strcmp
 5858              	.LVL620:
 800:App/Src/fault_command.c ****   {
 5859              		.loc 1 800 11 discriminator 1 view .LVU1271
 5860 0104 0028     		cmp	r0, #0
 5861 0106 00F0E081 		beq	.L448
 804:App/Src/fault_command.c ****   {
 5862              		.loc 1 804 8 is_stmt 1 view .LVU1272
 804:App/Src/fault_command.c ****   {
 5863              		.loc 1 804 12 is_stmt 0 view .LVU1273
 5864 010a 0822     		movs	r2, #8
 5865 010c 7949     		ldr	r1, .L476+60
 5866 010e 2046     		mov	r0, r4
 5867 0110 FFF7FEFF 		bl	strncmp
 5868              	.LVL621:
 804:App/Src/fault_command.c ****   {
 5869              		.loc 1 804 11 discriminator 1 view .LVU1274
 5870 0114 0028     		cmp	r0, #0
 5871 0116 00F0DD81 		beq	.L449
 824:App/Src/fault_command.c ****   {
 5872              		.loc 1 824 8 is_stmt 1 view .LVU1275
 824:App/Src/fault_command.c ****   {
 5873              		.loc 1 824 12 is_stmt 0 view .LVU1276
 5874 011a 0922     		movs	r2, #9
 5875 011c 7649     		ldr	r1, .L476+64
 5876 011e 2046     		mov	r0, r4
 5877 0120 FFF7FEFF 		bl	strncmp
 5878              	.LVL622:
 824:App/Src/fault_command.c ****   {
 5879              		.loc 1 824 11 discriminator 1 view .LVU1277
 5880 0124 0028     		cmp	r0, #0
 5881 0126 00F0FB81 		beq	.L450
 845:App/Src/fault_command.c ****   {
 5882              		.loc 1 845 8 is_stmt 1 view .LVU1278
 845:App/Src/fault_command.c ****   {
 5883              		.loc 1 845 12 is_stmt 0 view .LVU1279
 5884 012a 0922     		movs	r2, #9
 5885 012c 7349     		ldr	r1, .L476+68
 5886 012e 2046     		mov	r0, r4
 5887 0130 FFF7FEFF 		bl	strncmp
 5888              	.LVL623:
 845:App/Src/fault_command.c ****   {
 5889              		.loc 1 845 11 discriminator 1 view .LVU1280
 5890 0134 0028     		cmp	r0, #0
 5891 0136 00F01D82 		beq	.L451
 866:App/Src/fault_command.c ****   {
 5892              		.loc 1 866 8 is_stmt 1 view .LVU1281
 866:App/Src/fault_command.c ****   {
 5893              		.loc 1 866 12 is_stmt 0 view .LVU1282
 5894 013a 0C22     		movs	r2, #12
ARM GAS  C:\Users\hh\AppData\Local\Temp\ccnvB5Va.s 			page 158


 5895 013c 7049     		ldr	r1, .L476+72
 5896 013e 2046     		mov	r0, r4
 5897 0140 FFF7FEFF 		bl	strncmp
 5898              	.LVL624:
 866:App/Src/fault_command.c ****   {
 5899              		.loc 1 866 11 discriminator 1 view .LVU1283
 5900 0144 0028     		cmp	r0, #0
 5901 0146 00F03A82 		beq	.L452
 879:App/Src/fault_command.c ****   {
 5902              		.loc 1 879 8 is_stmt 1 view .LVU1284
 879:App/Src/fault_command.c ****   {
 5903              		.loc 1 879 12 is_stmt 0 view .LVU1285
 5904 014a 0A22     		movs	r2, #10
 5905 014c 6D49     		ldr	r1, .L476+76
 5906 014e 2046     		mov	r0, r4
 5907 0150 FFF7FEFF 		bl	strncmp
 5908              	.LVL625:
 879:App/Src/fault_command.c ****   {
 5909              		.loc 1 879 11 discriminator 1 view .LVU1286
 5910 0154 0028     		cmp	r0, #0
 5911 0156 00F04B82 		beq	.L453
 906:App/Src/fault_command.c ****   {
 5912              		.loc 1 906 8 is_stmt 1 view .LVU1287
 906:App/Src/fault_command.c ****   {
 5913              		.loc 1 906 12 is_stmt 0 view .LVU1288
 5914 015a 6B49     		ldr	r1, .L476+80
 5915 015c 2046     		mov	r0, r4
 5916 015e FFF7FEFF 		bl	strcmp
 5917              	.LVL626:
 906:App/Src/fault_command.c ****   {
 5918              		.loc 1 906 11 discriminator 1 view .LVU1289
 5919 0162 0028     		cmp	r0, #0
 5920 0164 00F08C82 		beq	.L454
 910:App/Src/fault_command.c ****   {
 5921              		.loc 1 910 8 is_stmt 1 view .LVU1290
 910:App/Src/fault_command.c ****   {
 5922              		.loc 1 910 12 is_stmt 0 view .LVU1291
 5923 0168 0922     		movs	r2, #9
 5924 016a 6849     		ldr	r1, .L476+84
 5925 016c 2046     		mov	r0, r4
 5926 016e FFF7FEFF 		bl	strncmp
 5927              	.LVL627:
 910:App/Src/fault_command.c ****   {
 5928              		.loc 1 910 11 discriminator 1 view .LVU1292
 5929 0172 0028     		cmp	r0, #0
 5930 0174 00F08982 		beq	.L455
 917:App/Src/fault_command.c ****   {
 5931              		.loc 1 917 8 is_stmt 1 view .LVU1293
 917:App/Src/fault_command.c ****   {
 5932              		.loc 1 917 12 is_stmt 0 view .LVU1294
 5933 0178 6549     		ldr	r1, .L476+88
 5934 017a 2046     		mov	r0, r4
 5935 017c FFF7FEFF 		bl	strcmp
 5936              	.LVL628:
 917:App/Src/fault_command.c ****   {
 5937              		.loc 1 917 11 discriminator 1 view .LVU1295
 5938 0180 0028     		cmp	r0, #0
ARM GAS  C:\Users\hh\AppData\Local\Temp\ccnvB5Va.s 			page 159


 5939 0182 00F08C82 		beq	.L456
 921:App/Src/fault_command.c ****   {
 5940              		.loc 1 921 8 is_stmt 1 view .LVU1296
 921:App/Src/fault_command.c ****   {
 5941              		.loc 1 921 12 is_stmt 0 view .LVU1297
 5942 0186 6349     		ldr	r1, .L476+92
 5943 0188 2046     		mov	r0, r4
 5944 018a FFF7FEFF 		bl	strcmp
 5945              	.LVL629:
 921:App/Src/fault_command.c ****   {
 5946              		.loc 1 921 11 discriminator 1 view .LVU1298
 5947 018e 0028     		cmp	r0, #0
 5948 0190 00F08A82 		beq	.L457
 926:App/Src/fault_command.c ****   {
 5949              		.loc 1 926 8 is_stmt 1 view .LVU1299
 926:App/Src/fault_command.c ****   {
 5950              		.loc 1 926 12 is_stmt 0 view .LVU1300
 5951 0194 6049     		ldr	r1, .L476+96
 5952 0196 2046     		mov	r0, r4
 5953 0198 FFF7FEFF 		bl	strcmp
 5954              	.LVL630:
 926:App/Src/fault_command.c ****   {
 5955              		.loc 1 926 11 discriminator 1 view .LVU1301
 5956 019c 0028     		cmp	r0, #0
 5957 019e 00F08C82 		beq	.L458
 930:App/Src/fault_command.c ****            (strncmp(line, "emergency stop", 14U) == 0))
 5958              		.loc 1 930 8 is_stmt 1 view .LVU1302
 930:App/Src/fault_command.c ****            (strncmp(line, "emergency stop", 14U) == 0))
 5959              		.loc 1 930 13 is_stmt 0 view .LVU1303
 5960 01a2 0922     		movs	r2, #9
 5961 01a4 5D49     		ldr	r1, .L476+100
 5962 01a6 2046     		mov	r0, r4
 5963 01a8 FFF7FEFF 		bl	strncmp
 5964              	.LVL631:
 930:App/Src/fault_command.c ****            (strncmp(line, "emergency stop", 14U) == 0))
 5965              		.loc 1 930 11 discriminator 1 view .LVU1304
 5966 01ac 38B1     		cbz	r0, .L428
 931:App/Src/fault_command.c ****   {
 5967              		.loc 1 931 13 view .LVU1305
 5968 01ae 0E22     		movs	r2, #14
 5969 01b0 5B49     		ldr	r1, .L476+104
 5970 01b2 2046     		mov	r0, r4
 5971 01b4 FFF7FEFF 		bl	strncmp
 5972              	.LVL632:
 930:App/Src/fault_command.c ****            (strncmp(line, "emergency stop", 14U) == 0))
 5973              		.loc 1 930 50 discriminator 2 view .LVU1306
 5974 01b8 0028     		cmp	r0, #0
 5975 01ba 40F08382 		bne	.L429
 5976              	.L428:
 933:App/Src/fault_command.c ****     (void)sscanf(line, "safe stop %u", &millivolts);
 5977              		.loc 1 933 5 is_stmt 1 view .LVU1307
 933:App/Src/fault_command.c ****     (void)sscanf(line, "safe stop %u", &millivolts);
 5978              		.loc 1 933 16 is_stmt 0 view .LVU1308
 5979 01be 4FF44863 		mov	r3, #3200
 5980 01c2 1293     		str	r3, [sp, #72]
 934:App/Src/fault_command.c ****     (void)sscanf(line, "emergency stop %u", &millivolts);
 5981              		.loc 1 934 5 is_stmt 1 view .LVU1309
ARM GAS  C:\Users\hh\AppData\Local\Temp\ccnvB5Va.s 			page 160


 934:App/Src/fault_command.c ****     (void)sscanf(line, "emergency stop %u", &millivolts);
 5982              		.loc 1 934 11 is_stmt 0 view .LVU1310
 5983 01c4 12AA     		add	r2, sp, #72
 5984 01c6 5749     		ldr	r1, .L476+108
 5985 01c8 2046     		mov	r0, r4
 5986 01ca FFF7FEFF 		bl	sscanf
 5987              	.LVL633:
 935:App/Src/fault_command.c ****     FaultCommand_WriteTextResult(write,
 5988              		.loc 1 935 5 is_stmt 1 view .LVU1311
 935:App/Src/fault_command.c ****     FaultCommand_WriteTextResult(write,
 5989              		.loc 1 935 11 is_stmt 0 view .LVU1312
 5990 01ce 12AA     		add	r2, sp, #72
 5991 01d0 5549     		ldr	r1, .L476+112
 5992 01d2 2046     		mov	r0, r4
 5993 01d4 FFF7FEFF 		bl	sscanf
 5994              	.LVL634:
 936:App/Src/fault_command.c ****                                  context,
 5995              		.loc 1 936 5 is_stmt 1 view .LVU1313
 5996 01d8 BDF84800 		ldrh	r0, [sp, #72]
 5997 01dc FFF7FEFF 		bl	DacSafety_EmergencyStop
 5998              	.LVL635:
 5999 01e0 0346     		mov	r3, r0
 936:App/Src/fault_command.c ****                                  context,
 6000              		.loc 1 936 5 is_stmt 0 discriminator 1 view .LVU1314
 6001 01e2 524A     		ldr	r2, .L476+116
 6002 01e4 2946     		mov	r1, r5
 6003 01e6 3046     		mov	r0, r6
 6004 01e8 FFF7FEFF 		bl	FaultCommand_WriteTextResult
 6005              	.LVL636:
 936:App/Src/fault_command.c ****                                  context,
 6006              		.loc 1 936 5 view .LVU1315
 6007 01ec 1AE7     		b	.L383
 6008              	.L439:
 635:App/Src/fault_command.c ****                                  context,
 6009              		.loc 1 635 5 is_stmt 1 view .LVU1316
 6010 01ee BDF84810 		ldrh	r1, [sp, #72]
 6011 01f2 9DF84C00 		ldrb	r0, [sp, #76]	@ zero_extendqisi2
 6012 01f6 FFF7FEFF 		bl	FaultCommand_RunSet
 6013              	.LVL637:
 6014 01fa 0346     		mov	r3, r0
 635:App/Src/fault_command.c ****                                  context,
 6015              		.loc 1 635 5 is_stmt 0 discriminator 1 view .LVU1317
 6016 01fc 4C4A     		ldr	r2, .L476+120
 6017 01fe 2946     		mov	r1, r5
 6018 0200 3046     		mov	r0, r6
 6019 0202 FFF7FEFF 		bl	FaultCommand_WriteTextResult
 6020              	.LVL638:
 6021 0206 0DE7     		b	.L383
 6022              	.L440:
 642:App/Src/fault_command.c ****     target = VOLTAGE_SIM_DEFAULT_OV_MV;
 6023              		.loc 1 642 5 is_stmt 1 view .LVU1318
 642:App/Src/fault_command.c ****     target = VOLTAGE_SIM_DEFAULT_OV_MV;
 6024              		.loc 1 642 10 is_stmt 0 view .LVU1319
 6025 0208 1390     		str	r0, [sp, #76]
 643:App/Src/fault_command.c ****     duration = FAULT_COMMAND_DEFAULT_DURATION_MS;
 6026              		.loc 1 643 5 is_stmt 1 view .LVU1320
 643:App/Src/fault_command.c ****     duration = FAULT_COMMAND_DEFAULT_DURATION_MS;
ARM GAS  C:\Users\hh\AppData\Local\Temp\ccnvB5Va.s 			page 161


 6027              		.loc 1 643 12 is_stmt 0 view .LVU1321
 6028 020a 41F29413 		movw	r3, #4500
 6029 020e 1193     		str	r3, [sp, #68]
 644:App/Src/fault_command.c ****     slew = FAULT_COMMAND_DEFAULT_SLEW_MV_PER_MS;
 6030              		.loc 1 644 5 is_stmt 1 view .LVU1322
 644:App/Src/fault_command.c ****     slew = FAULT_COMMAND_DEFAULT_SLEW_MV_PER_MS;
 6031              		.loc 1 644 14 is_stmt 0 view .LVU1323
 6032 0210 6423     		movs	r3, #100
 6033 0212 1093     		str	r3, [sp, #64]
 645:App/Src/fault_command.c ****     if (sscanf(line, "ov %u %u %lu %u", &cell, &target, &duration, &slew) < 1)
 6034              		.loc 1 645 5 is_stmt 1 view .LVU1324
 645:App/Src/fault_command.c ****     if (sscanf(line, "ov %u %u %lu %u", &cell, &target, &duration, &slew) < 1)
 6035              		.loc 1 645 10 is_stmt 0 view .LVU1325
 6036 0214 40F6B833 		movw	r3, #3000
 6037 0218 0F93     		str	r3, [sp, #60]
 646:App/Src/fault_command.c ****     {
 6038              		.loc 1 646 5 is_stmt 1 view .LVU1326
 646:App/Src/fault_command.c ****     {
 6039              		.loc 1 646 9 is_stmt 0 view .LVU1327
 6040 021a 0FAB     		add	r3, sp, #60
 6041 021c 0193     		str	r3, [sp, #4]
 6042 021e 10AB     		add	r3, sp, #64
 6043 0220 0093     		str	r3, [sp]
 6044 0222 11AB     		add	r3, sp, #68
 6045 0224 13AA     		add	r2, sp, #76
 6046 0226 4349     		ldr	r1, .L476+124
 6047 0228 2046     		mov	r0, r4
 6048 022a FFF7FEFF 		bl	sscanf
 6049              	.LVL639:
 646:App/Src/fault_command.c ****     {
 6050              		.loc 1 646 8 discriminator 1 view .LVU1328
 6051 022e 0028     		cmp	r0, #0
 6052 0230 0FDD     		ble	.L459
 652:App/Src/fault_command.c ****                                  context,
 6053              		.loc 1 652 5 is_stmt 1 view .LVU1329
 6054 0232 BDF83C30 		ldrh	r3, [sp, #60]
 6055 0236 109A     		ldr	r2, [sp, #64]
 6056 0238 BDF84410 		ldrh	r1, [sp, #68]
 6057 023c 9DF84C00 		ldrb	r0, [sp, #76]	@ zero_extendqisi2
 6058 0240 FFF7FEFF 		bl	FaultCommand_RunOverVoltage
 6059              	.LVL640:
 6060 0244 0346     		mov	r3, r0
 652:App/Src/fault_command.c ****                                  context,
 6061              		.loc 1 652 5 is_stmt 0 discriminator 1 view .LVU1330
 6062 0246 3C4A     		ldr	r2, .L476+128
 6063 0248 2946     		mov	r1, r5
 6064 024a 3046     		mov	r0, r6
 6065 024c FFF7FEFF 		bl	FaultCommand_WriteTextResult
 6066              	.LVL641:
 6067 0250 E8E6     		b	.L383
 6068              	.L459:
 648:App/Src/fault_command.c ****       return;
 6069              		.loc 1 648 7 is_stmt 1 view .LVU1331
 6070 0252 0123     		movs	r3, #1
 6071 0254 384A     		ldr	r2, .L476+128
 6072 0256 2946     		mov	r1, r5
 6073 0258 3046     		mov	r0, r6
ARM GAS  C:\Users\hh\AppData\Local\Temp\ccnvB5Va.s 			page 162


 6074 025a FFF7FEFF 		bl	FaultCommand_WriteTextResult
 6075              	.LVL642:
 649:App/Src/fault_command.c ****     }
 6076              		.loc 1 649 7 view .LVU1332
 6077 025e E1E6     		b	.L383
 6078              	.L441:
 662:App/Src/fault_command.c ****     target = VOLTAGE_SIM_DEFAULT_UV_MV;
 6079              		.loc 1 662 5 view .LVU1333
 662:App/Src/fault_command.c ****     target = VOLTAGE_SIM_DEFAULT_UV_MV;
 6080              		.loc 1 662 10 is_stmt 0 view .LVU1334
 6081 0260 1390     		str	r0, [sp, #76]
 663:App/Src/fault_command.c ****     duration = FAULT_COMMAND_DEFAULT_DURATION_MS;
 6082              		.loc 1 663 5 is_stmt 1 view .LVU1335
 663:App/Src/fault_command.c ****     duration = FAULT_COMMAND_DEFAULT_DURATION_MS;
 6083              		.loc 1 663 12 is_stmt 0 view .LVU1336
 6084 0262 4FF47A73 		mov	r3, #1000
 6085 0266 1193     		str	r3, [sp, #68]
 664:App/Src/fault_command.c ****     slew = FAULT_COMMAND_DEFAULT_SLEW_MV_PER_MS;
 6086              		.loc 1 664 5 is_stmt 1 view .LVU1337
 664:App/Src/fault_command.c ****     slew = FAULT_COMMAND_DEFAULT_SLEW_MV_PER_MS;
 6087              		.loc 1 664 14 is_stmt 0 view .LVU1338
 6088 0268 6423     		movs	r3, #100
 6089 026a 1093     		str	r3, [sp, #64]
 665:App/Src/fault_command.c ****     if (sscanf(line, "uv %u %u %lu %u", &cell, &target, &duration, &slew) < 1)
 6090              		.loc 1 665 5 is_stmt 1 view .LVU1339
 665:App/Src/fault_command.c ****     if (sscanf(line, "uv %u %u %lu %u", &cell, &target, &duration, &slew) < 1)
 6091              		.loc 1 665 10 is_stmt 0 view .LVU1340
 6092 026c 40F6B833 		movw	r3, #3000
 6093 0270 0F93     		str	r3, [sp, #60]
 666:App/Src/fault_command.c ****     {
 6094              		.loc 1 666 5 is_stmt 1 view .LVU1341
 666:App/Src/fault_command.c ****     {
 6095              		.loc 1 666 9 is_stmt 0 view .LVU1342
 6096 0272 0FAB     		add	r3, sp, #60
 6097 0274 0193     		str	r3, [sp, #4]
 6098 0276 10AB     		add	r3, sp, #64
 6099 0278 0093     		str	r3, [sp]
 6100 027a 11AB     		add	r3, sp, #68
 6101 027c 13AA     		add	r2, sp, #76
 6102 027e 2F49     		ldr	r1, .L476+132
 6103 0280 2046     		mov	r0, r4
 6104 0282 FFF7FEFF 		bl	sscanf
 6105              	.LVL643:
 666:App/Src/fault_command.c ****     {
 6106              		.loc 1 666 8 discriminator 1 view .LVU1343
 6107 0286 0028     		cmp	r0, #0
 6108 0288 0FDD     		ble	.L460
 672:App/Src/fault_command.c ****                                  context,
 6109              		.loc 1 672 5 is_stmt 1 view .LVU1344
 6110 028a BDF83C30 		ldrh	r3, [sp, #60]
 6111 028e 109A     		ldr	r2, [sp, #64]
 6112 0290 BDF84410 		ldrh	r1, [sp, #68]
 6113 0294 9DF84C00 		ldrb	r0, [sp, #76]	@ zero_extendqisi2
 6114 0298 FFF7FEFF 		bl	FaultCommand_RunUnderVoltage
 6115              	.LVL644:
 6116 029c 0346     		mov	r3, r0
 672:App/Src/fault_command.c ****                                  context,
ARM GAS  C:\Users\hh\AppData\Local\Temp\ccnvB5Va.s 			page 163


 6117              		.loc 1 672 5 is_stmt 0 discriminator 1 view .LVU1345
 6118 029e 284A     		ldr	r2, .L476+136
 6119 02a0 2946     		mov	r1, r5
 6120 02a2 3046     		mov	r0, r6
 6121 02a4 FFF7FEFF 		bl	FaultCommand_WriteTextResult
 6122              	.LVL645:
 6123 02a8 BCE6     		b	.L383
 6124              	.L460:
 668:App/Src/fault_command.c ****       return;
 6125              		.loc 1 668 7 is_stmt 1 view .LVU1346
 6126 02aa 0123     		movs	r3, #1
 6127 02ac 244A     		ldr	r2, .L476+136
 6128 02ae 2946     		mov	r1, r5
 6129 02b0 3046     		mov	r0, r6
 6130 02b2 FFF7FEFF 		bl	FaultCommand_WriteTextResult
 6131              	.LVL646:
 669:App/Src/fault_command.c ****     }
 6132              		.loc 1 669 7 view .LVU1347
 6133 02b6 B5E6     		b	.L383
 6134              	.L477:
 6135              		.align	2
 6136              	.L476:
 6137 02b8 34000000 		.word	.LC73
 6138 02bc 00000000 		.word	.LC125
 6139 02c0 2C000000 		.word	.LC72
 6140 02c4 C4000000 		.word	.LC75
 6141 02c8 04000000 		.word	.LC126
 6142 02cc 10000000 		.word	.LC127
 6143 02d0 1C000000 		.word	.LC128
 6144 02d4 30000000 		.word	.LC130
 6145 02d8 44000000 		.word	.LC132
 6146 02dc 64000000 		.word	.LC134
 6147 02e0 70000000 		.word	.LC135
 6148 02e4 7C000000 		.word	.LC136
 6149 02e8 A8000000 		.word	.LC138
 6150 02ec D0000000 		.word	.LC140
 6151 02f0 F4000000 		.word	.LC142
 6152 02f4 00010000 		.word	.LC143
 6153 02f8 1C010000 		.word	.LC145
 6154 02fc 3C010000 		.word	.LC147
 6155 0300 58010000 		.word	.LC149
 6156 0304 78010000 		.word	.LC151
 6157 0308 9C010000 		.word	.LC153
 6158 030c A8010000 		.word	.LC154
 6159 0310 B4010000 		.word	.LC155
 6160 0314 C0010000 		.word	.LC156
 6161 0318 CC010000 		.word	.LC157
 6162 031c D8010000 		.word	.LC158
 6163 0320 E4010000 		.word	.LC159
 6164 0324 F4010000 		.word	.LC160
 6165 0328 04020000 		.word	.LC161
 6166 032c 68020000 		.word	.LC118
 6167 0330 D0000000 		.word	.LC77
 6168 0334 20000000 		.word	.LC129
 6169 0338 DC000000 		.word	.LC79
 6170 033c 34000000 		.word	.LC131
 6171 0340 0C010000 		.word	.LC83
ARM GAS  C:\Users\hh\AppData\Local\Temp\ccnvB5Va.s 			page 164


 6172              	.L442:
 6173              	.LBB70:
 682:App/Src/fault_command.c ****     unsigned int highMv;
 6174              		.loc 1 682 5 view .LVU1348
 683:App/Src/fault_command.c ****     unsigned int lowCell;
 6175              		.loc 1 683 5 view .LVU1349
 684:App/Src/fault_command.c ****     unsigned int lowMv;
 6176              		.loc 1 684 5 view .LVU1350
 685:App/Src/fault_command.c **** 
 6177              		.loc 1 685 5 view .LVU1351
 687:App/Src/fault_command.c ****     slew = FAULT_COMMAND_DEFAULT_SLEW_MV_PER_MS;
 6178              		.loc 1 687 5 view .LVU1352
 687:App/Src/fault_command.c ****     slew = FAULT_COMMAND_DEFAULT_SLEW_MV_PER_MS;
 6179              		.loc 1 687 14 is_stmt 0 view .LVU1353
 6180 0344 6423     		movs	r3, #100
 6181 0346 1093     		str	r3, [sp, #64]
 688:App/Src/fault_command.c ****     if (sscanf(line,
 6182              		.loc 1 688 5 is_stmt 1 view .LVU1354
 688:App/Src/fault_command.c ****     if (sscanf(line,
 6183              		.loc 1 688 10 is_stmt 0 view .LVU1355
 6184 0348 40F6B833 		movw	r3, #3000
 6185 034c 0F93     		str	r3, [sp, #60]
 689:App/Src/fault_command.c ****                "diff %u %u %u %u %lu %u",
 6186              		.loc 1 689 5 is_stmt 1 view .LVU1356
 689:App/Src/fault_command.c ****                "diff %u %u %u %u %lu %u",
 6187              		.loc 1 689 9 is_stmt 0 view .LVU1357
 6188 034e 0FAB     		add	r3, sp, #60
 6189 0350 0393     		str	r3, [sp, #12]
 6190 0352 10AB     		add	r3, sp, #64
 6191 0354 0293     		str	r3, [sp, #8]
 6192 0356 07AB     		add	r3, sp, #28
 6193 0358 0193     		str	r3, [sp, #4]
 6194 035a 06AB     		add	r3, sp, #24
 6195 035c 0093     		str	r3, [sp]
 6196 035e 05AB     		add	r3, sp, #20
 6197 0360 04AA     		add	r2, sp, #16
 6198 0362 B249     		ldr	r1, .L478
 6199 0364 2046     		mov	r0, r4
 6200 0366 FFF7FEFF 		bl	sscanf
 6201              	.LVL647:
 689:App/Src/fault_command.c ****                "diff %u %u %u %u %lu %u",
 6202              		.loc 1 689 8 discriminator 1 view .LVU1358
 6203 036a 0328     		cmp	r0, #3
 6204 036c 15DD     		ble	.L461
 702:App/Src/fault_command.c ****                                  context,
 6205              		.loc 1 702 5 is_stmt 1 view .LVU1359
 6206 036e BDF83C30 		ldrh	r3, [sp, #60]
 6207 0372 0193     		str	r3, [sp, #4]
 6208 0374 109B     		ldr	r3, [sp, #64]
 6209 0376 0093     		str	r3, [sp]
 6210 0378 BDF81C30 		ldrh	r3, [sp, #28]
 6211 037c 9DF81820 		ldrb	r2, [sp, #24]	@ zero_extendqisi2
 6212 0380 BDF81410 		ldrh	r1, [sp, #20]
 6213 0384 9DF81000 		ldrb	r0, [sp, #16]	@ zero_extendqisi2
 6214 0388 FFF7FEFF 		bl	FaultCommand_RunDiff
 6215              	.LVL648:
 6216 038c 0346     		mov	r3, r0
ARM GAS  C:\Users\hh\AppData\Local\Temp\ccnvB5Va.s 			page 165


 702:App/Src/fault_command.c ****                                  context,
 6217              		.loc 1 702 5 is_stmt 0 discriminator 1 view .LVU1360
 6218 038e A84A     		ldr	r2, .L478+4
 6219 0390 2946     		mov	r1, r5
 6220 0392 3046     		mov	r0, r6
 6221 0394 FFF7FEFF 		bl	FaultCommand_WriteTextResult
 6222              	.LVL649:
 6223              	.LBE70:
 6224 0398 44E6     		b	.L383
 6225              	.L461:
 6226              	.LBB71:
 698:App/Src/fault_command.c ****       return;
 6227              		.loc 1 698 7 is_stmt 1 view .LVU1361
 6228 039a 0123     		movs	r3, #1
 6229 039c A44A     		ldr	r2, .L478+4
 6230 039e 2946     		mov	r1, r5
 6231 03a0 3046     		mov	r0, r6
 6232 03a2 FFF7FEFF 		bl	FaultCommand_WriteTextResult
 6233              	.LVL650:
 699:App/Src/fault_command.c ****     }
 6234              		.loc 1 699 7 view .LVU1362
 6235 03a6 3DE6     		b	.L383
 6236              	.L443:
 699:App/Src/fault_command.c ****     }
 6237              		.loc 1 699 7 is_stmt 0 view .LVU1363
 6238              	.LBE71:
 714:App/Src/fault_command.c ****   }
 6239              		.loc 1 714 5 is_stmt 1 view .LVU1364
 6240 03a8 2946     		mov	r1, r5
 6241 03aa 3046     		mov	r0, r6
 6242 03ac FFF7FEFF 		bl	FaultCommand_WriteTextWaveStatus
 6243              	.LVL651:
 6244 03b0 38E6     		b	.L383
 6245              	.L444:
 718:App/Src/fault_command.c ****     FaultCommand_WriteTextResult(write, context, "wave", HAL_OK);
 6246              		.loc 1 718 5 view .LVU1365
 6247 03b2 FFF7FEFF 		bl	WaveformGen_Stop
 6248              	.LVL652:
 719:App/Src/fault_command.c ****   }
 6249              		.loc 1 719 5 view .LVU1366
 6250 03b6 0023     		movs	r3, #0
 6251 03b8 9E4A     		ldr	r2, .L478+8
 6252 03ba 2946     		mov	r1, r5
 6253 03bc 3046     		mov	r0, r6
 6254 03be FFF7FEFF 		bl	FaultCommand_WriteTextResult
 6255              	.LVL653:
 6256 03c2 2FE6     		b	.L383
 6257              	.L445:
 723:App/Src/fault_command.c ****     {
 6258              		.loc 1 723 5 view .LVU1367
 723:App/Src/fault_command.c ****     {
 6259              		.loc 1 723 9 is_stmt 0 view .LVU1368
 6260 03c4 FFF7FEFF 		bl	DacSafety_IsOutputAllowed
 6261              	.LVL654:
 723:App/Src/fault_command.c ****     {
 6262              		.loc 1 723 8 discriminator 1 view .LVU1369
 6263 03c8 90B1     		cbz	r0, .L462
ARM GAS  C:\Users\hh\AppData\Local\Temp\ccnvB5Va.s 			page 166


 729:App/Src/fault_command.c ****                "wave square %u %u %u %lu",
 6264              		.loc 1 729 5 is_stmt 1 view .LVU1370
 729:App/Src/fault_command.c ****                "wave square %u %u %u %lu",
 6265              		.loc 1 729 9 is_stmt 0 view .LVU1371
 6266 03ca 0AAB     		add	r3, sp, #40
 6267 03cc 0193     		str	r3, [sp, #4]
 6268 03ce 0DAB     		add	r3, sp, #52
 6269 03d0 0093     		str	r3, [sp]
 6270 03d2 0EAB     		add	r3, sp, #56
 6271 03d4 13AA     		add	r2, sp, #76
 6272 03d6 9849     		ldr	r1, .L478+12
 6273 03d8 2046     		mov	r0, r4
 6274 03da FFF7FEFF 		bl	sscanf
 6275              	.LVL655:
 729:App/Src/fault_command.c ****                "wave square %u %u %u %lu",
 6276              		.loc 1 729 8 discriminator 1 view .LVU1372
 6277 03de 0428     		cmp	r0, #4
 6278 03e0 0DD0     		beq	.L401
 736:App/Src/fault_command.c ****       return;
 6279              		.loc 1 736 7 is_stmt 1 view .LVU1373
 6280 03e2 0123     		movs	r3, #1
 6281 03e4 934A     		ldr	r2, .L478+8
 6282 03e6 2946     		mov	r1, r5
 6283 03e8 3046     		mov	r0, r6
 6284 03ea FFF7FEFF 		bl	FaultCommand_WriteTextResult
 6285              	.LVL656:
 737:App/Src/fault_command.c ****     }
 6286              		.loc 1 737 7 view .LVU1374
 6287 03ee 19E6     		b	.L383
 6288              	.L462:
 725:App/Src/fault_command.c ****       return;
 6289              		.loc 1 725 7 view .LVU1375
 6290 03f0 0223     		movs	r3, #2
 6291 03f2 904A     		ldr	r2, .L478+8
 6292 03f4 2946     		mov	r1, r5
 6293 03f6 3046     		mov	r0, r6
 6294 03f8 FFF7FEFF 		bl	FaultCommand_WriteTextResult
 6295              	.LVL657:
 726:App/Src/fault_command.c ****     }
 6296              		.loc 1 726 7 view .LVU1376
 6297 03fc 12E6     		b	.L383
 6298              	.L401:
 740:App/Src/fault_command.c ****                                  context,
 6299              		.loc 1 740 5 view .LVU1377
 6300 03fe 0A9B     		ldr	r3, [sp, #40]
 6301 0400 BDF83420 		ldrh	r2, [sp, #52]
 6302 0404 BDF83810 		ldrh	r1, [sp, #56]
 6303 0408 9DF84C00 		ldrb	r0, [sp, #76]	@ zero_extendqisi2
 6304 040c FFF7FEFF 		bl	WaveformGen_StartSquare
 6305              	.LVL658:
 6306 0410 0346     		mov	r3, r0
 740:App/Src/fault_command.c ****                                  context,
 6307              		.loc 1 740 5 is_stmt 0 discriminator 1 view .LVU1378
 6308 0412 884A     		ldr	r2, .L478+8
 6309 0414 2946     		mov	r1, r5
 6310 0416 3046     		mov	r0, r6
 6311 0418 FFF7FEFF 		bl	FaultCommand_WriteTextResult
ARM GAS  C:\Users\hh\AppData\Local\Temp\ccnvB5Va.s 			page 167


 6312              	.LVL659:
 6313 041c 02E6     		b	.L383
 6314              	.L446:
 750:App/Src/fault_command.c ****     {
 6315              		.loc 1 750 5 is_stmt 1 view .LVU1379
 750:App/Src/fault_command.c ****     {
 6316              		.loc 1 750 9 is_stmt 0 view .LVU1380
 6317 041e FFF7FEFF 		bl	DacSafety_IsOutputAllowed
 6318              	.LVL660:
 750:App/Src/fault_command.c ****     {
 6319              		.loc 1 750 8 discriminator 1 view .LVU1381
 6320 0422 80B1     		cbz	r0, .L463
 756:App/Src/fault_command.c ****                "wave sine all %u %u %lu",
 6321              		.loc 1 756 5 is_stmt 1 view .LVU1382
 756:App/Src/fault_command.c ****                "wave sine all %u %u %lu",
 6322              		.loc 1 756 9 is_stmt 0 view .LVU1383
 6323 0424 0AAB     		add	r3, sp, #40
 6324 0426 0093     		str	r3, [sp]
 6325 0428 0BAB     		add	r3, sp, #44
 6326 042a 0CAA     		add	r2, sp, #48
 6327 042c 8349     		ldr	r1, .L478+16
 6328 042e 2046     		mov	r0, r4
 6329 0430 FFF7FEFF 		bl	sscanf
 6330              	.LVL661:
 756:App/Src/fault_command.c ****                "wave sine all %u %u %lu",
 6331              		.loc 1 756 8 discriminator 1 view .LVU1384
 6332 0434 0328     		cmp	r0, #3
 6333 0436 0DD0     		beq	.L404
 762:App/Src/fault_command.c ****       return;
 6334              		.loc 1 762 7 is_stmt 1 view .LVU1385
 6335 0438 0123     		movs	r3, #1
 6336 043a 7E4A     		ldr	r2, .L478+8
 6337 043c 2946     		mov	r1, r5
 6338 043e 3046     		mov	r0, r6
 6339 0440 FFF7FEFF 		bl	FaultCommand_WriteTextResult
 6340              	.LVL662:
 763:App/Src/fault_command.c ****     }
 6341              		.loc 1 763 7 view .LVU1386
 6342 0444 EEE5     		b	.L383
 6343              	.L463:
 752:App/Src/fault_command.c ****       return;
 6344              		.loc 1 752 7 view .LVU1387
 6345 0446 0223     		movs	r3, #2
 6346 0448 7A4A     		ldr	r2, .L478+8
 6347 044a 2946     		mov	r1, r5
 6348 044c 3046     		mov	r0, r6
 6349 044e FFF7FEFF 		bl	FaultCommand_WriteTextResult
 6350              	.LVL663:
 753:App/Src/fault_command.c ****     }
 6351              		.loc 1 753 7 view .LVU1388
 6352 0452 E7E5     		b	.L383
 6353              	.L404:
 766:App/Src/fault_command.c ****                                  context,
 6354              		.loc 1 766 5 view .LVU1389
 6355 0454 0A9A     		ldr	r2, [sp, #40]
 6356 0456 BDF82C10 		ldrh	r1, [sp, #44]
 6357 045a BDF83000 		ldrh	r0, [sp, #48]
ARM GAS  C:\Users\hh\AppData\Local\Temp\ccnvB5Va.s 			page 168


 6358 045e FFF7FEFF 		bl	WaveformGen_StartSineAll
 6359              	.LVL664:
 6360 0462 0346     		mov	r3, r0
 766:App/Src/fault_command.c ****                                  context,
 6361              		.loc 1 766 5 is_stmt 0 discriminator 1 view .LVU1390
 6362 0464 734A     		ldr	r2, .L478+8
 6363 0466 2946     		mov	r1, r5
 6364 0468 3046     		mov	r0, r6
 6365 046a FFF7FEFF 		bl	FaultCommand_WriteTextResult
 6366              	.LVL665:
 6367 046e D9E5     		b	.L383
 6368              	.L447:
 775:App/Src/fault_command.c ****     {
 6369              		.loc 1 775 5 is_stmt 1 view .LVU1391
 775:App/Src/fault_command.c ****     {
 6370              		.loc 1 775 9 is_stmt 0 view .LVU1392
 6371 0470 FFF7FEFF 		bl	DacSafety_IsOutputAllowed
 6372              	.LVL666:
 775:App/Src/fault_command.c ****     {
 6373              		.loc 1 775 8 discriminator 1 view .LVU1393
 6374 0474 90B1     		cbz	r0, .L464
 781:App/Src/fault_command.c ****                "wave sine %u %u %u %lu",
 6375              		.loc 1 781 5 is_stmt 1 view .LVU1394
 781:App/Src/fault_command.c ****                "wave sine %u %u %u %lu",
 6376              		.loc 1 781 9 is_stmt 0 view .LVU1395
 6377 0476 0AAB     		add	r3, sp, #40
 6378 0478 0193     		str	r3, [sp, #4]
 6379 047a 0BAB     		add	r3, sp, #44
 6380 047c 0093     		str	r3, [sp]
 6381 047e 0CAB     		add	r3, sp, #48
 6382 0480 13AA     		add	r2, sp, #76
 6383 0482 6F49     		ldr	r1, .L478+20
 6384 0484 2046     		mov	r0, r4
 6385 0486 FFF7FEFF 		bl	sscanf
 6386              	.LVL667:
 781:App/Src/fault_command.c ****                "wave sine %u %u %u %lu",
 6387              		.loc 1 781 8 discriminator 1 view .LVU1396
 6388 048a 0428     		cmp	r0, #4
 6389 048c 0DD0     		beq	.L407
 788:App/Src/fault_command.c ****       return;
 6390              		.loc 1 788 7 is_stmt 1 view .LVU1397
 6391 048e 0123     		movs	r3, #1
 6392 0490 684A     		ldr	r2, .L478+8
 6393 0492 2946     		mov	r1, r5
 6394 0494 3046     		mov	r0, r6
 6395 0496 FFF7FEFF 		bl	FaultCommand_WriteTextResult
 6396              	.LVL668:
 789:App/Src/fault_command.c ****     }
 6397              		.loc 1 789 7 view .LVU1398
 6398 049a C3E5     		b	.L383
 6399              	.L464:
 777:App/Src/fault_command.c ****       return;
 6400              		.loc 1 777 7 view .LVU1399
 6401 049c 0223     		movs	r3, #2
 6402 049e 654A     		ldr	r2, .L478+8
 6403 04a0 2946     		mov	r1, r5
 6404 04a2 3046     		mov	r0, r6
ARM GAS  C:\Users\hh\AppData\Local\Temp\ccnvB5Va.s 			page 169


 6405 04a4 FFF7FEFF 		bl	FaultCommand_WriteTextResult
 6406              	.LVL669:
 778:App/Src/fault_command.c ****     }
 6407              		.loc 1 778 7 view .LVU1400
 6408 04a8 BCE5     		b	.L383
 6409              	.L407:
 792:App/Src/fault_command.c ****                                  context,
 6410              		.loc 1 792 5 view .LVU1401
 6411 04aa 0A9B     		ldr	r3, [sp, #40]
 6412 04ac BDF82C20 		ldrh	r2, [sp, #44]
 6413 04b0 BDF83010 		ldrh	r1, [sp, #48]
 6414 04b4 9DF84C00 		ldrb	r0, [sp, #76]	@ zero_extendqisi2
 6415 04b8 FFF7FEFF 		bl	WaveformGen_StartSine
 6416              	.LVL670:
 6417 04bc 0346     		mov	r3, r0
 792:App/Src/fault_command.c ****                                  context,
 6418              		.loc 1 792 5 is_stmt 0 discriminator 1 view .LVU1402
 6419 04be 5D4A     		ldr	r2, .L478+8
 6420 04c0 2946     		mov	r1, r5
 6421 04c2 3046     		mov	r0, r6
 6422 04c4 FFF7FEFF 		bl	FaultCommand_WriteTextResult
 6423              	.LVL671:
 6424 04c8 ACE5     		b	.L383
 6425              	.L448:
 802:App/Src/fault_command.c ****   }
 6426              		.loc 1 802 5 is_stmt 1 view .LVU1403
 6427 04ca 2946     		mov	r1, r5
 6428 04cc 3046     		mov	r0, r6
 6429 04ce FFF7FEFF 		bl	FaultCommand_WriteTextCalibrationStatus
 6430              	.LVL672:
 6431 04d2 A7E5     		b	.L383
 6432              	.L449:
 806:App/Src/fault_command.c ****     {
 6433              		.loc 1 806 5 view .LVU1404
 806:App/Src/fault_command.c ****     {
 6434              		.loc 1 806 9 is_stmt 0 view .LVU1405
 6435 04d4 FFF7FEFF 		bl	DacSafety_IsOutputAllowed
 6436              	.LVL673:
 806:App/Src/fault_command.c ****     {
 6437              		.loc 1 806 8 discriminator 1 view .LVU1406
 6438 04d8 70B1     		cbz	r0, .L465
 812:App/Src/fault_command.c ****     {
 6439              		.loc 1 812 5 is_stmt 1 view .LVU1407
 812:App/Src/fault_command.c ****     {
 6440              		.loc 1 812 9 is_stmt 0 view .LVU1408
 6441 04da 09AB     		add	r3, sp, #36
 6442 04dc 13AA     		add	r2, sp, #76
 6443 04de 5949     		ldr	r1, .L478+24
 6444 04e0 2046     		mov	r0, r4
 6445 04e2 FFF7FEFF 		bl	sscanf
 6446              	.LVL674:
 812:App/Src/fault_command.c ****     {
 6447              		.loc 1 812 8 discriminator 1 view .LVU1409
 6448 04e6 0228     		cmp	r0, #2
 6449 04e8 0DD0     		beq	.L411
 814:App/Src/fault_command.c ****       return;
 6450              		.loc 1 814 7 is_stmt 1 view .LVU1410
ARM GAS  C:\Users\hh\AppData\Local\Temp\ccnvB5Va.s 			page 170


 6451 04ea 0123     		movs	r3, #1
 6452 04ec 564A     		ldr	r2, .L478+28
 6453 04ee 2946     		mov	r1, r5
 6454 04f0 3046     		mov	r0, r6
 6455 04f2 FFF7FEFF 		bl	FaultCommand_WriteTextResult
 6456              	.LVL675:
 815:App/Src/fault_command.c ****     }
 6457              		.loc 1 815 7 view .LVU1411
 6458 04f6 95E5     		b	.L383
 6459              	.L465:
 808:App/Src/fault_command.c ****       return;
 6460              		.loc 1 808 7 view .LVU1412
 6461 04f8 0223     		movs	r3, #2
 6462 04fa 534A     		ldr	r2, .L478+28
 6463 04fc 2946     		mov	r1, r5
 6464 04fe 3046     		mov	r0, r6
 6465 0500 FFF7FEFF 		bl	FaultCommand_WriteTextResult
 6466              	.LVL676:
 809:App/Src/fault_command.c ****     }
 6467              		.loc 1 809 7 view .LVU1413
 6468 0504 8EE5     		b	.L383
 6469              	.L411:
 818:App/Src/fault_command.c ****                                  context,
 6470              		.loc 1 818 5 view .LVU1414
 6471 0506 BDF92410 		ldrsh	r1, [sp, #36]
 6472 050a 9DF84C00 		ldrb	r0, [sp, #76]	@ zero_extendqisi2
 6473 050e FFF7FEFF 		bl	VoltageSim_SetCellCalibrationOffsetMv
 6474              	.LVL677:
 6475 0512 0346     		mov	r3, r0
 818:App/Src/fault_command.c ****                                  context,
 6476              		.loc 1 818 5 is_stmt 0 discriminator 1 view .LVU1415
 6477 0514 4C4A     		ldr	r2, .L478+28
 6478 0516 2946     		mov	r1, r5
 6479 0518 3046     		mov	r0, r6
 6480 051a FFF7FEFF 		bl	FaultCommand_WriteTextResult
 6481              	.LVL678:
 6482 051e 81E5     		b	.L383
 6483              	.L450:
 826:App/Src/fault_command.c ****     {
 6484              		.loc 1 826 5 is_stmt 1 view .LVU1416
 826:App/Src/fault_command.c ****     {
 6485              		.loc 1 826 9 is_stmt 0 view .LVU1417
 6486 0520 FFF7FEFF 		bl	DacSafety_IsOutputAllowed
 6487              	.LVL679:
 826:App/Src/fault_command.c ****     {
 6488              		.loc 1 826 8 discriminator 1 view .LVU1418
 6489 0524 80B1     		cbz	r0, .L466
 832:App/Src/fault_command.c ****     {
 6490              		.loc 1 832 5 is_stmt 1 view .LVU1419
 832:App/Src/fault_command.c ****     {
 6491              		.loc 1 832 9 is_stmt 0 view .LVU1420
 6492 0526 08AB     		add	r3, sp, #32
 6493 0528 0093     		str	r3, [sp]
 6494 052a 11AB     		add	r3, sp, #68
 6495 052c 13AA     		add	r2, sp, #76
 6496 052e 4749     		ldr	r1, .L478+32
 6497 0530 2046     		mov	r0, r4
ARM GAS  C:\Users\hh\AppData\Local\Temp\ccnvB5Va.s 			page 171


 6498 0532 FFF7FEFF 		bl	sscanf
 6499              	.LVL680:
 832:App/Src/fault_command.c ****     {
 6500              		.loc 1 832 8 discriminator 1 view .LVU1421
 6501 0536 0328     		cmp	r0, #3
 6502 0538 0DD0     		beq	.L414
 834:App/Src/fault_command.c ****       return;
 6503              		.loc 1 834 7 is_stmt 1 view .LVU1422
 6504 053a 0123     		movs	r3, #1
 6505 053c 424A     		ldr	r2, .L478+28
 6506 053e 2946     		mov	r1, r5
 6507 0540 3046     		mov	r0, r6
 6508 0542 FFF7FEFF 		bl	FaultCommand_WriteTextResult
 6509              	.LVL681:
 835:App/Src/fault_command.c ****     }
 6510              		.loc 1 835 7 view .LVU1423
 6511 0546 6DE5     		b	.L383
 6512              	.L466:
 828:App/Src/fault_command.c ****       return;
 6513              		.loc 1 828 7 view .LVU1424
 6514 0548 0223     		movs	r3, #2
 6515 054a 3F4A     		ldr	r2, .L478+28
 6516 054c 2946     		mov	r1, r5
 6517 054e 3046     		mov	r0, r6
 6518 0550 FFF7FEFF 		bl	FaultCommand_WriteTextResult
 6519              	.LVL682:
 829:App/Src/fault_command.c ****     }
 6520              		.loc 1 829 7 view .LVU1425
 6521 0554 66E5     		b	.L383
 6522              	.L414:
 838:App/Src/fault_command.c ****                                  context,
 6523              		.loc 1 838 5 view .LVU1426
 6524 0556 BDF82020 		ldrh	r2, [sp, #32]
 6525 055a BDF84410 		ldrh	r1, [sp, #68]
 6526 055e 9DF84C00 		ldrb	r0, [sp, #76]	@ zero_extendqisi2
 6527 0562 FFF7FEFF 		bl	FaultCommand_RunCalibrationTrim
 6528              	.LVL683:
 6529 0566 0346     		mov	r3, r0
 838:App/Src/fault_command.c ****                                  context,
 6530              		.loc 1 838 5 is_stmt 0 discriminator 1 view .LVU1427
 6531 0568 374A     		ldr	r2, .L478+28
 6532 056a 2946     		mov	r1, r5
 6533 056c 3046     		mov	r0, r6
 6534 056e FFF7FEFF 		bl	FaultCommand_WriteTextResult
 6535              	.LVL684:
 6536 0572 57E5     		b	.L383
 6537              	.L451:
 847:App/Src/fault_command.c ****     {
 6538              		.loc 1 847 5 is_stmt 1 view .LVU1428
 847:App/Src/fault_command.c ****     {
 6539              		.loc 1 847 9 is_stmt 0 view .LVU1429
 6540 0574 FFF7FEFF 		bl	DacSafety_IsOutputAllowed
 6541              	.LVL685:
 847:App/Src/fault_command.c ****     {
 6542              		.loc 1 847 8 discriminator 1 view .LVU1430
 6543 0578 78B1     		cbz	r0, .L467
 853:App/Src/fault_command.c ****     {
ARM GAS  C:\Users\hh\AppData\Local\Temp\ccnvB5Va.s 			page 172


 6544              		.loc 1 853 5 is_stmt 1 view .LVU1431
 853:App/Src/fault_command.c ****     {
 6545              		.loc 1 853 9 is_stmt 0 view .LVU1432
 6546 057a 13AA     		add	r2, sp, #76
 6547 057c 3449     		ldr	r1, .L478+36
 6548 057e 2046     		mov	r0, r4
 6549 0580 FFF7FEFF 		bl	sscanf
 6550              	.LVL686:
 853:App/Src/fault_command.c ****     {
 6551              		.loc 1 853 8 discriminator 1 view .LVU1433
 6552 0584 0128     		cmp	r0, #1
 6553 0586 0FD0     		beq	.L468
 862:App/Src/fault_command.c ****       FaultCommand_WriteTextResult(write, context, "cal", HAL_OK);
 6554              		.loc 1 862 7 is_stmt 1 view .LVU1434
 6555 0588 FFF7FEFF 		bl	VoltageSim_ClearAllCalibrationOffsets
 6556              	.LVL687:
 863:App/Src/fault_command.c ****     }
 6557              		.loc 1 863 7 view .LVU1435
 6558 058c 0023     		movs	r3, #0
 6559 058e 2E4A     		ldr	r2, .L478+28
 6560 0590 2946     		mov	r1, r5
 6561 0592 3046     		mov	r0, r6
 6562 0594 FFF7FEFF 		bl	FaultCommand_WriteTextResult
 6563              	.LVL688:
 6564 0598 44E5     		b	.L383
 6565              	.L467:
 849:App/Src/fault_command.c ****       return;
 6566              		.loc 1 849 7 view .LVU1436
 6567 059a 0223     		movs	r3, #2
 6568 059c 2A4A     		ldr	r2, .L478+28
 6569 059e 2946     		mov	r1, r5
 6570 05a0 3046     		mov	r0, r6
 6571 05a2 FFF7FEFF 		bl	FaultCommand_WriteTextResult
 6572              	.LVL689:
 850:App/Src/fault_command.c ****     }
 6573              		.loc 1 850 7 view .LVU1437
 6574 05a6 3DE5     		b	.L383
 6575              	.L468:
 855:App/Src/fault_command.c ****                                    context,
 6576              		.loc 1 855 7 view .LVU1438
 6577 05a8 9DF84C00 		ldrb	r0, [sp, #76]	@ zero_extendqisi2
 6578 05ac FFF7FEFF 		bl	VoltageSim_ClearCellCalibrationOffset
 6579              	.LVL690:
 6580 05b0 0346     		mov	r3, r0
 855:App/Src/fault_command.c ****                                    context,
 6581              		.loc 1 855 7 is_stmt 0 discriminator 1 view .LVU1439
 6582 05b2 254A     		ldr	r2, .L478+28
 6583 05b4 2946     		mov	r1, r5
 6584 05b6 3046     		mov	r0, r6
 6585 05b8 FFF7FEFF 		bl	FaultCommand_WriteTextResult
 6586              	.LVL691:
 6587 05bc 32E5     		b	.L383
 6588              	.L452:
 868:App/Src/fault_command.c ****     {
 6589              		.loc 1 868 5 is_stmt 1 view .LVU1440
 868:App/Src/fault_command.c ****     {
 6590              		.loc 1 868 9 is_stmt 0 view .LVU1441
ARM GAS  C:\Users\hh\AppData\Local\Temp\ccnvB5Va.s 			page 173


 6591 05be 12AA     		add	r2, sp, #72
 6592 05c0 2449     		ldr	r1, .L478+40
 6593 05c2 2046     		mov	r0, r4
 6594 05c4 FFF7FEFF 		bl	sscanf
 6595              	.LVL692:
 868:App/Src/fault_command.c ****     {
 6596              		.loc 1 868 8 discriminator 1 view .LVU1442
 6597 05c8 0128     		cmp	r0, #1
 6598 05ca 06D0     		beq	.L419
 870:App/Src/fault_command.c ****       return;
 6599              		.loc 1 870 7 is_stmt 1 view .LVU1443
 6600 05cc 0123     		movs	r3, #1
 6601 05ce 224A     		ldr	r2, .L478+44
 6602 05d0 2946     		mov	r1, r5
 6603 05d2 3046     		mov	r0, r6
 6604 05d4 FFF7FEFF 		bl	FaultCommand_WriteTextResult
 6605              	.LVL693:
 871:App/Src/fault_command.c ****     }
 6606              		.loc 1 871 7 view .LVU1444
 6607 05d8 24E5     		b	.L383
 6608              	.L419:
 874:App/Src/fault_command.c ****                                  context,
 6609              		.loc 1 874 5 view .LVU1445
 6610 05da BDF84800 		ldrh	r0, [sp, #72]
 6611 05de FFF7FEFF 		bl	FaultCommand_RunNormal
 6612              	.LVL694:
 6613 05e2 0346     		mov	r3, r0
 874:App/Src/fault_command.c ****                                  context,
 6614              		.loc 1 874 5 is_stmt 0 discriminator 1 view .LVU1446
 6615 05e4 1C4A     		ldr	r2, .L478+44
 6616 05e6 2946     		mov	r1, r5
 6617 05e8 3046     		mov	r0, r6
 6618 05ea FFF7FEFF 		bl	FaultCommand_WriteTextResult
 6619              	.LVL695:
 6620 05ee 19E5     		b	.L383
 6621              	.L453:
 881:App/Src/fault_command.c ****     {
 6622              		.loc 1 881 5 is_stmt 1 view .LVU1447
 881:App/Src/fault_command.c ****     {
 6623              		.loc 1 881 9 is_stmt 0 view .LVU1448
 6624 05f0 FFF7FEFF 		bl	DacSafety_IsOutputAllowed
 6625              	.LVL696:
 881:App/Src/fault_command.c ****     {
 6626              		.loc 1 881 8 discriminator 1 view .LVU1449
 6627 05f4 90B1     		cbz	r0, .L469
 887:App/Src/fault_command.c ****                "test slew %u %u %u %lu",
 6628              		.loc 1 887 5 is_stmt 1 view .LVU1450
 887:App/Src/fault_command.c ****                "test slew %u %u %u %lu",
 6629              		.loc 1 887 9 is_stmt 0 view .LVU1451
 6630 05f6 0AAB     		add	r3, sp, #40
 6631 05f8 0193     		str	r3, [sp, #4]
 6632 05fa 0DAB     		add	r3, sp, #52
 6633 05fc 0093     		str	r3, [sp]
 6634 05fe 0EAB     		add	r3, sp, #56
 6635 0600 13AA     		add	r2, sp, #76
 6636 0602 1649     		ldr	r1, .L478+48
 6637 0604 2046     		mov	r0, r4
ARM GAS  C:\Users\hh\AppData\Local\Temp\ccnvB5Va.s 			page 174


 6638 0606 FFF7FEFF 		bl	sscanf
 6639              	.LVL697:
 887:App/Src/fault_command.c ****                "test slew %u %u %u %lu",
 6640              		.loc 1 887 8 discriminator 1 view .LVU1452
 6641 060a 0428     		cmp	r0, #4
 6642 060c 28D0     		beq	.L422
 894:App/Src/fault_command.c ****       return;
 6643              		.loc 1 894 7 is_stmt 1 view .LVU1453
 6644 060e 0123     		movs	r3, #1
 6645 0610 114A     		ldr	r2, .L478+44
 6646 0612 2946     		mov	r1, r5
 6647 0614 3046     		mov	r0, r6
 6648 0616 FFF7FEFF 		bl	FaultCommand_WriteTextResult
 6649              	.LVL698:
 895:App/Src/fault_command.c ****     }
 6650              		.loc 1 895 7 view .LVU1454
 6651 061a 03E5     		b	.L383
 6652              	.L469:
 883:App/Src/fault_command.c ****       return;
 6653              		.loc 1 883 7 view .LVU1455
 6654 061c 0223     		movs	r3, #2
 6655 061e 0E4A     		ldr	r2, .L478+44
 6656 0620 2946     		mov	r1, r5
 6657 0622 3046     		mov	r0, r6
 6658 0624 FFF7FEFF 		bl	FaultCommand_WriteTextResult
 6659              	.LVL699:
 884:App/Src/fault_command.c ****     }
 6660              		.loc 1 884 7 view .LVU1456
 6661 0628 FCE4     		b	.L383
 6662              	.L479:
 6663 062a 00BF     		.align	2
 6664              	.L478:
 6665 062c 4C000000 		.word	.LC133
 6666 0630 20010000 		.word	.LC85
 6667 0634 50010000 		.word	.LC90
 6668 0638 8C000000 		.word	.LC137
 6669 063c B8000000 		.word	.LC139
 6670 0640 DC000000 		.word	.LC141
 6671 0644 0C010000 		.word	.LC144
 6672 0648 B8010000 		.word	.LC100
 6673 064c 28010000 		.word	.LC146
 6674 0650 48010000 		.word	.LC148
 6675 0654 68010000 		.word	.LC150
 6676 0658 28020000 		.word	.LC108
 6677 065c 84010000 		.word	.LC152
 6678              	.L422:
 898:App/Src/fault_command.c ****                                  context,
 6679              		.loc 1 898 5 view .LVU1457
 6680 0660 0A9B     		ldr	r3, [sp, #40]
 6681 0662 BDF83420 		ldrh	r2, [sp, #52]
 6682 0666 BDF83810 		ldrh	r1, [sp, #56]
 6683 066a 9DF84C00 		ldrb	r0, [sp, #76]	@ zero_extendqisi2
 6684 066e FFF7FEFF 		bl	WaveformGen_StartSquare
 6685              	.LVL700:
 6686 0672 0346     		mov	r3, r0
 898:App/Src/fault_command.c ****                                  context,
 6687              		.loc 1 898 5 is_stmt 0 discriminator 1 view .LVU1458
ARM GAS  C:\Users\hh\AppData\Local\Temp\ccnvB5Va.s 			page 175


 6688 0674 494A     		ldr	r2, .L480
 6689 0676 2946     		mov	r1, r5
 6690 0678 3046     		mov	r0, r6
 6691 067a FFF7FEFF 		bl	FaultCommand_WriteTextResult
 6692              	.LVL701:
 6693 067e D1E4     		b	.L383
 6694              	.L454:
 908:App/Src/fault_command.c ****   }
 6695              		.loc 1 908 5 is_stmt 1 view .LVU1459
 6696 0680 2946     		mov	r1, r5
 6697 0682 3046     		mov	r0, r6
 6698 0684 FFF7FEFF 		bl	FaultCommand_WriteTextCanStatus
 6699              	.LVL702:
 6700 0688 CCE4     		b	.L383
 6701              	.L455:
 912:App/Src/fault_command.c ****                                  context,
 6702              		.loc 1 912 5 view .LVU1460
 6703 068a 2046     		mov	r0, r4
 6704 068c FFF7FEFF 		bl	FaultCommand_ParseCanSendText
 6705              	.LVL703:
 6706 0690 0346     		mov	r3, r0
 912:App/Src/fault_command.c ****                                  context,
 6707              		.loc 1 912 5 is_stmt 0 discriminator 1 view .LVU1461
 6708 0692 434A     		ldr	r2, .L480+4
 6709 0694 2946     		mov	r1, r5
 6710 0696 3046     		mov	r0, r6
 6711 0698 FFF7FEFF 		bl	FaultCommand_WriteTextResult
 6712              	.LVL704:
 6713 069c C2E4     		b	.L383
 6714              	.L456:
 919:App/Src/fault_command.c ****   }
 6715              		.loc 1 919 5 is_stmt 1 view .LVU1462
 6716 069e 2946     		mov	r1, r5
 6717 06a0 3046     		mov	r0, r6
 6718 06a2 FFF7FEFF 		bl	FaultCommand_WriteTextBmsResponseLog
 6719              	.LVL705:
 6720 06a6 BDE4     		b	.L383
 6721              	.L457:
 923:App/Src/fault_command.c ****     FaultCommand_WriteTextResult(write, context, "log", HAL_OK);
 6722              		.loc 1 923 5 view .LVU1463
 6723 06a8 FFF7FEFF 		bl	BmsResponseLog_Clear
 6724              	.LVL706:
 924:App/Src/fault_command.c ****   }
 6725              		.loc 1 924 5 view .LVU1464
 6726 06ac 0023     		movs	r3, #0
 6727 06ae 3D4A     		ldr	r2, .L480+8
 6728 06b0 2946     		mov	r1, r5
 6729 06b2 3046     		mov	r0, r6
 6730 06b4 FFF7FEFF 		bl	FaultCommand_WriteTextResult
 6731              	.LVL707:
 6732 06b8 B4E4     		b	.L383
 6733              	.L458:
 928:App/Src/fault_command.c ****   }
 6734              		.loc 1 928 5 view .LVU1465
 6735 06ba 2946     		mov	r1, r5
 6736 06bc 3046     		mov	r0, r6
 6737 06be FFF7FEFF 		bl	FaultCommand_WriteTextSafetyStatus
ARM GAS  C:\Users\hh\AppData\Local\Temp\ccnvB5Va.s 			page 176


 6738              	.LVL708:
 6739 06c2 AFE4     		b	.L383
 6740              	.L429:
 941:App/Src/fault_command.c ****   {
 6741              		.loc 1 941 8 view .LVU1466
 941:App/Src/fault_command.c ****   {
 6742              		.loc 1 941 12 is_stmt 0 view .LVU1467
 6743 06c4 3849     		ldr	r1, .L480+12
 6744 06c6 2046     		mov	r0, r4
 6745 06c8 FFF7FEFF 		bl	strcmp
 6746              	.LVL709:
 941:App/Src/fault_command.c ****   {
 6747              		.loc 1 941 11 discriminator 1 view .LVU1468
 6748 06cc D8B1     		cbz	r0, .L470
 946:App/Src/fault_command.c ****   {
 6749              		.loc 1 946 8 is_stmt 1 view .LVU1469
 946:App/Src/fault_command.c ****   {
 6750              		.loc 1 946 12 is_stmt 0 view .LVU1470
 6751 06ce 3749     		ldr	r1, .L480+16
 6752 06d0 2046     		mov	r0, r4
 6753 06d2 FFF7FEFF 		bl	strcmp
 6754              	.LVL710:
 946:App/Src/fault_command.c ****   {
 6755              		.loc 1 946 11 discriminator 1 view .LVU1471
 6756 06d6 F8B1     		cbz	r0, .L471
 950:App/Src/fault_command.c ****   {
 6757              		.loc 1 950 8 is_stmt 1 view .LVU1472
 950:App/Src/fault_command.c ****   {
 6758              		.loc 1 950 12 is_stmt 0 view .LVU1473
 6759 06d8 0922     		movs	r2, #9
 6760 06da 3549     		ldr	r1, .L480+20
 6761 06dc 2046     		mov	r0, r4
 6762 06de FFF7FEFF 		bl	strncmp
 6763              	.LVL711:
 950:App/Src/fault_command.c ****   {
 6764              		.loc 1 950 11 discriminator 1 view .LVU1474
 6765 06e2 F0B1     		cbz	r0, .L472
 960:App/Src/fault_command.c ****   {
 6766              		.loc 1 960 8 is_stmt 1 view .LVU1475
 960:App/Src/fault_command.c ****   {
 6767              		.loc 1 960 12 is_stmt 0 view .LVU1476
 6768 06e4 0522     		movs	r2, #5
 6769 06e6 3349     		ldr	r1, .L480+24
 6770 06e8 2046     		mov	r0, r4
 6771 06ea FFF7FEFF 		bl	strncmp
 6772              	.LVL712:
 960:App/Src/fault_command.c ****   {
 6773              		.loc 1 960 11 discriminator 1 view .LVU1477
 6774 06ee 70B3     		cbz	r0, .L473
 978:App/Src/fault_command.c ****   {
 6775              		.loc 1 978 8 is_stmt 1 view .LVU1478
 978:App/Src/fault_command.c ****   {
 6776              		.loc 1 978 12 is_stmt 0 view .LVU1479
 6777 06f0 2378     		ldrb	r3, [r4]	@ zero_extendqisi2
 978:App/Src/fault_command.c ****   {
 6778              		.loc 1 978 11 view .LVU1480
 6779 06f2 002B     		cmp	r3, #0
ARM GAS  C:\Users\hh\AppData\Local\Temp\ccnvB5Va.s 			page 177


 6780 06f4 3FF496AC 		beq	.L383
 980:App/Src/fault_command.c ****   }
 6781              		.loc 1 980 5 is_stmt 1 view .LVU1481
 6782 06f8 2346     		mov	r3, r4
 6783 06fa 2F4A     		ldr	r2, .L480+28
 6784 06fc 2946     		mov	r1, r5
 6785 06fe 3046     		mov	r0, r6
 6786 0700 FFF7FEFF 		bl	FaultCommand_WriteFormat
 6787              	.LVL713:
 6788 0704 8EE4     		b	.L383
 6789              	.L470:
 943:App/Src/fault_command.c ****     FaultCommand_WriteTextResult(write, context, "safe", HAL_OK);
 6790              		.loc 1 943 5 view .LVU1482
 6791 0706 FFF7FEFF 		bl	DacSafety_Release
 6792              	.LVL714:
 944:App/Src/fault_command.c ****   }
 6793              		.loc 1 944 5 view .LVU1483
 6794 070a 0023     		movs	r3, #0
 6795 070c 2B4A     		ldr	r2, .L480+32
 6796 070e 2946     		mov	r1, r5
 6797 0710 3046     		mov	r0, r6
 6798 0712 FFF7FEFF 		bl	FaultCommand_WriteTextResult
 6799              	.LVL715:
 6800 0716 85E4     		b	.L383
 6801              	.L471:
 948:App/Src/fault_command.c ****   }
 6802              		.loc 1 948 5 view .LVU1484
 6803 0718 2946     		mov	r1, r5
 6804 071a 3046     		mov	r0, r6
 6805 071c FFF7FEFF 		bl	FaultCommand_WriteTextSramStatus
 6806              	.LVL716:
 6807 0720 80E4     		b	.L383
 6808              	.L472:
 6809              	.LBB72:
 952:App/Src/fault_command.c ****     HAL_StatusTypeDef status;
 6810              		.loc 1 952 5 view .LVU1485
 952:App/Src/fault_command.c ****     HAL_StatusTypeDef status;
 6811              		.loc 1 952 19 is_stmt 0 view .LVU1486
 6812 0722 4FF48033 		mov	r3, #65536
 6813 0726 0793     		str	r3, [sp, #28]
 953:App/Src/fault_command.c **** 
 6814              		.loc 1 953 5 is_stmt 1 view .LVU1487
 955:App/Src/fault_command.c ****     status = BspSram_RunSelfTest((uint32_t)bytes);
 6815              		.loc 1 955 5 view .LVU1488
 955:App/Src/fault_command.c ****     status = BspSram_RunSelfTest((uint32_t)bytes);
 6816              		.loc 1 955 11 is_stmt 0 view .LVU1489
 6817 0728 07AA     		add	r2, sp, #28
 6818 072a 2549     		ldr	r1, .L480+36
 6819 072c 2046     		mov	r0, r4
 6820 072e FFF7FEFF 		bl	sscanf
 6821              	.LVL717:
 956:App/Src/fault_command.c ****     FaultCommand_WriteTextResult(write, context, "sram", status);
 6822              		.loc 1 956 5 is_stmt 1 view .LVU1490
 956:App/Src/fault_command.c ****     FaultCommand_WriteTextResult(write, context, "sram", status);
 6823              		.loc 1 956 14 is_stmt 0 view .LVU1491
 6824 0732 0798     		ldr	r0, [sp, #28]
 6825 0734 FFF7FEFF 		bl	BspSram_RunSelfTest
ARM GAS  C:\Users\hh\AppData\Local\Temp\ccnvB5Va.s 			page 178


 6826              	.LVL718:
 6827 0738 0346     		mov	r3, r0
 6828              	.LVL719:
 957:App/Src/fault_command.c ****     FaultCommand_WriteTextSramStatus(write, context);
 6829              		.loc 1 957 5 is_stmt 1 view .LVU1492
 6830 073a 224A     		ldr	r2, .L480+40
 6831 073c 2946     		mov	r1, r5
 6832 073e 3046     		mov	r0, r6
 6833 0740 FFF7FEFF 		bl	FaultCommand_WriteTextResult
 6834              	.LVL720:
 958:App/Src/fault_command.c ****   }
 6835              		.loc 1 958 5 view .LVU1493
 6836 0744 2946     		mov	r1, r5
 6837 0746 3046     		mov	r0, r6
 6838 0748 FFF7FEFF 		bl	FaultCommand_WriteTextSramStatus
 6839              	.LVL721:
 6840              	.LBE72:
 6841 074c 6AE4     		b	.L383
 6842              	.LVL722:
 6843              	.L473:
 962:App/Src/fault_command.c ****     {
 6844              		.loc 1 962 5 view .LVU1494
 962:App/Src/fault_command.c ****     {
 6845              		.loc 1 962 9 is_stmt 0 view .LVU1495
 6846 074e FFF7FEFF 		bl	DacSafety_IsOutputAllowed
 6847              	.LVL723:
 962:App/Src/fault_command.c ****     {
 6848              		.loc 1 962 8 discriminator 1 view .LVU1496
 6849 0752 88B1     		cbz	r0, .L474
 968:App/Src/fault_command.c ****     if (sscanf(line, "clear %u", &cell) == 1)
 6850              		.loc 1 968 5 is_stmt 1 view .LVU1497
 6851 0754 FFF7FEFF 		bl	WaveformGen_Stop
 6852              	.LVL724:
 969:App/Src/fault_command.c ****     {
 6853              		.loc 1 969 5 view .LVU1498
 969:App/Src/fault_command.c ****     {
 6854              		.loc 1 969 9 is_stmt 0 view .LVU1499
 6855 0758 13AA     		add	r2, sp, #76
 6856 075a 1B49     		ldr	r1, .L480+44
 6857 075c 2046     		mov	r0, r4
 6858 075e FFF7FEFF 		bl	sscanf
 6859              	.LVL725:
 969:App/Src/fault_command.c ****     {
 6860              		.loc 1 969 8 discriminator 1 view .LVU1500
 6861 0762 0128     		cmp	r0, #1
 6862 0764 0FD0     		beq	.L475
 975:App/Src/fault_command.c ****     }
 6863              		.loc 1 975 7 is_stmt 1 view .LVU1501
 6864 0766 FFF7FEFF 		bl	VoltageSim_ClearAllFaults
 6865              	.LVL726:
 6866 076a 0346     		mov	r3, r0
 975:App/Src/fault_command.c ****     }
 6867              		.loc 1 975 7 is_stmt 0 discriminator 1 view .LVU1502
 6868 076c 114A     		ldr	r2, .L480+24
 6869 076e 2946     		mov	r1, r5
 6870 0770 3046     		mov	r0, r6
 6871 0772 FFF7FEFF 		bl	FaultCommand_WriteTextResult
ARM GAS  C:\Users\hh\AppData\Local\Temp\ccnvB5Va.s 			page 179


 6872              	.LVL727:
 6873 0776 55E4     		b	.L383
 6874              	.L474:
 964:App/Src/fault_command.c ****       return;
 6875              		.loc 1 964 7 is_stmt 1 view .LVU1503
 6876 0778 0223     		movs	r3, #2
 6877 077a 0E4A     		ldr	r2, .L480+24
 6878 077c 2946     		mov	r1, r5
 6879 077e 3046     		mov	r0, r6
 6880 0780 FFF7FEFF 		bl	FaultCommand_WriteTextResult
 6881              	.LVL728:
 965:App/Src/fault_command.c ****     }
 6882              		.loc 1 965 7 view .LVU1504
 6883 0784 4EE4     		b	.L383
 6884              	.L475:
 971:App/Src/fault_command.c ****     }
 6885              		.loc 1 971 7 view .LVU1505
 6886 0786 9DF84C00 		ldrb	r0, [sp, #76]	@ zero_extendqisi2
 6887 078a FFF7FEFF 		bl	VoltageSim_ClearCellFault
 6888              	.LVL729:
 6889 078e 0346     		mov	r3, r0
 971:App/Src/fault_command.c ****     }
 6890              		.loc 1 971 7 is_stmt 0 discriminator 1 view .LVU1506
 6891 0790 084A     		ldr	r2, .L480+24
 6892 0792 2946     		mov	r1, r5
 6893 0794 3046     		mov	r0, r6
 6894 0796 FFF7FEFF 		bl	FaultCommand_WriteTextResult
 6895              	.LVL730:
 6896 079a 43E4     		b	.L383
 6897              	.L481:
 6898              		.align	2
 6899              	.L480:
 6900 079c 28020000 		.word	.LC108
 6901 07a0 40020000 		.word	.LC111
 6902 07a4 64020000 		.word	.LC117
 6903 07a8 18020000 		.word	.LC162
 6904 07ac 28020000 		.word	.LC163
 6905 07b0 34020000 		.word	.LC164
 6906 07b4 20020000 		.word	.LC107
 6907 07b8 5C020000 		.word	.LC167
 6908 07bc 68020000 		.word	.LC118
 6909 07c0 40020000 		.word	.LC165
 6910 07c4 88020000 		.word	.LC121
 6911 07c8 50020000 		.word	.LC166
 6912              		.cfi_endproc
 6913              	.LFE174:
 6915              		.section	.text.FaultCommand_ExecuteLine,"ax",%progbits
 6916              		.align	1
 6917              		.global	FaultCommand_ExecuteLine
 6918              		.syntax unified
 6919              		.thumb
 6920              		.thumb_func
 6922              	FaultCommand_ExecuteLine:
 6923              	.LVL731:
 6924              	.LFB181:
1487:App/Src/fault_command.c **** 
1488:App/Src/fault_command.c **** void FaultCommand_ExecuteLine(const char *line, FaultCommand_WriteFn write, void *context)
ARM GAS  C:\Users\hh\AppData\Local\Temp\ccnvB5Va.s 			page 180


1489:App/Src/fault_command.c **** {
 6925              		.loc 1 1489 1 is_stmt 1 view -0
 6926              		.cfi_startproc
 6927              		@ args = 0, pretend = 0, frame = 0
 6928              		@ frame_needed = 0, uses_anonymous_args = 0
 6929              		.loc 1 1489 1 is_stmt 0 view .LVU1508
 6930 0000 38B5     		push	{r3, r4, r5, lr}
 6931              	.LCFI92:
 6932              		.cfi_def_cfa_offset 16
 6933              		.cfi_offset 3, -16
 6934              		.cfi_offset 4, -12
 6935              		.cfi_offset 5, -8
 6936              		.cfi_offset 14, -4
 6937 0002 0C46     		mov	r4, r1
 6938 0004 1546     		mov	r5, r2
1490:App/Src/fault_command.c ****   line = FaultCommand_SkipSpaces(line);
 6939              		.loc 1 1490 3 is_stmt 1 view .LVU1509
 6940              		.loc 1 1490 10 is_stmt 0 view .LVU1510
 6941 0006 FFF7FEFF 		bl	FaultCommand_SkipSpaces
 6942              	.LVL732:
1491:App/Src/fault_command.c **** 
1492:App/Src/fault_command.c ****   if (line == NULL)
 6943              		.loc 1 1492 3 is_stmt 1 view .LVU1511
 6944              		.loc 1 1492 6 is_stmt 0 view .LVU1512
 6945 000a 30B1     		cbz	r0, .L482
1493:App/Src/fault_command.c ****   {
1494:App/Src/fault_command.c ****     return;
1495:App/Src/fault_command.c ****   }
1496:App/Src/fault_command.c **** 
1497:App/Src/fault_command.c ****   if (*line == '{')
 6946              		.loc 1 1497 3 is_stmt 1 view .LVU1513
 6947              		.loc 1 1497 7 is_stmt 0 view .LVU1514
 6948 000c 0278     		ldrb	r2, [r0]	@ zero_extendqisi2
 6949              		.loc 1 1497 6 view .LVU1515
 6950 000e 7B2A     		cmp	r2, #123
 6951 0010 04D0     		beq	.L486
1498:App/Src/fault_command.c ****   {
1499:App/Src/fault_command.c ****     FaultCommand_ExecuteJson(line, write, context);
1500:App/Src/fault_command.c ****   }
1501:App/Src/fault_command.c ****   else
1502:App/Src/fault_command.c ****   {
1503:App/Src/fault_command.c ****     FaultCommand_ExecuteText(line, write, context);
 6952              		.loc 1 1503 5 is_stmt 1 view .LVU1516
 6953 0012 2A46     		mov	r2, r5
 6954 0014 2146     		mov	r1, r4
 6955 0016 FFF7FEFF 		bl	FaultCommand_ExecuteText
 6956              	.LVL733:
 6957              	.L482:
1504:App/Src/fault_command.c ****   }
1505:App/Src/fault_command.c **** }
 6958              		.loc 1 1505 1 is_stmt 0 view .LVU1517
 6959 001a 38BD     		pop	{r3, r4, r5, pc}
 6960              	.LVL734:
 6961              	.L486:
1499:App/Src/fault_command.c ****   }
 6962              		.loc 1 1499 5 is_stmt 1 view .LVU1518
 6963 001c 2A46     		mov	r2, r5
ARM GAS  C:\Users\hh\AppData\Local\Temp\ccnvB5Va.s 			page 181


 6964 001e 2146     		mov	r1, r4
 6965 0020 FFF7FEFF 		bl	FaultCommand_ExecuteJson
 6966              	.LVL735:
1499:App/Src/fault_command.c ****   }
 6967              		.loc 1 1499 5 is_stmt 0 view .LVU1519
 6968 0024 F9E7     		b	.L482
 6969              		.cfi_endproc
 6970              	.LFE181:
 6972              		.text
 6973              	.Letext0:
 6974              		.file 2 "C:/Program Files (x86)/ARM/arm-gnu-toolchain-15.2.rel1-mingw-w64-i686-arm-none-eabi/arm-n
 6975              		.file 3 "C:/Program Files (x86)/ARM/arm-gnu-toolchain-15.2.rel1-mingw-w64-i686-arm-none-eabi/arm-n
 6976              		.file 4 "Drivers/STM32H7xx_HAL_Driver/Inc/stm32h7xx_hal_def.h"
 6977              		.file 5 "App/Inc/fault_command.h"
 6978              		.file 6 "C:/Program Files (x86)/ARM/arm-gnu-toolchain-15.2.rel1-mingw-w64-i686-arm-none-eabi/lib/g
 6979              		.file 7 "BSP/Inc/bsp_can.h"
 6980              		.file 8 "App/Inc/bms_response_log.h"
 6981              		.file 9 "BSP/Inc/bsp_sram.h"
 6982              		.file 10 "App/Inc/voltage_sim.h"
 6983              		.file 11 "App/Inc/dac_safety.h"
 6984              		.file 12 "App/Inc/waveform_gen.h"
 6985              		.file 13 "C:/Program Files (x86)/ARM/arm-gnu-toolchain-15.2.rel1-mingw-w64-i686-arm-none-eabi/arm-
 6986              		.file 14 "C:/Program Files (x86)/ARM/arm-gnu-toolchain-15.2.rel1-mingw-w64-i686-arm-none-eabi/arm-
 6987              		.file 15 "C:/Program Files (x86)/ARM/arm-gnu-toolchain-15.2.rel1-mingw-w64-i686-arm-none-eabi/arm-
 6988              		.file 16 "<built-in>"
ARM GAS  C:\Users\hh\AppData\Local\Temp\ccnvB5Va.s 			page 182


DEFINED SYMBOLS
                            *ABS*:00000000 fault_command.c
C:\Users\hh\AppData\Local\Temp\ccnvB5Va.s:20     .text.FaultCommand_Write:00000000 $t
C:\Users\hh\AppData\Local\Temp\ccnvB5Va.s:25     .text.FaultCommand_Write:00000000 FaultCommand_Write
C:\Users\hh\AppData\Local\Temp\ccnvB5Va.s:65     .text.FaultCommand_SkipSpaces:00000000 $t
C:\Users\hh\AppData\Local\Temp\ccnvB5Va.s:70     .text.FaultCommand_SkipSpaces:00000000 FaultCommand_SkipSpaces
C:\Users\hh\AppData\Local\Temp\ccnvB5Va.s:102    .rodata.FaultCommand_WriteTextHelp.str1.4:00000000 $d
C:\Users\hh\AppData\Local\Temp\ccnvB5Va.s:207    .text.FaultCommand_WriteTextHelp:00000000 $t
C:\Users\hh\AppData\Local\Temp\ccnvB5Va.s:212    .text.FaultCommand_WriteTextHelp:00000000 FaultCommand_WriteTextHelp
C:\Users\hh\AppData\Local\Temp\ccnvB5Va.s:420    .text.FaultCommand_WriteTextHelp:0000013c $d
C:\Users\hh\AppData\Local\Temp\ccnvB5Va.s:455    .text.FaultCommand_RunCalibrationTrim:00000000 $t
C:\Users\hh\AppData\Local\Temp\ccnvB5Va.s:460    .text.FaultCommand_RunCalibrationTrim:00000000 FaultCommand_RunCalibrationTrim
C:\Users\hh\AppData\Local\Temp\ccnvB5Va.s:517    .text.FaultCommand_RunSet:00000000 $t
C:\Users\hh\AppData\Local\Temp\ccnvB5Va.s:522    .text.FaultCommand_RunSet:00000000 FaultCommand_RunSet
C:\Users\hh\AppData\Local\Temp\ccnvB5Va.s:566    .text.FaultCommand_RunOverVoltage:00000000 $t
C:\Users\hh\AppData\Local\Temp\ccnvB5Va.s:571    .text.FaultCommand_RunOverVoltage:00000000 FaultCommand_RunOverVoltage
C:\Users\hh\AppData\Local\Temp\ccnvB5Va.s:655    .text.FaultCommand_RunUnderVoltage:00000000 $t
C:\Users\hh\AppData\Local\Temp\ccnvB5Va.s:660    .text.FaultCommand_RunUnderVoltage:00000000 FaultCommand_RunUnderVoltage
C:\Users\hh\AppData\Local\Temp\ccnvB5Va.s:744    .text.FaultCommand_RunDiff:00000000 $t
C:\Users\hh\AppData\Local\Temp\ccnvB5Va.s:749    .text.FaultCommand_RunDiff:00000000 FaultCommand_RunDiff
C:\Users\hh\AppData\Local\Temp\ccnvB5Va.s:837    .text.FaultCommand_WriteFormat:00000000 $t
C:\Users\hh\AppData\Local\Temp\ccnvB5Va.s:842    .text.FaultCommand_WriteFormat:00000000 FaultCommand_WriteFormat
C:\Users\hh\AppData\Local\Temp\ccnvB5Va.s:915    .rodata.FaultCommand_WriteJsonStatus.str1.4:00000000 $d
C:\Users\hh\AppData\Local\Temp\ccnvB5Va.s:937    .text.FaultCommand_WriteJsonStatus:00000000 $t
C:\Users\hh\AppData\Local\Temp\ccnvB5Va.s:942    .text.FaultCommand_WriteJsonStatus:00000000 FaultCommand_WriteJsonStatus
C:\Users\hh\AppData\Local\Temp\ccnvB5Va.s:1118   .text.FaultCommand_WriteJsonStatus:000000e8 $d
C:\Users\hh\AppData\Local\Temp\ccnvB5Va.s:1127   .rodata.FaultCommand_WriteJsonSafetyStatus.str1.4:00000000 $d
C:\Users\hh\AppData\Local\Temp\ccnvB5Va.s:1134   .text.FaultCommand_WriteJsonSafetyStatus:00000000 $t
C:\Users\hh\AppData\Local\Temp\ccnvB5Va.s:1139   .text.FaultCommand_WriteJsonSafetyStatus:00000000 FaultCommand_WriteJsonSafetyStatus
C:\Users\hh\AppData\Local\Temp\ccnvB5Va.s:1201   .text.FaultCommand_WriteJsonSafetyStatus:00000040 $d
C:\Users\hh\AppData\Local\Temp\ccnvB5Va.s:1206   .rodata.FaultCommand_WriteJsonResult.str1.4:00000000 $d
C:\Users\hh\AppData\Local\Temp\ccnvB5Va.s:1216   .text.FaultCommand_WriteJsonResult:00000000 $t
C:\Users\hh\AppData\Local\Temp\ccnvB5Va.s:1221   .text.FaultCommand_WriteJsonResult:00000000 FaultCommand_WriteJsonResult
C:\Users\hh\AppData\Local\Temp\ccnvB5Va.s:1268   .text.FaultCommand_WriteJsonResult:00000018 $d
C:\Users\hh\AppData\Local\Temp\ccnvB5Va.s:1275   .rodata.FaultCommand_WriteTextStatus.str1.4:00000000 $d
C:\Users\hh\AppData\Local\Temp\ccnvB5Va.s:1296   .text.FaultCommand_WriteTextStatus:00000000 $t
C:\Users\hh\AppData\Local\Temp\ccnvB5Va.s:1301   .text.FaultCommand_WriteTextStatus:00000000 FaultCommand_WriteTextStatus
C:\Users\hh\AppData\Local\Temp\ccnvB5Va.s:1471   .text.FaultCommand_WriteTextStatus:000000c8 $d
C:\Users\hh\AppData\Local\Temp\ccnvB5Va.s:1481   .rodata.FaultCommand_WriteTextWaveStatus.str1.4:00000000 $d
C:\Users\hh\AppData\Local\Temp\ccnvB5Va.s:1486   .text.FaultCommand_WriteTextWaveStatus:00000000 $t
C:\Users\hh\AppData\Local\Temp\ccnvB5Va.s:1491   .text.FaultCommand_WriteTextWaveStatus:00000000 FaultCommand_WriteTextWaveStatus
C:\Users\hh\AppData\Local\Temp\ccnvB5Va.s:1552   .text.FaultCommand_WriteTextWaveStatus:0000003c $d
C:\Users\hh\AppData\Local\Temp\ccnvB5Va.s:1557   .rodata.FaultCommand_WriteTextCalibrationStatus.str1.4:00000000 $d
C:\Users\hh\AppData\Local\Temp\ccnvB5Va.s:1564   .text.FaultCommand_WriteTextCalibrationStatus:00000000 $t
C:\Users\hh\AppData\Local\Temp\ccnvB5Va.s:1569   .text.FaultCommand_WriteTextCalibrationStatus:00000000 FaultCommand_WriteTextCalibrationStatus
C:\Users\hh\AppData\Local\Temp\ccnvB5Va.s:1637   .text.FaultCommand_WriteTextCalibrationStatus:00000034 $d
C:\Users\hh\AppData\Local\Temp\ccnvB5Va.s:1643   .rodata.FaultCommand_WriteTextSafetyStatus.str1.4:00000000 $d
C:\Users\hh\AppData\Local\Temp\ccnvB5Va.s:1649   .text.FaultCommand_WriteTextSafetyStatus:00000000 $t
C:\Users\hh\AppData\Local\Temp\ccnvB5Va.s:1654   .text.FaultCommand_WriteTextSafetyStatus:00000000 FaultCommand_WriteTextSafetyStatus
C:\Users\hh\AppData\Local\Temp\ccnvB5Va.s:1716   .text.FaultCommand_WriteTextSafetyStatus:00000040 $d
C:\Users\hh\AppData\Local\Temp\ccnvB5Va.s:1721   .rodata.FaultCommand_WriteTextResult.str1.4:00000000 $d
C:\Users\hh\AppData\Local\Temp\ccnvB5Va.s:1731   .text.FaultCommand_WriteTextResult:00000000 $t
C:\Users\hh\AppData\Local\Temp\ccnvB5Va.s:1736   .text.FaultCommand_WriteTextResult:00000000 FaultCommand_WriteTextResult
C:\Users\hh\AppData\Local\Temp\ccnvB5Va.s:1784   .text.FaultCommand_WriteTextResult:0000001c $d
C:\Users\hh\AppData\Local\Temp\ccnvB5Va.s:1791   .rodata.FaultCommand_FindJsonKey.str1.4:00000000 $d
C:\Users\hh\AppData\Local\Temp\ccnvB5Va.s:1795   .text.FaultCommand_FindJsonKey:00000000 $t
C:\Users\hh\AppData\Local\Temp\ccnvB5Va.s:1800   .text.FaultCommand_FindJsonKey:00000000 FaultCommand_FindJsonKey
ARM GAS  C:\Users\hh\AppData\Local\Temp\ccnvB5Va.s 			page 183


C:\Users\hh\AppData\Local\Temp\ccnvB5Va.s:1848   .text.FaultCommand_FindJsonKey:00000020 $d
C:\Users\hh\AppData\Local\Temp\ccnvB5Va.s:1853   .text.FaultCommand_JsonGetInt:00000000 $t
C:\Users\hh\AppData\Local\Temp\ccnvB5Va.s:1858   .text.FaultCommand_JsonGetInt:00000000 FaultCommand_JsonGetInt
C:\Users\hh\AppData\Local\Temp\ccnvB5Va.s:1936   .text.FaultCommand_JsonGetString:00000000 $t
C:\Users\hh\AppData\Local\Temp\ccnvB5Va.s:1941   .text.FaultCommand_JsonGetString:00000000 FaultCommand_JsonGetString
C:\Users\hh\AppData\Local\Temp\ccnvB5Va.s:2079   .text.FaultCommand_RunNormal:00000000 $t
C:\Users\hh\AppData\Local\Temp\ccnvB5Va.s:2084   .text.FaultCommand_RunNormal:00000000 FaultCommand_RunNormal
C:\Users\hh\AppData\Local\Temp\ccnvB5Va.s:2124   .rodata.FaultCommand_WriteJsonCanStatus.str1.4:00000000 $d
C:\Users\hh\AppData\Local\Temp\ccnvB5Va.s:2137   .text.FaultCommand_WriteJsonCanStatus:00000000 $t
C:\Users\hh\AppData\Local\Temp\ccnvB5Va.s:2142   .text.FaultCommand_WriteJsonCanStatus:00000000 FaultCommand_WriteJsonCanStatus
C:\Users\hh\AppData\Local\Temp\ccnvB5Va.s:2254   .text.FaultCommand_WriteJsonCanStatus:00000078 $d
C:\Users\hh\AppData\Local\Temp\ccnvB5Va.s:2263   .rodata.FaultCommand_WriteTextCanStatus.str1.4:00000000 $d
C:\Users\hh\AppData\Local\Temp\ccnvB5Va.s:2274   .text.FaultCommand_WriteTextCanStatus:00000000 $t
C:\Users\hh\AppData\Local\Temp\ccnvB5Va.s:2279   .text.FaultCommand_WriteTextCanStatus:00000000 FaultCommand_WriteTextCanStatus
C:\Users\hh\AppData\Local\Temp\ccnvB5Va.s:2389   .text.FaultCommand_WriteTextCanStatus:00000074 $d
C:\Users\hh\AppData\Local\Temp\ccnvB5Va.s:2398   .rodata.FaultCommand_WriteJsonBmsResponseLog.str1.4:00000000 $d
C:\Users\hh\AppData\Local\Temp\ccnvB5Va.s:2408   .text.FaultCommand_WriteJsonBmsResponseLog:00000000 $t
C:\Users\hh\AppData\Local\Temp\ccnvB5Va.s:2413   .text.FaultCommand_WriteJsonBmsResponseLog:00000000 FaultCommand_WriteJsonBmsResponseLog
C:\Users\hh\AppData\Local\Temp\ccnvB5Va.s:2547   .text.FaultCommand_WriteJsonBmsResponseLog:000000a8 $d
C:\Users\hh\AppData\Local\Temp\ccnvB5Va.s:2556   .rodata.FaultCommand_WriteTextBmsResponseLog.str1.4:00000000 $d
C:\Users\hh\AppData\Local\Temp\ccnvB5Va.s:2565   .text.FaultCommand_WriteTextBmsResponseLog:00000000 $t
C:\Users\hh\AppData\Local\Temp\ccnvB5Va.s:2570   .text.FaultCommand_WriteTextBmsResponseLog:00000000 FaultCommand_WriteTextBmsResponseLog
C:\Users\hh\AppData\Local\Temp\ccnvB5Va.s:2716   .text.FaultCommand_WriteTextBmsResponseLog:000000b0 $d
C:\Users\hh\AppData\Local\Temp\ccnvB5Va.s:2727   .rodata.FaultCommand_WriteJsonSramStatus.str1.4:00000000 $d
C:\Users\hh\AppData\Local\Temp\ccnvB5Va.s:2746   .text.FaultCommand_WriteJsonSramStatus:00000000 $t
C:\Users\hh\AppData\Local\Temp\ccnvB5Va.s:2751   .text.FaultCommand_WriteJsonSramStatus:00000000 FaultCommand_WriteJsonSramStatus
C:\Users\hh\AppData\Local\Temp\ccnvB5Va.s:2869   .text.FaultCommand_WriteJsonSramStatus:00000088 $d
C:\Users\hh\AppData\Local\Temp\ccnvB5Va.s:2880   .rodata.FaultCommand_WriteTextSramStatus.str1.4:00000000 $d
C:\Users\hh\AppData\Local\Temp\ccnvB5Va.s:2889   .text.FaultCommand_WriteTextSramStatus:00000000 $t
C:\Users\hh\AppData\Local\Temp\ccnvB5Va.s:2894   .text.FaultCommand_WriteTextSramStatus:00000000 FaultCommand_WriteTextSramStatus
C:\Users\hh\AppData\Local\Temp\ccnvB5Va.s:2993   .text.FaultCommand_WriteTextSramStatus:00000074 $d
C:\Users\hh\AppData\Local\Temp\ccnvB5Va.s:3000   .text.FaultCommand_JsonGetUint:00000000 $t
C:\Users\hh\AppData\Local\Temp\ccnvB5Va.s:3005   .text.FaultCommand_JsonGetUint:00000000 FaultCommand_JsonGetUint
C:\Users\hh\AppData\Local\Temp\ccnvB5Va.s:3083   .text.FaultCommand_JsonGetUintDefault:00000000 $t
C:\Users\hh\AppData\Local\Temp\ccnvB5Va.s:3088   .text.FaultCommand_JsonGetUintDefault:00000000 FaultCommand_JsonGetUintDefault
C:\Users\hh\AppData\Local\Temp\ccnvB5Va.s:3125   .rodata.FaultCommand_ExecuteJson.str1.4:00000000 $d
C:\Users\hh\AppData\Local\Temp\ccnvB5Va.s:3291   .text.FaultCommand_ExecuteJson:00000000 $t
C:\Users\hh\AppData\Local\Temp\ccnvB5Va.s:3296   .text.FaultCommand_ExecuteJson:00000000 FaultCommand_ExecuteJson
C:\Users\hh\AppData\Local\Temp\ccnvB5Va.s:3857   .text.FaultCommand_ExecuteJson:000002a0 $d
C:\Users\hh\AppData\Local\Temp\ccnvB5Va.s:3892   .text.FaultCommand_ExecuteJson:00000314 $t
C:\Users\hh\AppData\Local\Temp\ccnvB5Va.s:4501   .text.FaultCommand_ExecuteJson:00000594 $d
C:\Users\hh\AppData\Local\Temp\ccnvB5Va.s:4530   .text.FaultCommand_ExecuteJson:000005f0 $t
C:\Users\hh\AppData\Local\Temp\ccnvB5Va.s:5165   .text.FaultCommand_ExecuteJson:00000868 $d
C:\Users\hh\AppData\Local\Temp\ccnvB5Va.s:5190   .text.FaultCommand_ExecuteJson:000008b4 $t
C:\Users\hh\AppData\Local\Temp\ccnvB5Va.s:5320   .text.FaultCommand_ExecuteJson:00000950 $d
C:\Users\hh\AppData\Local\Temp\ccnvB5Va.s:5330   .rodata.FaultCommand_ParseCanSendText.str1.4:00000000 $d
C:\Users\hh\AppData\Local\Temp\ccnvB5Va.s:5334   .text.FaultCommand_ParseCanSendText:00000000 $t
C:\Users\hh\AppData\Local\Temp\ccnvB5Va.s:5339   .text.FaultCommand_ParseCanSendText:00000000 FaultCommand_ParseCanSendText
C:\Users\hh\AppData\Local\Temp\ccnvB5Va.s:5509   .text.FaultCommand_ParseCanSendText:0000008c $d
C:\Users\hh\AppData\Local\Temp\ccnvB5Va.s:5514   .rodata.FaultCommand_ExecuteText.str1.4:00000000 $d
C:\Users\hh\AppData\Local\Temp\ccnvB5Va.s:5644   .text.FaultCommand_ExecuteText:00000000 $t
C:\Users\hh\AppData\Local\Temp\ccnvB5Va.s:5649   .text.FaultCommand_ExecuteText:00000000 FaultCommand_ExecuteText
C:\Users\hh\AppData\Local\Temp\ccnvB5Va.s:6137   .text.FaultCommand_ExecuteText:000002b8 $d
C:\Users\hh\AppData\Local\Temp\ccnvB5Va.s:6180   .text.FaultCommand_ExecuteText:00000344 $t
C:\Users\hh\AppData\Local\Temp\ccnvB5Va.s:6665   .text.FaultCommand_ExecuteText:0000062c $d
C:\Users\hh\AppData\Local\Temp\ccnvB5Va.s:6680   .text.FaultCommand_ExecuteText:00000660 $t
C:\Users\hh\AppData\Local\Temp\ccnvB5Va.s:6900   .text.FaultCommand_ExecuteText:0000079c $d
ARM GAS  C:\Users\hh\AppData\Local\Temp\ccnvB5Va.s 			page 184


C:\Users\hh\AppData\Local\Temp\ccnvB5Va.s:6916   .text.FaultCommand_ExecuteLine:00000000 $t
C:\Users\hh\AppData\Local\Temp\ccnvB5Va.s:6922   .text.FaultCommand_ExecuteLine:00000000 FaultCommand_ExecuteLine

UNDEFINED SYMBOLS
VoltageSim_GetCellCalibrationOffsetMv
VoltageSim_SetCellCalibrationOffsetMv
DacSafety_IsOutputAllowed
WaveformGen_Stop
VoltageSim_SetCellVoltageMv
VoltageSim_InjectCellOverVoltageRamp
BmsResponseLog_RecordFaultTrigger
VoltageSim_InjectCellUnderVoltageRamp
VoltageSim_InjectVoltageDifference
vsnprintf
WaveformGen_GetStatus
DacSafety_GetStatus
VoltageSim_GetActiveFaultCount
WaveformGen_GetTypeName
VoltageSim_GetLastCellVoltageMv
VoltageSim_GetFaultTypeName
VoltageSim_GetCellFaultInfo
snprintf
strstr
strchr
strtol
VoltageSim_SetAllCellsVoltageMv
BspCan_GetStatus
BmsResponseLog_GetStatus
BmsResponseLog_GetTriggerName
BspSram_GetStatus
BspSram_GetResultName
strtoul
strcmp
WaveformGen_StartSquare
WaveformGen_StartSine
WaveformGen_StartSineAll
VoltageSim_ClearCellCalibrationOffset
VoltageSim_ClearAllCalibrationOffsets
BspCan_SendClassic
BmsResponseLog_Clear
DacSafety_EmergencyStop
DacSafety_Release
BspSram_RunSelfTest
VoltageSim_ClearCellFault
VoltageSim_ClearAllFaults
sscanf
strncmp
