ARM GAS  C:\Users\hh\AppData\Local\Temp\cc8MU7EM.s 			page 1


   1              		.cpu cortex-m7
   2              		.arch armv7e-m
   3              		.fpu fpv5-d16
   4              		.eabi_attribute 28, 1
   5              		.eabi_attribute 20, 1
   6              		.eabi_attribute 21, 1
   7              		.eabi_attribute 23, 3
   8              		.eabi_attribute 24, 1
   9              		.eabi_attribute 25, 1
  10              		.eabi_attribute 26, 1
  11              		.eabi_attribute 30, 1
  12              		.eabi_attribute 34, 1
  13              		.eabi_attribute 18, 4
  14              		.file	"fault_command.c"
  15              		.text
  16              	.Ltext0:
  17              		.cfi_sections	.debug_frame
  18              		.file 1 "App/Src/fault_command.c"
  19              		.section	.text.FaultCommand_Write,"ax",%progbits
  20              		.align	1
  21              		.syntax unified
  22              		.thumb
  23              		.thumb_func
  25              	FaultCommand_Write:
  26              	.LVL0:
  27              	.LFB149:
   1:App/Src/fault_command.c **** #include "fault_command.h"
   2:App/Src/fault_command.c **** 
   3:App/Src/fault_command.c **** #include <stdarg.h>
   4:App/Src/fault_command.c **** #include <stdio.h>
   5:App/Src/fault_command.c **** #include <stdlib.h>
   6:App/Src/fault_command.c **** #include <string.h>
   7:App/Src/fault_command.c **** 
   8:App/Src/fault_command.c **** #include "bms_response_log.h"
   9:App/Src/fault_command.c **** #include "bsp_can.h"
  10:App/Src/fault_command.c **** #include "voltage_sim.h"
  11:App/Src/fault_command.c **** #include "waveform_gen.h"
  12:App/Src/fault_command.c **** 
  13:App/Src/fault_command.c **** #define FAULT_COMMAND_DEFAULT_DURATION_MS 100U
  14:App/Src/fault_command.c **** #define FAULT_COMMAND_DEFAULT_SLEW_MV_PER_MS 3000U
  15:App/Src/fault_command.c **** 
  16:App/Src/fault_command.c **** static void FaultCommand_Write(FaultCommand_WriteFn write, void *context, const char *text)
  17:App/Src/fault_command.c **** {
  28              		.loc 1 17 1 view -0
  29              		.cfi_startproc
  30              		@ args = 0, pretend = 0, frame = 0
  31              		@ frame_needed = 0, uses_anonymous_args = 0
  18:App/Src/fault_command.c ****   if ((write != NULL) && (text != NULL))
  32              		.loc 1 18 3 view .LVU1
  33              		.loc 1 18 6 is_stmt 0 view .LVU2
  34 0000 0028     		cmp	r0, #0
  35 0002 18BF     		it	ne
  36 0004 002A     		cmpne	r2, #0
  37 0006 04D0     		beq	.L4
  17:App/Src/fault_command.c ****   if ((write != NULL) && (text != NULL))
  38              		.loc 1 17 1 view .LVU3
  39 0008 08B5     		push	{r3, lr}
ARM GAS  C:\Users\hh\AppData\Local\Temp\cc8MU7EM.s 			page 2


  40              	.LCFI0:
  41              		.cfi_def_cfa_offset 8
  42              		.cfi_offset 3, -8
  43              		.cfi_offset 14, -4
  44 000a 0346     		mov	r3, r0
  19:App/Src/fault_command.c ****   {
  20:App/Src/fault_command.c ****     write(text, context);
  45              		.loc 1 20 5 is_stmt 1 view .LVU4
  46 000c 1046     		mov	r0, r2
  47              	.LVL1:
  48              		.loc 1 20 5 is_stmt 0 view .LVU5
  49 000e 9847     		blx	r3
  50              	.LVL2:
  21:App/Src/fault_command.c ****   }
  22:App/Src/fault_command.c **** }
  51              		.loc 1 22 1 view .LVU6
  52 0010 08BD     		pop	{r3, pc}
  53              	.LVL3:
  54              	.L4:
  55              	.LCFI1:
  56              		.cfi_def_cfa_offset 0
  57              		.cfi_restore 3
  58              		.cfi_restore 14
  59              		.loc 1 22 1 view .LVU7
  60 0012 7047     		bx	lr
  61              		.cfi_endproc
  62              	.LFE149:
  64              		.section	.text.FaultCommand_SkipSpaces,"ax",%progbits
  65              		.align	1
  66              		.syntax unified
  67              		.thumb
  68              		.thumb_func
  70              	FaultCommand_SkipSpaces:
  71              	.LVL4:
  72              	.LFB151:
  23:App/Src/fault_command.c **** 
  24:App/Src/fault_command.c **** static void FaultCommand_WriteFormat(FaultCommand_WriteFn write,
  25:App/Src/fault_command.c ****                                      void *context,
  26:App/Src/fault_command.c ****                                      const char *format,
  27:App/Src/fault_command.c ****                                      ...)
  28:App/Src/fault_command.c **** {
  29:App/Src/fault_command.c ****   char buffer[192];
  30:App/Src/fault_command.c ****   va_list args;
  31:App/Src/fault_command.c **** 
  32:App/Src/fault_command.c ****   va_start(args, format);
  33:App/Src/fault_command.c ****   (void)vsnprintf(buffer, sizeof(buffer), format, args);
  34:App/Src/fault_command.c ****   va_end(args);
  35:App/Src/fault_command.c **** 
  36:App/Src/fault_command.c ****   FaultCommand_Write(write, context, buffer);
  37:App/Src/fault_command.c **** }
  38:App/Src/fault_command.c **** 
  39:App/Src/fault_command.c **** static const char *FaultCommand_SkipSpaces(const char *text)
  40:App/Src/fault_command.c **** {
  73              		.loc 1 40 1 is_stmt 1 view -0
  74              		.cfi_startproc
  75              		@ args = 0, pretend = 0, frame = 0
  76              		@ frame_needed = 0, uses_anonymous_args = 0
ARM GAS  C:\Users\hh\AppData\Local\Temp\cc8MU7EM.s 			page 3


  77              		@ link register save eliminated.
  41:App/Src/fault_command.c ****   while ((text != NULL) && (*text == ' '))
  78              		.loc 1 41 3 view .LVU9
  79              		.loc 1 41 9 is_stmt 0 view .LVU10
  80 0000 00E0     		b	.L8
  81              	.L10:
  42:App/Src/fault_command.c ****   {
  43:App/Src/fault_command.c ****     text++;
  82              		.loc 1 43 5 is_stmt 1 view .LVU11
  83              		.loc 1 43 9 is_stmt 0 view .LVU12
  84 0002 0130     		adds	r0, r0, #1
  85              	.LVL5:
  86              	.L8:
  41:App/Src/fault_command.c ****   while ((text != NULL) && (*text == ' '))
  87              		.loc 1 41 25 is_stmt 1 view .LVU13
  88 0004 10B1     		cbz	r0, .L9
  41:App/Src/fault_command.c ****   while ((text != NULL) && (*text == ' '))
  89              		.loc 1 41 29 is_stmt 0 discriminator 1 view .LVU14
  90 0006 0378     		ldrb	r3, [r0]	@ zero_extendqisi2
  41:App/Src/fault_command.c ****   while ((text != NULL) && (*text == ' '))
  91              		.loc 1 41 25 discriminator 1 view .LVU15
  92 0008 202B     		cmp	r3, #32
  93 000a FAD0     		beq	.L10
  94              	.L9:
  44:App/Src/fault_command.c ****   }
  45:App/Src/fault_command.c **** 
  46:App/Src/fault_command.c ****   return text;
  95              		.loc 1 46 3 is_stmt 1 view .LVU16
  47:App/Src/fault_command.c **** }
  96              		.loc 1 47 1 is_stmt 0 view .LVU17
  97 000c 7047     		bx	lr
  98              		.cfi_endproc
  99              	.LFE151:
 101              		.section	.rodata.FaultCommand_WriteTextHelp.str1.4,"aMS",%progbits,1
 102              		.align	2
 103              	.LC0:
 104 0000 0D0A5B63 		.ascii	"\015\012[cmd] help\015\012\000"
 104      6D645D20 
 104      68656C70 
 104      0D0A00
 105 000f 00       		.align	2
 106              	.LC1:
 107 0010 20206865 		.ascii	"  help\015\012\000"
 107      6C700D0A 
 107      00
 108 0019 000000   		.align	2
 109              	.LC2:
 110 001c 20207374 		.ascii	"  status\015\012\000"
 110      61747573 
 110      0D0A00
 111 0027 00       		.align	2
 112              	.LC3:
 113 0028 20206E6F 		.ascii	"  normal [mv]\015\012\000"
 113      726D616C 
 113      205B6D76 
 113      5D0D0A00 
 114              		.align	2
ARM GAS  C:\Users\hh\AppData\Local\Temp\cc8MU7EM.s 			page 4


 115              	.LC4:
 116 0038 20207365 		.ascii	"  set <cell> <mv>\015\012\000"
 116      74203C63 
 116      656C6C3E 
 116      203C6D76 
 116      3E0D0A00 
 117              		.align	2
 118              	.LC5:
 119 004c 20206F76 		.ascii	"  ov <cell> [mv] [duration_ms] [slew_mv_per_ms]\015"
 119      203C6365 
 119      6C6C3E20 
 119      5B6D765D 
 119      205B6475 
 120 007c 0A00     		.ascii	"\012\000"
 121 007e 0000     		.align	2
 122              	.LC6:
 123 0080 20207576 		.ascii	"  uv <cell> [mv] [duration_ms] [slew_mv_per_ms]\015"
 123      203C6365 
 123      6C6C3E20 
 123      5B6D765D 
 123      205B6475 
 124 00b0 0A00     		.ascii	"\012\000"
 125 00b2 0000     		.align	2
 126              	.LC7:
 127 00b4 20206469 		.ascii	"  diff <high_cell> <high_mv> <low_cell> <low_mv> [d"
 127      6666203C 
 127      68696768 
 127      5F63656C 
 127      6C3E203C 
 128 00e7 75726174 		.ascii	"uration_ms] [slew_mv_per_ms]\015\012\000"
 128      696F6E5F 
 128      6D735D20 
 128      5B736C65 
 128      775F6D76 
 129 0106 0000     		.align	2
 130              	.LC8:
 131 0108 20207761 		.ascii	"  wave status\015\012\000"
 131      76652073 
 131      74617475 
 131      730D0A00 
 132              		.align	2
 133              	.LC9:
 134 0118 20207761 		.ascii	"  wave stop\015\012\000"
 134      76652073 
 134      746F700D 
 134      0A00
 135 0126 0000     		.align	2
 136              	.LC10:
 137 0128 20207761 		.ascii	"  wave square <cell> <low_mv> <high_mv> <period_ms>"
 137      76652073 
 137      71756172 
 137      65203C63 
 137      656C6C3E 
 138 015b 0D0A00   		.ascii	"\015\012\000"
 139 015e 0000     		.align	2
 140              	.LC11:
 141 0160 20207761 		.ascii	"  wave sine <cell> <offset_mv> <amplitude_mv> <peri"
ARM GAS  C:\Users\hh\AppData\Local\Temp\cc8MU7EM.s 			page 5


 141      76652073 
 141      696E6520 
 141      3C63656C 
 141      6C3E203C 
 142 0193 6F645F6D 		.ascii	"od_ms>\015\012\000"
 142      733E0D0A 
 142      00
 143              		.align	2
 144              	.LC12:
 145 019c 20207761 		.ascii	"  wave sine all <offset_mv> <amplitude_mv> <period_"
 145      76652073 
 145      696E6520 
 145      616C6C20 
 145      3C6F6666 
 146 01cf 6D733E0D 		.ascii	"ms>\015\012\000"
 146      0A00
 147 01d5 000000   		.align	2
 148              	.LC13:
 149 01d8 20206361 		.ascii	"  cal status\015\012\000"
 149      6C207374 
 149      61747573 
 149      0D0A00
 150 01e7 00       		.align	2
 151              	.LC14:
 152 01e8 20206361 		.ascii	"  cal set <cell> <offset_mv>\015\012\000"
 152      6C207365 
 152      74203C63 
 152      656C6C3E 
 152      203C6F66 
 153 0207 00       		.align	2
 154              	.LC15:
 155 0208 20206361 		.ascii	"  cal trim <cell> <target_mv> <measured_mv>\015\012"
 155      6C207472 
 155      696D203C 
 155      63656C6C 
 155      3E203C74 
 156 0235 00       		.ascii	"\000"
 157 0236 0000     		.align	2
 158              	.LC16:
 159 0238 20206361 		.ascii	"  cal clear [cell]\015\012\000"
 159      6C20636C 
 159      65617220 
 159      5B63656C 
 159      6C5D0D0A 
 160 024d 000000   		.align	2
 161              	.LC17:
 162 0250 20207465 		.ascii	"  test static <mv>\015\012\000"
 162      73742073 
 162      74617469 
 162      63203C6D 
 162      763E0D0A 
 163 0265 000000   		.align	2
 164              	.LC18:
 165 0268 20207465 		.ascii	"  test slew <cell> <low_mv> <high_mv> <period_ms>\015"
 165      73742073 
 165      6C657720 
 165      3C63656C 
ARM GAS  C:\Users\hh\AppData\Local\Temp\cc8MU7EM.s 			page 6


 165      6C3E203C 
 166 029a 0A00     		.ascii	"\012\000"
 167              		.align	2
 168              	.LC19:
 169 029c 20206361 		.ascii	"  can status\015\012\000"
 169      6E207374 
 169      61747573 
 169      0D0A00
 170 02ab 00       		.align	2
 171              	.LC20:
 172 02ac 20206361 		.ascii	"  can send <std_id_hex> <len> [byte_hex ...]\015\012"
 172      6E207365 
 172      6E64203C 
 172      7374645F 
 172      69645F68 
 173 02da 00       		.ascii	"\000"
 174 02db 00       		.align	2
 175              	.LC21:
 176 02dc 20206C6F 		.ascii	"  log status\015\012\000"
 176      67207374 
 176      61747573 
 176      0D0A00
 177 02eb 00       		.align	2
 178              	.LC22:
 179 02ec 20206C6F 		.ascii	"  log clear\015\012\000"
 179      6720636C 
 179      6561720D 
 179      0A00
 180 02fa 0000     		.align	2
 181              	.LC23:
 182 02fc 2020636C 		.ascii	"  clear [cell]\015\012\000"
 182      65617220 
 182      5B63656C 
 182      6C5D0D0A 
 182      00
 183 030d 000000   		.align	2
 184              	.LC24:
 185 0310 20204A53 		.ascii	"  JSON examples: {\"cmd\":\"status\"}, {\"cmd\":\"c"
 185      4F4E2065 
 185      78616D70 
 185      6C65733A 
 185      207B2263 
 186 033c 616C222C 		.ascii	"al\",\"action\":\"trim\",\"cell\":1,\"target_mv\":2"
 186      22616374 
 186      696F6E22 
 186      3A227472 
 186      696D222C 
 187 0366 3530302C 		.ascii	"500,\"measured_mv\":2485}\015\012\000"
 187      226D6561 
 187      73757265 
 187      645F6D76 
 187      223A3234 
 188              		.section	.text.FaultCommand_WriteTextHelp,"ax",%progbits
 189              		.align	1
 190              		.syntax unified
 191              		.thumb
 192              		.thumb_func
ARM GAS  C:\Users\hh\AppData\Local\Temp\cc8MU7EM.s 			page 7


 194              	FaultCommand_WriteTextHelp:
 195              	.LVL6:
 196              	.LFB152:
  48:App/Src/fault_command.c **** 
  49:App/Src/fault_command.c **** static void FaultCommand_WriteTextHelp(FaultCommand_WriteFn write, void *context)
  50:App/Src/fault_command.c **** {
 197              		.loc 1 50 1 is_stmt 1 view -0
 198              		.cfi_startproc
 199              		@ args = 0, pretend = 0, frame = 0
 200              		@ frame_needed = 0, uses_anonymous_args = 0
 201              		.loc 1 50 1 is_stmt 0 view .LVU19
 202 0000 38B5     		push	{r3, r4, r5, lr}
 203              	.LCFI2:
 204              		.cfi_def_cfa_offset 16
 205              		.cfi_offset 3, -16
 206              		.cfi_offset 4, -12
 207              		.cfi_offset 5, -8
 208              		.cfi_offset 14, -4
 209 0002 0446     		mov	r4, r0
 210 0004 0D46     		mov	r5, r1
  51:App/Src/fault_command.c ****   FaultCommand_Write(write, context, "\r\n[cmd] help\r\n");
 211              		.loc 1 51 3 is_stmt 1 view .LVU20
 212 0006 3E4A     		ldr	r2, .L13
 213 0008 FFF7FEFF 		bl	FaultCommand_Write
 214              	.LVL7:
  52:App/Src/fault_command.c ****   FaultCommand_Write(write, context, "  help\r\n");
 215              		.loc 1 52 3 view .LVU21
 216 000c 3D4A     		ldr	r2, .L13+4
 217 000e 2946     		mov	r1, r5
 218 0010 2046     		mov	r0, r4
 219 0012 FFF7FEFF 		bl	FaultCommand_Write
 220              	.LVL8:
  53:App/Src/fault_command.c ****   FaultCommand_Write(write, context, "  status\r\n");
 221              		.loc 1 53 3 view .LVU22
 222 0016 3C4A     		ldr	r2, .L13+8
 223 0018 2946     		mov	r1, r5
 224 001a 2046     		mov	r0, r4
 225 001c FFF7FEFF 		bl	FaultCommand_Write
 226              	.LVL9:
  54:App/Src/fault_command.c ****   FaultCommand_Write(write, context, "  normal [mv]\r\n");
 227              		.loc 1 54 3 view .LVU23
 228 0020 3A4A     		ldr	r2, .L13+12
 229 0022 2946     		mov	r1, r5
 230 0024 2046     		mov	r0, r4
 231 0026 FFF7FEFF 		bl	FaultCommand_Write
 232              	.LVL10:
  55:App/Src/fault_command.c ****   FaultCommand_Write(write, context, "  set <cell> <mv>\r\n");
 233              		.loc 1 55 3 view .LVU24
 234 002a 394A     		ldr	r2, .L13+16
 235 002c 2946     		mov	r1, r5
 236 002e 2046     		mov	r0, r4
 237 0030 FFF7FEFF 		bl	FaultCommand_Write
 238              	.LVL11:
  56:App/Src/fault_command.c ****   FaultCommand_Write(write, context, "  ov <cell> [mv] [duration_ms] [slew_mv_per_ms]\r\n");
 239              		.loc 1 56 3 view .LVU25
 240 0034 374A     		ldr	r2, .L13+20
 241 0036 2946     		mov	r1, r5
ARM GAS  C:\Users\hh\AppData\Local\Temp\cc8MU7EM.s 			page 8


 242 0038 2046     		mov	r0, r4
 243 003a FFF7FEFF 		bl	FaultCommand_Write
 244              	.LVL12:
  57:App/Src/fault_command.c ****   FaultCommand_Write(write, context, "  uv <cell> [mv] [duration_ms] [slew_mv_per_ms]\r\n");
 245              		.loc 1 57 3 view .LVU26
 246 003e 364A     		ldr	r2, .L13+24
 247 0040 2946     		mov	r1, r5
 248 0042 2046     		mov	r0, r4
 249 0044 FFF7FEFF 		bl	FaultCommand_Write
 250              	.LVL13:
  58:App/Src/fault_command.c ****   FaultCommand_Write(write, context, "  diff <high_cell> <high_mv> <low_cell> <low_mv> [duration_ms
 251              		.loc 1 58 3 view .LVU27
 252 0048 344A     		ldr	r2, .L13+28
 253 004a 2946     		mov	r1, r5
 254 004c 2046     		mov	r0, r4
 255 004e FFF7FEFF 		bl	FaultCommand_Write
 256              	.LVL14:
  59:App/Src/fault_command.c ****   FaultCommand_Write(write, context, "  wave status\r\n");
 257              		.loc 1 59 3 view .LVU28
 258 0052 334A     		ldr	r2, .L13+32
 259 0054 2946     		mov	r1, r5
 260 0056 2046     		mov	r0, r4
 261 0058 FFF7FEFF 		bl	FaultCommand_Write
 262              	.LVL15:
  60:App/Src/fault_command.c ****   FaultCommand_Write(write, context, "  wave stop\r\n");
 263              		.loc 1 60 3 view .LVU29
 264 005c 314A     		ldr	r2, .L13+36
 265 005e 2946     		mov	r1, r5
 266 0060 2046     		mov	r0, r4
 267 0062 FFF7FEFF 		bl	FaultCommand_Write
 268              	.LVL16:
  61:App/Src/fault_command.c ****   FaultCommand_Write(write, context, "  wave square <cell> <low_mv> <high_mv> <period_ms>\r\n");
 269              		.loc 1 61 3 view .LVU30
 270 0066 304A     		ldr	r2, .L13+40
 271 0068 2946     		mov	r1, r5
 272 006a 2046     		mov	r0, r4
 273 006c FFF7FEFF 		bl	FaultCommand_Write
 274              	.LVL17:
  62:App/Src/fault_command.c ****   FaultCommand_Write(write, context, "  wave sine <cell> <offset_mv> <amplitude_mv> <period_ms>\r\n
 275              		.loc 1 62 3 view .LVU31
 276 0070 2E4A     		ldr	r2, .L13+44
 277 0072 2946     		mov	r1, r5
 278 0074 2046     		mov	r0, r4
 279 0076 FFF7FEFF 		bl	FaultCommand_Write
 280              	.LVL18:
  63:App/Src/fault_command.c ****   FaultCommand_Write(write, context, "  wave sine all <offset_mv> <amplitude_mv> <period_ms>\r\n");
 281              		.loc 1 63 3 view .LVU32
 282 007a 2D4A     		ldr	r2, .L13+48
 283 007c 2946     		mov	r1, r5
 284 007e 2046     		mov	r0, r4
 285 0080 FFF7FEFF 		bl	FaultCommand_Write
 286              	.LVL19:
  64:App/Src/fault_command.c ****   FaultCommand_Write(write, context, "  cal status\r\n");
 287              		.loc 1 64 3 view .LVU33
 288 0084 2B4A     		ldr	r2, .L13+52
 289 0086 2946     		mov	r1, r5
 290 0088 2046     		mov	r0, r4
ARM GAS  C:\Users\hh\AppData\Local\Temp\cc8MU7EM.s 			page 9


 291 008a FFF7FEFF 		bl	FaultCommand_Write
 292              	.LVL20:
  65:App/Src/fault_command.c ****   FaultCommand_Write(write, context, "  cal set <cell> <offset_mv>\r\n");
 293              		.loc 1 65 3 view .LVU34
 294 008e 2A4A     		ldr	r2, .L13+56
 295 0090 2946     		mov	r1, r5
 296 0092 2046     		mov	r0, r4
 297 0094 FFF7FEFF 		bl	FaultCommand_Write
 298              	.LVL21:
  66:App/Src/fault_command.c ****   FaultCommand_Write(write, context, "  cal trim <cell> <target_mv> <measured_mv>\r\n");
 299              		.loc 1 66 3 view .LVU35
 300 0098 284A     		ldr	r2, .L13+60
 301 009a 2946     		mov	r1, r5
 302 009c 2046     		mov	r0, r4
 303 009e FFF7FEFF 		bl	FaultCommand_Write
 304              	.LVL22:
  67:App/Src/fault_command.c ****   FaultCommand_Write(write, context, "  cal clear [cell]\r\n");
 305              		.loc 1 67 3 view .LVU36
 306 00a2 274A     		ldr	r2, .L13+64
 307 00a4 2946     		mov	r1, r5
 308 00a6 2046     		mov	r0, r4
 309 00a8 FFF7FEFF 		bl	FaultCommand_Write
 310              	.LVL23:
  68:App/Src/fault_command.c ****   FaultCommand_Write(write, context, "  test static <mv>\r\n");
 311              		.loc 1 68 3 view .LVU37
 312 00ac 254A     		ldr	r2, .L13+68
 313 00ae 2946     		mov	r1, r5
 314 00b0 2046     		mov	r0, r4
 315 00b2 FFF7FEFF 		bl	FaultCommand_Write
 316              	.LVL24:
  69:App/Src/fault_command.c ****   FaultCommand_Write(write, context, "  test slew <cell> <low_mv> <high_mv> <period_ms>\r\n");
 317              		.loc 1 69 3 view .LVU38
 318 00b6 244A     		ldr	r2, .L13+72
 319 00b8 2946     		mov	r1, r5
 320 00ba 2046     		mov	r0, r4
 321 00bc FFF7FEFF 		bl	FaultCommand_Write
 322              	.LVL25:
  70:App/Src/fault_command.c ****   FaultCommand_Write(write, context, "  can status\r\n");
 323              		.loc 1 70 3 view .LVU39
 324 00c0 224A     		ldr	r2, .L13+76
 325 00c2 2946     		mov	r1, r5
 326 00c4 2046     		mov	r0, r4
 327 00c6 FFF7FEFF 		bl	FaultCommand_Write
 328              	.LVL26:
  71:App/Src/fault_command.c ****   FaultCommand_Write(write, context, "  can send <std_id_hex> <len> [byte_hex ...]\r\n");
 329              		.loc 1 71 3 view .LVU40
 330 00ca 214A     		ldr	r2, .L13+80
 331 00cc 2946     		mov	r1, r5
 332 00ce 2046     		mov	r0, r4
 333 00d0 FFF7FEFF 		bl	FaultCommand_Write
 334              	.LVL27:
  72:App/Src/fault_command.c ****   FaultCommand_Write(write, context, "  log status\r\n");
 335              		.loc 1 72 3 view .LVU41
 336 00d4 1F4A     		ldr	r2, .L13+84
 337 00d6 2946     		mov	r1, r5
 338 00d8 2046     		mov	r0, r4
 339 00da FFF7FEFF 		bl	FaultCommand_Write
ARM GAS  C:\Users\hh\AppData\Local\Temp\cc8MU7EM.s 			page 10


 340              	.LVL28:
  73:App/Src/fault_command.c ****   FaultCommand_Write(write, context, "  log clear\r\n");
 341              		.loc 1 73 3 view .LVU42
 342 00de 1E4A     		ldr	r2, .L13+88
 343 00e0 2946     		mov	r1, r5
 344 00e2 2046     		mov	r0, r4
 345 00e4 FFF7FEFF 		bl	FaultCommand_Write
 346              	.LVL29:
  74:App/Src/fault_command.c ****   FaultCommand_Write(write, context, "  clear [cell]\r\n");
 347              		.loc 1 74 3 view .LVU43
 348 00e8 1C4A     		ldr	r2, .L13+92
 349 00ea 2946     		mov	r1, r5
 350 00ec 2046     		mov	r0, r4
 351 00ee FFF7FEFF 		bl	FaultCommand_Write
 352              	.LVL30:
  75:App/Src/fault_command.c ****   FaultCommand_Write(write, context, "  JSON examples: {\"cmd\":\"status\"}, {\"cmd\":\"cal\",\"act
 353              		.loc 1 75 3 view .LVU44
 354 00f2 1B4A     		ldr	r2, .L13+96
 355 00f4 2946     		mov	r1, r5
 356 00f6 2046     		mov	r0, r4
 357 00f8 FFF7FEFF 		bl	FaultCommand_Write
 358              	.LVL31:
  76:App/Src/fault_command.c **** }
 359              		.loc 1 76 1 is_stmt 0 view .LVU45
 360 00fc 38BD     		pop	{r3, r4, r5, pc}
 361              	.LVL32:
 362              	.L14:
 363              		.loc 1 76 1 view .LVU46
 364 00fe 00BF     		.align	2
 365              	.L13:
 366 0100 00000000 		.word	.LC0
 367 0104 10000000 		.word	.LC1
 368 0108 1C000000 		.word	.LC2
 369 010c 28000000 		.word	.LC3
 370 0110 38000000 		.word	.LC4
 371 0114 4C000000 		.word	.LC5
 372 0118 80000000 		.word	.LC6
 373 011c B4000000 		.word	.LC7
 374 0120 08010000 		.word	.LC8
 375 0124 18010000 		.word	.LC9
 376 0128 28010000 		.word	.LC10
 377 012c 60010000 		.word	.LC11
 378 0130 9C010000 		.word	.LC12
 379 0134 D8010000 		.word	.LC13
 380 0138 E8010000 		.word	.LC14
 381 013c 08020000 		.word	.LC15
 382 0140 38020000 		.word	.LC16
 383 0144 50020000 		.word	.LC17
 384 0148 68020000 		.word	.LC18
 385 014c 9C020000 		.word	.LC19
 386 0150 AC020000 		.word	.LC20
 387 0154 DC020000 		.word	.LC21
 388 0158 EC020000 		.word	.LC22
 389 015c FC020000 		.word	.LC23
 390 0160 10030000 		.word	.LC24
 391              		.cfi_endproc
 392              	.LFE152:
ARM GAS  C:\Users\hh\AppData\Local\Temp\cc8MU7EM.s 			page 11


 394              		.section	.text.FaultCommand_RunCalibrationTrim,"ax",%progbits
 395              		.align	1
 396              		.syntax unified
 397              		.thumb
 398              		.thumb_func
 400              	FaultCommand_RunCalibrationTrim:
 401              	.LVL33:
 402              	.LFB165:
  77:App/Src/fault_command.c **** 
  78:App/Src/fault_command.c **** static void FaultCommand_WriteTextWaveStatus(FaultCommand_WriteFn write, void *context)
  79:App/Src/fault_command.c **** {
  80:App/Src/fault_command.c ****   WaveformGen_Status status = WaveformGen_GetStatus();
  81:App/Src/fault_command.c **** 
  82:App/Src/fault_command.c ****   FaultCommand_WriteFormat(write,
  83:App/Src/fault_command.c ****                            context,
  84:App/Src/fault_command.c ****                            "[wave] active=%u type=%s cell=%u period=%lums last=%umV\r\n",
  85:App/Src/fault_command.c ****                            status.active,
  86:App/Src/fault_command.c ****                            WaveformGen_GetTypeName(status.type),
  87:App/Src/fault_command.c ****                            status.cell,
  88:App/Src/fault_command.c ****                            (unsigned long)status.periodMs,
  89:App/Src/fault_command.c ****                            status.lastMillivolts);
  90:App/Src/fault_command.c **** }
  91:App/Src/fault_command.c **** 
  92:App/Src/fault_command.c **** static void FaultCommand_WriteTextCanStatus(FaultCommand_WriteFn write, void *context)
  93:App/Src/fault_command.c **** {
  94:App/Src/fault_command.c ****   BspCan_Status status = BspCan_GetStatus();
  95:App/Src/fault_command.c **** 
  96:App/Src/fault_command.c ****   FaultCommand_WriteFormat(write,
  97:App/Src/fault_command.c ****                            context,
  98:App/Src/fault_command.c ****                            "\r\n[can] started=%u tx=%lu rx=%lu err=%lu last_id=0x%lX last_len=%u la
  99:App/Src/fault_command.c ****                            status.started,
 100:App/Src/fault_command.c ****                            (unsigned long)status.txCount,
 101:App/Src/fault_command.c ****                            (unsigned long)status.rxCount,
 102:App/Src/fault_command.c ****                            (unsigned long)status.errorCount,
 103:App/Src/fault_command.c ****                            (unsigned long)status.lastRxId,
 104:App/Src/fault_command.c ****                            status.lastRxLength,
 105:App/Src/fault_command.c ****                            (unsigned long)status.lastRxTick);
 106:App/Src/fault_command.c **** 
 107:App/Src/fault_command.c ****   for (uint8_t index = 0U; index < status.lastRxLength; index++)
 108:App/Src/fault_command.c ****   {
 109:App/Src/fault_command.c ****     FaultCommand_WriteFormat(write,
 110:App/Src/fault_command.c ****                              context,
 111:App/Src/fault_command.c ****                              "%02X%s",
 112:App/Src/fault_command.c ****                              status.lastRxData[index],
 113:App/Src/fault_command.c ****                              (index + 1U == status.lastRxLength) ? "" : " ");
 114:App/Src/fault_command.c ****   }
 115:App/Src/fault_command.c ****   FaultCommand_Write(write, context, "\r\n");
 116:App/Src/fault_command.c **** }
 117:App/Src/fault_command.c **** 
 118:App/Src/fault_command.c **** static void FaultCommand_WriteTextBmsResponseLog(FaultCommand_WriteFn write, void *context)
 119:App/Src/fault_command.c **** {
 120:App/Src/fault_command.c ****   BmsResponseLog_Status status = BmsResponseLog_GetStatus();
 121:App/Src/fault_command.c **** 
 122:App/Src/fault_command.c ****   FaultCommand_WriteFormat(write,
 123:App/Src/fault_command.c ****                            context,
 124:App/Src/fault_command.c ****                            "\r\n[log] armed=%u trigger=%s t1=%lums primary=C%02u/%umV secondary=C%0
 125:App/Src/fault_command.c ****                            status.armed,
ARM GAS  C:\Users\hh\AppData\Local\Temp\cc8MU7EM.s 			page 12


 126:App/Src/fault_command.c ****                            BmsResponseLog_GetTriggerName(status.triggerType),
 127:App/Src/fault_command.c ****                            (unsigned long)status.triggerTick,
 128:App/Src/fault_command.c ****                            status.primaryCell,
 129:App/Src/fault_command.c ****                            status.primaryMillivolts,
 130:App/Src/fault_command.c ****                            status.secondaryCell,
 131:App/Src/fault_command.c ****                            status.secondaryMillivolts,
 132:App/Src/fault_command.c ****                            (unsigned long)status.canFramesAfterTrigger,
 133:App/Src/fault_command.c ****                            status.responseCaptured);
 134:App/Src/fault_command.c **** 
 135:App/Src/fault_command.c ****   if (status.responseCaptured != 0U)
 136:App/Src/fault_command.c ****   {
 137:App/Src/fault_command.c ****     FaultCommand_WriteFormat(write,
 138:App/Src/fault_command.c ****                              context,
 139:App/Src/fault_command.c ****                              " t2=%lums delay=%lums id=0x%lX ext=%u len=%u data=",
 140:App/Src/fault_command.c ****                              (unsigned long)status.responseTick,
 141:App/Src/fault_command.c ****                              (unsigned long)status.responseDelayMs,
 142:App/Src/fault_command.c ****                              (unsigned long)status.responseCanId,
 143:App/Src/fault_command.c ****                              status.responseCanIsExtended,
 144:App/Src/fault_command.c ****                              status.responseCanLength);
 145:App/Src/fault_command.c ****     for (uint8_t index = 0U; index < status.responseCanLength; index++)
 146:App/Src/fault_command.c ****     {
 147:App/Src/fault_command.c ****       FaultCommand_WriteFormat(write,
 148:App/Src/fault_command.c ****                                context,
 149:App/Src/fault_command.c ****                                "%02X%s",
 150:App/Src/fault_command.c ****                                status.responseCanData[index],
 151:App/Src/fault_command.c ****                                (index + 1U == status.responseCanLength) ? "" : " ");
 152:App/Src/fault_command.c ****     }
 153:App/Src/fault_command.c ****   }
 154:App/Src/fault_command.c **** 
 155:App/Src/fault_command.c ****   FaultCommand_Write(write, context, "\r\n");
 156:App/Src/fault_command.c **** }
 157:App/Src/fault_command.c **** 
 158:App/Src/fault_command.c **** static void FaultCommand_WriteTextStatus(FaultCommand_WriteFn write, void *context)
 159:App/Src/fault_command.c **** {
 160:App/Src/fault_command.c ****   FaultCommand_WriteFormat(write, context, "\r\n[status] active_faults=%u\r\n",
 161:App/Src/fault_command.c ****                            VoltageSim_GetActiveFaultCount());
 162:App/Src/fault_command.c **** 
 163:App/Src/fault_command.c ****   for (uint8_t cell = 1U; cell <= VOLTAGE_SIM_CELL_COUNT; cell++)
 164:App/Src/fault_command.c ****   {
 165:App/Src/fault_command.c ****     VoltageSim_CellFaultInfo info = VoltageSim_GetCellFaultInfo(cell);
 166:App/Src/fault_command.c **** 
 167:App/Src/fault_command.c ****     FaultCommand_WriteFormat(write, context, "  C%02u=%umV",
 168:App/Src/fault_command.c ****                              cell,
 169:App/Src/fault_command.c ****                              VoltageSim_GetLastCellVoltageMv(cell));
 170:App/Src/fault_command.c ****     if (VoltageSim_GetCellCalibrationOffsetMv(cell) != 0)
 171:App/Src/fault_command.c ****     {
 172:App/Src/fault_command.c ****       FaultCommand_WriteFormat(write,
 173:App/Src/fault_command.c ****                                context,
 174:App/Src/fault_command.c ****                                " cal=%dmV",
 175:App/Src/fault_command.c ****                                (int)VoltageSim_GetCellCalibrationOffsetMv(cell));
 176:App/Src/fault_command.c ****     }
 177:App/Src/fault_command.c ****     if (info.type != VOLTAGE_SIM_FAULT_NONE)
 178:App/Src/fault_command.c ****     {
 179:App/Src/fault_command.c ****       FaultCommand_WriteFormat(write,
 180:App/Src/fault_command.c ****                                context,
 181:App/Src/fault_command.c ****                                " fault=%s target=%umV restore=%umV duration=%lums slew=%umV/ms",
 182:App/Src/fault_command.c ****                                VoltageSim_GetFaultTypeName(info.type),
ARM GAS  C:\Users\hh\AppData\Local\Temp\cc8MU7EM.s 			page 13


 183:App/Src/fault_command.c ****                                info.targetMillivolts,
 184:App/Src/fault_command.c ****                                info.restoreMillivolts,
 185:App/Src/fault_command.c ****                                (unsigned long)info.durationMs,
 186:App/Src/fault_command.c ****                                info.slewRateMvPerMs);
 187:App/Src/fault_command.c ****     }
 188:App/Src/fault_command.c ****     FaultCommand_Write(write, context, "\r\n");
 189:App/Src/fault_command.c ****   }
 190:App/Src/fault_command.c **** }
 191:App/Src/fault_command.c **** 
 192:App/Src/fault_command.c **** static void FaultCommand_WriteTextCalibrationStatus(FaultCommand_WriteFn write, void *context)
 193:App/Src/fault_command.c **** {
 194:App/Src/fault_command.c ****   FaultCommand_Write(write, context, "\r\n[cal]\r\n");
 195:App/Src/fault_command.c **** 
 196:App/Src/fault_command.c ****   for (uint8_t cell = 1U; cell <= VOLTAGE_SIM_CELL_COUNT; cell++)
 197:App/Src/fault_command.c ****   {
 198:App/Src/fault_command.c ****     FaultCommand_WriteFormat(write,
 199:App/Src/fault_command.c ****                              context,
 200:App/Src/fault_command.c ****                              "  C%02u offset=%dmV\r\n",
 201:App/Src/fault_command.c ****                              cell,
 202:App/Src/fault_command.c ****                              (int)VoltageSim_GetCellCalibrationOffsetMv(cell));
 203:App/Src/fault_command.c ****   }
 204:App/Src/fault_command.c **** }
 205:App/Src/fault_command.c **** 
 206:App/Src/fault_command.c **** static void FaultCommand_WriteTextResult(FaultCommand_WriteFn write,
 207:App/Src/fault_command.c ****                                          void *context,
 208:App/Src/fault_command.c ****                                          const char *name,
 209:App/Src/fault_command.c ****                                          HAL_StatusTypeDef status)
 210:App/Src/fault_command.c **** {
 211:App/Src/fault_command.c ****   FaultCommand_WriteFormat(write, context, "[cmd] %s %s\r\n",
 212:App/Src/fault_command.c ****                            name,
 213:App/Src/fault_command.c ****                            (status == HAL_OK) ? "OK" : "ERR");
 214:App/Src/fault_command.c **** }
 215:App/Src/fault_command.c **** 
 216:App/Src/fault_command.c **** static void FaultCommand_WriteJsonResult(FaultCommand_WriteFn write,
 217:App/Src/fault_command.c ****                                          void *context,
 218:App/Src/fault_command.c ****                                          const char *cmd,
 219:App/Src/fault_command.c ****                                          HAL_StatusTypeDef status)
 220:App/Src/fault_command.c **** {
 221:App/Src/fault_command.c ****   FaultCommand_WriteFormat(write, context, "{\"ok\":%s,\"cmd\":\"%s\"}\r\n",
 222:App/Src/fault_command.c ****                            (status == HAL_OK) ? "true" : "false",
 223:App/Src/fault_command.c ****                            cmd);
 224:App/Src/fault_command.c **** }
 225:App/Src/fault_command.c **** 
 226:App/Src/fault_command.c **** static void FaultCommand_WriteJsonStatus(FaultCommand_WriteFn write, void *context)
 227:App/Src/fault_command.c **** {
 228:App/Src/fault_command.c ****   WaveformGen_Status waveform = WaveformGen_GetStatus();
 229:App/Src/fault_command.c **** 
 230:App/Src/fault_command.c ****   FaultCommand_WriteFormat(write,
 231:App/Src/fault_command.c ****                            context,
 232:App/Src/fault_command.c ****                            "{\"ok\":true,\"active_faults\":%u,\"waveform\":{\"active\":%u,\"type\":
 233:App/Src/fault_command.c ****                            VoltageSim_GetActiveFaultCount(),
 234:App/Src/fault_command.c ****                            waveform.active,
 235:App/Src/fault_command.c ****                            WaveformGen_GetTypeName(waveform.type),
 236:App/Src/fault_command.c ****                            waveform.cell,
 237:App/Src/fault_command.c ****                            (unsigned long)waveform.periodMs,
 238:App/Src/fault_command.c ****                            waveform.lastMillivolts);
 239:App/Src/fault_command.c **** 
ARM GAS  C:\Users\hh\AppData\Local\Temp\cc8MU7EM.s 			page 14


 240:App/Src/fault_command.c ****   for (uint8_t cell = 1U; cell <= VOLTAGE_SIM_CELL_COUNT; cell++)
 241:App/Src/fault_command.c ****   {
 242:App/Src/fault_command.c ****     VoltageSim_CellFaultInfo info = VoltageSim_GetCellFaultInfo(cell);
 243:App/Src/fault_command.c **** 
 244:App/Src/fault_command.c ****     FaultCommand_WriteFormat(write,
 245:App/Src/fault_command.c ****                              context,
 246:App/Src/fault_command.c ****                              "%s{\"cell\":%u,\"mv\":%u,\"cal_mv\":%d,\"fault\":\"%s\",\"target_mv\"
 247:App/Src/fault_command.c ****                              (cell == 1U) ? "" : ",",
 248:App/Src/fault_command.c ****                              cell,
 249:App/Src/fault_command.c ****                              VoltageSim_GetLastCellVoltageMv(cell),
 250:App/Src/fault_command.c ****                              (int)VoltageSim_GetCellCalibrationOffsetMv(cell),
 251:App/Src/fault_command.c ****                              VoltageSim_GetFaultTypeName(info.type),
 252:App/Src/fault_command.c ****                              info.targetMillivolts,
 253:App/Src/fault_command.c ****                              info.restoreMillivolts,
 254:App/Src/fault_command.c ****                              (unsigned long)info.durationMs,
 255:App/Src/fault_command.c ****                              info.slewRateMvPerMs);
 256:App/Src/fault_command.c ****   }
 257:App/Src/fault_command.c **** 
 258:App/Src/fault_command.c ****   FaultCommand_Write(write, context, "]}\r\n");
 259:App/Src/fault_command.c **** }
 260:App/Src/fault_command.c **** 
 261:App/Src/fault_command.c **** static void FaultCommand_WriteJsonCanStatus(FaultCommand_WriteFn write, void *context)
 262:App/Src/fault_command.c **** {
 263:App/Src/fault_command.c ****   BspCan_Status status = BspCan_GetStatus();
 264:App/Src/fault_command.c **** 
 265:App/Src/fault_command.c ****   FaultCommand_WriteFormat(write,
 266:App/Src/fault_command.c ****                            context,
 267:App/Src/fault_command.c ****                            "{\"ok\":true,\"can\":{\"started\":%u,\"tx\":%lu,\"rx\":%lu,\"err\":%lu,
 268:App/Src/fault_command.c ****                            status.started,
 269:App/Src/fault_command.c ****                            (unsigned long)status.txCount,
 270:App/Src/fault_command.c ****                            (unsigned long)status.rxCount,
 271:App/Src/fault_command.c ****                            (unsigned long)status.errorCount,
 272:App/Src/fault_command.c ****                            (unsigned long)status.lastRxId,
 273:App/Src/fault_command.c ****                            (unsigned long)status.lastRxId,
 274:App/Src/fault_command.c ****                            status.lastRxIsExtended,
 275:App/Src/fault_command.c ****                            status.lastRxLength,
 276:App/Src/fault_command.c ****                            (unsigned long)status.lastRxTick);
 277:App/Src/fault_command.c **** 
 278:App/Src/fault_command.c ****   for (uint8_t index = 0U; index < status.lastRxLength; index++)
 279:App/Src/fault_command.c ****   {
 280:App/Src/fault_command.c ****     FaultCommand_WriteFormat(write,
 281:App/Src/fault_command.c ****                              context,
 282:App/Src/fault_command.c ****                              "%s%u",
 283:App/Src/fault_command.c ****                              (index == 0U) ? "" : ",",
 284:App/Src/fault_command.c ****                              status.lastRxData[index]);
 285:App/Src/fault_command.c ****   }
 286:App/Src/fault_command.c ****   FaultCommand_Write(write, context, "]}}\r\n");
 287:App/Src/fault_command.c **** }
 288:App/Src/fault_command.c **** 
 289:App/Src/fault_command.c **** static void FaultCommand_WriteJsonBmsResponseLog(FaultCommand_WriteFn write, void *context)
 290:App/Src/fault_command.c **** {
 291:App/Src/fault_command.c ****   BmsResponseLog_Status status = BmsResponseLog_GetStatus();
 292:App/Src/fault_command.c **** 
 293:App/Src/fault_command.c ****   FaultCommand_WriteFormat(write,
 294:App/Src/fault_command.c ****                            context,
 295:App/Src/fault_command.c ****                            "{\"ok\":true,\"log\":{\"armed\":%u,\"trigger\":\"%s\",\"trigger_tick\":
 296:App/Src/fault_command.c ****                            status.armed,
ARM GAS  C:\Users\hh\AppData\Local\Temp\cc8MU7EM.s 			page 15


 297:App/Src/fault_command.c ****                            BmsResponseLog_GetTriggerName(status.triggerType),
 298:App/Src/fault_command.c ****                            (unsigned long)status.triggerTick,
 299:App/Src/fault_command.c ****                            status.primaryCell,
 300:App/Src/fault_command.c ****                            status.primaryMillivolts,
 301:App/Src/fault_command.c ****                            status.secondaryCell,
 302:App/Src/fault_command.c ****                            status.secondaryMillivolts,
 303:App/Src/fault_command.c ****                            (unsigned long)status.canFramesAfterTrigger,
 304:App/Src/fault_command.c ****                            status.responseCaptured,
 305:App/Src/fault_command.c ****                            (unsigned long)status.responseTick,
 306:App/Src/fault_command.c ****                            (unsigned long)status.responseDelayMs,
 307:App/Src/fault_command.c ****                            (unsigned long)status.responseCanId,
 308:App/Src/fault_command.c ****                            (unsigned long)status.responseCanId,
 309:App/Src/fault_command.c ****                            status.responseCanIsExtended,
 310:App/Src/fault_command.c ****                            status.responseCanLength);
 311:App/Src/fault_command.c **** 
 312:App/Src/fault_command.c ****   for (uint8_t index = 0U; index < status.responseCanLength; index++)
 313:App/Src/fault_command.c ****   {
 314:App/Src/fault_command.c ****     FaultCommand_WriteFormat(write,
 315:App/Src/fault_command.c ****                              context,
 316:App/Src/fault_command.c ****                              "%s%u",
 317:App/Src/fault_command.c ****                              (index == 0U) ? "" : ",",
 318:App/Src/fault_command.c ****                              status.responseCanData[index]);
 319:App/Src/fault_command.c ****   }
 320:App/Src/fault_command.c ****   FaultCommand_Write(write, context, "]}}\r\n");
 321:App/Src/fault_command.c **** }
 322:App/Src/fault_command.c **** 
 323:App/Src/fault_command.c **** static HAL_StatusTypeDef FaultCommand_RunNormal(uint16_t millivolts)
 324:App/Src/fault_command.c **** {
 325:App/Src/fault_command.c ****   WaveformGen_Stop();
 326:App/Src/fault_command.c ****   return VoltageSim_SetAllCellsVoltageMv(millivolts);
 327:App/Src/fault_command.c **** }
 328:App/Src/fault_command.c **** 
 329:App/Src/fault_command.c **** static HAL_StatusTypeDef FaultCommand_RunSet(uint8_t cell, uint16_t millivolts)
 330:App/Src/fault_command.c **** {
 331:App/Src/fault_command.c ****   WaveformGen_Stop();
 332:App/Src/fault_command.c ****   return VoltageSim_SetCellVoltageMv(cell, millivolts);
 333:App/Src/fault_command.c **** }
 334:App/Src/fault_command.c **** 
 335:App/Src/fault_command.c **** static HAL_StatusTypeDef FaultCommand_RunCalibrationTrim(uint8_t cell,
 336:App/Src/fault_command.c ****                                                          uint16_t targetMillivolts,
 337:App/Src/fault_command.c ****                                                          uint16_t measuredMillivolts)
 338:App/Src/fault_command.c **** {
 403              		.loc 1 338 1 is_stmt 1 view -0
 404              		.cfi_startproc
 405              		@ args = 0, pretend = 0, frame = 0
 406              		@ frame_needed = 0, uses_anonymous_args = 0
 407              		.loc 1 338 1 is_stmt 0 view .LVU48
 408 0000 70B5     		push	{r4, r5, r6, lr}
 409              	.LCFI3:
 410              		.cfi_def_cfa_offset 16
 411              		.cfi_offset 4, -16
 412              		.cfi_offset 5, -12
 413              		.cfi_offset 6, -8
 414              		.cfi_offset 14, -4
 415 0002 0646     		mov	r6, r0
 416 0004 0D46     		mov	r5, r1
 417 0006 1446     		mov	r4, r2
ARM GAS  C:\Users\hh\AppData\Local\Temp\cc8MU7EM.s 			page 16


 339:App/Src/fault_command.c ****   int32_t offset;
 418              		.loc 1 339 3 is_stmt 1 view .LVU49
 340:App/Src/fault_command.c **** 
 341:App/Src/fault_command.c ****   offset = (int32_t)VoltageSim_GetCellCalibrationOffsetMv(cell) +
 419              		.loc 1 341 3 view .LVU50
 420              		.loc 1 341 21 is_stmt 0 view .LVU51
 421 0008 FFF7FEFF 		bl	VoltageSim_GetCellCalibrationOffsetMv
 422              	.LVL34:
 423              		.loc 1 341 65 view .LVU52
 424 000c 2946     		mov	r1, r5
 425 000e 0144     		add	r1, r1, r0
 426              		.loc 1 341 10 view .LVU53
 427 0010 091B     		subs	r1, r1, r4
 428              	.LVL35:
 342:App/Src/fault_command.c ****            (int32_t)targetMillivolts -
 343:App/Src/fault_command.c ****            (int32_t)measuredMillivolts;
 344:App/Src/fault_command.c **** 
 345:App/Src/fault_command.c ****   if ((offset < -VOLTAGE_SIM_CAL_OFFSET_LIMIT_MV) ||
 429              		.loc 1 345 3 is_stmt 1 view .LVU54
 430              		.loc 1 345 51 is_stmt 0 view .LVU55
 431 0012 01F5FA73 		add	r3, r1, #500
 432              		.loc 1 345 6 view .LVU56
 433 0016 B3F57A7F 		cmp	r3, #1000
 434 001a 01D9     		bls	.L19
 346:App/Src/fault_command.c ****       (offset > VOLTAGE_SIM_CAL_OFFSET_LIMIT_MV))
 347:App/Src/fault_command.c ****   {
 348:App/Src/fault_command.c ****     return HAL_ERROR;
 435              		.loc 1 348 12 view .LVU57
 436 001c 0120     		movs	r0, #1
 437              	.LVL36:
 438              	.L16:
 349:App/Src/fault_command.c ****   }
 350:App/Src/fault_command.c **** 
 351:App/Src/fault_command.c ****   return VoltageSim_SetCellCalibrationOffsetMv(cell, (int16_t)offset);
 352:App/Src/fault_command.c **** }
 439              		.loc 1 352 1 view .LVU58
 440 001e 70BD     		pop	{r4, r5, r6, pc}
 441              	.LVL37:
 442              	.L19:
 351:App/Src/fault_command.c **** }
 443              		.loc 1 351 3 is_stmt 1 view .LVU59
 351:App/Src/fault_command.c **** }
 444              		.loc 1 351 10 is_stmt 0 view .LVU60
 445 0020 09B2     		sxth	r1, r1
 446              	.LVL38:
 351:App/Src/fault_command.c **** }
 447              		.loc 1 351 10 view .LVU61
 448 0022 3046     		mov	r0, r6
 449 0024 FFF7FEFF 		bl	VoltageSim_SetCellCalibrationOffsetMv
 450              	.LVL39:
 351:App/Src/fault_command.c **** }
 451              		.loc 1 351 10 view .LVU62
 452 0028 F9E7     		b	.L16
 453              		.cfi_endproc
 454              	.LFE165:
 456              		.section	.text.FaultCommand_RunSet,"ax",%progbits
 457              		.align	1
ARM GAS  C:\Users\hh\AppData\Local\Temp\cc8MU7EM.s 			page 17


 458              		.syntax unified
 459              		.thumb
 460              		.thumb_func
 462              	FaultCommand_RunSet:
 463              	.LVL40:
 464              	.LFB164:
 330:App/Src/fault_command.c ****   WaveformGen_Stop();
 465              		.loc 1 330 1 is_stmt 1 view -0
 466              		.cfi_startproc
 467              		@ args = 0, pretend = 0, frame = 0
 468              		@ frame_needed = 0, uses_anonymous_args = 0
 330:App/Src/fault_command.c ****   WaveformGen_Stop();
 469              		.loc 1 330 1 is_stmt 0 view .LVU64
 470 0000 38B5     		push	{r3, r4, r5, lr}
 471              	.LCFI4:
 472              		.cfi_def_cfa_offset 16
 473              		.cfi_offset 3, -16
 474              		.cfi_offset 4, -12
 475              		.cfi_offset 5, -8
 476              		.cfi_offset 14, -4
 477 0002 0546     		mov	r5, r0
 478 0004 0C46     		mov	r4, r1
 331:App/Src/fault_command.c ****   return VoltageSim_SetCellVoltageMv(cell, millivolts);
 479              		.loc 1 331 3 is_stmt 1 view .LVU65
 480 0006 FFF7FEFF 		bl	WaveformGen_Stop
 481              	.LVL41:
 332:App/Src/fault_command.c **** }
 482              		.loc 1 332 3 view .LVU66
 332:App/Src/fault_command.c **** }
 483              		.loc 1 332 10 is_stmt 0 view .LVU67
 484 000a 2146     		mov	r1, r4
 485 000c 2846     		mov	r0, r5
 486 000e FFF7FEFF 		bl	VoltageSim_SetCellVoltageMv
 487              	.LVL42:
 333:App/Src/fault_command.c **** 
 488              		.loc 1 333 1 view .LVU68
 489 0012 38BD     		pop	{r3, r4, r5, pc}
 333:App/Src/fault_command.c **** 
 490              		.loc 1 333 1 view .LVU69
 491              		.cfi_endproc
 492              	.LFE164:
 494              		.section	.text.FaultCommand_RunOverVoltage,"ax",%progbits
 495              		.align	1
 496              		.syntax unified
 497              		.thumb
 498              		.thumb_func
 500              	FaultCommand_RunOverVoltage:
 501              	.LVL43:
 502              	.LFB166:
 353:App/Src/fault_command.c **** 
 354:App/Src/fault_command.c **** static HAL_StatusTypeDef FaultCommand_RunOverVoltage(uint8_t cell,
 355:App/Src/fault_command.c ****                                                      uint16_t target,
 356:App/Src/fault_command.c ****                                                      uint32_t duration,
 357:App/Src/fault_command.c ****                                                      uint16_t slew)
 358:App/Src/fault_command.c **** {
 503              		.loc 1 358 1 is_stmt 1 view -0
 504              		.cfi_startproc
ARM GAS  C:\Users\hh\AppData\Local\Temp\cc8MU7EM.s 			page 18


 505              		@ args = 0, pretend = 0, frame = 0
 506              		@ frame_needed = 0, uses_anonymous_args = 0
 507              		.loc 1 358 1 is_stmt 0 view .LVU71
 508 0000 2DE9F041 		push	{r4, r5, r6, r7, r8, lr}
 509              	.LCFI5:
 510              		.cfi_def_cfa_offset 24
 511              		.cfi_offset 4, -24
 512              		.cfi_offset 5, -20
 513              		.cfi_offset 6, -16
 514              		.cfi_offset 7, -12
 515              		.cfi_offset 8, -8
 516              		.cfi_offset 14, -4
 517 0004 82B0     		sub	sp, sp, #8
 518              	.LCFI6:
 519              		.cfi_def_cfa_offset 32
 520 0006 0546     		mov	r5, r0
 521 0008 0C46     		mov	r4, r1
 522 000a 8846     		mov	r8, r1
 523 000c 1746     		mov	r7, r2
 524 000e 1E46     		mov	r6, r3
 359:App/Src/fault_command.c ****   HAL_StatusTypeDef status;
 525              		.loc 1 359 3 is_stmt 1 view .LVU72
 360:App/Src/fault_command.c **** 
 361:App/Src/fault_command.c ****   WaveformGen_Stop();
 526              		.loc 1 361 3 view .LVU73
 527 0010 FFF7FEFF 		bl	WaveformGen_Stop
 528              	.LVL44:
 362:App/Src/fault_command.c ****   status = VoltageSim_InjectCellOverVoltageRamp(cell, target, duration, slew);
 529              		.loc 1 362 3 view .LVU74
 530              		.loc 1 362 12 is_stmt 0 view .LVU75
 531 0014 3346     		mov	r3, r6
 532 0016 3A46     		mov	r2, r7
 533 0018 2146     		mov	r1, r4
 534 001a 2846     		mov	r0, r5
 535 001c FFF7FEFF 		bl	VoltageSim_InjectCellOverVoltageRamp
 536              	.LVL45:
 363:App/Src/fault_command.c ****   if (status == HAL_OK)
 537              		.loc 1 363 3 is_stmt 1 view .LVU76
 538              		.loc 1 363 6 is_stmt 0 view .LVU77
 539 0020 0446     		mov	r4, r0
 540              	.LVL46:
 541              		.loc 1 363 6 view .LVU78
 542 0022 18B1     		cbz	r0, .L25
 543              	.LVL47:
 544              	.L23:
 364:App/Src/fault_command.c ****   {
 365:App/Src/fault_command.c ****     BmsResponseLog_RecordFaultTrigger(BMS_RESPONSE_LOG_TRIGGER_OV, cell, target, 0U, 0U);
 366:App/Src/fault_command.c ****   }
 367:App/Src/fault_command.c **** 
 368:App/Src/fault_command.c ****   return status;
 545              		.loc 1 368 3 is_stmt 1 view .LVU79
 369:App/Src/fault_command.c **** }
 546              		.loc 1 369 1 is_stmt 0 view .LVU80
 547 0024 2046     		mov	r0, r4
 548 0026 02B0     		add	sp, sp, #8
 549              	.LCFI7:
 550              		.cfi_remember_state
ARM GAS  C:\Users\hh\AppData\Local\Temp\cc8MU7EM.s 			page 19


 551              		.cfi_def_cfa_offset 24
 552              		@ sp needed
 553 0028 BDE8F081 		pop	{r4, r5, r6, r7, r8, pc}
 554              	.LVL48:
 555              	.L25:
 556              	.LCFI8:
 557              		.cfi_restore_state
 365:App/Src/fault_command.c ****   }
 558              		.loc 1 365 5 is_stmt 1 view .LVU81
 559 002c 0346     		mov	r3, r0
 560 002e 0090     		str	r0, [sp]
 561 0030 4246     		mov	r2, r8
 562 0032 2946     		mov	r1, r5
 563 0034 0120     		movs	r0, #1
 564              	.LVL49:
 365:App/Src/fault_command.c ****   }
 565              		.loc 1 365 5 is_stmt 0 view .LVU82
 566 0036 FFF7FEFF 		bl	BmsResponseLog_RecordFaultTrigger
 567              	.LVL50:
 568 003a F3E7     		b	.L23
 569              		.cfi_endproc
 570              	.LFE166:
 572              		.section	.text.FaultCommand_RunUnderVoltage,"ax",%progbits
 573              		.align	1
 574              		.syntax unified
 575              		.thumb
 576              		.thumb_func
 578              	FaultCommand_RunUnderVoltage:
 579              	.LVL51:
 580              	.LFB167:
 370:App/Src/fault_command.c **** 
 371:App/Src/fault_command.c **** static HAL_StatusTypeDef FaultCommand_RunUnderVoltage(uint8_t cell,
 372:App/Src/fault_command.c ****                                                       uint16_t target,
 373:App/Src/fault_command.c ****                                                       uint32_t duration,
 374:App/Src/fault_command.c ****                                                       uint16_t slew)
 375:App/Src/fault_command.c **** {
 581              		.loc 1 375 1 is_stmt 1 view -0
 582              		.cfi_startproc
 583              		@ args = 0, pretend = 0, frame = 0
 584              		@ frame_needed = 0, uses_anonymous_args = 0
 585              		.loc 1 375 1 is_stmt 0 view .LVU84
 586 0000 2DE9F041 		push	{r4, r5, r6, r7, r8, lr}
 587              	.LCFI9:
 588              		.cfi_def_cfa_offset 24
 589              		.cfi_offset 4, -24
 590              		.cfi_offset 5, -20
 591              		.cfi_offset 6, -16
 592              		.cfi_offset 7, -12
 593              		.cfi_offset 8, -8
 594              		.cfi_offset 14, -4
 595 0004 82B0     		sub	sp, sp, #8
 596              	.LCFI10:
 597              		.cfi_def_cfa_offset 32
 598 0006 0546     		mov	r5, r0
 599 0008 0C46     		mov	r4, r1
 600 000a 8846     		mov	r8, r1
 601 000c 1746     		mov	r7, r2
ARM GAS  C:\Users\hh\AppData\Local\Temp\cc8MU7EM.s 			page 20


 602 000e 1E46     		mov	r6, r3
 376:App/Src/fault_command.c ****   HAL_StatusTypeDef status;
 603              		.loc 1 376 3 is_stmt 1 view .LVU85
 377:App/Src/fault_command.c **** 
 378:App/Src/fault_command.c ****   WaveformGen_Stop();
 604              		.loc 1 378 3 view .LVU86
 605 0010 FFF7FEFF 		bl	WaveformGen_Stop
 606              	.LVL52:
 379:App/Src/fault_command.c ****   status = VoltageSim_InjectCellUnderVoltageRamp(cell, target, duration, slew);
 607              		.loc 1 379 3 view .LVU87
 608              		.loc 1 379 12 is_stmt 0 view .LVU88
 609 0014 3346     		mov	r3, r6
 610 0016 3A46     		mov	r2, r7
 611 0018 2146     		mov	r1, r4
 612 001a 2846     		mov	r0, r5
 613 001c FFF7FEFF 		bl	VoltageSim_InjectCellUnderVoltageRamp
 614              	.LVL53:
 380:App/Src/fault_command.c ****   if (status == HAL_OK)
 615              		.loc 1 380 3 is_stmt 1 view .LVU89
 616              		.loc 1 380 6 is_stmt 0 view .LVU90
 617 0020 0446     		mov	r4, r0
 618              	.LVL54:
 619              		.loc 1 380 6 view .LVU91
 620 0022 18B1     		cbz	r0, .L29
 621              	.LVL55:
 622              	.L27:
 381:App/Src/fault_command.c ****   {
 382:App/Src/fault_command.c ****     BmsResponseLog_RecordFaultTrigger(BMS_RESPONSE_LOG_TRIGGER_UV, cell, target, 0U, 0U);
 383:App/Src/fault_command.c ****   }
 384:App/Src/fault_command.c **** 
 385:App/Src/fault_command.c ****   return status;
 623              		.loc 1 385 3 is_stmt 1 view .LVU92
 386:App/Src/fault_command.c **** }
 624              		.loc 1 386 1 is_stmt 0 view .LVU93
 625 0024 2046     		mov	r0, r4
 626 0026 02B0     		add	sp, sp, #8
 627              	.LCFI11:
 628              		.cfi_remember_state
 629              		.cfi_def_cfa_offset 24
 630              		@ sp needed
 631 0028 BDE8F081 		pop	{r4, r5, r6, r7, r8, pc}
 632              	.LVL56:
 633              	.L29:
 634              	.LCFI12:
 635              		.cfi_restore_state
 382:App/Src/fault_command.c ****   }
 636              		.loc 1 382 5 is_stmt 1 view .LVU94
 637 002c 0346     		mov	r3, r0
 638 002e 0090     		str	r0, [sp]
 639 0030 4246     		mov	r2, r8
 640 0032 2946     		mov	r1, r5
 641 0034 0220     		movs	r0, #2
 642              	.LVL57:
 382:App/Src/fault_command.c ****   }
 643              		.loc 1 382 5 is_stmt 0 view .LVU95
 644 0036 FFF7FEFF 		bl	BmsResponseLog_RecordFaultTrigger
 645              	.LVL58:
ARM GAS  C:\Users\hh\AppData\Local\Temp\cc8MU7EM.s 			page 21


 646 003a F3E7     		b	.L27
 647              		.cfi_endproc
 648              	.LFE167:
 650              		.section	.text.FaultCommand_RunDiff,"ax",%progbits
 651              		.align	1
 652              		.syntax unified
 653              		.thumb
 654              		.thumb_func
 656              	FaultCommand_RunDiff:
 657              	.LVL59:
 658              	.LFB168:
 387:App/Src/fault_command.c **** 
 388:App/Src/fault_command.c **** static HAL_StatusTypeDef FaultCommand_RunDiff(uint8_t highCell,
 389:App/Src/fault_command.c ****                                               uint16_t highMv,
 390:App/Src/fault_command.c ****                                               uint8_t lowCell,
 391:App/Src/fault_command.c ****                                               uint16_t lowMv,
 392:App/Src/fault_command.c ****                                               uint32_t duration,
 393:App/Src/fault_command.c ****                                               uint16_t slew)
 394:App/Src/fault_command.c **** {
 659              		.loc 1 394 1 is_stmt 1 view -0
 660              		.cfi_startproc
 661              		@ args = 8, pretend = 0, frame = 0
 662              		@ frame_needed = 0, uses_anonymous_args = 0
 663              		.loc 1 394 1 is_stmt 0 view .LVU97
 664 0000 2DE9F041 		push	{r4, r5, r6, r7, r8, lr}
 665              	.LCFI13:
 666              		.cfi_def_cfa_offset 24
 667              		.cfi_offset 4, -24
 668              		.cfi_offset 5, -20
 669              		.cfi_offset 6, -16
 670              		.cfi_offset 7, -12
 671              		.cfi_offset 8, -8
 672              		.cfi_offset 14, -4
 673 0004 82B0     		sub	sp, sp, #8
 674              	.LCFI14:
 675              		.cfi_def_cfa_offset 32
 676 0006 0746     		mov	r7, r0
 677 0008 0E46     		mov	r6, r1
 678 000a 1546     		mov	r5, r2
 679 000c 1C46     		mov	r4, r3
 680 000e 9846     		mov	r8, r3
 395:App/Src/fault_command.c ****   HAL_StatusTypeDef status;
 681              		.loc 1 395 3 is_stmt 1 view .LVU98
 396:App/Src/fault_command.c **** 
 397:App/Src/fault_command.c ****   WaveformGen_Stop();
 682              		.loc 1 397 3 view .LVU99
 683 0010 FFF7FEFF 		bl	WaveformGen_Stop
 684              	.LVL60:
 398:App/Src/fault_command.c ****   status = VoltageSim_InjectVoltageDifference(highCell, highMv, lowCell, lowMv, duration, slew);
 685              		.loc 1 398 3 view .LVU100
 686              		.loc 1 398 12 is_stmt 0 view .LVU101
 687 0014 BDF82430 		ldrh	r3, [sp, #36]
 688 0018 0193     		str	r3, [sp, #4]
 689 001a 089B     		ldr	r3, [sp, #32]
 690 001c 0093     		str	r3, [sp]
 691 001e 2346     		mov	r3, r4
 692 0020 2A46     		mov	r2, r5
ARM GAS  C:\Users\hh\AppData\Local\Temp\cc8MU7EM.s 			page 22


 693 0022 3146     		mov	r1, r6
 694 0024 3846     		mov	r0, r7
 695 0026 FFF7FEFF 		bl	VoltageSim_InjectVoltageDifference
 696              	.LVL61:
 399:App/Src/fault_command.c ****   if (status == HAL_OK)
 697              		.loc 1 399 3 is_stmt 1 view .LVU102
 698              		.loc 1 399 6 is_stmt 0 view .LVU103
 699 002a 0446     		mov	r4, r0
 700              	.LVL62:
 701              		.loc 1 399 6 view .LVU104
 702 002c 18B1     		cbz	r0, .L33
 703              	.LVL63:
 704              	.L31:
 400:App/Src/fault_command.c ****   {
 401:App/Src/fault_command.c ****     BmsResponseLog_RecordFaultTrigger(BMS_RESPONSE_LOG_TRIGGER_DIFF,
 402:App/Src/fault_command.c ****                                       highCell,
 403:App/Src/fault_command.c ****                                       highMv,
 404:App/Src/fault_command.c ****                                       lowCell,
 405:App/Src/fault_command.c ****                                       lowMv);
 406:App/Src/fault_command.c ****   }
 407:App/Src/fault_command.c **** 
 408:App/Src/fault_command.c ****   return status;
 705              		.loc 1 408 3 is_stmt 1 view .LVU105
 409:App/Src/fault_command.c **** }
 706              		.loc 1 409 1 is_stmt 0 view .LVU106
 707 002e 2046     		mov	r0, r4
 708 0030 02B0     		add	sp, sp, #8
 709              	.LCFI15:
 710              		.cfi_remember_state
 711              		.cfi_def_cfa_offset 24
 712              		@ sp needed
 713 0032 BDE8F081 		pop	{r4, r5, r6, r7, r8, pc}
 714              	.LVL64:
 715              	.L33:
 716              	.LCFI16:
 717              		.cfi_restore_state
 401:App/Src/fault_command.c ****                                       highCell,
 718              		.loc 1 401 5 is_stmt 1 view .LVU107
 719 0036 CDF80080 		str	r8, [sp]
 720 003a 2B46     		mov	r3, r5
 721 003c 3246     		mov	r2, r6
 722 003e 3946     		mov	r1, r7
 723 0040 0320     		movs	r0, #3
 724              	.LVL65:
 401:App/Src/fault_command.c ****                                       highCell,
 725              		.loc 1 401 5 is_stmt 0 view .LVU108
 726 0042 FFF7FEFF 		bl	BmsResponseLog_RecordFaultTrigger
 727              	.LVL66:
 728 0046 F2E7     		b	.L31
 729              		.cfi_endproc
 730              	.LFE168:
 732              		.section	.text.FaultCommand_WriteFormat,"ax",%progbits
 733              		.align	1
 734              		.syntax unified
 735              		.thumb
 736              		.thumb_func
 738              	FaultCommand_WriteFormat:
ARM GAS  C:\Users\hh\AppData\Local\Temp\cc8MU7EM.s 			page 23


 739              	.LVL67:
 740              	.LFB150:
  28:App/Src/fault_command.c ****   char buffer[192];
 741              		.loc 1 28 1 is_stmt 1 view -0
 742              		.cfi_startproc
 743              		@ args = 4, pretend = 8, frame = 200
 744              		@ frame_needed = 0, uses_anonymous_args = 1
  28:App/Src/fault_command.c ****   char buffer[192];
 745              		.loc 1 28 1 is_stmt 0 view .LVU110
 746 0000 0CB4     		push	{r2, r3}
 747              	.LCFI17:
 748              		.cfi_def_cfa_offset 8
 749              		.cfi_offset 2, -8
 750              		.cfi_offset 3, -4
 751 0002 70B5     		push	{r4, r5, r6, lr}
 752              	.LCFI18:
 753              		.cfi_def_cfa_offset 24
 754              		.cfi_offset 4, -24
 755              		.cfi_offset 5, -20
 756              		.cfi_offset 6, -16
 757              		.cfi_offset 14, -12
 758 0004 B2B0     		sub	sp, sp, #200
 759              	.LCFI19:
 760              		.cfi_def_cfa_offset 224
 761 0006 0646     		mov	r6, r0
 762 0008 0D46     		mov	r5, r1
 763 000a 36AB     		add	r3, sp, #216
 764 000c 53F8042B 		ldr	r2, [r3], #4
  29:App/Src/fault_command.c ****   va_list args;
 765              		.loc 1 29 3 is_stmt 1 view .LVU111
  30:App/Src/fault_command.c **** 
 766              		.loc 1 30 3 view .LVU112
  32:App/Src/fault_command.c ****   (void)vsnprintf(buffer, sizeof(buffer), format, args);
 767              		.loc 1 32 3 view .LVU113
 768 0010 0193     		str	r3, [sp, #4]
  33:App/Src/fault_command.c ****   va_end(args);
 769              		.loc 1 33 3 view .LVU114
  33:App/Src/fault_command.c ****   va_end(args);
 770              		.loc 1 33 9 is_stmt 0 view .LVU115
 771 0012 02AC     		add	r4, sp, #8
 772 0014 C021     		movs	r1, #192
 773              	.LVL68:
  33:App/Src/fault_command.c ****   va_end(args);
 774              		.loc 1 33 9 view .LVU116
 775 0016 2046     		mov	r0, r4
 776              	.LVL69:
  33:App/Src/fault_command.c ****   va_end(args);
 777              		.loc 1 33 9 view .LVU117
 778 0018 FFF7FEFF 		bl	vsnprintf
 779              	.LVL70:
  34:App/Src/fault_command.c **** 
 780              		.loc 1 34 3 is_stmt 1 view .LVU118
  36:App/Src/fault_command.c **** }
 781              		.loc 1 36 3 view .LVU119
 782 001c 2246     		mov	r2, r4
 783 001e 2946     		mov	r1, r5
 784 0020 3046     		mov	r0, r6
ARM GAS  C:\Users\hh\AppData\Local\Temp\cc8MU7EM.s 			page 24


 785 0022 FFF7FEFF 		bl	FaultCommand_Write
 786              	.LVL71:
  37:App/Src/fault_command.c **** 
 787              		.loc 1 37 1 is_stmt 0 view .LVU120
 788 0026 32B0     		add	sp, sp, #200
 789              	.LCFI20:
 790              		.cfi_def_cfa_offset 24
 791              		@ sp needed
 792 0028 BDE87040 		pop	{r4, r5, r6, lr}
 793              	.LCFI21:
 794              		.cfi_restore 14
 795              		.cfi_restore 6
 796              		.cfi_restore 5
 797              		.cfi_restore 4
 798              		.cfi_def_cfa_offset 8
 799              	.LVL72:
  37:App/Src/fault_command.c **** 
 800              		.loc 1 37 1 view .LVU121
 801 002c 02B0     		add	sp, sp, #8
 802              	.LCFI22:
 803              		.cfi_restore 3
 804              		.cfi_restore 2
 805              		.cfi_def_cfa_offset 0
 806 002e 7047     		bx	lr
 807              		.cfi_endproc
 808              	.LFE150:
 810              		.section	.rodata.FaultCommand_WriteJsonStatus.str1.4,"aMS",%progbits,1
 811              		.align	2
 812              	.LC25:
 813 0000 00       		.ascii	"\000"
 814 0001 000000   		.align	2
 815              	.LC26:
 816 0004 2C00     		.ascii	",\000"
 817 0006 0000     		.align	2
 818              	.LC27:
 819 0008 7B226F6B 		.ascii	"{\"ok\":true,\"active_faults\":%u,\"waveform\":{\"a"
 819      223A7472 
 819      75652C22 
 819      61637469 
 819      76655F66 
 820 0034 63746976 		.ascii	"ctive\":%u,\"type\":\"%s\",\"cell\":%u,\"period_ms\""
 820      65223A25 
 820      752C2274 
 820      79706522 
 820      3A222573 
 821 005f 3A256C75 		.ascii	":%lu,\"last_mv\":%u},\"cells\":[\000"
 821      2C226C61 
 821      73745F6D 
 821      76223A25 
 821      757D2C22 
 822              		.align	2
 823              	.LC28:
 824 007c 25737B22 		.ascii	"%s{\"cell\":%u,\"mv\":%u,\"cal_mv\":%d,\"fault\":\""
 824      63656C6C 
 824      223A2575 
 824      2C226D76 
 824      223A2575 
ARM GAS  C:\Users\hh\AppData\Local\Temp\cc8MU7EM.s 			page 25


 825 00a6 2573222C 		.ascii	"%s\",\"target_mv\":%u,\"restore_mv\":%u,\"duration_"
 825      22746172 
 825      6765745F 
 825      6D76223A 
 825      25752C22 
 826 00d3 6D73223A 		.ascii	"ms\":%lu,\"slew_mv_per_ms\":%u}\000"
 826      256C752C 
 826      22736C65 
 826      775F6D76 
 826      5F706572 
 827              		.align	2
 828              	.LC29:
 829 00f0 5D7D0D0A 		.ascii	"]}\015\012\000"
 829      00
 830              		.section	.text.FaultCommand_WriteJsonStatus,"ax",%progbits
 831              		.align	1
 832              		.syntax unified
 833              		.thumb
 834              		.thumb_func
 836              	FaultCommand_WriteJsonStatus:
 837              	.LVL73:
 838              	.LFB160:
 227:App/Src/fault_command.c ****   WaveformGen_Status waveform = WaveformGen_GetStatus();
 839              		.loc 1 227 1 is_stmt 1 view -0
 840              		.cfi_startproc
 841              		@ args = 0, pretend = 0, frame = 40
 842              		@ frame_needed = 0, uses_anonymous_args = 0
 227:App/Src/fault_command.c ****   WaveformGen_Status waveform = WaveformGen_GetStatus();
 843              		.loc 1 227 1 is_stmt 0 view .LVU123
 844 0000 2DE9F043 		push	{r4, r5, r6, r7, r8, r9, lr}
 845              	.LCFI23:
 846              		.cfi_def_cfa_offset 28
 847              		.cfi_offset 4, -28
 848              		.cfi_offset 5, -24
 849              		.cfi_offset 6, -20
 850              		.cfi_offset 7, -16
 851              		.cfi_offset 8, -12
 852              		.cfi_offset 9, -8
 853              		.cfi_offset 14, -4
 854 0004 93B0     		sub	sp, sp, #76
 855              	.LCFI24:
 856              		.cfi_def_cfa_offset 104
 857 0006 0746     		mov	r7, r0
 858 0008 8846     		mov	r8, r1
 228:App/Src/fault_command.c **** 
 859              		.loc 1 228 3 is_stmt 1 view .LVU124
 228:App/Src/fault_command.c **** 
 860              		.loc 1 228 33 is_stmt 0 view .LVU125
 861 000a 0DA8     		add	r0, sp, #52
 862              	.LVL74:
 228:App/Src/fault_command.c **** 
 863              		.loc 1 228 33 view .LVU126
 864 000c FFF7FEFF 		bl	WaveformGen_GetStatus
 865              	.LVL75:
 230:App/Src/fault_command.c ****                            context,
 866              		.loc 1 230 3 is_stmt 1 view .LVU127
 233:App/Src/fault_command.c ****                            waveform.active,
ARM GAS  C:\Users\hh\AppData\Local\Temp\cc8MU7EM.s 			page 26


 867              		.loc 1 233 28 is_stmt 0 view .LVU128
 868 0010 FFF7FEFF 		bl	VoltageSim_GetActiveFaultCount
 869              	.LVL76:
 870 0014 0446     		mov	r4, r0
 234:App/Src/fault_command.c ****                            WaveformGen_GetTypeName(waveform.type),
 871              		.loc 1 234 36 view .LVU129
 872 0016 9DF83550 		ldrb	r5, [sp, #53]	@ zero_extendqisi2
 230:App/Src/fault_command.c ****                            context,
 873              		.loc 1 230 3 view .LVU130
 874 001a 9DF83400 		ldrb	r0, [sp, #52]	@ zero_extendqisi2
 875 001e FFF7FEFF 		bl	WaveformGen_GetTypeName
 876              	.LVL77:
 236:App/Src/fault_command.c ****                            (unsigned long)waveform.periodMs,
 877              		.loc 1 236 36 view .LVU131
 878 0022 9DF83630 		ldrb	r3, [sp, #54]	@ zero_extendqisi2
 238:App/Src/fault_command.c **** 
 879              		.loc 1 238 36 view .LVU132
 880 0026 BDF84420 		ldrh	r2, [sp, #68]
 230:App/Src/fault_command.c ****                            context,
 881              		.loc 1 230 3 view .LVU133
 882 002a 0492     		str	r2, [sp, #16]
 883 002c 109A     		ldr	r2, [sp, #64]
 884 002e 0392     		str	r2, [sp, #12]
 885 0030 0293     		str	r3, [sp, #8]
 886 0032 0190     		str	r0, [sp, #4]
 887 0034 0095     		str	r5, [sp]
 888 0036 2346     		mov	r3, r4
 889 0038 1F4A     		ldr	r2, .L44
 890 003a 4146     		mov	r1, r8
 891 003c 3846     		mov	r0, r7
 892 003e FFF7FEFF 		bl	FaultCommand_WriteFormat
 893              	.LVL78:
 240:App/Src/fault_command.c ****   {
 894              		.loc 1 240 3 is_stmt 1 view .LVU134
 895              	.LBB2:
 240:App/Src/fault_command.c ****   {
 896              		.loc 1 240 8 view .LVU135
 240:App/Src/fault_command.c ****   {
 897              		.loc 1 240 16 is_stmt 0 view .LVU136
 898 0042 0124     		movs	r4, #1
 240:App/Src/fault_command.c ****   {
 899              		.loc 1 240 3 view .LVU137
 900 0044 24E0     		b	.L37
 901              	.LVL79:
 902              	.L43:
 903              	.LBB3:
 244:App/Src/fault_command.c ****                              context,
 904              		.loc 1 244 5 discriminator 1 view .LVU138
 905 0046 DFF87C90 		ldr	r9, .L44+12
 906              	.L38:
 249:App/Src/fault_command.c ****                              (int)VoltageSim_GetCellCalibrationOffsetMv(cell),
 907              		.loc 1 249 30 view .LVU139
 908 004a 2046     		mov	r0, r4
 909 004c FFF7FEFF 		bl	VoltageSim_GetLastCellVoltageMv
 910              	.LVL80:
 911 0050 0546     		mov	r5, r0
 250:App/Src/fault_command.c ****                              VoltageSim_GetFaultTypeName(info.type),
ARM GAS  C:\Users\hh\AppData\Local\Temp\cc8MU7EM.s 			page 27


 912              		.loc 1 250 35 view .LVU140
 913 0052 2046     		mov	r0, r4
 914 0054 FFF7FEFF 		bl	VoltageSim_GetCellCalibrationOffsetMv
 915              	.LVL81:
 916 0058 0646     		mov	r6, r0
 244:App/Src/fault_command.c ****                              context,
 917              		.loc 1 244 5 discriminator 4 view .LVU141
 918 005a 9DF82400 		ldrb	r0, [sp, #36]	@ zero_extendqisi2
 919 005e FFF7FEFF 		bl	VoltageSim_GetFaultTypeName
 920              	.LVL82:
 252:App/Src/fault_command.c ****                              info.restoreMillivolts,
 921              		.loc 1 252 34 view .LVU142
 922 0062 BDF82630 		ldrh	r3, [sp, #38]
 253:App/Src/fault_command.c ****                              (unsigned long)info.durationMs,
 923              		.loc 1 253 34 view .LVU143
 924 0066 BDF82820 		ldrh	r2, [sp, #40]
 255:App/Src/fault_command.c ****   }
 925              		.loc 1 255 34 view .LVU144
 926 006a BDF83010 		ldrh	r1, [sp, #48]
 244:App/Src/fault_command.c ****                              context,
 927              		.loc 1 244 5 discriminator 4 view .LVU145
 928 006e 0791     		str	r1, [sp, #28]
 929 0070 0B99     		ldr	r1, [sp, #44]
 930 0072 0691     		str	r1, [sp, #24]
 931 0074 0592     		str	r2, [sp, #20]
 932 0076 0493     		str	r3, [sp, #16]
 933 0078 0390     		str	r0, [sp, #12]
 934 007a 0296     		str	r6, [sp, #8]
 935 007c 0195     		str	r5, [sp, #4]
 936 007e 0094     		str	r4, [sp]
 937 0080 4B46     		mov	r3, r9
 938 0082 0E4A     		ldr	r2, .L44+4
 939 0084 4146     		mov	r1, r8
 940 0086 3846     		mov	r0, r7
 941 0088 FFF7FEFF 		bl	FaultCommand_WriteFormat
 942              	.LVL83:
 943              	.LBE3:
 240:App/Src/fault_command.c ****   {
 944              		.loc 1 240 63 is_stmt 1 discriminator 2 view .LVU146
 945 008c 0134     		adds	r4, r4, #1
 946              	.LVL84:
 240:App/Src/fault_command.c ****   {
 947              		.loc 1 240 63 is_stmt 0 discriminator 2 view .LVU147
 948 008e E4B2     		uxtb	r4, r4
 949              	.LVL85:
 950              	.L37:
 240:App/Src/fault_command.c ****   {
 951              		.loc 1 240 32 is_stmt 1 discriminator 1 view .LVU148
 952 0090 0D2C     		cmp	r4, #13
 953 0092 08D8     		bhi	.L42
 954              	.LBB4:
 242:App/Src/fault_command.c **** 
 955              		.loc 1 242 5 view .LVU149
 242:App/Src/fault_command.c **** 
 956              		.loc 1 242 37 is_stmt 0 view .LVU150
 957 0094 2146     		mov	r1, r4
 958 0096 09A8     		add	r0, sp, #36
ARM GAS  C:\Users\hh\AppData\Local\Temp\cc8MU7EM.s 			page 28


 959 0098 FFF7FEFF 		bl	VoltageSim_GetCellFaultInfo
 960              	.LVL86:
 244:App/Src/fault_command.c ****                              context,
 961              		.loc 1 244 5 is_stmt 1 view .LVU151
 962 009c 012C     		cmp	r4, #1
 963 009e D2D0     		beq	.L43
 244:App/Src/fault_command.c ****                              context,
 964              		.loc 1 244 5 is_stmt 0 discriminator 2 view .LVU152
 965 00a0 DFF82490 		ldr	r9, .L44+16
 966 00a4 D1E7     		b	.L38
 967              	.L42:
 968              	.LBE4:
 969              	.LBE2:
 258:App/Src/fault_command.c **** }
 970              		.loc 1 258 3 is_stmt 1 view .LVU153
 971 00a6 064A     		ldr	r2, .L44+8
 972 00a8 4146     		mov	r1, r8
 973 00aa 3846     		mov	r0, r7
 974 00ac FFF7FEFF 		bl	FaultCommand_Write
 975              	.LVL87:
 259:App/Src/fault_command.c **** 
 976              		.loc 1 259 1 is_stmt 0 view .LVU154
 977 00b0 13B0     		add	sp, sp, #76
 978              	.LCFI25:
 979              		.cfi_def_cfa_offset 28
 980              		@ sp needed
 981 00b2 BDE8F083 		pop	{r4, r5, r6, r7, r8, r9, pc}
 982              	.LVL88:
 983              	.L45:
 259:App/Src/fault_command.c **** 
 984              		.loc 1 259 1 view .LVU155
 985 00b6 00BF     		.align	2
 986              	.L44:
 987 00b8 08000000 		.word	.LC27
 988 00bc 7C000000 		.word	.LC28
 989 00c0 F0000000 		.word	.LC29
 990 00c4 00000000 		.word	.LC25
 991 00c8 04000000 		.word	.LC26
 992              		.cfi_endproc
 993              	.LFE160:
 995              		.section	.rodata.FaultCommand_WriteJsonResult.str1.4,"aMS",%progbits,1
 996              		.align	2
 997              	.LC30:
 998 0000 74727565 		.ascii	"true\000"
 998      00
 999 0005 000000   		.align	2
 1000              	.LC31:
 1001 0008 66616C73 		.ascii	"false\000"
 1001      6500
 1002 000e 0000     		.align	2
 1003              	.LC32:
 1004 0010 7B226F6B 		.ascii	"{\"ok\":%s,\"cmd\":\"%s\"}\015\012\000"
 1004      223A2573 
 1004      2C22636D 
 1004      64223A22 
 1004      2573227D 
 1005              		.section	.text.FaultCommand_WriteJsonResult,"ax",%progbits
ARM GAS  C:\Users\hh\AppData\Local\Temp\cc8MU7EM.s 			page 29


 1006              		.align	1
 1007              		.syntax unified
 1008              		.thumb
 1009              		.thumb_func
 1011              	FaultCommand_WriteJsonResult:
 1012              	.LVL89:
 1013              	.LFB159:
 220:App/Src/fault_command.c ****   FaultCommand_WriteFormat(write, context, "{\"ok\":%s,\"cmd\":\"%s\"}\r\n",
 1014              		.loc 1 220 1 is_stmt 1 view -0
 1015              		.cfi_startproc
 1016              		@ args = 0, pretend = 0, frame = 0
 1017              		@ frame_needed = 0, uses_anonymous_args = 0
 220:App/Src/fault_command.c ****   FaultCommand_WriteFormat(write, context, "{\"ok\":%s,\"cmd\":\"%s\"}\r\n",
 1018              		.loc 1 220 1 is_stmt 0 view .LVU157
 1019 0000 00B5     		push	{lr}
 1020              	.LCFI26:
 1021              		.cfi_def_cfa_offset 4
 1022              		.cfi_offset 14, -4
 1023 0002 83B0     		sub	sp, sp, #12
 1024              	.LCFI27:
 1025              		.cfi_def_cfa_offset 16
 221:App/Src/fault_command.c ****                            (status == HAL_OK) ? "true" : "false",
 1026              		.loc 1 221 3 is_stmt 1 view .LVU158
 1027 0004 33B9     		cbnz	r3, .L48
 221:App/Src/fault_command.c ****                            (status == HAL_OK) ? "true" : "false",
 1028              		.loc 1 221 3 is_stmt 0 discriminator 1 view .LVU159
 1029 0006 044B     		ldr	r3, .L50
 1030              	.LVL90:
 1031              	.L47:
 221:App/Src/fault_command.c ****                            (status == HAL_OK) ? "true" : "false",
 1032              		.loc 1 221 3 discriminator 4 view .LVU160
 1033 0008 0092     		str	r2, [sp]
 1034 000a 044A     		ldr	r2, .L50+4
 1035              	.LVL91:
 221:App/Src/fault_command.c ****                            (status == HAL_OK) ? "true" : "false",
 1036              		.loc 1 221 3 discriminator 4 view .LVU161
 1037 000c FFF7FEFF 		bl	FaultCommand_WriteFormat
 1038              	.LVL92:
 224:App/Src/fault_command.c **** 
 1039              		.loc 1 224 1 view .LVU162
 1040 0010 03B0     		add	sp, sp, #12
 1041              	.LCFI28:
 1042              		.cfi_remember_state
 1043              		.cfi_def_cfa_offset 4
 1044              		@ sp needed
 1045 0012 00BD     		pop	{pc}
 1046              	.LVL93:
 1047              	.L48:
 1048              	.LCFI29:
 1049              		.cfi_restore_state
 221:App/Src/fault_command.c ****                            (status == HAL_OK) ? "true" : "false",
 1050              		.loc 1 221 3 discriminator 2 view .LVU163
 1051 0014 024B     		ldr	r3, .L50+8
 1052              	.LVL94:
 221:App/Src/fault_command.c ****                            (status == HAL_OK) ? "true" : "false",
 1053              		.loc 1 221 3 discriminator 2 view .LVU164
 1054 0016 F7E7     		b	.L47
ARM GAS  C:\Users\hh\AppData\Local\Temp\cc8MU7EM.s 			page 30


 1055              	.L51:
 1056              		.align	2
 1057              	.L50:
 1058 0018 00000000 		.word	.LC30
 1059 001c 10000000 		.word	.LC32
 1060 0020 08000000 		.word	.LC31
 1061              		.cfi_endproc
 1062              	.LFE159:
 1064              		.section	.rodata.FaultCommand_WriteTextStatus.str1.4,"aMS",%progbits,1
 1065              		.align	2
 1066              	.LC33:
 1067 0000 0D0A5B73 		.ascii	"\015\012[status] active_faults=%u\015\012\000"
 1067      74617475 
 1067      735D2061 
 1067      63746976 
 1067      655F6661 
 1068 001e 0000     		.align	2
 1069              	.LC34:
 1070 0020 20204325 		.ascii	"  C%02u=%umV\000"
 1070      3032753D 
 1070      25756D56 
 1070      00
 1071 002d 000000   		.align	2
 1072              	.LC35:
 1073 0030 2063616C 		.ascii	" cal=%dmV\000"
 1073      3D25646D 
 1073      5600
 1074 003a 0000     		.align	2
 1075              	.LC36:
 1076 003c 20666175 		.ascii	" fault=%s target=%umV restore=%umV duration=%lums s"
 1076      6C743D25 
 1076      73207461 
 1076      72676574 
 1076      3D25756D 
 1077 006f 6C65773D 		.ascii	"lew=%umV/ms\000"
 1077      25756D56 
 1077      2F6D7300 
 1078 007b 00       		.align	2
 1079              	.LC37:
 1080 007c 0D0A00   		.ascii	"\015\012\000"
 1081              		.section	.text.FaultCommand_WriteTextStatus,"ax",%progbits
 1082              		.align	1
 1083              		.syntax unified
 1084              		.thumb
 1085              		.thumb_func
 1087              	FaultCommand_WriteTextStatus:
 1088              	.LVL95:
 1089              	.LFB156:
 159:App/Src/fault_command.c ****   FaultCommand_WriteFormat(write, context, "\r\n[status] active_faults=%u\r\n",
 1090              		.loc 1 159 1 is_stmt 1 view -0
 1091              		.cfi_startproc
 1092              		@ args = 0, pretend = 0, frame = 16
 1093              		@ frame_needed = 0, uses_anonymous_args = 0
 159:App/Src/fault_command.c ****   FaultCommand_WriteFormat(write, context, "\r\n[status] active_faults=%u\r\n",
 1094              		.loc 1 159 1 is_stmt 0 view .LVU166
 1095 0000 70B5     		push	{r4, r5, r6, lr}
 1096              	.LCFI30:
ARM GAS  C:\Users\hh\AppData\Local\Temp\cc8MU7EM.s 			page 31


 1097              		.cfi_def_cfa_offset 16
 1098              		.cfi_offset 4, -16
 1099              		.cfi_offset 5, -12
 1100              		.cfi_offset 6, -8
 1101              		.cfi_offset 14, -4
 1102 0002 88B0     		sub	sp, sp, #32
 1103              	.LCFI31:
 1104              		.cfi_def_cfa_offset 48
 1105 0004 0546     		mov	r5, r0
 1106 0006 0E46     		mov	r6, r1
 160:App/Src/fault_command.c ****                            VoltageSim_GetActiveFaultCount());
 1107              		.loc 1 160 3 is_stmt 1 view .LVU167
 161:App/Src/fault_command.c **** 
 1108              		.loc 1 161 28 is_stmt 0 view .LVU168
 1109 0008 FFF7FEFF 		bl	VoltageSim_GetActiveFaultCount
 1110              	.LVL96:
 161:App/Src/fault_command.c **** 
 1111              		.loc 1 161 28 view .LVU169
 1112 000c 0346     		mov	r3, r0
 160:App/Src/fault_command.c ****                            VoltageSim_GetActiveFaultCount());
 1113              		.loc 1 160 3 view .LVU170
 1114 000e 234A     		ldr	r2, .L60
 1115 0010 3146     		mov	r1, r6
 1116 0012 2846     		mov	r0, r5
 1117 0014 FFF7FEFF 		bl	FaultCommand_WriteFormat
 1118              	.LVL97:
 163:App/Src/fault_command.c ****   {
 1119              		.loc 1 163 3 is_stmt 1 view .LVU171
 1120              	.LBB5:
 163:App/Src/fault_command.c ****   {
 1121              		.loc 1 163 8 view .LVU172
 163:App/Src/fault_command.c ****   {
 1122              		.loc 1 163 16 is_stmt 0 view .LVU173
 1123 0018 0124     		movs	r4, #1
 163:App/Src/fault_command.c ****   {
 1124              		.loc 1 163 3 view .LVU174
 1125 001a 10E0     		b	.L53
 1126              	.LVL98:
 1127              	.L59:
 1128              	.LBB6:
 172:App/Src/fault_command.c ****                                context,
 1129              		.loc 1 172 7 is_stmt 1 view .LVU175
 175:App/Src/fault_command.c ****     }
 1130              		.loc 1 175 37 is_stmt 0 view .LVU176
 1131 001c 2046     		mov	r0, r4
 1132 001e FFF7FEFF 		bl	VoltageSim_GetCellCalibrationOffsetMv
 1133              	.LVL99:
 1134 0022 0346     		mov	r3, r0
 172:App/Src/fault_command.c ****                                context,
 1135              		.loc 1 172 7 view .LVU177
 1136 0024 1E4A     		ldr	r2, .L60+4
 1137 0026 3146     		mov	r1, r6
 1138 0028 2846     		mov	r0, r5
 1139 002a FFF7FEFF 		bl	FaultCommand_WriteFormat
 1140              	.LVL100:
 1141 002e 1BE0     		b	.L54
 1142              	.L55:
ARM GAS  C:\Users\hh\AppData\Local\Temp\cc8MU7EM.s 			page 32


 188:App/Src/fault_command.c ****   }
 1143              		.loc 1 188 5 is_stmt 1 view .LVU178
 1144 0030 1C4A     		ldr	r2, .L60+8
 1145 0032 3146     		mov	r1, r6
 1146 0034 2846     		mov	r0, r5
 1147 0036 FFF7FEFF 		bl	FaultCommand_Write
 1148              	.LVL101:
 1149              	.LBE6:
 163:App/Src/fault_command.c ****   {
 1150              		.loc 1 163 63 discriminator 2 view .LVU179
 1151 003a 0134     		adds	r4, r4, #1
 1152              	.LVL102:
 163:App/Src/fault_command.c ****   {
 1153              		.loc 1 163 63 is_stmt 0 discriminator 2 view .LVU180
 1154 003c E4B2     		uxtb	r4, r4
 1155              	.LVL103:
 1156              	.L53:
 163:App/Src/fault_command.c ****   {
 1157              		.loc 1 163 32 is_stmt 1 discriminator 1 view .LVU181
 1158 003e 0D2C     		cmp	r4, #13
 1159 0040 2AD8     		bhi	.L58
 1160              	.LBB7:
 165:App/Src/fault_command.c **** 
 1161              		.loc 1 165 5 view .LVU182
 165:App/Src/fault_command.c **** 
 1162              		.loc 1 165 37 is_stmt 0 view .LVU183
 1163 0042 2146     		mov	r1, r4
 1164 0044 04A8     		add	r0, sp, #16
 1165 0046 FFF7FEFF 		bl	VoltageSim_GetCellFaultInfo
 1166              	.LVL104:
 167:App/Src/fault_command.c ****                              cell,
 1167              		.loc 1 167 5 is_stmt 1 view .LVU184
 169:App/Src/fault_command.c ****     if (VoltageSim_GetCellCalibrationOffsetMv(cell) != 0)
 1168              		.loc 1 169 30 is_stmt 0 view .LVU185
 1169 004a 2046     		mov	r0, r4
 1170 004c FFF7FEFF 		bl	VoltageSim_GetLastCellVoltageMv
 1171              	.LVL105:
 167:App/Src/fault_command.c ****                              cell,
 1172              		.loc 1 167 5 view .LVU186
 1173 0050 0090     		str	r0, [sp]
 1174 0052 2346     		mov	r3, r4
 1175 0054 144A     		ldr	r2, .L60+12
 1176 0056 3146     		mov	r1, r6
 1177 0058 2846     		mov	r0, r5
 1178 005a FFF7FEFF 		bl	FaultCommand_WriteFormat
 1179              	.LVL106:
 170:App/Src/fault_command.c ****     {
 1180              		.loc 1 170 5 is_stmt 1 view .LVU187
 170:App/Src/fault_command.c ****     {
 1181              		.loc 1 170 9 is_stmt 0 view .LVU188
 1182 005e 2046     		mov	r0, r4
 1183 0060 FFF7FEFF 		bl	VoltageSim_GetCellCalibrationOffsetMv
 1184              	.LVL107:
 170:App/Src/fault_command.c ****     {
 1185              		.loc 1 170 8 discriminator 1 view .LVU189
 1186 0064 0028     		cmp	r0, #0
 1187 0066 D9D1     		bne	.L59
ARM GAS  C:\Users\hh\AppData\Local\Temp\cc8MU7EM.s 			page 33


 1188              	.L54:
 177:App/Src/fault_command.c ****     {
 1189              		.loc 1 177 5 is_stmt 1 view .LVU190
 177:App/Src/fault_command.c ****     {
 1190              		.loc 1 177 13 is_stmt 0 view .LVU191
 1191 0068 9DF81000 		ldrb	r0, [sp, #16]	@ zero_extendqisi2
 177:App/Src/fault_command.c ****     {
 1192              		.loc 1 177 8 view .LVU192
 1193 006c 0028     		cmp	r0, #0
 1194 006e DFD0     		beq	.L55
 179:App/Src/fault_command.c ****                                context,
 1195              		.loc 1 179 7 is_stmt 1 view .LVU193
 1196 0070 FFF7FEFF 		bl	VoltageSim_GetFaultTypeName
 1197              	.LVL108:
 1198 0074 0346     		mov	r3, r0
 183:App/Src/fault_command.c ****                                info.restoreMillivolts,
 1199              		.loc 1 183 36 is_stmt 0 view .LVU194
 1200 0076 BDF81220 		ldrh	r2, [sp, #18]
 184:App/Src/fault_command.c ****                                (unsigned long)info.durationMs,
 1201              		.loc 1 184 36 view .LVU195
 1202 007a BDF81410 		ldrh	r1, [sp, #20]
 186:App/Src/fault_command.c ****     }
 1203              		.loc 1 186 36 view .LVU196
 1204 007e BDF81C00 		ldrh	r0, [sp, #28]
 179:App/Src/fault_command.c ****                                context,
 1205              		.loc 1 179 7 view .LVU197
 1206 0082 0390     		str	r0, [sp, #12]
 1207 0084 0698     		ldr	r0, [sp, #24]
 1208 0086 0290     		str	r0, [sp, #8]
 1209 0088 0191     		str	r1, [sp, #4]
 1210 008a 0092     		str	r2, [sp]
 1211 008c 074A     		ldr	r2, .L60+16
 1212 008e 3146     		mov	r1, r6
 1213 0090 2846     		mov	r0, r5
 1214 0092 FFF7FEFF 		bl	FaultCommand_WriteFormat
 1215              	.LVL109:
 1216 0096 CBE7     		b	.L55
 1217              	.L58:
 179:App/Src/fault_command.c ****                                context,
 1218              		.loc 1 179 7 view .LVU198
 1219              	.LBE7:
 1220              	.LBE5:
 190:App/Src/fault_command.c **** 
 1221              		.loc 1 190 1 view .LVU199
 1222 0098 08B0     		add	sp, sp, #32
 1223              	.LCFI32:
 1224              		.cfi_def_cfa_offset 16
 1225              		@ sp needed
 1226 009a 70BD     		pop	{r4, r5, r6, pc}
 1227              	.LVL110:
 1228              	.L61:
 190:App/Src/fault_command.c **** 
 1229              		.loc 1 190 1 view .LVU200
 1230              		.align	2
 1231              	.L60:
 1232 009c 00000000 		.word	.LC33
 1233 00a0 30000000 		.word	.LC35
ARM GAS  C:\Users\hh\AppData\Local\Temp\cc8MU7EM.s 			page 34


 1234 00a4 7C000000 		.word	.LC37
 1235 00a8 20000000 		.word	.LC34
 1236 00ac 3C000000 		.word	.LC36
 1237              		.cfi_endproc
 1238              	.LFE156:
 1240              		.section	.rodata.FaultCommand_WriteTextWaveStatus.str1.4,"aMS",%progbits,1
 1241              		.align	2
 1242              	.LC38:
 1243 0000 5B776176 		.ascii	"[wave] active=%u type=%s cell=%u period=%lums last="
 1243      655D2061 
 1243      63746976 
 1243      653D2575 
 1243      20747970 
 1244 0033 25756D56 		.ascii	"%umV\015\012\000"
 1244      0D0A00
 1245              		.section	.text.FaultCommand_WriteTextWaveStatus,"ax",%progbits
 1246              		.align	1
 1247              		.syntax unified
 1248              		.thumb
 1249              		.thumb_func
 1251              	FaultCommand_WriteTextWaveStatus:
 1252              	.LVL111:
 1253              	.LFB153:
  79:App/Src/fault_command.c ****   WaveformGen_Status status = WaveformGen_GetStatus();
 1254              		.loc 1 79 1 is_stmt 1 view -0
 1255              		.cfi_startproc
 1256              		@ args = 0, pretend = 0, frame = 24
 1257              		@ frame_needed = 0, uses_anonymous_args = 0
  79:App/Src/fault_command.c ****   WaveformGen_Status status = WaveformGen_GetStatus();
 1258              		.loc 1 79 1 is_stmt 0 view .LVU202
 1259 0000 70B5     		push	{r4, r5, r6, lr}
 1260              	.LCFI33:
 1261              		.cfi_def_cfa_offset 16
 1262              		.cfi_offset 4, -16
 1263              		.cfi_offset 5, -12
 1264              		.cfi_offset 6, -8
 1265              		.cfi_offset 14, -4
 1266 0002 8AB0     		sub	sp, sp, #40
 1267              	.LCFI34:
 1268              		.cfi_def_cfa_offset 56
 1269 0004 0646     		mov	r6, r0
 1270 0006 0D46     		mov	r5, r1
  80:App/Src/fault_command.c **** 
 1271              		.loc 1 80 3 is_stmt 1 view .LVU203
  80:App/Src/fault_command.c **** 
 1272              		.loc 1 80 31 is_stmt 0 view .LVU204
 1273 0008 05A8     		add	r0, sp, #20
 1274              	.LVL112:
  80:App/Src/fault_command.c **** 
 1275              		.loc 1 80 31 view .LVU205
 1276 000a FFF7FEFF 		bl	WaveformGen_GetStatus
 1277              	.LVL113:
  82:App/Src/fault_command.c ****                            context,
 1278              		.loc 1 82 3 is_stmt 1 view .LVU206
  85:App/Src/fault_command.c ****                            WaveformGen_GetTypeName(status.type),
 1279              		.loc 1 85 34 is_stmt 0 view .LVU207
 1280 000e 9DF81540 		ldrb	r4, [sp, #21]	@ zero_extendqisi2
ARM GAS  C:\Users\hh\AppData\Local\Temp\cc8MU7EM.s 			page 35


  82:App/Src/fault_command.c ****                            context,
 1281              		.loc 1 82 3 view .LVU208
 1282 0012 9DF81400 		ldrb	r0, [sp, #20]	@ zero_extendqisi2
 1283 0016 FFF7FEFF 		bl	WaveformGen_GetTypeName
 1284              	.LVL114:
  87:App/Src/fault_command.c ****                            (unsigned long)status.periodMs,
 1285              		.loc 1 87 34 view .LVU209
 1286 001a 9DF81630 		ldrb	r3, [sp, #22]	@ zero_extendqisi2
  89:App/Src/fault_command.c **** }
 1287              		.loc 1 89 34 view .LVU210
 1288 001e BDF82420 		ldrh	r2, [sp, #36]
  82:App/Src/fault_command.c ****                            context,
 1289              		.loc 1 82 3 view .LVU211
 1290 0022 0392     		str	r2, [sp, #12]
 1291 0024 089A     		ldr	r2, [sp, #32]
 1292 0026 0292     		str	r2, [sp, #8]
 1293 0028 0193     		str	r3, [sp, #4]
 1294 002a 0090     		str	r0, [sp]
 1295 002c 2346     		mov	r3, r4
 1296 002e 034A     		ldr	r2, .L64
 1297 0030 2946     		mov	r1, r5
 1298 0032 3046     		mov	r0, r6
 1299 0034 FFF7FEFF 		bl	FaultCommand_WriteFormat
 1300              	.LVL115:
  90:App/Src/fault_command.c **** 
 1301              		.loc 1 90 1 view .LVU212
 1302 0038 0AB0     		add	sp, sp, #40
 1303              	.LCFI35:
 1304              		.cfi_def_cfa_offset 16
 1305              		@ sp needed
 1306 003a 70BD     		pop	{r4, r5, r6, pc}
 1307              	.LVL116:
 1308              	.L65:
  90:App/Src/fault_command.c **** 
 1309              		.loc 1 90 1 view .LVU213
 1310              		.align	2
 1311              	.L64:
 1312 003c 00000000 		.word	.LC38
 1313              		.cfi_endproc
 1314              	.LFE153:
 1316              		.section	.rodata.FaultCommand_WriteTextCalibrationStatus.str1.4,"aMS",%progbits,1
 1317              		.align	2
 1318              	.LC39:
 1319 0000 0D0A5B63 		.ascii	"\015\012[cal]\015\012\000"
 1319      616C5D0D 
 1319      0A00
 1320 000a 0000     		.align	2
 1321              	.LC40:
 1322 000c 20204325 		.ascii	"  C%02u offset=%dmV\015\012\000"
 1322      30327520 
 1322      6F666673 
 1322      65743D25 
 1322      646D560D 
 1323              		.section	.text.FaultCommand_WriteTextCalibrationStatus,"ax",%progbits
 1324              		.align	1
 1325              		.syntax unified
 1326              		.thumb
ARM GAS  C:\Users\hh\AppData\Local\Temp\cc8MU7EM.s 			page 36


 1327              		.thumb_func
 1329              	FaultCommand_WriteTextCalibrationStatus:
 1330              	.LVL117:
 1331              	.LFB157:
 193:App/Src/fault_command.c ****   FaultCommand_Write(write, context, "\r\n[cal]\r\n");
 1332              		.loc 1 193 1 is_stmt 1 view -0
 1333              		.cfi_startproc
 1334              		@ args = 0, pretend = 0, frame = 0
 1335              		@ frame_needed = 0, uses_anonymous_args = 0
 193:App/Src/fault_command.c ****   FaultCommand_Write(write, context, "\r\n[cal]\r\n");
 1336              		.loc 1 193 1 is_stmt 0 view .LVU215
 1337 0000 70B5     		push	{r4, r5, r6, lr}
 1338              	.LCFI36:
 1339              		.cfi_def_cfa_offset 16
 1340              		.cfi_offset 4, -16
 1341              		.cfi_offset 5, -12
 1342              		.cfi_offset 6, -8
 1343              		.cfi_offset 14, -4
 1344 0002 82B0     		sub	sp, sp, #8
 1345              	.LCFI37:
 1346              		.cfi_def_cfa_offset 24
 1347 0004 0646     		mov	r6, r0
 1348 0006 0D46     		mov	r5, r1
 194:App/Src/fault_command.c **** 
 1349              		.loc 1 194 3 is_stmt 1 view .LVU216
 1350 0008 0A4A     		ldr	r2, .L70
 1351 000a FFF7FEFF 		bl	FaultCommand_Write
 1352              	.LVL118:
 196:App/Src/fault_command.c ****   {
 1353              		.loc 1 196 3 view .LVU217
 1354              	.LBB8:
 196:App/Src/fault_command.c ****   {
 1355              		.loc 1 196 8 view .LVU218
 196:App/Src/fault_command.c ****   {
 1356              		.loc 1 196 16 is_stmt 0 view .LVU219
 1357 000e 0124     		movs	r4, #1
 196:App/Src/fault_command.c ****   {
 1358              		.loc 1 196 3 view .LVU220
 1359 0010 0BE0     		b	.L67
 1360              	.LVL119:
 1361              	.L68:
 198:App/Src/fault_command.c ****                              context,
 1362              		.loc 1 198 5 is_stmt 1 view .LVU221
 202:App/Src/fault_command.c ****   }
 1363              		.loc 1 202 35 is_stmt 0 view .LVU222
 1364 0012 2046     		mov	r0, r4
 1365 0014 FFF7FEFF 		bl	VoltageSim_GetCellCalibrationOffsetMv
 1366              	.LVL120:
 198:App/Src/fault_command.c ****                              context,
 1367              		.loc 1 198 5 view .LVU223
 1368 0018 0090     		str	r0, [sp]
 1369 001a 2346     		mov	r3, r4
 1370 001c 064A     		ldr	r2, .L70+4
 1371 001e 2946     		mov	r1, r5
 1372 0020 3046     		mov	r0, r6
 1373 0022 FFF7FEFF 		bl	FaultCommand_WriteFormat
 1374              	.LVL121:
ARM GAS  C:\Users\hh\AppData\Local\Temp\cc8MU7EM.s 			page 37


 196:App/Src/fault_command.c ****   {
 1375              		.loc 1 196 63 is_stmt 1 discriminator 3 view .LVU224
 1376 0026 0134     		adds	r4, r4, #1
 1377              	.LVL122:
 196:App/Src/fault_command.c ****   {
 1378              		.loc 1 196 63 is_stmt 0 discriminator 3 view .LVU225
 1379 0028 E4B2     		uxtb	r4, r4
 1380              	.LVL123:
 1381              	.L67:
 196:App/Src/fault_command.c ****   {
 1382              		.loc 1 196 32 is_stmt 1 discriminator 1 view .LVU226
 1383 002a 0D2C     		cmp	r4, #13
 1384 002c F1D9     		bls	.L68
 1385              	.LBE8:
 204:App/Src/fault_command.c **** 
 1386              		.loc 1 204 1 is_stmt 0 view .LVU227
 1387 002e 02B0     		add	sp, sp, #8
 1388              	.LCFI38:
 1389              		.cfi_def_cfa_offset 16
 1390              		@ sp needed
 1391 0030 70BD     		pop	{r4, r5, r6, pc}
 1392              	.LVL124:
 1393              	.L71:
 204:App/Src/fault_command.c **** 
 1394              		.loc 1 204 1 view .LVU228
 1395 0032 00BF     		.align	2
 1396              	.L70:
 1397 0034 00000000 		.word	.LC39
 1398 0038 0C000000 		.word	.LC40
 1399              		.cfi_endproc
 1400              	.LFE157:
 1402              		.section	.rodata.FaultCommand_WriteTextResult.str1.4,"aMS",%progbits,1
 1403              		.align	2
 1404              	.LC41:
 1405 0000 4F4B00   		.ascii	"OK\000"
 1406 0003 00       		.align	2
 1407              	.LC42:
 1408 0004 45525200 		.ascii	"ERR\000"
 1409              		.align	2
 1410              	.LC43:
 1411 0008 5B636D64 		.ascii	"[cmd] %s %s\015\012\000"
 1411      5D202573 
 1411      2025730D 
 1411      0A00
 1412              		.section	.text.FaultCommand_WriteTextResult,"ax",%progbits
 1413              		.align	1
 1414              		.syntax unified
 1415              		.thumb
 1416              		.thumb_func
 1418              	FaultCommand_WriteTextResult:
 1419              	.LVL125:
 1420              	.LFB158:
 210:App/Src/fault_command.c ****   FaultCommand_WriteFormat(write, context, "[cmd] %s %s\r\n",
 1421              		.loc 1 210 1 is_stmt 1 view -0
 1422              		.cfi_startproc
 1423              		@ args = 0, pretend = 0, frame = 0
 1424              		@ frame_needed = 0, uses_anonymous_args = 0
ARM GAS  C:\Users\hh\AppData\Local\Temp\cc8MU7EM.s 			page 38


 210:App/Src/fault_command.c ****   FaultCommand_WriteFormat(write, context, "[cmd] %s %s\r\n",
 1425              		.loc 1 210 1 is_stmt 0 view .LVU230
 1426 0000 00B5     		push	{lr}
 1427              	.LCFI39:
 1428              		.cfi_def_cfa_offset 4
 1429              		.cfi_offset 14, -4
 1430 0002 83B0     		sub	sp, sp, #12
 1431              	.LCFI40:
 1432              		.cfi_def_cfa_offset 16
 211:App/Src/fault_command.c ****                            name,
 1433              		.loc 1 211 3 is_stmt 1 view .LVU231
 1434 0004 3BB9     		cbnz	r3, .L74
 211:App/Src/fault_command.c ****                            name,
 1435              		.loc 1 211 3 is_stmt 0 discriminator 1 view .LVU232
 1436 0006 054B     		ldr	r3, .L76
 1437              	.LVL126:
 1438              	.L73:
 211:App/Src/fault_command.c ****                            name,
 1439              		.loc 1 211 3 discriminator 4 view .LVU233
 1440 0008 0093     		str	r3, [sp]
 1441 000a 1346     		mov	r3, r2
 1442 000c 044A     		ldr	r2, .L76+4
 1443              	.LVL127:
 211:App/Src/fault_command.c ****                            name,
 1444              		.loc 1 211 3 discriminator 4 view .LVU234
 1445 000e FFF7FEFF 		bl	FaultCommand_WriteFormat
 1446              	.LVL128:
 214:App/Src/fault_command.c **** 
 1447              		.loc 1 214 1 view .LVU235
 1448 0012 03B0     		add	sp, sp, #12
 1449              	.LCFI41:
 1450              		.cfi_remember_state
 1451              		.cfi_def_cfa_offset 4
 1452              		@ sp needed
 1453 0014 00BD     		pop	{pc}
 1454              	.LVL129:
 1455              	.L74:
 1456              	.LCFI42:
 1457              		.cfi_restore_state
 211:App/Src/fault_command.c ****                            name,
 1458              		.loc 1 211 3 discriminator 2 view .LVU236
 1459 0016 034B     		ldr	r3, .L76+8
 1460              	.LVL130:
 211:App/Src/fault_command.c ****                            name,
 1461              		.loc 1 211 3 discriminator 2 view .LVU237
 1462 0018 F6E7     		b	.L73
 1463              	.L77:
 1464 001a 00BF     		.align	2
 1465              	.L76:
 1466 001c 00000000 		.word	.LC41
 1467 0020 08000000 		.word	.LC43
 1468 0024 04000000 		.word	.LC42
 1469              		.cfi_endproc
 1470              	.LFE158:
 1472              		.section	.rodata.FaultCommand_FindJsonKey.str1.4,"aMS",%progbits,1
 1473              		.align	2
 1474              	.LC44:
ARM GAS  C:\Users\hh\AppData\Local\Temp\cc8MU7EM.s 			page 39


 1475 0000 22257322 		.ascii	"\"%s\"\000"
 1475      00
 1476              		.section	.text.FaultCommand_FindJsonKey,"ax",%progbits
 1477              		.align	1
 1478              		.syntax unified
 1479              		.thumb
 1480              		.thumb_func
 1482              	FaultCommand_FindJsonKey:
 1483              	.LVL131:
 1484              	.LFB171:
 410:App/Src/fault_command.c **** 
 411:App/Src/fault_command.c **** static HAL_StatusTypeDef FaultCommand_ParseCanSendText(const char *line)
 412:App/Src/fault_command.c **** {
 413:App/Src/fault_command.c ****   unsigned long id;
 414:App/Src/fault_command.c ****   unsigned int length;
 415:App/Src/fault_command.c ****   int consumed = 0;
 416:App/Src/fault_command.c ****   const char *cursor;
 417:App/Src/fault_command.c ****   uint8_t data[BSP_CAN_MAX_DATA_LEN] = {0};
 418:App/Src/fault_command.c **** 
 419:App/Src/fault_command.c ****   if (sscanf(line, "can send %lx %u %n", &id, &length, &consumed) < 2)
 420:App/Src/fault_command.c ****   {
 421:App/Src/fault_command.c ****     return HAL_ERROR;
 422:App/Src/fault_command.c ****   }
 423:App/Src/fault_command.c **** 
 424:App/Src/fault_command.c ****   if ((id > 0x7FFUL) || (length > BSP_CAN_MAX_DATA_LEN))
 425:App/Src/fault_command.c ****   {
 426:App/Src/fault_command.c ****     return HAL_ERROR;
 427:App/Src/fault_command.c ****   }
 428:App/Src/fault_command.c **** 
 429:App/Src/fault_command.c ****   cursor = line + consumed;
 430:App/Src/fault_command.c ****   for (uint8_t index = 0U; index < length; index++)
 431:App/Src/fault_command.c ****   {
 432:App/Src/fault_command.c ****     char *endPtr;
 433:App/Src/fault_command.c ****     unsigned long value;
 434:App/Src/fault_command.c **** 
 435:App/Src/fault_command.c ****     cursor = FaultCommand_SkipSpaces(cursor);
 436:App/Src/fault_command.c ****     if ((cursor == NULL) || (*cursor == '\0'))
 437:App/Src/fault_command.c ****     {
 438:App/Src/fault_command.c ****       return HAL_ERROR;
 439:App/Src/fault_command.c ****     }
 440:App/Src/fault_command.c **** 
 441:App/Src/fault_command.c ****     value = strtoul(cursor, &endPtr, 16);
 442:App/Src/fault_command.c ****     if ((endPtr == cursor) || (value > 0xFFUL))
 443:App/Src/fault_command.c ****     {
 444:App/Src/fault_command.c ****       return HAL_ERROR;
 445:App/Src/fault_command.c ****     }
 446:App/Src/fault_command.c **** 
 447:App/Src/fault_command.c ****     data[index] = (uint8_t)value;
 448:App/Src/fault_command.c ****     cursor = endPtr;
 449:App/Src/fault_command.c ****   }
 450:App/Src/fault_command.c **** 
 451:App/Src/fault_command.c ****   return BspCan_SendClassic((uint32_t)id, 0U, data, (uint8_t)length);
 452:App/Src/fault_command.c **** }
 453:App/Src/fault_command.c **** 
 454:App/Src/fault_command.c **** static void FaultCommand_ExecuteText(const char *line, FaultCommand_WriteFn write, void *context)
 455:App/Src/fault_command.c **** {
 456:App/Src/fault_command.c ****   unsigned int cell;
ARM GAS  C:\Users\hh\AppData\Local\Temp\cc8MU7EM.s 			page 40


 457:App/Src/fault_command.c ****   unsigned int millivolts;
 458:App/Src/fault_command.c ****   unsigned int target;
 459:App/Src/fault_command.c ****   unsigned long duration;
 460:App/Src/fault_command.c ****   unsigned int slew;
 461:App/Src/fault_command.c ****   unsigned int lowMv;
 462:App/Src/fault_command.c ****   unsigned int highMv;
 463:App/Src/fault_command.c ****   unsigned int centerMv;
 464:App/Src/fault_command.c ****   unsigned int amplitudeMv;
 465:App/Src/fault_command.c ****   unsigned long periodMs;
 466:App/Src/fault_command.c ****   int calOffsetMv;
 467:App/Src/fault_command.c ****   unsigned int measuredMv;
 468:App/Src/fault_command.c **** 
 469:App/Src/fault_command.c ****   if ((strcmp(line, "help") == 0) || (strcmp(line, "?") == 0))
 470:App/Src/fault_command.c ****   {
 471:App/Src/fault_command.c ****     FaultCommand_WriteTextHelp(write, context);
 472:App/Src/fault_command.c ****   }
 473:App/Src/fault_command.c ****   else if (strcmp(line, "status") == 0)
 474:App/Src/fault_command.c ****   {
 475:App/Src/fault_command.c ****     FaultCommand_WriteTextStatus(write, context);
 476:App/Src/fault_command.c ****   }
 477:App/Src/fault_command.c ****   else if (strncmp(line, "normal", 6U) == 0)
 478:App/Src/fault_command.c ****   {
 479:App/Src/fault_command.c ****     millivolts = VOLTAGE_SIM_DEFAULT_NORMAL_MV;
 480:App/Src/fault_command.c ****     (void)sscanf(line, "normal %u", &millivolts);
 481:App/Src/fault_command.c ****     FaultCommand_WriteTextResult(write,
 482:App/Src/fault_command.c ****                                  context,
 483:App/Src/fault_command.c ****                                  "normal",
 484:App/Src/fault_command.c ****                                  FaultCommand_RunNormal((uint16_t)millivolts));
 485:App/Src/fault_command.c ****   }
 486:App/Src/fault_command.c ****   else if (sscanf(line, "set %u %u", &cell, &millivolts) == 2)
 487:App/Src/fault_command.c ****   {
 488:App/Src/fault_command.c ****     FaultCommand_WriteTextResult(write,
 489:App/Src/fault_command.c ****                                  context,
 490:App/Src/fault_command.c ****                                  "set",
 491:App/Src/fault_command.c ****                                  FaultCommand_RunSet((uint8_t)cell, (uint16_t)millivolts));
 492:App/Src/fault_command.c ****   }
 493:App/Src/fault_command.c ****   else if (strncmp(line, "ov ", 3U) == 0)
 494:App/Src/fault_command.c ****   {
 495:App/Src/fault_command.c ****     cell = 0U;
 496:App/Src/fault_command.c ****     target = VOLTAGE_SIM_DEFAULT_OV_MV;
 497:App/Src/fault_command.c ****     duration = FAULT_COMMAND_DEFAULT_DURATION_MS;
 498:App/Src/fault_command.c ****     slew = FAULT_COMMAND_DEFAULT_SLEW_MV_PER_MS;
 499:App/Src/fault_command.c ****     if (sscanf(line, "ov %u %u %lu %u", &cell, &target, &duration, &slew) < 1)
 500:App/Src/fault_command.c ****     {
 501:App/Src/fault_command.c ****       FaultCommand_WriteTextResult(write, context, "ov", HAL_ERROR);
 502:App/Src/fault_command.c ****       return;
 503:App/Src/fault_command.c ****     }
 504:App/Src/fault_command.c **** 
 505:App/Src/fault_command.c ****     FaultCommand_WriteTextResult(write,
 506:App/Src/fault_command.c ****                                  context,
 507:App/Src/fault_command.c ****                                  "ov",
 508:App/Src/fault_command.c ****                                  FaultCommand_RunOverVoltage((uint8_t)cell,
 509:App/Src/fault_command.c ****                                                              (uint16_t)target,
 510:App/Src/fault_command.c ****                                                              (uint32_t)duration,
 511:App/Src/fault_command.c ****                                                              (uint16_t)slew));
 512:App/Src/fault_command.c ****   }
 513:App/Src/fault_command.c ****   else if (strncmp(line, "uv ", 3U) == 0)
ARM GAS  C:\Users\hh\AppData\Local\Temp\cc8MU7EM.s 			page 41


 514:App/Src/fault_command.c ****   {
 515:App/Src/fault_command.c ****     cell = 0U;
 516:App/Src/fault_command.c ****     target = VOLTAGE_SIM_DEFAULT_UV_MV;
 517:App/Src/fault_command.c ****     duration = FAULT_COMMAND_DEFAULT_DURATION_MS;
 518:App/Src/fault_command.c ****     slew = FAULT_COMMAND_DEFAULT_SLEW_MV_PER_MS;
 519:App/Src/fault_command.c ****     if (sscanf(line, "uv %u %u %lu %u", &cell, &target, &duration, &slew) < 1)
 520:App/Src/fault_command.c ****     {
 521:App/Src/fault_command.c ****       FaultCommand_WriteTextResult(write, context, "uv", HAL_ERROR);
 522:App/Src/fault_command.c ****       return;
 523:App/Src/fault_command.c ****     }
 524:App/Src/fault_command.c **** 
 525:App/Src/fault_command.c ****     FaultCommand_WriteTextResult(write,
 526:App/Src/fault_command.c ****                                  context,
 527:App/Src/fault_command.c ****                                  "uv",
 528:App/Src/fault_command.c ****                                  FaultCommand_RunUnderVoltage((uint8_t)cell,
 529:App/Src/fault_command.c ****                                                               (uint16_t)target,
 530:App/Src/fault_command.c ****                                                               (uint32_t)duration,
 531:App/Src/fault_command.c ****                                                               (uint16_t)slew));
 532:App/Src/fault_command.c ****   }
 533:App/Src/fault_command.c ****   else if (strncmp(line, "diff ", 5U) == 0)
 534:App/Src/fault_command.c ****   {
 535:App/Src/fault_command.c ****     unsigned int highCell;
 536:App/Src/fault_command.c ****     unsigned int highMv;
 537:App/Src/fault_command.c ****     unsigned int lowCell;
 538:App/Src/fault_command.c ****     unsigned int lowMv;
 539:App/Src/fault_command.c **** 
 540:App/Src/fault_command.c ****     duration = FAULT_COMMAND_DEFAULT_DURATION_MS;
 541:App/Src/fault_command.c ****     slew = FAULT_COMMAND_DEFAULT_SLEW_MV_PER_MS;
 542:App/Src/fault_command.c ****     if (sscanf(line,
 543:App/Src/fault_command.c ****                "diff %u %u %u %u %lu %u",
 544:App/Src/fault_command.c ****                &highCell,
 545:App/Src/fault_command.c ****                &highMv,
 546:App/Src/fault_command.c ****                &lowCell,
 547:App/Src/fault_command.c ****                &lowMv,
 548:App/Src/fault_command.c ****                &duration,
 549:App/Src/fault_command.c ****                &slew) < 4)
 550:App/Src/fault_command.c ****     {
 551:App/Src/fault_command.c ****       FaultCommand_WriteTextResult(write, context, "diff", HAL_ERROR);
 552:App/Src/fault_command.c ****       return;
 553:App/Src/fault_command.c ****     }
 554:App/Src/fault_command.c **** 
 555:App/Src/fault_command.c ****     FaultCommand_WriteTextResult(write,
 556:App/Src/fault_command.c ****                                  context,
 557:App/Src/fault_command.c ****                                  "diff",
 558:App/Src/fault_command.c ****                                  FaultCommand_RunDiff((uint8_t)highCell,
 559:App/Src/fault_command.c ****                                                       (uint16_t)highMv,
 560:App/Src/fault_command.c ****                                                       (uint8_t)lowCell,
 561:App/Src/fault_command.c ****                                                       (uint16_t)lowMv,
 562:App/Src/fault_command.c ****                                                       (uint32_t)duration,
 563:App/Src/fault_command.c ****                                                       (uint16_t)slew));
 564:App/Src/fault_command.c ****   }
 565:App/Src/fault_command.c ****   else if (strcmp(line, "wave status") == 0)
 566:App/Src/fault_command.c ****   {
 567:App/Src/fault_command.c ****     FaultCommand_WriteTextWaveStatus(write, context);
 568:App/Src/fault_command.c ****   }
 569:App/Src/fault_command.c ****   else if (strcmp(line, "wave stop") == 0)
 570:App/Src/fault_command.c ****   {
ARM GAS  C:\Users\hh\AppData\Local\Temp\cc8MU7EM.s 			page 42


 571:App/Src/fault_command.c ****     WaveformGen_Stop();
 572:App/Src/fault_command.c ****     FaultCommand_WriteTextResult(write, context, "wave", HAL_OK);
 573:App/Src/fault_command.c ****   }
 574:App/Src/fault_command.c ****   else if (strncmp(line, "wave square ", 12U) == 0)
 575:App/Src/fault_command.c ****   {
 576:App/Src/fault_command.c ****     if (sscanf(line,
 577:App/Src/fault_command.c ****                "wave square %u %u %u %lu",
 578:App/Src/fault_command.c ****                &cell,
 579:App/Src/fault_command.c ****                &lowMv,
 580:App/Src/fault_command.c ****                &highMv,
 581:App/Src/fault_command.c ****                &periodMs) != 4)
 582:App/Src/fault_command.c ****     {
 583:App/Src/fault_command.c ****       FaultCommand_WriteTextResult(write, context, "wave", HAL_ERROR);
 584:App/Src/fault_command.c ****       return;
 585:App/Src/fault_command.c ****     }
 586:App/Src/fault_command.c **** 
 587:App/Src/fault_command.c ****     FaultCommand_WriteTextResult(write,
 588:App/Src/fault_command.c ****                                  context,
 589:App/Src/fault_command.c ****                                  "wave",
 590:App/Src/fault_command.c ****                                  WaveformGen_StartSquare((uint8_t)cell,
 591:App/Src/fault_command.c ****                                                          (uint16_t)lowMv,
 592:App/Src/fault_command.c ****                                                          (uint16_t)highMv,
 593:App/Src/fault_command.c ****                                                          (uint32_t)periodMs));
 594:App/Src/fault_command.c ****   }
 595:App/Src/fault_command.c ****   else if (strncmp(line, "wave sine all ", 14U) == 0)
 596:App/Src/fault_command.c ****   {
 597:App/Src/fault_command.c ****     if (sscanf(line,
 598:App/Src/fault_command.c ****                "wave sine all %u %u %lu",
 599:App/Src/fault_command.c ****                &centerMv,
 600:App/Src/fault_command.c ****                &amplitudeMv,
 601:App/Src/fault_command.c ****                &periodMs) != 3)
 602:App/Src/fault_command.c ****     {
 603:App/Src/fault_command.c ****       FaultCommand_WriteTextResult(write, context, "wave", HAL_ERROR);
 604:App/Src/fault_command.c ****       return;
 605:App/Src/fault_command.c ****     }
 606:App/Src/fault_command.c **** 
 607:App/Src/fault_command.c ****     FaultCommand_WriteTextResult(write,
 608:App/Src/fault_command.c ****                                  context,
 609:App/Src/fault_command.c ****                                  "wave",
 610:App/Src/fault_command.c ****                                  WaveformGen_StartSineAll((uint16_t)centerMv,
 611:App/Src/fault_command.c ****                                                           (uint16_t)amplitudeMv,
 612:App/Src/fault_command.c ****                                                           (uint32_t)periodMs));
 613:App/Src/fault_command.c ****   }
 614:App/Src/fault_command.c ****   else if (strncmp(line, "wave sine ", 10U) == 0)
 615:App/Src/fault_command.c ****   {
 616:App/Src/fault_command.c ****     if (sscanf(line,
 617:App/Src/fault_command.c ****                "wave sine %u %u %u %lu",
 618:App/Src/fault_command.c ****                &cell,
 619:App/Src/fault_command.c ****                &centerMv,
 620:App/Src/fault_command.c ****                &amplitudeMv,
 621:App/Src/fault_command.c ****                &periodMs) != 4)
 622:App/Src/fault_command.c ****     {
 623:App/Src/fault_command.c ****       FaultCommand_WriteTextResult(write, context, "wave", HAL_ERROR);
 624:App/Src/fault_command.c ****       return;
 625:App/Src/fault_command.c ****     }
 626:App/Src/fault_command.c **** 
 627:App/Src/fault_command.c ****     FaultCommand_WriteTextResult(write,
ARM GAS  C:\Users\hh\AppData\Local\Temp\cc8MU7EM.s 			page 43


 628:App/Src/fault_command.c ****                                  context,
 629:App/Src/fault_command.c ****                                  "wave",
 630:App/Src/fault_command.c ****                                  WaveformGen_StartSine((uint8_t)cell,
 631:App/Src/fault_command.c ****                                                        (uint16_t)centerMv,
 632:App/Src/fault_command.c ****                                                        (uint16_t)amplitudeMv,
 633:App/Src/fault_command.c ****                                                        (uint32_t)periodMs));
 634:App/Src/fault_command.c ****   }
 635:App/Src/fault_command.c ****   else if (strcmp(line, "cal status") == 0)
 636:App/Src/fault_command.c ****   {
 637:App/Src/fault_command.c ****     FaultCommand_WriteTextCalibrationStatus(write, context);
 638:App/Src/fault_command.c ****   }
 639:App/Src/fault_command.c ****   else if (strncmp(line, "cal set ", 8U) == 0)
 640:App/Src/fault_command.c ****   {
 641:App/Src/fault_command.c ****     if (sscanf(line, "cal set %u %d", &cell, &calOffsetMv) != 2)
 642:App/Src/fault_command.c ****     {
 643:App/Src/fault_command.c ****       FaultCommand_WriteTextResult(write, context, "cal", HAL_ERROR);
 644:App/Src/fault_command.c ****       return;
 645:App/Src/fault_command.c ****     }
 646:App/Src/fault_command.c **** 
 647:App/Src/fault_command.c ****     FaultCommand_WriteTextResult(write,
 648:App/Src/fault_command.c ****                                  context,
 649:App/Src/fault_command.c ****                                  "cal",
 650:App/Src/fault_command.c ****                                  VoltageSim_SetCellCalibrationOffsetMv((uint8_t)cell,
 651:App/Src/fault_command.c ****                                                                         (int16_t)calOffsetMv));
 652:App/Src/fault_command.c ****   }
 653:App/Src/fault_command.c ****   else if (strncmp(line, "cal trim ", 9U) == 0)
 654:App/Src/fault_command.c ****   {
 655:App/Src/fault_command.c ****     if (sscanf(line, "cal trim %u %u %u", &cell, &target, &measuredMv) != 3)
 656:App/Src/fault_command.c ****     {
 657:App/Src/fault_command.c ****       FaultCommand_WriteTextResult(write, context, "cal", HAL_ERROR);
 658:App/Src/fault_command.c ****       return;
 659:App/Src/fault_command.c ****     }
 660:App/Src/fault_command.c **** 
 661:App/Src/fault_command.c ****     FaultCommand_WriteTextResult(write,
 662:App/Src/fault_command.c ****                                  context,
 663:App/Src/fault_command.c ****                                  "cal",
 664:App/Src/fault_command.c ****                                  FaultCommand_RunCalibrationTrim((uint8_t)cell,
 665:App/Src/fault_command.c ****                                                                  (uint16_t)target,
 666:App/Src/fault_command.c ****                                                                  (uint16_t)measuredMv));
 667:App/Src/fault_command.c ****   }
 668:App/Src/fault_command.c ****   else if (strncmp(line, "cal clear", 9U) == 0)
 669:App/Src/fault_command.c ****   {
 670:App/Src/fault_command.c ****     if (sscanf(line, "cal clear %u", &cell) == 1)
 671:App/Src/fault_command.c ****     {
 672:App/Src/fault_command.c ****       FaultCommand_WriteTextResult(write,
 673:App/Src/fault_command.c ****                                    context,
 674:App/Src/fault_command.c ****                                    "cal",
 675:App/Src/fault_command.c ****                                    VoltageSim_ClearCellCalibrationOffset((uint8_t)cell));
 676:App/Src/fault_command.c ****     }
 677:App/Src/fault_command.c ****     else
 678:App/Src/fault_command.c ****     {
 679:App/Src/fault_command.c ****       VoltageSim_ClearAllCalibrationOffsets();
 680:App/Src/fault_command.c ****       FaultCommand_WriteTextResult(write, context, "cal", HAL_OK);
 681:App/Src/fault_command.c ****     }
 682:App/Src/fault_command.c ****   }
 683:App/Src/fault_command.c ****   else if (strncmp(line, "test static ", 12U) == 0)
 684:App/Src/fault_command.c ****   {
ARM GAS  C:\Users\hh\AppData\Local\Temp\cc8MU7EM.s 			page 44


 685:App/Src/fault_command.c ****     if (sscanf(line, "test static %u", &millivolts) != 1)
 686:App/Src/fault_command.c ****     {
 687:App/Src/fault_command.c ****       FaultCommand_WriteTextResult(write, context, "test", HAL_ERROR);
 688:App/Src/fault_command.c ****       return;
 689:App/Src/fault_command.c ****     }
 690:App/Src/fault_command.c **** 
 691:App/Src/fault_command.c ****     FaultCommand_WriteTextResult(write,
 692:App/Src/fault_command.c ****                                  context,
 693:App/Src/fault_command.c ****                                  "test",
 694:App/Src/fault_command.c ****                                  FaultCommand_RunNormal((uint16_t)millivolts));
 695:App/Src/fault_command.c ****   }
 696:App/Src/fault_command.c ****   else if (strncmp(line, "test slew ", 10U) == 0)
 697:App/Src/fault_command.c ****   {
 698:App/Src/fault_command.c ****     if (sscanf(line,
 699:App/Src/fault_command.c ****                "test slew %u %u %u %lu",
 700:App/Src/fault_command.c ****                &cell,
 701:App/Src/fault_command.c ****                &lowMv,
 702:App/Src/fault_command.c ****                &highMv,
 703:App/Src/fault_command.c ****                &periodMs) != 4)
 704:App/Src/fault_command.c ****     {
 705:App/Src/fault_command.c ****       FaultCommand_WriteTextResult(write, context, "test", HAL_ERROR);
 706:App/Src/fault_command.c ****       return;
 707:App/Src/fault_command.c ****     }
 708:App/Src/fault_command.c **** 
 709:App/Src/fault_command.c ****     FaultCommand_WriteTextResult(write,
 710:App/Src/fault_command.c ****                                  context,
 711:App/Src/fault_command.c ****                                  "test",
 712:App/Src/fault_command.c ****                                  WaveformGen_StartSquare((uint8_t)cell,
 713:App/Src/fault_command.c ****                                                          (uint16_t)lowMv,
 714:App/Src/fault_command.c ****                                                          (uint16_t)highMv,
 715:App/Src/fault_command.c ****                                                          (uint32_t)periodMs));
 716:App/Src/fault_command.c ****   }
 717:App/Src/fault_command.c ****   else if (strcmp(line, "can status") == 0)
 718:App/Src/fault_command.c ****   {
 719:App/Src/fault_command.c ****     FaultCommand_WriteTextCanStatus(write, context);
 720:App/Src/fault_command.c ****   }
 721:App/Src/fault_command.c ****   else if (strncmp(line, "can send ", 9U) == 0)
 722:App/Src/fault_command.c ****   {
 723:App/Src/fault_command.c ****     FaultCommand_WriteTextResult(write,
 724:App/Src/fault_command.c ****                                  context,
 725:App/Src/fault_command.c ****                                  "can",
 726:App/Src/fault_command.c ****                                  FaultCommand_ParseCanSendText(line));
 727:App/Src/fault_command.c ****   }
 728:App/Src/fault_command.c ****   else if (strcmp(line, "log status") == 0)
 729:App/Src/fault_command.c ****   {
 730:App/Src/fault_command.c ****     FaultCommand_WriteTextBmsResponseLog(write, context);
 731:App/Src/fault_command.c ****   }
 732:App/Src/fault_command.c ****   else if (strcmp(line, "log clear") == 0)
 733:App/Src/fault_command.c ****   {
 734:App/Src/fault_command.c ****     BmsResponseLog_Clear();
 735:App/Src/fault_command.c ****     FaultCommand_WriteTextResult(write, context, "log", HAL_OK);
 736:App/Src/fault_command.c ****   }
 737:App/Src/fault_command.c ****   else if (strncmp(line, "clear", 5U) == 0)
 738:App/Src/fault_command.c ****   {
 739:App/Src/fault_command.c ****     WaveformGen_Stop();
 740:App/Src/fault_command.c ****     if (sscanf(line, "clear %u", &cell) == 1)
 741:App/Src/fault_command.c ****     {
ARM GAS  C:\Users\hh\AppData\Local\Temp\cc8MU7EM.s 			page 45


 742:App/Src/fault_command.c ****       FaultCommand_WriteTextResult(write, context, "clear", VoltageSim_ClearCellFault((uint8_t)cell
 743:App/Src/fault_command.c ****     }
 744:App/Src/fault_command.c ****     else
 745:App/Src/fault_command.c ****     {
 746:App/Src/fault_command.c ****       FaultCommand_WriteTextResult(write, context, "clear", VoltageSim_ClearAllFaults());
 747:App/Src/fault_command.c ****     }
 748:App/Src/fault_command.c ****   }
 749:App/Src/fault_command.c ****   else if (*line != '\0')
 750:App/Src/fault_command.c ****   {
 751:App/Src/fault_command.c ****     FaultCommand_WriteFormat(write, context, "[cmd] unknown: %s\r\n", line);
 752:App/Src/fault_command.c ****   }
 753:App/Src/fault_command.c **** }
 754:App/Src/fault_command.c **** 
 755:App/Src/fault_command.c **** static const char *FaultCommand_FindJsonKey(const char *json, const char *key)
 756:App/Src/fault_command.c **** {
 1485              		.loc 1 756 1 is_stmt 1 view -0
 1486              		.cfi_startproc
 1487              		@ args = 0, pretend = 0, frame = 32
 1488              		@ frame_needed = 0, uses_anonymous_args = 0
 1489              		.loc 1 756 1 is_stmt 0 view .LVU239
 1490 0000 30B5     		push	{r4, r5, lr}
 1491              	.LCFI43:
 1492              		.cfi_def_cfa_offset 12
 1493              		.cfi_offset 4, -12
 1494              		.cfi_offset 5, -8
 1495              		.cfi_offset 14, -4
 1496 0002 89B0     		sub	sp, sp, #36
 1497              	.LCFI44:
 1498              		.cfi_def_cfa_offset 48
 1499 0004 0546     		mov	r5, r0
 1500 0006 0B46     		mov	r3, r1
 757:App/Src/fault_command.c ****   char pattern[32];
 1501              		.loc 1 757 3 is_stmt 1 view .LVU240
 758:App/Src/fault_command.c **** 
 759:App/Src/fault_command.c ****   (void)snprintf(pattern, sizeof(pattern), "\"%s\"", key);
 1502              		.loc 1 759 3 view .LVU241
 1503              		.loc 1 759 9 is_stmt 0 view .LVU242
 1504 0008 054A     		ldr	r2, .L80
 1505 000a 2021     		movs	r1, #32
 1506              	.LVL132:
 1507              		.loc 1 759 9 view .LVU243
 1508 000c 6846     		mov	r0, sp
 1509              	.LVL133:
 1510              		.loc 1 759 9 view .LVU244
 1511 000e FFF7FEFF 		bl	snprintf
 1512              	.LVL134:
 760:App/Src/fault_command.c ****   return strstr(json, pattern);
 1513              		.loc 1 760 3 is_stmt 1 view .LVU245
 1514              		.loc 1 760 10 is_stmt 0 view .LVU246
 1515 0012 6946     		mov	r1, sp
 1516 0014 2846     		mov	r0, r5
 1517 0016 FFF7FEFF 		bl	strstr
 1518              	.LVL135:
 761:App/Src/fault_command.c **** }
 1519              		.loc 1 761 1 view .LVU247
 1520 001a 09B0     		add	sp, sp, #36
 1521              	.LCFI45:
ARM GAS  C:\Users\hh\AppData\Local\Temp\cc8MU7EM.s 			page 46


 1522              		.cfi_def_cfa_offset 12
 1523              		@ sp needed
 1524 001c 30BD     		pop	{r4, r5, pc}
 1525              	.LVL136:
 1526              	.L81:
 1527              		.loc 1 761 1 view .LVU248
 1528 001e 00BF     		.align	2
 1529              	.L80:
 1530 0020 00000000 		.word	.LC44
 1531              		.cfi_endproc
 1532              	.LFE171:
 1534              		.section	.text.FaultCommand_JsonGetInt,"ax",%progbits
 1535              		.align	1
 1536              		.syntax unified
 1537              		.thumb
 1538              		.thumb_func
 1540              	FaultCommand_JsonGetInt:
 1541              	.LVL137:
 1542              	.LFB174:
 762:App/Src/fault_command.c **** 
 763:App/Src/fault_command.c **** static uint8_t FaultCommand_JsonGetString(const char *json,
 764:App/Src/fault_command.c ****                                           const char *key,
 765:App/Src/fault_command.c ****                                           char *value,
 766:App/Src/fault_command.c ****                                           uint32_t valueSize)
 767:App/Src/fault_command.c **** {
 768:App/Src/fault_command.c ****   const char *cursor = FaultCommand_FindJsonKey(json, key);
 769:App/Src/fault_command.c ****   uint32_t index = 0U;
 770:App/Src/fault_command.c **** 
 771:App/Src/fault_command.c ****   if ((cursor == NULL) || (value == NULL) || (valueSize == 0U))
 772:App/Src/fault_command.c ****   {
 773:App/Src/fault_command.c ****     return 0U;
 774:App/Src/fault_command.c ****   }
 775:App/Src/fault_command.c **** 
 776:App/Src/fault_command.c ****   cursor = strchr(cursor, ':');
 777:App/Src/fault_command.c ****   if (cursor == NULL)
 778:App/Src/fault_command.c ****   {
 779:App/Src/fault_command.c ****     return 0U;
 780:App/Src/fault_command.c ****   }
 781:App/Src/fault_command.c **** 
 782:App/Src/fault_command.c ****   cursor++;
 783:App/Src/fault_command.c ****   while (*cursor == ' ')
 784:App/Src/fault_command.c ****   {
 785:App/Src/fault_command.c ****     cursor++;
 786:App/Src/fault_command.c ****   }
 787:App/Src/fault_command.c **** 
 788:App/Src/fault_command.c ****   if (*cursor != '"')
 789:App/Src/fault_command.c ****   {
 790:App/Src/fault_command.c ****     return 0U;
 791:App/Src/fault_command.c ****   }
 792:App/Src/fault_command.c **** 
 793:App/Src/fault_command.c ****   cursor++;
 794:App/Src/fault_command.c ****   while ((*cursor != '\0') && (*cursor != '"') && (index < (valueSize - 1U)))
 795:App/Src/fault_command.c ****   {
 796:App/Src/fault_command.c ****     value[index++] = *cursor++;
 797:App/Src/fault_command.c ****   }
 798:App/Src/fault_command.c ****   value[index] = '\0';
 799:App/Src/fault_command.c **** 
ARM GAS  C:\Users\hh\AppData\Local\Temp\cc8MU7EM.s 			page 47


 800:App/Src/fault_command.c ****   return (*cursor == '"') ? 1U : 0U;
 801:App/Src/fault_command.c **** }
 802:App/Src/fault_command.c **** 
 803:App/Src/fault_command.c **** static uint8_t FaultCommand_JsonGetUint(const char *json, const char *key, uint32_t *value)
 804:App/Src/fault_command.c **** {
 805:App/Src/fault_command.c ****   const char *cursor = FaultCommand_FindJsonKey(json, key);
 806:App/Src/fault_command.c **** 
 807:App/Src/fault_command.c ****   if ((cursor == NULL) || (value == NULL))
 808:App/Src/fault_command.c ****   {
 809:App/Src/fault_command.c ****     return 0U;
 810:App/Src/fault_command.c ****   }
 811:App/Src/fault_command.c **** 
 812:App/Src/fault_command.c ****   cursor = strchr(cursor, ':');
 813:App/Src/fault_command.c ****   if (cursor == NULL)
 814:App/Src/fault_command.c ****   {
 815:App/Src/fault_command.c ****     return 0U;
 816:App/Src/fault_command.c ****   }
 817:App/Src/fault_command.c **** 
 818:App/Src/fault_command.c ****   cursor++;
 819:App/Src/fault_command.c ****   while (*cursor == ' ')
 820:App/Src/fault_command.c ****   {
 821:App/Src/fault_command.c ****     cursor++;
 822:App/Src/fault_command.c ****   }
 823:App/Src/fault_command.c **** 
 824:App/Src/fault_command.c ****   *value = (uint32_t)strtoul(cursor, NULL, 10);
 825:App/Src/fault_command.c ****   return 1U;
 826:App/Src/fault_command.c **** }
 827:App/Src/fault_command.c **** 
 828:App/Src/fault_command.c **** static uint8_t FaultCommand_JsonGetInt(const char *json, const char *key, int32_t *value)
 829:App/Src/fault_command.c **** {
 1543              		.loc 1 829 1 is_stmt 1 view -0
 1544              		.cfi_startproc
 1545              		@ args = 0, pretend = 0, frame = 0
 1546              		@ frame_needed = 0, uses_anonymous_args = 0
 1547              		.loc 1 829 1 is_stmt 0 view .LVU250
 1548 0000 10B5     		push	{r4, lr}
 1549              	.LCFI46:
 1550              		.cfi_def_cfa_offset 8
 1551              		.cfi_offset 4, -8
 1552              		.cfi_offset 14, -4
 1553 0002 1446     		mov	r4, r2
 830:App/Src/fault_command.c ****   const char *cursor = FaultCommand_FindJsonKey(json, key);
 1554              		.loc 1 830 3 is_stmt 1 view .LVU251
 1555              		.loc 1 830 24 is_stmt 0 view .LVU252
 1556 0004 FFF7FEFF 		bl	FaultCommand_FindJsonKey
 1557              	.LVL138:
 831:App/Src/fault_command.c **** 
 832:App/Src/fault_command.c ****   if ((cursor == NULL) || (value == NULL))
 1558              		.loc 1 832 3 is_stmt 1 view .LVU253
 1559              		.loc 1 832 6 is_stmt 0 view .LVU254
 1560 0008 002C     		cmp	r4, #0
 1561 000a 18BF     		it	ne
 1562 000c 0028     		cmpne	r0, #0
 1563 000e 10D0     		beq	.L86
 833:App/Src/fault_command.c ****   {
 834:App/Src/fault_command.c ****     return 0U;
 835:App/Src/fault_command.c ****   }
ARM GAS  C:\Users\hh\AppData\Local\Temp\cc8MU7EM.s 			page 48


 836:App/Src/fault_command.c **** 
 837:App/Src/fault_command.c ****   cursor = strchr(cursor, ':');
 1564              		.loc 1 837 3 is_stmt 1 view .LVU255
 1565              		.loc 1 837 12 is_stmt 0 view .LVU256
 1566 0010 3A21     		movs	r1, #58
 1567 0012 FFF7FEFF 		bl	strchr
 1568              	.LVL139:
 838:App/Src/fault_command.c ****   if (cursor == NULL)
 1569              		.loc 1 838 3 is_stmt 1 view .LVU257
 1570              		.loc 1 838 6 is_stmt 0 view .LVU258
 1571 0016 58B1     		cbz	r0, .L83
 839:App/Src/fault_command.c ****   {
 840:App/Src/fault_command.c ****     return 0U;
 841:App/Src/fault_command.c ****   }
 842:App/Src/fault_command.c **** 
 843:App/Src/fault_command.c ****   cursor++;
 1572              		.loc 1 843 3 is_stmt 1 view .LVU259
 1573              		.loc 1 843 9 is_stmt 0 view .LVU260
 1574 0018 0130     		adds	r0, r0, #1
 1575              	.LVL140:
 844:App/Src/fault_command.c ****   while (*cursor == ' ')
 1576              		.loc 1 844 3 is_stmt 1 view .LVU261
 1577              	.L84:
 1578              		.loc 1 844 18 view .LVU262
 1579              		.loc 1 844 10 is_stmt 0 view .LVU263
 1580 001a 0378     		ldrb	r3, [r0]	@ zero_extendqisi2
 1581              		.loc 1 844 18 view .LVU264
 1582 001c 202B     		cmp	r3, #32
 1583 001e 01D1     		bne	.L89
 845:App/Src/fault_command.c ****   {
 846:App/Src/fault_command.c ****     cursor++;
 1584              		.loc 1 846 5 is_stmt 1 view .LVU265
 1585              		.loc 1 846 11 is_stmt 0 view .LVU266
 1586 0020 0130     		adds	r0, r0, #1
 1587              	.LVL141:
 1588              		.loc 1 846 11 view .LVU267
 1589 0022 FAE7     		b	.L84
 1590              	.LVL142:
 1591              	.L89:
 847:App/Src/fault_command.c ****   }
 848:App/Src/fault_command.c **** 
 849:App/Src/fault_command.c ****   *value = (int32_t)strtol(cursor, NULL, 10);
 1592              		.loc 1 849 3 is_stmt 1 view .LVU268
 1593              		.loc 1 849 12 is_stmt 0 view .LVU269
 1594 0024 0A22     		movs	r2, #10
 1595 0026 0021     		movs	r1, #0
 1596 0028 FFF7FEFF 		bl	strtol
 1597              	.LVL143:
 1598              		.loc 1 849 10 discriminator 1 view .LVU270
 1599 002c 2060     		str	r0, [r4]
 850:App/Src/fault_command.c ****   return 1U;
 1600              		.loc 1 850 3 is_stmt 1 view .LVU271
 1601              		.loc 1 850 10 is_stmt 0 view .LVU272
 1602 002e 0120     		movs	r0, #1
 1603              	.LVL144:
 1604              	.L83:
 851:App/Src/fault_command.c **** }
ARM GAS  C:\Users\hh\AppData\Local\Temp\cc8MU7EM.s 			page 49


 1605              		.loc 1 851 1 view .LVU273
 1606 0030 10BD     		pop	{r4, pc}
 1607              	.LVL145:
 1608              	.L86:
 834:App/Src/fault_command.c ****   }
 1609              		.loc 1 834 12 view .LVU274
 1610 0032 0020     		movs	r0, #0
 1611              	.LVL146:
 834:App/Src/fault_command.c ****   }
 1612              		.loc 1 834 12 view .LVU275
 1613 0034 FCE7     		b	.L83
 1614              		.cfi_endproc
 1615              	.LFE174:
 1617              		.section	.text.FaultCommand_JsonGetString,"ax",%progbits
 1618              		.align	1
 1619              		.syntax unified
 1620              		.thumb
 1621              		.thumb_func
 1623              	FaultCommand_JsonGetString:
 1624              	.LVL147:
 1625              	.LFB172:
 767:App/Src/fault_command.c ****   const char *cursor = FaultCommand_FindJsonKey(json, key);
 1626              		.loc 1 767 1 is_stmt 1 view -0
 1627              		.cfi_startproc
 1628              		@ args = 0, pretend = 0, frame = 0
 1629              		@ frame_needed = 0, uses_anonymous_args = 0
 767:App/Src/fault_command.c ****   const char *cursor = FaultCommand_FindJsonKey(json, key);
 1630              		.loc 1 767 1 is_stmt 0 view .LVU277
 1631 0000 38B5     		push	{r3, r4, r5, lr}
 1632              	.LCFI47:
 1633              		.cfi_def_cfa_offset 16
 1634              		.cfi_offset 3, -16
 1635              		.cfi_offset 4, -12
 1636              		.cfi_offset 5, -8
 1637              		.cfi_offset 14, -4
 1638 0002 1446     		mov	r4, r2
 1639 0004 1D46     		mov	r5, r3
 768:App/Src/fault_command.c ****   uint32_t index = 0U;
 1640              		.loc 1 768 3 is_stmt 1 view .LVU278
 768:App/Src/fault_command.c ****   uint32_t index = 0U;
 1641              		.loc 1 768 24 is_stmt 0 view .LVU279
 1642 0006 FFF7FEFF 		bl	FaultCommand_FindJsonKey
 1643              	.LVL148:
 769:App/Src/fault_command.c **** 
 1644              		.loc 1 769 3 is_stmt 1 view .LVU280
 771:App/Src/fault_command.c ****   {
 1645              		.loc 1 771 3 view .LVU281
 771:App/Src/fault_command.c ****   {
 1646              		.loc 1 771 6 is_stmt 0 view .LVU282
 1647 000a 002C     		cmp	r4, #0
 1648 000c 18BF     		it	ne
 1649 000e 0028     		cmpne	r0, #0
 1650 0010 28D0     		beq	.L97
 771:App/Src/fault_command.c ****   {
 1651              		.loc 1 771 43 discriminator 1 view .LVU283
 1652 0012 4DB3     		cbz	r5, .L98
 776:App/Src/fault_command.c ****   if (cursor == NULL)
ARM GAS  C:\Users\hh\AppData\Local\Temp\cc8MU7EM.s 			page 50


 1653              		.loc 1 776 3 is_stmt 1 view .LVU284
 776:App/Src/fault_command.c ****   if (cursor == NULL)
 1654              		.loc 1 776 12 is_stmt 0 view .LVU285
 1655 0014 3A21     		movs	r1, #58
 1656 0016 FFF7FEFF 		bl	strchr
 1657              	.LVL149:
 777:App/Src/fault_command.c ****   {
 1658              		.loc 1 777 3 is_stmt 1 view .LVU286
 777:App/Src/fault_command.c ****   {
 1659              		.loc 1 777 6 is_stmt 0 view .LVU287
 1660 001a 0146     		mov	r1, r0
 1661 001c 18B3     		cbz	r0, .L91
 782:App/Src/fault_command.c ****   while (*cursor == ' ')
 1662              		.loc 1 782 3 is_stmt 1 view .LVU288
 782:App/Src/fault_command.c ****   while (*cursor == ' ')
 1663              		.loc 1 782 9 is_stmt 0 view .LVU289
 1664 001e 0131     		adds	r1, r1, #1
 1665              	.LVL150:
 783:App/Src/fault_command.c ****   {
 1666              		.loc 1 783 3 is_stmt 1 view .LVU290
 783:App/Src/fault_command.c ****   {
 1667              		.loc 1 783 9 is_stmt 0 view .LVU291
 1668 0020 00E0     		b	.L92
 1669              	.L93:
 785:App/Src/fault_command.c ****   }
 1670              		.loc 1 785 5 is_stmt 1 view .LVU292
 785:App/Src/fault_command.c ****   }
 1671              		.loc 1 785 11 is_stmt 0 view .LVU293
 1672 0022 0131     		adds	r1, r1, #1
 1673              	.LVL151:
 1674              	.L92:
 783:App/Src/fault_command.c ****   {
 1675              		.loc 1 783 18 is_stmt 1 view .LVU294
 783:App/Src/fault_command.c ****   {
 1676              		.loc 1 783 10 is_stmt 0 view .LVU295
 1677 0024 0878     		ldrb	r0, [r1]	@ zero_extendqisi2
 783:App/Src/fault_command.c ****   {
 1678              		.loc 1 783 18 view .LVU296
 1679 0026 2028     		cmp	r0, #32
 1680 0028 FBD0     		beq	.L93
 788:App/Src/fault_command.c ****   {
 1681              		.loc 1 788 3 is_stmt 1 view .LVU297
 788:App/Src/fault_command.c ****   {
 1682              		.loc 1 788 6 is_stmt 0 view .LVU298
 1683 002a 2228     		cmp	r0, #34
 1684 002c 1ED1     		bne	.L100
 793:App/Src/fault_command.c ****   while ((*cursor != '\0') && (*cursor != '"') && (index < (valueSize - 1U)))
 1685              		.loc 1 793 3 is_stmt 1 view .LVU299
 793:App/Src/fault_command.c ****   while ((*cursor != '\0') && (*cursor != '"') && (index < (valueSize - 1U)))
 1686              		.loc 1 793 9 is_stmt 0 view .LVU300
 1687 002e 0131     		adds	r1, r1, #1
 1688              	.LVL152:
 794:App/Src/fault_command.c ****   {
 1689              		.loc 1 794 3 is_stmt 1 view .LVU301
 769:App/Src/fault_command.c **** 
 1690              		.loc 1 769 12 is_stmt 0 view .LVU302
 1691 0030 4FF0000C 		mov	ip, #0
ARM GAS  C:\Users\hh\AppData\Local\Temp\cc8MU7EM.s 			page 51


 794:App/Src/fault_command.c ****   {
 1692              		.loc 1 794 9 view .LVU303
 1693 0034 04E0     		b	.L94
 1694              	.LVL153:
 1695              	.L96:
 796:App/Src/fault_command.c ****   }
 1696              		.loc 1 796 5 is_stmt 1 view .LVU304
 796:App/Src/fault_command.c ****   }
 1697              		.loc 1 796 29 is_stmt 0 view .LVU305
 1698 0036 0131     		adds	r1, r1, #1
 1699              	.LVL154:
 796:App/Src/fault_command.c ****   }
 1700              		.loc 1 796 20 view .LVU306
 1701 0038 04F80C00 		strb	r0, [r4, ip]
 796:App/Src/fault_command.c ****   }
 1702              		.loc 1 796 16 view .LVU307
 1703 003c 0CF1010C 		add	ip, ip, #1
 1704              	.LVL155:
 1705              	.L94:
 794:App/Src/fault_command.c ****   {
 1706              		.loc 1 794 48 is_stmt 1 view .LVU308
 794:App/Src/fault_command.c ****   {
 1707              		.loc 1 794 11 is_stmt 0 view .LVU309
 1708 0040 0878     		ldrb	r0, [r1]	@ zero_extendqisi2
 794:App/Src/fault_command.c ****   {
 1709              		.loc 1 794 48 view .LVU310
 1710 0042 0028     		cmp	r0, #0
 1711 0044 18BF     		it	ne
 1712 0046 2228     		cmpne	r0, #34
 1713 0048 02D0     		beq	.L95
 794:App/Src/fault_command.c ****   {
 1714              		.loc 1 794 71 discriminator 1 view .LVU311
 1715 004a 6B1E     		subs	r3, r5, #1
 794:App/Src/fault_command.c ****   {
 1716              		.loc 1 794 48 discriminator 1 view .LVU312
 1717 004c 6345     		cmp	r3, ip
 1718 004e F2D8     		bhi	.L96
 1719              	.L95:
 798:App/Src/fault_command.c **** 
 1720              		.loc 1 798 3 is_stmt 1 view .LVU313
 798:App/Src/fault_command.c **** 
 1721              		.loc 1 798 16 is_stmt 0 view .LVU314
 1722 0050 0023     		movs	r3, #0
 1723 0052 04F80C30 		strb	r3, [r4, ip]
 800:App/Src/fault_command.c **** }
 1724              		.loc 1 800 3 is_stmt 1 view .LVU315
 800:App/Src/fault_command.c **** }
 1725              		.loc 1 800 11 is_stmt 0 view .LVU316
 1726 0056 0B78     		ldrb	r3, [r1]	@ zero_extendqisi2
 800:App/Src/fault_command.c **** }
 1727              		.loc 1 800 32 view .LVU317
 1728 0058 222B     		cmp	r3, #34
 1729 005a 01D0     		beq	.L103
 800:App/Src/fault_command.c **** }
 1730              		.loc 1 800 32 discriminator 2 view .LVU318
 1731 005c 0020     		movs	r0, #0
 1732 005e 02E0     		b	.L91
ARM GAS  C:\Users\hh\AppData\Local\Temp\cc8MU7EM.s 			page 52


 1733              	.L103:
 800:App/Src/fault_command.c **** }
 1734              		.loc 1 800 32 discriminator 1 view .LVU319
 1735 0060 0120     		movs	r0, #1
 1736 0062 00E0     		b	.L91
 1737              	.LVL156:
 1738              	.L97:
 773:App/Src/fault_command.c ****   }
 1739              		.loc 1 773 12 view .LVU320
 1740 0064 0020     		movs	r0, #0
 1741              	.LVL157:
 1742              	.L91:
 801:App/Src/fault_command.c **** 
 1743              		.loc 1 801 1 view .LVU321
 1744 0066 38BD     		pop	{r3, r4, r5, pc}
 1745              	.LVL158:
 1746              	.L98:
 773:App/Src/fault_command.c ****   }
 1747              		.loc 1 773 12 view .LVU322
 1748 0068 2846     		mov	r0, r5
 1749              	.LVL159:
 773:App/Src/fault_command.c ****   }
 1750              		.loc 1 773 12 view .LVU323
 1751 006a FCE7     		b	.L91
 1752              	.LVL160:
 1753              	.L100:
 790:App/Src/fault_command.c ****   }
 1754              		.loc 1 790 12 view .LVU324
 1755 006c 0020     		movs	r0, #0
 1756 006e FAE7     		b	.L91
 1757              		.cfi_endproc
 1758              	.LFE172:
 1760              		.section	.text.FaultCommand_RunNormal,"ax",%progbits
 1761              		.align	1
 1762              		.syntax unified
 1763              		.thumb
 1764              		.thumb_func
 1766              	FaultCommand_RunNormal:
 1767              	.LVL161:
 1768              	.LFB163:
 324:App/Src/fault_command.c ****   WaveformGen_Stop();
 1769              		.loc 1 324 1 is_stmt 1 view -0
 1770              		.cfi_startproc
 1771              		@ args = 0, pretend = 0, frame = 0
 1772              		@ frame_needed = 0, uses_anonymous_args = 0
 324:App/Src/fault_command.c ****   WaveformGen_Stop();
 1773              		.loc 1 324 1 is_stmt 0 view .LVU326
 1774 0000 10B5     		push	{r4, lr}
 1775              	.LCFI48:
 1776              		.cfi_def_cfa_offset 8
 1777              		.cfi_offset 4, -8
 1778              		.cfi_offset 14, -4
 1779 0002 0446     		mov	r4, r0
 325:App/Src/fault_command.c ****   return VoltageSim_SetAllCellsVoltageMv(millivolts);
 1780              		.loc 1 325 3 is_stmt 1 view .LVU327
 1781 0004 FFF7FEFF 		bl	WaveformGen_Stop
 1782              	.LVL162:
ARM GAS  C:\Users\hh\AppData\Local\Temp\cc8MU7EM.s 			page 53


 326:App/Src/fault_command.c **** }
 1783              		.loc 1 326 3 view .LVU328
 326:App/Src/fault_command.c **** }
 1784              		.loc 1 326 10 is_stmt 0 view .LVU329
 1785 0008 2046     		mov	r0, r4
 1786 000a FFF7FEFF 		bl	VoltageSim_SetAllCellsVoltageMv
 1787              	.LVL163:
 327:App/Src/fault_command.c **** 
 1788              		.loc 1 327 1 view .LVU330
 1789 000e 10BD     		pop	{r4, pc}
 327:App/Src/fault_command.c **** 
 1790              		.loc 1 327 1 view .LVU331
 1791              		.cfi_endproc
 1792              	.LFE163:
 1794              		.section	.rodata.FaultCommand_WriteJsonCanStatus.str1.4,"aMS",%progbits,1
 1795              		.align	2
 1796              	.LC45:
 1797 0000 7B226F6B 		.ascii	"{\"ok\":true,\"can\":{\"started\":%u,\"tx\":%lu,\"r"
 1797      223A7472 
 1797      75652C22 
 1797      63616E22 
 1797      3A7B2273 
 1798 002a 78223A25 		.ascii	"x\":%lu,\"err\":%lu,\"last_id\":%lu,\"last_id_hex\""
 1798      6C752C22 
 1798      65727222 
 1798      3A256C75 
 1798      2C226C61 
 1799 0056 3A223078 		.ascii	":\"0x%lX\",\"last_ext\":%u,\"last_len\":%u,\"last_t"
 1799      256C5822 
 1799      2C226C61 
 1799      73745F65 
 1799      7874223A 
 1800 0082 69636B22 		.ascii	"ick\":%lu,\"last_data\":[\000"
 1800      3A256C75 
 1800      2C226C61 
 1800      73745F64 
 1800      61746122 
 1801 0099 000000   		.align	2
 1802              	.LC46:
 1803 009c 25732575 		.ascii	"%s%u\000"
 1803      00
 1804 00a1 000000   		.align	2
 1805              	.LC47:
 1806 00a4 5D7D7D0D 		.ascii	"]}}\015\012\000"
 1806      0A00
 1807              		.section	.text.FaultCommand_WriteJsonCanStatus,"ax",%progbits
 1808              		.align	1
 1809              		.syntax unified
 1810              		.thumb
 1811              		.thumb_func
 1813              	FaultCommand_WriteJsonCanStatus:
 1814              	.LVL164:
 1815              	.LFB161:
 262:App/Src/fault_command.c ****   BspCan_Status status = BspCan_GetStatus();
 1816              		.loc 1 262 1 is_stmt 1 view -0
 1817              		.cfi_startproc
 1818              		@ args = 0, pretend = 0, frame = 40
ARM GAS  C:\Users\hh\AppData\Local\Temp\cc8MU7EM.s 			page 54


 1819              		@ frame_needed = 0, uses_anonymous_args = 0
 262:App/Src/fault_command.c ****   BspCan_Status status = BspCan_GetStatus();
 1820              		.loc 1 262 1 is_stmt 0 view .LVU333
 1821 0000 F0B5     		push	{r4, r5, r6, r7, lr}
 1822              	.LCFI49:
 1823              		.cfi_def_cfa_offset 20
 1824              		.cfi_offset 4, -20
 1825              		.cfi_offset 5, -16
 1826              		.cfi_offset 6, -12
 1827              		.cfi_offset 7, -8
 1828              		.cfi_offset 14, -4
 1829 0002 93B0     		sub	sp, sp, #76
 1830              	.LCFI50:
 1831              		.cfi_def_cfa_offset 96
 1832 0004 0546     		mov	r5, r0
 1833 0006 0E46     		mov	r6, r1
 263:App/Src/fault_command.c **** 
 1834              		.loc 1 263 3 is_stmt 1 view .LVU334
 263:App/Src/fault_command.c **** 
 1835              		.loc 1 263 26 is_stmt 0 view .LVU335
 1836 0008 09A8     		add	r0, sp, #36
 1837              	.LVL165:
 263:App/Src/fault_command.c **** 
 1838              		.loc 1 263 26 view .LVU336
 1839 000a FFF7FEFF 		bl	BspCan_GetStatus
 1840              	.LVL166:
 265:App/Src/fault_command.c ****                            context,
 1841              		.loc 1 265 3 is_stmt 1 view .LVU337
 272:App/Src/fault_command.c ****                            (unsigned long)status.lastRxId,
 1842              		.loc 1 272 49 is_stmt 0 view .LVU338
 1843 000e 0D9B     		ldr	r3, [sp, #52]
 274:App/Src/fault_command.c ****                            status.lastRxLength,
 1844              		.loc 1 274 34 view .LVU339
 1845 0010 9DF83C20 		ldrb	r2, [sp, #60]	@ zero_extendqisi2
 275:App/Src/fault_command.c ****                            (unsigned long)status.lastRxTick);
 1846              		.loc 1 275 34 view .LVU340
 1847 0014 9DF83D70 		ldrb	r7, [sp, #61]	@ zero_extendqisi2
 265:App/Src/fault_command.c ****                            context,
 1848              		.loc 1 265 3 view .LVU341
 1849 0018 0E99     		ldr	r1, [sp, #56]
 1850 001a 0791     		str	r1, [sp, #28]
 1851 001c 0697     		str	r7, [sp, #24]
 1852 001e 0592     		str	r2, [sp, #20]
 1853 0020 0493     		str	r3, [sp, #16]
 1854 0022 0393     		str	r3, [sp, #12]
 1855 0024 0C9B     		ldr	r3, [sp, #48]
 1856 0026 0293     		str	r3, [sp, #8]
 1857 0028 0B9B     		ldr	r3, [sp, #44]
 1858 002a 0193     		str	r3, [sp, #4]
 1859 002c 0A9B     		ldr	r3, [sp, #40]
 1860 002e 0093     		str	r3, [sp]
 1861 0030 9DF82430 		ldrb	r3, [sp, #36]	@ zero_extendqisi2
 1862 0034 104A     		ldr	r2, .L114
 1863 0036 3146     		mov	r1, r6
 1864 0038 2846     		mov	r0, r5
 1865 003a FFF7FEFF 		bl	FaultCommand_WriteFormat
 1866              	.LVL167:
ARM GAS  C:\Users\hh\AppData\Local\Temp\cc8MU7EM.s 			page 55


 278:App/Src/fault_command.c ****   {
 1867              		.loc 1 278 3 is_stmt 1 view .LVU342
 1868              	.LBB9:
 278:App/Src/fault_command.c ****   {
 1869              		.loc 1 278 8 view .LVU343
 278:App/Src/fault_command.c ****   {
 1870              		.loc 1 278 16 is_stmt 0 view .LVU344
 1871 003e 0024     		movs	r4, #0
 278:App/Src/fault_command.c ****   {
 1872              		.loc 1 278 3 view .LVU345
 1873 0040 0DE0     		b	.L107
 1874              	.LVL168:
 1875              	.L113:
 280:App/Src/fault_command.c ****                              context,
 1876              		.loc 1 280 5 discriminator 1 view .LVU346
 1877 0042 0E4B     		ldr	r3, .L114+4
 1878              	.L108:
 284:App/Src/fault_command.c ****   }
 1879              		.loc 1 284 47 view .LVU347
 1880 0044 04F14802 		add	r2, r4, #72
 1881 0048 6A44     		add	r2, sp, r2
 1882 004a 12F80A2C 		ldrb	r2, [r2, #-10]	@ zero_extendqisi2
 280:App/Src/fault_command.c ****                              context,
 1883              		.loc 1 280 5 view .LVU348
 1884 004e 0092     		str	r2, [sp]
 1885 0050 0B4A     		ldr	r2, .L114+8
 1886 0052 3146     		mov	r1, r6
 1887 0054 2846     		mov	r0, r5
 1888 0056 FFF7FEFF 		bl	FaultCommand_WriteFormat
 1889              	.LVL169:
 278:App/Src/fault_command.c ****   {
 1890              		.loc 1 278 62 is_stmt 1 discriminator 2 view .LVU349
 1891 005a 0134     		adds	r4, r4, #1
 1892              	.LVL170:
 278:App/Src/fault_command.c ****   {
 1893              		.loc 1 278 62 is_stmt 0 discriminator 2 view .LVU350
 1894 005c E4B2     		uxtb	r4, r4
 1895              	.LVL171:
 1896              	.L107:
 278:App/Src/fault_command.c ****   {
 1897              		.loc 1 278 34 is_stmt 1 discriminator 1 view .LVU351
 1898 005e A742     		cmp	r7, r4
 1899 0060 03D9     		bls	.L112
 280:App/Src/fault_command.c ****                              context,
 1900              		.loc 1 280 5 view .LVU352
 1901 0062 002C     		cmp	r4, #0
 1902 0064 EDD0     		beq	.L113
 280:App/Src/fault_command.c ****                              context,
 1903              		.loc 1 280 5 is_stmt 0 discriminator 2 view .LVU353
 1904 0066 074B     		ldr	r3, .L114+12
 1905 0068 ECE7     		b	.L108
 1906              	.L112:
 1907              	.LBE9:
 286:App/Src/fault_command.c **** }
 1908              		.loc 1 286 3 is_stmt 1 view .LVU354
 1909 006a 074A     		ldr	r2, .L114+16
 1910 006c 3146     		mov	r1, r6
ARM GAS  C:\Users\hh\AppData\Local\Temp\cc8MU7EM.s 			page 56


 1911 006e 2846     		mov	r0, r5
 1912 0070 FFF7FEFF 		bl	FaultCommand_Write
 1913              	.LVL172:
 287:App/Src/fault_command.c **** 
 1914              		.loc 1 287 1 is_stmt 0 view .LVU355
 1915 0074 13B0     		add	sp, sp, #76
 1916              	.LCFI51:
 1917              		.cfi_def_cfa_offset 20
 1918              		@ sp needed
 1919 0076 F0BD     		pop	{r4, r5, r6, r7, pc}
 1920              	.LVL173:
 1921              	.L115:
 287:App/Src/fault_command.c **** 
 1922              		.loc 1 287 1 view .LVU356
 1923              		.align	2
 1924              	.L114:
 1925 0078 00000000 		.word	.LC45
 1926 007c 00000000 		.word	.LC25
 1927 0080 9C000000 		.word	.LC46
 1928 0084 04000000 		.word	.LC26
 1929 0088 A4000000 		.word	.LC47
 1930              		.cfi_endproc
 1931              	.LFE161:
 1933              		.section	.rodata.FaultCommand_WriteTextCanStatus.str1.4,"aMS",%progbits,1
 1934              		.align	2
 1935              	.LC48:
 1936 0000 2000     		.ascii	" \000"
 1937 0002 0000     		.align	2
 1938              	.LC49:
 1939 0004 0D0A5B63 		.ascii	"\015\012[can] started=%u tx=%lu rx=%lu err=%lu last"
 1939      616E5D20 
 1939      73746172 
 1939      7465643D 
 1939      25752074 
 1940 0031 5F69643D 		.ascii	"_id=0x%lX last_len=%u last_tick=%lu last_data=\000"
 1940      3078256C 
 1940      58206C61 
 1940      73745F6C 
 1940      656E3D25 
 1941              		.align	2
 1942              	.LC50:
 1943 0060 25303258 		.ascii	"%02X%s\000"
 1943      257300
 1944              		.section	.text.FaultCommand_WriteTextCanStatus,"ax",%progbits
 1945              		.align	1
 1946              		.syntax unified
 1947              		.thumb
 1948              		.thumb_func
 1950              	FaultCommand_WriteTextCanStatus:
 1951              	.LVL174:
 1952              	.LFB154:
  93:App/Src/fault_command.c ****   BspCan_Status status = BspCan_GetStatus();
 1953              		.loc 1 93 1 is_stmt 1 view -0
 1954              		.cfi_startproc
 1955              		@ args = 0, pretend = 0, frame = 40
 1956              		@ frame_needed = 0, uses_anonymous_args = 0
  93:App/Src/fault_command.c ****   BspCan_Status status = BspCan_GetStatus();
ARM GAS  C:\Users\hh\AppData\Local\Temp\cc8MU7EM.s 			page 57


 1957              		.loc 1 93 1 is_stmt 0 view .LVU358
 1958 0000 F0B5     		push	{r4, r5, r6, r7, lr}
 1959              	.LCFI52:
 1960              		.cfi_def_cfa_offset 20
 1961              		.cfi_offset 4, -20
 1962              		.cfi_offset 5, -16
 1963              		.cfi_offset 6, -12
 1964              		.cfi_offset 7, -8
 1965              		.cfi_offset 14, -4
 1966 0002 91B0     		sub	sp, sp, #68
 1967              	.LCFI53:
 1968              		.cfi_def_cfa_offset 88
 1969 0004 0646     		mov	r6, r0
 1970 0006 0F46     		mov	r7, r1
  94:App/Src/fault_command.c **** 
 1971              		.loc 1 94 3 is_stmt 1 view .LVU359
  94:App/Src/fault_command.c **** 
 1972              		.loc 1 94 26 is_stmt 0 view .LVU360
 1973 0008 07A8     		add	r0, sp, #28
 1974              	.LVL175:
  94:App/Src/fault_command.c **** 
 1975              		.loc 1 94 26 view .LVU361
 1976 000a FFF7FEFF 		bl	BspCan_GetStatus
 1977              	.LVL176:
  96:App/Src/fault_command.c ****                            context,
 1978              		.loc 1 96 3 is_stmt 1 view .LVU362
 104:App/Src/fault_command.c ****                            (unsigned long)status.lastRxTick);
 1979              		.loc 1 104 34 is_stmt 0 view .LVU363
 1980 000e 9DF83550 		ldrb	r5, [sp, #53]	@ zero_extendqisi2
  96:App/Src/fault_command.c ****                            context,
 1981              		.loc 1 96 3 view .LVU364
 1982 0012 0C9B     		ldr	r3, [sp, #48]
 1983 0014 0593     		str	r3, [sp, #20]
 1984 0016 0495     		str	r5, [sp, #16]
 1985 0018 0B9B     		ldr	r3, [sp, #44]
 1986 001a 0393     		str	r3, [sp, #12]
 1987 001c 0A9B     		ldr	r3, [sp, #40]
 1988 001e 0293     		str	r3, [sp, #8]
 1989 0020 099B     		ldr	r3, [sp, #36]
 1990 0022 0193     		str	r3, [sp, #4]
 1991 0024 089B     		ldr	r3, [sp, #32]
 1992 0026 0093     		str	r3, [sp]
 1993 0028 9DF81C30 		ldrb	r3, [sp, #28]	@ zero_extendqisi2
 1994 002c 114A     		ldr	r2, .L124
 1995 002e 3946     		mov	r1, r7
 1996 0030 3046     		mov	r0, r6
 1997 0032 FFF7FEFF 		bl	FaultCommand_WriteFormat
 1998              	.LVL177:
 107:App/Src/fault_command.c ****   {
 1999              		.loc 1 107 3 is_stmt 1 view .LVU365
 2000              	.LBB10:
 107:App/Src/fault_command.c ****   {
 2001              		.loc 1 107 8 view .LVU366
 107:App/Src/fault_command.c ****   {
 2002              		.loc 1 107 16 is_stmt 0 view .LVU367
 2003 0036 0024     		movs	r4, #0
 107:App/Src/fault_command.c ****   {
ARM GAS  C:\Users\hh\AppData\Local\Temp\cc8MU7EM.s 			page 58


 2004              		.loc 1 107 3 view .LVU368
 2005 0038 08E0     		b	.L117
 2006              	.LVL178:
 2007              	.L123:
 109:App/Src/fault_command.c ****                              context,
 2008              		.loc 1 109 5 discriminator 1 view .LVU369
 2009 003a 0F4A     		ldr	r2, .L124+4
 2010              	.L118:
 109:App/Src/fault_command.c ****                              context,
 2011              		.loc 1 109 5 discriminator 4 view .LVU370
 2012 003c 0092     		str	r2, [sp]
 2013 003e 0F4A     		ldr	r2, .L124+8
 2014 0040 3946     		mov	r1, r7
 2015 0042 3046     		mov	r0, r6
 2016 0044 FFF7FEFF 		bl	FaultCommand_WriteFormat
 2017              	.LVL179:
 107:App/Src/fault_command.c ****   {
 2018              		.loc 1 107 62 is_stmt 1 discriminator 2 view .LVU371
 2019 0048 0134     		adds	r4, r4, #1
 2020              	.LVL180:
 107:App/Src/fault_command.c ****   {
 2021              		.loc 1 107 62 is_stmt 0 discriminator 2 view .LVU372
 2022 004a E4B2     		uxtb	r4, r4
 2023              	.LVL181:
 2024              	.L117:
 107:App/Src/fault_command.c ****   {
 2025              		.loc 1 107 34 is_stmt 1 discriminator 1 view .LVU373
 2026 004c A542     		cmp	r5, r4
 2027 004e 09D9     		bls	.L122
 109:App/Src/fault_command.c ****                              context,
 2028              		.loc 1 109 5 view .LVU374
 112:App/Src/fault_command.c ****                              (index + 1U == status.lastRxLength) ? "" : " ");
 2029              		.loc 1 112 47 is_stmt 0 view .LVU375
 2030 0050 04F14003 		add	r3, r4, #64
 2031 0054 6B44     		add	r3, sp, r3
 2032 0056 13F80A3C 		ldrb	r3, [r3, #-10]	@ zero_extendqisi2
 113:App/Src/fault_command.c ****   }
 2033              		.loc 1 113 37 view .LVU376
 2034 005a 621C     		adds	r2, r4, #1
 109:App/Src/fault_command.c ****                              context,
 2035              		.loc 1 109 5 view .LVU377
 2036 005c AA42     		cmp	r2, r5
 2037 005e ECD0     		beq	.L123
 109:App/Src/fault_command.c ****                              context,
 2038              		.loc 1 109 5 discriminator 2 view .LVU378
 2039 0060 074A     		ldr	r2, .L124+12
 2040 0062 EBE7     		b	.L118
 2041              	.L122:
 2042              	.LBE10:
 115:App/Src/fault_command.c **** }
 2043              		.loc 1 115 3 is_stmt 1 view .LVU379
 2044 0064 074A     		ldr	r2, .L124+16
 2045 0066 3946     		mov	r1, r7
 2046 0068 3046     		mov	r0, r6
 2047 006a FFF7FEFF 		bl	FaultCommand_Write
 2048              	.LVL182:
 116:App/Src/fault_command.c **** 
ARM GAS  C:\Users\hh\AppData\Local\Temp\cc8MU7EM.s 			page 59


 2049              		.loc 1 116 1 is_stmt 0 view .LVU380
 2050 006e 11B0     		add	sp, sp, #68
 2051              	.LCFI54:
 2052              		.cfi_def_cfa_offset 20
 2053              		@ sp needed
 2054 0070 F0BD     		pop	{r4, r5, r6, r7, pc}
 2055              	.LVL183:
 2056              	.L125:
 116:App/Src/fault_command.c **** 
 2057              		.loc 1 116 1 view .LVU381
 2058 0072 00BF     		.align	2
 2059              	.L124:
 2060 0074 04000000 		.word	.LC49
 2061 0078 00000000 		.word	.LC25
 2062 007c 60000000 		.word	.LC50
 2063 0080 00000000 		.word	.LC48
 2064 0084 7C000000 		.word	.LC37
 2065              		.cfi_endproc
 2066              	.LFE154:
 2068              		.section	.rodata.FaultCommand_WriteJsonBmsResponseLog.str1.4,"aMS",%progbits,1
 2069              		.align	2
 2070              	.LC51:
 2071 0000 7B226F6B 		.ascii	"{\"ok\":true,\"log\":{\"armed\":%u,\"trigger\":\"%s"
 2071      223A7472 
 2071      75652C22 
 2071      6C6F6722 
 2071      3A7B2261 
 2072 002a 222C2274 		.ascii	"\",\"trigger_tick\":%lu,\"primary_cell\":%u,\"prima"
 2072      72696767 
 2072      65725F74 
 2072      69636B22 
 2072      3A256C75 
 2073 0057 72795F6D 		.ascii	"ry_mv\":%u,\"secondary_cell\":%u,\"secondary_mv\":%"
 2073      76223A25 
 2073      752C2273 
 2073      65636F6E 
 2073      64617279 
 2074 0085 752C2263 		.ascii	"u,\"can_after\":%lu,\"captured\":%u,\"response_tick"
 2074      616E5F61 
 2074      66746572 
 2074      223A256C 
 2074      752C2263 
 2075 00b3 223A256C 		.ascii	"\":%lu,\"delay_ms\":%lu,\"response_id\":%lu,\"respo"
 2075      752C2264 
 2075      656C6179 
 2075      5F6D7322 
 2075      3A256C75 
 2076 00e0 6E73655F 		.ascii	"nse_id_hex\":\"0x%lX\",\"response_ext\":%u,\"respon"
 2076      69645F68 
 2076      6578223A 
 2076      22307825 
 2076      6C58222C 
 2077 010d 73655F6C 		.ascii	"se_len\":%u,\"response_data\":[\000"
 2077      656E223A 
 2077      25752C22 
 2077      72657370 
 2077      6F6E7365 
ARM GAS  C:\Users\hh\AppData\Local\Temp\cc8MU7EM.s 			page 60


 2078              		.section	.text.FaultCommand_WriteJsonBmsResponseLog,"ax",%progbits
 2079              		.align	1
 2080              		.syntax unified
 2081              		.thumb
 2082              		.thumb_func
 2084              	FaultCommand_WriteJsonBmsResponseLog:
 2085              	.LVL184:
 2086              	.LFB162:
 290:App/Src/fault_command.c ****   BmsResponseLog_Status status = BmsResponseLog_GetStatus();
 2087              		.loc 1 290 1 is_stmt 1 view -0
 2088              		.cfi_startproc
 2089              		@ args = 0, pretend = 0, frame = 56
 2090              		@ frame_needed = 0, uses_anonymous_args = 0
 290:App/Src/fault_command.c ****   BmsResponseLog_Status status = BmsResponseLog_GetStatus();
 2091              		.loc 1 290 1 is_stmt 0 view .LVU383
 2092 0000 F0B5     		push	{r4, r5, r6, r7, lr}
 2093              	.LCFI55:
 2094              		.cfi_def_cfa_offset 20
 2095              		.cfi_offset 4, -20
 2096              		.cfi_offset 5, -16
 2097              		.cfi_offset 6, -12
 2098              		.cfi_offset 7, -8
 2099              		.cfi_offset 14, -4
 2100 0002 9DB0     		sub	sp, sp, #116
 2101              	.LCFI56:
 2102              		.cfi_def_cfa_offset 136
 2103 0004 0546     		mov	r5, r0
 2104 0006 0E46     		mov	r6, r1
 291:App/Src/fault_command.c **** 
 2105              		.loc 1 291 3 is_stmt 1 view .LVU384
 291:App/Src/fault_command.c **** 
 2106              		.loc 1 291 34 is_stmt 0 view .LVU385
 2107 0008 11A8     		add	r0, sp, #68
 2108              	.LVL185:
 291:App/Src/fault_command.c **** 
 2109              		.loc 1 291 34 view .LVU386
 2110 000a FFF7FEFF 		bl	BmsResponseLog_GetStatus
 2111              	.LVL186:
 293:App/Src/fault_command.c ****                            context,
 2112              		.loc 1 293 3 is_stmt 1 view .LVU387
 296:App/Src/fault_command.c ****                            BmsResponseLog_GetTriggerName(status.triggerType),
 2113              		.loc 1 296 34 is_stmt 0 view .LVU388
 2114 000e 9DF84430 		ldrb	r3, [sp, #68]	@ zero_extendqisi2
 2115 0012 0F93     		str	r3, [sp, #60]
 293:App/Src/fault_command.c ****                            context,
 2116              		.loc 1 293 3 view .LVU389
 2117 0014 9DF84500 		ldrb	r0, [sp, #69]	@ zero_extendqisi2
 2118 0018 FFF7FEFF 		bl	BmsResponseLog_GetTriggerName
 2119              	.LVL187:
 299:App/Src/fault_command.c ****                            status.primaryMillivolts,
 2120              		.loc 1 299 34 view .LVU390
 2121 001c 9DF84620 		ldrb	r2, [sp, #70]	@ zero_extendqisi2
 300:App/Src/fault_command.c ****                            status.secondaryCell,
 2122              		.loc 1 300 34 view .LVU391
 2123 0020 BDF84810 		ldrh	r1, [sp, #72]
 301:App/Src/fault_command.c ****                            status.secondaryMillivolts,
 2124              		.loc 1 301 34 view .LVU392
ARM GAS  C:\Users\hh\AppData\Local\Temp\cc8MU7EM.s 			page 61


 2125 0024 9DF847C0 		ldrb	ip, [sp, #71]	@ zero_extendqisi2
 302:App/Src/fault_command.c ****                            (unsigned long)status.canFramesAfterTrigger,
 2126              		.loc 1 302 34 view .LVU393
 2127 0028 BDF84AE0 		ldrh	lr, [sp, #74]
 304:App/Src/fault_command.c ****                            (unsigned long)status.responseTick,
 2128              		.loc 1 304 34 view .LVU394
 2129 002c 9DF85430 		ldrb	r3, [sp, #84]	@ zero_extendqisi2
 309:App/Src/fault_command.c ****                            status.responseCanLength);
 2130              		.loc 1 309 34 view .LVU395
 2131 0030 9DF86440 		ldrb	r4, [sp, #100]	@ zero_extendqisi2
 310:App/Src/fault_command.c **** 
 2132              		.loc 1 310 34 view .LVU396
 2133 0034 9DF86570 		ldrb	r7, [sp, #101]	@ zero_extendqisi2
 293:App/Src/fault_command.c ****                            context,
 2134              		.loc 1 293 3 view .LVU397
 2135 0038 0D97     		str	r7, [sp, #52]
 2136 003a 0C94     		str	r4, [sp, #48]
 2137 003c 189C     		ldr	r4, [sp, #96]
 2138 003e 0B94     		str	r4, [sp, #44]
 2139 0040 0A94     		str	r4, [sp, #40]
 2140 0042 179C     		ldr	r4, [sp, #92]
 2141 0044 0994     		str	r4, [sp, #36]
 2142 0046 169C     		ldr	r4, [sp, #88]
 2143 0048 0894     		str	r4, [sp, #32]
 2144 004a 0793     		str	r3, [sp, #28]
 2145 004c 149B     		ldr	r3, [sp, #80]
 2146 004e 0693     		str	r3, [sp, #24]
 2147 0050 CDF814E0 		str	lr, [sp, #20]
 2148 0054 CDF810C0 		str	ip, [sp, #16]
 2149 0058 0391     		str	r1, [sp, #12]
 2150 005a 0292     		str	r2, [sp, #8]
 2151 005c 139B     		ldr	r3, [sp, #76]
 2152 005e 0193     		str	r3, [sp, #4]
 2153 0060 0090     		str	r0, [sp]
 2154 0062 0F9B     		ldr	r3, [sp, #60]
 2155 0064 104A     		ldr	r2, .L134
 2156 0066 3146     		mov	r1, r6
 2157 0068 2846     		mov	r0, r5
 2158 006a FFF7FEFF 		bl	FaultCommand_WriteFormat
 2159              	.LVL188:
 312:App/Src/fault_command.c ****   {
 2160              		.loc 1 312 3 is_stmt 1 view .LVU398
 2161              	.LBB11:
 312:App/Src/fault_command.c ****   {
 2162              		.loc 1 312 8 view .LVU399
 312:App/Src/fault_command.c ****   {
 2163              		.loc 1 312 16 is_stmt 0 view .LVU400
 2164 006e 0024     		movs	r4, #0
 312:App/Src/fault_command.c ****   {
 2165              		.loc 1 312 3 view .LVU401
 2166 0070 0DE0     		b	.L127
 2167              	.LVL189:
 2168              	.L133:
 314:App/Src/fault_command.c ****                              context,
 2169              		.loc 1 314 5 discriminator 1 view .LVU402
 2170 0072 0E4B     		ldr	r3, .L134+4
 2171              	.L128:
ARM GAS  C:\Users\hh\AppData\Local\Temp\cc8MU7EM.s 			page 62


 318:App/Src/fault_command.c ****   }
 2172              		.loc 1 318 52 view .LVU403
 2173 0074 04F17002 		add	r2, r4, #112
 2174 0078 6A44     		add	r2, sp, r2
 2175 007a 12F80A2C 		ldrb	r2, [r2, #-10]	@ zero_extendqisi2
 314:App/Src/fault_command.c ****                              context,
 2176              		.loc 1 314 5 view .LVU404
 2177 007e 0092     		str	r2, [sp]
 2178 0080 0B4A     		ldr	r2, .L134+8
 2179 0082 3146     		mov	r1, r6
 2180 0084 2846     		mov	r0, r5
 2181 0086 FFF7FEFF 		bl	FaultCommand_WriteFormat
 2182              	.LVL190:
 312:App/Src/fault_command.c ****   {
 2183              		.loc 1 312 67 is_stmt 1 discriminator 2 view .LVU405
 2184 008a 0134     		adds	r4, r4, #1
 2185              	.LVL191:
 312:App/Src/fault_command.c ****   {
 2186              		.loc 1 312 67 is_stmt 0 discriminator 2 view .LVU406
 2187 008c E4B2     		uxtb	r4, r4
 2188              	.LVL192:
 2189              	.L127:
 312:App/Src/fault_command.c ****   {
 2190              		.loc 1 312 34 is_stmt 1 discriminator 1 view .LVU407
 2191 008e A742     		cmp	r7, r4
 2192 0090 03D9     		bls	.L132
 314:App/Src/fault_command.c ****                              context,
 2193              		.loc 1 314 5 view .LVU408
 2194 0092 002C     		cmp	r4, #0
 2195 0094 EDD0     		beq	.L133
 314:App/Src/fault_command.c ****                              context,
 2196              		.loc 1 314 5 is_stmt 0 discriminator 2 view .LVU409
 2197 0096 074B     		ldr	r3, .L134+12
 2198 0098 ECE7     		b	.L128
 2199              	.L132:
 2200              	.LBE11:
 320:App/Src/fault_command.c **** }
 2201              		.loc 1 320 3 is_stmt 1 view .LVU410
 2202 009a 074A     		ldr	r2, .L134+16
 2203 009c 3146     		mov	r1, r6
 2204 009e 2846     		mov	r0, r5
 2205 00a0 FFF7FEFF 		bl	FaultCommand_Write
 2206              	.LVL193:
 321:App/Src/fault_command.c **** 
 2207              		.loc 1 321 1 is_stmt 0 view .LVU411
 2208 00a4 1DB0     		add	sp, sp, #116
 2209              	.LCFI57:
 2210              		.cfi_def_cfa_offset 20
 2211              		@ sp needed
 2212 00a6 F0BD     		pop	{r4, r5, r6, r7, pc}
 2213              	.LVL194:
 2214              	.L135:
 321:App/Src/fault_command.c **** 
 2215              		.loc 1 321 1 view .LVU412
 2216              		.align	2
 2217              	.L134:
 2218 00a8 00000000 		.word	.LC51
ARM GAS  C:\Users\hh\AppData\Local\Temp\cc8MU7EM.s 			page 63


 2219 00ac 00000000 		.word	.LC25
 2220 00b0 9C000000 		.word	.LC46
 2221 00b4 04000000 		.word	.LC26
 2222 00b8 A4000000 		.word	.LC47
 2223              		.cfi_endproc
 2224              	.LFE162:
 2226              		.section	.rodata.FaultCommand_WriteTextBmsResponseLog.str1.4,"aMS",%progbits,1
 2227              		.align	2
 2228              	.LC52:
 2229 0000 0D0A5B6C 		.ascii	"\015\012[log] armed=%u trigger=%s t1=%lums primary="
 2229      6F675D20 
 2229      61726D65 
 2229      643D2575 
 2229      20747269 
 2230 002d 43253032 		.ascii	"C%02u/%umV secondary=C%02u/%umV can_after=%lu captu"
 2230      752F2575 
 2230      6D562073 
 2230      65636F6E 
 2230      64617279 
 2231 0060 7265643D 		.ascii	"red=%u\000"
 2231      257500
 2232 0067 00       		.align	2
 2233              	.LC53:
 2234 0068 2074323D 		.ascii	" t2=%lums delay=%lums id=0x%lX ext=%u len=%u data=\000"
 2234      256C756D 
 2234      73206465 
 2234      6C61793D 
 2234      256C756D 
 2235              		.section	.text.FaultCommand_WriteTextBmsResponseLog,"ax",%progbits
 2236              		.align	1
 2237              		.syntax unified
 2238              		.thumb
 2239              		.thumb_func
 2241              	FaultCommand_WriteTextBmsResponseLog:
 2242              	.LVL195:
 2243              	.LFB155:
 119:App/Src/fault_command.c ****   BmsResponseLog_Status status = BmsResponseLog_GetStatus();
 2244              		.loc 1 119 1 is_stmt 1 view -0
 2245              		.cfi_startproc
 2246              		@ args = 0, pretend = 0, frame = 48
 2247              		@ frame_needed = 0, uses_anonymous_args = 0
 119:App/Src/fault_command.c ****   BmsResponseLog_Status status = BmsResponseLog_GetStatus();
 2248              		.loc 1 119 1 is_stmt 0 view .LVU414
 2249 0000 F0B5     		push	{r4, r5, r6, r7, lr}
 2250              	.LCFI58:
 2251              		.cfi_def_cfa_offset 20
 2252              		.cfi_offset 4, -20
 2253              		.cfi_offset 5, -16
 2254              		.cfi_offset 6, -12
 2255              		.cfi_offset 7, -8
 2256              		.cfi_offset 14, -4
 2257 0002 95B0     		sub	sp, sp, #84
 2258              	.LCFI59:
 2259              		.cfi_def_cfa_offset 104
 2260 0004 0546     		mov	r5, r0
 2261 0006 0E46     		mov	r6, r1
 120:App/Src/fault_command.c **** 
ARM GAS  C:\Users\hh\AppData\Local\Temp\cc8MU7EM.s 			page 64


 2262              		.loc 1 120 3 is_stmt 1 view .LVU415
 120:App/Src/fault_command.c **** 
 2263              		.loc 1 120 34 is_stmt 0 view .LVU416
 2264 0008 09A8     		add	r0, sp, #36
 2265              	.LVL196:
 120:App/Src/fault_command.c **** 
 2266              		.loc 1 120 34 view .LVU417
 2267 000a FFF7FEFF 		bl	BmsResponseLog_GetStatus
 2268              	.LVL197:
 122:App/Src/fault_command.c ****                            context,
 2269              		.loc 1 122 3 is_stmt 1 view .LVU418
 125:App/Src/fault_command.c ****                            BmsResponseLog_GetTriggerName(status.triggerType),
 2270              		.loc 1 125 34 is_stmt 0 view .LVU419
 2271 000e 9DF82470 		ldrb	r7, [sp, #36]	@ zero_extendqisi2
 122:App/Src/fault_command.c ****                            context,
 2272              		.loc 1 122 3 view .LVU420
 2273 0012 9DF82500 		ldrb	r0, [sp, #37]	@ zero_extendqisi2
 2274 0016 FFF7FEFF 		bl	BmsResponseLog_GetTriggerName
 2275              	.LVL198:
 128:App/Src/fault_command.c ****                            status.primaryMillivolts,
 2276              		.loc 1 128 34 view .LVU421
 2277 001a 9DF826C0 		ldrb	ip, [sp, #38]	@ zero_extendqisi2
 129:App/Src/fault_command.c ****                            status.secondaryCell,
 2278              		.loc 1 129 34 view .LVU422
 2279 001e BDF82820 		ldrh	r2, [sp, #40]
 130:App/Src/fault_command.c ****                            status.secondaryMillivolts,
 2280              		.loc 1 130 34 view .LVU423
 2281 0022 9DF82710 		ldrb	r1, [sp, #39]	@ zero_extendqisi2
 131:App/Src/fault_command.c ****                            (unsigned long)status.canFramesAfterTrigger,
 2282              		.loc 1 131 34 view .LVU424
 2283 0026 BDF82AE0 		ldrh	lr, [sp, #42]
 133:App/Src/fault_command.c **** 
 2284              		.loc 1 133 34 view .LVU425
 2285 002a 9DF83440 		ldrb	r4, [sp, #52]	@ zero_extendqisi2
 122:App/Src/fault_command.c ****                            context,
 2286              		.loc 1 122 3 view .LVU426
 2287 002e 0794     		str	r4, [sp, #28]
 2288 0030 0C9B     		ldr	r3, [sp, #48]
 2289 0032 0693     		str	r3, [sp, #24]
 2290 0034 CDF814E0 		str	lr, [sp, #20]
 2291 0038 0491     		str	r1, [sp, #16]
 2292 003a 0392     		str	r2, [sp, #12]
 2293 003c CDF808C0 		str	ip, [sp, #8]
 2294 0040 0B9B     		ldr	r3, [sp, #44]
 2295 0042 0193     		str	r3, [sp, #4]
 2296 0044 0090     		str	r0, [sp]
 2297 0046 3B46     		mov	r3, r7
 2298 0048 194A     		ldr	r2, .L145
 2299 004a 3146     		mov	r1, r6
 2300 004c 2846     		mov	r0, r5
 2301 004e FFF7FEFF 		bl	FaultCommand_WriteFormat
 2302              	.LVL199:
 135:App/Src/fault_command.c ****   {
 2303              		.loc 1 135 3 is_stmt 1 view .LVU427
 135:App/Src/fault_command.c ****   {
 2304              		.loc 1 135 6 is_stmt 0 view .LVU428
 2305 0052 34B9     		cbnz	r4, .L143
ARM GAS  C:\Users\hh\AppData\Local\Temp\cc8MU7EM.s 			page 65


 2306              	.L137:
 155:App/Src/fault_command.c **** }
 2307              		.loc 1 155 3 is_stmt 1 view .LVU429
 2308 0054 174A     		ldr	r2, .L145+4
 2309 0056 3146     		mov	r1, r6
 2310 0058 2846     		mov	r0, r5
 2311 005a FFF7FEFF 		bl	FaultCommand_Write
 2312              	.LVL200:
 156:App/Src/fault_command.c **** 
 2313              		.loc 1 156 1 is_stmt 0 view .LVU430
 2314 005e 15B0     		add	sp, sp, #84
 2315              	.LCFI60:
 2316              		.cfi_remember_state
 2317              		.cfi_def_cfa_offset 20
 2318              		@ sp needed
 2319 0060 F0BD     		pop	{r4, r5, r6, r7, pc}
 2320              	.LVL201:
 2321              	.L143:
 2322              	.LCFI61:
 2323              		.cfi_restore_state
 137:App/Src/fault_command.c ****                              context,
 2324              		.loc 1 137 5 is_stmt 1 view .LVU431
 143:App/Src/fault_command.c ****                              status.responseCanLength);
 2325              		.loc 1 143 36 is_stmt 0 view .LVU432
 2326 0062 9DF84430 		ldrb	r3, [sp, #68]	@ zero_extendqisi2
 144:App/Src/fault_command.c ****     for (uint8_t index = 0U; index < status.responseCanLength; index++)
 2327              		.loc 1 144 36 view .LVU433
 2328 0066 9DF84570 		ldrb	r7, [sp, #69]	@ zero_extendqisi2
 137:App/Src/fault_command.c ****                              context,
 2329              		.loc 1 137 5 view .LVU434
 2330 006a 0397     		str	r7, [sp, #12]
 2331 006c 0293     		str	r3, [sp, #8]
 2332 006e 109B     		ldr	r3, [sp, #64]
 2333 0070 0193     		str	r3, [sp, #4]
 2334 0072 0F9B     		ldr	r3, [sp, #60]
 2335 0074 0093     		str	r3, [sp]
 2336 0076 0E9B     		ldr	r3, [sp, #56]
 2337 0078 0F4A     		ldr	r2, .L145+8
 2338 007a 3146     		mov	r1, r6
 2339 007c 2846     		mov	r0, r5
 2340 007e FFF7FEFF 		bl	FaultCommand_WriteFormat
 2341              	.LVL202:
 145:App/Src/fault_command.c ****     {
 2342              		.loc 1 145 5 is_stmt 1 view .LVU435
 2343              	.LBB12:
 145:App/Src/fault_command.c ****     {
 2344              		.loc 1 145 10 view .LVU436
 145:App/Src/fault_command.c ****     {
 2345              		.loc 1 145 18 is_stmt 0 view .LVU437
 2346 0082 0024     		movs	r4, #0
 145:App/Src/fault_command.c ****     {
 2347              		.loc 1 145 5 view .LVU438
 2348 0084 08E0     		b	.L138
 2349              	.LVL203:
 2350              	.L144:
 147:App/Src/fault_command.c ****                                context,
 2351              		.loc 1 147 7 discriminator 1 view .LVU439
ARM GAS  C:\Users\hh\AppData\Local\Temp\cc8MU7EM.s 			page 66


 2352 0086 0D4A     		ldr	r2, .L145+12
 2353              	.L139:
 147:App/Src/fault_command.c ****                                context,
 2354              		.loc 1 147 7 discriminator 4 view .LVU440
 2355 0088 0092     		str	r2, [sp]
 2356 008a 0D4A     		ldr	r2, .L145+16
 2357 008c 3146     		mov	r1, r6
 2358 008e 2846     		mov	r0, r5
 2359 0090 FFF7FEFF 		bl	FaultCommand_WriteFormat
 2360              	.LVL204:
 145:App/Src/fault_command.c ****     {
 2361              		.loc 1 145 69 is_stmt 1 discriminator 2 view .LVU441
 2362 0094 0134     		adds	r4, r4, #1
 2363              	.LVL205:
 145:App/Src/fault_command.c ****     {
 2364              		.loc 1 145 69 is_stmt 0 discriminator 2 view .LVU442
 2365 0096 E4B2     		uxtb	r4, r4
 2366              	.LVL206:
 2367              	.L138:
 145:App/Src/fault_command.c ****     {
 2368              		.loc 1 145 36 is_stmt 1 discriminator 1 view .LVU443
 2369 0098 A742     		cmp	r7, r4
 2370 009a DBD9     		bls	.L137
 147:App/Src/fault_command.c ****                                context,
 2371              		.loc 1 147 7 view .LVU444
 150:App/Src/fault_command.c ****                                (index + 1U == status.responseCanLength) ? "" : " ");
 2372              		.loc 1 150 54 is_stmt 0 view .LVU445
 2373 009c 04F15003 		add	r3, r4, #80
 2374 00a0 6B44     		add	r3, sp, r3
 2375 00a2 13F80A3C 		ldrb	r3, [r3, #-10]	@ zero_extendqisi2
 151:App/Src/fault_command.c ****     }
 2376              		.loc 1 151 39 view .LVU446
 2377 00a6 621C     		adds	r2, r4, #1
 147:App/Src/fault_command.c ****                                context,
 2378              		.loc 1 147 7 view .LVU447
 2379 00a8 BA42     		cmp	r2, r7
 2380 00aa ECD0     		beq	.L144
 147:App/Src/fault_command.c ****                                context,
 2381              		.loc 1 147 7 discriminator 2 view .LVU448
 2382 00ac 054A     		ldr	r2, .L145+20
 2383 00ae EBE7     		b	.L139
 2384              	.L146:
 2385              		.align	2
 2386              	.L145:
 2387 00b0 00000000 		.word	.LC52
 2388 00b4 7C000000 		.word	.LC37
 2389 00b8 68000000 		.word	.LC53
 2390 00bc 00000000 		.word	.LC25
 2391 00c0 60000000 		.word	.LC50
 2392 00c4 00000000 		.word	.LC48
 2393              	.LBE12:
 2394              		.cfi_endproc
 2395              	.LFE155:
 2397              		.section	.text.FaultCommand_JsonGetUint,"ax",%progbits
 2398              		.align	1
 2399              		.syntax unified
 2400              		.thumb
ARM GAS  C:\Users\hh\AppData\Local\Temp\cc8MU7EM.s 			page 67


 2401              		.thumb_func
 2403              	FaultCommand_JsonGetUint:
 2404              	.LVL207:
 2405              	.LFB173:
 804:App/Src/fault_command.c ****   const char *cursor = FaultCommand_FindJsonKey(json, key);
 2406              		.loc 1 804 1 is_stmt 1 view -0
 2407              		.cfi_startproc
 2408              		@ args = 0, pretend = 0, frame = 0
 2409              		@ frame_needed = 0, uses_anonymous_args = 0
 804:App/Src/fault_command.c ****   const char *cursor = FaultCommand_FindJsonKey(json, key);
 2410              		.loc 1 804 1 is_stmt 0 view .LVU450
 2411 0000 10B5     		push	{r4, lr}
 2412              	.LCFI62:
 2413              		.cfi_def_cfa_offset 8
 2414              		.cfi_offset 4, -8
 2415              		.cfi_offset 14, -4
 2416 0002 1446     		mov	r4, r2
 805:App/Src/fault_command.c **** 
 2417              		.loc 1 805 3 is_stmt 1 view .LVU451
 805:App/Src/fault_command.c **** 
 2418              		.loc 1 805 24 is_stmt 0 view .LVU452
 2419 0004 FFF7FEFF 		bl	FaultCommand_FindJsonKey
 2420              	.LVL208:
 807:App/Src/fault_command.c ****   {
 2421              		.loc 1 807 3 is_stmt 1 view .LVU453
 807:App/Src/fault_command.c ****   {
 2422              		.loc 1 807 6 is_stmt 0 view .LVU454
 2423 0008 002C     		cmp	r4, #0
 2424 000a 18BF     		it	ne
 2425 000c 0028     		cmpne	r0, #0
 2426 000e 10D0     		beq	.L151
 812:App/Src/fault_command.c ****   if (cursor == NULL)
 2427              		.loc 1 812 3 is_stmt 1 view .LVU455
 812:App/Src/fault_command.c ****   if (cursor == NULL)
 2428              		.loc 1 812 12 is_stmt 0 view .LVU456
 2429 0010 3A21     		movs	r1, #58
 2430 0012 FFF7FEFF 		bl	strchr
 2431              	.LVL209:
 813:App/Src/fault_command.c ****   {
 2432              		.loc 1 813 3 is_stmt 1 view .LVU457
 813:App/Src/fault_command.c ****   {
 2433              		.loc 1 813 6 is_stmt 0 view .LVU458
 2434 0016 58B1     		cbz	r0, .L148
 818:App/Src/fault_command.c ****   while (*cursor == ' ')
 2435              		.loc 1 818 3 is_stmt 1 view .LVU459
 818:App/Src/fault_command.c ****   while (*cursor == ' ')
 2436              		.loc 1 818 9 is_stmt 0 view .LVU460
 2437 0018 0130     		adds	r0, r0, #1
 2438              	.LVL210:
 819:App/Src/fault_command.c ****   {
 2439              		.loc 1 819 3 is_stmt 1 view .LVU461
 2440              	.L149:
 819:App/Src/fault_command.c ****   {
 2441              		.loc 1 819 18 view .LVU462
 819:App/Src/fault_command.c ****   {
 2442              		.loc 1 819 10 is_stmt 0 view .LVU463
 2443 001a 0378     		ldrb	r3, [r0]	@ zero_extendqisi2
ARM GAS  C:\Users\hh\AppData\Local\Temp\cc8MU7EM.s 			page 68


 819:App/Src/fault_command.c ****   {
 2444              		.loc 1 819 18 view .LVU464
 2445 001c 202B     		cmp	r3, #32
 2446 001e 01D1     		bne	.L154
 821:App/Src/fault_command.c ****   }
 2447              		.loc 1 821 5 is_stmt 1 view .LVU465
 821:App/Src/fault_command.c ****   }
 2448              		.loc 1 821 11 is_stmt 0 view .LVU466
 2449 0020 0130     		adds	r0, r0, #1
 2450              	.LVL211:
 821:App/Src/fault_command.c ****   }
 2451              		.loc 1 821 11 view .LVU467
 2452 0022 FAE7     		b	.L149
 2453              	.LVL212:
 2454              	.L154:
 824:App/Src/fault_command.c ****   return 1U;
 2455              		.loc 1 824 3 is_stmt 1 view .LVU468
 824:App/Src/fault_command.c ****   return 1U;
 2456              		.loc 1 824 12 is_stmt 0 view .LVU469
 2457 0024 0A22     		movs	r2, #10
 2458 0026 0021     		movs	r1, #0
 2459 0028 FFF7FEFF 		bl	strtoul
 2460              	.LVL213:
 824:App/Src/fault_command.c ****   return 1U;
 2461              		.loc 1 824 10 discriminator 1 view .LVU470
 2462 002c 2060     		str	r0, [r4]
 825:App/Src/fault_command.c **** }
 2463              		.loc 1 825 3 is_stmt 1 view .LVU471
 825:App/Src/fault_command.c **** }
 2464              		.loc 1 825 10 is_stmt 0 view .LVU472
 2465 002e 0120     		movs	r0, #1
 2466              	.LVL214:
 2467              	.L148:
 826:App/Src/fault_command.c **** 
 2468              		.loc 1 826 1 view .LVU473
 2469 0030 10BD     		pop	{r4, pc}
 2470              	.LVL215:
 2471              	.L151:
 809:App/Src/fault_command.c ****   }
 2472              		.loc 1 809 12 view .LVU474
 2473 0032 0020     		movs	r0, #0
 2474              	.LVL216:
 809:App/Src/fault_command.c ****   }
 2475              		.loc 1 809 12 view .LVU475
 2476 0034 FCE7     		b	.L148
 2477              		.cfi_endproc
 2478              	.LFE173:
 2480              		.section	.text.FaultCommand_JsonGetUintDefault,"ax",%progbits
 2481              		.align	1
 2482              		.syntax unified
 2483              		.thumb
 2484              		.thumb_func
 2486              	FaultCommand_JsonGetUintDefault:
 2487              	.LVL217:
 2488              	.LFB175:
 852:App/Src/fault_command.c **** 
 853:App/Src/fault_command.c **** static uint32_t FaultCommand_JsonGetUintDefault(const char *json, const char *key, uint32_t default
ARM GAS  C:\Users\hh\AppData\Local\Temp\cc8MU7EM.s 			page 69


 854:App/Src/fault_command.c **** {
 2489              		.loc 1 854 1 is_stmt 1 view -0
 2490              		.cfi_startproc
 2491              		@ args = 0, pretend = 0, frame = 8
 2492              		@ frame_needed = 0, uses_anonymous_args = 0
 2493              		.loc 1 854 1 is_stmt 0 view .LVU477
 2494 0000 00B5     		push	{lr}
 2495              	.LCFI63:
 2496              		.cfi_def_cfa_offset 4
 2497              		.cfi_offset 14, -4
 2498 0002 83B0     		sub	sp, sp, #12
 2499              	.LCFI64:
 2500              		.cfi_def_cfa_offset 16
 855:App/Src/fault_command.c ****   uint32_t value = defaultValue;
 2501              		.loc 1 855 3 is_stmt 1 view .LVU478
 2502              		.loc 1 855 12 is_stmt 0 view .LVU479
 2503 0004 0192     		str	r2, [sp, #4]
 856:App/Src/fault_command.c **** 
 857:App/Src/fault_command.c ****   (void)FaultCommand_JsonGetUint(json, key, &value);
 2504              		.loc 1 857 3 is_stmt 1 view .LVU480
 2505              		.loc 1 857 9 is_stmt 0 view .LVU481
 2506 0006 01AA     		add	r2, sp, #4
 2507              	.LVL218:
 2508              		.loc 1 857 9 view .LVU482
 2509 0008 FFF7FEFF 		bl	FaultCommand_JsonGetUint
 2510              	.LVL219:
 858:App/Src/fault_command.c ****   return value;
 2511              		.loc 1 858 3 is_stmt 1 view .LVU483
 859:App/Src/fault_command.c **** }
 2512              		.loc 1 859 1 is_stmt 0 view .LVU484
 2513 000c 0198     		ldr	r0, [sp, #4]
 2514 000e 03B0     		add	sp, sp, #12
 2515              	.LCFI65:
 2516              		.cfi_def_cfa_offset 4
 2517              		@ sp needed
 2518 0010 00BD     		pop	{pc}
 2519              		.cfi_endproc
 2520              	.LFE175:
 2522              		.section	.rodata.FaultCommand_ExecuteJson.str1.4,"aMS",%progbits,1
 2523              		.align	2
 2524              	.LC54:
 2525 0000 636D6400 		.ascii	"cmd\000"
 2526              		.align	2
 2527              	.LC55:
 2528 0004 7B226F6B 		.ascii	"{\"ok\":false,\"error\":\"missing_cmd\"}\015\012\000"
 2528      223A6661 
 2528      6C73652C 
 2528      22657272 
 2528      6F72223A 
 2529 0029 000000   		.align	2
 2530              	.LC56:
 2531 002c 73746174 		.ascii	"status\000"
 2531      757300
 2532 0033 00       		.align	2
 2533              	.LC57:
 2534 0034 68656C70 		.ascii	"help\000"
 2534      00
ARM GAS  C:\Users\hh\AppData\Local\Temp\cc8MU7EM.s 			page 70


 2535 0039 000000   		.align	2
 2536              	.LC58:
 2537 003c 7B226F6B 		.ascii	"{\"ok\":true,\"commands\":[\"status\",\"normal\",\""
 2537      223A7472 
 2537      75652C22 
 2537      636F6D6D 
 2537      616E6473 
 2538 0066 73657422 		.ascii	"set\",\"ov\",\"uv\",\"diff\",\"wave\",\"wave_stop\""
 2538      2C226F76 
 2538      222C2275 
 2538      76222C22 
 2538      64696666 
 2539 008e 2C226361 		.ascii	",\"cal\",\"test\",\"can\",\"log\",\"clear\"]}\015\012"
 2539      6C222C22 
 2539      74657374 
 2539      222C2263 
 2539      616E222C 
 2540 00b3 00       		.ascii	"\000"
 2541              		.align	2
 2542              	.LC59:
 2543 00b4 6E6F726D 		.ascii	"normal\000"
 2543      616C00
 2544 00bb 00       		.align	2
 2545              	.LC60:
 2546 00bc 6D7600   		.ascii	"mv\000"
 2547 00bf 00       		.align	2
 2548              	.LC61:
 2549 00c0 73657400 		.ascii	"set\000"
 2550              		.align	2
 2551              	.LC62:
 2552 00c4 63656C6C 		.ascii	"cell\000"
 2552      00
 2553 00c9 000000   		.align	2
 2554              	.LC63:
 2555 00cc 6F7600   		.ascii	"ov\000"
 2556 00cf 00       		.align	2
 2557              	.LC64:
 2558 00d0 6F766572 		.ascii	"over_voltage\000"
 2558      5F766F6C 
 2558      74616765 
 2558      00
 2559 00dd 000000   		.align	2
 2560              	.LC65:
 2561 00e0 64757261 		.ascii	"duration_ms\000"
 2561      74696F6E 
 2561      5F6D7300 
 2562              		.align	2
 2563              	.LC66:
 2564 00ec 736C6577 		.ascii	"slew_mv_per_ms\000"
 2564      5F6D765F 
 2564      7065725F 
 2564      6D7300
 2565 00fb 00       		.align	2
 2566              	.LC67:
 2567 00fc 757600   		.ascii	"uv\000"
 2568 00ff 00       		.align	2
 2569              	.LC68:
ARM GAS  C:\Users\hh\AppData\Local\Temp\cc8MU7EM.s 			page 71


 2570 0100 756E6465 		.ascii	"under_voltage\000"
 2570      725F766F 
 2570      6C746167 
 2570      6500
 2571 010e 0000     		.align	2
 2572              	.LC69:
 2573 0110 64696666 		.ascii	"diff\000"
 2573      00
 2574 0115 000000   		.align	2
 2575              	.LC70:
 2576 0118 68696768 		.ascii	"high_cell\000"
 2576      5F63656C 
 2576      6C00
 2577 0122 0000     		.align	2
 2578              	.LC71:
 2579 0124 68696768 		.ascii	"high_mv\000"
 2579      5F6D7600 
 2580              		.align	2
 2581              	.LC72:
 2582 012c 6C6F775F 		.ascii	"low_cell\000"
 2582      63656C6C 
 2582      00
 2583 0135 000000   		.align	2
 2584              	.LC73:
 2585 0138 6C6F775F 		.ascii	"low_mv\000"
 2585      6D7600
 2586 013f 00       		.align	2
 2587              	.LC74:
 2588 0140 77617665 		.ascii	"wave\000"
 2588      00
 2589 0145 000000   		.align	2
 2590              	.LC75:
 2591 0148 74797065 		.ascii	"type\000"
 2591      00
 2592 014d 000000   		.align	2
 2593              	.LC76:
 2594 0150 73717561 		.ascii	"square\000"
 2594      726500
 2595 0157 00       		.align	2
 2596              	.LC77:
 2597 0158 70657269 		.ascii	"period_ms\000"
 2597      6F645F6D 
 2597      7300
 2598 0162 0000     		.align	2
 2599              	.LC78:
 2600 0164 73696E65 		.ascii	"sine\000"
 2600      00
 2601 0169 000000   		.align	2
 2602              	.LC79:
 2603 016c 6F666673 		.ascii	"offset_mv\000"
 2603      65745F6D 
 2603      7600
 2604 0176 0000     		.align	2
 2605              	.LC80:
 2606 0178 616D706C 		.ascii	"amplitude_mv\000"
 2606      69747564 
 2606      655F6D76 
ARM GAS  C:\Users\hh\AppData\Local\Temp\cc8MU7EM.s 			page 72


 2606      00
 2607 0185 000000   		.align	2
 2608              	.LC81:
 2609 0188 73696E65 		.ascii	"sine_all\000"
 2609      5F616C6C 
 2609      00
 2610 0191 000000   		.align	2
 2611              	.LC82:
 2612 0194 73746F70 		.ascii	"stop\000"
 2612      00
 2613 0199 000000   		.align	2
 2614              	.LC83:
 2615 019c 77617665 		.ascii	"wave_stop\000"
 2615      5F73746F 
 2615      7000
 2616 01a6 0000     		.align	2
 2617              	.LC84:
 2618 01a8 63616C00 		.ascii	"cal\000"
 2619              		.align	2
 2620              	.LC85:
 2621 01ac 61637469 		.ascii	"action\000"
 2621      6F6E00
 2622 01b3 00       		.align	2
 2623              	.LC86:
 2624 01b4 7B226F6B 		.ascii	"{\"ok\":true,\"calibration\":[\000"
 2624      223A7472 
 2624      75652C22 
 2624      63616C69 
 2624      62726174 
 2625 01cf 00       		.align	2
 2626              	.LC87:
 2627 01d0 25737B22 		.ascii	"%s{\"cell\":%u,\"offset_mv\":%d}\000"
 2627      63656C6C 
 2627      223A2575 
 2627      2C226F66 
 2627      66736574 
 2628 01ed 000000   		.align	2
 2629              	.LC88:
 2630 01f0 7472696D 		.ascii	"trim\000"
 2630      00
 2631 01f5 000000   		.align	2
 2632              	.LC89:
 2633 01f8 74617267 		.ascii	"target_mv\000"
 2633      65745F6D 
 2633      7600
 2634 0202 0000     		.align	2
 2635              	.LC90:
 2636 0204 6D656173 		.ascii	"measured_mv\000"
 2636      75726564 
 2636      5F6D7600 
 2637              		.align	2
 2638              	.LC91:
 2639 0210 636C6561 		.ascii	"clear\000"
 2639      7200
 2640 0216 0000     		.align	2
 2641              	.LC92:
 2642 0218 74657374 		.ascii	"test\000"
ARM GAS  C:\Users\hh\AppData\Local\Temp\cc8MU7EM.s 			page 73


 2642      00
 2643 021d 000000   		.align	2
 2644              	.LC93:
 2645 0220 73746174 		.ascii	"static\000"
 2645      696300
 2646 0227 00       		.align	2
 2647              	.LC94:
 2648 0228 736C6577 		.ascii	"slew\000"
 2648      00
 2649 022d 000000   		.align	2
 2650              	.LC95:
 2651 0230 63616E00 		.ascii	"can\000"
 2652              		.align	2
 2653              	.LC96:
 2654 0234 73656E64 		.ascii	"send\000"
 2654      00
 2655 0239 000000   		.align	2
 2656              	.LC97:
 2657 023c 696400   		.ascii	"id\000"
 2658 023f 00       		.align	2
 2659              	.LC98:
 2660 0240 6C656E00 		.ascii	"len\000"
 2661              		.align	2
 2662              	.LC99:
 2663 0244 65787465 		.ascii	"extended\000"
 2663      6E646564 
 2663      00
 2664 024d 000000   		.align	2
 2665              	.LC100:
 2666 0250 64257500 		.ascii	"d%u\000"
 2667              		.align	2
 2668              	.LC101:
 2669 0254 6C6F6700 		.ascii	"log\000"
 2670              		.align	2
 2671              	.LC102:
 2672 0258 7B226F6B 		.ascii	"{\"ok\":false,\"error\":\"unknown_cmd\"}\015\012\000"
 2672      223A6661 
 2672      6C73652C 
 2672      22657272 
 2672      6F72223A 
 2673              		.section	.text.FaultCommand_ExecuteJson,"ax",%progbits
 2674              		.align	1
 2675              		.syntax unified
 2676              		.thumb
 2677              		.thumb_func
 2679              	FaultCommand_ExecuteJson:
 2680              	.LVL220:
 2681              	.LFB176:
 860:App/Src/fault_command.c **** 
 861:App/Src/fault_command.c **** static void FaultCommand_ExecuteJson(const char *json, FaultCommand_WriteFn write, void *context)
 862:App/Src/fault_command.c **** {
 2682              		.loc 1 862 1 is_stmt 1 view -0
 2683              		.cfi_startproc
 2684              		@ args = 0, pretend = 0, frame = 88
 2685              		@ frame_needed = 0, uses_anonymous_args = 0
 2686              		.loc 1 862 1 is_stmt 0 view .LVU486
 2687 0000 2DE9F041 		push	{r4, r5, r6, r7, r8, lr}
ARM GAS  C:\Users\hh\AppData\Local\Temp\cc8MU7EM.s 			page 74


 2688              	.LCFI66:
 2689              		.cfi_def_cfa_offset 24
 2690              		.cfi_offset 4, -24
 2691              		.cfi_offset 5, -20
 2692              		.cfi_offset 6, -16
 2693              		.cfi_offset 7, -12
 2694              		.cfi_offset 8, -8
 2695              		.cfi_offset 14, -4
 2696 0004 98B0     		sub	sp, sp, #96
 2697              	.LCFI67:
 2698              		.cfi_def_cfa_offset 120
 2699 0006 0446     		mov	r4, r0
 2700 0008 0E46     		mov	r6, r1
 2701 000a 1746     		mov	r7, r2
 863:App/Src/fault_command.c ****   char cmd[16];
 2702              		.loc 1 863 3 is_stmt 1 view .LVU487
 864:App/Src/fault_command.c ****   char type[16];
 2703              		.loc 1 864 3 view .LVU488
 865:App/Src/fault_command.c ****   uint32_t cell;
 2704              		.loc 1 865 3 view .LVU489
 866:App/Src/fault_command.c ****   uint32_t mv;
 2705              		.loc 1 866 3 view .LVU490
 867:App/Src/fault_command.c ****   uint32_t duration;
 2706              		.loc 1 867 3 view .LVU491
 868:App/Src/fault_command.c ****   uint32_t slew;
 2707              		.loc 1 868 3 view .LVU492
 869:App/Src/fault_command.c ****   HAL_StatusTypeDef status = HAL_ERROR;
 2708              		.loc 1 869 3 view .LVU493
 2709              	.LVL221:
 870:App/Src/fault_command.c **** 
 871:App/Src/fault_command.c ****   if (FaultCommand_JsonGetString(json, "cmd", cmd, sizeof(cmd)) == 0U)
 2710              		.loc 1 871 3 view .LVU494
 2711              		.loc 1 871 7 is_stmt 0 view .LVU495
 2712 000c 1023     		movs	r3, #16
 2713 000e 14AA     		add	r2, sp, #80
 2714              	.LVL222:
 2715              		.loc 1 871 7 view .LVU496
 2716 0010 A049     		ldr	r1, .L305
 2717              	.LVL223:
 2718              		.loc 1 871 7 view .LVU497
 2719 0012 FFF7FEFF 		bl	FaultCommand_JsonGetString
 2720              	.LVL224:
 2721              		.loc 1 871 6 discriminator 1 view .LVU498
 2722 0016 0028     		cmp	r0, #0
 2723 0018 2AD0     		beq	.L249
 872:App/Src/fault_command.c ****   {
 873:App/Src/fault_command.c ****     FaultCommand_Write(write, context, "{\"ok\":false,\"error\":\"missing_cmd\"}\r\n");
 874:App/Src/fault_command.c ****     return;
 875:App/Src/fault_command.c ****   }
 876:App/Src/fault_command.c **** 
 877:App/Src/fault_command.c ****   if (strcmp(cmd, "status") == 0)
 2724              		.loc 1 877 3 is_stmt 1 view .LVU499
 2725              		.loc 1 877 7 is_stmt 0 view .LVU500
 2726 001a 9F49     		ldr	r1, .L305+4
 2727 001c 14A8     		add	r0, sp, #80
 2728 001e FFF7FEFF 		bl	strcmp
 2729              	.LVL225:
ARM GAS  C:\Users\hh\AppData\Local\Temp\cc8MU7EM.s 			page 75


 2730              		.loc 1 877 6 discriminator 1 view .LVU501
 2731 0022 0028     		cmp	r0, #0
 2732 0024 2AD0     		beq	.L250
 878:App/Src/fault_command.c ****   {
 879:App/Src/fault_command.c ****     FaultCommand_WriteJsonStatus(write, context);
 880:App/Src/fault_command.c ****     return;
 881:App/Src/fault_command.c ****   }
 882:App/Src/fault_command.c **** 
 883:App/Src/fault_command.c ****   if (strcmp(cmd, "help") == 0)
 2733              		.loc 1 883 3 is_stmt 1 view .LVU502
 2734              		.loc 1 883 7 is_stmt 0 view .LVU503
 2735 0026 9D49     		ldr	r1, .L305+8
 2736 0028 14A8     		add	r0, sp, #80
 2737 002a FFF7FEFF 		bl	strcmp
 2738              	.LVL226:
 2739              		.loc 1 883 6 discriminator 1 view .LVU504
 2740 002e 50B3     		cbz	r0, .L251
 884:App/Src/fault_command.c ****   {
 885:App/Src/fault_command.c ****     FaultCommand_Write(write,
 886:App/Src/fault_command.c ****                        context,
 887:App/Src/fault_command.c ****                        "{\"ok\":true,\"commands\":[\"status\",\"normal\",\"set\",\"ov\",\"uv\",\"di
 888:App/Src/fault_command.c ****     return;
 889:App/Src/fault_command.c ****   }
 890:App/Src/fault_command.c **** 
 891:App/Src/fault_command.c ****   if (strcmp(cmd, "normal") == 0)
 2741              		.loc 1 891 3 is_stmt 1 view .LVU505
 2742              		.loc 1 891 7 is_stmt 0 view .LVU506
 2743 0030 9B49     		ldr	r1, .L305+12
 2744 0032 14A8     		add	r0, sp, #80
 2745 0034 FFF7FEFF 		bl	strcmp
 2746              	.LVL227:
 2747              		.loc 1 891 6 discriminator 1 view .LVU507
 2748 0038 58B3     		cbz	r0, .L252
 892:App/Src/fault_command.c ****   {
 893:App/Src/fault_command.c ****     mv = FaultCommand_JsonGetUintDefault(json, "mv", VOLTAGE_SIM_DEFAULT_NORMAL_MV);
 894:App/Src/fault_command.c ****     status = FaultCommand_RunNormal((uint16_t)mv);
 895:App/Src/fault_command.c ****   }
 896:App/Src/fault_command.c ****   else if (strcmp(cmd, "set") == 0)
 2749              		.loc 1 896 8 is_stmt 1 view .LVU508
 2750              		.loc 1 896 12 is_stmt 0 view .LVU509
 2751 003a 9A49     		ldr	r1, .L305+16
 2752 003c 14A8     		add	r0, sp, #80
 2753 003e FFF7FEFF 		bl	strcmp
 2754              	.LVL228:
 2755              		.loc 1 896 11 discriminator 1 view .LVU510
 2756 0042 0028     		cmp	r0, #0
 2757 0044 39D0     		beq	.L253
 897:App/Src/fault_command.c ****   {
 898:App/Src/fault_command.c ****     if ((FaultCommand_JsonGetUint(json, "cell", &cell) != 0U) &&
 899:App/Src/fault_command.c ****         (FaultCommand_JsonGetUint(json, "mv", &mv) != 0U))
 900:App/Src/fault_command.c ****     {
 901:App/Src/fault_command.c ****       status = FaultCommand_RunSet((uint8_t)cell, (uint16_t)mv);
 902:App/Src/fault_command.c ****     }
 903:App/Src/fault_command.c ****   }
 904:App/Src/fault_command.c ****   else if ((strcmp(cmd, "ov") == 0) || (strcmp(cmd, "over_voltage") == 0))
 2758              		.loc 1 904 8 is_stmt 1 view .LVU511
 2759              		.loc 1 904 13 is_stmt 0 view .LVU512
ARM GAS  C:\Users\hh\AppData\Local\Temp\cc8MU7EM.s 			page 76


 2760 0046 9849     		ldr	r1, .L305+20
 2761 0048 14A8     		add	r0, sp, #80
 2762 004a FFF7FEFF 		bl	strcmp
 2763              	.LVL229:
 2764              		.loc 1 904 11 discriminator 1 view .LVU513
 2765 004e 28B1     		cbz	r0, .L165
 2766              		.loc 1 904 41 discriminator 2 view .LVU514
 2767 0050 9649     		ldr	r1, .L305+24
 2768 0052 14A8     		add	r0, sp, #80
 2769 0054 FFF7FEFF 		bl	strcmp
 2770              	.LVL230:
 2771              		.loc 1 904 37 discriminator 3 view .LVU515
 2772 0058 0028     		cmp	r0, #0
 2773 005a 65D1     		bne	.L166
 2774              	.L165:
 905:App/Src/fault_command.c ****   {
 906:App/Src/fault_command.c ****     if (FaultCommand_JsonGetUint(json, "cell", &cell) != 0U)
 2775              		.loc 1 906 5 is_stmt 1 view .LVU516
 2776              		.loc 1 906 9 is_stmt 0 view .LVU517
 2777 005c 0FAA     		add	r2, sp, #60
 2778 005e 9449     		ldr	r1, .L305+28
 2779 0060 2046     		mov	r0, r4
 2780 0062 FFF7FEFF 		bl	FaultCommand_JsonGetUint
 2781              	.LVL231:
 2782              		.loc 1 906 8 discriminator 1 view .LVU518
 2783 0066 0028     		cmp	r0, #0
 2784 0068 41D1     		bne	.L254
 869:App/Src/fault_command.c **** 
 2785              		.loc 1 869 21 view .LVU519
 2786 006a 0123     		movs	r3, #1
 2787 006c 1C46     		mov	r4, r3
 2788              	.LVL232:
 869:App/Src/fault_command.c **** 
 2789              		.loc 1 869 21 view .LVU520
 2790 006e 1BE0     		b	.L163
 2791              	.LVL233:
 2792              	.L249:
 873:App/Src/fault_command.c ****     return;
 2793              		.loc 1 873 5 is_stmt 1 view .LVU521
 2794 0070 904A     		ldr	r2, .L305+32
 2795 0072 3946     		mov	r1, r7
 2796 0074 3046     		mov	r0, r6
 2797 0076 FFF7FEFF 		bl	FaultCommand_Write
 2798              	.LVL234:
 874:App/Src/fault_command.c ****   }
 2799              		.loc 1 874 5 view .LVU522
 2800 007a 1BE0     		b	.L157
 2801              	.L250:
 879:App/Src/fault_command.c ****     return;
 2802              		.loc 1 879 5 view .LVU523
 2803 007c 3946     		mov	r1, r7
 2804 007e 3046     		mov	r0, r6
 2805 0080 FFF7FEFF 		bl	FaultCommand_WriteJsonStatus
 2806              	.LVL235:
 880:App/Src/fault_command.c ****   }
 2807              		.loc 1 880 5 view .LVU524
 2808 0084 16E0     		b	.L157
ARM GAS  C:\Users\hh\AppData\Local\Temp\cc8MU7EM.s 			page 77


 2809              	.L251:
 885:App/Src/fault_command.c ****                        context,
 2810              		.loc 1 885 5 view .LVU525
 2811 0086 8C4A     		ldr	r2, .L305+36
 2812 0088 3946     		mov	r1, r7
 2813 008a 3046     		mov	r0, r6
 2814 008c FFF7FEFF 		bl	FaultCommand_Write
 2815              	.LVL236:
 888:App/Src/fault_command.c ****   }
 2816              		.loc 1 888 5 view .LVU526
 2817 0090 10E0     		b	.L157
 2818              	.L252:
 893:App/Src/fault_command.c ****     status = FaultCommand_RunNormal((uint16_t)mv);
 2819              		.loc 1 893 5 view .LVU527
 893:App/Src/fault_command.c ****     status = FaultCommand_RunNormal((uint16_t)mv);
 2820              		.loc 1 893 10 is_stmt 0 view .LVU528
 2821 0092 4FF44862 		mov	r2, #3200
 2822 0096 8949     		ldr	r1, .L305+40
 2823 0098 2046     		mov	r0, r4
 2824 009a FFF7FEFF 		bl	FaultCommand_JsonGetUintDefault
 2825              	.LVL237:
 893:App/Src/fault_command.c ****     status = FaultCommand_RunNormal((uint16_t)mv);
 2826              		.loc 1 893 8 discriminator 1 view .LVU529
 2827 009e 0E90     		str	r0, [sp, #56]
 894:App/Src/fault_command.c ****   }
 2828              		.loc 1 894 5 is_stmt 1 view .LVU530
 894:App/Src/fault_command.c ****   }
 2829              		.loc 1 894 14 is_stmt 0 view .LVU531
 2830 00a0 80B2     		uxth	r0, r0
 2831 00a2 FFF7FEFF 		bl	FaultCommand_RunNormal
 2832              	.LVL238:
 2833 00a6 0446     		mov	r4, r0
 2834              	.LVL239:
 2835              	.L163:
 907:App/Src/fault_command.c ****     {
 908:App/Src/fault_command.c ****       mv = FaultCommand_JsonGetUintDefault(json, "mv", VOLTAGE_SIM_DEFAULT_OV_MV);
 909:App/Src/fault_command.c ****       duration = FaultCommand_JsonGetUintDefault(json, "duration_ms", FAULT_COMMAND_DEFAULT_DURATIO
 910:App/Src/fault_command.c ****       slew = FaultCommand_JsonGetUintDefault(json, "slew_mv_per_ms", FAULT_COMMAND_DEFAULT_SLEW_MV_
 911:App/Src/fault_command.c ****       status = FaultCommand_RunOverVoltage((uint8_t)cell, (uint16_t)mv, duration, (uint16_t)slew);
 912:App/Src/fault_command.c ****     }
 913:App/Src/fault_command.c ****   }
 914:App/Src/fault_command.c ****   else if ((strcmp(cmd, "uv") == 0) || (strcmp(cmd, "under_voltage") == 0))
 915:App/Src/fault_command.c ****   {
 916:App/Src/fault_command.c ****     if (FaultCommand_JsonGetUint(json, "cell", &cell) != 0U)
 917:App/Src/fault_command.c ****     {
 918:App/Src/fault_command.c ****       mv = FaultCommand_JsonGetUintDefault(json, "mv", VOLTAGE_SIM_DEFAULT_UV_MV);
 919:App/Src/fault_command.c ****       duration = FaultCommand_JsonGetUintDefault(json, "duration_ms", FAULT_COMMAND_DEFAULT_DURATIO
 920:App/Src/fault_command.c ****       slew = FaultCommand_JsonGetUintDefault(json, "slew_mv_per_ms", FAULT_COMMAND_DEFAULT_SLEW_MV_
 921:App/Src/fault_command.c ****       status = FaultCommand_RunUnderVoltage((uint8_t)cell, (uint16_t)mv, duration, (uint16_t)slew);
 922:App/Src/fault_command.c ****     }
 923:App/Src/fault_command.c ****   }
 924:App/Src/fault_command.c ****   else if (strcmp(cmd, "diff") == 0)
 925:App/Src/fault_command.c ****   {
 926:App/Src/fault_command.c ****     uint32_t highCell;
 927:App/Src/fault_command.c ****     uint32_t highMv;
 928:App/Src/fault_command.c ****     uint32_t lowCell;
 929:App/Src/fault_command.c ****     uint32_t lowMv;
ARM GAS  C:\Users\hh\AppData\Local\Temp\cc8MU7EM.s 			page 78


 930:App/Src/fault_command.c **** 
 931:App/Src/fault_command.c ****     if ((FaultCommand_JsonGetUint(json, "high_cell", &highCell) != 0U) &&
 932:App/Src/fault_command.c ****         (FaultCommand_JsonGetUint(json, "high_mv", &highMv) != 0U) &&
 933:App/Src/fault_command.c ****         (FaultCommand_JsonGetUint(json, "low_cell", &lowCell) != 0U) &&
 934:App/Src/fault_command.c ****         (FaultCommand_JsonGetUint(json, "low_mv", &lowMv) != 0U))
 935:App/Src/fault_command.c ****     {
 936:App/Src/fault_command.c ****       duration = FaultCommand_JsonGetUintDefault(json, "duration_ms", FAULT_COMMAND_DEFAULT_DURATIO
 937:App/Src/fault_command.c ****       slew = FaultCommand_JsonGetUintDefault(json, "slew_mv_per_ms", FAULT_COMMAND_DEFAULT_SLEW_MV_
 938:App/Src/fault_command.c ****       status = FaultCommand_RunDiff((uint8_t)highCell,
 939:App/Src/fault_command.c ****                                     (uint16_t)highMv,
 940:App/Src/fault_command.c ****                                     (uint8_t)lowCell,
 941:App/Src/fault_command.c ****                                     (uint16_t)lowMv,
 942:App/Src/fault_command.c ****                                     duration,
 943:App/Src/fault_command.c ****                                     (uint16_t)slew);
 944:App/Src/fault_command.c ****     }
 945:App/Src/fault_command.c ****   }
 946:App/Src/fault_command.c ****   else if (strcmp(cmd, "wave") == 0)
 947:App/Src/fault_command.c ****   {
 948:App/Src/fault_command.c ****     if (FaultCommand_JsonGetString(json, "type", type, sizeof(type)) != 0U)
 949:App/Src/fault_command.c ****     {
 950:App/Src/fault_command.c ****       if (strcmp(type, "square") == 0)
 951:App/Src/fault_command.c ****       {
 952:App/Src/fault_command.c ****         uint32_t low;
 953:App/Src/fault_command.c ****         uint32_t high;
 954:App/Src/fault_command.c ****         uint32_t period;
 955:App/Src/fault_command.c **** 
 956:App/Src/fault_command.c ****         if ((FaultCommand_JsonGetUint(json, "cell", &cell) != 0U) &&
 957:App/Src/fault_command.c ****             (FaultCommand_JsonGetUint(json, "low_mv", &low) != 0U) &&
 958:App/Src/fault_command.c ****             (FaultCommand_JsonGetUint(json, "high_mv", &high) != 0U))
 959:App/Src/fault_command.c ****         {
 960:App/Src/fault_command.c ****           period = FaultCommand_JsonGetUintDefault(json, "period_ms", 1000U);
 961:App/Src/fault_command.c ****           status = WaveformGen_StartSquare((uint8_t)cell,
 962:App/Src/fault_command.c ****                                            (uint16_t)low,
 963:App/Src/fault_command.c ****                                            (uint16_t)high,
 964:App/Src/fault_command.c ****                                            period);
 965:App/Src/fault_command.c ****         }
 966:App/Src/fault_command.c ****       }
 967:App/Src/fault_command.c ****       else if (strcmp(type, "sine") == 0)
 968:App/Src/fault_command.c ****       {
 969:App/Src/fault_command.c ****         uint32_t offset;
 970:App/Src/fault_command.c ****         uint32_t amplitude;
 971:App/Src/fault_command.c ****         uint32_t period;
 972:App/Src/fault_command.c **** 
 973:App/Src/fault_command.c ****         if ((FaultCommand_JsonGetUint(json, "cell", &cell) != 0U) &&
 974:App/Src/fault_command.c ****             (FaultCommand_JsonGetUint(json, "offset_mv", &offset) != 0U) &&
 975:App/Src/fault_command.c ****             (FaultCommand_JsonGetUint(json, "amplitude_mv", &amplitude) != 0U))
 976:App/Src/fault_command.c ****         {
 977:App/Src/fault_command.c ****           period = FaultCommand_JsonGetUintDefault(json, "period_ms", 1000U);
 978:App/Src/fault_command.c ****           status = WaveformGen_StartSine((uint8_t)cell,
 979:App/Src/fault_command.c ****                                          (uint16_t)offset,
 980:App/Src/fault_command.c ****                                          (uint16_t)amplitude,
 981:App/Src/fault_command.c ****                                          period);
 982:App/Src/fault_command.c ****         }
 983:App/Src/fault_command.c ****       }
 984:App/Src/fault_command.c ****       else if (strcmp(type, "sine_all") == 0)
 985:App/Src/fault_command.c ****       {
 986:App/Src/fault_command.c ****         uint32_t offset;
ARM GAS  C:\Users\hh\AppData\Local\Temp\cc8MU7EM.s 			page 79


 987:App/Src/fault_command.c ****         uint32_t amplitude;
 988:App/Src/fault_command.c ****         uint32_t period;
 989:App/Src/fault_command.c **** 
 990:App/Src/fault_command.c ****         if ((FaultCommand_JsonGetUint(json, "offset_mv", &offset) != 0U) &&
 991:App/Src/fault_command.c ****             (FaultCommand_JsonGetUint(json, "amplitude_mv", &amplitude) != 0U))
 992:App/Src/fault_command.c ****         {
 993:App/Src/fault_command.c ****           period = FaultCommand_JsonGetUintDefault(json, "period_ms", 1000U);
 994:App/Src/fault_command.c ****           status = WaveformGen_StartSineAll((uint16_t)offset,
 995:App/Src/fault_command.c ****                                             (uint16_t)amplitude,
 996:App/Src/fault_command.c ****                                             period);
 997:App/Src/fault_command.c ****         }
 998:App/Src/fault_command.c ****       }
 999:App/Src/fault_command.c ****       else if (strcmp(type, "stop") == 0)
1000:App/Src/fault_command.c ****       {
1001:App/Src/fault_command.c ****         WaveformGen_Stop();
1002:App/Src/fault_command.c ****         status = HAL_OK;
1003:App/Src/fault_command.c ****       }
1004:App/Src/fault_command.c ****     }
1005:App/Src/fault_command.c ****   }
1006:App/Src/fault_command.c ****   else if (strcmp(cmd, "wave_stop") == 0)
1007:App/Src/fault_command.c ****   {
1008:App/Src/fault_command.c ****     WaveformGen_Stop();
1009:App/Src/fault_command.c ****     status = HAL_OK;
1010:App/Src/fault_command.c ****   }
1011:App/Src/fault_command.c ****   else if (strcmp(cmd, "cal") == 0)
1012:App/Src/fault_command.c ****   {
1013:App/Src/fault_command.c ****     char action[16];
1014:App/Src/fault_command.c **** 
1015:App/Src/fault_command.c ****     if (FaultCommand_JsonGetString(json, "action", action, sizeof(action)) != 0U)
1016:App/Src/fault_command.c ****     {
1017:App/Src/fault_command.c ****       if (strcmp(action, "status") == 0)
1018:App/Src/fault_command.c ****       {
1019:App/Src/fault_command.c ****         FaultCommand_Write(write, context, "{\"ok\":true,\"calibration\":[");
1020:App/Src/fault_command.c ****         for (uint8_t calCell = 1U; calCell <= VOLTAGE_SIM_CELL_COUNT; calCell++)
1021:App/Src/fault_command.c ****         {
1022:App/Src/fault_command.c ****           FaultCommand_WriteFormat(write,
1023:App/Src/fault_command.c ****                                    context,
1024:App/Src/fault_command.c ****                                    "%s{\"cell\":%u,\"offset_mv\":%d}",
1025:App/Src/fault_command.c ****                                    (calCell == 1U) ? "" : ",",
1026:App/Src/fault_command.c ****                                    calCell,
1027:App/Src/fault_command.c ****                                    (int)VoltageSim_GetCellCalibrationOffsetMv(calCell));
1028:App/Src/fault_command.c ****         }
1029:App/Src/fault_command.c ****         FaultCommand_Write(write, context, "]}\r\n");
1030:App/Src/fault_command.c ****         return;
1031:App/Src/fault_command.c ****       }
1032:App/Src/fault_command.c ****       else if (strcmp(action, "set") == 0)
1033:App/Src/fault_command.c ****       {
1034:App/Src/fault_command.c ****         int32_t signedOffset;
1035:App/Src/fault_command.c **** 
1036:App/Src/fault_command.c ****         if ((FaultCommand_JsonGetUint(json, "cell", &cell) != 0U) &&
1037:App/Src/fault_command.c ****             (FaultCommand_JsonGetInt(json, "offset_mv", &signedOffset) != 0U))
1038:App/Src/fault_command.c ****         {
1039:App/Src/fault_command.c ****           status = VoltageSim_SetCellCalibrationOffsetMv((uint8_t)cell,
1040:App/Src/fault_command.c ****                                                          (int16_t)signedOffset);
1041:App/Src/fault_command.c ****         }
1042:App/Src/fault_command.c ****       }
1043:App/Src/fault_command.c ****       else if (strcmp(action, "trim") == 0)
ARM GAS  C:\Users\hh\AppData\Local\Temp\cc8MU7EM.s 			page 80


1044:App/Src/fault_command.c ****       {
1045:App/Src/fault_command.c ****         uint32_t targetMv;
1046:App/Src/fault_command.c ****         uint32_t measuredMv;
1047:App/Src/fault_command.c **** 
1048:App/Src/fault_command.c ****         if ((FaultCommand_JsonGetUint(json, "cell", &cell) != 0U) &&
1049:App/Src/fault_command.c ****             (FaultCommand_JsonGetUint(json, "target_mv", &targetMv) != 0U) &&
1050:App/Src/fault_command.c ****             (FaultCommand_JsonGetUint(json, "measured_mv", &measuredMv) != 0U))
1051:App/Src/fault_command.c ****         {
1052:App/Src/fault_command.c ****           status = FaultCommand_RunCalibrationTrim((uint8_t)cell,
1053:App/Src/fault_command.c ****                                                   (uint16_t)targetMv,
1054:App/Src/fault_command.c ****                                                   (uint16_t)measuredMv);
1055:App/Src/fault_command.c ****         }
1056:App/Src/fault_command.c ****       }
1057:App/Src/fault_command.c ****       else if (strcmp(action, "clear") == 0)
1058:App/Src/fault_command.c ****       {
1059:App/Src/fault_command.c ****         if (FaultCommand_JsonGetUint(json, "cell", &cell) != 0U)
1060:App/Src/fault_command.c ****         {
1061:App/Src/fault_command.c ****           status = VoltageSim_ClearCellCalibrationOffset((uint8_t)cell);
1062:App/Src/fault_command.c ****         }
1063:App/Src/fault_command.c ****         else
1064:App/Src/fault_command.c ****         {
1065:App/Src/fault_command.c ****           VoltageSim_ClearAllCalibrationOffsets();
1066:App/Src/fault_command.c ****           status = HAL_OK;
1067:App/Src/fault_command.c ****         }
1068:App/Src/fault_command.c ****       }
1069:App/Src/fault_command.c ****     }
1070:App/Src/fault_command.c ****   }
1071:App/Src/fault_command.c ****   else if (strcmp(cmd, "test") == 0)
1072:App/Src/fault_command.c ****   {
1073:App/Src/fault_command.c ****     if (FaultCommand_JsonGetString(json, "type", type, sizeof(type)) != 0U)
1074:App/Src/fault_command.c ****     {
1075:App/Src/fault_command.c ****       if (strcmp(type, "static") == 0)
1076:App/Src/fault_command.c ****       {
1077:App/Src/fault_command.c ****         if (FaultCommand_JsonGetUint(json, "mv", &mv) != 0U)
1078:App/Src/fault_command.c ****         {
1079:App/Src/fault_command.c ****           status = FaultCommand_RunNormal((uint16_t)mv);
1080:App/Src/fault_command.c ****         }
1081:App/Src/fault_command.c ****       }
1082:App/Src/fault_command.c ****       else if (strcmp(type, "slew") == 0)
1083:App/Src/fault_command.c ****       {
1084:App/Src/fault_command.c ****         uint32_t low;
1085:App/Src/fault_command.c ****         uint32_t high;
1086:App/Src/fault_command.c ****         uint32_t period;
1087:App/Src/fault_command.c **** 
1088:App/Src/fault_command.c ****         if ((FaultCommand_JsonGetUint(json, "cell", &cell) != 0U) &&
1089:App/Src/fault_command.c ****             (FaultCommand_JsonGetUint(json, "low_mv", &low) != 0U) &&
1090:App/Src/fault_command.c ****             (FaultCommand_JsonGetUint(json, "high_mv", &high) != 0U))
1091:App/Src/fault_command.c ****         {
1092:App/Src/fault_command.c ****           period = FaultCommand_JsonGetUintDefault(json, "period_ms", 1000U);
1093:App/Src/fault_command.c ****           status = WaveformGen_StartSquare((uint8_t)cell,
1094:App/Src/fault_command.c ****                                            (uint16_t)low,
1095:App/Src/fault_command.c ****                                            (uint16_t)high,
1096:App/Src/fault_command.c ****                                            period);
1097:App/Src/fault_command.c ****         }
1098:App/Src/fault_command.c ****       }
1099:App/Src/fault_command.c ****     }
1100:App/Src/fault_command.c ****   }
ARM GAS  C:\Users\hh\AppData\Local\Temp\cc8MU7EM.s 			page 81


1101:App/Src/fault_command.c ****   else if (strcmp(cmd, "can") == 0)
1102:App/Src/fault_command.c ****   {
1103:App/Src/fault_command.c ****     char action[16];
1104:App/Src/fault_command.c **** 
1105:App/Src/fault_command.c ****     if (FaultCommand_JsonGetString(json, "action", action, sizeof(action)) != 0U)
1106:App/Src/fault_command.c ****     {
1107:App/Src/fault_command.c ****       if (strcmp(action, "status") == 0)
1108:App/Src/fault_command.c ****       {
1109:App/Src/fault_command.c ****         FaultCommand_WriteJsonCanStatus(write, context);
1110:App/Src/fault_command.c ****         return;
1111:App/Src/fault_command.c ****       }
1112:App/Src/fault_command.c ****       else if (strcmp(action, "send") == 0)
1113:App/Src/fault_command.c ****       {
1114:App/Src/fault_command.c ****         uint32_t id;
1115:App/Src/fault_command.c ****         uint32_t length;
1116:App/Src/fault_command.c ****         uint32_t extended;
1117:App/Src/fault_command.c ****         uint8_t data[BSP_CAN_MAX_DATA_LEN] = {0};
1118:App/Src/fault_command.c **** 
1119:App/Src/fault_command.c ****         if ((FaultCommand_JsonGetUint(json, "id", &id) != 0U) &&
1120:App/Src/fault_command.c ****             (FaultCommand_JsonGetUint(json, "len", &length) != 0U) &&
1121:App/Src/fault_command.c ****             (length <= BSP_CAN_MAX_DATA_LEN))
1122:App/Src/fault_command.c ****         {
1123:App/Src/fault_command.c ****           extended = FaultCommand_JsonGetUintDefault(json, "extended", 0U);
1124:App/Src/fault_command.c ****           status = HAL_OK;
1125:App/Src/fault_command.c **** 
1126:App/Src/fault_command.c ****           for (uint8_t index = 0U; index < length; index++)
1127:App/Src/fault_command.c ****           {
1128:App/Src/fault_command.c ****             char key[8];
1129:App/Src/fault_command.c ****             uint32_t value;
1130:App/Src/fault_command.c **** 
1131:App/Src/fault_command.c ****             (void)snprintf(key, sizeof(key), "d%u", index);
1132:App/Src/fault_command.c ****             if ((FaultCommand_JsonGetUint(json, key, &value) == 0U) || (value > 0xFFU))
1133:App/Src/fault_command.c ****             {
1134:App/Src/fault_command.c ****               status = HAL_ERROR;
1135:App/Src/fault_command.c ****               break;
1136:App/Src/fault_command.c ****             }
1137:App/Src/fault_command.c ****             data[index] = (uint8_t)value;
1138:App/Src/fault_command.c ****           }
1139:App/Src/fault_command.c **** 
1140:App/Src/fault_command.c ****           if (status == HAL_OK)
1141:App/Src/fault_command.c ****           {
1142:App/Src/fault_command.c ****             status = BspCan_SendClassic(id, (extended != 0U) ? 1U : 0U, data, (uint8_t)length);
1143:App/Src/fault_command.c ****           }
1144:App/Src/fault_command.c ****         }
1145:App/Src/fault_command.c ****       }
1146:App/Src/fault_command.c ****     }
1147:App/Src/fault_command.c ****   }
1148:App/Src/fault_command.c ****   else if (strcmp(cmd, "log") == 0)
1149:App/Src/fault_command.c ****   {
1150:App/Src/fault_command.c ****     char action[16];
1151:App/Src/fault_command.c **** 
1152:App/Src/fault_command.c ****     if (FaultCommand_JsonGetString(json, "action", action, sizeof(action)) != 0U)
1153:App/Src/fault_command.c ****     {
1154:App/Src/fault_command.c ****       if (strcmp(action, "status") == 0)
1155:App/Src/fault_command.c ****       {
1156:App/Src/fault_command.c ****         FaultCommand_WriteJsonBmsResponseLog(write, context);
1157:App/Src/fault_command.c ****         return;
ARM GAS  C:\Users\hh\AppData\Local\Temp\cc8MU7EM.s 			page 82


1158:App/Src/fault_command.c ****       }
1159:App/Src/fault_command.c ****       else if (strcmp(action, "clear") == 0)
1160:App/Src/fault_command.c ****       {
1161:App/Src/fault_command.c ****         BmsResponseLog_Clear();
1162:App/Src/fault_command.c ****         status = HAL_OK;
1163:App/Src/fault_command.c ****       }
1164:App/Src/fault_command.c ****     }
1165:App/Src/fault_command.c ****   }
1166:App/Src/fault_command.c ****   else if (strcmp(cmd, "clear") == 0)
1167:App/Src/fault_command.c ****   {
1168:App/Src/fault_command.c ****     WaveformGen_Stop();
1169:App/Src/fault_command.c ****     if (FaultCommand_JsonGetUint(json, "cell", &cell) != 0U)
1170:App/Src/fault_command.c ****     {
1171:App/Src/fault_command.c ****       status = VoltageSim_ClearCellFault((uint8_t)cell);
1172:App/Src/fault_command.c ****     }
1173:App/Src/fault_command.c ****     else
1174:App/Src/fault_command.c ****     {
1175:App/Src/fault_command.c ****       status = VoltageSim_ClearAllFaults();
1176:App/Src/fault_command.c ****     }
1177:App/Src/fault_command.c ****   }
1178:App/Src/fault_command.c ****   else
1179:App/Src/fault_command.c ****   {
1180:App/Src/fault_command.c ****     FaultCommand_Write(write, context, "{\"ok\":false,\"error\":\"unknown_cmd\"}\r\n");
1181:App/Src/fault_command.c ****     return;
1182:App/Src/fault_command.c ****   }
1183:App/Src/fault_command.c **** 
1184:App/Src/fault_command.c ****   FaultCommand_WriteJsonResult(write, context, cmd, status);
 2836              		.loc 1 1184 3 is_stmt 1 view .LVU532
 2837 00a8 2346     		mov	r3, r4
 2838 00aa 14AA     		add	r2, sp, #80
 2839 00ac 3946     		mov	r1, r7
 2840 00ae 3046     		mov	r0, r6
 2841 00b0 FFF7FEFF 		bl	FaultCommand_WriteJsonResult
 2842              	.LVL240:
 2843              	.L157:
1185:App/Src/fault_command.c **** }
 2844              		.loc 1 1185 1 is_stmt 0 view .LVU533
 2845 00b4 18B0     		add	sp, sp, #96
 2846              	.LCFI68:
 2847              		.cfi_remember_state
 2848              		.cfi_def_cfa_offset 24
 2849              		@ sp needed
 2850 00b6 BDE8F081 		pop	{r4, r5, r6, r7, r8, pc}
 2851              	.LVL241:
 2852              	.L253:
 2853              	.LCFI69:
 2854              		.cfi_restore_state
 898:App/Src/fault_command.c ****         (FaultCommand_JsonGetUint(json, "mv", &mv) != 0U))
 2855              		.loc 1 898 5 is_stmt 1 view .LVU534
 898:App/Src/fault_command.c ****         (FaultCommand_JsonGetUint(json, "mv", &mv) != 0U))
 2856              		.loc 1 898 10 is_stmt 0 view .LVU535
 2857 00ba 0FAA     		add	r2, sp, #60
 2858 00bc 7C49     		ldr	r1, .L305+28
 2859 00be 2046     		mov	r0, r4
 2860 00c0 FFF7FEFF 		bl	FaultCommand_JsonGetUint
 2861              	.LVL242:
 898:App/Src/fault_command.c ****         (FaultCommand_JsonGetUint(json, "mv", &mv) != 0U))
ARM GAS  C:\Users\hh\AppData\Local\Temp\cc8MU7EM.s 			page 83


 2862              		.loc 1 898 8 discriminator 1 view .LVU536
 2863 00c4 10B9     		cbnz	r0, .L255
 869:App/Src/fault_command.c **** 
 2864              		.loc 1 869 21 view .LVU537
 2865 00c6 0123     		movs	r3, #1
 2866 00c8 1C46     		mov	r4, r3
 2867              	.LVL243:
 869:App/Src/fault_command.c **** 
 2868              		.loc 1 869 21 view .LVU538
 2869 00ca EDE7     		b	.L163
 2870              	.LVL244:
 2871              	.L255:
 899:App/Src/fault_command.c ****     {
 2872              		.loc 1 899 10 view .LVU539
 2873 00cc 0EAA     		add	r2, sp, #56
 2874 00ce 7B49     		ldr	r1, .L305+40
 2875 00d0 2046     		mov	r0, r4
 2876 00d2 FFF7FEFF 		bl	FaultCommand_JsonGetUint
 2877              	.LVL245:
 898:App/Src/fault_command.c ****         (FaultCommand_JsonGetUint(json, "mv", &mv) != 0U))
 2878              		.loc 1 898 63 discriminator 2 view .LVU540
 2879 00d6 10B9     		cbnz	r0, .L256
 869:App/Src/fault_command.c **** 
 2880              		.loc 1 869 21 view .LVU541
 2881 00d8 0123     		movs	r3, #1
 2882 00da 1C46     		mov	r4, r3
 2883              	.LVL246:
 869:App/Src/fault_command.c **** 
 2884              		.loc 1 869 21 view .LVU542
 2885 00dc E4E7     		b	.L163
 2886              	.LVL247:
 2887              	.L256:
 901:App/Src/fault_command.c ****     }
 2888              		.loc 1 901 7 is_stmt 1 view .LVU543
 901:App/Src/fault_command.c ****     }
 2889              		.loc 1 901 16 is_stmt 0 view .LVU544
 2890 00de BDF83810 		ldrh	r1, [sp, #56]
 2891 00e2 9DF83C00 		ldrb	r0, [sp, #60]	@ zero_extendqisi2
 2892 00e6 FFF7FEFF 		bl	FaultCommand_RunSet
 2893              	.LVL248:
 2894 00ea 0446     		mov	r4, r0
 2895              	.LVL249:
 901:App/Src/fault_command.c ****     }
 2896              		.loc 1 901 16 view .LVU545
 2897 00ec DCE7     		b	.L163
 2898              	.LVL250:
 2899              	.L254:
 908:App/Src/fault_command.c ****       duration = FaultCommand_JsonGetUintDefault(json, "duration_ms", FAULT_COMMAND_DEFAULT_DURATIO
 2900              		.loc 1 908 7 is_stmt 1 view .LVU546
 908:App/Src/fault_command.c ****       duration = FaultCommand_JsonGetUintDefault(json, "duration_ms", FAULT_COMMAND_DEFAULT_DURATIO
 2901              		.loc 1 908 12 is_stmt 0 view .LVU547
 2902 00ee 41F29412 		movw	r2, #4500
 2903 00f2 7249     		ldr	r1, .L305+40
 2904 00f4 2046     		mov	r0, r4
 2905 00f6 FFF7FEFF 		bl	FaultCommand_JsonGetUintDefault
 2906              	.LVL251:
 908:App/Src/fault_command.c ****       duration = FaultCommand_JsonGetUintDefault(json, "duration_ms", FAULT_COMMAND_DEFAULT_DURATIO
ARM GAS  C:\Users\hh\AppData\Local\Temp\cc8MU7EM.s 			page 84


 2907              		.loc 1 908 10 discriminator 1 view .LVU548
 2908 00fa 0E90     		str	r0, [sp, #56]
 909:App/Src/fault_command.c ****       slew = FaultCommand_JsonGetUintDefault(json, "slew_mv_per_ms", FAULT_COMMAND_DEFAULT_SLEW_MV_
 2909              		.loc 1 909 7 is_stmt 1 view .LVU549
 909:App/Src/fault_command.c ****       slew = FaultCommand_JsonGetUintDefault(json, "slew_mv_per_ms", FAULT_COMMAND_DEFAULT_SLEW_MV_
 2910              		.loc 1 909 18 is_stmt 0 view .LVU550
 2911 00fc 6422     		movs	r2, #100
 2912 00fe 7049     		ldr	r1, .L305+44
 2913 0100 2046     		mov	r0, r4
 2914 0102 FFF7FEFF 		bl	FaultCommand_JsonGetUintDefault
 2915              	.LVL252:
 2916 0106 0546     		mov	r5, r0
 2917              	.LVL253:
 910:App/Src/fault_command.c ****       status = FaultCommand_RunOverVoltage((uint8_t)cell, (uint16_t)mv, duration, (uint16_t)slew);
 2918              		.loc 1 910 7 is_stmt 1 view .LVU551
 910:App/Src/fault_command.c ****       status = FaultCommand_RunOverVoltage((uint8_t)cell, (uint16_t)mv, duration, (uint16_t)slew);
 2919              		.loc 1 910 14 is_stmt 0 view .LVU552
 2920 0108 40F6B832 		movw	r2, #3000
 2921 010c 6D49     		ldr	r1, .L305+48
 2922 010e 2046     		mov	r0, r4
 2923              	.LVL254:
 910:App/Src/fault_command.c ****       status = FaultCommand_RunOverVoltage((uint8_t)cell, (uint16_t)mv, duration, (uint16_t)slew);
 2924              		.loc 1 910 14 view .LVU553
 2925 0110 FFF7FEFF 		bl	FaultCommand_JsonGetUintDefault
 2926              	.LVL255:
 911:App/Src/fault_command.c ****     }
 2927              		.loc 1 911 7 is_stmt 1 view .LVU554
 911:App/Src/fault_command.c ****     }
 2928              		.loc 1 911 16 is_stmt 0 view .LVU555
 2929 0114 83B2     		uxth	r3, r0
 2930 0116 2A46     		mov	r2, r5
 2931 0118 BDF83810 		ldrh	r1, [sp, #56]
 2932 011c 9DF83C00 		ldrb	r0, [sp, #60]	@ zero_extendqisi2
 2933              	.LVL256:
 911:App/Src/fault_command.c ****     }
 2934              		.loc 1 911 16 view .LVU556
 2935 0120 FFF7FEFF 		bl	FaultCommand_RunOverVoltage
 2936              	.LVL257:
 2937 0124 0446     		mov	r4, r0
 2938              	.LVL258:
 911:App/Src/fault_command.c ****     }
 2939              		.loc 1 911 16 view .LVU557
 2940 0126 BFE7     		b	.L163
 2941              	.LVL259:
 2942              	.L166:
 914:App/Src/fault_command.c ****   {
 2943              		.loc 1 914 8 is_stmt 1 view .LVU558
 914:App/Src/fault_command.c ****   {
 2944              		.loc 1 914 13 is_stmt 0 view .LVU559
 2945 0128 6749     		ldr	r1, .L305+52
 2946 012a 14A8     		add	r0, sp, #80
 2947 012c FFF7FEFF 		bl	strcmp
 2948              	.LVL260:
 914:App/Src/fault_command.c ****   {
 2949              		.loc 1 914 11 discriminator 1 view .LVU560
 2950 0130 20B1     		cbz	r0, .L167
 914:App/Src/fault_command.c ****   {
ARM GAS  C:\Users\hh\AppData\Local\Temp\cc8MU7EM.s 			page 85


 2951              		.loc 1 914 41 discriminator 2 view .LVU561
 2952 0132 6649     		ldr	r1, .L305+56
 2953 0134 14A8     		add	r0, sp, #80
 2954 0136 FFF7FEFF 		bl	strcmp
 2955              	.LVL261:
 914:App/Src/fault_command.c ****   {
 2956              		.loc 1 914 37 discriminator 3 view .LVU562
 2957 013a 28BB     		cbnz	r0, .L168
 2958              	.L167:
 916:App/Src/fault_command.c ****     {
 2959              		.loc 1 916 5 is_stmt 1 view .LVU563
 916:App/Src/fault_command.c ****     {
 2960              		.loc 1 916 9 is_stmt 0 view .LVU564
 2961 013c 0FAA     		add	r2, sp, #60
 2962 013e 5C49     		ldr	r1, .L305+28
 2963 0140 2046     		mov	r0, r4
 2964 0142 FFF7FEFF 		bl	FaultCommand_JsonGetUint
 2965              	.LVL262:
 916:App/Src/fault_command.c ****     {
 2966              		.loc 1 916 8 discriminator 1 view .LVU565
 2967 0146 10B9     		cbnz	r0, .L257
 869:App/Src/fault_command.c **** 
 2968              		.loc 1 869 21 view .LVU566
 2969 0148 0123     		movs	r3, #1
 2970 014a 1C46     		mov	r4, r3
 2971              	.LVL263:
 869:App/Src/fault_command.c **** 
 2972              		.loc 1 869 21 view .LVU567
 2973 014c ACE7     		b	.L163
 2974              	.LVL264:
 2975              	.L257:
 918:App/Src/fault_command.c ****       duration = FaultCommand_JsonGetUintDefault(json, "duration_ms", FAULT_COMMAND_DEFAULT_DURATIO
 2976              		.loc 1 918 7 is_stmt 1 view .LVU568
 918:App/Src/fault_command.c ****       duration = FaultCommand_JsonGetUintDefault(json, "duration_ms", FAULT_COMMAND_DEFAULT_DURATIO
 2977              		.loc 1 918 12 is_stmt 0 view .LVU569
 2978 014e 4FF47A72 		mov	r2, #1000
 2979 0152 5A49     		ldr	r1, .L305+40
 2980 0154 2046     		mov	r0, r4
 2981 0156 FFF7FEFF 		bl	FaultCommand_JsonGetUintDefault
 2982              	.LVL265:
 918:App/Src/fault_command.c ****       duration = FaultCommand_JsonGetUintDefault(json, "duration_ms", FAULT_COMMAND_DEFAULT_DURATIO
 2983              		.loc 1 918 10 discriminator 1 view .LVU570
 2984 015a 0E90     		str	r0, [sp, #56]
 919:App/Src/fault_command.c ****       slew = FaultCommand_JsonGetUintDefault(json, "slew_mv_per_ms", FAULT_COMMAND_DEFAULT_SLEW_MV_
 2985              		.loc 1 919 7 is_stmt 1 view .LVU571
 919:App/Src/fault_command.c ****       slew = FaultCommand_JsonGetUintDefault(json, "slew_mv_per_ms", FAULT_COMMAND_DEFAULT_SLEW_MV_
 2986              		.loc 1 919 18 is_stmt 0 view .LVU572
 2987 015c 6422     		movs	r2, #100
 2988 015e 5849     		ldr	r1, .L305+44
 2989 0160 2046     		mov	r0, r4
 2990 0162 FFF7FEFF 		bl	FaultCommand_JsonGetUintDefault
 2991              	.LVL266:
 2992 0166 0546     		mov	r5, r0
 2993              	.LVL267:
 920:App/Src/fault_command.c ****       status = FaultCommand_RunUnderVoltage((uint8_t)cell, (uint16_t)mv, duration, (uint16_t)slew);
 2994              		.loc 1 920 7 is_stmt 1 view .LVU573
 920:App/Src/fault_command.c ****       status = FaultCommand_RunUnderVoltage((uint8_t)cell, (uint16_t)mv, duration, (uint16_t)slew);
ARM GAS  C:\Users\hh\AppData\Local\Temp\cc8MU7EM.s 			page 86


 2995              		.loc 1 920 14 is_stmt 0 view .LVU574
 2996 0168 40F6B832 		movw	r2, #3000
 2997 016c 5549     		ldr	r1, .L305+48
 2998 016e 2046     		mov	r0, r4
 2999              	.LVL268:
 920:App/Src/fault_command.c ****       status = FaultCommand_RunUnderVoltage((uint8_t)cell, (uint16_t)mv, duration, (uint16_t)slew);
 3000              		.loc 1 920 14 view .LVU575
 3001 0170 FFF7FEFF 		bl	FaultCommand_JsonGetUintDefault
 3002              	.LVL269:
 921:App/Src/fault_command.c ****     }
 3003              		.loc 1 921 7 is_stmt 1 view .LVU576
 921:App/Src/fault_command.c ****     }
 3004              		.loc 1 921 16 is_stmt 0 view .LVU577
 3005 0174 83B2     		uxth	r3, r0
 3006 0176 2A46     		mov	r2, r5
 3007 0178 BDF83810 		ldrh	r1, [sp, #56]
 3008 017c 9DF83C00 		ldrb	r0, [sp, #60]	@ zero_extendqisi2
 3009              	.LVL270:
 921:App/Src/fault_command.c ****     }
 3010              		.loc 1 921 16 view .LVU578
 3011 0180 FFF7FEFF 		bl	FaultCommand_RunUnderVoltage
 3012              	.LVL271:
 3013 0184 0446     		mov	r4, r0
 3014              	.LVL272:
 921:App/Src/fault_command.c ****     }
 3015              		.loc 1 921 16 view .LVU579
 3016 0186 8FE7     		b	.L163
 3017              	.LVL273:
 3018              	.L168:
 924:App/Src/fault_command.c ****   {
 3019              		.loc 1 924 8 is_stmt 1 view .LVU580
 924:App/Src/fault_command.c ****   {
 3020              		.loc 1 924 12 is_stmt 0 view .LVU581
 3021 0188 5149     		ldr	r1, .L305+60
 3022 018a 14A8     		add	r0, sp, #80
 3023 018c FFF7FEFF 		bl	strcmp
 3024              	.LVL274:
 924:App/Src/fault_command.c ****   {
 3025              		.loc 1 924 11 discriminator 1 view .LVU582
 3026 0190 0028     		cmp	r0, #0
 3027 0192 40D0     		beq	.L258
 946:App/Src/fault_command.c ****   {
 3028              		.loc 1 946 8 is_stmt 1 view .LVU583
 946:App/Src/fault_command.c ****   {
 3029              		.loc 1 946 12 is_stmt 0 view .LVU584
 3030 0194 4F49     		ldr	r1, .L305+64
 3031 0196 14A8     		add	r0, sp, #80
 3032 0198 FFF7FEFF 		bl	strcmp
 3033              	.LVL275:
 946:App/Src/fault_command.c ****   {
 3034              		.loc 1 946 11 discriminator 1 view .LVU585
 3035 019c 0028     		cmp	r0, #0
 3036 019e 00F0AF80 		beq	.L259
1006:App/Src/fault_command.c ****   {
 3037              		.loc 1 1006 8 is_stmt 1 view .LVU586
1006:App/Src/fault_command.c ****   {
 3038              		.loc 1 1006 12 is_stmt 0 view .LVU587
ARM GAS  C:\Users\hh\AppData\Local\Temp\cc8MU7EM.s 			page 87


 3039 01a2 4D49     		ldr	r1, .L305+68
 3040 01a4 14A8     		add	r0, sp, #80
 3041 01a6 FFF7FEFF 		bl	strcmp
 3042              	.LVL276:
1006:App/Src/fault_command.c ****   {
 3043              		.loc 1 1006 11 discriminator 1 view .LVU588
 3044 01aa 0028     		cmp	r0, #0
 3045 01ac 00F04981 		beq	.L260
1011:App/Src/fault_command.c ****   {
 3046              		.loc 1 1011 8 is_stmt 1 view .LVU589
1011:App/Src/fault_command.c ****   {
 3047              		.loc 1 1011 12 is_stmt 0 view .LVU590
 3048 01b0 4A49     		ldr	r1, .L305+72
 3049 01b2 14A8     		add	r0, sp, #80
 3050 01b4 FFF7FEFF 		bl	strcmp
 3051              	.LVL277:
1011:App/Src/fault_command.c ****   {
 3052              		.loc 1 1011 11 discriminator 1 view .LVU591
 3053 01b8 0028     		cmp	r0, #0
 3054 01ba 00F04781 		beq	.L261
1071:App/Src/fault_command.c ****   {
 3055              		.loc 1 1071 8 is_stmt 1 view .LVU592
1071:App/Src/fault_command.c ****   {
 3056              		.loc 1 1071 12 is_stmt 0 view .LVU593
 3057 01be 4849     		ldr	r1, .L305+76
 3058 01c0 14A8     		add	r0, sp, #80
 3059 01c2 FFF7FEFF 		bl	strcmp
 3060              	.LVL278:
1071:App/Src/fault_command.c ****   {
 3061              		.loc 1 1071 11 discriminator 1 view .LVU594
 3062 01c6 0028     		cmp	r0, #0
 3063 01c8 00F00A82 		beq	.L262
1101:App/Src/fault_command.c ****   {
 3064              		.loc 1 1101 8 is_stmt 1 view .LVU595
1101:App/Src/fault_command.c ****   {
 3065              		.loc 1 1101 12 is_stmt 0 view .LVU596
 3066 01cc 4549     		ldr	r1, .L305+80
 3067 01ce 14A8     		add	r0, sp, #80
 3068 01d0 FFF7FEFF 		bl	strcmp
 3069              	.LVL279:
1101:App/Src/fault_command.c ****   {
 3070              		.loc 1 1101 11 discriminator 1 view .LVU597
 3071 01d4 0028     		cmp	r0, #0
 3072 01d6 00F05482 		beq	.L263
1148:App/Src/fault_command.c ****   {
 3073              		.loc 1 1148 8 is_stmt 1 view .LVU598
1148:App/Src/fault_command.c ****   {
 3074              		.loc 1 1148 12 is_stmt 0 view .LVU599
 3075 01da 4349     		ldr	r1, .L305+84
 3076 01dc 14A8     		add	r0, sp, #80
 3077 01de FFF7FEFF 		bl	strcmp
 3078              	.LVL280:
1148:App/Src/fault_command.c ****   {
 3079              		.loc 1 1148 11 discriminator 1 view .LVU600
 3080 01e2 0028     		cmp	r0, #0
 3081 01e4 00F0B782 		beq	.L264
1166:App/Src/fault_command.c ****   {
ARM GAS  C:\Users\hh\AppData\Local\Temp\cc8MU7EM.s 			page 88


 3082              		.loc 1 1166 8 is_stmt 1 view .LVU601
1166:App/Src/fault_command.c ****   {
 3083              		.loc 1 1166 12 is_stmt 0 view .LVU602
 3084 01e8 4049     		ldr	r1, .L305+88
 3085 01ea 14A8     		add	r0, sp, #80
 3086 01ec FFF7FEFF 		bl	strcmp
 3087              	.LVL281:
1166:App/Src/fault_command.c ****   {
 3088              		.loc 1 1166 11 discriminator 1 view .LVU603
 3089 01f0 0028     		cmp	r0, #0
 3090 01f2 40F0D582 		bne	.L205
1168:App/Src/fault_command.c ****     if (FaultCommand_JsonGetUint(json, "cell", &cell) != 0U)
 3091              		.loc 1 1168 5 is_stmt 1 view .LVU604
 3092 01f6 FFF7FEFF 		bl	WaveformGen_Stop
 3093              	.LVL282:
1169:App/Src/fault_command.c ****     {
 3094              		.loc 1 1169 5 view .LVU605
1169:App/Src/fault_command.c ****     {
 3095              		.loc 1 1169 9 is_stmt 0 view .LVU606
 3096 01fa 0FAA     		add	r2, sp, #60
 3097 01fc 2C49     		ldr	r1, .L305+28
 3098 01fe 2046     		mov	r0, r4
 3099 0200 FFF7FEFF 		bl	FaultCommand_JsonGetUint
 3100              	.LVL283:
1169:App/Src/fault_command.c ****     {
 3101              		.loc 1 1169 8 discriminator 1 view .LVU607
 3102 0204 0028     		cmp	r0, #0
 3103 0206 00F0C782 		beq	.L206
1171:App/Src/fault_command.c ****     }
 3104              		.loc 1 1171 7 is_stmt 1 view .LVU608
1171:App/Src/fault_command.c ****     }
 3105              		.loc 1 1171 16 is_stmt 0 view .LVU609
 3106 020a 9DF83C00 		ldrb	r0, [sp, #60]	@ zero_extendqisi2
 3107 020e FFF7FEFF 		bl	VoltageSim_ClearCellFault
 3108              	.LVL284:
 3109 0212 0446     		mov	r4, r0
 3110              	.LVL285:
1171:App/Src/fault_command.c ****     }
 3111              		.loc 1 1171 16 view .LVU610
 3112 0214 48E7     		b	.L163
 3113              	.LVL286:
 3114              	.L258:
 3115              	.LBB13:
 926:App/Src/fault_command.c ****     uint32_t highMv;
 3116              		.loc 1 926 5 is_stmt 1 view .LVU611
 927:App/Src/fault_command.c ****     uint32_t lowCell;
 3117              		.loc 1 927 5 view .LVU612
 928:App/Src/fault_command.c ****     uint32_t lowMv;
 3118              		.loc 1 928 5 view .LVU613
 929:App/Src/fault_command.c **** 
 3119              		.loc 1 929 5 view .LVU614
 931:App/Src/fault_command.c ****         (FaultCommand_JsonGetUint(json, "high_mv", &highMv) != 0U) &&
 3120              		.loc 1 931 5 view .LVU615
 931:App/Src/fault_command.c ****         (FaultCommand_JsonGetUint(json, "high_mv", &highMv) != 0U) &&
 3121              		.loc 1 931 10 is_stmt 0 view .LVU616
 3122 0216 05AA     		add	r2, sp, #20
 3123 0218 3549     		ldr	r1, .L305+92
ARM GAS  C:\Users\hh\AppData\Local\Temp\cc8MU7EM.s 			page 89


 3124 021a 2046     		mov	r0, r4
 3125 021c FFF7FEFF 		bl	FaultCommand_JsonGetUint
 3126              	.LVL287:
 931:App/Src/fault_command.c ****         (FaultCommand_JsonGetUint(json, "high_mv", &highMv) != 0U) &&
 3127              		.loc 1 931 8 discriminator 1 view .LVU617
 3128 0220 10B9     		cbnz	r0, .L265
 3129              	.LBE13:
 869:App/Src/fault_command.c **** 
 3130              		.loc 1 869 21 view .LVU618
 3131 0222 0123     		movs	r3, #1
 3132 0224 1C46     		mov	r4, r3
 3133              	.LVL288:
 869:App/Src/fault_command.c **** 
 3134              		.loc 1 869 21 view .LVU619
 3135 0226 3FE7     		b	.L163
 3136              	.LVL289:
 3137              	.L265:
 3138              	.LBB14:
 932:App/Src/fault_command.c ****         (FaultCommand_JsonGetUint(json, "low_cell", &lowCell) != 0U) &&
 3139              		.loc 1 932 10 view .LVU620
 3140 0228 06AA     		add	r2, sp, #24
 3141 022a 3249     		ldr	r1, .L305+96
 3142 022c 2046     		mov	r0, r4
 3143 022e FFF7FEFF 		bl	FaultCommand_JsonGetUint
 3144              	.LVL290:
 931:App/Src/fault_command.c ****         (FaultCommand_JsonGetUint(json, "high_mv", &highMv) != 0U) &&
 3145              		.loc 1 931 72 discriminator 2 view .LVU621
 3146 0232 10B9     		cbnz	r0, .L266
 3147              	.LBE14:
 869:App/Src/fault_command.c **** 
 3148              		.loc 1 869 21 view .LVU622
 3149 0234 0123     		movs	r3, #1
 3150 0236 1C46     		mov	r4, r3
 3151              	.LVL291:
 869:App/Src/fault_command.c **** 
 3152              		.loc 1 869 21 view .LVU623
 3153 0238 36E7     		b	.L163
 3154              	.LVL292:
 3155              	.L266:
 3156              	.LBB15:
 933:App/Src/fault_command.c ****         (FaultCommand_JsonGetUint(json, "low_mv", &lowMv) != 0U))
 3157              		.loc 1 933 10 view .LVU624
 3158 023a 08AA     		add	r2, sp, #32
 3159 023c 2E49     		ldr	r1, .L305+100
 3160 023e 2046     		mov	r0, r4
 3161 0240 FFF7FEFF 		bl	FaultCommand_JsonGetUint
 3162              	.LVL293:
 932:App/Src/fault_command.c ****         (FaultCommand_JsonGetUint(json, "low_cell", &lowCell) != 0U) &&
 3163              		.loc 1 932 68 view .LVU625
 3164 0244 10B9     		cbnz	r0, .L267
 3165              	.LBE15:
 869:App/Src/fault_command.c **** 
 3166              		.loc 1 869 21 view .LVU626
 3167 0246 0123     		movs	r3, #1
 3168 0248 1C46     		mov	r4, r3
 3169              	.LVL294:
 869:App/Src/fault_command.c **** 
ARM GAS  C:\Users\hh\AppData\Local\Temp\cc8MU7EM.s 			page 90


 3170              		.loc 1 869 21 view .LVU627
 3171 024a 2DE7     		b	.L163
 3172              	.LVL295:
 3173              	.L267:
 3174              	.LBB16:
 934:App/Src/fault_command.c ****     {
 3175              		.loc 1 934 10 view .LVU628
 3176 024c 0AAA     		add	r2, sp, #40
 3177 024e 2B49     		ldr	r1, .L305+104
 3178 0250 2046     		mov	r0, r4
 3179 0252 FFF7FEFF 		bl	FaultCommand_JsonGetUint
 3180              	.LVL296:
 933:App/Src/fault_command.c ****         (FaultCommand_JsonGetUint(json, "low_mv", &lowMv) != 0U))
 3181              		.loc 1 933 70 view .LVU629
 3182 0256 10B9     		cbnz	r0, .L268
 3183              	.LBE16:
 869:App/Src/fault_command.c **** 
 3184              		.loc 1 869 21 view .LVU630
 3185 0258 0123     		movs	r3, #1
 3186 025a 1C46     		mov	r4, r3
 3187              	.LVL297:
 869:App/Src/fault_command.c **** 
 3188              		.loc 1 869 21 view .LVU631
 3189 025c 24E7     		b	.L163
 3190              	.LVL298:
 3191              	.L268:
 3192              	.LBB17:
 936:App/Src/fault_command.c ****       slew = FaultCommand_JsonGetUintDefault(json, "slew_mv_per_ms", FAULT_COMMAND_DEFAULT_SLEW_MV_
 3193              		.loc 1 936 7 is_stmt 1 view .LVU632
 936:App/Src/fault_command.c ****       slew = FaultCommand_JsonGetUintDefault(json, "slew_mv_per_ms", FAULT_COMMAND_DEFAULT_SLEW_MV_
 3194              		.loc 1 936 18 is_stmt 0 view .LVU633
 3195 025e 6422     		movs	r2, #100
 3196 0260 1749     		ldr	r1, .L305+44
 3197 0262 2046     		mov	r0, r4
 3198 0264 FFF7FEFF 		bl	FaultCommand_JsonGetUintDefault
 3199              	.LVL299:
 3200 0268 0546     		mov	r5, r0
 3201              	.LVL300:
 937:App/Src/fault_command.c ****       status = FaultCommand_RunDiff((uint8_t)highCell,
 3202              		.loc 1 937 7 is_stmt 1 view .LVU634
 937:App/Src/fault_command.c ****       status = FaultCommand_RunDiff((uint8_t)highCell,
 3203              		.loc 1 937 14 is_stmt 0 view .LVU635
 3204 026a 40F6B832 		movw	r2, #3000
 3205 026e 1549     		ldr	r1, .L305+48
 3206 0270 2046     		mov	r0, r4
 3207              	.LVL301:
 937:App/Src/fault_command.c ****       status = FaultCommand_RunDiff((uint8_t)highCell,
 3208              		.loc 1 937 14 view .LVU636
 3209 0272 FFF7FEFF 		bl	FaultCommand_JsonGetUintDefault
 3210              	.LVL302:
 938:App/Src/fault_command.c ****                                     (uint16_t)highMv,
 3211              		.loc 1 938 7 is_stmt 1 view .LVU637
 938:App/Src/fault_command.c ****                                     (uint16_t)highMv,
 3212              		.loc 1 938 16 is_stmt 0 view .LVU638
 3213 0276 80B2     		uxth	r0, r0
 3214              	.LVL303:
 938:App/Src/fault_command.c ****                                     (uint16_t)highMv,
ARM GAS  C:\Users\hh\AppData\Local\Temp\cc8MU7EM.s 			page 91


 3215              		.loc 1 938 16 view .LVU639
 3216 0278 0190     		str	r0, [sp, #4]
 3217 027a 0095     		str	r5, [sp]
 3218 027c BDF82830 		ldrh	r3, [sp, #40]
 3219 0280 9DF82020 		ldrb	r2, [sp, #32]	@ zero_extendqisi2
 3220 0284 BDF81810 		ldrh	r1, [sp, #24]
 3221 0288 9DF81400 		ldrb	r0, [sp, #20]	@ zero_extendqisi2
 3222 028c FFF7FEFF 		bl	FaultCommand_RunDiff
 3223              	.LVL304:
 3224 0290 0446     		mov	r4, r0
 3225              	.LVL305:
 938:App/Src/fault_command.c ****                                     (uint16_t)highMv,
 3226              		.loc 1 938 16 view .LVU640
 3227 0292 09E7     		b	.L163
 3228              	.L306:
 3229              		.align	2
 3230              	.L305:
 3231 0294 00000000 		.word	.LC54
 3232 0298 2C000000 		.word	.LC56
 3233 029c 34000000 		.word	.LC57
 3234 02a0 B4000000 		.word	.LC59
 3235 02a4 C0000000 		.word	.LC61
 3236 02a8 CC000000 		.word	.LC63
 3237 02ac D0000000 		.word	.LC64
 3238 02b0 C4000000 		.word	.LC62
 3239 02b4 04000000 		.word	.LC55
 3240 02b8 3C000000 		.word	.LC58
 3241 02bc BC000000 		.word	.LC60
 3242 02c0 E0000000 		.word	.LC65
 3243 02c4 EC000000 		.word	.LC66
 3244 02c8 FC000000 		.word	.LC67
 3245 02cc 00010000 		.word	.LC68
 3246 02d0 10010000 		.word	.LC69
 3247 02d4 40010000 		.word	.LC74
 3248 02d8 9C010000 		.word	.LC83
 3249 02dc A8010000 		.word	.LC84
 3250 02e0 18020000 		.word	.LC92
 3251 02e4 30020000 		.word	.LC95
 3252 02e8 54020000 		.word	.LC101
 3253 02ec 10020000 		.word	.LC91
 3254 02f0 18010000 		.word	.LC70
 3255 02f4 24010000 		.word	.LC71
 3256 02f8 2C010000 		.word	.LC72
 3257 02fc 38010000 		.word	.LC73
 3258              	.LVL306:
 3259              	.L259:
 938:App/Src/fault_command.c ****                                     (uint16_t)highMv,
 3260              		.loc 1 938 16 view .LVU641
 3261              	.LBE17:
 948:App/Src/fault_command.c ****     {
 3262              		.loc 1 948 5 is_stmt 1 view .LVU642
 948:App/Src/fault_command.c ****     {
 3263              		.loc 1 948 9 is_stmt 0 view .LVU643
 3264 0300 1023     		movs	r3, #16
 3265 0302 10AA     		add	r2, sp, #64
 3266 0304 9F49     		ldr	r1, .L307
 3267 0306 2046     		mov	r0, r4
ARM GAS  C:\Users\hh\AppData\Local\Temp\cc8MU7EM.s 			page 92


 3268 0308 FFF7FEFF 		bl	FaultCommand_JsonGetString
 3269              	.LVL307:
 948:App/Src/fault_command.c ****     {
 3270              		.loc 1 948 8 discriminator 1 view .LVU644
 3271 030c 0028     		cmp	r0, #0
 3272 030e 00F04D82 		beq	.L216
 950:App/Src/fault_command.c ****       {
 3273              		.loc 1 950 7 is_stmt 1 view .LVU645
 950:App/Src/fault_command.c ****       {
 3274              		.loc 1 950 11 is_stmt 0 view .LVU646
 3275 0312 9D49     		ldr	r1, .L307+4
 3276 0314 10A8     		add	r0, sp, #64
 3277 0316 FFF7FEFF 		bl	strcmp
 3278              	.LVL308:
 950:App/Src/fault_command.c ****       {
 3279              		.loc 1 950 10 discriminator 1 view .LVU647
 3280 031a A0B1     		cbz	r0, .L269
 967:App/Src/fault_command.c ****       {
 3281              		.loc 1 967 12 is_stmt 1 view .LVU648
 967:App/Src/fault_command.c ****       {
 3282              		.loc 1 967 16 is_stmt 0 view .LVU649
 3283 031c 9B49     		ldr	r1, .L307+8
 3284 031e 10A8     		add	r0, sp, #64
 3285 0320 FFF7FEFF 		bl	strcmp
 3286              	.LVL309:
 967:App/Src/fault_command.c ****       {
 3287              		.loc 1 967 15 discriminator 1 view .LVU650
 3288 0324 0028     		cmp	r0, #0
 3289 0326 3AD0     		beq	.L270
 984:App/Src/fault_command.c ****       {
 3290              		.loc 1 984 12 is_stmt 1 view .LVU651
 984:App/Src/fault_command.c ****       {
 3291              		.loc 1 984 16 is_stmt 0 view .LVU652
 3292 0328 9949     		ldr	r1, .L307+12
 3293 032a 10A8     		add	r0, sp, #64
 3294 032c FFF7FEFF 		bl	strcmp
 3295              	.LVL310:
 984:App/Src/fault_command.c ****       {
 3296              		.loc 1 984 15 discriminator 1 view .LVU653
 3297 0330 0028     		cmp	r0, #0
 3298 0332 60D0     		beq	.L271
 999:App/Src/fault_command.c ****       {
 3299              		.loc 1 999 12 is_stmt 1 view .LVU654
 999:App/Src/fault_command.c ****       {
 3300              		.loc 1 999 16 is_stmt 0 view .LVU655
 3301 0334 9749     		ldr	r1, .L307+16
 3302 0336 10A8     		add	r0, sp, #64
 3303 0338 FFF7FEFF 		bl	strcmp
 3304              	.LVL311:
 999:App/Src/fault_command.c ****       {
 3305              		.loc 1 999 15 discriminator 1 view .LVU656
 3306 033c 0028     		cmp	r0, #0
 3307 033e 7BD0     		beq	.L272
 869:App/Src/fault_command.c **** 
 3308              		.loc 1 869 21 view .LVU657
 3309 0340 0123     		movs	r3, #1
 3310 0342 1C46     		mov	r4, r3
ARM GAS  C:\Users\hh\AppData\Local\Temp\cc8MU7EM.s 			page 93


 3311              	.LVL312:
 869:App/Src/fault_command.c **** 
 3312              		.loc 1 869 21 view .LVU658
 3313 0344 B0E6     		b	.L163
 3314              	.LVL313:
 3315              	.L269:
 3316              	.LBB18:
 952:App/Src/fault_command.c ****         uint32_t high;
 3317              		.loc 1 952 9 is_stmt 1 view .LVU659
 953:App/Src/fault_command.c ****         uint32_t period;
 3318              		.loc 1 953 9 view .LVU660
 954:App/Src/fault_command.c **** 
 3319              		.loc 1 954 9 view .LVU661
 956:App/Src/fault_command.c ****             (FaultCommand_JsonGetUint(json, "low_mv", &low) != 0U) &&
 3320              		.loc 1 956 9 view .LVU662
 956:App/Src/fault_command.c ****             (FaultCommand_JsonGetUint(json, "low_mv", &low) != 0U) &&
 3321              		.loc 1 956 14 is_stmt 0 view .LVU663
 3322 0346 0FAA     		add	r2, sp, #60
 3323 0348 9349     		ldr	r1, .L307+20
 3324 034a 2046     		mov	r0, r4
 3325 034c FFF7FEFF 		bl	FaultCommand_JsonGetUint
 3326              	.LVL314:
 956:App/Src/fault_command.c ****             (FaultCommand_JsonGetUint(json, "low_mv", &low) != 0U) &&
 3327              		.loc 1 956 12 discriminator 1 view .LVU664
 3328 0350 10B9     		cbnz	r0, .L273
 3329              	.LBE18:
 869:App/Src/fault_command.c **** 
 3330              		.loc 1 869 21 view .LVU665
 3331 0352 0123     		movs	r3, #1
 3332 0354 1C46     		mov	r4, r3
 3333              	.LVL315:
 869:App/Src/fault_command.c **** 
 3334              		.loc 1 869 21 view .LVU666
 3335 0356 A7E6     		b	.L163
 3336              	.LVL316:
 3337              	.L273:
 3338              	.LBB19:
 957:App/Src/fault_command.c ****             (FaultCommand_JsonGetUint(json, "high_mv", &high) != 0U))
 3339              		.loc 1 957 14 view .LVU667
 3340 0358 08AA     		add	r2, sp, #32
 3341 035a 9049     		ldr	r1, .L307+24
 3342 035c 2046     		mov	r0, r4
 3343 035e FFF7FEFF 		bl	FaultCommand_JsonGetUint
 3344              	.LVL317:
 956:App/Src/fault_command.c ****             (FaultCommand_JsonGetUint(json, "low_mv", &low) != 0U) &&
 3345              		.loc 1 956 67 discriminator 2 view .LVU668
 3346 0362 10B9     		cbnz	r0, .L274
 3347              	.LBE19:
 869:App/Src/fault_command.c **** 
 3348              		.loc 1 869 21 view .LVU669
 3349 0364 0123     		movs	r3, #1
 3350 0366 1C46     		mov	r4, r3
 3351              	.LVL318:
 869:App/Src/fault_command.c **** 
 3352              		.loc 1 869 21 view .LVU670
 3353 0368 9EE6     		b	.L163
 3354              	.LVL319:
ARM GAS  C:\Users\hh\AppData\Local\Temp\cc8MU7EM.s 			page 94


 3355              	.L274:
 3356              	.LBB20:
 958:App/Src/fault_command.c ****         {
 3357              		.loc 1 958 14 view .LVU671
 3358 036a 0AAA     		add	r2, sp, #40
 3359 036c 8C49     		ldr	r1, .L307+28
 3360 036e 2046     		mov	r0, r4
 3361 0370 FFF7FEFF 		bl	FaultCommand_JsonGetUint
 3362              	.LVL320:
 957:App/Src/fault_command.c ****             (FaultCommand_JsonGetUint(json, "high_mv", &high) != 0U))
 3363              		.loc 1 957 68 view .LVU672
 3364 0374 10B9     		cbnz	r0, .L275
 3365              	.LBE20:
 869:App/Src/fault_command.c **** 
 3366              		.loc 1 869 21 view .LVU673
 3367 0376 0123     		movs	r3, #1
 3368 0378 1C46     		mov	r4, r3
 3369              	.LVL321:
 869:App/Src/fault_command.c **** 
 3370              		.loc 1 869 21 view .LVU674
 3371 037a 95E6     		b	.L163
 3372              	.LVL322:
 3373              	.L275:
 3374              	.LBB21:
 960:App/Src/fault_command.c ****           status = WaveformGen_StartSquare((uint8_t)cell,
 3375              		.loc 1 960 11 is_stmt 1 view .LVU675
 960:App/Src/fault_command.c ****           status = WaveformGen_StartSquare((uint8_t)cell,
 3376              		.loc 1 960 20 is_stmt 0 view .LVU676
 3377 037c 4FF47A72 		mov	r2, #1000
 3378 0380 8849     		ldr	r1, .L307+32
 3379 0382 2046     		mov	r0, r4
 3380 0384 FFF7FEFF 		bl	FaultCommand_JsonGetUintDefault
 3381              	.LVL323:
 3382 0388 0346     		mov	r3, r0
 3383              	.LVL324:
 961:App/Src/fault_command.c ****                                            (uint16_t)low,
 3384              		.loc 1 961 11 is_stmt 1 view .LVU677
 961:App/Src/fault_command.c ****                                            (uint16_t)low,
 3385              		.loc 1 961 20 is_stmt 0 view .LVU678
 3386 038a BDF82820 		ldrh	r2, [sp, #40]
 3387 038e BDF82010 		ldrh	r1, [sp, #32]
 3388 0392 9DF83C00 		ldrb	r0, [sp, #60]	@ zero_extendqisi2
 3389              	.LVL325:
 961:App/Src/fault_command.c ****                                            (uint16_t)low,
 3390              		.loc 1 961 20 view .LVU679
 3391 0396 FFF7FEFF 		bl	WaveformGen_StartSquare
 3392              	.LVL326:
 961:App/Src/fault_command.c ****                                            (uint16_t)low,
 3393              		.loc 1 961 20 view .LVU680
 3394 039a 0446     		mov	r4, r0
 3395              	.LVL327:
 961:App/Src/fault_command.c ****                                            (uint16_t)low,
 3396              		.loc 1 961 20 view .LVU681
 3397 039c 84E6     		b	.L163
 3398              	.LVL328:
 3399              	.L270:
 961:App/Src/fault_command.c ****                                            (uint16_t)low,
ARM GAS  C:\Users\hh\AppData\Local\Temp\cc8MU7EM.s 			page 95


 3400              		.loc 1 961 20 view .LVU682
 3401              	.LBE21:
 3402              	.LBB22:
 969:App/Src/fault_command.c ****         uint32_t amplitude;
 3403              		.loc 1 969 9 is_stmt 1 view .LVU683
 970:App/Src/fault_command.c ****         uint32_t period;
 3404              		.loc 1 970 9 view .LVU684
 971:App/Src/fault_command.c **** 
 3405              		.loc 1 971 9 view .LVU685
 973:App/Src/fault_command.c ****             (FaultCommand_JsonGetUint(json, "offset_mv", &offset) != 0U) &&
 3406              		.loc 1 973 9 view .LVU686
 973:App/Src/fault_command.c ****             (FaultCommand_JsonGetUint(json, "offset_mv", &offset) != 0U) &&
 3407              		.loc 1 973 14 is_stmt 0 view .LVU687
 3408 039e 0FAA     		add	r2, sp, #60
 3409 03a0 7D49     		ldr	r1, .L307+20
 3410 03a2 2046     		mov	r0, r4
 3411 03a4 FFF7FEFF 		bl	FaultCommand_JsonGetUint
 3412              	.LVL329:
 973:App/Src/fault_command.c ****             (FaultCommand_JsonGetUint(json, "offset_mv", &offset) != 0U) &&
 3413              		.loc 1 973 12 discriminator 1 view .LVU688
 3414 03a8 10B9     		cbnz	r0, .L276
 3415              	.LBE22:
 869:App/Src/fault_command.c **** 
 3416              		.loc 1 869 21 view .LVU689
 3417 03aa 0123     		movs	r3, #1
 3418 03ac 1C46     		mov	r4, r3
 3419              	.LVL330:
 869:App/Src/fault_command.c **** 
 3420              		.loc 1 869 21 view .LVU690
 3421 03ae 7BE6     		b	.L163
 3422              	.LVL331:
 3423              	.L276:
 3424              	.LBB23:
 974:App/Src/fault_command.c ****             (FaultCommand_JsonGetUint(json, "amplitude_mv", &amplitude) != 0U))
 3425              		.loc 1 974 14 view .LVU691
 3426 03b0 08AA     		add	r2, sp, #32
 3427 03b2 7D49     		ldr	r1, .L307+36
 3428 03b4 2046     		mov	r0, r4
 3429 03b6 FFF7FEFF 		bl	FaultCommand_JsonGetUint
 3430              	.LVL332:
 973:App/Src/fault_command.c ****             (FaultCommand_JsonGetUint(json, "offset_mv", &offset) != 0U) &&
 3431              		.loc 1 973 67 discriminator 2 view .LVU692
 3432 03ba 10B9     		cbnz	r0, .L277
 3433              	.LBE23:
 869:App/Src/fault_command.c **** 
 3434              		.loc 1 869 21 view .LVU693
 3435 03bc 0123     		movs	r3, #1
 3436 03be 1C46     		mov	r4, r3
 3437              	.LVL333:
 869:App/Src/fault_command.c **** 
 3438              		.loc 1 869 21 view .LVU694
 3439 03c0 72E6     		b	.L163
 3440              	.LVL334:
 3441              	.L277:
 3442              	.LBB24:
 975:App/Src/fault_command.c ****         {
 3443              		.loc 1 975 14 view .LVU695
ARM GAS  C:\Users\hh\AppData\Local\Temp\cc8MU7EM.s 			page 96


 3444 03c2 0AAA     		add	r2, sp, #40
 3445 03c4 7949     		ldr	r1, .L307+40
 3446 03c6 2046     		mov	r0, r4
 3447 03c8 FFF7FEFF 		bl	FaultCommand_JsonGetUint
 3448              	.LVL335:
 974:App/Src/fault_command.c ****             (FaultCommand_JsonGetUint(json, "amplitude_mv", &amplitude) != 0U))
 3449              		.loc 1 974 74 view .LVU696
 3450 03cc 10B9     		cbnz	r0, .L278
 3451              	.LBE24:
 869:App/Src/fault_command.c **** 
 3452              		.loc 1 869 21 view .LVU697
 3453 03ce 0123     		movs	r3, #1
 3454 03d0 1C46     		mov	r4, r3
 3455              	.LVL336:
 869:App/Src/fault_command.c **** 
 3456              		.loc 1 869 21 view .LVU698
 3457 03d2 69E6     		b	.L163
 3458              	.LVL337:
 3459              	.L278:
 3460              	.LBB25:
 977:App/Src/fault_command.c ****           status = WaveformGen_StartSine((uint8_t)cell,
 3461              		.loc 1 977 11 is_stmt 1 view .LVU699
 977:App/Src/fault_command.c ****           status = WaveformGen_StartSine((uint8_t)cell,
 3462              		.loc 1 977 20 is_stmt 0 view .LVU700
 3463 03d4 4FF47A72 		mov	r2, #1000
 3464 03d8 7249     		ldr	r1, .L307+32
 3465 03da 2046     		mov	r0, r4
 3466 03dc FFF7FEFF 		bl	FaultCommand_JsonGetUintDefault
 3467              	.LVL338:
 3468 03e0 0346     		mov	r3, r0
 3469              	.LVL339:
 978:App/Src/fault_command.c ****                                          (uint16_t)offset,
 3470              		.loc 1 978 11 is_stmt 1 view .LVU701
 978:App/Src/fault_command.c ****                                          (uint16_t)offset,
 3471              		.loc 1 978 20 is_stmt 0 view .LVU702
 3472 03e2 BDF82820 		ldrh	r2, [sp, #40]
 3473 03e6 BDF82010 		ldrh	r1, [sp, #32]
 3474 03ea 9DF83C00 		ldrb	r0, [sp, #60]	@ zero_extendqisi2
 3475              	.LVL340:
 978:App/Src/fault_command.c ****                                          (uint16_t)offset,
 3476              		.loc 1 978 20 view .LVU703
 3477 03ee FFF7FEFF 		bl	WaveformGen_StartSine
 3478              	.LVL341:
 978:App/Src/fault_command.c ****                                          (uint16_t)offset,
 3479              		.loc 1 978 20 view .LVU704
 3480 03f2 0446     		mov	r4, r0
 3481              	.LVL342:
 978:App/Src/fault_command.c ****                                          (uint16_t)offset,
 3482              		.loc 1 978 20 view .LVU705
 3483 03f4 58E6     		b	.L163
 3484              	.LVL343:
 3485              	.L271:
 978:App/Src/fault_command.c ****                                          (uint16_t)offset,
 3486              		.loc 1 978 20 view .LVU706
 3487              	.LBE25:
 3488              	.LBB26:
 986:App/Src/fault_command.c ****         uint32_t amplitude;
ARM GAS  C:\Users\hh\AppData\Local\Temp\cc8MU7EM.s 			page 97


 3489              		.loc 1 986 9 is_stmt 1 view .LVU707
 987:App/Src/fault_command.c ****         uint32_t period;
 3490              		.loc 1 987 9 view .LVU708
 988:App/Src/fault_command.c **** 
 3491              		.loc 1 988 9 view .LVU709
 990:App/Src/fault_command.c ****             (FaultCommand_JsonGetUint(json, "amplitude_mv", &amplitude) != 0U))
 3492              		.loc 1 990 9 view .LVU710
 990:App/Src/fault_command.c ****             (FaultCommand_JsonGetUint(json, "amplitude_mv", &amplitude) != 0U))
 3493              		.loc 1 990 14 is_stmt 0 view .LVU711
 3494 03f6 08AA     		add	r2, sp, #32
 3495 03f8 6B49     		ldr	r1, .L307+36
 3496 03fa 2046     		mov	r0, r4
 3497 03fc FFF7FEFF 		bl	FaultCommand_JsonGetUint
 3498              	.LVL344:
 990:App/Src/fault_command.c ****             (FaultCommand_JsonGetUint(json, "amplitude_mv", &amplitude) != 0U))
 3499              		.loc 1 990 12 discriminator 1 view .LVU712
 3500 0400 10B9     		cbnz	r0, .L279
 3501              	.LBE26:
 869:App/Src/fault_command.c **** 
 3502              		.loc 1 869 21 view .LVU713
 3503 0402 0123     		movs	r3, #1
 3504 0404 1C46     		mov	r4, r3
 3505              	.LVL345:
 869:App/Src/fault_command.c **** 
 3506              		.loc 1 869 21 view .LVU714
 3507 0406 4FE6     		b	.L163
 3508              	.LVL346:
 3509              	.L279:
 3510              	.LBB27:
 991:App/Src/fault_command.c ****         {
 3511              		.loc 1 991 14 view .LVU715
 3512 0408 0AAA     		add	r2, sp, #40
 3513 040a 6849     		ldr	r1, .L307+40
 3514 040c 2046     		mov	r0, r4
 3515 040e FFF7FEFF 		bl	FaultCommand_JsonGetUint
 3516              	.LVL347:
 990:App/Src/fault_command.c ****             (FaultCommand_JsonGetUint(json, "amplitude_mv", &amplitude) != 0U))
 3517              		.loc 1 990 74 discriminator 2 view .LVU716
 3518 0412 10B9     		cbnz	r0, .L280
 3519              	.LBE27:
 869:App/Src/fault_command.c **** 
 3520              		.loc 1 869 21 view .LVU717
 3521 0414 0123     		movs	r3, #1
 3522 0416 1C46     		mov	r4, r3
 3523              	.LVL348:
 869:App/Src/fault_command.c **** 
 3524              		.loc 1 869 21 view .LVU718
 3525 0418 46E6     		b	.L163
 3526              	.LVL349:
 3527              	.L280:
 3528              	.LBB28:
 993:App/Src/fault_command.c ****           status = WaveformGen_StartSineAll((uint16_t)offset,
 3529              		.loc 1 993 11 is_stmt 1 view .LVU719
 993:App/Src/fault_command.c ****           status = WaveformGen_StartSineAll((uint16_t)offset,
 3530              		.loc 1 993 20 is_stmt 0 view .LVU720
 3531 041a 4FF47A72 		mov	r2, #1000
 3532 041e 6149     		ldr	r1, .L307+32
ARM GAS  C:\Users\hh\AppData\Local\Temp\cc8MU7EM.s 			page 98


 3533 0420 2046     		mov	r0, r4
 3534 0422 FFF7FEFF 		bl	FaultCommand_JsonGetUintDefault
 3535              	.LVL350:
 3536 0426 0246     		mov	r2, r0
 3537              	.LVL351:
 994:App/Src/fault_command.c ****                                             (uint16_t)amplitude,
 3538              		.loc 1 994 11 is_stmt 1 view .LVU721
 994:App/Src/fault_command.c ****                                             (uint16_t)amplitude,
 3539              		.loc 1 994 20 is_stmt 0 view .LVU722
 3540 0428 BDF82810 		ldrh	r1, [sp, #40]
 3541 042c BDF82000 		ldrh	r0, [sp, #32]
 3542              	.LVL352:
 994:App/Src/fault_command.c ****                                             (uint16_t)amplitude,
 3543              		.loc 1 994 20 view .LVU723
 3544 0430 FFF7FEFF 		bl	WaveformGen_StartSineAll
 3545              	.LVL353:
 994:App/Src/fault_command.c ****                                             (uint16_t)amplitude,
 3546              		.loc 1 994 20 view .LVU724
 3547 0434 0446     		mov	r4, r0
 3548              	.LVL354:
 994:App/Src/fault_command.c ****                                             (uint16_t)amplitude,
 3549              		.loc 1 994 20 view .LVU725
 3550 0436 37E6     		b	.L163
 3551              	.LVL355:
 3552              	.L272:
 994:App/Src/fault_command.c ****                                             (uint16_t)amplitude,
 3553              		.loc 1 994 20 view .LVU726
 3554              	.LBE28:
1001:App/Src/fault_command.c ****         status = HAL_OK;
 3555              		.loc 1 1001 9 is_stmt 1 view .LVU727
 3556 0438 FFF7FEFF 		bl	WaveformGen_Stop
 3557              	.LVL356:
1002:App/Src/fault_command.c ****       }
 3558              		.loc 1 1002 9 view .LVU728
1002:App/Src/fault_command.c ****       }
 3559              		.loc 1 1002 16 is_stmt 0 view .LVU729
 3560 043c 0023     		movs	r3, #0
 3561 043e 1C46     		mov	r4, r3
 3562              	.LVL357:
1002:App/Src/fault_command.c ****       }
 3563              		.loc 1 1002 16 view .LVU730
 3564 0440 32E6     		b	.L163
 3565              	.LVL358:
 3566              	.L260:
1008:App/Src/fault_command.c ****     status = HAL_OK;
 3567              		.loc 1 1008 5 is_stmt 1 view .LVU731
 3568 0442 FFF7FEFF 		bl	WaveformGen_Stop
 3569              	.LVL359:
1009:App/Src/fault_command.c ****   }
 3570              		.loc 1 1009 5 view .LVU732
1009:App/Src/fault_command.c ****   }
 3571              		.loc 1 1009 12 is_stmt 0 view .LVU733
 3572 0446 0023     		movs	r3, #0
 3573 0448 1C46     		mov	r4, r3
 3574              	.LVL360:
1009:App/Src/fault_command.c ****   }
 3575              		.loc 1 1009 12 view .LVU734
ARM GAS  C:\Users\hh\AppData\Local\Temp\cc8MU7EM.s 			page 99


 3576 044a 2DE6     		b	.L163
 3577              	.LVL361:
 3578              	.L261:
 3579              	.LBB29:
1013:App/Src/fault_command.c **** 
 3580              		.loc 1 1013 5 is_stmt 1 view .LVU735
1015:App/Src/fault_command.c ****     {
 3581              		.loc 1 1015 5 view .LVU736
1015:App/Src/fault_command.c ****     {
 3582              		.loc 1 1015 9 is_stmt 0 view .LVU737
 3583 044c 1023     		movs	r3, #16
 3584 044e 0AAA     		add	r2, sp, #40
 3585 0450 5749     		ldr	r1, .L307+44
 3586 0452 2046     		mov	r0, r4
 3587 0454 FFF7FEFF 		bl	FaultCommand_JsonGetString
 3588              	.LVL362:
1015:App/Src/fault_command.c ****     {
 3589              		.loc 1 1015 8 discriminator 1 view .LVU738
 3590 0458 0028     		cmp	r0, #0
 3591 045a 00F09080 		beq	.L226
1017:App/Src/fault_command.c ****       {
 3592              		.loc 1 1017 7 is_stmt 1 view .LVU739
1017:App/Src/fault_command.c ****       {
 3593              		.loc 1 1017 11 is_stmt 0 view .LVU740
 3594 045e 5549     		ldr	r1, .L307+48
 3595 0460 0AA8     		add	r0, sp, #40
 3596 0462 FFF7FEFF 		bl	strcmp
 3597              	.LVL363:
1017:App/Src/fault_command.c ****       {
 3598              		.loc 1 1017 10 discriminator 1 view .LVU741
 3599 0466 A0B1     		cbz	r0, .L281
1032:App/Src/fault_command.c ****       {
 3600              		.loc 1 1032 12 is_stmt 1 view .LVU742
1032:App/Src/fault_command.c ****       {
 3601              		.loc 1 1032 16 is_stmt 0 view .LVU743
 3602 0468 5349     		ldr	r1, .L307+52
 3603 046a 0AA8     		add	r0, sp, #40
 3604 046c FFF7FEFF 		bl	strcmp
 3605              	.LVL364:
1032:App/Src/fault_command.c ****       {
 3606              		.loc 1 1032 15 discriminator 1 view .LVU744
 3607 0470 0028     		cmp	r0, #0
 3608 0472 35D0     		beq	.L282
1043:App/Src/fault_command.c ****       {
 3609              		.loc 1 1043 12 is_stmt 1 view .LVU745
1043:App/Src/fault_command.c ****       {
 3610              		.loc 1 1043 16 is_stmt 0 view .LVU746
 3611 0474 5149     		ldr	r1, .L307+56
 3612 0476 0AA8     		add	r0, sp, #40
 3613 0478 FFF7FEFF 		bl	strcmp
 3614              	.LVL365:
1043:App/Src/fault_command.c ****       {
 3615              		.loc 1 1043 15 discriminator 1 view .LVU747
 3616 047c 0028     		cmp	r0, #0
 3617 047e 49D0     		beq	.L283
1057:App/Src/fault_command.c ****       {
 3618              		.loc 1 1057 12 is_stmt 1 view .LVU748
ARM GAS  C:\Users\hh\AppData\Local\Temp\cc8MU7EM.s 			page 100


1057:App/Src/fault_command.c ****       {
 3619              		.loc 1 1057 16 is_stmt 0 view .LVU749
 3620 0480 4F49     		ldr	r1, .L307+60
 3621 0482 0AA8     		add	r0, sp, #40
 3622 0484 FFF7FEFF 		bl	strcmp
 3623              	.LVL366:
1057:App/Src/fault_command.c ****       {
 3624              		.loc 1 1057 15 discriminator 1 view .LVU750
 3625 0488 0028     		cmp	r0, #0
 3626 048a 68D0     		beq	.L284
 3627              	.LBE29:
 869:App/Src/fault_command.c **** 
 3628              		.loc 1 869 21 view .LVU751
 3629 048c 0123     		movs	r3, #1
 3630 048e 1C46     		mov	r4, r3
 3631              	.LVL367:
 869:App/Src/fault_command.c **** 
 3632              		.loc 1 869 21 view .LVU752
 3633 0490 0AE6     		b	.L163
 3634              	.LVL368:
 3635              	.L281:
 3636              	.LBB38:
1019:App/Src/fault_command.c ****         for (uint8_t calCell = 1U; calCell <= VOLTAGE_SIM_CELL_COUNT; calCell++)
 3637              		.loc 1 1019 9 is_stmt 1 view .LVU753
 3638 0492 4C4A     		ldr	r2, .L307+64
 3639 0494 3946     		mov	r1, r7
 3640 0496 3046     		mov	r0, r6
 3641 0498 FFF7FEFF 		bl	FaultCommand_Write
 3642              	.LVL369:
1020:App/Src/fault_command.c ****         {
 3643              		.loc 1 1020 9 view .LVU754
 3644              	.LBB30:
1020:App/Src/fault_command.c ****         {
 3645              		.loc 1 1020 14 view .LVU755
1020:App/Src/fault_command.c ****         {
 3646              		.loc 1 1020 22 is_stmt 0 view .LVU756
 3647 049c 0123     		movs	r3, #1
 3648 049e 1A46     		mov	r2, r3
1020:App/Src/fault_command.c ****         {
 3649              		.loc 1 1020 9 view .LVU757
 3650 04a0 11E0     		b	.L182
 3651              	.LVL370:
 3652              	.L286:
1022:App/Src/fault_command.c ****                                    context,
 3653              		.loc 1 1022 11 discriminator 1 view .LVU758
 3654 04a2 494B     		ldr	r3, .L307+68
 3655 04a4 1D46     		mov	r5, r3
 3656              	.L183:
1027:App/Src/fault_command.c ****         }
 3657              		.loc 1 1027 41 view .LVU759
 3658 04a6 1446     		mov	r4, r2
 3659 04a8 1046     		mov	r0, r2
 3660 04aa FFF7FEFF 		bl	VoltageSim_GetCellCalibrationOffsetMv
 3661              	.LVL371:
1022:App/Src/fault_command.c ****                                    context,
 3662              		.loc 1 1022 11 discriminator 4 view .LVU760
 3663 04ae 0190     		str	r0, [sp, #4]
ARM GAS  C:\Users\hh\AppData\Local\Temp\cc8MU7EM.s 			page 101


 3664 04b0 0094     		str	r4, [sp]
 3665 04b2 2B46     		mov	r3, r5
 3666 04b4 454A     		ldr	r2, .L307+72
 3667 04b6 3946     		mov	r1, r7
 3668 04b8 3046     		mov	r0, r6
 3669 04ba FFF7FEFF 		bl	FaultCommand_WriteFormat
 3670              	.LVL372:
1020:App/Src/fault_command.c ****         {
 3671              		.loc 1 1020 78 is_stmt 1 discriminator 2 view .LVU761
 3672 04be 2346     		mov	r3, r4
 3673 04c0 0133     		adds	r3, r3, #1
 3674 04c2 DBB2     		uxtb	r3, r3
 3675 04c4 1A46     		mov	r2, r3
 3676              	.LVL373:
 3677              	.L182:
1020:App/Src/fault_command.c ****         {
 3678              		.loc 1 1020 44 discriminator 1 view .LVU762
 3679 04c6 0D2A     		cmp	r2, #13
 3680 04c8 04D8     		bhi	.L285
1022:App/Src/fault_command.c ****                                    context,
 3681              		.loc 1 1022 11 view .LVU763
 3682 04ca 012A     		cmp	r2, #1
 3683 04cc E9D0     		beq	.L286
1022:App/Src/fault_command.c ****                                    context,
 3684              		.loc 1 1022 11 is_stmt 0 discriminator 2 view .LVU764
 3685 04ce 404B     		ldr	r3, .L307+76
 3686 04d0 1D46     		mov	r5, r3
 3687 04d2 E8E7     		b	.L183
 3688              	.L285:
 3689              	.LBE30:
1029:App/Src/fault_command.c ****         return;
 3690              		.loc 1 1029 9 is_stmt 1 view .LVU765
 3691 04d4 3F4A     		ldr	r2, .L307+80
 3692              	.LVL374:
1029:App/Src/fault_command.c ****         return;
 3693              		.loc 1 1029 9 is_stmt 0 view .LVU766
 3694 04d6 3946     		mov	r1, r7
 3695 04d8 3046     		mov	r0, r6
 3696 04da FFF7FEFF 		bl	FaultCommand_Write
 3697              	.LVL375:
1030:App/Src/fault_command.c ****       }
 3698              		.loc 1 1030 9 is_stmt 1 view .LVU767
 3699 04de E9E5     		b	.L157
 3700              	.LVL376:
 3701              	.L282:
 3702              	.LBB31:
1034:App/Src/fault_command.c **** 
 3703              		.loc 1 1034 9 view .LVU768
1036:App/Src/fault_command.c ****             (FaultCommand_JsonGetInt(json, "offset_mv", &signedOffset) != 0U))
 3704              		.loc 1 1036 9 view .LVU769
1036:App/Src/fault_command.c ****             (FaultCommand_JsonGetInt(json, "offset_mv", &signedOffset) != 0U))
 3705              		.loc 1 1036 14 is_stmt 0 view .LVU770
 3706 04e0 0FAA     		add	r2, sp, #60
 3707 04e2 2D49     		ldr	r1, .L307+20
 3708 04e4 2046     		mov	r0, r4
 3709 04e6 FFF7FEFF 		bl	FaultCommand_JsonGetUint
 3710              	.LVL377:
ARM GAS  C:\Users\hh\AppData\Local\Temp\cc8MU7EM.s 			page 102


1036:App/Src/fault_command.c ****             (FaultCommand_JsonGetInt(json, "offset_mv", &signedOffset) != 0U))
 3711              		.loc 1 1036 12 discriminator 1 view .LVU771
 3712 04ea 10B9     		cbnz	r0, .L287
 3713              	.LBE31:
 3714              	.LBE38:
 869:App/Src/fault_command.c **** 
 3715              		.loc 1 869 21 view .LVU772
 3716 04ec 0123     		movs	r3, #1
 3717 04ee 1C46     		mov	r4, r3
 3718              	.LVL378:
 869:App/Src/fault_command.c **** 
 3719              		.loc 1 869 21 view .LVU773
 3720 04f0 DAE5     		b	.L163
 3721              	.LVL379:
 3722              	.L287:
 3723              	.LBB39:
 3724              	.LBB32:
1037:App/Src/fault_command.c ****         {
 3725              		.loc 1 1037 14 view .LVU774
 3726 04f2 08AA     		add	r2, sp, #32
 3727 04f4 2C49     		ldr	r1, .L307+36
 3728 04f6 2046     		mov	r0, r4
 3729 04f8 FFF7FEFF 		bl	FaultCommand_JsonGetInt
 3730              	.LVL380:
1036:App/Src/fault_command.c ****             (FaultCommand_JsonGetInt(json, "offset_mv", &signedOffset) != 0U))
 3731              		.loc 1 1036 67 discriminator 2 view .LVU775
 3732 04fc 10B9     		cbnz	r0, .L288
 3733              	.LBE32:
 3734              	.LBE39:
 869:App/Src/fault_command.c **** 
 3735              		.loc 1 869 21 view .LVU776
 3736 04fe 0123     		movs	r3, #1
 3737 0500 1C46     		mov	r4, r3
 3738              	.LVL381:
 869:App/Src/fault_command.c **** 
 3739              		.loc 1 869 21 view .LVU777
 3740 0502 D1E5     		b	.L163
 3741              	.LVL382:
 3742              	.L288:
 3743              	.LBB40:
 3744              	.LBB33:
1039:App/Src/fault_command.c ****                                                          (int16_t)signedOffset);
 3745              		.loc 1 1039 11 is_stmt 1 view .LVU778
1039:App/Src/fault_command.c ****                                                          (int16_t)signedOffset);
 3746              		.loc 1 1039 20 is_stmt 0 view .LVU779
 3747 0504 BDF92010 		ldrsh	r1, [sp, #32]
 3748 0508 9DF83C00 		ldrb	r0, [sp, #60]	@ zero_extendqisi2
 3749 050c FFF7FEFF 		bl	VoltageSim_SetCellCalibrationOffsetMv
 3750              	.LVL383:
 3751 0510 0446     		mov	r4, r0
 3752              	.LVL384:
1039:App/Src/fault_command.c ****                                                          (int16_t)signedOffset);
 3753              		.loc 1 1039 20 view .LVU780
 3754 0512 C9E5     		b	.L163
 3755              	.LVL385:
 3756              	.L283:
1039:App/Src/fault_command.c ****                                                          (int16_t)signedOffset);
ARM GAS  C:\Users\hh\AppData\Local\Temp\cc8MU7EM.s 			page 103


 3757              		.loc 1 1039 20 view .LVU781
 3758              	.LBE33:
 3759              	.LBB34:
1045:App/Src/fault_command.c ****         uint32_t measuredMv;
 3760              		.loc 1 1045 9 is_stmt 1 view .LVU782
1046:App/Src/fault_command.c **** 
 3761              		.loc 1 1046 9 view .LVU783
1048:App/Src/fault_command.c ****             (FaultCommand_JsonGetUint(json, "target_mv", &targetMv) != 0U) &&
 3762              		.loc 1 1048 9 view .LVU784
1048:App/Src/fault_command.c ****             (FaultCommand_JsonGetUint(json, "target_mv", &targetMv) != 0U) &&
 3763              		.loc 1 1048 14 is_stmt 0 view .LVU785
 3764 0514 0FAA     		add	r2, sp, #60
 3765 0516 2049     		ldr	r1, .L307+20
 3766 0518 2046     		mov	r0, r4
 3767 051a FFF7FEFF 		bl	FaultCommand_JsonGetUint
 3768              	.LVL386:
1048:App/Src/fault_command.c ****             (FaultCommand_JsonGetUint(json, "target_mv", &targetMv) != 0U) &&
 3769              		.loc 1 1048 12 discriminator 1 view .LVU786
 3770 051e 10B9     		cbnz	r0, .L289
 3771              	.LBE34:
 3772              	.LBE40:
 869:App/Src/fault_command.c **** 
 3773              		.loc 1 869 21 view .LVU787
 3774 0520 0123     		movs	r3, #1
 3775 0522 1C46     		mov	r4, r3
 3776              	.LVL387:
 869:App/Src/fault_command.c **** 
 3777              		.loc 1 869 21 view .LVU788
 3778 0524 C0E5     		b	.L163
 3779              	.LVL388:
 3780              	.L289:
 3781              	.LBB41:
 3782              	.LBB35:
1049:App/Src/fault_command.c ****             (FaultCommand_JsonGetUint(json, "measured_mv", &measuredMv) != 0U))
 3783              		.loc 1 1049 14 view .LVU789
 3784 0526 06AA     		add	r2, sp, #24
 3785 0528 2B49     		ldr	r1, .L307+84
 3786 052a 2046     		mov	r0, r4
 3787 052c FFF7FEFF 		bl	FaultCommand_JsonGetUint
 3788              	.LVL389:
1048:App/Src/fault_command.c ****             (FaultCommand_JsonGetUint(json, "target_mv", &targetMv) != 0U) &&
 3789              		.loc 1 1048 67 discriminator 2 view .LVU790
 3790 0530 10B9     		cbnz	r0, .L290
 3791              	.LBE35:
 3792              	.LBE41:
 869:App/Src/fault_command.c **** 
 3793              		.loc 1 869 21 view .LVU791
 3794 0532 0123     		movs	r3, #1
 3795 0534 1C46     		mov	r4, r3
 3796              	.LVL390:
 869:App/Src/fault_command.c **** 
 3797              		.loc 1 869 21 view .LVU792
 3798 0536 B7E5     		b	.L163
 3799              	.LVL391:
 3800              	.L290:
 3801              	.LBB42:
 3802              	.LBB36:
ARM GAS  C:\Users\hh\AppData\Local\Temp\cc8MU7EM.s 			page 104


1050:App/Src/fault_command.c ****         {
 3803              		.loc 1 1050 14 view .LVU793
 3804 0538 08AA     		add	r2, sp, #32
 3805 053a 2849     		ldr	r1, .L307+88
 3806 053c 2046     		mov	r0, r4
 3807 053e FFF7FEFF 		bl	FaultCommand_JsonGetUint
 3808              	.LVL392:
1049:App/Src/fault_command.c ****             (FaultCommand_JsonGetUint(json, "measured_mv", &measuredMv) != 0U))
 3809              		.loc 1 1049 76 view .LVU794
 3810 0542 10B9     		cbnz	r0, .L291
 3811              	.LBE36:
 3812              	.LBE42:
 869:App/Src/fault_command.c **** 
 3813              		.loc 1 869 21 view .LVU795
 3814 0544 0123     		movs	r3, #1
 3815 0546 1C46     		mov	r4, r3
 3816              	.LVL393:
 869:App/Src/fault_command.c **** 
 3817              		.loc 1 869 21 view .LVU796
 3818 0548 AEE5     		b	.L163
 3819              	.LVL394:
 3820              	.L291:
 3821              	.LBB43:
 3822              	.LBB37:
1052:App/Src/fault_command.c ****                                                   (uint16_t)targetMv,
 3823              		.loc 1 1052 11 is_stmt 1 view .LVU797
1052:App/Src/fault_command.c ****                                                   (uint16_t)targetMv,
 3824              		.loc 1 1052 20 is_stmt 0 view .LVU798
 3825 054a BDF82020 		ldrh	r2, [sp, #32]
 3826 054e BDF81810 		ldrh	r1, [sp, #24]
 3827 0552 9DF83C00 		ldrb	r0, [sp, #60]	@ zero_extendqisi2
 3828 0556 FFF7FEFF 		bl	FaultCommand_RunCalibrationTrim
 3829              	.LVL395:
 3830 055a 0446     		mov	r4, r0
 3831              	.LVL396:
1052:App/Src/fault_command.c ****                                                   (uint16_t)targetMv,
 3832              		.loc 1 1052 20 view .LVU799
 3833 055c A4E5     		b	.L163
 3834              	.LVL397:
 3835              	.L284:
1052:App/Src/fault_command.c ****                                                   (uint16_t)targetMv,
 3836              		.loc 1 1052 20 view .LVU800
 3837              	.LBE37:
1059:App/Src/fault_command.c ****         {
 3838              		.loc 1 1059 9 is_stmt 1 view .LVU801
1059:App/Src/fault_command.c ****         {
 3839              		.loc 1 1059 13 is_stmt 0 view .LVU802
 3840 055e 0FAA     		add	r2, sp, #60
 3841 0560 0D49     		ldr	r1, .L307+20
 3842 0562 2046     		mov	r0, r4
 3843 0564 FFF7FEFF 		bl	FaultCommand_JsonGetUint
 3844              	.LVL398:
1059:App/Src/fault_command.c ****         {
 3845              		.loc 1 1059 12 discriminator 1 view .LVU803
 3846 0568 0446     		mov	r4, r0
 3847              	.LVL399:
1059:App/Src/fault_command.c ****         {
ARM GAS  C:\Users\hh\AppData\Local\Temp\cc8MU7EM.s 			page 105


 3848              		.loc 1 1059 12 discriminator 1 view .LVU804
 3849 056a 28B1     		cbz	r0, .L189
1061:App/Src/fault_command.c ****         }
 3850              		.loc 1 1061 11 is_stmt 1 view .LVU805
1061:App/Src/fault_command.c ****         }
 3851              		.loc 1 1061 20 is_stmt 0 view .LVU806
 3852 056c 9DF83C00 		ldrb	r0, [sp, #60]	@ zero_extendqisi2
 3853 0570 FFF7FEFF 		bl	VoltageSim_ClearCellCalibrationOffset
 3854              	.LVL400:
 3855 0574 0446     		mov	r4, r0
 3856              	.LVL401:
1061:App/Src/fault_command.c ****         }
 3857              		.loc 1 1061 20 view .LVU807
 3858 0576 97E5     		b	.L163
 3859              	.LVL402:
 3860              	.L189:
1065:App/Src/fault_command.c ****           status = HAL_OK;
 3861              		.loc 1 1065 11 is_stmt 1 view .LVU808
 3862 0578 FFF7FEFF 		bl	VoltageSim_ClearAllCalibrationOffsets
 3863              	.LVL403:
1066:App/Src/fault_command.c ****         }
 3864              		.loc 1 1066 11 view .LVU809
1066:App/Src/fault_command.c ****         }
 3865              		.loc 1 1066 11 is_stmt 0 view .LVU810
 3866 057c 94E5     		b	.L163
 3867              	.LVL404:
 3868              	.L226:
1066:App/Src/fault_command.c ****         }
 3869              		.loc 1 1066 11 view .LVU811
 3870              	.LBE43:
 869:App/Src/fault_command.c **** 
 3871              		.loc 1 869 21 view .LVU812
 3872 057e 0123     		movs	r3, #1
 3873 0580 1C46     		mov	r4, r3
 3874              	.LVL405:
 869:App/Src/fault_command.c **** 
 3875              		.loc 1 869 21 view .LVU813
 3876 0582 91E5     		b	.L163
 3877              	.L308:
 3878              		.align	2
 3879              	.L307:
 3880 0584 48010000 		.word	.LC75
 3881 0588 50010000 		.word	.LC76
 3882 058c 64010000 		.word	.LC78
 3883 0590 88010000 		.word	.LC81
 3884 0594 94010000 		.word	.LC82
 3885 0598 C4000000 		.word	.LC62
 3886 059c 38010000 		.word	.LC73
 3887 05a0 24010000 		.word	.LC71
 3888 05a4 58010000 		.word	.LC77
 3889 05a8 6C010000 		.word	.LC79
 3890 05ac 78010000 		.word	.LC80
 3891 05b0 AC010000 		.word	.LC85
 3892 05b4 2C000000 		.word	.LC56
 3893 05b8 C0000000 		.word	.LC61
 3894 05bc F0010000 		.word	.LC88
 3895 05c0 10020000 		.word	.LC91
ARM GAS  C:\Users\hh\AppData\Local\Temp\cc8MU7EM.s 			page 106


 3896 05c4 B4010000 		.word	.LC86
 3897 05c8 00000000 		.word	.LC25
 3898 05cc D0010000 		.word	.LC87
 3899 05d0 04000000 		.word	.LC26
 3900 05d4 F0000000 		.word	.LC29
 3901 05d8 F8010000 		.word	.LC89
 3902 05dc 04020000 		.word	.LC90
 3903              	.LVL406:
 3904              	.L262:
1073:App/Src/fault_command.c ****     {
 3905              		.loc 1 1073 5 is_stmt 1 view .LVU814
1073:App/Src/fault_command.c ****     {
 3906              		.loc 1 1073 9 is_stmt 0 view .LVU815
 3907 05e0 1023     		movs	r3, #16
 3908 05e2 10AA     		add	r2, sp, #64
 3909 05e4 7449     		ldr	r1, .L309
 3910 05e6 2046     		mov	r0, r4
 3911 05e8 FFF7FEFF 		bl	FaultCommand_JsonGetString
 3912              	.LVL407:
1073:App/Src/fault_command.c ****     {
 3913              		.loc 1 1073 8 discriminator 1 view .LVU816
 3914 05ec 0028     		cmp	r0, #0
 3915 05ee 00F0E080 		beq	.L234
1075:App/Src/fault_command.c ****       {
 3916              		.loc 1 1075 7 is_stmt 1 view .LVU817
1075:App/Src/fault_command.c ****       {
 3917              		.loc 1 1075 11 is_stmt 0 view .LVU818
 3918 05f2 7249     		ldr	r1, .L309+4
 3919 05f4 10A8     		add	r0, sp, #64
 3920 05f6 FFF7FEFF 		bl	strcmp
 3921              	.LVL408:
1075:App/Src/fault_command.c ****       {
 3922              		.loc 1 1075 10 discriminator 1 view .LVU819
 3923 05fa 38B1     		cbz	r0, .L292
1082:App/Src/fault_command.c ****       {
 3924              		.loc 1 1082 12 is_stmt 1 view .LVU820
1082:App/Src/fault_command.c ****       {
 3925              		.loc 1 1082 16 is_stmt 0 view .LVU821
 3926 05fc 7049     		ldr	r1, .L309+8
 3927 05fe 10A8     		add	r0, sp, #64
 3928 0600 FFF7FEFF 		bl	strcmp
 3929              	.LVL409:
1082:App/Src/fault_command.c ****       {
 3930              		.loc 1 1082 15 discriminator 1 view .LVU822
 3931 0604 88B1     		cbz	r0, .L293
 869:App/Src/fault_command.c **** 
 3932              		.loc 1 869 21 view .LVU823
 3933 0606 0123     		movs	r3, #1
 3934 0608 1C46     		mov	r4, r3
 3935              	.LVL410:
 869:App/Src/fault_command.c **** 
 3936              		.loc 1 869 21 view .LVU824
 3937 060a 4DE5     		b	.L163
 3938              	.LVL411:
 3939              	.L292:
1077:App/Src/fault_command.c ****         {
 3940              		.loc 1 1077 9 is_stmt 1 view .LVU825
ARM GAS  C:\Users\hh\AppData\Local\Temp\cc8MU7EM.s 			page 107


1077:App/Src/fault_command.c ****         {
 3941              		.loc 1 1077 13 is_stmt 0 view .LVU826
 3942 060c 0EAA     		add	r2, sp, #56
 3943 060e 6D49     		ldr	r1, .L309+12
 3944 0610 2046     		mov	r0, r4
 3945 0612 FFF7FEFF 		bl	FaultCommand_JsonGetUint
 3946              	.LVL412:
1077:App/Src/fault_command.c ****         {
 3947              		.loc 1 1077 12 discriminator 1 view .LVU827
 3948 0616 10B9     		cbnz	r0, .L294
 869:App/Src/fault_command.c **** 
 3949              		.loc 1 869 21 view .LVU828
 3950 0618 0123     		movs	r3, #1
 3951 061a 1C46     		mov	r4, r3
 3952              	.LVL413:
 869:App/Src/fault_command.c **** 
 3953              		.loc 1 869 21 view .LVU829
 3954 061c 44E5     		b	.L163
 3955              	.LVL414:
 3956              	.L294:
1079:App/Src/fault_command.c ****         }
 3957              		.loc 1 1079 11 is_stmt 1 view .LVU830
1079:App/Src/fault_command.c ****         }
 3958              		.loc 1 1079 20 is_stmt 0 view .LVU831
 3959 061e BDF83800 		ldrh	r0, [sp, #56]
 3960 0622 FFF7FEFF 		bl	FaultCommand_RunNormal
 3961              	.LVL415:
 3962 0626 0446     		mov	r4, r0
 3963              	.LVL416:
1079:App/Src/fault_command.c ****         }
 3964              		.loc 1 1079 20 view .LVU832
 3965 0628 3EE5     		b	.L163
 3966              	.LVL417:
 3967              	.L293:
 3968              	.LBB44:
1084:App/Src/fault_command.c ****         uint32_t high;
 3969              		.loc 1 1084 9 is_stmt 1 view .LVU833
1085:App/Src/fault_command.c ****         uint32_t period;
 3970              		.loc 1 1085 9 view .LVU834
1086:App/Src/fault_command.c **** 
 3971              		.loc 1 1086 9 view .LVU835
1088:App/Src/fault_command.c ****             (FaultCommand_JsonGetUint(json, "low_mv", &low) != 0U) &&
 3972              		.loc 1 1088 9 view .LVU836
1088:App/Src/fault_command.c ****             (FaultCommand_JsonGetUint(json, "low_mv", &low) != 0U) &&
 3973              		.loc 1 1088 14 is_stmt 0 view .LVU837
 3974 062a 0FAA     		add	r2, sp, #60
 3975 062c 6649     		ldr	r1, .L309+16
 3976 062e 2046     		mov	r0, r4
 3977 0630 FFF7FEFF 		bl	FaultCommand_JsonGetUint
 3978              	.LVL418:
1088:App/Src/fault_command.c ****             (FaultCommand_JsonGetUint(json, "low_mv", &low) != 0U) &&
 3979              		.loc 1 1088 12 discriminator 1 view .LVU838
 3980 0634 10B9     		cbnz	r0, .L295
 3981              	.LBE44:
 869:App/Src/fault_command.c **** 
 3982              		.loc 1 869 21 view .LVU839
 3983 0636 0123     		movs	r3, #1
ARM GAS  C:\Users\hh\AppData\Local\Temp\cc8MU7EM.s 			page 108


 3984 0638 1C46     		mov	r4, r3
 3985              	.LVL419:
 869:App/Src/fault_command.c **** 
 3986              		.loc 1 869 21 view .LVU840
 3987 063a 35E5     		b	.L163
 3988              	.LVL420:
 3989              	.L295:
 3990              	.LBB45:
1089:App/Src/fault_command.c ****             (FaultCommand_JsonGetUint(json, "high_mv", &high) != 0U))
 3991              		.loc 1 1089 14 view .LVU841
 3992 063c 08AA     		add	r2, sp, #32
 3993 063e 6349     		ldr	r1, .L309+20
 3994 0640 2046     		mov	r0, r4
 3995 0642 FFF7FEFF 		bl	FaultCommand_JsonGetUint
 3996              	.LVL421:
1088:App/Src/fault_command.c ****             (FaultCommand_JsonGetUint(json, "low_mv", &low) != 0U) &&
 3997              		.loc 1 1088 67 discriminator 2 view .LVU842
 3998 0646 10B9     		cbnz	r0, .L296
 3999              	.LBE45:
 869:App/Src/fault_command.c **** 
 4000              		.loc 1 869 21 view .LVU843
 4001 0648 0123     		movs	r3, #1
 4002 064a 1C46     		mov	r4, r3
 4003              	.LVL422:
 869:App/Src/fault_command.c **** 
 4004              		.loc 1 869 21 view .LVU844
 4005 064c 2CE5     		b	.L163
 4006              	.LVL423:
 4007              	.L296:
 4008              	.LBB46:
1090:App/Src/fault_command.c ****         {
 4009              		.loc 1 1090 14 view .LVU845
 4010 064e 0AAA     		add	r2, sp, #40
 4011 0650 5F49     		ldr	r1, .L309+24
 4012 0652 2046     		mov	r0, r4
 4013 0654 FFF7FEFF 		bl	FaultCommand_JsonGetUint
 4014              	.LVL424:
1089:App/Src/fault_command.c ****             (FaultCommand_JsonGetUint(json, "high_mv", &high) != 0U))
 4015              		.loc 1 1089 68 view .LVU846
 4016 0658 10B9     		cbnz	r0, .L297
 4017              	.LBE46:
 869:App/Src/fault_command.c **** 
 4018              		.loc 1 869 21 view .LVU847
 4019 065a 0123     		movs	r3, #1
 4020 065c 1C46     		mov	r4, r3
 4021              	.LVL425:
 869:App/Src/fault_command.c **** 
 4022              		.loc 1 869 21 view .LVU848
 4023 065e 23E5     		b	.L163
 4024              	.LVL426:
 4025              	.L297:
 4026              	.LBB47:
1092:App/Src/fault_command.c ****           status = WaveformGen_StartSquare((uint8_t)cell,
 4027              		.loc 1 1092 11 is_stmt 1 view .LVU849
1092:App/Src/fault_command.c ****           status = WaveformGen_StartSquare((uint8_t)cell,
 4028              		.loc 1 1092 20 is_stmt 0 view .LVU850
 4029 0660 4FF47A72 		mov	r2, #1000
ARM GAS  C:\Users\hh\AppData\Local\Temp\cc8MU7EM.s 			page 109


 4030 0664 5B49     		ldr	r1, .L309+28
 4031 0666 2046     		mov	r0, r4
 4032 0668 FFF7FEFF 		bl	FaultCommand_JsonGetUintDefault
 4033              	.LVL427:
 4034 066c 0346     		mov	r3, r0
 4035              	.LVL428:
1093:App/Src/fault_command.c ****                                            (uint16_t)low,
 4036              		.loc 1 1093 11 is_stmt 1 view .LVU851
1093:App/Src/fault_command.c ****                                            (uint16_t)low,
 4037              		.loc 1 1093 20 is_stmt 0 view .LVU852
 4038 066e BDF82820 		ldrh	r2, [sp, #40]
 4039 0672 BDF82010 		ldrh	r1, [sp, #32]
 4040 0676 9DF83C00 		ldrb	r0, [sp, #60]	@ zero_extendqisi2
 4041              	.LVL429:
1093:App/Src/fault_command.c ****                                            (uint16_t)low,
 4042              		.loc 1 1093 20 view .LVU853
 4043 067a FFF7FEFF 		bl	WaveformGen_StartSquare
 4044              	.LVL430:
1093:App/Src/fault_command.c ****                                            (uint16_t)low,
 4045              		.loc 1 1093 20 view .LVU854
 4046 067e 0446     		mov	r4, r0
 4047              	.LVL431:
1093:App/Src/fault_command.c ****                                            (uint16_t)low,
 4048              		.loc 1 1093 20 view .LVU855
 4049 0680 12E5     		b	.L163
 4050              	.LVL432:
 4051              	.L263:
1093:App/Src/fault_command.c ****                                            (uint16_t)low,
 4052              		.loc 1 1093 20 view .LVU856
 4053              	.LBE47:
 4054              	.LBB48:
1103:App/Src/fault_command.c **** 
 4055              		.loc 1 1103 5 is_stmt 1 view .LVU857
1105:App/Src/fault_command.c ****     {
 4056              		.loc 1 1105 5 view .LVU858
1105:App/Src/fault_command.c ****     {
 4057              		.loc 1 1105 9 is_stmt 0 view .LVU859
 4058 0682 1023     		movs	r3, #16
 4059 0684 0AAA     		add	r2, sp, #40
 4060 0686 5449     		ldr	r1, .L309+32
 4061 0688 2046     		mov	r0, r4
 4062 068a FFF7FEFF 		bl	FaultCommand_JsonGetString
 4063              	.LVL433:
1105:App/Src/fault_command.c ****     {
 4064              		.loc 1 1105 8 discriminator 1 view .LVU860
 4065 068e 0028     		cmp	r0, #0
 4066 0690 5ED0     		beq	.L240
1107:App/Src/fault_command.c ****       {
 4067              		.loc 1 1107 7 is_stmt 1 view .LVU861
1107:App/Src/fault_command.c ****       {
 4068              		.loc 1 1107 11 is_stmt 0 view .LVU862
 4069 0692 5249     		ldr	r1, .L309+36
 4070 0694 0AA8     		add	r0, sp, #40
 4071 0696 FFF7FEFF 		bl	strcmp
 4072              	.LVL434:
1107:App/Src/fault_command.c ****       {
 4073              		.loc 1 1107 10 discriminator 1 view .LVU863
ARM GAS  C:\Users\hh\AppData\Local\Temp\cc8MU7EM.s 			page 110


 4074 069a 38B1     		cbz	r0, .L298
1112:App/Src/fault_command.c ****       {
 4075              		.loc 1 1112 12 is_stmt 1 view .LVU864
1112:App/Src/fault_command.c ****       {
 4076              		.loc 1 1112 16 is_stmt 0 view .LVU865
 4077 069c 5049     		ldr	r1, .L309+40
 4078 069e 0AA8     		add	r0, sp, #40
 4079 06a0 FFF7FEFF 		bl	strcmp
 4080              	.LVL435:
1112:App/Src/fault_command.c ****       {
 4081              		.loc 1 1112 15 discriminator 1 view .LVU866
 4082 06a4 38B1     		cbz	r0, .L299
 4083              	.LBE48:
 869:App/Src/fault_command.c **** 
 4084              		.loc 1 869 21 view .LVU867
 4085 06a6 0123     		movs	r3, #1
 4086 06a8 1C46     		mov	r4, r3
 4087              	.LVL436:
 869:App/Src/fault_command.c **** 
 4088              		.loc 1 869 21 view .LVU868
 4089 06aa FDE4     		b	.L163
 4090              	.LVL437:
 4091              	.L298:
 4092              	.LBB57:
1109:App/Src/fault_command.c ****         return;
 4093              		.loc 1 1109 9 is_stmt 1 view .LVU869
 4094 06ac 3946     		mov	r1, r7
 4095 06ae 3046     		mov	r0, r6
 4096 06b0 FFF7FEFF 		bl	FaultCommand_WriteJsonCanStatus
 4097              	.LVL438:
1110:App/Src/fault_command.c ****       }
 4098              		.loc 1 1110 9 view .LVU870
 4099 06b4 FEE4     		b	.L157
 4100              	.L299:
 4101              	.LBB49:
1114:App/Src/fault_command.c ****         uint32_t length;
 4102              		.loc 1 1114 9 view .LVU871
1115:App/Src/fault_command.c ****         uint32_t extended;
 4103              		.loc 1 1115 9 view .LVU872
1116:App/Src/fault_command.c ****         uint8_t data[BSP_CAN_MAX_DATA_LEN] = {0};
 4104              		.loc 1 1116 9 view .LVU873
1117:App/Src/fault_command.c **** 
 4105              		.loc 1 1117 9 view .LVU874
1117:App/Src/fault_command.c **** 
 4106              		.loc 1 1117 17 is_stmt 0 view .LVU875
 4107 06b6 0690     		str	r0, [sp, #24]
 4108 06b8 0790     		str	r0, [sp, #28]
1119:App/Src/fault_command.c ****             (FaultCommand_JsonGetUint(json, "len", &length) != 0U) &&
 4109              		.loc 1 1119 9 is_stmt 1 view .LVU876
1119:App/Src/fault_command.c ****             (FaultCommand_JsonGetUint(json, "len", &length) != 0U) &&
 4110              		.loc 1 1119 14 is_stmt 0 view .LVU877
 4111 06ba 03AA     		add	r2, sp, #12
 4112 06bc 4949     		ldr	r1, .L309+44
 4113 06be 2046     		mov	r0, r4
 4114 06c0 FFF7FEFF 		bl	FaultCommand_JsonGetUint
 4115              	.LVL439:
1119:App/Src/fault_command.c ****             (FaultCommand_JsonGetUint(json, "len", &length) != 0U) &&
ARM GAS  C:\Users\hh\AppData\Local\Temp\cc8MU7EM.s 			page 111


 4116              		.loc 1 1119 12 discriminator 1 view .LVU878
 4117 06c4 10B9     		cbnz	r0, .L300
 4118              	.LBE49:
 4119              	.LBE57:
 869:App/Src/fault_command.c **** 
 4120              		.loc 1 869 21 view .LVU879
 4121 06c6 0123     		movs	r3, #1
 4122 06c8 1C46     		mov	r4, r3
 4123              	.LVL440:
 869:App/Src/fault_command.c **** 
 4124              		.loc 1 869 21 view .LVU880
 4125 06ca EDE4     		b	.L163
 4126              	.LVL441:
 4127              	.L300:
 4128              	.LBB58:
 4129              	.LBB55:
1120:App/Src/fault_command.c ****             (length <= BSP_CAN_MAX_DATA_LEN))
 4130              		.loc 1 1120 14 view .LVU881
 4131 06cc 04AA     		add	r2, sp, #16
 4132 06ce 4649     		ldr	r1, .L309+48
 4133 06d0 2046     		mov	r0, r4
 4134 06d2 FFF7FEFF 		bl	FaultCommand_JsonGetUint
 4135              	.LVL442:
1119:App/Src/fault_command.c ****             (FaultCommand_JsonGetUint(json, "len", &length) != 0U) &&
 4136              		.loc 1 1119 63 discriminator 2 view .LVU882
 4137 06d6 0028     		cmp	r0, #0
 4138 06d8 37D0     		beq	.L243
1121:App/Src/fault_command.c ****         {
 4139              		.loc 1 1121 21 view .LVU883
 4140 06da 049B     		ldr	r3, [sp, #16]
1120:App/Src/fault_command.c ****             (length <= BSP_CAN_MAX_DATA_LEN))
 4141              		.loc 1 1120 68 view .LVU884
 4142 06dc 082B     		cmp	r3, #8
 4143 06de 02D9     		bls	.L301
 4144              	.LBE55:
 4145              	.LBE58:
 869:App/Src/fault_command.c **** 
 4146              		.loc 1 869 21 view .LVU885
 4147 06e0 0123     		movs	r3, #1
 4148 06e2 1C46     		mov	r4, r3
 4149              	.LVL443:
 869:App/Src/fault_command.c **** 
 4150              		.loc 1 869 21 view .LVU886
 4151 06e4 E0E4     		b	.L163
 4152              	.LVL444:
 4153              	.L301:
 4154              	.LBB59:
 4155              	.LBB56:
1123:App/Src/fault_command.c ****           status = HAL_OK;
 4156              		.loc 1 1123 11 is_stmt 1 view .LVU887
1123:App/Src/fault_command.c ****           status = HAL_OK;
 4157              		.loc 1 1123 22 is_stmt 0 view .LVU888
 4158 06e6 0022     		movs	r2, #0
 4159 06e8 4049     		ldr	r1, .L309+52
 4160 06ea 2046     		mov	r0, r4
 4161 06ec FFF7FEFF 		bl	FaultCommand_JsonGetUintDefault
 4162              	.LVL445:
ARM GAS  C:\Users\hh\AppData\Local\Temp\cc8MU7EM.s 			page 112


 4163 06f0 8046     		mov	r8, r0
 4164              	.LVL446:
1124:App/Src/fault_command.c **** 
 4165              		.loc 1 1124 11 is_stmt 1 view .LVU889
1126:App/Src/fault_command.c ****           {
 4166              		.loc 1 1126 11 view .LVU890
 4167              	.LBB50:
1126:App/Src/fault_command.c ****           {
 4168              		.loc 1 1126 16 view .LVU891
1126:App/Src/fault_command.c ****           {
 4169              		.loc 1 1126 24 is_stmt 0 view .LVU892
 4170 06f2 0023     		movs	r3, #0
 4171 06f4 1D46     		mov	r5, r3
 4172              	.LVL447:
 4173              	.L197:
1126:App/Src/fault_command.c ****           {
 4174              		.loc 1 1126 42 is_stmt 1 discriminator 1 view .LVU893
 4175 06f6 049B     		ldr	r3, [sp, #16]
 4176 06f8 9D42     		cmp	r5, r3
 4177 06fa 1AD2     		bcs	.L302
 4178              	.LBB51:
1128:App/Src/fault_command.c ****             uint32_t value;
 4179              		.loc 1 1128 13 view .LVU894
1129:App/Src/fault_command.c **** 
 4180              		.loc 1 1129 13 view .LVU895
1131:App/Src/fault_command.c ****             if ((FaultCommand_JsonGetUint(json, key, &value) == 0U) || (value > 0xFFU))
 4181              		.loc 1 1131 13 view .LVU896
1131:App/Src/fault_command.c ****             if ((FaultCommand_JsonGetUint(json, key, &value) == 0U) || (value > 0xFFU))
 4182              		.loc 1 1131 19 is_stmt 0 view .LVU897
 4183 06fc 2B46     		mov	r3, r5
 4184 06fe 3C4A     		ldr	r2, .L309+56
 4185 0700 0821     		movs	r1, #8
 4186 0702 08A8     		add	r0, sp, #32
 4187 0704 FFF7FEFF 		bl	snprintf
 4188              	.LVL448:
1132:App/Src/fault_command.c ****             {
 4189              		.loc 1 1132 13 is_stmt 1 view .LVU898
1132:App/Src/fault_command.c ****             {
 4190              		.loc 1 1132 18 is_stmt 0 view .LVU899
 4191 0708 05AA     		add	r2, sp, #20
 4192 070a 08A9     		add	r1, sp, #32
 4193 070c 2046     		mov	r0, r4
 4194 070e FFF7FEFF 		bl	FaultCommand_JsonGetUint
 4195              	.LVL449:
1132:App/Src/fault_command.c ****             {
 4196              		.loc 1 1132 16 discriminator 1 view .LVU900
 4197 0712 58B1     		cbz	r0, .L198
1132:App/Src/fault_command.c ****             {
 4198              		.loc 1 1132 79 discriminator 2 view .LVU901
 4199 0714 059B     		ldr	r3, [sp, #20]
1132:App/Src/fault_command.c ****             {
 4200              		.loc 1 1132 69 discriminator 2 view .LVU902
 4201 0716 FF2B     		cmp	r3, #255
 4202 0718 08D8     		bhi	.L198
1137:App/Src/fault_command.c ****           }
 4203              		.loc 1 1137 13 is_stmt 1 view .LVU903
1137:App/Src/fault_command.c ****           }
ARM GAS  C:\Users\hh\AppData\Local\Temp\cc8MU7EM.s 			page 113


 4204              		.loc 1 1137 25 is_stmt 0 view .LVU904
 4205 071a 05F16002 		add	r2, r5, #96
 4206 071e 6A44     		add	r2, sp, r2
 4207 0720 02F8483C 		strb	r3, [r2, #-72]
 4208              	.LBE51:
1126:App/Src/fault_command.c ****           {
 4209              		.loc 1 1126 57 is_stmt 1 discriminator 2 view .LVU905
 4210 0724 6B1C     		adds	r3, r5, #1
 4211 0726 DBB2     		uxtb	r3, r3
 4212 0728 1D46     		mov	r5, r3
 4213              	.LVL450:
1126:App/Src/fault_command.c ****           {
 4214              		.loc 1 1126 57 is_stmt 0 discriminator 2 view .LVU906
 4215 072a E4E7     		b	.L197
 4216              	.LVL451:
 4217              	.L198:
 4218              	.LBB52:
1134:App/Src/fault_command.c ****               break;
 4219              		.loc 1 1134 15 is_stmt 1 view .LVU907
1135:App/Src/fault_command.c ****             }
 4220              		.loc 1 1135 15 view .LVU908
1135:App/Src/fault_command.c ****             }
 4221              		.loc 1 1135 15 is_stmt 0 view .LVU909
 4222              	.LBE52:
 4223              	.LBE50:
1140:App/Src/fault_command.c ****           {
 4224              		.loc 1 1140 11 is_stmt 1 view .LVU910
 4225              	.LBB54:
 4226              	.LBB53:
1134:App/Src/fault_command.c ****               break;
 4227              		.loc 1 1134 22 is_stmt 0 view .LVU911
 4228 072c 0123     		movs	r3, #1
 4229 072e 1C46     		mov	r4, r3
 4230              	.LVL452:
1134:App/Src/fault_command.c ****               break;
 4231              		.loc 1 1134 22 view .LVU912
 4232 0730 BAE4     		b	.L163
 4233              	.LVL453:
 4234              	.L302:
1134:App/Src/fault_command.c ****               break;
 4235              		.loc 1 1134 22 view .LVU913
 4236              	.LBE53:
 4237              	.LBE54:
1140:App/Src/fault_command.c ****           {
 4238              		.loc 1 1140 11 is_stmt 1 view .LVU914
1142:App/Src/fault_command.c ****           }
 4239              		.loc 1 1142 13 view .LVU915
1142:App/Src/fault_command.c ****           }
 4240              		.loc 1 1142 22 is_stmt 0 view .LVU916
 4241 0732 0398     		ldr	r0, [sp, #12]
 4242 0734 4246     		mov	r2, r8
 4243 0736 32B1     		cbz	r2, .L245
 4244              	.LVL454:
1142:App/Src/fault_command.c ****           }
 4245              		.loc 1 1142 22 discriminator 1 view .LVU917
 4246 0738 0121     		movs	r1, #1
 4247              	.L201:
ARM GAS  C:\Users\hh\AppData\Local\Temp\cc8MU7EM.s 			page 114


1142:App/Src/fault_command.c ****           }
 4248              		.loc 1 1142 22 discriminator 4 view .LVU918
 4249 073a DBB2     		uxtb	r3, r3
 4250 073c 06AA     		add	r2, sp, #24
 4251              	.LVL455:
1142:App/Src/fault_command.c ****           }
 4252              		.loc 1 1142 22 discriminator 4 view .LVU919
 4253 073e FFF7FEFF 		bl	BspCan_SendClassic
 4254              	.LVL456:
 4255 0742 0446     		mov	r4, r0
 4256              	.LVL457:
1142:App/Src/fault_command.c ****           }
 4257              		.loc 1 1142 22 discriminator 4 view .LVU920
 4258 0744 B0E4     		b	.L163
 4259              	.LVL458:
 4260              	.L245:
1142:App/Src/fault_command.c ****           }
 4261              		.loc 1 1142 22 discriminator 2 view .LVU921
 4262 0746 4146     		mov	r1, r8
 4263 0748 F7E7     		b	.L201
 4264              	.LVL459:
 4265              	.L243:
1142:App/Src/fault_command.c ****           }
 4266              		.loc 1 1142 22 discriminator 2 view .LVU922
 4267              	.LBE56:
 4268              	.LBE59:
 869:App/Src/fault_command.c **** 
 4269              		.loc 1 869 21 view .LVU923
 4270 074a 0123     		movs	r3, #1
 4271 074c 1C46     		mov	r4, r3
 4272              	.LVL460:
 869:App/Src/fault_command.c **** 
 4273              		.loc 1 869 21 view .LVU924
 4274 074e ABE4     		b	.L163
 4275              	.LVL461:
 4276              	.L240:
 869:App/Src/fault_command.c **** 
 4277              		.loc 1 869 21 view .LVU925
 4278 0750 0123     		movs	r3, #1
 4279 0752 1C46     		mov	r4, r3
 4280              	.LVL462:
 869:App/Src/fault_command.c **** 
 4281              		.loc 1 869 21 view .LVU926
 4282 0754 A8E4     		b	.L163
 4283              	.LVL463:
 4284              	.L264:
 4285              	.LBB60:
1150:App/Src/fault_command.c **** 
 4286              		.loc 1 1150 5 is_stmt 1 view .LVU927
1152:App/Src/fault_command.c ****     {
 4287              		.loc 1 1152 5 view .LVU928
1152:App/Src/fault_command.c ****     {
 4288              		.loc 1 1152 9 is_stmt 0 view .LVU929
 4289 0756 1023     		movs	r3, #16
 4290 0758 0AAA     		add	r2, sp, #40
 4291 075a 1F49     		ldr	r1, .L309+32
 4292 075c 2046     		mov	r0, r4
ARM GAS  C:\Users\hh\AppData\Local\Temp\cc8MU7EM.s 			page 115


 4293 075e FFF7FEFF 		bl	FaultCommand_JsonGetString
 4294              	.LVL464:
1152:App/Src/fault_command.c ****     {
 4295              		.loc 1 1152 8 discriminator 1 view .LVU930
 4296 0762 B0B1     		cbz	r0, .L246
1154:App/Src/fault_command.c ****       {
 4297              		.loc 1 1154 7 is_stmt 1 view .LVU931
1154:App/Src/fault_command.c ****       {
 4298              		.loc 1 1154 11 is_stmt 0 view .LVU932
 4299 0764 1D49     		ldr	r1, .L309+36
 4300 0766 0AA8     		add	r0, sp, #40
 4301 0768 FFF7FEFF 		bl	strcmp
 4302              	.LVL465:
1154:App/Src/fault_command.c ****       {
 4303              		.loc 1 1154 10 discriminator 1 view .LVU933
 4304 076c 38B1     		cbz	r0, .L303
1159:App/Src/fault_command.c ****       {
 4305              		.loc 1 1159 12 is_stmt 1 view .LVU934
1159:App/Src/fault_command.c ****       {
 4306              		.loc 1 1159 16 is_stmt 0 view .LVU935
 4307 076e 2149     		ldr	r1, .L309+60
 4308 0770 0AA8     		add	r0, sp, #40
 4309 0772 FFF7FEFF 		bl	strcmp
 4310              	.LVL466:
1159:App/Src/fault_command.c ****       {
 4311              		.loc 1 1159 15 discriminator 1 view .LVU936
 4312 0776 38B1     		cbz	r0, .L304
 4313              	.LBE60:
 869:App/Src/fault_command.c **** 
 4314              		.loc 1 869 21 view .LVU937
 4315 0778 0123     		movs	r3, #1
 4316 077a 1C46     		mov	r4, r3
 4317              	.LVL467:
 869:App/Src/fault_command.c **** 
 4318              		.loc 1 869 21 view .LVU938
 4319 077c 94E4     		b	.L163
 4320              	.LVL468:
 4321              	.L303:
 4322              	.LBB61:
1156:App/Src/fault_command.c ****         return;
 4323              		.loc 1 1156 9 is_stmt 1 view .LVU939
 4324 077e 3946     		mov	r1, r7
 4325 0780 3046     		mov	r0, r6
 4326 0782 FFF7FEFF 		bl	FaultCommand_WriteJsonBmsResponseLog
 4327              	.LVL469:
1157:App/Src/fault_command.c ****       }
 4328              		.loc 1 1157 9 view .LVU940
 4329 0786 95E4     		b	.L157
 4330              	.L304:
1161:App/Src/fault_command.c ****         status = HAL_OK;
 4331              		.loc 1 1161 9 view .LVU941
 4332 0788 FFF7FEFF 		bl	BmsResponseLog_Clear
 4333              	.LVL470:
1162:App/Src/fault_command.c ****       }
 4334              		.loc 1 1162 9 view .LVU942
1162:App/Src/fault_command.c ****       }
 4335              		.loc 1 1162 16 is_stmt 0 view .LVU943
ARM GAS  C:\Users\hh\AppData\Local\Temp\cc8MU7EM.s 			page 116


 4336 078c 0023     		movs	r3, #0
 4337 078e 1C46     		mov	r4, r3
 4338              	.LVL471:
1162:App/Src/fault_command.c ****       }
 4339              		.loc 1 1162 16 view .LVU944
 4340 0790 8AE4     		b	.L163
 4341              	.LVL472:
 4342              	.L246:
1162:App/Src/fault_command.c ****       }
 4343              		.loc 1 1162 16 view .LVU945
 4344              	.LBE61:
 869:App/Src/fault_command.c **** 
 4345              		.loc 1 869 21 view .LVU946
 4346 0792 0123     		movs	r3, #1
 4347 0794 1C46     		mov	r4, r3
 4348              	.LVL473:
 869:App/Src/fault_command.c **** 
 4349              		.loc 1 869 21 view .LVU947
 4350 0796 87E4     		b	.L163
 4351              	.LVL474:
 4352              	.L206:
1175:App/Src/fault_command.c ****     }
 4353              		.loc 1 1175 7 is_stmt 1 view .LVU948
1175:App/Src/fault_command.c ****     }
 4354              		.loc 1 1175 16 is_stmt 0 view .LVU949
 4355 0798 FFF7FEFF 		bl	VoltageSim_ClearAllFaults
 4356              	.LVL475:
 4357 079c 0446     		mov	r4, r0
 4358              	.LVL476:
1175:App/Src/fault_command.c ****     }
 4359              		.loc 1 1175 16 view .LVU950
 4360 079e 83E4     		b	.L163
 4361              	.LVL477:
 4362              	.L205:
1180:App/Src/fault_command.c ****     return;
 4363              		.loc 1 1180 5 is_stmt 1 view .LVU951
 4364 07a0 154A     		ldr	r2, .L309+64
 4365 07a2 3946     		mov	r1, r7
 4366 07a4 3046     		mov	r0, r6
 4367 07a6 FFF7FEFF 		bl	FaultCommand_Write
 4368              	.LVL478:
1181:App/Src/fault_command.c ****   }
 4369              		.loc 1 1181 5 view .LVU952
 4370 07aa 83E4     		b	.L157
 4371              	.L216:
 869:App/Src/fault_command.c **** 
 4372              		.loc 1 869 21 is_stmt 0 view .LVU953
 4373 07ac 0123     		movs	r3, #1
 4374 07ae 1C46     		mov	r4, r3
 4375              	.LVL479:
 869:App/Src/fault_command.c **** 
 4376              		.loc 1 869 21 view .LVU954
 4377 07b0 7AE4     		b	.L163
 4378              	.LVL480:
 4379              	.L234:
 869:App/Src/fault_command.c **** 
 4380              		.loc 1 869 21 view .LVU955
ARM GAS  C:\Users\hh\AppData\Local\Temp\cc8MU7EM.s 			page 117


 4381 07b2 0123     		movs	r3, #1
 4382 07b4 1C46     		mov	r4, r3
 4383              	.LVL481:
 869:App/Src/fault_command.c **** 
 4384              		.loc 1 869 21 view .LVU956
 4385 07b6 77E4     		b	.L163
 4386              	.L310:
 4387              		.align	2
 4388              	.L309:
 4389 07b8 48010000 		.word	.LC75
 4390 07bc 20020000 		.word	.LC93
 4391 07c0 28020000 		.word	.LC94
 4392 07c4 BC000000 		.word	.LC60
 4393 07c8 C4000000 		.word	.LC62
 4394 07cc 38010000 		.word	.LC73
 4395 07d0 24010000 		.word	.LC71
 4396 07d4 58010000 		.word	.LC77
 4397 07d8 AC010000 		.word	.LC85
 4398 07dc 2C000000 		.word	.LC56
 4399 07e0 34020000 		.word	.LC96
 4400 07e4 3C020000 		.word	.LC97
 4401 07e8 40020000 		.word	.LC98
 4402 07ec 44020000 		.word	.LC99
 4403 07f0 50020000 		.word	.LC100
 4404 07f4 10020000 		.word	.LC91
 4405 07f8 58020000 		.word	.LC102
 4406              		.cfi_endproc
 4407              	.LFE176:
 4409              		.section	.rodata.FaultCommand_ParseCanSendText.str1.4,"aMS",%progbits,1
 4410              		.align	2
 4411              	.LC103:
 4412 0000 63616E20 		.ascii	"can send %lx %u %n\000"
 4412      73656E64 
 4412      20256C78 
 4412      20257520 
 4412      256E00
 4413              		.section	.text.FaultCommand_ParseCanSendText,"ax",%progbits
 4414              		.align	1
 4415              		.syntax unified
 4416              		.thumb
 4417              		.thumb_func
 4419              	FaultCommand_ParseCanSendText:
 4420              	.LVL482:
 4421              	.LFB169:
 412:App/Src/fault_command.c ****   unsigned long id;
 4422              		.loc 1 412 1 is_stmt 1 view -0
 4423              		.cfi_startproc
 4424              		@ args = 0, pretend = 0, frame = 24
 4425              		@ frame_needed = 0, uses_anonymous_args = 0
 412:App/Src/fault_command.c ****   unsigned long id;
 4426              		.loc 1 412 1 is_stmt 0 view .LVU958
 4427 0000 30B5     		push	{r4, r5, lr}
 4428              	.LCFI70:
 4429              		.cfi_def_cfa_offset 12
 4430              		.cfi_offset 4, -12
 4431              		.cfi_offset 5, -8
 4432              		.cfi_offset 14, -4
ARM GAS  C:\Users\hh\AppData\Local\Temp\cc8MU7EM.s 			page 118


 4433 0002 89B0     		sub	sp, sp, #36
 4434              	.LCFI71:
 4435              		.cfi_def_cfa_offset 48
 4436 0004 0446     		mov	r4, r0
 413:App/Src/fault_command.c ****   unsigned int length;
 4437              		.loc 1 413 3 is_stmt 1 view .LVU959
 414:App/Src/fault_command.c ****   int consumed = 0;
 4438              		.loc 1 414 3 view .LVU960
 415:App/Src/fault_command.c ****   const char *cursor;
 4439              		.loc 1 415 3 view .LVU961
 415:App/Src/fault_command.c ****   const char *cursor;
 4440              		.loc 1 415 7 is_stmt 0 view .LVU962
 4441 0006 0023     		movs	r3, #0
 4442 0008 0593     		str	r3, [sp, #20]
 416:App/Src/fault_command.c ****   uint8_t data[BSP_CAN_MAX_DATA_LEN] = {0};
 4443              		.loc 1 416 3 is_stmt 1 view .LVU963
 417:App/Src/fault_command.c **** 
 4444              		.loc 1 417 3 view .LVU964
 417:App/Src/fault_command.c **** 
 4445              		.loc 1 417 11 is_stmt 0 view .LVU965
 4446 000a 0393     		str	r3, [sp, #12]
 4447 000c 0493     		str	r3, [sp, #16]
 419:App/Src/fault_command.c ****   {
 4448              		.loc 1 419 3 is_stmt 1 view .LVU966
 419:App/Src/fault_command.c ****   {
 4449              		.loc 1 419 7 is_stmt 0 view .LVU967
 4450 000e 05AB     		add	r3, sp, #20
 4451 0010 0093     		str	r3, [sp]
 4452 0012 06AB     		add	r3, sp, #24
 4453 0014 07AA     		add	r2, sp, #28
 4454 0016 1D49     		ldr	r1, .L322
 4455 0018 FFF7FEFF 		bl	sscanf
 4456              	.LVL483:
 419:App/Src/fault_command.c ****   {
 4457              		.loc 1 419 6 discriminator 1 view .LVU968
 4458 001c 0128     		cmp	r0, #1
 4459 001e 2DDD     		ble	.L316
 424:App/Src/fault_command.c ****   {
 4460              		.loc 1 424 3 is_stmt 1 view .LVU969
 424:App/Src/fault_command.c ****   {
 4461              		.loc 1 424 11 is_stmt 0 view .LVU970
 4462 0020 079B     		ldr	r3, [sp, #28]
 424:App/Src/fault_command.c ****   {
 4463              		.loc 1 424 6 view .LVU971
 4464 0022 B3F5006F 		cmp	r3, #2048
 4465 0026 2CD2     		bcs	.L317
 424:App/Src/fault_command.c ****   {
 4466              		.loc 1 424 33 discriminator 1 view .LVU972
 4467 0028 069B     		ldr	r3, [sp, #24]
 424:App/Src/fault_command.c ****   {
 4468              		.loc 1 424 22 discriminator 1 view .LVU973
 4469 002a 082B     		cmp	r3, #8
 4470 002c 2BD8     		bhi	.L318
 429:App/Src/fault_command.c ****   for (uint8_t index = 0U; index < length; index++)
 4471              		.loc 1 429 3 is_stmt 1 view .LVU974
 429:App/Src/fault_command.c ****   for (uint8_t index = 0U; index < length; index++)
 4472              		.loc 1 429 17 is_stmt 0 view .LVU975
ARM GAS  C:\Users\hh\AppData\Local\Temp\cc8MU7EM.s 			page 119


 4473 002e 059B     		ldr	r3, [sp, #20]
 429:App/Src/fault_command.c ****   for (uint8_t index = 0U; index < length; index++)
 4474              		.loc 1 429 10 view .LVU976
 4475 0030 E018     		adds	r0, r4, r3
 4476              	.LVL484:
 430:App/Src/fault_command.c ****   {
 4477              		.loc 1 430 3 is_stmt 1 view .LVU977
 4478              	.LBB62:
 430:App/Src/fault_command.c ****   {
 4479              		.loc 1 430 8 view .LVU978
 430:App/Src/fault_command.c ****   {
 4480              		.loc 1 430 16 is_stmt 0 view .LVU979
 4481 0032 0024     		movs	r4, #0
 4482              	.LVL485:
 430:App/Src/fault_command.c ****   {
 4483              		.loc 1 430 3 view .LVU980
 4484 0034 06E0     		b	.L313
 4485              	.LVL486:
 4486              	.L321:
 4487              	.LBB63:
 447:App/Src/fault_command.c ****     cursor = endPtr;
 4488              		.loc 1 447 5 is_stmt 1 view .LVU981
 447:App/Src/fault_command.c ****     cursor = endPtr;
 4489              		.loc 1 447 17 is_stmt 0 view .LVU982
 4490 0036 04F12002 		add	r2, r4, #32
 4491 003a 6A44     		add	r2, sp, r2
 4492 003c 02F8143C 		strb	r3, [r2, #-20]
 448:App/Src/fault_command.c ****   }
 4493              		.loc 1 448 5 is_stmt 1 view .LVU983
 4494              	.LVL487:
 448:App/Src/fault_command.c ****   }
 4495              		.loc 1 448 5 is_stmt 0 view .LVU984
 4496              	.LBE63:
 430:App/Src/fault_command.c ****   {
 4497              		.loc 1 430 49 is_stmt 1 discriminator 2 view .LVU985
 4498 0040 0134     		adds	r4, r4, #1
 4499              	.LVL488:
 430:App/Src/fault_command.c ****   {
 4500              		.loc 1 430 49 is_stmt 0 discriminator 2 view .LVU986
 4501 0042 E4B2     		uxtb	r4, r4
 4502              	.LVL489:
 4503              	.L313:
 430:App/Src/fault_command.c ****   {
 4504              		.loc 1 430 34 is_stmt 1 discriminator 1 view .LVU987
 4505 0044 069B     		ldr	r3, [sp, #24]
 4506 0046 9C42     		cmp	r4, r3
 4507 0048 11D2     		bcs	.L320
 4508              	.LBB64:
 432:App/Src/fault_command.c ****     unsigned long value;
 4509              		.loc 1 432 5 view .LVU988
 433:App/Src/fault_command.c **** 
 4510              		.loc 1 433 5 view .LVU989
 435:App/Src/fault_command.c ****     if ((cursor == NULL) || (*cursor == '\0'))
 4511              		.loc 1 435 5 view .LVU990
 435:App/Src/fault_command.c ****     if ((cursor == NULL) || (*cursor == '\0'))
 4512              		.loc 1 435 14 is_stmt 0 view .LVU991
 4513 004a FFF7FEFF 		bl	FaultCommand_SkipSpaces
ARM GAS  C:\Users\hh\AppData\Local\Temp\cc8MU7EM.s 			page 120


 4514              	.LVL490:
 436:App/Src/fault_command.c ****     {
 4515              		.loc 1 436 5 is_stmt 1 view .LVU992
 436:App/Src/fault_command.c ****     {
 4516              		.loc 1 436 8 is_stmt 0 view .LVU993
 4517 004e 0546     		mov	r5, r0
 4518 0050 58B1     		cbz	r0, .L314
 436:App/Src/fault_command.c ****     {
 4519              		.loc 1 436 30 discriminator 1 view .LVU994
 4520 0052 0378     		ldrb	r3, [r0]	@ zero_extendqisi2
 436:App/Src/fault_command.c ****     {
 4521              		.loc 1 436 26 discriminator 1 view .LVU995
 4522 0054 4BB1     		cbz	r3, .L314
 441:App/Src/fault_command.c ****     if ((endPtr == cursor) || (value > 0xFFUL))
 4523              		.loc 1 441 5 is_stmt 1 view .LVU996
 441:App/Src/fault_command.c ****     if ((endPtr == cursor) || (value > 0xFFUL))
 4524              		.loc 1 441 13 is_stmt 0 view .LVU997
 4525 0056 1022     		movs	r2, #16
 4526 0058 02A9     		add	r1, sp, #8
 4527 005a FFF7FEFF 		bl	strtoul
 4528              	.LVL491:
 441:App/Src/fault_command.c ****     if ((endPtr == cursor) || (value > 0xFFUL))
 4529              		.loc 1 441 13 view .LVU998
 4530 005e 0346     		mov	r3, r0
 4531              	.LVL492:
 442:App/Src/fault_command.c ****     {
 4532              		.loc 1 442 5 is_stmt 1 view .LVU999
 442:App/Src/fault_command.c ****     {
 4533              		.loc 1 442 17 is_stmt 0 view .LVU1000
 4534 0060 0298     		ldr	r0, [sp, #8]
 4535              	.LVL493:
 442:App/Src/fault_command.c ****     {
 4536              		.loc 1 442 8 view .LVU1001
 4537 0062 A842     		cmp	r0, r5
 4538 0064 01D0     		beq	.L314
 442:App/Src/fault_command.c ****     {
 4539              		.loc 1 442 28 discriminator 1 view .LVU1002
 4540 0066 FF2B     		cmp	r3, #255
 4541 0068 E5D9     		bls	.L321
 4542              	.LVL494:
 4543              	.L314:
 438:App/Src/fault_command.c ****     }
 4544              		.loc 1 438 14 discriminator 1 view .LVU1003
 4545 006a 0120     		movs	r0, #1
 4546 006c 07E0     		b	.L312
 4547              	.LVL495:
 4548              	.L320:
 438:App/Src/fault_command.c ****     }
 4549              		.loc 1 438 14 discriminator 1 view .LVU1004
 4550              	.LBE64:
 4551              	.LBE62:
 451:App/Src/fault_command.c **** }
 4552              		.loc 1 451 3 is_stmt 1 view .LVU1005
 451:App/Src/fault_command.c **** }
 4553              		.loc 1 451 10 is_stmt 0 view .LVU1006
 4554 006e DBB2     		uxtb	r3, r3
 4555 0070 03AA     		add	r2, sp, #12
ARM GAS  C:\Users\hh\AppData\Local\Temp\cc8MU7EM.s 			page 121


 4556 0072 0021     		movs	r1, #0
 4557 0074 0798     		ldr	r0, [sp, #28]
 4558              	.LVL496:
 451:App/Src/fault_command.c **** }
 4559              		.loc 1 451 10 view .LVU1007
 4560 0076 FFF7FEFF 		bl	BspCan_SendClassic
 4561              	.LVL497:
 4562 007a 00E0     		b	.L312
 4563              	.LVL498:
 4564              	.L316:
 421:App/Src/fault_command.c ****   }
 4565              		.loc 1 421 12 view .LVU1008
 4566 007c 0120     		movs	r0, #1
 4567              	.LVL499:
 4568              	.L312:
 452:App/Src/fault_command.c **** 
 4569              		.loc 1 452 1 view .LVU1009
 4570 007e 09B0     		add	sp, sp, #36
 4571              	.LCFI72:
 4572              		.cfi_remember_state
 4573              		.cfi_def_cfa_offset 12
 4574              		@ sp needed
 4575 0080 30BD     		pop	{r4, r5, pc}
 4576              	.LVL500:
 4577              	.L317:
 4578              	.LCFI73:
 4579              		.cfi_restore_state
 426:App/Src/fault_command.c ****   }
 4580              		.loc 1 426 12 view .LVU1010
 4581 0082 0120     		movs	r0, #1
 4582 0084 FBE7     		b	.L312
 4583              	.L318:
 4584 0086 0120     		movs	r0, #1
 4585 0088 F9E7     		b	.L312
 4586              	.L323:
 4587 008a 00BF     		.align	2
 4588              	.L322:
 4589 008c 00000000 		.word	.LC103
 4590              		.cfi_endproc
 4591              	.LFE169:
 4593              		.section	.rodata.FaultCommand_ExecuteText.str1.4,"aMS",%progbits,1
 4594              		.align	2
 4595              	.LC104:
 4596 0000 3F00     		.ascii	"?\000"
 4597 0002 0000     		.align	2
 4598              	.LC105:
 4599 0004 6E6F726D 		.ascii	"normal %u\000"
 4599      616C2025 
 4599      7500
 4600 000e 0000     		.align	2
 4601              	.LC106:
 4602 0010 73657420 		.ascii	"set %u %u\000"
 4602      25752025 
 4602      7500
 4603 001a 0000     		.align	2
 4604              	.LC107:
 4605 001c 6F762000 		.ascii	"ov \000"
ARM GAS  C:\Users\hh\AppData\Local\Temp\cc8MU7EM.s 			page 122


 4606              		.align	2
 4607              	.LC108:
 4608 0020 6F762025 		.ascii	"ov %u %u %lu %u\000"
 4608      75202575 
 4608      20256C75 
 4608      20257500 
 4609              		.align	2
 4610              	.LC109:
 4611 0030 75762000 		.ascii	"uv \000"
 4612              		.align	2
 4613              	.LC110:
 4614 0034 75762025 		.ascii	"uv %u %u %lu %u\000"
 4614      75202575 
 4614      20256C75 
 4614      20257500 
 4615              		.align	2
 4616              	.LC111:
 4617 0044 64696666 		.ascii	"diff \000"
 4617      2000
 4618 004a 0000     		.align	2
 4619              	.LC112:
 4620 004c 64696666 		.ascii	"diff %u %u %u %u %lu %u\000"
 4620      20257520 
 4620      25752025 
 4620      75202575 
 4620      20256C75 
 4621              		.align	2
 4622              	.LC113:
 4623 0064 77617665 		.ascii	"wave status\000"
 4623      20737461 
 4623      74757300 
 4624              		.align	2
 4625              	.LC114:
 4626 0070 77617665 		.ascii	"wave stop\000"
 4626      2073746F 
 4626      7000
 4627 007a 0000     		.align	2
 4628              	.LC115:
 4629 007c 77617665 		.ascii	"wave square \000"
 4629      20737175 
 4629      61726520 
 4629      00
 4630 0089 000000   		.align	2
 4631              	.LC116:
 4632 008c 77617665 		.ascii	"wave square %u %u %u %lu\000"
 4632      20737175 
 4632      61726520 
 4632      25752025 
 4632      75202575 
 4633 00a5 000000   		.align	2
 4634              	.LC117:
 4635 00a8 77617665 		.ascii	"wave sine all \000"
 4635      2073696E 
 4635      6520616C 
 4635      6C2000
 4636 00b7 00       		.align	2
 4637              	.LC118:
ARM GAS  C:\Users\hh\AppData\Local\Temp\cc8MU7EM.s 			page 123


 4638 00b8 77617665 		.ascii	"wave sine all %u %u %lu\000"
 4638      2073696E 
 4638      6520616C 
 4638      6C202575 
 4638      20257520 
 4639              		.align	2
 4640              	.LC119:
 4641 00d0 77617665 		.ascii	"wave sine \000"
 4641      2073696E 
 4641      652000
 4642 00db 00       		.align	2
 4643              	.LC120:
 4644 00dc 77617665 		.ascii	"wave sine %u %u %u %lu\000"
 4644      2073696E 
 4644      65202575 
 4644      20257520 
 4644      25752025 
 4645 00f3 00       		.align	2
 4646              	.LC121:
 4647 00f4 63616C20 		.ascii	"cal status\000"
 4647      73746174 
 4647      757300
 4648 00ff 00       		.align	2
 4649              	.LC122:
 4650 0100 63616C20 		.ascii	"cal set \000"
 4650      73657420 
 4650      00
 4651 0109 000000   		.align	2
 4652              	.LC123:
 4653 010c 63616C20 		.ascii	"cal set %u %d\000"
 4653      73657420 
 4653      25752025 
 4653      6400
 4654 011a 0000     		.align	2
 4655              	.LC124:
 4656 011c 63616C20 		.ascii	"cal trim \000"
 4656      7472696D 
 4656      2000
 4657 0126 0000     		.align	2
 4658              	.LC125:
 4659 0128 63616C20 		.ascii	"cal trim %u %u %u\000"
 4659      7472696D 
 4659      20257520 
 4659      25752025 
 4659      7500
 4660 013a 0000     		.align	2
 4661              	.LC126:
 4662 013c 63616C20 		.ascii	"cal clear\000"
 4662      636C6561 
 4662      7200
 4663 0146 0000     		.align	2
 4664              	.LC127:
 4665 0148 63616C20 		.ascii	"cal clear %u\000"
 4665      636C6561 
 4665      72202575 
 4665      00
 4666 0155 000000   		.align	2
ARM GAS  C:\Users\hh\AppData\Local\Temp\cc8MU7EM.s 			page 124


 4667              	.LC128:
 4668 0158 74657374 		.ascii	"test static \000"
 4668      20737461 
 4668      74696320 
 4668      00
 4669 0165 000000   		.align	2
 4670              	.LC129:
 4671 0168 74657374 		.ascii	"test static %u\000"
 4671      20737461 
 4671      74696320 
 4671      257500
 4672 0177 00       		.align	2
 4673              	.LC130:
 4674 0178 74657374 		.ascii	"test slew \000"
 4674      20736C65 
 4674      772000
 4675 0183 00       		.align	2
 4676              	.LC131:
 4677 0184 74657374 		.ascii	"test slew %u %u %u %lu\000"
 4677      20736C65 
 4677      77202575 
 4677      20257520 
 4677      25752025 
 4678 019b 00       		.align	2
 4679              	.LC132:
 4680 019c 63616E20 		.ascii	"can status\000"
 4680      73746174 
 4680      757300
 4681 01a7 00       		.align	2
 4682              	.LC133:
 4683 01a8 63616E20 		.ascii	"can send \000"
 4683      73656E64 
 4683      2000
 4684 01b2 0000     		.align	2
 4685              	.LC134:
 4686 01b4 6C6F6720 		.ascii	"log status\000"
 4686      73746174 
 4686      757300
 4687 01bf 00       		.align	2
 4688              	.LC135:
 4689 01c0 6C6F6720 		.ascii	"log clear\000"
 4689      636C6561 
 4689      7200
 4690 01ca 0000     		.align	2
 4691              	.LC136:
 4692 01cc 636C6561 		.ascii	"clear %u\000"
 4692      72202575 
 4692      00
 4693 01d5 000000   		.align	2
 4694              	.LC137:
 4695 01d8 5B636D64 		.ascii	"[cmd] unknown: %s\015\012\000"
 4695      5D20756E 
 4695      6B6E6F77 
 4695      6E3A2025 
 4695      730D0A00 
 4696              		.section	.text.FaultCommand_ExecuteText,"ax",%progbits
 4697              		.align	1
ARM GAS  C:\Users\hh\AppData\Local\Temp\cc8MU7EM.s 			page 125


 4698              		.syntax unified
 4699              		.thumb
 4700              		.thumb_func
 4702              	FaultCommand_ExecuteText:
 4703              	.LVL501:
 4704              	.LFB170:
 455:App/Src/fault_command.c ****   unsigned int cell;
 4705              		.loc 1 455 1 is_stmt 1 view -0
 4706              		.cfi_startproc
 4707              		@ args = 0, pretend = 0, frame = 64
 4708              		@ frame_needed = 0, uses_anonymous_args = 0
 455:App/Src/fault_command.c ****   unsigned int cell;
 4709              		.loc 1 455 1 is_stmt 0 view .LVU1012
 4710 0000 70B5     		push	{r4, r5, r6, lr}
 4711              	.LCFI74:
 4712              		.cfi_def_cfa_offset 16
 4713              		.cfi_offset 4, -16
 4714              		.cfi_offset 5, -12
 4715              		.cfi_offset 6, -8
 4716              		.cfi_offset 14, -4
 4717 0002 94B0     		sub	sp, sp, #80
 4718              	.LCFI75:
 4719              		.cfi_def_cfa_offset 96
 4720 0004 0446     		mov	r4, r0
 4721 0006 0D46     		mov	r5, r1
 4722 0008 1646     		mov	r6, r2
 456:App/Src/fault_command.c ****   unsigned int millivolts;
 4723              		.loc 1 456 3 is_stmt 1 view .LVU1013
 457:App/Src/fault_command.c ****   unsigned int target;
 4724              		.loc 1 457 3 view .LVU1014
 458:App/Src/fault_command.c ****   unsigned long duration;
 4725              		.loc 1 458 3 view .LVU1015
 459:App/Src/fault_command.c ****   unsigned int slew;
 4726              		.loc 1 459 3 view .LVU1016
 460:App/Src/fault_command.c ****   unsigned int lowMv;
 4727              		.loc 1 460 3 view .LVU1017
 461:App/Src/fault_command.c ****   unsigned int highMv;
 4728              		.loc 1 461 3 view .LVU1018
 462:App/Src/fault_command.c ****   unsigned int centerMv;
 4729              		.loc 1 462 3 view .LVU1019
 463:App/Src/fault_command.c ****   unsigned int amplitudeMv;
 4730              		.loc 1 463 3 view .LVU1020
 464:App/Src/fault_command.c ****   unsigned long periodMs;
 4731              		.loc 1 464 3 view .LVU1021
 465:App/Src/fault_command.c ****   int calOffsetMv;
 4732              		.loc 1 465 3 view .LVU1022
 466:App/Src/fault_command.c ****   unsigned int measuredMv;
 4733              		.loc 1 466 3 view .LVU1023
 467:App/Src/fault_command.c **** 
 4734              		.loc 1 467 3 view .LVU1024
 469:App/Src/fault_command.c ****   {
 4735              		.loc 1 469 3 view .LVU1025
 469:App/Src/fault_command.c ****   {
 4736              		.loc 1 469 8 is_stmt 0 view .LVU1026
 4737 000a 9E49     		ldr	r1, .L391
 4738              	.LVL502:
 469:App/Src/fault_command.c ****   {
ARM GAS  C:\Users\hh\AppData\Local\Temp\cc8MU7EM.s 			page 126


 4739              		.loc 1 469 8 view .LVU1027
 4740 000c FFF7FEFF 		bl	strcmp
 4741              	.LVL503:
 469:App/Src/fault_command.c ****   {
 4742              		.loc 1 469 6 discriminator 1 view .LVU1028
 4743 0010 20B1     		cbz	r0, .L325
 469:App/Src/fault_command.c ****   {
 4744              		.loc 1 469 39 discriminator 2 view .LVU1029
 4745 0012 9D49     		ldr	r1, .L391+4
 4746 0014 2046     		mov	r0, r4
 4747 0016 FFF7FEFF 		bl	strcmp
 4748              	.LVL504:
 469:App/Src/fault_command.c ****   {
 4749              		.loc 1 469 35 discriminator 3 view .LVU1030
 4750 001a 28B9     		cbnz	r0, .L326
 4751              	.L325:
 471:App/Src/fault_command.c ****   }
 4752              		.loc 1 471 5 is_stmt 1 view .LVU1031
 4753 001c 3146     		mov	r1, r6
 4754 001e 2846     		mov	r0, r5
 4755 0020 FFF7FEFF 		bl	FaultCommand_WriteTextHelp
 4756              	.LVL505:
 4757              	.L324:
 753:App/Src/fault_command.c **** 
 4758              		.loc 1 753 1 is_stmt 0 view .LVU1032
 4759 0024 14B0     		add	sp, sp, #80
 4760              	.LCFI76:
 4761              		.cfi_remember_state
 4762              		.cfi_def_cfa_offset 16
 4763              		@ sp needed
 4764 0026 70BD     		pop	{r4, r5, r6, pc}
 4765              	.LVL506:
 4766              	.L326:
 4767              	.LCFI77:
 4768              		.cfi_restore_state
 473:App/Src/fault_command.c ****   {
 4769              		.loc 1 473 8 is_stmt 1 view .LVU1033
 473:App/Src/fault_command.c ****   {
 4770              		.loc 1 473 12 is_stmt 0 view .LVU1034
 4771 0028 9849     		ldr	r1, .L391+8
 4772 002a 2046     		mov	r0, r4
 4773 002c FFF7FEFF 		bl	strcmp
 4774              	.LVL507:
 473:App/Src/fault_command.c ****   {
 4775              		.loc 1 473 11 discriminator 1 view .LVU1035
 4776 0030 C0B1     		cbz	r0, .L365
 477:App/Src/fault_command.c ****   {
 4777              		.loc 1 477 8 is_stmt 1 view .LVU1036
 477:App/Src/fault_command.c ****   {
 4778              		.loc 1 477 12 is_stmt 0 view .LVU1037
 4779 0032 0622     		movs	r2, #6
 4780 0034 9649     		ldr	r1, .L391+12
 4781 0036 2046     		mov	r0, r4
 4782 0038 FFF7FEFF 		bl	strncmp
 4783              	.LVL508:
 477:App/Src/fault_command.c ****   {
 4784              		.loc 1 477 11 discriminator 1 view .LVU1038
ARM GAS  C:\Users\hh\AppData\Local\Temp\cc8MU7EM.s 			page 127


 4785 003c B8B9     		cbnz	r0, .L329
 479:App/Src/fault_command.c ****     (void)sscanf(line, "normal %u", &millivolts);
 4786              		.loc 1 479 5 is_stmt 1 view .LVU1039
 479:App/Src/fault_command.c ****     (void)sscanf(line, "normal %u", &millivolts);
 4787              		.loc 1 479 16 is_stmt 0 view .LVU1040
 4788 003e 4FF44863 		mov	r3, #3200
 4789 0042 1293     		str	r3, [sp, #72]
 480:App/Src/fault_command.c ****     FaultCommand_WriteTextResult(write,
 4790              		.loc 1 480 5 is_stmt 1 view .LVU1041
 480:App/Src/fault_command.c ****     FaultCommand_WriteTextResult(write,
 4791              		.loc 1 480 11 is_stmt 0 view .LVU1042
 4792 0044 12AA     		add	r2, sp, #72
 4793 0046 9349     		ldr	r1, .L391+16
 4794 0048 2046     		mov	r0, r4
 4795 004a FFF7FEFF 		bl	sscanf
 4796              	.LVL509:
 481:App/Src/fault_command.c ****                                  context,
 4797              		.loc 1 481 5 is_stmt 1 view .LVU1043
 4798 004e BDF84800 		ldrh	r0, [sp, #72]
 4799 0052 FFF7FEFF 		bl	FaultCommand_RunNormal
 4800              	.LVL510:
 4801 0056 0346     		mov	r3, r0
 481:App/Src/fault_command.c ****                                  context,
 4802              		.loc 1 481 5 is_stmt 0 discriminator 1 view .LVU1044
 4803 0058 8D4A     		ldr	r2, .L391+12
 4804 005a 3146     		mov	r1, r6
 4805 005c 2846     		mov	r0, r5
 4806 005e FFF7FEFF 		bl	FaultCommand_WriteTextResult
 4807              	.LVL511:
 4808 0062 DFE7     		b	.L324
 4809              	.L365:
 475:App/Src/fault_command.c ****   }
 4810              		.loc 1 475 5 is_stmt 1 view .LVU1045
 4811 0064 3146     		mov	r1, r6
 4812 0066 2846     		mov	r0, r5
 4813 0068 FFF7FEFF 		bl	FaultCommand_WriteTextStatus
 4814              	.LVL512:
 4815 006c DAE7     		b	.L324
 4816              	.L329:
 486:App/Src/fault_command.c ****   {
 4817              		.loc 1 486 8 view .LVU1046
 486:App/Src/fault_command.c ****   {
 4818              		.loc 1 486 12 is_stmt 0 view .LVU1047
 4819 006e 12AB     		add	r3, sp, #72
 4820 0070 13AA     		add	r2, sp, #76
 4821 0072 8949     		ldr	r1, .L391+20
 4822 0074 2046     		mov	r0, r4
 4823 0076 FFF7FEFF 		bl	sscanf
 4824              	.LVL513:
 486:App/Src/fault_command.c ****   {
 4825              		.loc 1 486 11 discriminator 1 view .LVU1048
 4826 007a 0228     		cmp	r0, #2
 4827 007c 00F09D80 		beq	.L366
 493:App/Src/fault_command.c ****   {
 4828              		.loc 1 493 8 is_stmt 1 view .LVU1049
 493:App/Src/fault_command.c ****   {
 4829              		.loc 1 493 12 is_stmt 0 view .LVU1050
ARM GAS  C:\Users\hh\AppData\Local\Temp\cc8MU7EM.s 			page 128


 4830 0080 0322     		movs	r2, #3
 4831 0082 8649     		ldr	r1, .L391+24
 4832 0084 2046     		mov	r0, r4
 4833 0086 FFF7FEFF 		bl	strncmp
 4834              	.LVL514:
 493:App/Src/fault_command.c ****   {
 4835              		.loc 1 493 11 discriminator 1 view .LVU1051
 4836 008a 0028     		cmp	r0, #0
 4837 008c 00F0A280 		beq	.L367
 513:App/Src/fault_command.c ****   {
 4838              		.loc 1 513 8 is_stmt 1 view .LVU1052
 513:App/Src/fault_command.c ****   {
 4839              		.loc 1 513 12 is_stmt 0 view .LVU1053
 4840 0090 0322     		movs	r2, #3
 4841 0092 8349     		ldr	r1, .L391+28
 4842 0094 2046     		mov	r0, r4
 4843 0096 FFF7FEFF 		bl	strncmp
 4844              	.LVL515:
 513:App/Src/fault_command.c ****   {
 4845              		.loc 1 513 11 discriminator 1 view .LVU1054
 4846 009a 0028     		cmp	r0, #0
 4847 009c 00F0C680 		beq	.L368
 533:App/Src/fault_command.c ****   {
 4848              		.loc 1 533 8 is_stmt 1 view .LVU1055
 533:App/Src/fault_command.c ****   {
 4849              		.loc 1 533 12 is_stmt 0 view .LVU1056
 4850 00a0 0522     		movs	r2, #5
 4851 00a2 8049     		ldr	r1, .L391+32
 4852 00a4 2046     		mov	r0, r4
 4853 00a6 FFF7FEFF 		bl	strncmp
 4854              	.LVL516:
 533:App/Src/fault_command.c ****   {
 4855              		.loc 1 533 11 discriminator 1 view .LVU1057
 4856 00aa 0028     		cmp	r0, #0
 4857 00ac 00F02881 		beq	.L369
 565:App/Src/fault_command.c ****   {
 4858              		.loc 1 565 8 is_stmt 1 view .LVU1058
 565:App/Src/fault_command.c ****   {
 4859              		.loc 1 565 12 is_stmt 0 view .LVU1059
 4860 00b0 7D49     		ldr	r1, .L391+36
 4861 00b2 2046     		mov	r0, r4
 4862 00b4 FFF7FEFF 		bl	strcmp
 4863              	.LVL517:
 565:App/Src/fault_command.c ****   {
 4864              		.loc 1 565 11 discriminator 1 view .LVU1060
 4865 00b8 0028     		cmp	r0, #0
 4866 00ba 00F05381 		beq	.L370
 569:App/Src/fault_command.c ****   {
 4867              		.loc 1 569 8 is_stmt 1 view .LVU1061
 569:App/Src/fault_command.c ****   {
 4868              		.loc 1 569 12 is_stmt 0 view .LVU1062
 4869 00be 7B49     		ldr	r1, .L391+40
 4870 00c0 2046     		mov	r0, r4
 4871 00c2 FFF7FEFF 		bl	strcmp
 4872              	.LVL518:
 569:App/Src/fault_command.c ****   {
 4873              		.loc 1 569 11 discriminator 1 view .LVU1063
ARM GAS  C:\Users\hh\AppData\Local\Temp\cc8MU7EM.s 			page 129


 4874 00c6 0028     		cmp	r0, #0
 4875 00c8 00F05181 		beq	.L371
 574:App/Src/fault_command.c ****   {
 4876              		.loc 1 574 8 is_stmt 1 view .LVU1064
 574:App/Src/fault_command.c ****   {
 4877              		.loc 1 574 12 is_stmt 0 view .LVU1065
 4878 00cc 0C22     		movs	r2, #12
 4879 00ce 7849     		ldr	r1, .L391+44
 4880 00d0 2046     		mov	r0, r4
 4881 00d2 FFF7FEFF 		bl	strncmp
 4882              	.LVL519:
 574:App/Src/fault_command.c ****   {
 4883              		.loc 1 574 11 discriminator 1 view .LVU1066
 4884 00d6 0028     		cmp	r0, #0
 4885 00d8 00F05281 		beq	.L372
 595:App/Src/fault_command.c ****   {
 4886              		.loc 1 595 8 is_stmt 1 view .LVU1067
 595:App/Src/fault_command.c ****   {
 4887              		.loc 1 595 12 is_stmt 0 view .LVU1068
 4888 00dc 0E22     		movs	r2, #14
 4889 00de 7549     		ldr	r1, .L391+48
 4890 00e0 2046     		mov	r0, r4
 4891 00e2 FFF7FEFF 		bl	strncmp
 4892              	.LVL520:
 595:App/Src/fault_command.c ****   {
 4893              		.loc 1 595 11 discriminator 1 view .LVU1069
 4894 00e6 0028     		cmp	r0, #0
 4895 00e8 00F06D81 		beq	.L373
 614:App/Src/fault_command.c ****   {
 4896              		.loc 1 614 8 is_stmt 1 view .LVU1070
 614:App/Src/fault_command.c ****   {
 4897              		.loc 1 614 12 is_stmt 0 view .LVU1071
 4898 00ec 0A22     		movs	r2, #10
 4899 00ee 7249     		ldr	r1, .L391+52
 4900 00f0 2046     		mov	r0, r4
 4901 00f2 FFF7FEFF 		bl	strncmp
 4902              	.LVL521:
 614:App/Src/fault_command.c ****   {
 4903              		.loc 1 614 11 discriminator 1 view .LVU1072
 4904 00f6 0028     		cmp	r0, #0
 4905 00f8 00F08481 		beq	.L374
 635:App/Src/fault_command.c ****   {
 4906              		.loc 1 635 8 is_stmt 1 view .LVU1073
 635:App/Src/fault_command.c ****   {
 4907              		.loc 1 635 12 is_stmt 0 view .LVU1074
 4908 00fc 6F49     		ldr	r1, .L391+56
 4909 00fe 2046     		mov	r0, r4
 4910 0100 FFF7FEFF 		bl	strcmp
 4911              	.LVL522:
 635:App/Src/fault_command.c ****   {
 4912              		.loc 1 635 11 discriminator 1 view .LVU1075
 4913 0104 0028     		cmp	r0, #0
 4914 0106 00F0A081 		beq	.L375
 639:App/Src/fault_command.c ****   {
 4915              		.loc 1 639 8 is_stmt 1 view .LVU1076
 639:App/Src/fault_command.c ****   {
 4916              		.loc 1 639 12 is_stmt 0 view .LVU1077
ARM GAS  C:\Users\hh\AppData\Local\Temp\cc8MU7EM.s 			page 130


 4917 010a 0822     		movs	r2, #8
 4918 010c 6C49     		ldr	r1, .L391+60
 4919 010e 2046     		mov	r0, r4
 4920 0110 FFF7FEFF 		bl	strncmp
 4921              	.LVL523:
 639:App/Src/fault_command.c ****   {
 4922              		.loc 1 639 11 discriminator 1 view .LVU1078
 4923 0114 0028     		cmp	r0, #0
 4924 0116 00F09D81 		beq	.L376
 653:App/Src/fault_command.c ****   {
 4925              		.loc 1 653 8 is_stmt 1 view .LVU1079
 653:App/Src/fault_command.c ****   {
 4926              		.loc 1 653 12 is_stmt 0 view .LVU1080
 4927 011a 0922     		movs	r2, #9
 4928 011c 6949     		ldr	r1, .L391+64
 4929 011e 2046     		mov	r0, r4
 4930 0120 FFF7FEFF 		bl	strncmp
 4931              	.LVL524:
 653:App/Src/fault_command.c ****   {
 4932              		.loc 1 653 11 discriminator 1 view .LVU1081
 4933 0124 0028     		cmp	r0, #0
 4934 0126 00F0B181 		beq	.L377
 668:App/Src/fault_command.c ****   {
 4935              		.loc 1 668 8 is_stmt 1 view .LVU1082
 668:App/Src/fault_command.c ****   {
 4936              		.loc 1 668 12 is_stmt 0 view .LVU1083
 4937 012a 0922     		movs	r2, #9
 4938 012c 6649     		ldr	r1, .L391+68
 4939 012e 2046     		mov	r0, r4
 4940 0130 FFF7FEFF 		bl	strncmp
 4941              	.LVL525:
 668:App/Src/fault_command.c ****   {
 4942              		.loc 1 668 11 discriminator 1 view .LVU1084
 4943 0134 0028     		cmp	r0, #0
 4944 0136 00F0C981 		beq	.L378
 683:App/Src/fault_command.c ****   {
 4945              		.loc 1 683 8 is_stmt 1 view .LVU1085
 683:App/Src/fault_command.c ****   {
 4946              		.loc 1 683 12 is_stmt 0 view .LVU1086
 4947 013a 0C22     		movs	r2, #12
 4948 013c 6349     		ldr	r1, .L391+72
 4949 013e 2046     		mov	r0, r4
 4950 0140 FFF7FEFF 		bl	strncmp
 4951              	.LVL526:
 683:App/Src/fault_command.c ****   {
 4952              		.loc 1 683 11 discriminator 1 view .LVU1087
 4953 0144 0028     		cmp	r0, #0
 4954 0146 00F0DC81 		beq	.L379
 696:App/Src/fault_command.c ****   {
 4955              		.loc 1 696 8 is_stmt 1 view .LVU1088
 696:App/Src/fault_command.c ****   {
 4956              		.loc 1 696 12 is_stmt 0 view .LVU1089
 4957 014a 0A22     		movs	r2, #10
 4958 014c 6049     		ldr	r1, .L391+76
 4959 014e 2046     		mov	r0, r4
 4960 0150 FFF7FEFF 		bl	strncmp
 4961              	.LVL527:
ARM GAS  C:\Users\hh\AppData\Local\Temp\cc8MU7EM.s 			page 131


 696:App/Src/fault_command.c ****   {
 4962              		.loc 1 696 11 discriminator 1 view .LVU1090
 4963 0154 0028     		cmp	r0, #0
 4964 0156 00F0ED81 		beq	.L380
 717:App/Src/fault_command.c ****   {
 4965              		.loc 1 717 8 is_stmt 1 view .LVU1091
 717:App/Src/fault_command.c ****   {
 4966              		.loc 1 717 12 is_stmt 0 view .LVU1092
 4967 015a 5E49     		ldr	r1, .L391+80
 4968 015c 2046     		mov	r0, r4
 4969 015e FFF7FEFF 		bl	strcmp
 4970              	.LVL528:
 717:App/Src/fault_command.c ****   {
 4971              		.loc 1 717 11 discriminator 1 view .LVU1093
 4972 0162 0028     		cmp	r0, #0
 4973 0164 00F00982 		beq	.L381
 721:App/Src/fault_command.c ****   {
 4974              		.loc 1 721 8 is_stmt 1 view .LVU1094
 721:App/Src/fault_command.c ****   {
 4975              		.loc 1 721 12 is_stmt 0 view .LVU1095
 4976 0168 0922     		movs	r2, #9
 4977 016a 5B49     		ldr	r1, .L391+84
 4978 016c 2046     		mov	r0, r4
 4979 016e FFF7FEFF 		bl	strncmp
 4980              	.LVL529:
 721:App/Src/fault_command.c ****   {
 4981              		.loc 1 721 11 discriminator 1 view .LVU1096
 4982 0172 0028     		cmp	r0, #0
 4983 0174 00F00682 		beq	.L382
 728:App/Src/fault_command.c ****   {
 4984              		.loc 1 728 8 is_stmt 1 view .LVU1097
 728:App/Src/fault_command.c ****   {
 4985              		.loc 1 728 12 is_stmt 0 view .LVU1098
 4986 0178 5849     		ldr	r1, .L391+88
 4987 017a 2046     		mov	r0, r4
 4988 017c FFF7FEFF 		bl	strcmp
 4989              	.LVL530:
 728:App/Src/fault_command.c ****   {
 4990              		.loc 1 728 11 discriminator 1 view .LVU1099
 4991 0180 0028     		cmp	r0, #0
 4992 0182 00F00982 		beq	.L383
 732:App/Src/fault_command.c ****   {
 4993              		.loc 1 732 8 is_stmt 1 view .LVU1100
 732:App/Src/fault_command.c ****   {
 4994              		.loc 1 732 12 is_stmt 0 view .LVU1101
 4995 0186 5649     		ldr	r1, .L391+92
 4996 0188 2046     		mov	r0, r4
 4997 018a FFF7FEFF 		bl	strcmp
 4998              	.LVL531:
 732:App/Src/fault_command.c ****   {
 4999              		.loc 1 732 11 discriminator 1 view .LVU1102
 5000 018e 0028     		cmp	r0, #0
 5001 0190 00F00782 		beq	.L384
 737:App/Src/fault_command.c ****   {
 5002              		.loc 1 737 8 is_stmt 1 view .LVU1103
 737:App/Src/fault_command.c ****   {
 5003              		.loc 1 737 12 is_stmt 0 view .LVU1104
ARM GAS  C:\Users\hh\AppData\Local\Temp\cc8MU7EM.s 			page 132


 5004 0194 0522     		movs	r2, #5
 5005 0196 5349     		ldr	r1, .L391+96
 5006 0198 2046     		mov	r0, r4
 5007 019a FFF7FEFF 		bl	strncmp
 5008              	.LVL532:
 737:App/Src/fault_command.c ****   {
 5009              		.loc 1 737 11 discriminator 1 view .LVU1105
 5010 019e 0028     		cmp	r0, #0
 5011 01a0 00F00882 		beq	.L385
 749:App/Src/fault_command.c ****   {
 5012              		.loc 1 749 8 is_stmt 1 view .LVU1106
 749:App/Src/fault_command.c ****   {
 5013              		.loc 1 749 12 is_stmt 0 view .LVU1107
 5014 01a4 2378     		ldrb	r3, [r4]	@ zero_extendqisi2
 749:App/Src/fault_command.c ****   {
 5015              		.loc 1 749 11 view .LVU1108
 5016 01a6 002B     		cmp	r3, #0
 5017 01a8 3FF43CAF 		beq	.L324
 751:App/Src/fault_command.c ****   }
 5018              		.loc 1 751 5 is_stmt 1 view .LVU1109
 5019 01ac 2346     		mov	r3, r4
 5020 01ae 4E4A     		ldr	r2, .L391+100
 5021 01b0 3146     		mov	r1, r6
 5022 01b2 2846     		mov	r0, r5
 5023 01b4 FFF7FEFF 		bl	FaultCommand_WriteFormat
 5024              	.LVL533:
 5025 01b8 34E7     		b	.L324
 5026              	.L366:
 488:App/Src/fault_command.c ****                                  context,
 5027              		.loc 1 488 5 view .LVU1110
 5028 01ba BDF84810 		ldrh	r1, [sp, #72]
 5029 01be 9DF84C00 		ldrb	r0, [sp, #76]	@ zero_extendqisi2
 5030 01c2 FFF7FEFF 		bl	FaultCommand_RunSet
 5031              	.LVL534:
 5032 01c6 0346     		mov	r3, r0
 488:App/Src/fault_command.c ****                                  context,
 5033              		.loc 1 488 5 is_stmt 0 discriminator 1 view .LVU1111
 5034 01c8 484A     		ldr	r2, .L391+104
 5035 01ca 3146     		mov	r1, r6
 5036 01cc 2846     		mov	r0, r5
 5037 01ce FFF7FEFF 		bl	FaultCommand_WriteTextResult
 5038              	.LVL535:
 5039 01d2 27E7     		b	.L324
 5040              	.L367:
 495:App/Src/fault_command.c ****     target = VOLTAGE_SIM_DEFAULT_OV_MV;
 5041              		.loc 1 495 5 is_stmt 1 view .LVU1112
 495:App/Src/fault_command.c ****     target = VOLTAGE_SIM_DEFAULT_OV_MV;
 5042              		.loc 1 495 10 is_stmt 0 view .LVU1113
 5043 01d4 1390     		str	r0, [sp, #76]
 496:App/Src/fault_command.c ****     duration = FAULT_COMMAND_DEFAULT_DURATION_MS;
 5044              		.loc 1 496 5 is_stmt 1 view .LVU1114
 496:App/Src/fault_command.c ****     duration = FAULT_COMMAND_DEFAULT_DURATION_MS;
 5045              		.loc 1 496 12 is_stmt 0 view .LVU1115
 5046 01d6 41F29413 		movw	r3, #4500
 5047 01da 1193     		str	r3, [sp, #68]
 497:App/Src/fault_command.c ****     slew = FAULT_COMMAND_DEFAULT_SLEW_MV_PER_MS;
 5048              		.loc 1 497 5 is_stmt 1 view .LVU1116
ARM GAS  C:\Users\hh\AppData\Local\Temp\cc8MU7EM.s 			page 133


 497:App/Src/fault_command.c ****     slew = FAULT_COMMAND_DEFAULT_SLEW_MV_PER_MS;
 5049              		.loc 1 497 14 is_stmt 0 view .LVU1117
 5050 01dc 6423     		movs	r3, #100
 5051 01de 1093     		str	r3, [sp, #64]
 498:App/Src/fault_command.c ****     if (sscanf(line, "ov %u %u %lu %u", &cell, &target, &duration, &slew) < 1)
 5052              		.loc 1 498 5 is_stmt 1 view .LVU1118
 498:App/Src/fault_command.c ****     if (sscanf(line, "ov %u %u %lu %u", &cell, &target, &duration, &slew) < 1)
 5053              		.loc 1 498 10 is_stmt 0 view .LVU1119
 5054 01e0 40F6B833 		movw	r3, #3000
 5055 01e4 0F93     		str	r3, [sp, #60]
 499:App/Src/fault_command.c ****     {
 5056              		.loc 1 499 5 is_stmt 1 view .LVU1120
 499:App/Src/fault_command.c ****     {
 5057              		.loc 1 499 9 is_stmt 0 view .LVU1121
 5058 01e6 0FAB     		add	r3, sp, #60
 5059 01e8 0193     		str	r3, [sp, #4]
 5060 01ea 10AB     		add	r3, sp, #64
 5061 01ec 0093     		str	r3, [sp]
 5062 01ee 11AB     		add	r3, sp, #68
 5063 01f0 13AA     		add	r2, sp, #76
 5064 01f2 3F49     		ldr	r1, .L391+108
 5065 01f4 2046     		mov	r0, r4
 5066 01f6 FFF7FEFF 		bl	sscanf
 5067              	.LVL536:
 499:App/Src/fault_command.c ****     {
 5068              		.loc 1 499 8 discriminator 1 view .LVU1122
 5069 01fa 0028     		cmp	r0, #0
 5070 01fc 0FDD     		ble	.L386
 505:App/Src/fault_command.c ****                                  context,
 5071              		.loc 1 505 5 is_stmt 1 view .LVU1123
 5072 01fe BDF83C30 		ldrh	r3, [sp, #60]
 5073 0202 109A     		ldr	r2, [sp, #64]
 5074 0204 BDF84410 		ldrh	r1, [sp, #68]
 5075 0208 9DF84C00 		ldrb	r0, [sp, #76]	@ zero_extendqisi2
 5076 020c FFF7FEFF 		bl	FaultCommand_RunOverVoltage
 5077              	.LVL537:
 5078 0210 0346     		mov	r3, r0
 505:App/Src/fault_command.c ****                                  context,
 5079              		.loc 1 505 5 is_stmt 0 discriminator 1 view .LVU1124
 5080 0212 384A     		ldr	r2, .L391+112
 5081 0214 3146     		mov	r1, r6
 5082 0216 2846     		mov	r0, r5
 5083 0218 FFF7FEFF 		bl	FaultCommand_WriteTextResult
 5084              	.LVL538:
 5085 021c 02E7     		b	.L324
 5086              	.L386:
 501:App/Src/fault_command.c ****       return;
 5087              		.loc 1 501 7 is_stmt 1 view .LVU1125
 5088 021e 0123     		movs	r3, #1
 5089 0220 344A     		ldr	r2, .L391+112
 5090 0222 3146     		mov	r1, r6
 5091 0224 2846     		mov	r0, r5
 5092 0226 FFF7FEFF 		bl	FaultCommand_WriteTextResult
 5093              	.LVL539:
 502:App/Src/fault_command.c ****     }
 5094              		.loc 1 502 7 view .LVU1126
 5095 022a FBE6     		b	.L324
ARM GAS  C:\Users\hh\AppData\Local\Temp\cc8MU7EM.s 			page 134


 5096              	.L368:
 515:App/Src/fault_command.c ****     target = VOLTAGE_SIM_DEFAULT_UV_MV;
 5097              		.loc 1 515 5 view .LVU1127
 515:App/Src/fault_command.c ****     target = VOLTAGE_SIM_DEFAULT_UV_MV;
 5098              		.loc 1 515 10 is_stmt 0 view .LVU1128
 5099 022c 1390     		str	r0, [sp, #76]
 516:App/Src/fault_command.c ****     duration = FAULT_COMMAND_DEFAULT_DURATION_MS;
 5100              		.loc 1 516 5 is_stmt 1 view .LVU1129
 516:App/Src/fault_command.c ****     duration = FAULT_COMMAND_DEFAULT_DURATION_MS;
 5101              		.loc 1 516 12 is_stmt 0 view .LVU1130
 5102 022e 4FF47A73 		mov	r3, #1000
 5103 0232 1193     		str	r3, [sp, #68]
 517:App/Src/fault_command.c ****     slew = FAULT_COMMAND_DEFAULT_SLEW_MV_PER_MS;
 5104              		.loc 1 517 5 is_stmt 1 view .LVU1131
 517:App/Src/fault_command.c ****     slew = FAULT_COMMAND_DEFAULT_SLEW_MV_PER_MS;
 5105              		.loc 1 517 14 is_stmt 0 view .LVU1132
 5106 0234 6423     		movs	r3, #100
 5107 0236 1093     		str	r3, [sp, #64]
 518:App/Src/fault_command.c ****     if (sscanf(line, "uv %u %u %lu %u", &cell, &target, &duration, &slew) < 1)
 5108              		.loc 1 518 5 is_stmt 1 view .LVU1133
 518:App/Src/fault_command.c ****     if (sscanf(line, "uv %u %u %lu %u", &cell, &target, &duration, &slew) < 1)
 5109              		.loc 1 518 10 is_stmt 0 view .LVU1134
 5110 0238 40F6B833 		movw	r3, #3000
 5111 023c 0F93     		str	r3, [sp, #60]
 519:App/Src/fault_command.c ****     {
 5112              		.loc 1 519 5 is_stmt 1 view .LVU1135
 519:App/Src/fault_command.c ****     {
 5113              		.loc 1 519 9 is_stmt 0 view .LVU1136
 5114 023e 0FAB     		add	r3, sp, #60
 5115 0240 0193     		str	r3, [sp, #4]
 5116 0242 10AB     		add	r3, sp, #64
 5117 0244 0093     		str	r3, [sp]
 5118 0246 11AB     		add	r3, sp, #68
 5119 0248 13AA     		add	r2, sp, #76
 5120 024a 2B49     		ldr	r1, .L391+116
 5121 024c 2046     		mov	r0, r4
 5122 024e FFF7FEFF 		bl	sscanf
 5123              	.LVL540:
 519:App/Src/fault_command.c ****     {
 5124              		.loc 1 519 8 discriminator 1 view .LVU1137
 5125 0252 0028     		cmp	r0, #0
 5126 0254 0FDD     		ble	.L387
 525:App/Src/fault_command.c ****                                  context,
 5127              		.loc 1 525 5 is_stmt 1 view .LVU1138
 5128 0256 BDF83C30 		ldrh	r3, [sp, #60]
 5129 025a 109A     		ldr	r2, [sp, #64]
 5130 025c BDF84410 		ldrh	r1, [sp, #68]
 5131 0260 9DF84C00 		ldrb	r0, [sp, #76]	@ zero_extendqisi2
 5132 0264 FFF7FEFF 		bl	FaultCommand_RunUnderVoltage
 5133              	.LVL541:
 5134 0268 0346     		mov	r3, r0
 525:App/Src/fault_command.c ****                                  context,
 5135              		.loc 1 525 5 is_stmt 0 discriminator 1 view .LVU1139
 5136 026a 244A     		ldr	r2, .L391+120
 5137 026c 3146     		mov	r1, r6
 5138 026e 2846     		mov	r0, r5
 5139 0270 FFF7FEFF 		bl	FaultCommand_WriteTextResult
ARM GAS  C:\Users\hh\AppData\Local\Temp\cc8MU7EM.s 			page 135


 5140              	.LVL542:
 5141 0274 D6E6     		b	.L324
 5142              	.L387:
 521:App/Src/fault_command.c ****       return;
 5143              		.loc 1 521 7 is_stmt 1 view .LVU1140
 5144 0276 0123     		movs	r3, #1
 5145 0278 204A     		ldr	r2, .L391+120
 5146 027a 3146     		mov	r1, r6
 5147 027c 2846     		mov	r0, r5
 5148 027e FFF7FEFF 		bl	FaultCommand_WriteTextResult
 5149              	.LVL543:
 522:App/Src/fault_command.c ****     }
 5150              		.loc 1 522 7 view .LVU1141
 5151 0282 CFE6     		b	.L324
 5152              	.L392:
 5153              		.align	2
 5154              	.L391:
 5155 0284 34000000 		.word	.LC57
 5156 0288 00000000 		.word	.LC104
 5157 028c 2C000000 		.word	.LC56
 5158 0290 B4000000 		.word	.LC59
 5159 0294 04000000 		.word	.LC105
 5160 0298 10000000 		.word	.LC106
 5161 029c 1C000000 		.word	.LC107
 5162 02a0 30000000 		.word	.LC109
 5163 02a4 44000000 		.word	.LC111
 5164 02a8 64000000 		.word	.LC113
 5165 02ac 70000000 		.word	.LC114
 5166 02b0 7C000000 		.word	.LC115
 5167 02b4 A8000000 		.word	.LC117
 5168 02b8 D0000000 		.word	.LC119
 5169 02bc F4000000 		.word	.LC121
 5170 02c0 00010000 		.word	.LC122
 5171 02c4 1C010000 		.word	.LC124
 5172 02c8 3C010000 		.word	.LC126
 5173 02cc 58010000 		.word	.LC128
 5174 02d0 78010000 		.word	.LC130
 5175 02d4 9C010000 		.word	.LC132
 5176 02d8 A8010000 		.word	.LC133
 5177 02dc B4010000 		.word	.LC134
 5178 02e0 C0010000 		.word	.LC135
 5179 02e4 10020000 		.word	.LC91
 5180 02e8 D8010000 		.word	.LC137
 5181 02ec C0000000 		.word	.LC61
 5182 02f0 20000000 		.word	.LC108
 5183 02f4 CC000000 		.word	.LC63
 5184 02f8 34000000 		.word	.LC110
 5185 02fc FC000000 		.word	.LC67
 5186              	.L369:
 5187              	.LBB65:
 535:App/Src/fault_command.c ****     unsigned int highMv;
 5188              		.loc 1 535 5 view .LVU1142
 536:App/Src/fault_command.c ****     unsigned int lowCell;
 5189              		.loc 1 536 5 view .LVU1143
 537:App/Src/fault_command.c ****     unsigned int lowMv;
 5190              		.loc 1 537 5 view .LVU1144
 538:App/Src/fault_command.c **** 
ARM GAS  C:\Users\hh\AppData\Local\Temp\cc8MU7EM.s 			page 136


 5191              		.loc 1 538 5 view .LVU1145
 540:App/Src/fault_command.c ****     slew = FAULT_COMMAND_DEFAULT_SLEW_MV_PER_MS;
 5192              		.loc 1 540 5 view .LVU1146
 540:App/Src/fault_command.c ****     slew = FAULT_COMMAND_DEFAULT_SLEW_MV_PER_MS;
 5193              		.loc 1 540 14 is_stmt 0 view .LVU1147
 5194 0300 6423     		movs	r3, #100
 5195 0302 1093     		str	r3, [sp, #64]
 541:App/Src/fault_command.c ****     if (sscanf(line,
 5196              		.loc 1 541 5 is_stmt 1 view .LVU1148
 541:App/Src/fault_command.c ****     if (sscanf(line,
 5197              		.loc 1 541 10 is_stmt 0 view .LVU1149
 5198 0304 40F6B833 		movw	r3, #3000
 5199 0308 0F93     		str	r3, [sp, #60]
 542:App/Src/fault_command.c ****                "diff %u %u %u %u %lu %u",
 5200              		.loc 1 542 5 is_stmt 1 view .LVU1150
 542:App/Src/fault_command.c ****                "diff %u %u %u %u %lu %u",
 5201              		.loc 1 542 9 is_stmt 0 view .LVU1151
 5202 030a 0FAB     		add	r3, sp, #60
 5203 030c 0393     		str	r3, [sp, #12]
 5204 030e 10AB     		add	r3, sp, #64
 5205 0310 0293     		str	r3, [sp, #8]
 5206 0312 07AB     		add	r3, sp, #28
 5207 0314 0193     		str	r3, [sp, #4]
 5208 0316 06AB     		add	r3, sp, #24
 5209 0318 0093     		str	r3, [sp]
 5210 031a 05AB     		add	r3, sp, #20
 5211 031c 04AA     		add	r2, sp, #16
 5212 031e B449     		ldr	r1, .L393
 5213 0320 2046     		mov	r0, r4
 5214 0322 FFF7FEFF 		bl	sscanf
 5215              	.LVL544:
 542:App/Src/fault_command.c ****                "diff %u %u %u %u %lu %u",
 5216              		.loc 1 542 8 discriminator 1 view .LVU1152
 5217 0326 0328     		cmp	r0, #3
 5218 0328 15DD     		ble	.L388
 555:App/Src/fault_command.c ****                                  context,
 5219              		.loc 1 555 5 is_stmt 1 view .LVU1153
 5220 032a BDF83C30 		ldrh	r3, [sp, #60]
 5221 032e 0193     		str	r3, [sp, #4]
 5222 0330 109B     		ldr	r3, [sp, #64]
 5223 0332 0093     		str	r3, [sp]
 5224 0334 BDF81C30 		ldrh	r3, [sp, #28]
 5225 0338 9DF81820 		ldrb	r2, [sp, #24]	@ zero_extendqisi2
 5226 033c BDF81410 		ldrh	r1, [sp, #20]
 5227 0340 9DF81000 		ldrb	r0, [sp, #16]	@ zero_extendqisi2
 5228 0344 FFF7FEFF 		bl	FaultCommand_RunDiff
 5229              	.LVL545:
 5230 0348 0346     		mov	r3, r0
 555:App/Src/fault_command.c ****                                  context,
 5231              		.loc 1 555 5 is_stmt 0 discriminator 1 view .LVU1154
 5232 034a AA4A     		ldr	r2, .L393+4
 5233 034c 3146     		mov	r1, r6
 5234 034e 2846     		mov	r0, r5
 5235 0350 FFF7FEFF 		bl	FaultCommand_WriteTextResult
 5236              	.LVL546:
 5237              	.LBE65:
 5238 0354 66E6     		b	.L324
ARM GAS  C:\Users\hh\AppData\Local\Temp\cc8MU7EM.s 			page 137


 5239              	.L388:
 5240              	.LBB66:
 551:App/Src/fault_command.c ****       return;
 5241              		.loc 1 551 7 is_stmt 1 view .LVU1155
 5242 0356 0123     		movs	r3, #1
 5243 0358 A64A     		ldr	r2, .L393+4
 5244 035a 3146     		mov	r1, r6
 5245 035c 2846     		mov	r0, r5
 5246 035e FFF7FEFF 		bl	FaultCommand_WriteTextResult
 5247              	.LVL547:
 552:App/Src/fault_command.c ****     }
 5248              		.loc 1 552 7 view .LVU1156
 5249 0362 5FE6     		b	.L324
 5250              	.L370:
 552:App/Src/fault_command.c ****     }
 5251              		.loc 1 552 7 is_stmt 0 view .LVU1157
 5252              	.LBE66:
 567:App/Src/fault_command.c ****   }
 5253              		.loc 1 567 5 is_stmt 1 view .LVU1158
 5254 0364 3146     		mov	r1, r6
 5255 0366 2846     		mov	r0, r5
 5256 0368 FFF7FEFF 		bl	FaultCommand_WriteTextWaveStatus
 5257              	.LVL548:
 5258 036c 5AE6     		b	.L324
 5259              	.L371:
 571:App/Src/fault_command.c ****     FaultCommand_WriteTextResult(write, context, "wave", HAL_OK);
 5260              		.loc 1 571 5 view .LVU1159
 5261 036e FFF7FEFF 		bl	WaveformGen_Stop
 5262              	.LVL549:
 572:App/Src/fault_command.c ****   }
 5263              		.loc 1 572 5 view .LVU1160
 5264 0372 0023     		movs	r3, #0
 5265 0374 A04A     		ldr	r2, .L393+8
 5266 0376 3146     		mov	r1, r6
 5267 0378 2846     		mov	r0, r5
 5268 037a FFF7FEFF 		bl	FaultCommand_WriteTextResult
 5269              	.LVL550:
 5270 037e 51E6     		b	.L324
 5271              	.L372:
 576:App/Src/fault_command.c ****                "wave square %u %u %u %lu",
 5272              		.loc 1 576 5 view .LVU1161
 576:App/Src/fault_command.c ****                "wave square %u %u %u %lu",
 5273              		.loc 1 576 9 is_stmt 0 view .LVU1162
 5274 0380 0AAB     		add	r3, sp, #40
 5275 0382 0193     		str	r3, [sp, #4]
 5276 0384 0DAB     		add	r3, sp, #52
 5277 0386 0093     		str	r3, [sp]
 5278 0388 0EAB     		add	r3, sp, #56
 5279 038a 13AA     		add	r2, sp, #76
 5280 038c 9B49     		ldr	r1, .L393+12
 5281 038e 2046     		mov	r0, r4
 5282 0390 FFF7FEFF 		bl	sscanf
 5283              	.LVL551:
 576:App/Src/fault_command.c ****                "wave square %u %u %u %lu",
 5284              		.loc 1 576 8 discriminator 1 view .LVU1163
 5285 0394 0428     		cmp	r0, #4
 5286 0396 06D0     		beq	.L341
ARM GAS  C:\Users\hh\AppData\Local\Temp\cc8MU7EM.s 			page 138


 583:App/Src/fault_command.c ****       return;
 5287              		.loc 1 583 7 is_stmt 1 view .LVU1164
 5288 0398 0123     		movs	r3, #1
 5289 039a 974A     		ldr	r2, .L393+8
 5290 039c 3146     		mov	r1, r6
 5291 039e 2846     		mov	r0, r5
 5292 03a0 FFF7FEFF 		bl	FaultCommand_WriteTextResult
 5293              	.LVL552:
 584:App/Src/fault_command.c ****     }
 5294              		.loc 1 584 7 view .LVU1165
 5295 03a4 3EE6     		b	.L324
 5296              	.L341:
 587:App/Src/fault_command.c ****                                  context,
 5297              		.loc 1 587 5 view .LVU1166
 5298 03a6 0A9B     		ldr	r3, [sp, #40]
 5299 03a8 BDF83420 		ldrh	r2, [sp, #52]
 5300 03ac BDF83810 		ldrh	r1, [sp, #56]
 5301 03b0 9DF84C00 		ldrb	r0, [sp, #76]	@ zero_extendqisi2
 5302 03b4 FFF7FEFF 		bl	WaveformGen_StartSquare
 5303              	.LVL553:
 5304 03b8 0346     		mov	r3, r0
 587:App/Src/fault_command.c ****                                  context,
 5305              		.loc 1 587 5 is_stmt 0 discriminator 1 view .LVU1167
 5306 03ba 8F4A     		ldr	r2, .L393+8
 5307 03bc 3146     		mov	r1, r6
 5308 03be 2846     		mov	r0, r5
 5309 03c0 FFF7FEFF 		bl	FaultCommand_WriteTextResult
 5310              	.LVL554:
 5311 03c4 2EE6     		b	.L324
 5312              	.L373:
 597:App/Src/fault_command.c ****                "wave sine all %u %u %lu",
 5313              		.loc 1 597 5 is_stmt 1 view .LVU1168
 597:App/Src/fault_command.c ****                "wave sine all %u %u %lu",
 5314              		.loc 1 597 9 is_stmt 0 view .LVU1169
 5315 03c6 0AAB     		add	r3, sp, #40
 5316 03c8 0093     		str	r3, [sp]
 5317 03ca 0BAB     		add	r3, sp, #44
 5318 03cc 0CAA     		add	r2, sp, #48
 5319 03ce 8C49     		ldr	r1, .L393+16
 5320 03d0 2046     		mov	r0, r4
 5321 03d2 FFF7FEFF 		bl	sscanf
 5322              	.LVL555:
 597:App/Src/fault_command.c ****                "wave sine all %u %u %lu",
 5323              		.loc 1 597 8 discriminator 1 view .LVU1170
 5324 03d6 0328     		cmp	r0, #3
 5325 03d8 06D0     		beq	.L343
 603:App/Src/fault_command.c ****       return;
 5326              		.loc 1 603 7 is_stmt 1 view .LVU1171
 5327 03da 0123     		movs	r3, #1
 5328 03dc 864A     		ldr	r2, .L393+8
 5329 03de 3146     		mov	r1, r6
 5330 03e0 2846     		mov	r0, r5
 5331 03e2 FFF7FEFF 		bl	FaultCommand_WriteTextResult
 5332              	.LVL556:
 604:App/Src/fault_command.c ****     }
 5333              		.loc 1 604 7 view .LVU1172
 5334 03e6 1DE6     		b	.L324
ARM GAS  C:\Users\hh\AppData\Local\Temp\cc8MU7EM.s 			page 139


 5335              	.L343:
 607:App/Src/fault_command.c ****                                  context,
 5336              		.loc 1 607 5 view .LVU1173
 5337 03e8 0A9A     		ldr	r2, [sp, #40]
 5338 03ea BDF82C10 		ldrh	r1, [sp, #44]
 5339 03ee BDF83000 		ldrh	r0, [sp, #48]
 5340 03f2 FFF7FEFF 		bl	WaveformGen_StartSineAll
 5341              	.LVL557:
 5342 03f6 0346     		mov	r3, r0
 607:App/Src/fault_command.c ****                                  context,
 5343              		.loc 1 607 5 is_stmt 0 discriminator 1 view .LVU1174
 5344 03f8 7F4A     		ldr	r2, .L393+8
 5345 03fa 3146     		mov	r1, r6
 5346 03fc 2846     		mov	r0, r5
 5347 03fe FFF7FEFF 		bl	FaultCommand_WriteTextResult
 5348              	.LVL558:
 5349 0402 0FE6     		b	.L324
 5350              	.L374:
 616:App/Src/fault_command.c ****                "wave sine %u %u %u %lu",
 5351              		.loc 1 616 5 is_stmt 1 view .LVU1175
 616:App/Src/fault_command.c ****                "wave sine %u %u %u %lu",
 5352              		.loc 1 616 9 is_stmt 0 view .LVU1176
 5353 0404 0AAB     		add	r3, sp, #40
 5354 0406 0193     		str	r3, [sp, #4]
 5355 0408 0BAB     		add	r3, sp, #44
 5356 040a 0093     		str	r3, [sp]
 5357 040c 0CAB     		add	r3, sp, #48
 5358 040e 13AA     		add	r2, sp, #76
 5359 0410 7C49     		ldr	r1, .L393+20
 5360 0412 2046     		mov	r0, r4
 5361 0414 FFF7FEFF 		bl	sscanf
 5362              	.LVL559:
 616:App/Src/fault_command.c ****                "wave sine %u %u %u %lu",
 5363              		.loc 1 616 8 discriminator 1 view .LVU1177
 5364 0418 0428     		cmp	r0, #4
 5365 041a 06D0     		beq	.L345
 623:App/Src/fault_command.c ****       return;
 5366              		.loc 1 623 7 is_stmt 1 view .LVU1178
 5367 041c 0123     		movs	r3, #1
 5368 041e 764A     		ldr	r2, .L393+8
 5369 0420 3146     		mov	r1, r6
 5370 0422 2846     		mov	r0, r5
 5371 0424 FFF7FEFF 		bl	FaultCommand_WriteTextResult
 5372              	.LVL560:
 624:App/Src/fault_command.c ****     }
 5373              		.loc 1 624 7 view .LVU1179
 5374 0428 FCE5     		b	.L324
 5375              	.L345:
 627:App/Src/fault_command.c ****                                  context,
 5376              		.loc 1 627 5 view .LVU1180
 5377 042a 0A9B     		ldr	r3, [sp, #40]
 5378 042c BDF82C20 		ldrh	r2, [sp, #44]
 5379 0430 BDF83010 		ldrh	r1, [sp, #48]
 5380 0434 9DF84C00 		ldrb	r0, [sp, #76]	@ zero_extendqisi2
 5381 0438 FFF7FEFF 		bl	WaveformGen_StartSine
 5382              	.LVL561:
 5383 043c 0346     		mov	r3, r0
ARM GAS  C:\Users\hh\AppData\Local\Temp\cc8MU7EM.s 			page 140


 627:App/Src/fault_command.c ****                                  context,
 5384              		.loc 1 627 5 is_stmt 0 discriminator 1 view .LVU1181
 5385 043e 6E4A     		ldr	r2, .L393+8
 5386 0440 3146     		mov	r1, r6
 5387 0442 2846     		mov	r0, r5
 5388 0444 FFF7FEFF 		bl	FaultCommand_WriteTextResult
 5389              	.LVL562:
 5390 0448 ECE5     		b	.L324
 5391              	.L375:
 637:App/Src/fault_command.c ****   }
 5392              		.loc 1 637 5 is_stmt 1 view .LVU1182
 5393 044a 3146     		mov	r1, r6
 5394 044c 2846     		mov	r0, r5
 5395 044e FFF7FEFF 		bl	FaultCommand_WriteTextCalibrationStatus
 5396              	.LVL563:
 5397 0452 E7E5     		b	.L324
 5398              	.L376:
 641:App/Src/fault_command.c ****     {
 5399              		.loc 1 641 5 view .LVU1183
 641:App/Src/fault_command.c ****     {
 5400              		.loc 1 641 9 is_stmt 0 view .LVU1184
 5401 0454 09AB     		add	r3, sp, #36
 5402 0456 13AA     		add	r2, sp, #76
 5403 0458 6B49     		ldr	r1, .L393+24
 5404 045a 2046     		mov	r0, r4
 5405 045c FFF7FEFF 		bl	sscanf
 5406              	.LVL564:
 641:App/Src/fault_command.c ****     {
 5407              		.loc 1 641 8 discriminator 1 view .LVU1185
 5408 0460 0228     		cmp	r0, #2
 5409 0462 06D0     		beq	.L348
 643:App/Src/fault_command.c ****       return;
 5410              		.loc 1 643 7 is_stmt 1 view .LVU1186
 5411 0464 0123     		movs	r3, #1
 5412 0466 694A     		ldr	r2, .L393+28
 5413 0468 3146     		mov	r1, r6
 5414 046a 2846     		mov	r0, r5
 5415 046c FFF7FEFF 		bl	FaultCommand_WriteTextResult
 5416              	.LVL565:
 644:App/Src/fault_command.c ****     }
 5417              		.loc 1 644 7 view .LVU1187
 5418 0470 D8E5     		b	.L324
 5419              	.L348:
 647:App/Src/fault_command.c ****                                  context,
 5420              		.loc 1 647 5 view .LVU1188
 5421 0472 BDF92410 		ldrsh	r1, [sp, #36]
 5422 0476 9DF84C00 		ldrb	r0, [sp, #76]	@ zero_extendqisi2
 5423 047a FFF7FEFF 		bl	VoltageSim_SetCellCalibrationOffsetMv
 5424              	.LVL566:
 5425 047e 0346     		mov	r3, r0
 647:App/Src/fault_command.c ****                                  context,
 5426              		.loc 1 647 5 is_stmt 0 discriminator 1 view .LVU1189
 5427 0480 624A     		ldr	r2, .L393+28
 5428 0482 3146     		mov	r1, r6
 5429 0484 2846     		mov	r0, r5
 5430 0486 FFF7FEFF 		bl	FaultCommand_WriteTextResult
 5431              	.LVL567:
ARM GAS  C:\Users\hh\AppData\Local\Temp\cc8MU7EM.s 			page 141


 5432 048a CBE5     		b	.L324
 5433              	.L377:
 655:App/Src/fault_command.c ****     {
 5434              		.loc 1 655 5 is_stmt 1 view .LVU1190
 655:App/Src/fault_command.c ****     {
 5435              		.loc 1 655 9 is_stmt 0 view .LVU1191
 5436 048c 08AB     		add	r3, sp, #32
 5437 048e 0093     		str	r3, [sp]
 5438 0490 11AB     		add	r3, sp, #68
 5439 0492 13AA     		add	r2, sp, #76
 5440 0494 5E49     		ldr	r1, .L393+32
 5441 0496 2046     		mov	r0, r4
 5442 0498 FFF7FEFF 		bl	sscanf
 5443              	.LVL568:
 655:App/Src/fault_command.c ****     {
 5444              		.loc 1 655 8 discriminator 1 view .LVU1192
 5445 049c 0328     		cmp	r0, #3
 5446 049e 06D0     		beq	.L350
 657:App/Src/fault_command.c ****       return;
 5447              		.loc 1 657 7 is_stmt 1 view .LVU1193
 5448 04a0 0123     		movs	r3, #1
 5449 04a2 5A4A     		ldr	r2, .L393+28
 5450 04a4 3146     		mov	r1, r6
 5451 04a6 2846     		mov	r0, r5
 5452 04a8 FFF7FEFF 		bl	FaultCommand_WriteTextResult
 5453              	.LVL569:
 658:App/Src/fault_command.c ****     }
 5454              		.loc 1 658 7 view .LVU1194
 5455 04ac BAE5     		b	.L324
 5456              	.L350:
 661:App/Src/fault_command.c ****                                  context,
 5457              		.loc 1 661 5 view .LVU1195
 5458 04ae BDF82020 		ldrh	r2, [sp, #32]
 5459 04b2 BDF84410 		ldrh	r1, [sp, #68]
 5460 04b6 9DF84C00 		ldrb	r0, [sp, #76]	@ zero_extendqisi2
 5461 04ba FFF7FEFF 		bl	FaultCommand_RunCalibrationTrim
 5462              	.LVL570:
 5463 04be 0346     		mov	r3, r0
 661:App/Src/fault_command.c ****                                  context,
 5464              		.loc 1 661 5 is_stmt 0 discriminator 1 view .LVU1196
 5465 04c0 524A     		ldr	r2, .L393+28
 5466 04c2 3146     		mov	r1, r6
 5467 04c4 2846     		mov	r0, r5
 5468 04c6 FFF7FEFF 		bl	FaultCommand_WriteTextResult
 5469              	.LVL571:
 5470 04ca ABE5     		b	.L324
 5471              	.L378:
 670:App/Src/fault_command.c ****     {
 5472              		.loc 1 670 5 is_stmt 1 view .LVU1197
 670:App/Src/fault_command.c ****     {
 5473              		.loc 1 670 9 is_stmt 0 view .LVU1198
 5474 04cc 13AA     		add	r2, sp, #76
 5475 04ce 5149     		ldr	r1, .L393+36
 5476 04d0 2046     		mov	r0, r4
 5477 04d2 FFF7FEFF 		bl	sscanf
 5478              	.LVL572:
 670:App/Src/fault_command.c ****     {
ARM GAS  C:\Users\hh\AppData\Local\Temp\cc8MU7EM.s 			page 142


 5479              		.loc 1 670 8 discriminator 1 view .LVU1199
 5480 04d6 0128     		cmp	r0, #1
 5481 04d8 08D0     		beq	.L389
 679:App/Src/fault_command.c ****       FaultCommand_WriteTextResult(write, context, "cal", HAL_OK);
 5482              		.loc 1 679 7 is_stmt 1 view .LVU1200
 5483 04da FFF7FEFF 		bl	VoltageSim_ClearAllCalibrationOffsets
 5484              	.LVL573:
 680:App/Src/fault_command.c ****     }
 5485              		.loc 1 680 7 view .LVU1201
 5486 04de 0023     		movs	r3, #0
 5487 04e0 4A4A     		ldr	r2, .L393+28
 5488 04e2 3146     		mov	r1, r6
 5489 04e4 2846     		mov	r0, r5
 5490 04e6 FFF7FEFF 		bl	FaultCommand_WriteTextResult
 5491              	.LVL574:
 5492 04ea 9BE5     		b	.L324
 5493              	.L389:
 672:App/Src/fault_command.c ****                                    context,
 5494              		.loc 1 672 7 view .LVU1202
 5495 04ec 9DF84C00 		ldrb	r0, [sp, #76]	@ zero_extendqisi2
 5496 04f0 FFF7FEFF 		bl	VoltageSim_ClearCellCalibrationOffset
 5497              	.LVL575:
 5498 04f4 0346     		mov	r3, r0
 672:App/Src/fault_command.c ****                                    context,
 5499              		.loc 1 672 7 is_stmt 0 discriminator 1 view .LVU1203
 5500 04f6 454A     		ldr	r2, .L393+28
 5501 04f8 3146     		mov	r1, r6
 5502 04fa 2846     		mov	r0, r5
 5503 04fc FFF7FEFF 		bl	FaultCommand_WriteTextResult
 5504              	.LVL576:
 5505 0500 90E5     		b	.L324
 5506              	.L379:
 685:App/Src/fault_command.c ****     {
 5507              		.loc 1 685 5 is_stmt 1 view .LVU1204
 685:App/Src/fault_command.c ****     {
 5508              		.loc 1 685 9 is_stmt 0 view .LVU1205
 5509 0502 12AA     		add	r2, sp, #72
 5510 0504 4449     		ldr	r1, .L393+40
 5511 0506 2046     		mov	r0, r4
 5512 0508 FFF7FEFF 		bl	sscanf
 5513              	.LVL577:
 685:App/Src/fault_command.c ****     {
 5514              		.loc 1 685 8 discriminator 1 view .LVU1206
 5515 050c 0128     		cmp	r0, #1
 5516 050e 06D0     		beq	.L354
 687:App/Src/fault_command.c ****       return;
 5517              		.loc 1 687 7 is_stmt 1 view .LVU1207
 5518 0510 0123     		movs	r3, #1
 5519 0512 424A     		ldr	r2, .L393+44
 5520 0514 3146     		mov	r1, r6
 5521 0516 2846     		mov	r0, r5
 5522 0518 FFF7FEFF 		bl	FaultCommand_WriteTextResult
 5523              	.LVL578:
 688:App/Src/fault_command.c ****     }
 5524              		.loc 1 688 7 view .LVU1208
 5525 051c 82E5     		b	.L324
 5526              	.L354:
ARM GAS  C:\Users\hh\AppData\Local\Temp\cc8MU7EM.s 			page 143


 691:App/Src/fault_command.c ****                                  context,
 5527              		.loc 1 691 5 view .LVU1209
 5528 051e BDF84800 		ldrh	r0, [sp, #72]
 5529 0522 FFF7FEFF 		bl	FaultCommand_RunNormal
 5530              	.LVL579:
 5531 0526 0346     		mov	r3, r0
 691:App/Src/fault_command.c ****                                  context,
 5532              		.loc 1 691 5 is_stmt 0 discriminator 1 view .LVU1210
 5533 0528 3C4A     		ldr	r2, .L393+44
 5534 052a 3146     		mov	r1, r6
 5535 052c 2846     		mov	r0, r5
 5536 052e FFF7FEFF 		bl	FaultCommand_WriteTextResult
 5537              	.LVL580:
 5538 0532 77E5     		b	.L324
 5539              	.L380:
 698:App/Src/fault_command.c ****                "test slew %u %u %u %lu",
 5540              		.loc 1 698 5 is_stmt 1 view .LVU1211
 698:App/Src/fault_command.c ****                "test slew %u %u %u %lu",
 5541              		.loc 1 698 9 is_stmt 0 view .LVU1212
 5542 0534 0AAB     		add	r3, sp, #40
 5543 0536 0193     		str	r3, [sp, #4]
 5544 0538 0DAB     		add	r3, sp, #52
 5545 053a 0093     		str	r3, [sp]
 5546 053c 0EAB     		add	r3, sp, #56
 5547 053e 13AA     		add	r2, sp, #76
 5548 0540 3749     		ldr	r1, .L393+48
 5549 0542 2046     		mov	r0, r4
 5550 0544 FFF7FEFF 		bl	sscanf
 5551              	.LVL581:
 698:App/Src/fault_command.c ****                "test slew %u %u %u %lu",
 5552              		.loc 1 698 8 discriminator 1 view .LVU1213
 5553 0548 0428     		cmp	r0, #4
 5554 054a 06D0     		beq	.L356
 705:App/Src/fault_command.c ****       return;
 5555              		.loc 1 705 7 is_stmt 1 view .LVU1214
 5556 054c 0123     		movs	r3, #1
 5557 054e 334A     		ldr	r2, .L393+44
 5558 0550 3146     		mov	r1, r6
 5559 0552 2846     		mov	r0, r5
 5560 0554 FFF7FEFF 		bl	FaultCommand_WriteTextResult
 5561              	.LVL582:
 706:App/Src/fault_command.c ****     }
 5562              		.loc 1 706 7 view .LVU1215
 5563 0558 64E5     		b	.L324
 5564              	.L356:
 709:App/Src/fault_command.c ****                                  context,
 5565              		.loc 1 709 5 view .LVU1216
 5566 055a 0A9B     		ldr	r3, [sp, #40]
 5567 055c BDF83420 		ldrh	r2, [sp, #52]
 5568 0560 BDF83810 		ldrh	r1, [sp, #56]
 5569 0564 9DF84C00 		ldrb	r0, [sp, #76]	@ zero_extendqisi2
 5570 0568 FFF7FEFF 		bl	WaveformGen_StartSquare
 5571              	.LVL583:
 5572 056c 0346     		mov	r3, r0
 709:App/Src/fault_command.c ****                                  context,
 5573              		.loc 1 709 5 is_stmt 0 discriminator 1 view .LVU1217
 5574 056e 2B4A     		ldr	r2, .L393+44
ARM GAS  C:\Users\hh\AppData\Local\Temp\cc8MU7EM.s 			page 144


 5575 0570 3146     		mov	r1, r6
 5576 0572 2846     		mov	r0, r5
 5577 0574 FFF7FEFF 		bl	FaultCommand_WriteTextResult
 5578              	.LVL584:
 5579 0578 54E5     		b	.L324
 5580              	.L381:
 719:App/Src/fault_command.c ****   }
 5581              		.loc 1 719 5 is_stmt 1 view .LVU1218
 5582 057a 3146     		mov	r1, r6
 5583 057c 2846     		mov	r0, r5
 5584 057e FFF7FEFF 		bl	FaultCommand_WriteTextCanStatus
 5585              	.LVL585:
 5586 0582 4FE5     		b	.L324
 5587              	.L382:
 723:App/Src/fault_command.c ****                                  context,
 5588              		.loc 1 723 5 view .LVU1219
 5589 0584 2046     		mov	r0, r4
 5590 0586 FFF7FEFF 		bl	FaultCommand_ParseCanSendText
 5591              	.LVL586:
 5592 058a 0346     		mov	r3, r0
 723:App/Src/fault_command.c ****                                  context,
 5593              		.loc 1 723 5 is_stmt 0 discriminator 1 view .LVU1220
 5594 058c 254A     		ldr	r2, .L393+52
 5595 058e 3146     		mov	r1, r6
 5596 0590 2846     		mov	r0, r5
 5597 0592 FFF7FEFF 		bl	FaultCommand_WriteTextResult
 5598              	.LVL587:
 5599 0596 45E5     		b	.L324
 5600              	.L383:
 730:App/Src/fault_command.c ****   }
 5601              		.loc 1 730 5 is_stmt 1 view .LVU1221
 5602 0598 3146     		mov	r1, r6
 5603 059a 2846     		mov	r0, r5
 5604 059c FFF7FEFF 		bl	FaultCommand_WriteTextBmsResponseLog
 5605              	.LVL588:
 5606 05a0 40E5     		b	.L324
 5607              	.L384:
 734:App/Src/fault_command.c ****     FaultCommand_WriteTextResult(write, context, "log", HAL_OK);
 5608              		.loc 1 734 5 view .LVU1222
 5609 05a2 FFF7FEFF 		bl	BmsResponseLog_Clear
 5610              	.LVL589:
 735:App/Src/fault_command.c ****   }
 5611              		.loc 1 735 5 view .LVU1223
 5612 05a6 0023     		movs	r3, #0
 5613 05a8 1F4A     		ldr	r2, .L393+56
 5614 05aa 3146     		mov	r1, r6
 5615 05ac 2846     		mov	r0, r5
 5616 05ae FFF7FEFF 		bl	FaultCommand_WriteTextResult
 5617              	.LVL590:
 5618 05b2 37E5     		b	.L324
 5619              	.L385:
 739:App/Src/fault_command.c ****     if (sscanf(line, "clear %u", &cell) == 1)
 5620              		.loc 1 739 5 view .LVU1224
 5621 05b4 FFF7FEFF 		bl	WaveformGen_Stop
 5622              	.LVL591:
 740:App/Src/fault_command.c ****     {
 5623              		.loc 1 740 5 view .LVU1225
ARM GAS  C:\Users\hh\AppData\Local\Temp\cc8MU7EM.s 			page 145


 740:App/Src/fault_command.c ****     {
 5624              		.loc 1 740 9 is_stmt 0 view .LVU1226
 5625 05b8 13AA     		add	r2, sp, #76
 5626 05ba 1C49     		ldr	r1, .L393+60
 5627 05bc 2046     		mov	r0, r4
 5628 05be FFF7FEFF 		bl	sscanf
 5629              	.LVL592:
 740:App/Src/fault_command.c ****     {
 5630              		.loc 1 740 8 discriminator 1 view .LVU1227
 5631 05c2 0128     		cmp	r0, #1
 5632 05c4 08D0     		beq	.L390
 746:App/Src/fault_command.c ****     }
 5633              		.loc 1 746 7 is_stmt 1 view .LVU1228
 5634 05c6 FFF7FEFF 		bl	VoltageSim_ClearAllFaults
 5635              	.LVL593:
 5636 05ca 0346     		mov	r3, r0
 746:App/Src/fault_command.c ****     }
 5637              		.loc 1 746 7 is_stmt 0 discriminator 1 view .LVU1229
 5638 05cc 184A     		ldr	r2, .L393+64
 5639 05ce 3146     		mov	r1, r6
 5640 05d0 2846     		mov	r0, r5
 5641 05d2 FFF7FEFF 		bl	FaultCommand_WriteTextResult
 5642              	.LVL594:
 5643 05d6 25E5     		b	.L324
 5644              	.L390:
 742:App/Src/fault_command.c ****     }
 5645              		.loc 1 742 7 is_stmt 1 view .LVU1230
 5646 05d8 9DF84C00 		ldrb	r0, [sp, #76]	@ zero_extendqisi2
 5647 05dc FFF7FEFF 		bl	VoltageSim_ClearCellFault
 5648              	.LVL595:
 5649 05e0 0346     		mov	r3, r0
 742:App/Src/fault_command.c ****     }
 5650              		.loc 1 742 7 is_stmt 0 discriminator 1 view .LVU1231
 5651 05e2 134A     		ldr	r2, .L393+64
 5652 05e4 3146     		mov	r1, r6
 5653 05e6 2846     		mov	r0, r5
 5654 05e8 FFF7FEFF 		bl	FaultCommand_WriteTextResult
 5655              	.LVL596:
 5656 05ec 1AE5     		b	.L324
 5657              	.L394:
 5658 05ee 00BF     		.align	2
 5659              	.L393:
 5660 05f0 4C000000 		.word	.LC112
 5661 05f4 10010000 		.word	.LC69
 5662 05f8 40010000 		.word	.LC74
 5663 05fc 8C000000 		.word	.LC116
 5664 0600 B8000000 		.word	.LC118
 5665 0604 DC000000 		.word	.LC120
 5666 0608 0C010000 		.word	.LC123
 5667 060c A8010000 		.word	.LC84
 5668 0610 28010000 		.word	.LC125
 5669 0614 48010000 		.word	.LC127
 5670 0618 68010000 		.word	.LC129
 5671 061c 18020000 		.word	.LC92
 5672 0620 84010000 		.word	.LC131
 5673 0624 30020000 		.word	.LC95
 5674 0628 54020000 		.word	.LC101
ARM GAS  C:\Users\hh\AppData\Local\Temp\cc8MU7EM.s 			page 146


 5675 062c CC010000 		.word	.LC136
 5676 0630 10020000 		.word	.LC91
 5677              		.cfi_endproc
 5678              	.LFE170:
 5680              		.section	.text.FaultCommand_ExecuteLine,"ax",%progbits
 5681              		.align	1
 5682              		.global	FaultCommand_ExecuteLine
 5683              		.syntax unified
 5684              		.thumb
 5685              		.thumb_func
 5687              	FaultCommand_ExecuteLine:
 5688              	.LVL597:
 5689              	.LFB177:
1186:App/Src/fault_command.c **** 
1187:App/Src/fault_command.c **** void FaultCommand_ExecuteLine(const char *line, FaultCommand_WriteFn write, void *context)
1188:App/Src/fault_command.c **** {
 5690              		.loc 1 1188 1 is_stmt 1 view -0
 5691              		.cfi_startproc
 5692              		@ args = 0, pretend = 0, frame = 0
 5693              		@ frame_needed = 0, uses_anonymous_args = 0
 5694              		.loc 1 1188 1 is_stmt 0 view .LVU1233
 5695 0000 38B5     		push	{r3, r4, r5, lr}
 5696              	.LCFI78:
 5697              		.cfi_def_cfa_offset 16
 5698              		.cfi_offset 3, -16
 5699              		.cfi_offset 4, -12
 5700              		.cfi_offset 5, -8
 5701              		.cfi_offset 14, -4
 5702 0002 0C46     		mov	r4, r1
 5703 0004 1546     		mov	r5, r2
1189:App/Src/fault_command.c ****   line = FaultCommand_SkipSpaces(line);
 5704              		.loc 1 1189 3 is_stmt 1 view .LVU1234
 5705              		.loc 1 1189 10 is_stmt 0 view .LVU1235
 5706 0006 FFF7FEFF 		bl	FaultCommand_SkipSpaces
 5707              	.LVL598:
1190:App/Src/fault_command.c **** 
1191:App/Src/fault_command.c ****   if (line == NULL)
 5708              		.loc 1 1191 3 is_stmt 1 view .LVU1236
 5709              		.loc 1 1191 6 is_stmt 0 view .LVU1237
 5710 000a 30B1     		cbz	r0, .L395
1192:App/Src/fault_command.c ****   {
1193:App/Src/fault_command.c ****     return;
1194:App/Src/fault_command.c ****   }
1195:App/Src/fault_command.c **** 
1196:App/Src/fault_command.c ****   if (*line == '{')
 5711              		.loc 1 1196 3 is_stmt 1 view .LVU1238
 5712              		.loc 1 1196 7 is_stmt 0 view .LVU1239
 5713 000c 0278     		ldrb	r2, [r0]	@ zero_extendqisi2
 5714              		.loc 1 1196 6 view .LVU1240
 5715 000e 7B2A     		cmp	r2, #123
 5716 0010 04D0     		beq	.L399
1197:App/Src/fault_command.c ****   {
1198:App/Src/fault_command.c ****     FaultCommand_ExecuteJson(line, write, context);
1199:App/Src/fault_command.c ****   }
1200:App/Src/fault_command.c ****   else
1201:App/Src/fault_command.c ****   {
1202:App/Src/fault_command.c ****     FaultCommand_ExecuteText(line, write, context);
ARM GAS  C:\Users\hh\AppData\Local\Temp\cc8MU7EM.s 			page 147


 5717              		.loc 1 1202 5 is_stmt 1 view .LVU1241
 5718 0012 2A46     		mov	r2, r5
 5719 0014 2146     		mov	r1, r4
 5720 0016 FFF7FEFF 		bl	FaultCommand_ExecuteText
 5721              	.LVL599:
 5722              	.L395:
1203:App/Src/fault_command.c ****   }
1204:App/Src/fault_command.c **** }
 5723              		.loc 1 1204 1 is_stmt 0 view .LVU1242
 5724 001a 38BD     		pop	{r3, r4, r5, pc}
 5725              	.LVL600:
 5726              	.L399:
1198:App/Src/fault_command.c ****   }
 5727              		.loc 1 1198 5 is_stmt 1 view .LVU1243
 5728 001c 2A46     		mov	r2, r5
 5729 001e 2146     		mov	r1, r4
 5730 0020 FFF7FEFF 		bl	FaultCommand_ExecuteJson
 5731              	.LVL601:
1198:App/Src/fault_command.c ****   }
 5732              		.loc 1 1198 5 is_stmt 0 view .LVU1244
 5733 0024 F9E7     		b	.L395
 5734              		.cfi_endproc
 5735              	.LFE177:
 5737              		.text
 5738              	.Letext0:
 5739              		.file 2 "C:/Program Files (x86)/ARM/arm-gnu-toolchain-15.2.rel1-mingw-w64-i686-arm-none-eabi/arm-n
 5740              		.file 3 "C:/Program Files (x86)/ARM/arm-gnu-toolchain-15.2.rel1-mingw-w64-i686-arm-none-eabi/arm-n
 5741              		.file 4 "Drivers/STM32H7xx_HAL_Driver/Inc/stm32h7xx_hal_def.h"
 5742              		.file 5 "App/Inc/fault_command.h"
 5743              		.file 6 "C:/Program Files (x86)/ARM/arm-gnu-toolchain-15.2.rel1-mingw-w64-i686-arm-none-eabi/lib/g
 5744              		.file 7 "BSP/Inc/bsp_can.h"
 5745              		.file 8 "App/Inc/bms_response_log.h"
 5746              		.file 9 "App/Inc/voltage_sim.h"
 5747              		.file 10 "App/Inc/waveform_gen.h"
 5748              		.file 11 "C:/Program Files (x86)/ARM/arm-gnu-toolchain-15.2.rel1-mingw-w64-i686-arm-none-eabi/arm-
 5749              		.file 12 "C:/Program Files (x86)/ARM/arm-gnu-toolchain-15.2.rel1-mingw-w64-i686-arm-none-eabi/arm-
 5750              		.file 13 "C:/Program Files (x86)/ARM/arm-gnu-toolchain-15.2.rel1-mingw-w64-i686-arm-none-eabi/arm-
 5751              		.file 14 "<built-in>"
ARM GAS  C:\Users\hh\AppData\Local\Temp\cc8MU7EM.s 			page 148


DEFINED SYMBOLS
                            *ABS*:00000000 fault_command.c
C:\Users\hh\AppData\Local\Temp\cc8MU7EM.s:20     .text.FaultCommand_Write:00000000 $t
C:\Users\hh\AppData\Local\Temp\cc8MU7EM.s:25     .text.FaultCommand_Write:00000000 FaultCommand_Write
C:\Users\hh\AppData\Local\Temp\cc8MU7EM.s:65     .text.FaultCommand_SkipSpaces:00000000 $t
C:\Users\hh\AppData\Local\Temp\cc8MU7EM.s:70     .text.FaultCommand_SkipSpaces:00000000 FaultCommand_SkipSpaces
C:\Users\hh\AppData\Local\Temp\cc8MU7EM.s:102    .rodata.FaultCommand_WriteTextHelp.str1.4:00000000 $d
C:\Users\hh\AppData\Local\Temp\cc8MU7EM.s:189    .text.FaultCommand_WriteTextHelp:00000000 $t
C:\Users\hh\AppData\Local\Temp\cc8MU7EM.s:194    .text.FaultCommand_WriteTextHelp:00000000 FaultCommand_WriteTextHelp
C:\Users\hh\AppData\Local\Temp\cc8MU7EM.s:366    .text.FaultCommand_WriteTextHelp:00000100 $d
C:\Users\hh\AppData\Local\Temp\cc8MU7EM.s:395    .text.FaultCommand_RunCalibrationTrim:00000000 $t
C:\Users\hh\AppData\Local\Temp\cc8MU7EM.s:400    .text.FaultCommand_RunCalibrationTrim:00000000 FaultCommand_RunCalibrationTrim
C:\Users\hh\AppData\Local\Temp\cc8MU7EM.s:457    .text.FaultCommand_RunSet:00000000 $t
C:\Users\hh\AppData\Local\Temp\cc8MU7EM.s:462    .text.FaultCommand_RunSet:00000000 FaultCommand_RunSet
C:\Users\hh\AppData\Local\Temp\cc8MU7EM.s:495    .text.FaultCommand_RunOverVoltage:00000000 $t
C:\Users\hh\AppData\Local\Temp\cc8MU7EM.s:500    .text.FaultCommand_RunOverVoltage:00000000 FaultCommand_RunOverVoltage
C:\Users\hh\AppData\Local\Temp\cc8MU7EM.s:573    .text.FaultCommand_RunUnderVoltage:00000000 $t
C:\Users\hh\AppData\Local\Temp\cc8MU7EM.s:578    .text.FaultCommand_RunUnderVoltage:00000000 FaultCommand_RunUnderVoltage
C:\Users\hh\AppData\Local\Temp\cc8MU7EM.s:651    .text.FaultCommand_RunDiff:00000000 $t
C:\Users\hh\AppData\Local\Temp\cc8MU7EM.s:656    .text.FaultCommand_RunDiff:00000000 FaultCommand_RunDiff
C:\Users\hh\AppData\Local\Temp\cc8MU7EM.s:733    .text.FaultCommand_WriteFormat:00000000 $t
C:\Users\hh\AppData\Local\Temp\cc8MU7EM.s:738    .text.FaultCommand_WriteFormat:00000000 FaultCommand_WriteFormat
C:\Users\hh\AppData\Local\Temp\cc8MU7EM.s:811    .rodata.FaultCommand_WriteJsonStatus.str1.4:00000000 $d
C:\Users\hh\AppData\Local\Temp\cc8MU7EM.s:831    .text.FaultCommand_WriteJsonStatus:00000000 $t
C:\Users\hh\AppData\Local\Temp\cc8MU7EM.s:836    .text.FaultCommand_WriteJsonStatus:00000000 FaultCommand_WriteJsonStatus
C:\Users\hh\AppData\Local\Temp\cc8MU7EM.s:987    .text.FaultCommand_WriteJsonStatus:000000b8 $d
C:\Users\hh\AppData\Local\Temp\cc8MU7EM.s:996    .rodata.FaultCommand_WriteJsonResult.str1.4:00000000 $d
C:\Users\hh\AppData\Local\Temp\cc8MU7EM.s:1006   .text.FaultCommand_WriteJsonResult:00000000 $t
C:\Users\hh\AppData\Local\Temp\cc8MU7EM.s:1011   .text.FaultCommand_WriteJsonResult:00000000 FaultCommand_WriteJsonResult
C:\Users\hh\AppData\Local\Temp\cc8MU7EM.s:1058   .text.FaultCommand_WriteJsonResult:00000018 $d
C:\Users\hh\AppData\Local\Temp\cc8MU7EM.s:1065   .rodata.FaultCommand_WriteTextStatus.str1.4:00000000 $d
C:\Users\hh\AppData\Local\Temp\cc8MU7EM.s:1082   .text.FaultCommand_WriteTextStatus:00000000 $t
C:\Users\hh\AppData\Local\Temp\cc8MU7EM.s:1087   .text.FaultCommand_WriteTextStatus:00000000 FaultCommand_WriteTextStatus
C:\Users\hh\AppData\Local\Temp\cc8MU7EM.s:1232   .text.FaultCommand_WriteTextStatus:0000009c $d
C:\Users\hh\AppData\Local\Temp\cc8MU7EM.s:1241   .rodata.FaultCommand_WriteTextWaveStatus.str1.4:00000000 $d
C:\Users\hh\AppData\Local\Temp\cc8MU7EM.s:1246   .text.FaultCommand_WriteTextWaveStatus:00000000 $t
C:\Users\hh\AppData\Local\Temp\cc8MU7EM.s:1251   .text.FaultCommand_WriteTextWaveStatus:00000000 FaultCommand_WriteTextWaveStatus
C:\Users\hh\AppData\Local\Temp\cc8MU7EM.s:1312   .text.FaultCommand_WriteTextWaveStatus:0000003c $d
C:\Users\hh\AppData\Local\Temp\cc8MU7EM.s:1317   .rodata.FaultCommand_WriteTextCalibrationStatus.str1.4:00000000 $d
C:\Users\hh\AppData\Local\Temp\cc8MU7EM.s:1324   .text.FaultCommand_WriteTextCalibrationStatus:00000000 $t
C:\Users\hh\AppData\Local\Temp\cc8MU7EM.s:1329   .text.FaultCommand_WriteTextCalibrationStatus:00000000 FaultCommand_WriteTextCalibrationStatus
C:\Users\hh\AppData\Local\Temp\cc8MU7EM.s:1397   .text.FaultCommand_WriteTextCalibrationStatus:00000034 $d
C:\Users\hh\AppData\Local\Temp\cc8MU7EM.s:1403   .rodata.FaultCommand_WriteTextResult.str1.4:00000000 $d
C:\Users\hh\AppData\Local\Temp\cc8MU7EM.s:1413   .text.FaultCommand_WriteTextResult:00000000 $t
C:\Users\hh\AppData\Local\Temp\cc8MU7EM.s:1418   .text.FaultCommand_WriteTextResult:00000000 FaultCommand_WriteTextResult
C:\Users\hh\AppData\Local\Temp\cc8MU7EM.s:1466   .text.FaultCommand_WriteTextResult:0000001c $d
C:\Users\hh\AppData\Local\Temp\cc8MU7EM.s:1473   .rodata.FaultCommand_FindJsonKey.str1.4:00000000 $d
C:\Users\hh\AppData\Local\Temp\cc8MU7EM.s:1477   .text.FaultCommand_FindJsonKey:00000000 $t
C:\Users\hh\AppData\Local\Temp\cc8MU7EM.s:1482   .text.FaultCommand_FindJsonKey:00000000 FaultCommand_FindJsonKey
C:\Users\hh\AppData\Local\Temp\cc8MU7EM.s:1530   .text.FaultCommand_FindJsonKey:00000020 $d
C:\Users\hh\AppData\Local\Temp\cc8MU7EM.s:1535   .text.FaultCommand_JsonGetInt:00000000 $t
C:\Users\hh\AppData\Local\Temp\cc8MU7EM.s:1540   .text.FaultCommand_JsonGetInt:00000000 FaultCommand_JsonGetInt
C:\Users\hh\AppData\Local\Temp\cc8MU7EM.s:1618   .text.FaultCommand_JsonGetString:00000000 $t
C:\Users\hh\AppData\Local\Temp\cc8MU7EM.s:1623   .text.FaultCommand_JsonGetString:00000000 FaultCommand_JsonGetString
C:\Users\hh\AppData\Local\Temp\cc8MU7EM.s:1761   .text.FaultCommand_RunNormal:00000000 $t
C:\Users\hh\AppData\Local\Temp\cc8MU7EM.s:1766   .text.FaultCommand_RunNormal:00000000 FaultCommand_RunNormal
C:\Users\hh\AppData\Local\Temp\cc8MU7EM.s:1795   .rodata.FaultCommand_WriteJsonCanStatus.str1.4:00000000 $d
ARM GAS  C:\Users\hh\AppData\Local\Temp\cc8MU7EM.s 			page 149


C:\Users\hh\AppData\Local\Temp\cc8MU7EM.s:1808   .text.FaultCommand_WriteJsonCanStatus:00000000 $t
C:\Users\hh\AppData\Local\Temp\cc8MU7EM.s:1813   .text.FaultCommand_WriteJsonCanStatus:00000000 FaultCommand_WriteJsonCanStatus
C:\Users\hh\AppData\Local\Temp\cc8MU7EM.s:1925   .text.FaultCommand_WriteJsonCanStatus:00000078 $d
C:\Users\hh\AppData\Local\Temp\cc8MU7EM.s:1934   .rodata.FaultCommand_WriteTextCanStatus.str1.4:00000000 $d
C:\Users\hh\AppData\Local\Temp\cc8MU7EM.s:1945   .text.FaultCommand_WriteTextCanStatus:00000000 $t
C:\Users\hh\AppData\Local\Temp\cc8MU7EM.s:1950   .text.FaultCommand_WriteTextCanStatus:00000000 FaultCommand_WriteTextCanStatus
C:\Users\hh\AppData\Local\Temp\cc8MU7EM.s:2060   .text.FaultCommand_WriteTextCanStatus:00000074 $d
C:\Users\hh\AppData\Local\Temp\cc8MU7EM.s:2069   .rodata.FaultCommand_WriteJsonBmsResponseLog.str1.4:00000000 $d
C:\Users\hh\AppData\Local\Temp\cc8MU7EM.s:2079   .text.FaultCommand_WriteJsonBmsResponseLog:00000000 $t
C:\Users\hh\AppData\Local\Temp\cc8MU7EM.s:2084   .text.FaultCommand_WriteJsonBmsResponseLog:00000000 FaultCommand_WriteJsonBmsResponseLog
C:\Users\hh\AppData\Local\Temp\cc8MU7EM.s:2218   .text.FaultCommand_WriteJsonBmsResponseLog:000000a8 $d
C:\Users\hh\AppData\Local\Temp\cc8MU7EM.s:2227   .rodata.FaultCommand_WriteTextBmsResponseLog.str1.4:00000000 $d
C:\Users\hh\AppData\Local\Temp\cc8MU7EM.s:2236   .text.FaultCommand_WriteTextBmsResponseLog:00000000 $t
C:\Users\hh\AppData\Local\Temp\cc8MU7EM.s:2241   .text.FaultCommand_WriteTextBmsResponseLog:00000000 FaultCommand_WriteTextBmsResponseLog
C:\Users\hh\AppData\Local\Temp\cc8MU7EM.s:2387   .text.FaultCommand_WriteTextBmsResponseLog:000000b0 $d
C:\Users\hh\AppData\Local\Temp\cc8MU7EM.s:2398   .text.FaultCommand_JsonGetUint:00000000 $t
C:\Users\hh\AppData\Local\Temp\cc8MU7EM.s:2403   .text.FaultCommand_JsonGetUint:00000000 FaultCommand_JsonGetUint
C:\Users\hh\AppData\Local\Temp\cc8MU7EM.s:2481   .text.FaultCommand_JsonGetUintDefault:00000000 $t
C:\Users\hh\AppData\Local\Temp\cc8MU7EM.s:2486   .text.FaultCommand_JsonGetUintDefault:00000000 FaultCommand_JsonGetUintDefault
C:\Users\hh\AppData\Local\Temp\cc8MU7EM.s:2523   .rodata.FaultCommand_ExecuteJson.str1.4:00000000 $d
C:\Users\hh\AppData\Local\Temp\cc8MU7EM.s:2674   .text.FaultCommand_ExecuteJson:00000000 $t
C:\Users\hh\AppData\Local\Temp\cc8MU7EM.s:2679   .text.FaultCommand_ExecuteJson:00000000 FaultCommand_ExecuteJson
C:\Users\hh\AppData\Local\Temp\cc8MU7EM.s:3231   .text.FaultCommand_ExecuteJson:00000294 $d
C:\Users\hh\AppData\Local\Temp\cc8MU7EM.s:3264   .text.FaultCommand_ExecuteJson:00000300 $t
C:\Users\hh\AppData\Local\Temp\cc8MU7EM.s:3880   .text.FaultCommand_ExecuteJson:00000584 $d
C:\Users\hh\AppData\Local\Temp\cc8MU7EM.s:3907   .text.FaultCommand_ExecuteJson:000005e0 $t
C:\Users\hh\AppData\Local\Temp\cc8MU7EM.s:4389   .text.FaultCommand_ExecuteJson:000007b8 $d
C:\Users\hh\AppData\Local\Temp\cc8MU7EM.s:4410   .rodata.FaultCommand_ParseCanSendText.str1.4:00000000 $d
C:\Users\hh\AppData\Local\Temp\cc8MU7EM.s:4414   .text.FaultCommand_ParseCanSendText:00000000 $t
C:\Users\hh\AppData\Local\Temp\cc8MU7EM.s:4419   .text.FaultCommand_ParseCanSendText:00000000 FaultCommand_ParseCanSendText
C:\Users\hh\AppData\Local\Temp\cc8MU7EM.s:4589   .text.FaultCommand_ParseCanSendText:0000008c $d
C:\Users\hh\AppData\Local\Temp\cc8MU7EM.s:4594   .rodata.FaultCommand_ExecuteText.str1.4:00000000 $d
C:\Users\hh\AppData\Local\Temp\cc8MU7EM.s:4697   .text.FaultCommand_ExecuteText:00000000 $t
C:\Users\hh\AppData\Local\Temp\cc8MU7EM.s:4702   .text.FaultCommand_ExecuteText:00000000 FaultCommand_ExecuteText
C:\Users\hh\AppData\Local\Temp\cc8MU7EM.s:5155   .text.FaultCommand_ExecuteText:00000284 $d
C:\Users\hh\AppData\Local\Temp\cc8MU7EM.s:5194   .text.FaultCommand_ExecuteText:00000300 $t
C:\Users\hh\AppData\Local\Temp\cc8MU7EM.s:5660   .text.FaultCommand_ExecuteText:000005f0 $d
C:\Users\hh\AppData\Local\Temp\cc8MU7EM.s:5681   .text.FaultCommand_ExecuteLine:00000000 $t
C:\Users\hh\AppData\Local\Temp\cc8MU7EM.s:5687   .text.FaultCommand_ExecuteLine:00000000 FaultCommand_ExecuteLine

UNDEFINED SYMBOLS
VoltageSim_GetCellCalibrationOffsetMv
VoltageSim_SetCellCalibrationOffsetMv
WaveformGen_Stop
VoltageSim_SetCellVoltageMv
VoltageSim_InjectCellOverVoltageRamp
BmsResponseLog_RecordFaultTrigger
VoltageSim_InjectCellUnderVoltageRamp
VoltageSim_InjectVoltageDifference
vsnprintf
WaveformGen_GetStatus
VoltageSim_GetActiveFaultCount
WaveformGen_GetTypeName
VoltageSim_GetLastCellVoltageMv
VoltageSim_GetFaultTypeName
VoltageSim_GetCellFaultInfo
snprintf
ARM GAS  C:\Users\hh\AppData\Local\Temp\cc8MU7EM.s 			page 150


strstr
strchr
strtol
VoltageSim_SetAllCellsVoltageMv
BspCan_GetStatus
BmsResponseLog_GetStatus
BmsResponseLog_GetTriggerName
strtoul
strcmp
VoltageSim_ClearCellFault
WaveformGen_StartSquare
WaveformGen_StartSine
WaveformGen_StartSineAll
VoltageSim_ClearCellCalibrationOffset
VoltageSim_ClearAllCalibrationOffsets
BspCan_SendClassic
BmsResponseLog_Clear
VoltageSim_ClearAllFaults
sscanf
strncmp
