ARM GAS  C:\Users\hh\AppData\Local\Temp\ccU0EVFl.s 			page 1


   1              		.cpu cortex-m7
   2              		.arch armv7e-m
   3              		.fpu fpv5-d16
   4              		.eabi_attribute 28, 1
   5              		.eabi_attribute 20, 1
   6              		.eabi_attribute 21, 1
   7              		.eabi_attribute 23, 3
   8              		.eabi_attribute 24, 1
   9              		.eabi_attribute 25, 1
  10              		.eabi_attribute 26, 1
  11              		.eabi_attribute 30, 1
  12              		.eabi_attribute 34, 1
  13              		.eabi_attribute 18, 4
  14              		.file	"fault_console.c"
  15              		.text
  16              	.Ltext0:
  17              		.cfi_sections	.debug_frame
  18              		.file 1 "App/Src/fault_console.c"
  19              		.section	.rodata.FaultConsole_Write.str1.4,"aMS",%progbits,1
  20              		.align	2
  21              	.LC0:
  22 0000 257300   		.ascii	"%s\000"
  23              		.section	.text.FaultConsole_Write,"ax",%progbits
  24              		.align	1
  25              		.syntax unified
  26              		.thumb
  27              		.thumb_func
  29              	FaultConsole_Write:
  30              	.LVL0:
  31              	.LFB149:
   1:App/Src/fault_console.c **** #include "fault_console.h"
   2:App/Src/fault_console.c **** 
   3:App/Src/fault_console.c **** #include <stdio.h>
   4:App/Src/fault_console.c **** 
   5:App/Src/fault_console.c **** #include "fault_command.h"
   6:App/Src/fault_console.c **** #include "usart.h"
   7:App/Src/fault_console.c **** 
   8:App/Src/fault_console.c **** #define FAULT_CONSOLE_LINE_SIZE 160U
   9:App/Src/fault_console.c **** #define FAULT_CONSOLE_RX_BUDGET 32U
  10:App/Src/fault_console.c **** 
  11:App/Src/fault_console.c **** static char consoleLine[FAULT_CONSOLE_LINE_SIZE];
  12:App/Src/fault_console.c **** static uint16_t consoleLineLength;
  13:App/Src/fault_console.c **** 
  14:App/Src/fault_console.c **** static void FaultConsole_Write(const char *text, void *context)
  15:App/Src/fault_console.c **** {
  32              		.loc 1 15 1 view -0
  33              		.cfi_startproc
  34              		@ args = 0, pretend = 0, frame = 0
  35              		@ frame_needed = 0, uses_anonymous_args = 0
  36              		.loc 1 15 1 is_stmt 0 view .LVU1
  37 0000 08B5     		push	{r3, lr}
  38              	.LCFI0:
  39              		.cfi_def_cfa_offset 8
  40              		.cfi_offset 3, -8
  41              		.cfi_offset 14, -4
  42 0002 0146     		mov	r1, r0
  43              	.LVL1:
ARM GAS  C:\Users\hh\AppData\Local\Temp\ccU0EVFl.s 			page 2


  16:App/Src/fault_console.c ****   (void)context;
  44              		.loc 1 16 3 is_stmt 1 view .LVU2
  17:App/Src/fault_console.c ****   printf("%s", text);
  45              		.loc 1 17 3 view .LVU3
  46 0004 0148     		ldr	r0, .L3
  47              	.LVL2:
  48              		.loc 1 17 3 is_stmt 0 view .LVU4
  49 0006 FFF7FEFF 		bl	printf
  50              	.LVL3:
  18:App/Src/fault_console.c **** }
  51              		.loc 1 18 1 view .LVU5
  52 000a 08BD     		pop	{r3, pc}
  53              	.L4:
  54              		.align	2
  55              	.L3:
  56 000c 00000000 		.word	.LC0
  57              		.cfi_endproc
  58              	.LFE149:
  60              		.section	.rodata.FaultConsole_Init.str1.4,"aMS",%progbits,1
  61              		.align	2
  62              	.LC1:
  63 0000 5B636D64 		.ascii	"[cmd] console ready, type 'help' or JSON {\"cmd\":\""
  63      5D20636F 
  63      6E736F6C 
  63      65207265 
  63      6164792C 
  64 0031 68656C70 		.ascii	"help\"}\015\000"
  64      227D0D00 
  65              		.section	.text.FaultConsole_Init,"ax",%progbits
  66              		.align	1
  67              		.global	FaultConsole_Init
  68              		.syntax unified
  69              		.thumb
  70              		.thumb_func
  72              	FaultConsole_Init:
  73              	.LFB150:
  19:App/Src/fault_console.c **** 
  20:App/Src/fault_console.c **** void FaultConsole_Init(void)
  21:App/Src/fault_console.c **** {
  74              		.loc 1 21 1 is_stmt 1 view -0
  75              		.cfi_startproc
  76              		@ args = 0, pretend = 0, frame = 0
  77              		@ frame_needed = 0, uses_anonymous_args = 0
  78 0000 08B5     		push	{r3, lr}
  79              	.LCFI1:
  80              		.cfi_def_cfa_offset 8
  81              		.cfi_offset 3, -8
  82              		.cfi_offset 14, -4
  22:App/Src/fault_console.c ****   consoleLineLength = 0U;
  83              		.loc 1 22 3 view .LVU7
  84              		.loc 1 22 21 is_stmt 0 view .LVU8
  85 0002 034B     		ldr	r3, .L7
  86 0004 0022     		movs	r2, #0
  87 0006 1A80     		strh	r2, [r3]	@ movhi
  23:App/Src/fault_console.c ****   printf("[cmd] console ready, type 'help' or JSON {\"cmd\":\"help\"}\r\n");
  88              		.loc 1 23 3 is_stmt 1 view .LVU9
  89 0008 0248     		ldr	r0, .L7+4
ARM GAS  C:\Users\hh\AppData\Local\Temp\ccU0EVFl.s 			page 3


  90 000a FFF7FEFF 		bl	puts
  91              	.LVL4:
  24:App/Src/fault_console.c **** }
  92              		.loc 1 24 1 is_stmt 0 view .LVU10
  93 000e 08BD     		pop	{r3, pc}
  94              	.L8:
  95              		.align	2
  96              	.L7:
  97 0010 00000000 		.word	consoleLineLength
  98 0014 00000000 		.word	.LC1
  99              		.cfi_endproc
 100              	.LFE150:
 102              		.section	.rodata.FaultConsole_Process.str1.4,"aMS",%progbits,1
 103              		.align	2
 104              	.LC2:
 105 0000 5B636D64 		.ascii	"[cmd] line too long\015\000"
 105      5D206C69 
 105      6E652074 
 105      6F6F206C 
 105      6F6E670D 
 106              		.section	.text.FaultConsole_Process,"ax",%progbits
 107              		.align	1
 108              		.global	FaultConsole_Process
 109              		.syntax unified
 110              		.thumb
 111              		.thumb_func
 113              	FaultConsole_Process:
 114              	.LFB151:
  25:App/Src/fault_console.c **** 
  26:App/Src/fault_console.c **** void FaultConsole_Process(void)
  27:App/Src/fault_console.c **** {
 115              		.loc 1 27 1 is_stmt 1 view -0
 116              		.cfi_startproc
 117              		@ args = 0, pretend = 0, frame = 8
 118              		@ frame_needed = 0, uses_anonymous_args = 0
 119 0000 30B5     		push	{r4, r5, lr}
 120              	.LCFI2:
 121              		.cfi_def_cfa_offset 12
 122              		.cfi_offset 4, -12
 123              		.cfi_offset 5, -8
 124              		.cfi_offset 14, -4
 125 0002 83B0     		sub	sp, sp, #12
 126              	.LCFI3:
 127              		.cfi_def_cfa_offset 24
  28:App/Src/fault_console.c ****   uint8_t data;
 128              		.loc 1 28 3 view .LVU12
  29:App/Src/fault_console.c **** 
  30:App/Src/fault_console.c ****   for (uint32_t budget = 0U; budget < FAULT_CONSOLE_RX_BUDGET; budget++)
 129              		.loc 1 30 3 view .LVU13
 130              	.LBB2:
 131              		.loc 1 30 8 view .LVU14
 132              	.LVL5:
 133              		.loc 1 30 17 is_stmt 0 view .LVU15
 134 0004 0024     		movs	r4, #0
 135              		.loc 1 30 3 view .LVU16
 136 0006 03E0     		b	.L10
 137              	.LVL6:
ARM GAS  C:\Users\hh\AppData\Local\Temp\ccU0EVFl.s 			page 4


 138              	.L19:
  31:App/Src/fault_console.c ****   {
  32:App/Src/fault_console.c ****     if (HAL_UART_Receive(&huart1, &data, 1U, 0U) != HAL_OK)
  33:App/Src/fault_console.c ****     {
  34:App/Src/fault_console.c ****       break;
  35:App/Src/fault_console.c ****     }
  36:App/Src/fault_console.c **** 
  37:App/Src/fault_console.c ****     if ((data == '\r') || (data == '\n'))
  38:App/Src/fault_console.c ****     {
  39:App/Src/fault_console.c ****       if (consoleLineLength > 0U)
 139              		.loc 1 39 7 is_stmt 1 view .LVU17
 140              		.loc 1 39 29 is_stmt 0 view .LVU18
 141 0008 184B     		ldr	r3, .L20
 142 000a 1B88     		ldrh	r3, [r3]
 143              		.loc 1 39 10 view .LVU19
 144 000c D3B9     		cbnz	r3, .L18
 145              	.L14:
  30:App/Src/fault_console.c ****   {
 146              		.loc 1 30 70 is_stmt 1 discriminator 2 view .LVU20
 147 000e 0134     		adds	r4, r4, #1
 148              	.LVL7:
 149              	.L10:
  30:App/Src/fault_console.c ****   {
 150              		.loc 1 30 37 discriminator 1 view .LVU21
 151 0010 1F2C     		cmp	r4, #31
 152 0012 28D8     		bhi	.L9
  32:App/Src/fault_console.c ****     {
 153              		.loc 1 32 5 view .LVU22
  32:App/Src/fault_console.c ****     {
 154              		.loc 1 32 9 is_stmt 0 view .LVU23
 155 0014 0023     		movs	r3, #0
 156 0016 0122     		movs	r2, #1
 157 0018 0DF10701 		add	r1, sp, #7
 158 001c 1448     		ldr	r0, .L20+4
 159 001e FFF7FEFF 		bl	HAL_UART_Receive
 160              	.LVL8:
  32:App/Src/fault_console.c ****     {
 161              		.loc 1 32 8 discriminator 1 view .LVU24
 162 0022 00BB     		cbnz	r0, .L9
  37:App/Src/fault_console.c ****     {
 163              		.loc 1 37 5 is_stmt 1 view .LVU25
  37:App/Src/fault_console.c ****     {
 164              		.loc 1 37 24 is_stmt 0 view .LVU26
 165 0024 9DF80730 		ldrb	r3, [sp, #7]	@ zero_extendqisi2
  37:App/Src/fault_console.c ****     {
 166              		.loc 1 37 8 view .LVU27
 167 0028 0A2B     		cmp	r3, #10
 168 002a 18BF     		it	ne
 169 002c 0D2B     		cmpne	r3, #13
 170 002e EBD0     		beq	.L19
  40:App/Src/fault_console.c ****       {
  41:App/Src/fault_console.c ****         consoleLine[consoleLineLength] = '\0';
  42:App/Src/fault_console.c ****         FaultCommand_ExecuteLine(consoleLine, FaultConsole_Write, NULL);
  43:App/Src/fault_console.c ****         consoleLineLength = 0U;
  44:App/Src/fault_console.c ****       }
  45:App/Src/fault_console.c ****       continue;
  46:App/Src/fault_console.c ****     }
ARM GAS  C:\Users\hh\AppData\Local\Temp\ccU0EVFl.s 			page 5


  47:App/Src/fault_console.c **** 
  48:App/Src/fault_console.c ****     if (consoleLineLength < (FAULT_CONSOLE_LINE_SIZE - 1U))
 171              		.loc 1 48 5 is_stmt 1 view .LVU28
 172              		.loc 1 48 27 is_stmt 0 view .LVU29
 173 0030 0E4A     		ldr	r2, .L20
 174 0032 1288     		ldrh	r2, [r2]
 175              		.loc 1 48 8 view .LVU30
 176 0034 9E2A     		cmp	r2, #158
 177 0036 0FD8     		bhi	.L15
  49:App/Src/fault_console.c ****     {
  50:App/Src/fault_console.c ****       consoleLine[consoleLineLength++] = (char)data;
 178              		.loc 1 50 7 is_stmt 1 view .LVU31
 179              		.loc 1 50 36 is_stmt 0 view .LVU32
 180 0038 501C     		adds	r0, r2, #1
 181 003a 0C49     		ldr	r1, .L20
 182 003c 0880     		strh	r0, [r1]	@ movhi
 183              		.loc 1 50 40 view .LVU33
 184 003e 0D49     		ldr	r1, .L20+8
 185 0040 8B54     		strb	r3, [r1, r2]
 186 0042 E4E7     		b	.L14
 187              	.L18:
  41:App/Src/fault_console.c ****         FaultCommand_ExecuteLine(consoleLine, FaultConsole_Write, NULL);
 188              		.loc 1 41 9 is_stmt 1 view .LVU34
  41:App/Src/fault_console.c ****         FaultCommand_ExecuteLine(consoleLine, FaultConsole_Write, NULL);
 189              		.loc 1 41 40 is_stmt 0 view .LVU35
 190 0044 0B48     		ldr	r0, .L20+8
 191 0046 0025     		movs	r5, #0
 192 0048 C554     		strb	r5, [r0, r3]
  42:App/Src/fault_console.c ****         consoleLineLength = 0U;
 193              		.loc 1 42 9 is_stmt 1 view .LVU36
 194 004a 2A46     		mov	r2, r5
 195 004c 0A49     		ldr	r1, .L20+12
 196 004e FFF7FEFF 		bl	FaultCommand_ExecuteLine
 197              	.LVL9:
  43:App/Src/fault_console.c ****       }
 198              		.loc 1 43 9 view .LVU37
  43:App/Src/fault_console.c ****       }
 199              		.loc 1 43 27 is_stmt 0 view .LVU38
 200 0052 064B     		ldr	r3, .L20
 201 0054 1D80     		strh	r5, [r3]	@ movhi
  45:App/Src/fault_console.c ****     }
 202              		.loc 1 45 7 is_stmt 1 view .LVU39
 203 0056 DAE7     		b	.L14
 204              	.L15:
  51:App/Src/fault_console.c ****     }
  52:App/Src/fault_console.c ****     else
  53:App/Src/fault_console.c ****     {
  54:App/Src/fault_console.c ****       consoleLineLength = 0U;
 205              		.loc 1 54 7 view .LVU40
 206              		.loc 1 54 25 is_stmt 0 view .LVU41
 207 0058 044B     		ldr	r3, .L20
 208 005a 0022     		movs	r2, #0
 209 005c 1A80     		strh	r2, [r3]	@ movhi
  55:App/Src/fault_console.c ****       printf("[cmd] line too long\r\n");
 210              		.loc 1 55 7 is_stmt 1 view .LVU42
 211 005e 0748     		ldr	r0, .L20+16
 212 0060 FFF7FEFF 		bl	puts
ARM GAS  C:\Users\hh\AppData\Local\Temp\ccU0EVFl.s 			page 6


 213              	.LVL10:
 214 0064 D3E7     		b	.L14
 215              	.L9:
 216              	.LBE2:
  56:App/Src/fault_console.c ****     }
  57:App/Src/fault_console.c ****   }
  58:App/Src/fault_console.c **** }
 217              		.loc 1 58 1 is_stmt 0 view .LVU43
 218 0066 03B0     		add	sp, sp, #12
 219              	.LCFI4:
 220              		.cfi_def_cfa_offset 12
 221              		@ sp needed
 222 0068 30BD     		pop	{r4, r5, pc}
 223              	.LVL11:
 224              	.L21:
 225              		.loc 1 58 1 view .LVU44
 226 006a 00BF     		.align	2
 227              	.L20:
 228 006c 00000000 		.word	consoleLineLength
 229 0070 00000000 		.word	huart1
 230 0074 00000000 		.word	consoleLine
 231 0078 00000000 		.word	FaultConsole_Write
 232 007c 00000000 		.word	.LC2
 233              		.cfi_endproc
 234              	.LFE151:
 236              		.section	.bss.consoleLineLength,"aw",%nobits
 237              		.align	1
 240              	consoleLineLength:
 241 0000 0000     		.space	2
 242              		.section	.bss.consoleLine,"aw",%nobits
 243              		.align	2
 246              	consoleLine:
 247 0000 00000000 		.space	160
 247      00000000 
 247      00000000 
 247      00000000 
 247      00000000 
 248              		.text
 249              	.Letext0:
 250              		.file 2 "C:/Program Files (x86)/ARM/arm-gnu-toolchain-15.2.rel1-mingw-w64-i686-arm-none-eabi/arm-n
 251              		.file 3 "C:/Program Files (x86)/ARM/arm-gnu-toolchain-15.2.rel1-mingw-w64-i686-arm-none-eabi/arm-n
 252              		.file 4 "Drivers/CMSIS/Device/ST/STM32H7xx/Include/stm32h743xx.h"
 253              		.file 5 "Drivers/STM32H7xx_HAL_Driver/Inc/stm32h7xx_hal_def.h"
 254              		.file 6 "Drivers/STM32H7xx_HAL_Driver/Inc/stm32h7xx_hal_dma.h"
 255              		.file 7 "Drivers/STM32H7xx_HAL_Driver/Inc/stm32h7xx_hal_uart.h"
 256              		.file 8 "App/Inc/fault_command.h"
 257              		.file 9 "C:/Program Files (x86)/ARM/arm-gnu-toolchain-15.2.rel1-mingw-w64-i686-arm-none-eabi/arm-n
 258              		.file 10 "Core/Inc/usart.h"
 259              		.file 11 "<built-in>"
ARM GAS  C:\Users\hh\AppData\Local\Temp\ccU0EVFl.s 			page 7

