ARM GAS  C:\Users\hh\AppData\Local\Temp\ccB0HjN0.s 			page 1


   1              		.cpu cortex-m7
   2              		.arch armv7e-m
   3              		.fpu fpv5-d16
   4              		.eabi_attribute 28, 1
   5              		.eabi_attribute 20, 1
   6              		.eabi_attribute 21, 1
   7              		.eabi_attribute 23, 3
   8              		.eabi_attribute 24, 1
   9              		.eabi_attribute 25, 1
  10              		.eabi_attribute 26, 1
  11              		.eabi_attribute 30, 1
  12              		.eabi_attribute 34, 1
  13              		.eabi_attribute 18, 4
  14              		.file	"fdcan.c"
  15              		.text
  16              	.Ltext0:
  17              		.cfi_sections	.debug_frame
  18              		.file 1 "Core/Src/fdcan.c"
  19              		.section	.text.MX_FDCAN1_Init,"ax",%progbits
  20              		.align	1
  21              		.global	MX_FDCAN1_Init
  22              		.syntax unified
  23              		.thumb
  24              		.thumb_func
  26              	MX_FDCAN1_Init:
  27              	.LFB146:
   1:Core/Src/fdcan.c **** /* USER CODE BEGIN Header */
   2:Core/Src/fdcan.c **** /**
   3:Core/Src/fdcan.c ****   ******************************************************************************
   4:Core/Src/fdcan.c ****   * @file    fdcan.c
   5:Core/Src/fdcan.c ****   * @brief   This file provides code for the configuration
   6:Core/Src/fdcan.c ****   *          of the FDCAN instances.
   7:Core/Src/fdcan.c ****   ******************************************************************************
   8:Core/Src/fdcan.c ****   * @attention
   9:Core/Src/fdcan.c ****   *
  10:Core/Src/fdcan.c ****   * Copyright (c) 2026 STMicroelectronics.
  11:Core/Src/fdcan.c ****   * All rights reserved.
  12:Core/Src/fdcan.c ****   *
  13:Core/Src/fdcan.c ****   * This software is licensed under terms that can be found in the LICENSE file
  14:Core/Src/fdcan.c ****   * in the root directory of this software component.
  15:Core/Src/fdcan.c ****   * If no LICENSE file comes with this software, it is provided AS-IS.
  16:Core/Src/fdcan.c ****   *
  17:Core/Src/fdcan.c ****   ******************************************************************************
  18:Core/Src/fdcan.c ****   */
  19:Core/Src/fdcan.c **** /* USER CODE END Header */
  20:Core/Src/fdcan.c **** /* Includes ------------------------------------------------------------------*/
  21:Core/Src/fdcan.c **** #include "fdcan.h"
  22:Core/Src/fdcan.c **** 
  23:Core/Src/fdcan.c **** /* USER CODE BEGIN 0 */
  24:Core/Src/fdcan.c **** 
  25:Core/Src/fdcan.c **** /* USER CODE END 0 */
  26:Core/Src/fdcan.c **** 
  27:Core/Src/fdcan.c **** FDCAN_HandleTypeDef hfdcan1;
  28:Core/Src/fdcan.c **** 
  29:Core/Src/fdcan.c **** /* FDCAN1 init function */
  30:Core/Src/fdcan.c **** void MX_FDCAN1_Init(void)
  31:Core/Src/fdcan.c **** {
ARM GAS  C:\Users\hh\AppData\Local\Temp\ccB0HjN0.s 			page 2


  28              		.loc 1 31 1 view -0
  29              		.cfi_startproc
  30              		@ args = 0, pretend = 0, frame = 0
  31              		@ frame_needed = 0, uses_anonymous_args = 0
  32 0000 08B5     		push	{r3, lr}
  33              	.LCFI0:
  34              		.cfi_def_cfa_offset 8
  35              		.cfi_offset 3, -8
  36              		.cfi_offset 14, -4
  32:Core/Src/fdcan.c **** 
  33:Core/Src/fdcan.c ****   /* USER CODE BEGIN FDCAN1_Init 0 */
  34:Core/Src/fdcan.c **** 
  35:Core/Src/fdcan.c ****   /* USER CODE END FDCAN1_Init 0 */
  36:Core/Src/fdcan.c **** 
  37:Core/Src/fdcan.c ****   /* USER CODE BEGIN FDCAN1_Init 1 */
  38:Core/Src/fdcan.c **** 
  39:Core/Src/fdcan.c ****   /* USER CODE END FDCAN1_Init 1 */
  40:Core/Src/fdcan.c ****   hfdcan1.Instance = FDCAN1;
  37              		.loc 1 40 3 view .LVU1
  38              		.loc 1 40 20 is_stmt 0 view .LVU2
  39 0002 1448     		ldr	r0, .L5
  40 0004 144B     		ldr	r3, .L5+4
  41 0006 0360     		str	r3, [r0]
  41:Core/Src/fdcan.c ****   hfdcan1.Init.FrameFormat = FDCAN_FRAME_CLASSIC;
  42              		.loc 1 41 3 is_stmt 1 view .LVU3
  43              		.loc 1 41 28 is_stmt 0 view .LVU4
  44 0008 0023     		movs	r3, #0
  45 000a 8360     		str	r3, [r0, #8]
  42:Core/Src/fdcan.c ****   hfdcan1.Init.Mode = FDCAN_MODE_NORMAL;
  46              		.loc 1 42 3 is_stmt 1 view .LVU5
  47              		.loc 1 42 21 is_stmt 0 view .LVU6
  48 000c C360     		str	r3, [r0, #12]
  43:Core/Src/fdcan.c ****   hfdcan1.Init.AutoRetransmission = DISABLE;
  49              		.loc 1 43 3 is_stmt 1 view .LVU7
  50              		.loc 1 43 35 is_stmt 0 view .LVU8
  51 000e 0374     		strb	r3, [r0, #16]
  44:Core/Src/fdcan.c ****   hfdcan1.Init.TransmitPause = DISABLE;
  52              		.loc 1 44 3 is_stmt 1 view .LVU9
  53              		.loc 1 44 30 is_stmt 0 view .LVU10
  54 0010 4374     		strb	r3, [r0, #17]
  45:Core/Src/fdcan.c ****   hfdcan1.Init.ProtocolException = DISABLE;
  55              		.loc 1 45 3 is_stmt 1 view .LVU11
  56              		.loc 1 45 34 is_stmt 0 view .LVU12
  57 0012 8374     		strb	r3, [r0, #18]
  46:Core/Src/fdcan.c ****   hfdcan1.Init.NominalPrescaler = 16;
  58              		.loc 1 46 3 is_stmt 1 view .LVU13
  59              		.loc 1 46 33 is_stmt 0 view .LVU14
  60 0014 1022     		movs	r2, #16
  61 0016 4261     		str	r2, [r0, #20]
  47:Core/Src/fdcan.c ****   hfdcan1.Init.NominalSyncJumpWidth = 1;
  62              		.loc 1 47 3 is_stmt 1 view .LVU15
  63              		.loc 1 47 37 is_stmt 0 view .LVU16
  64 0018 0122     		movs	r2, #1
  65 001a 8261     		str	r2, [r0, #24]
  48:Core/Src/fdcan.c ****   hfdcan1.Init.NominalTimeSeg1 = 1;
  66              		.loc 1 48 3 is_stmt 1 view .LVU17
  67              		.loc 1 48 32 is_stmt 0 view .LVU18
ARM GAS  C:\Users\hh\AppData\Local\Temp\ccB0HjN0.s 			page 3


  68 001c C261     		str	r2, [r0, #28]
  49:Core/Src/fdcan.c ****   hfdcan1.Init.NominalTimeSeg2 = 1;
  69              		.loc 1 49 3 is_stmt 1 view .LVU19
  70              		.loc 1 49 32 is_stmt 0 view .LVU20
  71 001e 0262     		str	r2, [r0, #32]
  50:Core/Src/fdcan.c ****   hfdcan1.Init.DataPrescaler = 1;
  72              		.loc 1 50 3 is_stmt 1 view .LVU21
  73              		.loc 1 50 30 is_stmt 0 view .LVU22
  74 0020 4262     		str	r2, [r0, #36]
  51:Core/Src/fdcan.c ****   hfdcan1.Init.DataSyncJumpWidth = 1;
  75              		.loc 1 51 3 is_stmt 1 view .LVU23
  76              		.loc 1 51 34 is_stmt 0 view .LVU24
  77 0022 8262     		str	r2, [r0, #40]
  52:Core/Src/fdcan.c ****   hfdcan1.Init.DataTimeSeg1 = 1;
  78              		.loc 1 52 3 is_stmt 1 view .LVU25
  79              		.loc 1 52 29 is_stmt 0 view .LVU26
  80 0024 C262     		str	r2, [r0, #44]
  53:Core/Src/fdcan.c ****   hfdcan1.Init.DataTimeSeg2 = 1;
  81              		.loc 1 53 3 is_stmt 1 view .LVU27
  82              		.loc 1 53 29 is_stmt 0 view .LVU28
  83 0026 0263     		str	r2, [r0, #48]
  54:Core/Src/fdcan.c ****   hfdcan1.Init.MessageRAMOffset = 0;
  84              		.loc 1 54 3 is_stmt 1 view .LVU29
  85              		.loc 1 54 33 is_stmt 0 view .LVU30
  86 0028 4363     		str	r3, [r0, #52]
  55:Core/Src/fdcan.c ****   hfdcan1.Init.StdFiltersNbr = 0;
  87              		.loc 1 55 3 is_stmt 1 view .LVU31
  88              		.loc 1 55 30 is_stmt 0 view .LVU32
  89 002a 8363     		str	r3, [r0, #56]
  56:Core/Src/fdcan.c ****   hfdcan1.Init.ExtFiltersNbr = 0;
  90              		.loc 1 56 3 is_stmt 1 view .LVU33
  91              		.loc 1 56 30 is_stmt 0 view .LVU34
  92 002c C363     		str	r3, [r0, #60]
  57:Core/Src/fdcan.c ****   hfdcan1.Init.RxFifo0ElmtsNbr = 0;
  93              		.loc 1 57 3 is_stmt 1 view .LVU35
  94              		.loc 1 57 32 is_stmt 0 view .LVU36
  95 002e 0364     		str	r3, [r0, #64]
  58:Core/Src/fdcan.c ****   hfdcan1.Init.RxFifo0ElmtSize = FDCAN_DATA_BYTES_8;
  96              		.loc 1 58 3 is_stmt 1 view .LVU37
  97              		.loc 1 58 32 is_stmt 0 view .LVU38
  98 0030 0422     		movs	r2, #4
  99 0032 4264     		str	r2, [r0, #68]
  59:Core/Src/fdcan.c ****   hfdcan1.Init.RxFifo1ElmtsNbr = 0;
 100              		.loc 1 59 3 is_stmt 1 view .LVU39
 101              		.loc 1 59 32 is_stmt 0 view .LVU40
 102 0034 8364     		str	r3, [r0, #72]
  60:Core/Src/fdcan.c ****   hfdcan1.Init.RxFifo1ElmtSize = FDCAN_DATA_BYTES_8;
 103              		.loc 1 60 3 is_stmt 1 view .LVU41
 104              		.loc 1 60 32 is_stmt 0 view .LVU42
 105 0036 C264     		str	r2, [r0, #76]
  61:Core/Src/fdcan.c ****   hfdcan1.Init.RxBuffersNbr = 0;
 106              		.loc 1 61 3 is_stmt 1 view .LVU43
 107              		.loc 1 61 29 is_stmt 0 view .LVU44
 108 0038 0365     		str	r3, [r0, #80]
  62:Core/Src/fdcan.c ****   hfdcan1.Init.RxBufferSize = FDCAN_DATA_BYTES_8;
 109              		.loc 1 62 3 is_stmt 1 view .LVU45
 110              		.loc 1 62 29 is_stmt 0 view .LVU46
ARM GAS  C:\Users\hh\AppData\Local\Temp\ccB0HjN0.s 			page 4


 111 003a 4265     		str	r2, [r0, #84]
  63:Core/Src/fdcan.c ****   hfdcan1.Init.TxEventsNbr = 0;
 112              		.loc 1 63 3 is_stmt 1 view .LVU47
 113              		.loc 1 63 28 is_stmt 0 view .LVU48
 114 003c 8365     		str	r3, [r0, #88]
  64:Core/Src/fdcan.c ****   hfdcan1.Init.TxBuffersNbr = 0;
 115              		.loc 1 64 3 is_stmt 1 view .LVU49
 116              		.loc 1 64 29 is_stmt 0 view .LVU50
 117 003e C365     		str	r3, [r0, #92]
  65:Core/Src/fdcan.c ****   hfdcan1.Init.TxFifoQueueElmtsNbr = 0;
 118              		.loc 1 65 3 is_stmt 1 view .LVU51
 119              		.loc 1 65 36 is_stmt 0 view .LVU52
 120 0040 0366     		str	r3, [r0, #96]
  66:Core/Src/fdcan.c ****   hfdcan1.Init.TxFifoQueueMode = FDCAN_TX_FIFO_OPERATION;
 121              		.loc 1 66 3 is_stmt 1 view .LVU53
 122              		.loc 1 66 32 is_stmt 0 view .LVU54
 123 0042 4366     		str	r3, [r0, #100]
  67:Core/Src/fdcan.c ****   hfdcan1.Init.TxElmtSize = FDCAN_DATA_BYTES_8;
 124              		.loc 1 67 3 is_stmt 1 view .LVU55
 125              		.loc 1 67 27 is_stmt 0 view .LVU56
 126 0044 8266     		str	r2, [r0, #104]
  68:Core/Src/fdcan.c ****   if (HAL_FDCAN_Init(&hfdcan1) != HAL_OK)
 127              		.loc 1 68 3 is_stmt 1 view .LVU57
 128              		.loc 1 68 7 is_stmt 0 view .LVU58
 129 0046 FFF7FEFF 		bl	HAL_FDCAN_Init
 130              	.LVL0:
 131              		.loc 1 68 6 discriminator 1 view .LVU59
 132 004a 00B9     		cbnz	r0, .L4
 133              	.L1:
  69:Core/Src/fdcan.c ****   {
  70:Core/Src/fdcan.c ****     Error_Handler();
  71:Core/Src/fdcan.c ****   }
  72:Core/Src/fdcan.c ****   /* USER CODE BEGIN FDCAN1_Init 2 */
  73:Core/Src/fdcan.c **** 
  74:Core/Src/fdcan.c ****   /* USER CODE END FDCAN1_Init 2 */
  75:Core/Src/fdcan.c **** 
  76:Core/Src/fdcan.c **** }
 134              		.loc 1 76 1 view .LVU60
 135 004c 08BD     		pop	{r3, pc}
 136              	.L4:
  70:Core/Src/fdcan.c ****   }
 137              		.loc 1 70 5 is_stmt 1 view .LVU61
 138 004e FFF7FEFF 		bl	Error_Handler
 139              	.LVL1:
 140              		.loc 1 76 1 is_stmt 0 view .LVU62
 141 0052 FBE7     		b	.L1
 142              	.L6:
 143              		.align	2
 144              	.L5:
 145 0054 00000000 		.word	hfdcan1
 146 0058 00A00040 		.word	1073782784
 147              		.cfi_endproc
 148              	.LFE146:
 150              		.section	.text.HAL_FDCAN_MspInit,"ax",%progbits
 151              		.align	1
 152              		.global	HAL_FDCAN_MspInit
 153              		.syntax unified
ARM GAS  C:\Users\hh\AppData\Local\Temp\ccB0HjN0.s 			page 5


 154              		.thumb
 155              		.thumb_func
 157              	HAL_FDCAN_MspInit:
 158              	.LVL2:
 159              	.LFB147:
  77:Core/Src/fdcan.c **** 
  78:Core/Src/fdcan.c **** void HAL_FDCAN_MspInit(FDCAN_HandleTypeDef* fdcanHandle)
  79:Core/Src/fdcan.c **** {
 160              		.loc 1 79 1 is_stmt 1 view -0
 161              		.cfi_startproc
 162              		@ args = 0, pretend = 0, frame = 224
 163              		@ frame_needed = 0, uses_anonymous_args = 0
 164              		.loc 1 79 1 is_stmt 0 view .LVU64
 165 0000 10B5     		push	{r4, lr}
 166              	.LCFI1:
 167              		.cfi_def_cfa_offset 8
 168              		.cfi_offset 4, -8
 169              		.cfi_offset 14, -4
 170 0002 B8B0     		sub	sp, sp, #224
 171              	.LCFI2:
 172              		.cfi_def_cfa_offset 232
 173 0004 0446     		mov	r4, r0
  80:Core/Src/fdcan.c **** 
  81:Core/Src/fdcan.c ****   GPIO_InitTypeDef GPIO_InitStruct = {0};
 174              		.loc 1 81 3 is_stmt 1 view .LVU65
 175              		.loc 1 81 20 is_stmt 0 view .LVU66
 176 0006 0021     		movs	r1, #0
 177 0008 3391     		str	r1, [sp, #204]
 178 000a 3491     		str	r1, [sp, #208]
 179 000c 3591     		str	r1, [sp, #212]
 180 000e 3691     		str	r1, [sp, #216]
 181 0010 3791     		str	r1, [sp, #220]
  82:Core/Src/fdcan.c ****   RCC_PeriphCLKInitTypeDef PeriphClkInitStruct = {0};
 182              		.loc 1 82 3 is_stmt 1 view .LVU67
 183              		.loc 1 82 28 is_stmt 0 view .LVU68
 184 0012 C022     		movs	r2, #192
 185 0014 02A8     		add	r0, sp, #8
 186              	.LVL3:
 187              		.loc 1 82 28 view .LVU69
 188 0016 FFF7FEFF 		bl	memset
 189              	.LVL4:
  83:Core/Src/fdcan.c ****   if(fdcanHandle->Instance==FDCAN1)
 190              		.loc 1 83 3 is_stmt 1 view .LVU70
 191              		.loc 1 83 17 is_stmt 0 view .LVU71
 192 001a 2268     		ldr	r2, [r4]
 193              		.loc 1 83 5 view .LVU72
 194 001c 1D4B     		ldr	r3, .L13
 195 001e 9A42     		cmp	r2, r3
 196 0020 01D0     		beq	.L11
 197              	.L7:
  84:Core/Src/fdcan.c ****   {
  85:Core/Src/fdcan.c ****   /* USER CODE BEGIN FDCAN1_MspInit 0 */
  86:Core/Src/fdcan.c **** 
  87:Core/Src/fdcan.c ****   /* USER CODE END FDCAN1_MspInit 0 */
  88:Core/Src/fdcan.c **** 
  89:Core/Src/fdcan.c ****   /** Initializes the peripherals clock
  90:Core/Src/fdcan.c ****   */
ARM GAS  C:\Users\hh\AppData\Local\Temp\ccB0HjN0.s 			page 6


  91:Core/Src/fdcan.c ****     PeriphClkInitStruct.PeriphClockSelection = RCC_PERIPHCLK_FDCAN;
  92:Core/Src/fdcan.c ****     PeriphClkInitStruct.FdcanClockSelection = RCC_FDCANCLKSOURCE_PLL;
  93:Core/Src/fdcan.c ****     if (HAL_RCCEx_PeriphCLKConfig(&PeriphClkInitStruct) != HAL_OK)
  94:Core/Src/fdcan.c ****     {
  95:Core/Src/fdcan.c ****       Error_Handler();
  96:Core/Src/fdcan.c ****     }
  97:Core/Src/fdcan.c **** 
  98:Core/Src/fdcan.c ****     /* FDCAN1 clock enable */
  99:Core/Src/fdcan.c ****     __HAL_RCC_FDCAN_CLK_ENABLE();
 100:Core/Src/fdcan.c **** 
 101:Core/Src/fdcan.c ****     __HAL_RCC_GPIOA_CLK_ENABLE();
 102:Core/Src/fdcan.c ****     /**FDCAN1 GPIO Configuration
 103:Core/Src/fdcan.c ****     PA11     ------> FDCAN1_RX
 104:Core/Src/fdcan.c ****     PA12     ------> FDCAN1_TX
 105:Core/Src/fdcan.c ****     */
 106:Core/Src/fdcan.c ****     GPIO_InitStruct.Pin = GPIO_PIN_11|GPIO_PIN_12;
 107:Core/Src/fdcan.c ****     GPIO_InitStruct.Mode = GPIO_MODE_AF_PP;
 108:Core/Src/fdcan.c ****     GPIO_InitStruct.Pull = GPIO_NOPULL;
 109:Core/Src/fdcan.c ****     GPIO_InitStruct.Speed = GPIO_SPEED_FREQ_LOW;
 110:Core/Src/fdcan.c ****     GPIO_InitStruct.Alternate = GPIO_AF9_FDCAN1;
 111:Core/Src/fdcan.c ****     HAL_GPIO_Init(GPIOA, &GPIO_InitStruct);
 112:Core/Src/fdcan.c **** 
 113:Core/Src/fdcan.c ****   /* USER CODE BEGIN FDCAN1_MspInit 1 */
 114:Core/Src/fdcan.c **** 
 115:Core/Src/fdcan.c ****   /* USER CODE END FDCAN1_MspInit 1 */
 116:Core/Src/fdcan.c ****   }
 117:Core/Src/fdcan.c **** }
 198              		.loc 1 117 1 view .LVU73
 199 0022 38B0     		add	sp, sp, #224
 200              	.LCFI3:
 201              		.cfi_remember_state
 202              		.cfi_def_cfa_offset 8
 203              		@ sp needed
 204 0024 10BD     		pop	{r4, pc}
 205              	.LVL5:
 206              	.L11:
 207              	.LCFI4:
 208              		.cfi_restore_state
  91:Core/Src/fdcan.c ****     PeriphClkInitStruct.FdcanClockSelection = RCC_FDCANCLKSOURCE_PLL;
 209              		.loc 1 91 5 is_stmt 1 view .LVU74
  91:Core/Src/fdcan.c ****     PeriphClkInitStruct.FdcanClockSelection = RCC_FDCANCLKSOURCE_PLL;
 210              		.loc 1 91 46 is_stmt 0 view .LVU75
 211 0026 4FF40042 		mov	r2, #32768
 212 002a 0023     		movs	r3, #0
 213 002c CDE90223 		strd	r2, [sp, #8]
  92:Core/Src/fdcan.c ****     if (HAL_RCCEx_PeriphCLKConfig(&PeriphClkInitStruct) != HAL_OK)
 214              		.loc 1 92 5 is_stmt 1 view .LVU76
  92:Core/Src/fdcan.c ****     if (HAL_RCCEx_PeriphCLKConfig(&PeriphClkInitStruct) != HAL_OK)
 215              		.loc 1 92 45 is_stmt 0 view .LVU77
 216 0030 4FF08053 		mov	r3, #268435456
 217 0034 1E93     		str	r3, [sp, #120]
  93:Core/Src/fdcan.c ****     {
 218              		.loc 1 93 5 is_stmt 1 view .LVU78
  93:Core/Src/fdcan.c ****     {
 219              		.loc 1 93 9 is_stmt 0 view .LVU79
 220 0036 02A8     		add	r0, sp, #8
 221 0038 FFF7FEFF 		bl	HAL_RCCEx_PeriphCLKConfig
ARM GAS  C:\Users\hh\AppData\Local\Temp\ccB0HjN0.s 			page 7


 222              	.LVL6:
  93:Core/Src/fdcan.c ****     {
 223              		.loc 1 93 8 discriminator 1 view .LVU80
 224 003c 38BB     		cbnz	r0, .L12
 225              	.L9:
  99:Core/Src/fdcan.c **** 
 226              		.loc 1 99 5 is_stmt 1 view .LVU81
 227              	.LBB2:
  99:Core/Src/fdcan.c **** 
 228              		.loc 1 99 5 view .LVU82
  99:Core/Src/fdcan.c **** 
 229              		.loc 1 99 5 view .LVU83
 230 003e 164B     		ldr	r3, .L13+4
 231 0040 D3F8EC20 		ldr	r2, [r3, #236]
 232 0044 42F48072 		orr	r2, r2, #256
 233 0048 C3F8EC20 		str	r2, [r3, #236]
  99:Core/Src/fdcan.c **** 
 234              		.loc 1 99 5 view .LVU84
 235 004c D3F8EC20 		ldr	r2, [r3, #236]
 236 0050 02F48072 		and	r2, r2, #256
 237 0054 0092     		str	r2, [sp]
  99:Core/Src/fdcan.c **** 
 238              		.loc 1 99 5 view .LVU85
 239 0056 009A     		ldr	r2, [sp]
 240              	.LBE2:
  99:Core/Src/fdcan.c **** 
 241              		.loc 1 99 5 view .LVU86
 101:Core/Src/fdcan.c ****     /**FDCAN1 GPIO Configuration
 242              		.loc 1 101 5 view .LVU87
 243              	.LBB3:
 101:Core/Src/fdcan.c ****     /**FDCAN1 GPIO Configuration
 244              		.loc 1 101 5 view .LVU88
 101:Core/Src/fdcan.c ****     /**FDCAN1 GPIO Configuration
 245              		.loc 1 101 5 view .LVU89
 246 0058 D3F8E020 		ldr	r2, [r3, #224]
 247 005c 42F00102 		orr	r2, r2, #1
 248 0060 C3F8E020 		str	r2, [r3, #224]
 101:Core/Src/fdcan.c ****     /**FDCAN1 GPIO Configuration
 249              		.loc 1 101 5 view .LVU90
 250 0064 D3F8E030 		ldr	r3, [r3, #224]
 251 0068 03F00103 		and	r3, r3, #1
 252 006c 0193     		str	r3, [sp, #4]
 101:Core/Src/fdcan.c ****     /**FDCAN1 GPIO Configuration
 253              		.loc 1 101 5 view .LVU91
 254 006e 019B     		ldr	r3, [sp, #4]
 255              	.LBE3:
 101:Core/Src/fdcan.c ****     /**FDCAN1 GPIO Configuration
 256              		.loc 1 101 5 view .LVU92
 106:Core/Src/fdcan.c ****     GPIO_InitStruct.Mode = GPIO_MODE_AF_PP;
 257              		.loc 1 106 5 view .LVU93
 106:Core/Src/fdcan.c ****     GPIO_InitStruct.Mode = GPIO_MODE_AF_PP;
 258              		.loc 1 106 25 is_stmt 0 view .LVU94
 259 0070 4FF4C053 		mov	r3, #6144
 260 0074 3393     		str	r3, [sp, #204]
 107:Core/Src/fdcan.c ****     GPIO_InitStruct.Pull = GPIO_NOPULL;
 261              		.loc 1 107 5 is_stmt 1 view .LVU95
 107:Core/Src/fdcan.c ****     GPIO_InitStruct.Pull = GPIO_NOPULL;
ARM GAS  C:\Users\hh\AppData\Local\Temp\ccB0HjN0.s 			page 8


 262              		.loc 1 107 26 is_stmt 0 view .LVU96
 263 0076 0223     		movs	r3, #2
 264 0078 3493     		str	r3, [sp, #208]
 108:Core/Src/fdcan.c ****     GPIO_InitStruct.Speed = GPIO_SPEED_FREQ_LOW;
 265              		.loc 1 108 5 is_stmt 1 view .LVU97
 108:Core/Src/fdcan.c ****     GPIO_InitStruct.Speed = GPIO_SPEED_FREQ_LOW;
 266              		.loc 1 108 26 is_stmt 0 view .LVU98
 267 007a 0023     		movs	r3, #0
 268 007c 3593     		str	r3, [sp, #212]
 109:Core/Src/fdcan.c ****     GPIO_InitStruct.Alternate = GPIO_AF9_FDCAN1;
 269              		.loc 1 109 5 is_stmt 1 view .LVU99
 109:Core/Src/fdcan.c ****     GPIO_InitStruct.Alternate = GPIO_AF9_FDCAN1;
 270              		.loc 1 109 27 is_stmt 0 view .LVU100
 271 007e 3693     		str	r3, [sp, #216]
 110:Core/Src/fdcan.c ****     HAL_GPIO_Init(GPIOA, &GPIO_InitStruct);
 272              		.loc 1 110 5 is_stmt 1 view .LVU101
 110:Core/Src/fdcan.c ****     HAL_GPIO_Init(GPIOA, &GPIO_InitStruct);
 273              		.loc 1 110 31 is_stmt 0 view .LVU102
 274 0080 0923     		movs	r3, #9
 275 0082 3793     		str	r3, [sp, #220]
 111:Core/Src/fdcan.c **** 
 276              		.loc 1 111 5 is_stmt 1 view .LVU103
 277 0084 33A9     		add	r1, sp, #204
 278 0086 0548     		ldr	r0, .L13+8
 279 0088 FFF7FEFF 		bl	HAL_GPIO_Init
 280              	.LVL7:
 281              		.loc 1 117 1 is_stmt 0 view .LVU104
 282 008c C9E7     		b	.L7
 283              	.L12:
  95:Core/Src/fdcan.c ****     }
 284              		.loc 1 95 7 is_stmt 1 view .LVU105
 285 008e FFF7FEFF 		bl	Error_Handler
 286              	.LVL8:
 287 0092 D4E7     		b	.L9
 288              	.L14:
 289              		.align	2
 290              	.L13:
 291 0094 00A00040 		.word	1073782784
 292 0098 00440258 		.word	1476543488
 293 009c 00000258 		.word	1476526080
 294              		.cfi_endproc
 295              	.LFE147:
 297              		.section	.text.HAL_FDCAN_MspDeInit,"ax",%progbits
 298              		.align	1
 299              		.global	HAL_FDCAN_MspDeInit
 300              		.syntax unified
 301              		.thumb
 302              		.thumb_func
 304              	HAL_FDCAN_MspDeInit:
 305              	.LVL9:
 306              	.LFB148:
 118:Core/Src/fdcan.c **** 
 119:Core/Src/fdcan.c **** void HAL_FDCAN_MspDeInit(FDCAN_HandleTypeDef* fdcanHandle)
 120:Core/Src/fdcan.c **** {
 307              		.loc 1 120 1 view -0
 308              		.cfi_startproc
 309              		@ args = 0, pretend = 0, frame = 0
ARM GAS  C:\Users\hh\AppData\Local\Temp\ccB0HjN0.s 			page 9


 310              		@ frame_needed = 0, uses_anonymous_args = 0
 311              		.loc 1 120 1 is_stmt 0 view .LVU107
 312 0000 08B5     		push	{r3, lr}
 313              	.LCFI5:
 314              		.cfi_def_cfa_offset 8
 315              		.cfi_offset 3, -8
 316              		.cfi_offset 14, -4
 121:Core/Src/fdcan.c **** 
 122:Core/Src/fdcan.c ****   if(fdcanHandle->Instance==FDCAN1)
 317              		.loc 1 122 3 is_stmt 1 view .LVU108
 318              		.loc 1 122 17 is_stmt 0 view .LVU109
 319 0002 0268     		ldr	r2, [r0]
 320              		.loc 1 122 5 view .LVU110
 321 0004 084B     		ldr	r3, .L19
 322 0006 9A42     		cmp	r2, r3
 323 0008 00D0     		beq	.L18
 324              	.LVL10:
 325              	.L15:
 123:Core/Src/fdcan.c ****   {
 124:Core/Src/fdcan.c ****   /* USER CODE BEGIN FDCAN1_MspDeInit 0 */
 125:Core/Src/fdcan.c **** 
 126:Core/Src/fdcan.c ****   /* USER CODE END FDCAN1_MspDeInit 0 */
 127:Core/Src/fdcan.c ****     /* Peripheral clock disable */
 128:Core/Src/fdcan.c ****     __HAL_RCC_FDCAN_CLK_DISABLE();
 129:Core/Src/fdcan.c **** 
 130:Core/Src/fdcan.c ****     /**FDCAN1 GPIO Configuration
 131:Core/Src/fdcan.c ****     PA11     ------> FDCAN1_RX
 132:Core/Src/fdcan.c ****     PA12     ------> FDCAN1_TX
 133:Core/Src/fdcan.c ****     */
 134:Core/Src/fdcan.c ****     HAL_GPIO_DeInit(GPIOA, GPIO_PIN_11|GPIO_PIN_12);
 135:Core/Src/fdcan.c **** 
 136:Core/Src/fdcan.c ****   /* USER CODE BEGIN FDCAN1_MspDeInit 1 */
 137:Core/Src/fdcan.c **** 
 138:Core/Src/fdcan.c ****   /* USER CODE END FDCAN1_MspDeInit 1 */
 139:Core/Src/fdcan.c ****   }
 140:Core/Src/fdcan.c **** }
 326              		.loc 1 140 1 view .LVU111
 327 000a 08BD     		pop	{r3, pc}
 328              	.LVL11:
 329              	.L18:
 128:Core/Src/fdcan.c **** 
 330              		.loc 1 128 5 is_stmt 1 view .LVU112
 331 000c 074A     		ldr	r2, .L19+4
 332 000e D2F8EC30 		ldr	r3, [r2, #236]
 333 0012 23F48073 		bic	r3, r3, #256
 334 0016 C2F8EC30 		str	r3, [r2, #236]
 134:Core/Src/fdcan.c **** 
 335              		.loc 1 134 5 view .LVU113
 336 001a 4FF4C051 		mov	r1, #6144
 337 001e 0448     		ldr	r0, .L19+8
 338              	.LVL12:
 134:Core/Src/fdcan.c **** 
 339              		.loc 1 134 5 is_stmt 0 view .LVU114
 340 0020 FFF7FEFF 		bl	HAL_GPIO_DeInit
 341              	.LVL13:
 342              		.loc 1 140 1 view .LVU115
 343 0024 F1E7     		b	.L15
ARM GAS  C:\Users\hh\AppData\Local\Temp\ccB0HjN0.s 			page 10


 344              	.L20:
 345 0026 00BF     		.align	2
 346              	.L19:
 347 0028 00A00040 		.word	1073782784
 348 002c 00440258 		.word	1476543488
 349 0030 00000258 		.word	1476526080
 350              		.cfi_endproc
 351              	.LFE148:
 353              		.global	hfdcan1
 354              		.section	.bss.hfdcan1,"aw",%nobits
 355              		.align	2
 358              	hfdcan1:
 359 0000 00000000 		.space	160
 359      00000000 
 359      00000000 
 359      00000000 
 359      00000000 
 360              		.text
 361              	.Letext0:
 362              		.file 2 "C:/Program Files (x86)/ARM/arm-gnu-toolchain-15.2.rel1-mingw-w64-i686-arm-none-eabi/arm-n
 363              		.file 3 "C:/Program Files (x86)/ARM/arm-gnu-toolchain-15.2.rel1-mingw-w64-i686-arm-none-eabi/arm-n
 364              		.file 4 "Drivers/CMSIS/Device/ST/STM32H7xx/Include/stm32h743xx.h"
 365              		.file 5 "Drivers/CMSIS/Device/ST/STM32H7xx/Include/stm32h7xx.h"
 366              		.file 6 "Drivers/STM32H7xx_HAL_Driver/Inc/stm32h7xx_hal_def.h"
 367              		.file 7 "Drivers/STM32H7xx_HAL_Driver/Inc/stm32h7xx_hal_rcc_ex.h"
 368              		.file 8 "Drivers/STM32H7xx_HAL_Driver/Inc/stm32h7xx_hal_gpio.h"
 369              		.file 9 "Drivers/STM32H7xx_HAL_Driver/Inc/stm32h7xx_hal_fdcan.h"
 370              		.file 10 "Core/Inc/fdcan.h"
 371              		.file 11 "Core/Inc/main.h"
 372              		.file 12 "<built-in>"
ARM GAS  C:\Users\hh\AppData\Local\Temp\ccB0HjN0.s 			page 11

