ARM GAS  C:\Users\hh\AppData\Local\Temp\cc8tcLRP.s 			page 1


   1              		.cpu cortex-m7
   2              		.arch armv7e-m
   3              		.fpu fpv5-d16
   4              		.eabi_attribute 28, 1
   5              		.eabi_attribute 20, 1
   6              		.eabi_attribute 21, 1
   7              		.eabi_attribute 23, 3
   8              		.eabi_attribute 24, 1
   9              		.eabi_attribute 25, 1
  10              		.eabi_attribute 26, 1
  11              		.eabi_attribute 30, 1
  12              		.eabi_attribute 34, 1
  13              		.eabi_attribute 18, 4
  14              		.file	"freertos.c"
  15              		.text
  16              	.Ltext0:
  17              		.cfi_sections	.debug_frame
  18              		.file 1 "Core/Src/freertos.c"
  19              		.section	.rodata.StartDefaultTask.str1.4,"aMS",%progbits,1
  20              		.align	2
  21              	.LC0:
  22 0000 5B72746F 		.ascii	"[rtos] defaultTask started\015\000"
  22      735D2064 
  22      65666175 
  22      6C745461 
  22      736B2073 
  23              		.align	2
  24              	.LC1:
  25 001c 5B72746F 		.ascii	"[rtos] voltage simulator process failed\015\000"
  25      735D2076 
  25      6F6C7461 
  25      67652073 
  25      696D756C 
  26 0045 000000   		.align	2
  27              	.LC2:
  28 0048 5B72746F 		.ascii	"[rtos] heartbeat=%lu tick=%lu\015\012\000"
  28      735D2068 
  28      65617274 
  28      62656174 
  28      3D256C75 
  29              		.section	.text.StartDefaultTask,"ax",%progbits
  30              		.align	1
  31              		.global	StartDefaultTask
  32              		.syntax unified
  33              		.thumb
  34              		.thumb_func
  36              	StartDefaultTask:
  37              	.LVL0:
  38              	.LFB154:
   1:Core/Src/freertos.c **** /* USER CODE BEGIN Header */
   2:Core/Src/freertos.c **** /**
   3:Core/Src/freertos.c ****   ******************************************************************************
   4:Core/Src/freertos.c ****   * File Name          : freertos.c
   5:Core/Src/freertos.c ****   * Description        : Code for freertos applications
   6:Core/Src/freertos.c ****   ******************************************************************************
   7:Core/Src/freertos.c ****   * @attention
   8:Core/Src/freertos.c ****   *
ARM GAS  C:\Users\hh\AppData\Local\Temp\cc8tcLRP.s 			page 2


   9:Core/Src/freertos.c ****   * Copyright (c) 2026 STMicroelectronics.
  10:Core/Src/freertos.c ****   * All rights reserved.
  11:Core/Src/freertos.c ****   *
  12:Core/Src/freertos.c ****   * This software is licensed under terms that can be found in the LICENSE file
  13:Core/Src/freertos.c ****   * in the root directory of this software component.
  14:Core/Src/freertos.c ****   * If no LICENSE file comes with this software, it is provided AS-IS.
  15:Core/Src/freertos.c ****   *
  16:Core/Src/freertos.c ****   ******************************************************************************
  17:Core/Src/freertos.c ****   */
  18:Core/Src/freertos.c **** /* USER CODE END Header */
  19:Core/Src/freertos.c **** 
  20:Core/Src/freertos.c **** /* Includes ------------------------------------------------------------------*/
  21:Core/Src/freertos.c **** #include "FreeRTOS.h"
  22:Core/Src/freertos.c **** #include "task.h"
  23:Core/Src/freertos.c **** #include "main.h"
  24:Core/Src/freertos.c **** #include "FreeRTOS.h"
  25:Core/Src/freertos.c **** #include "cmsis_os2.h"
  26:Core/Src/freertos.c **** 
  27:Core/Src/freertos.c **** /* Private includes ----------------------------------------------------------*/
  28:Core/Src/freertos.c **** /* USER CODE BEGIN Includes */
  29:Core/Src/freertos.c **** #include <stdio.h>
  30:Core/Src/freertos.c **** 
  31:Core/Src/freertos.c **** #include "fault_console.h"
  32:Core/Src/freertos.c **** #include "voltage_sim.h"
  33:Core/Src/freertos.c **** 
  34:Core/Src/freertos.c **** /* USER CODE END Includes */
  35:Core/Src/freertos.c **** 
  36:Core/Src/freertos.c **** /* Private typedef -----------------------------------------------------------*/
  37:Core/Src/freertos.c **** /* USER CODE BEGIN PTD */
  38:Core/Src/freertos.c **** 
  39:Core/Src/freertos.c **** /* USER CODE END PTD */
  40:Core/Src/freertos.c **** 
  41:Core/Src/freertos.c **** /* Private define ------------------------------------------------------------*/
  42:Core/Src/freertos.c **** /* USER CODE BEGIN PD */
  43:Core/Src/freertos.c **** 
  44:Core/Src/freertos.c **** /* USER CODE END PD */
  45:Core/Src/freertos.c **** 
  46:Core/Src/freertos.c **** /* Private macro -------------------------------------------------------------*/
  47:Core/Src/freertos.c **** /* USER CODE BEGIN PM */
  48:Core/Src/freertos.c **** 
  49:Core/Src/freertos.c **** /* USER CODE END PM */
  50:Core/Src/freertos.c **** 
  51:Core/Src/freertos.c **** /* Private variables ---------------------------------------------------------*/
  52:Core/Src/freertos.c **** /* USER CODE BEGIN Variables */
  53:Core/Src/freertos.c **** 
  54:Core/Src/freertos.c **** /* USER CODE END Variables */
  55:Core/Src/freertos.c **** /* Definitions for defaultTask */
  56:Core/Src/freertos.c **** osThreadId_t defaultTaskHandle;
  57:Core/Src/freertos.c **** const osThreadAttr_t defaultTask_attributes = {
  58:Core/Src/freertos.c ****   .name = "defaultTask",
  59:Core/Src/freertos.c ****   .stack_size = 128 * 4,
  60:Core/Src/freertos.c ****   .priority = (osPriority_t) osPriorityNormal,
  61:Core/Src/freertos.c **** };
  62:Core/Src/freertos.c **** 
  63:Core/Src/freertos.c **** /* Private function prototypes -----------------------------------------------*/
  64:Core/Src/freertos.c **** /* USER CODE BEGIN FunctionPrototypes */
  65:Core/Src/freertos.c **** 
ARM GAS  C:\Users\hh\AppData\Local\Temp\cc8tcLRP.s 			page 3


  66:Core/Src/freertos.c **** /* USER CODE END FunctionPrototypes */
  67:Core/Src/freertos.c **** 
  68:Core/Src/freertos.c **** void StartDefaultTask(void *argument);
  69:Core/Src/freertos.c **** 
  70:Core/Src/freertos.c **** void MX_FREERTOS_Init(void); /* (MISRA C 2004 rule 8.1) */
  71:Core/Src/freertos.c **** 
  72:Core/Src/freertos.c **** /**
  73:Core/Src/freertos.c ****   * @brief  FreeRTOS initialization
  74:Core/Src/freertos.c ****   * @param  None
  75:Core/Src/freertos.c ****   * @retval None
  76:Core/Src/freertos.c ****   */
  77:Core/Src/freertos.c **** void MX_FREERTOS_Init(void) {
  78:Core/Src/freertos.c ****   /* USER CODE BEGIN Init */
  79:Core/Src/freertos.c **** 
  80:Core/Src/freertos.c ****   /* USER CODE END Init */
  81:Core/Src/freertos.c **** 
  82:Core/Src/freertos.c ****   /* USER CODE BEGIN RTOS_MUTEX */
  83:Core/Src/freertos.c ****   /* add mutexes, ... */
  84:Core/Src/freertos.c ****   /* USER CODE END RTOS_MUTEX */
  85:Core/Src/freertos.c **** 
  86:Core/Src/freertos.c ****   /* USER CODE BEGIN RTOS_SEMAPHORES */
  87:Core/Src/freertos.c ****   /* add semaphores, ... */
  88:Core/Src/freertos.c ****   /* USER CODE END RTOS_SEMAPHORES */
  89:Core/Src/freertos.c **** 
  90:Core/Src/freertos.c ****   /* USER CODE BEGIN RTOS_TIMERS */
  91:Core/Src/freertos.c ****   /* start timers, add new ones, ... */
  92:Core/Src/freertos.c ****   /* USER CODE END RTOS_TIMERS */
  93:Core/Src/freertos.c **** 
  94:Core/Src/freertos.c ****   /* USER CODE BEGIN RTOS_QUEUES */
  95:Core/Src/freertos.c ****   /* add queues, ... */
  96:Core/Src/freertos.c ****   /* USER CODE END RTOS_QUEUES */
  97:Core/Src/freertos.c **** 
  98:Core/Src/freertos.c ****   /* Create the thread(s) */
  99:Core/Src/freertos.c ****   /* creation of defaultTask */
 100:Core/Src/freertos.c ****   defaultTaskHandle = osThreadNew(StartDefaultTask, NULL, &defaultTask_attributes);
 101:Core/Src/freertos.c **** 
 102:Core/Src/freertos.c ****   /* USER CODE BEGIN RTOS_THREADS */
 103:Core/Src/freertos.c ****   /* add threads, ... */
 104:Core/Src/freertos.c ****   /* USER CODE END RTOS_THREADS */
 105:Core/Src/freertos.c **** 
 106:Core/Src/freertos.c ****   /* USER CODE BEGIN RTOS_EVENTS */
 107:Core/Src/freertos.c ****   /* add events, ... */
 108:Core/Src/freertos.c ****   /* USER CODE END RTOS_EVENTS */
 109:Core/Src/freertos.c **** 
 110:Core/Src/freertos.c **** }
 111:Core/Src/freertos.c **** 
 112:Core/Src/freertos.c **** /* USER CODE BEGIN Header_StartDefaultTask */
 113:Core/Src/freertos.c **** /**
 114:Core/Src/freertos.c ****   * @brief  Function implementing the defaultTask thread.
 115:Core/Src/freertos.c ****   * @param  argument: Not used
 116:Core/Src/freertos.c ****   * @retval None
 117:Core/Src/freertos.c ****   */
 118:Core/Src/freertos.c **** /* USER CODE END Header_StartDefaultTask */
 119:Core/Src/freertos.c **** void StartDefaultTask(void *argument)
 120:Core/Src/freertos.c **** {
  39              		.loc 1 120 1 view -0
  40              		.cfi_startproc
ARM GAS  C:\Users\hh\AppData\Local\Temp\cc8tcLRP.s 			page 4


  41              		@ args = 0, pretend = 0, frame = 0
  42              		@ frame_needed = 0, uses_anonymous_args = 0
  43              		.loc 1 120 1 is_stmt 0 view .LVU1
  44 0000 F8B5     		push	{r3, r4, r5, r6, r7, lr}
  45              	.LCFI0:
  46              		.cfi_def_cfa_offset 24
  47              		.cfi_offset 3, -24
  48              		.cfi_offset 4, -20
  49              		.cfi_offset 5, -16
  50              		.cfi_offset 6, -12
  51              		.cfi_offset 7, -8
  52              		.cfi_offset 14, -4
 121:Core/Src/freertos.c ****   /* USER CODE BEGIN StartDefaultTask */
 122:Core/Src/freertos.c ****   uint32_t heartbeat = 0;
  53              		.loc 1 122 3 is_stmt 1 view .LVU2
  54              	.LVL1:
 123:Core/Src/freertos.c ****   uint32_t lastHeartbeatTick = 0;
  55              		.loc 1 123 3 view .LVU3
 124:Core/Src/freertos.c **** 
 125:Core/Src/freertos.c ****   printf("[rtos] defaultTask started\r\n");
  56              		.loc 1 125 3 view .LVU4
  57 0002 1548     		ldr	r0, .L6
  58              	.LVL2:
  59              		.loc 1 125 3 is_stmt 0 view .LVU5
  60 0004 FFF7FEFF 		bl	puts
  61              	.LVL3:
 123:Core/Src/freertos.c ****   uint32_t lastHeartbeatTick = 0;
  62              		.loc 1 123 12 view .LVU6
  63 0008 0026     		movs	r6, #0
 122:Core/Src/freertos.c ****   uint32_t lastHeartbeatTick = 0;
  64              		.loc 1 122 12 view .LVU7
  65 000a 3546     		mov	r5, r6
  66 000c 19E0     		b	.L4
  67              	.LVL4:
  68              	.L2:
  69              	.LBB2:
 126:Core/Src/freertos.c **** 
 127:Core/Src/freertos.c ****   /* Infinite loop */
 128:Core/Src/freertos.c ****   for(;;)
 129:Core/Src/freertos.c ****   {
 130:Core/Src/freertos.c ****     uint32_t now = HAL_GetTick();
 131:Core/Src/freertos.c **** 
 132:Core/Src/freertos.c ****     if (VoltageSim_Process(now) != HAL_OK)
 133:Core/Src/freertos.c ****     {
 134:Core/Src/freertos.c ****       printf("[rtos] voltage simulator process failed\r\n");
 135:Core/Src/freertos.c ****     }
 136:Core/Src/freertos.c ****     FaultConsole_Process();
  70              		.loc 1 136 5 is_stmt 1 view .LVU8
  71 000e FFF7FEFF 		bl	FaultConsole_Process
  72              	.LVL5:
 137:Core/Src/freertos.c **** 
 138:Core/Src/freertos.c ****     if ((now - lastHeartbeatTick) >= 1000U)
  73              		.loc 1 138 5 view .LVU9
  74              		.loc 1 138 14 is_stmt 0 view .LVU10
  75 0012 A31B     		subs	r3, r4, r6
  76              		.loc 1 138 8 view .LVU11
  77 0014 B3F57A7F 		cmp	r3, #1000
ARM GAS  C:\Users\hh\AppData\Local\Temp\cc8tcLRP.s 			page 5


  78 0018 10D3     		bcc	.L3
 139:Core/Src/freertos.c ****     {
 140:Core/Src/freertos.c ****       lastHeartbeatTick = now;
  79              		.loc 1 140 7 is_stmt 1 view .LVU12
  80              	.LVL6:
 141:Core/Src/freertos.c ****       HAL_GPIO_TogglePin(LED_YL_GPIO_Port, LED_YL_Pin);
  81              		.loc 1 141 7 view .LVU13
  82 001a 104E     		ldr	r6, .L6+4
  83 001c 0121     		movs	r1, #1
  84 001e 3046     		mov	r0, r6
  85 0020 FFF7FEFF 		bl	HAL_GPIO_TogglePin
  86              	.LVL7:
 142:Core/Src/freertos.c ****       HAL_GPIO_TogglePin(LED_RY_GPIO_Port, LED_RY_Pin);
  87              		.loc 1 142 7 view .LVU14
  88 0024 0221     		movs	r1, #2
  89 0026 3046     		mov	r0, r6
  90 0028 FFF7FEFF 		bl	HAL_GPIO_TogglePin
  91              	.LVL8:
 143:Core/Src/freertos.c ****       printf("[rtos] heartbeat=%lu tick=%lu\r\n",
  92              		.loc 1 143 7 view .LVU15
  93 002c 6F1C     		adds	r7, r5, #1
  94              	.LVL9:
  95              		.loc 1 143 7 is_stmt 0 view .LVU16
  96 002e 2246     		mov	r2, r4
  97 0030 2946     		mov	r1, r5
  98 0032 0B48     		ldr	r0, .L6+8
  99 0034 FFF7FEFF 		bl	printf
 100              	.LVL10:
 140:Core/Src/freertos.c ****       HAL_GPIO_TogglePin(LED_YL_GPIO_Port, LED_YL_Pin);
 101              		.loc 1 140 25 view .LVU17
 102 0038 2646     		mov	r6, r4
 103              		.loc 1 143 7 view .LVU18
 104 003a 3D46     		mov	r5, r7
 105              	.LVL11:
 106              	.L3:
 144:Core/Src/freertos.c ****              (unsigned long)heartbeat++,
 145:Core/Src/freertos.c ****              (unsigned long)now);
 146:Core/Src/freertos.c ****     }
 147:Core/Src/freertos.c **** 
 148:Core/Src/freertos.c ****     osDelay(1);
 107              		.loc 1 148 5 is_stmt 1 view .LVU19
 108 003c 0120     		movs	r0, #1
 109 003e FFF7FEFF 		bl	osDelay
 110              	.LVL12:
 111              	.LBE2:
 128:Core/Src/freertos.c ****   {
 112              		.loc 1 128 3 view .LVU20
 113              	.L4:
 128:Core/Src/freertos.c ****   {
 114              		.loc 1 128 3 view .LVU21
 115              	.LBB3:
 130:Core/Src/freertos.c **** 
 116              		.loc 1 130 5 view .LVU22
 130:Core/Src/freertos.c **** 
 117              		.loc 1 130 20 is_stmt 0 view .LVU23
 118 0042 FFF7FEFF 		bl	HAL_GetTick
 119              	.LVL13:
ARM GAS  C:\Users\hh\AppData\Local\Temp\cc8tcLRP.s 			page 6


 120 0046 0446     		mov	r4, r0
 121              	.LVL14:
 132:Core/Src/freertos.c ****     {
 122              		.loc 1 132 5 is_stmt 1 view .LVU24
 132:Core/Src/freertos.c ****     {
 123              		.loc 1 132 9 is_stmt 0 view .LVU25
 124 0048 FFF7FEFF 		bl	VoltageSim_Process
 125              	.LVL15:
 132:Core/Src/freertos.c ****     {
 126              		.loc 1 132 8 discriminator 1 view .LVU26
 127 004c 0028     		cmp	r0, #0
 128 004e DED0     		beq	.L2
 134:Core/Src/freertos.c ****     }
 129              		.loc 1 134 7 is_stmt 1 view .LVU27
 130 0050 0448     		ldr	r0, .L6+12
 131 0052 FFF7FEFF 		bl	puts
 132              	.LVL16:
 133 0056 DAE7     		b	.L2
 134              	.L7:
 135              		.align	2
 136              	.L6:
 137 0058 00000000 		.word	.LC0
 138 005c 00100258 		.word	1476530176
 139 0060 48000000 		.word	.LC2
 140 0064 1C000000 		.word	.LC1
 141              	.LBE3:
 142              		.cfi_endproc
 143              	.LFE154:
 145              		.section	.text.MX_FREERTOS_Init,"ax",%progbits
 146              		.align	1
 147              		.global	MX_FREERTOS_Init
 148              		.syntax unified
 149              		.thumb
 150              		.thumb_func
 152              	MX_FREERTOS_Init:
 153              	.LFB153:
  77:Core/Src/freertos.c ****   /* USER CODE BEGIN Init */
 154              		.loc 1 77 29 view -0
 155              		.cfi_startproc
 156              		@ args = 0, pretend = 0, frame = 0
 157              		@ frame_needed = 0, uses_anonymous_args = 0
 158 0000 08B5     		push	{r3, lr}
 159              	.LCFI1:
 160              		.cfi_def_cfa_offset 8
 161              		.cfi_offset 3, -8
 162              		.cfi_offset 14, -4
 100:Core/Src/freertos.c **** 
 163              		.loc 1 100 3 view .LVU29
 100:Core/Src/freertos.c **** 
 164              		.loc 1 100 23 is_stmt 0 view .LVU30
 165 0002 044A     		ldr	r2, .L10
 166 0004 0021     		movs	r1, #0
 167 0006 0448     		ldr	r0, .L10+4
 168 0008 FFF7FEFF 		bl	osThreadNew
 169              	.LVL17:
 100:Core/Src/freertos.c **** 
 170              		.loc 1 100 21 discriminator 1 view .LVU31
ARM GAS  C:\Users\hh\AppData\Local\Temp\cc8tcLRP.s 			page 7


 171 000c 034B     		ldr	r3, .L10+8
 172 000e 1860     		str	r0, [r3]
 110:Core/Src/freertos.c **** 
 173              		.loc 1 110 1 view .LVU32
 174 0010 08BD     		pop	{r3, pc}
 175              	.L11:
 176 0012 00BF     		.align	2
 177              	.L10:
 178 0014 00000000 		.word	defaultTask_attributes
 179 0018 00000000 		.word	StartDefaultTask
 180 001c 00000000 		.word	defaultTaskHandle
 181              		.cfi_endproc
 182              	.LFE153:
 184              		.global	defaultTask_attributes
 185              		.section	.rodata.str1.4,"aMS",%progbits,1
 186              		.align	2
 187              	.LC3:
 188 0000 64656661 		.ascii	"defaultTask\000"
 188      756C7454 
 188      61736B00 
 189              		.section	.rodata.defaultTask_attributes,"a"
 190              		.align	2
 193              	defaultTask_attributes:
 194 0000 00000000 		.word	.LC3
 195 0004 00000000 		.space	16
 195      00000000 
 195      00000000 
 195      00000000 
 196 0014 00020000 		.word	512
 197 0018 18000000 		.word	24
 198 001c 00000000 		.space	8
 198      00000000 
 199              		.global	defaultTaskHandle
 200              		.section	.bss.defaultTaskHandle,"aw",%nobits
 201              		.align	2
 204              	defaultTaskHandle:
 205 0000 00000000 		.space	4
 206              		.text
 207              	.Letext0:
 208              		.file 2 "C:/Program Files (x86)/ARM/arm-gnu-toolchain-15.2.rel1-mingw-w64-i686-arm-none-eabi/arm-n
 209              		.file 3 "C:/Program Files (x86)/ARM/arm-gnu-toolchain-15.2.rel1-mingw-w64-i686-arm-none-eabi/arm-n
 210              		.file 4 "Drivers/CMSIS/Device/ST/STM32H7xx/Include/stm32h743xx.h"
 211              		.file 5 "Drivers/STM32H7xx_HAL_Driver/Inc/stm32h7xx_hal_def.h"
 212              		.file 6 "Drivers/CMSIS/RTOS2/Include/cmsis_os2.h"
 213              		.file 7 "C:/Program Files (x86)/ARM/arm-gnu-toolchain-15.2.rel1-mingw-w64-i686-arm-none-eabi/arm-n
 214              		.file 8 "App/Inc/voltage_sim.h"
 215              		.file 9 "Drivers/STM32H7xx_HAL_Driver/Inc/stm32h7xx_hal_gpio.h"
 216              		.file 10 "App/Inc/fault_console.h"
 217              		.file 11 "Drivers/STM32H7xx_HAL_Driver/Inc/stm32h7xx_hal.h"
 218              		.file 12 "<built-in>"
ARM GAS  C:\Users\hh\AppData\Local\Temp\cc8tcLRP.s 			page 8


DEFINED SYMBOLS
                            *ABS*:00000000 freertos.c
C:\Users\hh\AppData\Local\Temp\cc8tcLRP.s:20     .rodata.StartDefaultTask.str1.4:00000000 $d
C:\Users\hh\AppData\Local\Temp\cc8tcLRP.s:30     .text.StartDefaultTask:00000000 $t
C:\Users\hh\AppData\Local\Temp\cc8tcLRP.s:36     .text.StartDefaultTask:00000000 StartDefaultTask
C:\Users\hh\AppData\Local\Temp\cc8tcLRP.s:137    .text.StartDefaultTask:00000058 $d
C:\Users\hh\AppData\Local\Temp\cc8tcLRP.s:146    .text.MX_FREERTOS_Init:00000000 $t
C:\Users\hh\AppData\Local\Temp\cc8tcLRP.s:152    .text.MX_FREERTOS_Init:00000000 MX_FREERTOS_Init
C:\Users\hh\AppData\Local\Temp\cc8tcLRP.s:178    .text.MX_FREERTOS_Init:00000014 $d
C:\Users\hh\AppData\Local\Temp\cc8tcLRP.s:193    .rodata.defaultTask_attributes:00000000 defaultTask_attributes
C:\Users\hh\AppData\Local\Temp\cc8tcLRP.s:204    .bss.defaultTaskHandle:00000000 defaultTaskHandle
C:\Users\hh\AppData\Local\Temp\cc8tcLRP.s:186    .rodata.str1.4:00000000 $d
C:\Users\hh\AppData\Local\Temp\cc8tcLRP.s:190    .rodata.defaultTask_attributes:00000000 $d
C:\Users\hh\AppData\Local\Temp\cc8tcLRP.s:201    .bss.defaultTaskHandle:00000000 $d

UNDEFINED SYMBOLS
puts
FaultConsole_Process
HAL_GPIO_TogglePin
printf
osDelay
HAL_GetTick
VoltageSim_Process
osThreadNew
