ARM GAS  C:\Users\hh\AppData\Local\Temp\ccR7d4Gu.s 			page 1


   1              		.cpu cortex-m7
   2              		.arch armv7e-m
   3              		.fpu fpv5-d16
   4              		.eabi_attribute 28, 1
   5              		.eabi_attribute 20, 1
   6              		.eabi_attribute 21, 1
   7              		.eabi_attribute 23, 3
   8              		.eabi_attribute 24, 1
   9              		.eabi_attribute 25, 1
  10              		.eabi_attribute 26, 1
  11              		.eabi_attribute 30, 1
  12              		.eabi_attribute 34, 1
  13              		.eabi_attribute 18, 4
  14              		.file	"gpio.c"
  15              		.text
  16              	.Ltext0:
  17              		.cfi_sections	.debug_frame
  18              		.file 1 "Core/Src/gpio.c"
  19              		.section	.text.MX_GPIO_Init,"ax",%progbits
  20              		.align	1
  21              		.global	MX_GPIO_Init
  22              		.syntax unified
  23              		.thumb
  24              		.thumb_func
  26              	MX_GPIO_Init:
  27              	.LFB146:
   1:Core/Src/gpio.c **** /* USER CODE BEGIN Header */
   2:Core/Src/gpio.c **** /**
   3:Core/Src/gpio.c ****   ******************************************************************************
   4:Core/Src/gpio.c ****   * @file    gpio.c
   5:Core/Src/gpio.c ****   * @brief   This file provides code for the configuration
   6:Core/Src/gpio.c ****   *          of all used GPIO pins.
   7:Core/Src/gpio.c ****   ******************************************************************************
   8:Core/Src/gpio.c ****   * @attention
   9:Core/Src/gpio.c ****   *
  10:Core/Src/gpio.c ****   * Copyright (c) 2026 STMicroelectronics.
  11:Core/Src/gpio.c ****   * All rights reserved.
  12:Core/Src/gpio.c ****   *
  13:Core/Src/gpio.c ****   * This software is licensed under terms that can be found in the LICENSE file
  14:Core/Src/gpio.c ****   * in the root directory of this software component.
  15:Core/Src/gpio.c ****   * If no LICENSE file comes with this software, it is provided AS-IS.
  16:Core/Src/gpio.c ****   *
  17:Core/Src/gpio.c ****   ******************************************************************************
  18:Core/Src/gpio.c ****   */
  19:Core/Src/gpio.c **** /* USER CODE END Header */
  20:Core/Src/gpio.c **** 
  21:Core/Src/gpio.c **** /* Includes ------------------------------------------------------------------*/
  22:Core/Src/gpio.c **** #include "gpio.h"
  23:Core/Src/gpio.c **** 
  24:Core/Src/gpio.c **** /* USER CODE BEGIN 0 */
  25:Core/Src/gpio.c **** 
  26:Core/Src/gpio.c **** /* USER CODE END 0 */
  27:Core/Src/gpio.c **** 
  28:Core/Src/gpio.c **** /*----------------------------------------------------------------------------*/
  29:Core/Src/gpio.c **** /* Configure GPIO                                                             */
  30:Core/Src/gpio.c **** /*----------------------------------------------------------------------------*/
  31:Core/Src/gpio.c **** /* USER CODE BEGIN 1 */
ARM GAS  C:\Users\hh\AppData\Local\Temp\ccR7d4Gu.s 			page 2


  32:Core/Src/gpio.c **** 
  33:Core/Src/gpio.c **** /* USER CODE END 1 */
  34:Core/Src/gpio.c **** 
  35:Core/Src/gpio.c **** /** Configure pins
  36:Core/Src/gpio.c ****      PC14-OSC32_IN (OSC32_IN)   ------> RCC_OSC32_IN
  37:Core/Src/gpio.c ****      PC15-OSC32_OUT (OSC32_OUT)   ------> RCC_OSC32_OUT
  38:Core/Src/gpio.c ****      PH0-OSC_IN (PH0)   ------> RCC_OSC_IN
  39:Core/Src/gpio.c ****      PH1-OSC_OUT (PH1)   ------> RCC_OSC_OUT
  40:Core/Src/gpio.c ****      PA13 (JTMS/SWDIO)   ------> DEBUG_JTMS-SWDIO
  41:Core/Src/gpio.c ****      PA14 (JTCK/SWCLK)   ------> DEBUG_JTCK-SWCLK
  42:Core/Src/gpio.c **** */
  43:Core/Src/gpio.c **** void MX_GPIO_Init(void)
  44:Core/Src/gpio.c **** {
  28              		.loc 1 44 1 view -0
  29              		.cfi_startproc
  30              		@ args = 0, pretend = 0, frame = 56
  31              		@ frame_needed = 0, uses_anonymous_args = 0
  32 0000 2DE9F04F 		push	{r4, r5, r6, r7, r8, r9, r10, fp, lr}
  33              	.LCFI0:
  34              		.cfi_def_cfa_offset 36
  35              		.cfi_offset 4, -36
  36              		.cfi_offset 5, -32
  37              		.cfi_offset 6, -28
  38              		.cfi_offset 7, -24
  39              		.cfi_offset 8, -20
  40              		.cfi_offset 9, -16
  41              		.cfi_offset 10, -12
  42              		.cfi_offset 11, -8
  43              		.cfi_offset 14, -4
  44 0004 8FB0     		sub	sp, sp, #60
  45              	.LCFI1:
  46              		.cfi_def_cfa_offset 96
  45:Core/Src/gpio.c **** 
  46:Core/Src/gpio.c ****   GPIO_InitTypeDef GPIO_InitStruct = {0};
  47              		.loc 1 46 3 view .LVU1
  48              		.loc 1 46 20 is_stmt 0 view .LVU2
  49 0006 09AD     		add	r5, sp, #36
  50 0008 0024     		movs	r4, #0
  51 000a 0994     		str	r4, [sp, #36]
  52 000c 0A94     		str	r4, [sp, #40]
  53 000e 0B94     		str	r4, [sp, #44]
  54 0010 0C94     		str	r4, [sp, #48]
  55 0012 0D94     		str	r4, [sp, #52]
  47:Core/Src/gpio.c **** 
  48:Core/Src/gpio.c ****   /* GPIO Ports Clock Enable */
  49:Core/Src/gpio.c ****   __HAL_RCC_GPIOC_CLK_ENABLE();
  56              		.loc 1 49 3 is_stmt 1 view .LVU3
  57              	.LBB2:
  58              		.loc 1 49 3 view .LVU4
  59              		.loc 1 49 3 view .LVU5
  60 0014 6A4B     		ldr	r3, .L3
  61 0016 D3F8E020 		ldr	r2, [r3, #224]
  62 001a 42F00402 		orr	r2, r2, #4
  63 001e C3F8E020 		str	r2, [r3, #224]
  64              		.loc 1 49 3 view .LVU6
  65 0022 D3F8E020 		ldr	r2, [r3, #224]
  66 0026 02F00402 		and	r2, r2, #4
ARM GAS  C:\Users\hh\AppData\Local\Temp\ccR7d4Gu.s 			page 3


  67 002a 0192     		str	r2, [sp, #4]
  68              		.loc 1 49 3 view .LVU7
  69 002c 019A     		ldr	r2, [sp, #4]
  70              	.LBE2:
  71              		.loc 1 49 3 view .LVU8
  50:Core/Src/gpio.c ****   __HAL_RCC_GPIOF_CLK_ENABLE();
  72              		.loc 1 50 3 view .LVU9
  73              	.LBB3:
  74              		.loc 1 50 3 view .LVU10
  75              		.loc 1 50 3 view .LVU11
  76 002e D3F8E020 		ldr	r2, [r3, #224]
  77 0032 42F02002 		orr	r2, r2, #32
  78 0036 C3F8E020 		str	r2, [r3, #224]
  79              		.loc 1 50 3 view .LVU12
  80 003a D3F8E020 		ldr	r2, [r3, #224]
  81 003e 02F02002 		and	r2, r2, #32
  82 0042 0292     		str	r2, [sp, #8]
  83              		.loc 1 50 3 view .LVU13
  84 0044 029A     		ldr	r2, [sp, #8]
  85              	.LBE3:
  86              		.loc 1 50 3 view .LVU14
  51:Core/Src/gpio.c ****   __HAL_RCC_GPIOH_CLK_ENABLE();
  87              		.loc 1 51 3 view .LVU15
  88              	.LBB4:
  89              		.loc 1 51 3 view .LVU16
  90              		.loc 1 51 3 view .LVU17
  91 0046 D3F8E020 		ldr	r2, [r3, #224]
  92 004a 42F08002 		orr	r2, r2, #128
  93 004e C3F8E020 		str	r2, [r3, #224]
  94              		.loc 1 51 3 view .LVU18
  95 0052 D3F8E020 		ldr	r2, [r3, #224]
  96 0056 02F08002 		and	r2, r2, #128
  97 005a 0392     		str	r2, [sp, #12]
  98              		.loc 1 51 3 view .LVU19
  99 005c 039A     		ldr	r2, [sp, #12]
 100              	.LBE4:
 101              		.loc 1 51 3 view .LVU20
  52:Core/Src/gpio.c ****   __HAL_RCC_GPIOA_CLK_ENABLE();
 102              		.loc 1 52 3 view .LVU21
 103              	.LBB5:
 104              		.loc 1 52 3 view .LVU22
 105              		.loc 1 52 3 view .LVU23
 106 005e D3F8E020 		ldr	r2, [r3, #224]
 107 0062 42F00102 		orr	r2, r2, #1
 108 0066 C3F8E020 		str	r2, [r3, #224]
 109              		.loc 1 52 3 view .LVU24
 110 006a D3F8E020 		ldr	r2, [r3, #224]
 111 006e 02F00102 		and	r2, r2, #1
 112 0072 0492     		str	r2, [sp, #16]
 113              		.loc 1 52 3 view .LVU25
 114 0074 049A     		ldr	r2, [sp, #16]
 115              	.LBE5:
 116              		.loc 1 52 3 view .LVU26
  53:Core/Src/gpio.c ****   __HAL_RCC_GPIOG_CLK_ENABLE();
 117              		.loc 1 53 3 view .LVU27
 118              	.LBB6:
 119              		.loc 1 53 3 view .LVU28
ARM GAS  C:\Users\hh\AppData\Local\Temp\ccR7d4Gu.s 			page 4


 120              		.loc 1 53 3 view .LVU29
 121 0076 D3F8E020 		ldr	r2, [r3, #224]
 122 007a 42F04002 		orr	r2, r2, #64
 123 007e C3F8E020 		str	r2, [r3, #224]
 124              		.loc 1 53 3 view .LVU30
 125 0082 D3F8E020 		ldr	r2, [r3, #224]
 126 0086 02F04002 		and	r2, r2, #64
 127 008a 0592     		str	r2, [sp, #20]
 128              		.loc 1 53 3 view .LVU31
 129 008c 059A     		ldr	r2, [sp, #20]
 130              	.LBE6:
 131              		.loc 1 53 3 view .LVU32
  54:Core/Src/gpio.c ****   __HAL_RCC_GPIOE_CLK_ENABLE();
 132              		.loc 1 54 3 view .LVU33
 133              	.LBB7:
 134              		.loc 1 54 3 view .LVU34
 135              		.loc 1 54 3 view .LVU35
 136 008e D3F8E020 		ldr	r2, [r3, #224]
 137 0092 42F01002 		orr	r2, r2, #16
 138 0096 C3F8E020 		str	r2, [r3, #224]
 139              		.loc 1 54 3 view .LVU36
 140 009a D3F8E020 		ldr	r2, [r3, #224]
 141 009e 02F01002 		and	r2, r2, #16
 142 00a2 0692     		str	r2, [sp, #24]
 143              		.loc 1 54 3 view .LVU37
 144 00a4 069A     		ldr	r2, [sp, #24]
 145              	.LBE7:
 146              		.loc 1 54 3 view .LVU38
  55:Core/Src/gpio.c ****   __HAL_RCC_GPIOB_CLK_ENABLE();
 147              		.loc 1 55 3 view .LVU39
 148              	.LBB8:
 149              		.loc 1 55 3 view .LVU40
 150              		.loc 1 55 3 view .LVU41
 151 00a6 D3F8E020 		ldr	r2, [r3, #224]
 152 00aa 42F00202 		orr	r2, r2, #2
 153 00ae C3F8E020 		str	r2, [r3, #224]
 154              		.loc 1 55 3 view .LVU42
 155 00b2 D3F8E020 		ldr	r2, [r3, #224]
 156 00b6 02F00202 		and	r2, r2, #2
 157 00ba 0792     		str	r2, [sp, #28]
 158              		.loc 1 55 3 view .LVU43
 159 00bc 079A     		ldr	r2, [sp, #28]
 160              	.LBE8:
 161              		.loc 1 55 3 view .LVU44
  56:Core/Src/gpio.c ****   __HAL_RCC_GPIOD_CLK_ENABLE();
 162              		.loc 1 56 3 view .LVU45
 163              	.LBB9:
 164              		.loc 1 56 3 view .LVU46
 165              		.loc 1 56 3 view .LVU47
 166 00be D3F8E020 		ldr	r2, [r3, #224]
 167 00c2 42F00802 		orr	r2, r2, #8
 168 00c6 C3F8E020 		str	r2, [r3, #224]
 169              		.loc 1 56 3 view .LVU48
 170 00ca D3F8E030 		ldr	r3, [r3, #224]
 171 00ce 03F00803 		and	r3, r3, #8
 172 00d2 0893     		str	r3, [sp, #32]
 173              		.loc 1 56 3 view .LVU49
ARM GAS  C:\Users\hh\AppData\Local\Temp\ccR7d4Gu.s 			page 5


 174 00d4 089B     		ldr	r3, [sp, #32]
 175              	.LBE9:
 176              		.loc 1 56 3 view .LVU50
  57:Core/Src/gpio.c **** 
  58:Core/Src/gpio.c ****   /*Configure GPIO pin Output Level */
  59:Core/Src/gpio.c ****   HAL_GPIO_WritePin(DAC_CS_GPIO_Port, DAC_CS_Pin, GPIO_PIN_SET);
 177              		.loc 1 59 3 view .LVU51
 178 00d6 DFF8F8A0 		ldr	r10, .L3+16
 179 00da 0122     		movs	r2, #1
 180 00dc 1021     		movs	r1, #16
 181 00de 5046     		mov	r0, r10
 182 00e0 FFF7FEFF 		bl	HAL_GPIO_WritePin
 183              	.LVL0:
  60:Core/Src/gpio.c **** 
  61:Core/Src/gpio.c ****   /*Configure GPIO pin Output Level */
  62:Core/Src/gpio.c ****   HAL_GPIO_WritePin(GPIOD, DAC_RESET_Pin|DAC_nLDAC_Pin, GPIO_PIN_RESET);
 184              		.loc 1 62 3 view .LVU52
 185 00e4 DFF8EC90 		ldr	r9, .L3+20
 186 00e8 2246     		mov	r2, r4
 187 00ea 4821     		movs	r1, #72
 188 00ec 4846     		mov	r0, r9
 189 00ee FFF7FEFF 		bl	HAL_GPIO_WritePin
 190              	.LVL1:
  63:Core/Src/gpio.c **** 
  64:Core/Src/gpio.c ****   /*Configure GPIO pin Output Level */
  65:Core/Src/gpio.c ****   HAL_GPIO_WritePin(GPIOB, TOGGLE2_Pin|TOGGLE1_Pin|TOGGLE0_Pin, GPIO_PIN_RESET);
 191              		.loc 1 65 3 view .LVU53
 192 00f2 DFF8E480 		ldr	r8, .L3+24
 193 00f6 2246     		mov	r2, r4
 194 00f8 E021     		movs	r1, #224
 195 00fa 4046     		mov	r0, r8
 196 00fc FFF7FEFF 		bl	HAL_GPIO_WritePin
 197              	.LVL2:
  66:Core/Src/gpio.c **** 
  67:Core/Src/gpio.c ****   /*Configure GPIO pin Output Level */
  68:Core/Src/gpio.c ****   HAL_GPIO_WritePin(GPIOE, LED_YL_Pin|LED_RY_Pin, GPIO_PIN_RESET);
 198              		.loc 1 68 3 view .LVU54
 199 0100 2246     		mov	r2, r4
 200 0102 0321     		movs	r1, #3
 201 0104 2F48     		ldr	r0, .L3+4
 202 0106 FFF7FEFF 		bl	HAL_GPIO_WritePin
 203              	.LVL3:
  69:Core/Src/gpio.c **** 
  70:Core/Src/gpio.c ****   /*Configure GPIO pin : DAC_CS_Pin */
  71:Core/Src/gpio.c ****   GPIO_InitStruct.Pin = DAC_CS_Pin;
 204              		.loc 1 71 3 view .LVU55
 205              		.loc 1 71 23 is_stmt 0 view .LVU56
 206 010a 4FF0100B 		mov	fp, #16
 207 010e CDF824B0 		str	fp, [sp, #36]
  72:Core/Src/gpio.c ****   GPIO_InitStruct.Mode = GPIO_MODE_OUTPUT_PP;
 208              		.loc 1 72 3 is_stmt 1 view .LVU57
 209              		.loc 1 72 24 is_stmt 0 view .LVU58
 210 0112 0126     		movs	r6, #1
 211 0114 0A96     		str	r6, [sp, #40]
  73:Core/Src/gpio.c ****   GPIO_InitStruct.Pull = GPIO_NOPULL;
 212              		.loc 1 73 3 is_stmt 1 view .LVU59
 213              		.loc 1 73 24 is_stmt 0 view .LVU60
ARM GAS  C:\Users\hh\AppData\Local\Temp\ccR7d4Gu.s 			page 6


 214 0116 0B94     		str	r4, [sp, #44]
  74:Core/Src/gpio.c ****   GPIO_InitStruct.Speed = GPIO_SPEED_FREQ_VERY_HIGH;
 215              		.loc 1 74 3 is_stmt 1 view .LVU61
 216              		.loc 1 74 25 is_stmt 0 view .LVU62
 217 0118 0327     		movs	r7, #3
 218 011a 0C97     		str	r7, [sp, #48]
  75:Core/Src/gpio.c ****   HAL_GPIO_Init(DAC_CS_GPIO_Port, &GPIO_InitStruct);
 219              		.loc 1 75 3 is_stmt 1 view .LVU63
 220 011c 2946     		mov	r1, r5
 221 011e 5046     		mov	r0, r10
 222 0120 FFF7FEFF 		bl	HAL_GPIO_Init
 223              	.LVL4:
  76:Core/Src/gpio.c **** 
  77:Core/Src/gpio.c ****   /*Configure GPIO pins : temp6a_Pin temp6b_Pin temp3a_Pin temp3b_Pin
  78:Core/Src/gpio.c ****                            temp7a_Pin temp7b_Pin temp2a_Pin temp2b_Pin */
  79:Core/Src/gpio.c ****   GPIO_InitStruct.Pin = temp6a_Pin|temp6b_Pin|temp3a_Pin|temp3b_Pin
 224              		.loc 1 79 3 view .LVU64
 225              		.loc 1 79 23 is_stmt 0 view .LVU65
 226 0124 4BF6C063 		movw	r3, #48832
 227 0128 0993     		str	r3, [sp, #36]
  80:Core/Src/gpio.c ****                           |temp7a_Pin|temp7b_Pin|temp2a_Pin|temp2b_Pin;
  81:Core/Src/gpio.c ****   GPIO_InitStruct.Mode = GPIO_MODE_INPUT;
 228              		.loc 1 81 3 is_stmt 1 view .LVU66
 229              		.loc 1 81 24 is_stmt 0 view .LVU67
 230 012a 0A94     		str	r4, [sp, #40]
  82:Core/Src/gpio.c ****   GPIO_InitStruct.Pull = GPIO_NOPULL;
 231              		.loc 1 82 3 is_stmt 1 view .LVU68
 232              		.loc 1 82 24 is_stmt 0 view .LVU69
 233 012c 0B94     		str	r4, [sp, #44]
  83:Core/Src/gpio.c ****   HAL_GPIO_Init(GPIOG, &GPIO_InitStruct);
 234              		.loc 1 83 3 is_stmt 1 view .LVU70
 235 012e 2946     		mov	r1, r5
 236 0130 2548     		ldr	r0, .L3+8
 237 0132 FFF7FEFF 		bl	HAL_GPIO_Init
 238              	.LVL5:
  84:Core/Src/gpio.c **** 
  85:Core/Src/gpio.c ****   /*Configure GPIO pins : temp5b_Pin temp5a_Pin temp4b_Pin */
  86:Core/Src/gpio.c ****   GPIO_InitStruct.Pin = temp5b_Pin|temp5a_Pin|temp4b_Pin;
 239              		.loc 1 86 3 view .LVU71
 240              		.loc 1 86 23 is_stmt 0 view .LVU72
 241 0136 4FF45073 		mov	r3, #832
 242 013a 0993     		str	r3, [sp, #36]
  87:Core/Src/gpio.c ****   GPIO_InitStruct.Mode = GPIO_MODE_INPUT;
 243              		.loc 1 87 3 is_stmt 1 view .LVU73
 244              		.loc 1 87 24 is_stmt 0 view .LVU74
 245 013c 0A94     		str	r4, [sp, #40]
  88:Core/Src/gpio.c ****   GPIO_InitStruct.Pull = GPIO_NOPULL;
 246              		.loc 1 88 3 is_stmt 1 view .LVU75
 247              		.loc 1 88 24 is_stmt 0 view .LVU76
 248 013e 0B94     		str	r4, [sp, #44]
  89:Core/Src/gpio.c ****   HAL_GPIO_Init(GPIOC, &GPIO_InitStruct);
 249              		.loc 1 89 3 is_stmt 1 view .LVU77
 250 0140 2946     		mov	r1, r5
 251 0142 2248     		ldr	r0, .L3+12
 252 0144 FFF7FEFF 		bl	HAL_GPIO_Init
 253              	.LVL6:
  90:Core/Src/gpio.c **** 
ARM GAS  C:\Users\hh\AppData\Local\Temp\ccR7d4Gu.s 			page 7


  91:Core/Src/gpio.c ****   /*Configure GPIO pin : temp4a_Pin */
  92:Core/Src/gpio.c ****   GPIO_InitStruct.Pin = temp4a_Pin;
 254              		.loc 1 92 3 view .LVU78
 255              		.loc 1 92 23 is_stmt 0 view .LVU79
 256 0148 4FF48073 		mov	r3, #256
 257 014c 0993     		str	r3, [sp, #36]
  93:Core/Src/gpio.c ****   GPIO_InitStruct.Mode = GPIO_MODE_INPUT;
 258              		.loc 1 93 3 is_stmt 1 view .LVU80
 259              		.loc 1 93 24 is_stmt 0 view .LVU81
 260 014e 0A94     		str	r4, [sp, #40]
  94:Core/Src/gpio.c ****   GPIO_InitStruct.Pull = GPIO_NOPULL;
 261              		.loc 1 94 3 is_stmt 1 view .LVU82
 262              		.loc 1 94 24 is_stmt 0 view .LVU83
 263 0150 0B94     		str	r4, [sp, #44]
  95:Core/Src/gpio.c ****   HAL_GPIO_Init(temp4a_GPIO_Port, &GPIO_InitStruct);
 264              		.loc 1 95 3 is_stmt 1 view .LVU84
 265 0152 2946     		mov	r1, r5
 266 0154 5046     		mov	r0, r10
 267 0156 FFF7FEFF 		bl	HAL_GPIO_Init
 268              	.LVL7:
  96:Core/Src/gpio.c **** 
  97:Core/Src/gpio.c ****   /*Configure GPIO pin : DAC_ALMOUT_Pin */
  98:Core/Src/gpio.c ****   GPIO_InitStruct.Pin = DAC_ALMOUT_Pin;
 269              		.loc 1 98 3 view .LVU85
 270              		.loc 1 98 23 is_stmt 0 view .LVU86
 271 015a 0423     		movs	r3, #4
 272 015c 0993     		str	r3, [sp, #36]
  99:Core/Src/gpio.c ****   GPIO_InitStruct.Mode = GPIO_MODE_INPUT;
 273              		.loc 1 99 3 is_stmt 1 view .LVU87
 274              		.loc 1 99 24 is_stmt 0 view .LVU88
 275 015e 0A94     		str	r4, [sp, #40]
 100:Core/Src/gpio.c ****   GPIO_InitStruct.Pull = GPIO_PULLUP;
 276              		.loc 1 100 3 is_stmt 1 view .LVU89
 277              		.loc 1 100 24 is_stmt 0 view .LVU90
 278 0160 0B96     		str	r6, [sp, #44]
 101:Core/Src/gpio.c ****   HAL_GPIO_Init(DAC_ALMOUT_GPIO_Port, &GPIO_InitStruct);
 279              		.loc 1 101 3 is_stmt 1 view .LVU91
 280 0162 2946     		mov	r1, r5
 281 0164 4846     		mov	r0, r9
 282 0166 FFF7FEFF 		bl	HAL_GPIO_Init
 283              	.LVL8:
 102:Core/Src/gpio.c **** 
 103:Core/Src/gpio.c ****   /*Configure GPIO pins : DAC_RESET_Pin DAC_nLDAC_Pin */
 104:Core/Src/gpio.c ****   GPIO_InitStruct.Pin = DAC_RESET_Pin|DAC_nLDAC_Pin;
 284              		.loc 1 104 3 view .LVU92
 285              		.loc 1 104 23 is_stmt 0 view .LVU93
 286 016a 4823     		movs	r3, #72
 287 016c 0993     		str	r3, [sp, #36]
 105:Core/Src/gpio.c ****   GPIO_InitStruct.Mode = GPIO_MODE_OUTPUT_PP;
 288              		.loc 1 105 3 is_stmt 1 view .LVU94
 289              		.loc 1 105 24 is_stmt 0 view .LVU95
 290 016e 0A96     		str	r6, [sp, #40]
 106:Core/Src/gpio.c ****   GPIO_InitStruct.Pull = GPIO_NOPULL;
 291              		.loc 1 106 3 is_stmt 1 view .LVU96
 292              		.loc 1 106 24 is_stmt 0 view .LVU97
 293 0170 0B94     		str	r4, [sp, #44]
 107:Core/Src/gpio.c ****   GPIO_InitStruct.Speed = GPIO_SPEED_FREQ_VERY_HIGH;
ARM GAS  C:\Users\hh\AppData\Local\Temp\ccR7d4Gu.s 			page 8


 294              		.loc 1 107 3 is_stmt 1 view .LVU98
 295              		.loc 1 107 25 is_stmt 0 view .LVU99
 296 0172 0C97     		str	r7, [sp, #48]
 108:Core/Src/gpio.c ****   HAL_GPIO_Init(GPIOD, &GPIO_InitStruct);
 297              		.loc 1 108 3 is_stmt 1 view .LVU100
 298 0174 2946     		mov	r1, r5
 299 0176 4846     		mov	r0, r9
 300 0178 FFF7FEFF 		bl	HAL_GPIO_Init
 301              	.LVL9:
 109:Core/Src/gpio.c **** 
 110:Core/Src/gpio.c ****   /*Configure GPIO pins : temp1a_Pin temp1b_Pin */
 111:Core/Src/gpio.c ****   GPIO_InitStruct.Pin = temp1a_Pin|temp1b_Pin;
 302              		.loc 1 111 3 view .LVU101
 303              		.loc 1 111 23 is_stmt 0 view .LVU102
 304 017c 1823     		movs	r3, #24
 305 017e 0993     		str	r3, [sp, #36]
 112:Core/Src/gpio.c ****   GPIO_InitStruct.Mode = GPIO_MODE_INPUT;
 306              		.loc 1 112 3 is_stmt 1 view .LVU103
 307              		.loc 1 112 24 is_stmt 0 view .LVU104
 308 0180 0A94     		str	r4, [sp, #40]
 113:Core/Src/gpio.c ****   GPIO_InitStruct.Pull = GPIO_NOPULL;
 309              		.loc 1 113 3 is_stmt 1 view .LVU105
 310              		.loc 1 113 24 is_stmt 0 view .LVU106
 311 0182 0B94     		str	r4, [sp, #44]
 114:Core/Src/gpio.c ****   HAL_GPIO_Init(GPIOB, &GPIO_InitStruct);
 312              		.loc 1 114 3 is_stmt 1 view .LVU107
 313 0184 2946     		mov	r1, r5
 314 0186 4046     		mov	r0, r8
 315 0188 FFF7FEFF 		bl	HAL_GPIO_Init
 316              	.LVL10:
 115:Core/Src/gpio.c **** 
 116:Core/Src/gpio.c ****   /*Configure GPIO pins : TOGGLE2_Pin TOGGLE1_Pin TOGGLE0_Pin */
 117:Core/Src/gpio.c ****   GPIO_InitStruct.Pin = TOGGLE2_Pin|TOGGLE1_Pin|TOGGLE0_Pin;
 317              		.loc 1 117 3 view .LVU108
 318              		.loc 1 117 23 is_stmt 0 view .LVU109
 319 018c E023     		movs	r3, #224
 320 018e 0993     		str	r3, [sp, #36]
 118:Core/Src/gpio.c ****   GPIO_InitStruct.Mode = GPIO_MODE_OUTPUT_PP;
 321              		.loc 1 118 3 is_stmt 1 view .LVU110
 322              		.loc 1 118 24 is_stmt 0 view .LVU111
 323 0190 0A96     		str	r6, [sp, #40]
 119:Core/Src/gpio.c ****   GPIO_InitStruct.Pull = GPIO_NOPULL;
 324              		.loc 1 119 3 is_stmt 1 view .LVU112
 325              		.loc 1 119 24 is_stmt 0 view .LVU113
 326 0192 0B94     		str	r4, [sp, #44]
 120:Core/Src/gpio.c ****   GPIO_InitStruct.Speed = GPIO_SPEED_FREQ_VERY_HIGH;
 327              		.loc 1 120 3 is_stmt 1 view .LVU114
 328              		.loc 1 120 25 is_stmt 0 view .LVU115
 329 0194 0C97     		str	r7, [sp, #48]
 121:Core/Src/gpio.c ****   HAL_GPIO_Init(GPIOB, &GPIO_InitStruct);
 330              		.loc 1 121 3 is_stmt 1 view .LVU116
 331 0196 2946     		mov	r1, r5
 332 0198 4046     		mov	r0, r8
 333 019a FFF7FEFF 		bl	HAL_GPIO_Init
 334              	.LVL11:
 122:Core/Src/gpio.c **** 
 123:Core/Src/gpio.c ****   /*Configure GPIO pins : LED_YL_Pin LED_RY_Pin */
ARM GAS  C:\Users\hh\AppData\Local\Temp\ccR7d4Gu.s 			page 9


 124:Core/Src/gpio.c ****   GPIO_InitStruct.Pin = LED_YL_Pin|LED_RY_Pin;
 335              		.loc 1 124 3 view .LVU117
 336              		.loc 1 124 23 is_stmt 0 view .LVU118
 337 019e 0997     		str	r7, [sp, #36]
 125:Core/Src/gpio.c ****   GPIO_InitStruct.Mode = GPIO_MODE_OUTPUT_PP;
 338              		.loc 1 125 3 is_stmt 1 view .LVU119
 339              		.loc 1 125 24 is_stmt 0 view .LVU120
 340 01a0 0A96     		str	r6, [sp, #40]
 126:Core/Src/gpio.c ****   GPIO_InitStruct.Pull = GPIO_NOPULL;
 341              		.loc 1 126 3 is_stmt 1 view .LVU121
 342              		.loc 1 126 24 is_stmt 0 view .LVU122
 343 01a2 0B94     		str	r4, [sp, #44]
 127:Core/Src/gpio.c ****   GPIO_InitStruct.Speed = GPIO_SPEED_FREQ_LOW;
 344              		.loc 1 127 3 is_stmt 1 view .LVU123
 345              		.loc 1 127 25 is_stmt 0 view .LVU124
 346 01a4 0C94     		str	r4, [sp, #48]
 128:Core/Src/gpio.c ****   HAL_GPIO_Init(GPIOE, &GPIO_InitStruct);
 347              		.loc 1 128 3 is_stmt 1 view .LVU125
 348 01a6 2946     		mov	r1, r5
 349 01a8 0648     		ldr	r0, .L3+4
 350 01aa FFF7FEFF 		bl	HAL_GPIO_Init
 351              	.LVL12:
 129:Core/Src/gpio.c **** 
 130:Core/Src/gpio.c ****   /**/
 131:Core/Src/gpio.c ****   HAL_I2CEx_EnableFastModePlus(SYSCFG_PMCR_I2C_PB6_FMP);
 352              		.loc 1 131 3 view .LVU126
 353 01ae 5846     		mov	r0, fp
 354 01b0 FFF7FEFF 		bl	HAL_I2CEx_EnableFastModePlus
 355              	.LVL13:
 132:Core/Src/gpio.c **** 
 133:Core/Src/gpio.c ****   /**/
 134:Core/Src/gpio.c ****   HAL_I2CEx_EnableFastModePlus(SYSCFG_PMCR_I2C_PB7_FMP);
 356              		.loc 1 134 3 view .LVU127
 357 01b4 2020     		movs	r0, #32
 358 01b6 FFF7FEFF 		bl	HAL_I2CEx_EnableFastModePlus
 359              	.LVL14:
 135:Core/Src/gpio.c **** 
 136:Core/Src/gpio.c **** }
 360              		.loc 1 136 1 is_stmt 0 view .LVU128
 361 01ba 0FB0     		add	sp, sp, #60
 362              	.LCFI2:
 363              		.cfi_def_cfa_offset 36
 364              		@ sp needed
 365 01bc BDE8F08F 		pop	{r4, r5, r6, r7, r8, r9, r10, fp, pc}
 366              	.L4:
 367              		.align	2
 368              	.L3:
 369 01c0 00440258 		.word	1476543488
 370 01c4 00100258 		.word	1476530176
 371 01c8 00180258 		.word	1476532224
 372 01cc 00080258 		.word	1476528128
 373 01d0 00000258 		.word	1476526080
 374 01d4 000C0258 		.word	1476529152
 375 01d8 00040258 		.word	1476527104
 376              		.cfi_endproc
 377              	.LFE146:
 379              		.text
ARM GAS  C:\Users\hh\AppData\Local\Temp\ccR7d4Gu.s 			page 10


 380              	.Letext0:
 381              		.file 2 "C:/Program Files (x86)/ARM/arm-gnu-toolchain-15.2.rel1-mingw-w64-i686-arm-none-eabi/arm-n
 382              		.file 3 "C:/Program Files (x86)/ARM/arm-gnu-toolchain-15.2.rel1-mingw-w64-i686-arm-none-eabi/arm-n
 383              		.file 4 "Drivers/CMSIS/Device/ST/STM32H7xx/Include/stm32h743xx.h"
 384              		.file 5 "Drivers/STM32H7xx_HAL_Driver/Inc/stm32h7xx_hal_gpio.h"
 385              		.file 6 "Drivers/STM32H7xx_HAL_Driver/Inc/stm32h7xx_hal_i2c_ex.h"
ARM GAS  C:\Users\hh\AppData\Local\Temp\ccR7d4Gu.s 			page 11

