ARM GAS  C:\Users\hh\AppData\Local\Temp\ccD83nHD.s 			page 1


   1              		.cpu cortex-m7
   2              		.arch armv7e-m
   3              		.fpu fpv5-d16
   4              		.eabi_attribute 28, 1
   5              		.eabi_attribute 20, 1
   6              		.eabi_attribute 21, 1
   7              		.eabi_attribute 23, 3
   8              		.eabi_attribute 24, 1
   9              		.eabi_attribute 25, 1
  10              		.eabi_attribute 26, 1
  11              		.eabi_attribute 30, 1
  12              		.eabi_attribute 34, 1
  13              		.eabi_attribute 18, 4
  14              		.file	"icmp.c"
  15              		.text
  16              	.Ltext0:
  17              		.cfi_sections	.debug_frame
  18              		.file 1 "Middlewares/Third_Party/LwIP/src/core/ipv4/icmp.c"
  19              		.section	.rodata.icmp_send_response.str1.4,"aMS",%progbits,1
  20              		.align	2
  21              	.LC0:
  22 0000 4D696464 		.ascii	"Middlewares/Third_Party/LwIP/src/core/ipv4/icmp.c\000"
  22      6C657761 
  22      7265732F 
  22      54686972 
  22      645F5061 
  23 0032 0000     		.align	2
  24              	.LC1:
  25 0034 63686563 		.ascii	"check that first pbuf can hold icmp message\000"
  25      6B207468 
  25      61742066 
  25      69727374 
  25      20706275 
  26              		.align	2
  27              	.LC2:
  28 0060 41737365 		.ascii	"Assertion \"%s\" failed at line %d in %s\012\000"
  28      7274696F 
  28      6E202225 
  28      73222066 
  28      61696C65 
  29              		.section	.text.icmp_send_response,"ax",%progbits
  30              		.align	1
  31              		.syntax unified
  32              		.thumb
  33              		.thumb_func
  35              	icmp_send_response:
  36              	.LVL0:
  37              	.LFB175:
   1:Middlewares/Third_Party/LwIP/src/core/ipv4/icmp.c **** /**
   2:Middlewares/Third_Party/LwIP/src/core/ipv4/icmp.c ****  * @file
   3:Middlewares/Third_Party/LwIP/src/core/ipv4/icmp.c ****  * ICMP - Internet Control Message Protocol
   4:Middlewares/Third_Party/LwIP/src/core/ipv4/icmp.c ****  *
   5:Middlewares/Third_Party/LwIP/src/core/ipv4/icmp.c ****  */
   6:Middlewares/Third_Party/LwIP/src/core/ipv4/icmp.c **** 
   7:Middlewares/Third_Party/LwIP/src/core/ipv4/icmp.c **** /*
   8:Middlewares/Third_Party/LwIP/src/core/ipv4/icmp.c ****  * Copyright (c) 2001-2004 Swedish Institute of Computer Science.
   9:Middlewares/Third_Party/LwIP/src/core/ipv4/icmp.c ****  * All rights reserved.
ARM GAS  C:\Users\hh\AppData\Local\Temp\ccD83nHD.s 			page 2


  10:Middlewares/Third_Party/LwIP/src/core/ipv4/icmp.c ****  *
  11:Middlewares/Third_Party/LwIP/src/core/ipv4/icmp.c ****  * Redistribution and use in source and binary forms, with or without modification,
  12:Middlewares/Third_Party/LwIP/src/core/ipv4/icmp.c ****  * are permitted provided that the following conditions are met:
  13:Middlewares/Third_Party/LwIP/src/core/ipv4/icmp.c ****  *
  14:Middlewares/Third_Party/LwIP/src/core/ipv4/icmp.c ****  * 1. Redistributions of source code must retain the above copyright notice,
  15:Middlewares/Third_Party/LwIP/src/core/ipv4/icmp.c ****  *    this list of conditions and the following disclaimer.
  16:Middlewares/Third_Party/LwIP/src/core/ipv4/icmp.c ****  * 2. Redistributions in binary form must reproduce the above copyright notice,
  17:Middlewares/Third_Party/LwIP/src/core/ipv4/icmp.c ****  *    this list of conditions and the following disclaimer in the documentation
  18:Middlewares/Third_Party/LwIP/src/core/ipv4/icmp.c ****  *    and/or other materials provided with the distribution.
  19:Middlewares/Third_Party/LwIP/src/core/ipv4/icmp.c ****  * 3. The name of the author may not be used to endorse or promote products
  20:Middlewares/Third_Party/LwIP/src/core/ipv4/icmp.c ****  *    derived from this software without specific prior written permission.
  21:Middlewares/Third_Party/LwIP/src/core/ipv4/icmp.c ****  *
  22:Middlewares/Third_Party/LwIP/src/core/ipv4/icmp.c ****  * THIS SOFTWARE IS PROVIDED BY THE AUTHOR ``AS IS'' AND ANY EXPRESS OR IMPLIED
  23:Middlewares/Third_Party/LwIP/src/core/ipv4/icmp.c ****  * WARRANTIES, INCLUDING, BUT NOT LIMITED TO, THE IMPLIED WARRANTIES OF
  24:Middlewares/Third_Party/LwIP/src/core/ipv4/icmp.c ****  * MERCHANTABILITY AND FITNESS FOR A PARTICULAR PURPOSE ARE DISCLAIMED. IN NO EVENT
  25:Middlewares/Third_Party/LwIP/src/core/ipv4/icmp.c ****  * SHALL THE AUTHOR BE LIABLE FOR ANY DIRECT, INDIRECT, INCIDENTAL, SPECIAL,
  26:Middlewares/Third_Party/LwIP/src/core/ipv4/icmp.c ****  * EXEMPLARY, OR CONSEQUENTIAL DAMAGES (INCLUDING, BUT NOT LIMITED TO, PROCUREMENT
  27:Middlewares/Third_Party/LwIP/src/core/ipv4/icmp.c ****  * OF SUBSTITUTE GOODS OR SERVICES; LOSS OF USE, DATA, OR PROFITS; OR BUSINESS
  28:Middlewares/Third_Party/LwIP/src/core/ipv4/icmp.c ****  * INTERRUPTION) HOWEVER CAUSED AND ON ANY THEORY OF LIABILITY, WHETHER IN
  29:Middlewares/Third_Party/LwIP/src/core/ipv4/icmp.c ****  * CONTRACT, STRICT LIABILITY, OR TORT (INCLUDING NEGLIGENCE OR OTHERWISE) ARISING
  30:Middlewares/Third_Party/LwIP/src/core/ipv4/icmp.c ****  * IN ANY WAY OUT OF THE USE OF THIS SOFTWARE, EVEN IF ADVISED OF THE POSSIBILITY
  31:Middlewares/Third_Party/LwIP/src/core/ipv4/icmp.c ****  * OF SUCH DAMAGE.
  32:Middlewares/Third_Party/LwIP/src/core/ipv4/icmp.c ****  *
  33:Middlewares/Third_Party/LwIP/src/core/ipv4/icmp.c ****  * This file is part of the lwIP TCP/IP stack.
  34:Middlewares/Third_Party/LwIP/src/core/ipv4/icmp.c ****  *
  35:Middlewares/Third_Party/LwIP/src/core/ipv4/icmp.c ****  * Author: Adam Dunkels <adam@sics.se>
  36:Middlewares/Third_Party/LwIP/src/core/ipv4/icmp.c ****  *
  37:Middlewares/Third_Party/LwIP/src/core/ipv4/icmp.c ****  */
  38:Middlewares/Third_Party/LwIP/src/core/ipv4/icmp.c **** 
  39:Middlewares/Third_Party/LwIP/src/core/ipv4/icmp.c **** /* Some ICMP messages should be passed to the transport protocols. This
  40:Middlewares/Third_Party/LwIP/src/core/ipv4/icmp.c ****    is not implemented. */
  41:Middlewares/Third_Party/LwIP/src/core/ipv4/icmp.c **** 
  42:Middlewares/Third_Party/LwIP/src/core/ipv4/icmp.c **** #include "lwip/opt.h"
  43:Middlewares/Third_Party/LwIP/src/core/ipv4/icmp.c **** 
  44:Middlewares/Third_Party/LwIP/src/core/ipv4/icmp.c **** #if LWIP_IPV4 && LWIP_ICMP /* don't build if not configured for use in lwipopts.h */
  45:Middlewares/Third_Party/LwIP/src/core/ipv4/icmp.c **** 
  46:Middlewares/Third_Party/LwIP/src/core/ipv4/icmp.c **** #include "lwip/icmp.h"
  47:Middlewares/Third_Party/LwIP/src/core/ipv4/icmp.c **** #include "lwip/inet_chksum.h"
  48:Middlewares/Third_Party/LwIP/src/core/ipv4/icmp.c **** #include "lwip/ip.h"
  49:Middlewares/Third_Party/LwIP/src/core/ipv4/icmp.c **** #include "lwip/def.h"
  50:Middlewares/Third_Party/LwIP/src/core/ipv4/icmp.c **** #include "lwip/stats.h"
  51:Middlewares/Third_Party/LwIP/src/core/ipv4/icmp.c **** 
  52:Middlewares/Third_Party/LwIP/src/core/ipv4/icmp.c **** #include <string.h>
  53:Middlewares/Third_Party/LwIP/src/core/ipv4/icmp.c **** 
  54:Middlewares/Third_Party/LwIP/src/core/ipv4/icmp.c **** #ifdef LWIP_HOOK_FILENAME
  55:Middlewares/Third_Party/LwIP/src/core/ipv4/icmp.c **** #include LWIP_HOOK_FILENAME
  56:Middlewares/Third_Party/LwIP/src/core/ipv4/icmp.c **** #endif
  57:Middlewares/Third_Party/LwIP/src/core/ipv4/icmp.c **** 
  58:Middlewares/Third_Party/LwIP/src/core/ipv4/icmp.c **** /** Small optimization: set to 0 if incoming PBUF_POOL pbuf always can be
  59:Middlewares/Third_Party/LwIP/src/core/ipv4/icmp.c ****  * used to modify and send a response packet (and to 1 if this is not the case,
  60:Middlewares/Third_Party/LwIP/src/core/ipv4/icmp.c ****  * e.g. when link header is stripped off when receiving) */
  61:Middlewares/Third_Party/LwIP/src/core/ipv4/icmp.c **** #ifndef LWIP_ICMP_ECHO_CHECK_INPUT_PBUF_LEN
  62:Middlewares/Third_Party/LwIP/src/core/ipv4/icmp.c **** #define LWIP_ICMP_ECHO_CHECK_INPUT_PBUF_LEN 1
  63:Middlewares/Third_Party/LwIP/src/core/ipv4/icmp.c **** #endif /* LWIP_ICMP_ECHO_CHECK_INPUT_PBUF_LEN */
  64:Middlewares/Third_Party/LwIP/src/core/ipv4/icmp.c **** 
  65:Middlewares/Third_Party/LwIP/src/core/ipv4/icmp.c **** /* The maximum amount of data from the original packet to return in a dest-unreachable */
  66:Middlewares/Third_Party/LwIP/src/core/ipv4/icmp.c **** #define ICMP_DEST_UNREACH_DATASIZE 8
ARM GAS  C:\Users\hh\AppData\Local\Temp\ccD83nHD.s 			page 3


  67:Middlewares/Third_Party/LwIP/src/core/ipv4/icmp.c **** 
  68:Middlewares/Third_Party/LwIP/src/core/ipv4/icmp.c **** static void icmp_send_response(struct pbuf *p, u8_t type, u8_t code);
  69:Middlewares/Third_Party/LwIP/src/core/ipv4/icmp.c **** 
  70:Middlewares/Third_Party/LwIP/src/core/ipv4/icmp.c **** /**
  71:Middlewares/Third_Party/LwIP/src/core/ipv4/icmp.c ****  * Processes ICMP input packets, called from ip_input().
  72:Middlewares/Third_Party/LwIP/src/core/ipv4/icmp.c ****  *
  73:Middlewares/Third_Party/LwIP/src/core/ipv4/icmp.c ****  * Currently only processes icmp echo requests and sends
  74:Middlewares/Third_Party/LwIP/src/core/ipv4/icmp.c ****  * out the echo response.
  75:Middlewares/Third_Party/LwIP/src/core/ipv4/icmp.c ****  *
  76:Middlewares/Third_Party/LwIP/src/core/ipv4/icmp.c ****  * @param p the icmp echo request packet, p->payload pointing to the icmp header
  77:Middlewares/Third_Party/LwIP/src/core/ipv4/icmp.c ****  * @param inp the netif on which this packet was received
  78:Middlewares/Third_Party/LwIP/src/core/ipv4/icmp.c ****  */
  79:Middlewares/Third_Party/LwIP/src/core/ipv4/icmp.c **** void
  80:Middlewares/Third_Party/LwIP/src/core/ipv4/icmp.c **** icmp_input(struct pbuf *p, struct netif *inp)
  81:Middlewares/Third_Party/LwIP/src/core/ipv4/icmp.c **** {
  82:Middlewares/Third_Party/LwIP/src/core/ipv4/icmp.c ****   u8_t type;
  83:Middlewares/Third_Party/LwIP/src/core/ipv4/icmp.c **** #ifdef LWIP_DEBUG
  84:Middlewares/Third_Party/LwIP/src/core/ipv4/icmp.c ****   u8_t code;
  85:Middlewares/Third_Party/LwIP/src/core/ipv4/icmp.c **** #endif /* LWIP_DEBUG */
  86:Middlewares/Third_Party/LwIP/src/core/ipv4/icmp.c ****   struct icmp_echo_hdr *iecho;
  87:Middlewares/Third_Party/LwIP/src/core/ipv4/icmp.c ****   const struct ip_hdr *iphdr_in;
  88:Middlewares/Third_Party/LwIP/src/core/ipv4/icmp.c ****   u16_t hlen;
  89:Middlewares/Third_Party/LwIP/src/core/ipv4/icmp.c ****   const ip4_addr_t *src;
  90:Middlewares/Third_Party/LwIP/src/core/ipv4/icmp.c **** 
  91:Middlewares/Third_Party/LwIP/src/core/ipv4/icmp.c ****   ICMP_STATS_INC(icmp.recv);
  92:Middlewares/Third_Party/LwIP/src/core/ipv4/icmp.c ****   MIB2_STATS_INC(mib2.icmpinmsgs);
  93:Middlewares/Third_Party/LwIP/src/core/ipv4/icmp.c **** 
  94:Middlewares/Third_Party/LwIP/src/core/ipv4/icmp.c ****   iphdr_in = ip4_current_header();
  95:Middlewares/Third_Party/LwIP/src/core/ipv4/icmp.c ****   hlen = IPH_HL_BYTES(iphdr_in);
  96:Middlewares/Third_Party/LwIP/src/core/ipv4/icmp.c ****   if (hlen < IP_HLEN) {
  97:Middlewares/Third_Party/LwIP/src/core/ipv4/icmp.c ****     LWIP_DEBUGF(ICMP_DEBUG, ("icmp_input: short IP header (%"S16_F" bytes) received\n", hlen));
  98:Middlewares/Third_Party/LwIP/src/core/ipv4/icmp.c ****     goto lenerr;
  99:Middlewares/Third_Party/LwIP/src/core/ipv4/icmp.c ****   }
 100:Middlewares/Third_Party/LwIP/src/core/ipv4/icmp.c ****   if (p->len < sizeof(u16_t) * 2) {
 101:Middlewares/Third_Party/LwIP/src/core/ipv4/icmp.c ****     LWIP_DEBUGF(ICMP_DEBUG, ("icmp_input: short ICMP (%"U16_F" bytes) received\n", p->tot_len));
 102:Middlewares/Third_Party/LwIP/src/core/ipv4/icmp.c ****     goto lenerr;
 103:Middlewares/Third_Party/LwIP/src/core/ipv4/icmp.c ****   }
 104:Middlewares/Third_Party/LwIP/src/core/ipv4/icmp.c **** 
 105:Middlewares/Third_Party/LwIP/src/core/ipv4/icmp.c ****   type = *((u8_t *)p->payload);
 106:Middlewares/Third_Party/LwIP/src/core/ipv4/icmp.c **** #ifdef LWIP_DEBUG
 107:Middlewares/Third_Party/LwIP/src/core/ipv4/icmp.c ****   code = *(((u8_t *)p->payload) + 1);
 108:Middlewares/Third_Party/LwIP/src/core/ipv4/icmp.c ****   /* if debug is enabled but debug statement below is somehow disabled: */
 109:Middlewares/Third_Party/LwIP/src/core/ipv4/icmp.c ****   LWIP_UNUSED_ARG(code);
 110:Middlewares/Third_Party/LwIP/src/core/ipv4/icmp.c **** #endif /* LWIP_DEBUG */
 111:Middlewares/Third_Party/LwIP/src/core/ipv4/icmp.c ****   switch (type) {
 112:Middlewares/Third_Party/LwIP/src/core/ipv4/icmp.c ****     case ICMP_ER:
 113:Middlewares/Third_Party/LwIP/src/core/ipv4/icmp.c ****       /* This is OK, echo reply might have been parsed by a raw PCB
 114:Middlewares/Third_Party/LwIP/src/core/ipv4/icmp.c ****          (as obviously, an echo request has been sent, too). */
 115:Middlewares/Third_Party/LwIP/src/core/ipv4/icmp.c ****       MIB2_STATS_INC(mib2.icmpinechoreps);
 116:Middlewares/Third_Party/LwIP/src/core/ipv4/icmp.c ****       break;
 117:Middlewares/Third_Party/LwIP/src/core/ipv4/icmp.c ****     case ICMP_ECHO:
 118:Middlewares/Third_Party/LwIP/src/core/ipv4/icmp.c ****       MIB2_STATS_INC(mib2.icmpinechos);
 119:Middlewares/Third_Party/LwIP/src/core/ipv4/icmp.c ****       src = ip4_current_dest_addr();
 120:Middlewares/Third_Party/LwIP/src/core/ipv4/icmp.c ****       /* multicast destination address? */
 121:Middlewares/Third_Party/LwIP/src/core/ipv4/icmp.c ****       if (ip4_addr_ismulticast(ip4_current_dest_addr())) {
 122:Middlewares/Third_Party/LwIP/src/core/ipv4/icmp.c **** #if LWIP_MULTICAST_PING
 123:Middlewares/Third_Party/LwIP/src/core/ipv4/icmp.c ****         /* For multicast, use address of receiving interface as source address */
ARM GAS  C:\Users\hh\AppData\Local\Temp\ccD83nHD.s 			page 4


 124:Middlewares/Third_Party/LwIP/src/core/ipv4/icmp.c ****         src = netif_ip4_addr(inp);
 125:Middlewares/Third_Party/LwIP/src/core/ipv4/icmp.c **** #else /* LWIP_MULTICAST_PING */
 126:Middlewares/Third_Party/LwIP/src/core/ipv4/icmp.c ****         LWIP_DEBUGF(ICMP_DEBUG, ("icmp_input: Not echoing to multicast pings\n"));
 127:Middlewares/Third_Party/LwIP/src/core/ipv4/icmp.c ****         goto icmperr;
 128:Middlewares/Third_Party/LwIP/src/core/ipv4/icmp.c **** #endif /* LWIP_MULTICAST_PING */
 129:Middlewares/Third_Party/LwIP/src/core/ipv4/icmp.c ****       }
 130:Middlewares/Third_Party/LwIP/src/core/ipv4/icmp.c ****       /* broadcast destination address? */
 131:Middlewares/Third_Party/LwIP/src/core/ipv4/icmp.c ****       if (ip4_addr_isbroadcast(ip4_current_dest_addr(), ip_current_netif())) {
 132:Middlewares/Third_Party/LwIP/src/core/ipv4/icmp.c **** #if LWIP_BROADCAST_PING
 133:Middlewares/Third_Party/LwIP/src/core/ipv4/icmp.c ****         /* For broadcast, use address of receiving interface as source address */
 134:Middlewares/Third_Party/LwIP/src/core/ipv4/icmp.c ****         src = netif_ip4_addr(inp);
 135:Middlewares/Third_Party/LwIP/src/core/ipv4/icmp.c **** #else /* LWIP_BROADCAST_PING */
 136:Middlewares/Third_Party/LwIP/src/core/ipv4/icmp.c ****         LWIP_DEBUGF(ICMP_DEBUG, ("icmp_input: Not echoing to broadcast pings\n"));
 137:Middlewares/Third_Party/LwIP/src/core/ipv4/icmp.c ****         goto icmperr;
 138:Middlewares/Third_Party/LwIP/src/core/ipv4/icmp.c **** #endif /* LWIP_BROADCAST_PING */
 139:Middlewares/Third_Party/LwIP/src/core/ipv4/icmp.c ****       }
 140:Middlewares/Third_Party/LwIP/src/core/ipv4/icmp.c ****       LWIP_DEBUGF(ICMP_DEBUG, ("icmp_input: ping\n"));
 141:Middlewares/Third_Party/LwIP/src/core/ipv4/icmp.c ****       if (p->tot_len < sizeof(struct icmp_echo_hdr)) {
 142:Middlewares/Third_Party/LwIP/src/core/ipv4/icmp.c ****         LWIP_DEBUGF(ICMP_DEBUG, ("icmp_input: bad ICMP echo received\n"));
 143:Middlewares/Third_Party/LwIP/src/core/ipv4/icmp.c ****         goto lenerr;
 144:Middlewares/Third_Party/LwIP/src/core/ipv4/icmp.c ****       }
 145:Middlewares/Third_Party/LwIP/src/core/ipv4/icmp.c **** #if CHECKSUM_CHECK_ICMP
 146:Middlewares/Third_Party/LwIP/src/core/ipv4/icmp.c ****       IF__NETIF_CHECKSUM_ENABLED(inp, NETIF_CHECKSUM_CHECK_ICMP) {
 147:Middlewares/Third_Party/LwIP/src/core/ipv4/icmp.c ****         if (inet_chksum_pbuf(p) != 0) {
 148:Middlewares/Third_Party/LwIP/src/core/ipv4/icmp.c ****           LWIP_DEBUGF(ICMP_DEBUG, ("icmp_input: checksum failed for received ICMP echo\n"));
 149:Middlewares/Third_Party/LwIP/src/core/ipv4/icmp.c ****           pbuf_free(p);
 150:Middlewares/Third_Party/LwIP/src/core/ipv4/icmp.c ****           ICMP_STATS_INC(icmp.chkerr);
 151:Middlewares/Third_Party/LwIP/src/core/ipv4/icmp.c ****           MIB2_STATS_INC(mib2.icmpinerrors);
 152:Middlewares/Third_Party/LwIP/src/core/ipv4/icmp.c ****           return;
 153:Middlewares/Third_Party/LwIP/src/core/ipv4/icmp.c ****         }
 154:Middlewares/Third_Party/LwIP/src/core/ipv4/icmp.c ****       }
 155:Middlewares/Third_Party/LwIP/src/core/ipv4/icmp.c **** #endif
 156:Middlewares/Third_Party/LwIP/src/core/ipv4/icmp.c **** #if LWIP_ICMP_ECHO_CHECK_INPUT_PBUF_LEN
 157:Middlewares/Third_Party/LwIP/src/core/ipv4/icmp.c ****       if (pbuf_add_header(p, hlen + PBUF_LINK_HLEN + PBUF_LINK_ENCAPSULATION_HLEN)) {
 158:Middlewares/Third_Party/LwIP/src/core/ipv4/icmp.c ****         /* p is not big enough to contain link headers
 159:Middlewares/Third_Party/LwIP/src/core/ipv4/icmp.c ****          * allocate a new one and copy p into it
 160:Middlewares/Third_Party/LwIP/src/core/ipv4/icmp.c ****          */
 161:Middlewares/Third_Party/LwIP/src/core/ipv4/icmp.c ****         struct pbuf *r;
 162:Middlewares/Third_Party/LwIP/src/core/ipv4/icmp.c ****         u16_t alloc_len = (u16_t)(p->tot_len + hlen);
 163:Middlewares/Third_Party/LwIP/src/core/ipv4/icmp.c ****         if (alloc_len < p->tot_len) {
 164:Middlewares/Third_Party/LwIP/src/core/ipv4/icmp.c ****           LWIP_DEBUGF(ICMP_DEBUG, ("icmp_input: allocating new pbuf failed (tot_len overflow)\n"));
 165:Middlewares/Third_Party/LwIP/src/core/ipv4/icmp.c ****           goto icmperr;
 166:Middlewares/Third_Party/LwIP/src/core/ipv4/icmp.c ****         }
 167:Middlewares/Third_Party/LwIP/src/core/ipv4/icmp.c ****         /* allocate new packet buffer with space for link headers */
 168:Middlewares/Third_Party/LwIP/src/core/ipv4/icmp.c ****         r = pbuf_alloc(PBUF_LINK, alloc_len, PBUF_RAM);
 169:Middlewares/Third_Party/LwIP/src/core/ipv4/icmp.c ****         if (r == NULL) {
 170:Middlewares/Third_Party/LwIP/src/core/ipv4/icmp.c ****           LWIP_DEBUGF(ICMP_DEBUG, ("icmp_input: allocating new pbuf failed\n"));
 171:Middlewares/Third_Party/LwIP/src/core/ipv4/icmp.c ****           goto icmperr;
 172:Middlewares/Third_Party/LwIP/src/core/ipv4/icmp.c ****         }
 173:Middlewares/Third_Party/LwIP/src/core/ipv4/icmp.c ****         if (r->len < hlen + sizeof(struct icmp_echo_hdr)) {
 174:Middlewares/Third_Party/LwIP/src/core/ipv4/icmp.c ****           LWIP_DEBUGF(ICMP_DEBUG | LWIP_DBG_LEVEL_SERIOUS, ("first pbuf cannot hold the ICMP header
 175:Middlewares/Third_Party/LwIP/src/core/ipv4/icmp.c ****           pbuf_free(r);
 176:Middlewares/Third_Party/LwIP/src/core/ipv4/icmp.c ****           goto icmperr;
 177:Middlewares/Third_Party/LwIP/src/core/ipv4/icmp.c ****         }
 178:Middlewares/Third_Party/LwIP/src/core/ipv4/icmp.c ****         /* copy the ip header */
 179:Middlewares/Third_Party/LwIP/src/core/ipv4/icmp.c ****         MEMCPY(r->payload, iphdr_in, hlen);
 180:Middlewares/Third_Party/LwIP/src/core/ipv4/icmp.c ****         /* switch r->payload back to icmp header (cannot fail) */
ARM GAS  C:\Users\hh\AppData\Local\Temp\ccD83nHD.s 			page 5


 181:Middlewares/Third_Party/LwIP/src/core/ipv4/icmp.c ****         if (pbuf_remove_header(r, hlen)) {
 182:Middlewares/Third_Party/LwIP/src/core/ipv4/icmp.c ****           LWIP_ASSERT("icmp_input: moving r->payload to icmp header failed", 0);
 183:Middlewares/Third_Party/LwIP/src/core/ipv4/icmp.c ****           pbuf_free(r);
 184:Middlewares/Third_Party/LwIP/src/core/ipv4/icmp.c ****           goto icmperr;
 185:Middlewares/Third_Party/LwIP/src/core/ipv4/icmp.c ****         }
 186:Middlewares/Third_Party/LwIP/src/core/ipv4/icmp.c ****         /* copy the rest of the packet without ip header */
 187:Middlewares/Third_Party/LwIP/src/core/ipv4/icmp.c ****         if (pbuf_copy(r, p) != ERR_OK) {
 188:Middlewares/Third_Party/LwIP/src/core/ipv4/icmp.c ****           LWIP_DEBUGF(ICMP_DEBUG | LWIP_DBG_LEVEL_SERIOUS, ("icmp_input: copying to new pbuf failed
 189:Middlewares/Third_Party/LwIP/src/core/ipv4/icmp.c ****           pbuf_free(r);
 190:Middlewares/Third_Party/LwIP/src/core/ipv4/icmp.c ****           goto icmperr;
 191:Middlewares/Third_Party/LwIP/src/core/ipv4/icmp.c ****         }
 192:Middlewares/Third_Party/LwIP/src/core/ipv4/icmp.c ****         /* free the original p */
 193:Middlewares/Third_Party/LwIP/src/core/ipv4/icmp.c ****         pbuf_free(p);
 194:Middlewares/Third_Party/LwIP/src/core/ipv4/icmp.c ****         /* we now have an identical copy of p that has room for link headers */
 195:Middlewares/Third_Party/LwIP/src/core/ipv4/icmp.c ****         p = r;
 196:Middlewares/Third_Party/LwIP/src/core/ipv4/icmp.c ****       } else {
 197:Middlewares/Third_Party/LwIP/src/core/ipv4/icmp.c ****         /* restore p->payload to point to icmp header (cannot fail) */
 198:Middlewares/Third_Party/LwIP/src/core/ipv4/icmp.c ****         if (pbuf_remove_header(p, hlen + PBUF_LINK_HLEN + PBUF_LINK_ENCAPSULATION_HLEN)) {
 199:Middlewares/Third_Party/LwIP/src/core/ipv4/icmp.c ****           LWIP_ASSERT("icmp_input: restoring original p->payload failed", 0);
 200:Middlewares/Third_Party/LwIP/src/core/ipv4/icmp.c ****           goto icmperr;
 201:Middlewares/Third_Party/LwIP/src/core/ipv4/icmp.c ****         }
 202:Middlewares/Third_Party/LwIP/src/core/ipv4/icmp.c ****       }
 203:Middlewares/Third_Party/LwIP/src/core/ipv4/icmp.c **** #endif /* LWIP_ICMP_ECHO_CHECK_INPUT_PBUF_LEN */
 204:Middlewares/Third_Party/LwIP/src/core/ipv4/icmp.c ****       /* At this point, all checks are OK. */
 205:Middlewares/Third_Party/LwIP/src/core/ipv4/icmp.c ****       /* We generate an answer by switching the dest and src ip addresses,
 206:Middlewares/Third_Party/LwIP/src/core/ipv4/icmp.c ****        * setting the icmp type to ECHO_RESPONSE and updating the checksum. */
 207:Middlewares/Third_Party/LwIP/src/core/ipv4/icmp.c ****       iecho = (struct icmp_echo_hdr *)p->payload;
 208:Middlewares/Third_Party/LwIP/src/core/ipv4/icmp.c ****       if (pbuf_add_header(p, hlen)) {
 209:Middlewares/Third_Party/LwIP/src/core/ipv4/icmp.c ****         LWIP_DEBUGF(ICMP_DEBUG | LWIP_DBG_LEVEL_SERIOUS, ("Can't move over header in packet\n"));
 210:Middlewares/Third_Party/LwIP/src/core/ipv4/icmp.c ****       } else {
 211:Middlewares/Third_Party/LwIP/src/core/ipv4/icmp.c ****         err_t ret;
 212:Middlewares/Third_Party/LwIP/src/core/ipv4/icmp.c ****         struct ip_hdr *iphdr = (struct ip_hdr *)p->payload;
 213:Middlewares/Third_Party/LwIP/src/core/ipv4/icmp.c ****         ip4_addr_copy(iphdr->src, *src);
 214:Middlewares/Third_Party/LwIP/src/core/ipv4/icmp.c ****         ip4_addr_copy(iphdr->dest, *ip4_current_src_addr());
 215:Middlewares/Third_Party/LwIP/src/core/ipv4/icmp.c ****         ICMPH_TYPE_SET(iecho, ICMP_ER);
 216:Middlewares/Third_Party/LwIP/src/core/ipv4/icmp.c ****         p->if_idx = NETIF_NO_INDEX; /* we're reusing this pbuf, so reset its if_idx */
 217:Middlewares/Third_Party/LwIP/src/core/ipv4/icmp.c **** #if CHECKSUM_GEN_ICMP
 218:Middlewares/Third_Party/LwIP/src/core/ipv4/icmp.c ****         IF__NETIF_CHECKSUM_ENABLED(inp, NETIF_CHECKSUM_GEN_ICMP) {
 219:Middlewares/Third_Party/LwIP/src/core/ipv4/icmp.c ****           /* adjust the checksum */
 220:Middlewares/Third_Party/LwIP/src/core/ipv4/icmp.c ****           if (iecho->chksum > PP_HTONS(0xffffU - (ICMP_ECHO << 8))) {
 221:Middlewares/Third_Party/LwIP/src/core/ipv4/icmp.c ****             iecho->chksum = (u16_t)(iecho->chksum + PP_HTONS((u16_t)(ICMP_ECHO << 8)) + 1);
 222:Middlewares/Third_Party/LwIP/src/core/ipv4/icmp.c ****           } else {
 223:Middlewares/Third_Party/LwIP/src/core/ipv4/icmp.c ****             iecho->chksum = (u16_t)(iecho->chksum + PP_HTONS(ICMP_ECHO << 8));
 224:Middlewares/Third_Party/LwIP/src/core/ipv4/icmp.c ****           }
 225:Middlewares/Third_Party/LwIP/src/core/ipv4/icmp.c ****         }
 226:Middlewares/Third_Party/LwIP/src/core/ipv4/icmp.c **** #if LWIP_CHECKSUM_CTRL_PER_NETIF
 227:Middlewares/Third_Party/LwIP/src/core/ipv4/icmp.c ****         else {
 228:Middlewares/Third_Party/LwIP/src/core/ipv4/icmp.c ****           iecho->chksum = 0;
 229:Middlewares/Third_Party/LwIP/src/core/ipv4/icmp.c ****         }
 230:Middlewares/Third_Party/LwIP/src/core/ipv4/icmp.c **** #endif /* LWIP_CHECKSUM_CTRL_PER_NETIF */
 231:Middlewares/Third_Party/LwIP/src/core/ipv4/icmp.c **** #else /* CHECKSUM_GEN_ICMP */
 232:Middlewares/Third_Party/LwIP/src/core/ipv4/icmp.c ****         iecho->chksum = 0;
 233:Middlewares/Third_Party/LwIP/src/core/ipv4/icmp.c **** #endif /* CHECKSUM_GEN_ICMP */
 234:Middlewares/Third_Party/LwIP/src/core/ipv4/icmp.c **** 
 235:Middlewares/Third_Party/LwIP/src/core/ipv4/icmp.c ****         /* Set the correct TTL and recalculate the header checksum. */
 236:Middlewares/Third_Party/LwIP/src/core/ipv4/icmp.c ****         IPH_TTL_SET(iphdr, ICMP_TTL);
 237:Middlewares/Third_Party/LwIP/src/core/ipv4/icmp.c ****         IPH_CHKSUM_SET(iphdr, 0);
ARM GAS  C:\Users\hh\AppData\Local\Temp\ccD83nHD.s 			page 6


 238:Middlewares/Third_Party/LwIP/src/core/ipv4/icmp.c **** #if CHECKSUM_GEN_IP
 239:Middlewares/Third_Party/LwIP/src/core/ipv4/icmp.c ****         IF__NETIF_CHECKSUM_ENABLED(inp, NETIF_CHECKSUM_GEN_IP) {
 240:Middlewares/Third_Party/LwIP/src/core/ipv4/icmp.c ****           IPH_CHKSUM_SET(iphdr, inet_chksum(iphdr, hlen));
 241:Middlewares/Third_Party/LwIP/src/core/ipv4/icmp.c ****         }
 242:Middlewares/Third_Party/LwIP/src/core/ipv4/icmp.c **** #endif /* CHECKSUM_GEN_IP */
 243:Middlewares/Third_Party/LwIP/src/core/ipv4/icmp.c **** 
 244:Middlewares/Third_Party/LwIP/src/core/ipv4/icmp.c ****         ICMP_STATS_INC(icmp.xmit);
 245:Middlewares/Third_Party/LwIP/src/core/ipv4/icmp.c ****         /* increase number of messages attempted to send */
 246:Middlewares/Third_Party/LwIP/src/core/ipv4/icmp.c ****         MIB2_STATS_INC(mib2.icmpoutmsgs);
 247:Middlewares/Third_Party/LwIP/src/core/ipv4/icmp.c ****         /* increase number of echo replies attempted to send */
 248:Middlewares/Third_Party/LwIP/src/core/ipv4/icmp.c ****         MIB2_STATS_INC(mib2.icmpoutechoreps);
 249:Middlewares/Third_Party/LwIP/src/core/ipv4/icmp.c **** 
 250:Middlewares/Third_Party/LwIP/src/core/ipv4/icmp.c ****         /* send an ICMP packet */
 251:Middlewares/Third_Party/LwIP/src/core/ipv4/icmp.c ****         ret = ip4_output_if(p, src, LWIP_IP_HDRINCL,
 252:Middlewares/Third_Party/LwIP/src/core/ipv4/icmp.c ****                             ICMP_TTL, 0, IP_PROTO_ICMP, inp);
 253:Middlewares/Third_Party/LwIP/src/core/ipv4/icmp.c ****         if (ret != ERR_OK) {
 254:Middlewares/Third_Party/LwIP/src/core/ipv4/icmp.c ****           LWIP_DEBUGF(ICMP_DEBUG, ("icmp_input: ip_output_if returned an error: %s\n", lwip_strerr(
 255:Middlewares/Third_Party/LwIP/src/core/ipv4/icmp.c ****         }
 256:Middlewares/Third_Party/LwIP/src/core/ipv4/icmp.c ****       }
 257:Middlewares/Third_Party/LwIP/src/core/ipv4/icmp.c ****       break;
 258:Middlewares/Third_Party/LwIP/src/core/ipv4/icmp.c ****     default:
 259:Middlewares/Third_Party/LwIP/src/core/ipv4/icmp.c ****       if (type == ICMP_DUR) {
 260:Middlewares/Third_Party/LwIP/src/core/ipv4/icmp.c ****         MIB2_STATS_INC(mib2.icmpindestunreachs);
 261:Middlewares/Third_Party/LwIP/src/core/ipv4/icmp.c ****       } else if (type == ICMP_TE) {
 262:Middlewares/Third_Party/LwIP/src/core/ipv4/icmp.c ****         MIB2_STATS_INC(mib2.icmpintimeexcds);
 263:Middlewares/Third_Party/LwIP/src/core/ipv4/icmp.c ****       } else if (type == ICMP_PP) {
 264:Middlewares/Third_Party/LwIP/src/core/ipv4/icmp.c ****         MIB2_STATS_INC(mib2.icmpinparmprobs);
 265:Middlewares/Third_Party/LwIP/src/core/ipv4/icmp.c ****       } else if (type == ICMP_SQ) {
 266:Middlewares/Third_Party/LwIP/src/core/ipv4/icmp.c ****         MIB2_STATS_INC(mib2.icmpinsrcquenchs);
 267:Middlewares/Third_Party/LwIP/src/core/ipv4/icmp.c ****       } else if (type == ICMP_RD) {
 268:Middlewares/Third_Party/LwIP/src/core/ipv4/icmp.c ****         MIB2_STATS_INC(mib2.icmpinredirects);
 269:Middlewares/Third_Party/LwIP/src/core/ipv4/icmp.c ****       } else if (type == ICMP_TS) {
 270:Middlewares/Third_Party/LwIP/src/core/ipv4/icmp.c ****         MIB2_STATS_INC(mib2.icmpintimestamps);
 271:Middlewares/Third_Party/LwIP/src/core/ipv4/icmp.c ****       } else if (type == ICMP_TSR) {
 272:Middlewares/Third_Party/LwIP/src/core/ipv4/icmp.c ****         MIB2_STATS_INC(mib2.icmpintimestampreps);
 273:Middlewares/Third_Party/LwIP/src/core/ipv4/icmp.c ****       } else if (type == ICMP_AM) {
 274:Middlewares/Third_Party/LwIP/src/core/ipv4/icmp.c ****         MIB2_STATS_INC(mib2.icmpinaddrmasks);
 275:Middlewares/Third_Party/LwIP/src/core/ipv4/icmp.c ****       } else if (type == ICMP_AMR) {
 276:Middlewares/Third_Party/LwIP/src/core/ipv4/icmp.c ****         MIB2_STATS_INC(mib2.icmpinaddrmaskreps);
 277:Middlewares/Third_Party/LwIP/src/core/ipv4/icmp.c ****       }
 278:Middlewares/Third_Party/LwIP/src/core/ipv4/icmp.c ****       LWIP_DEBUGF(ICMP_DEBUG, ("icmp_input: ICMP type %"S16_F" code %"S16_F" not supported.\n",
 279:Middlewares/Third_Party/LwIP/src/core/ipv4/icmp.c ****                                (s16_t)type, (s16_t)code));
 280:Middlewares/Third_Party/LwIP/src/core/ipv4/icmp.c ****       ICMP_STATS_INC(icmp.proterr);
 281:Middlewares/Third_Party/LwIP/src/core/ipv4/icmp.c ****       ICMP_STATS_INC(icmp.drop);
 282:Middlewares/Third_Party/LwIP/src/core/ipv4/icmp.c ****   }
 283:Middlewares/Third_Party/LwIP/src/core/ipv4/icmp.c ****   pbuf_free(p);
 284:Middlewares/Third_Party/LwIP/src/core/ipv4/icmp.c ****   return;
 285:Middlewares/Third_Party/LwIP/src/core/ipv4/icmp.c **** lenerr:
 286:Middlewares/Third_Party/LwIP/src/core/ipv4/icmp.c ****   pbuf_free(p);
 287:Middlewares/Third_Party/LwIP/src/core/ipv4/icmp.c ****   ICMP_STATS_INC(icmp.lenerr);
 288:Middlewares/Third_Party/LwIP/src/core/ipv4/icmp.c ****   MIB2_STATS_INC(mib2.icmpinerrors);
 289:Middlewares/Third_Party/LwIP/src/core/ipv4/icmp.c ****   return;
 290:Middlewares/Third_Party/LwIP/src/core/ipv4/icmp.c **** #if LWIP_ICMP_ECHO_CHECK_INPUT_PBUF_LEN || !LWIP_MULTICAST_PING || !LWIP_BROADCAST_PING
 291:Middlewares/Third_Party/LwIP/src/core/ipv4/icmp.c **** icmperr:
 292:Middlewares/Third_Party/LwIP/src/core/ipv4/icmp.c ****   pbuf_free(p);
 293:Middlewares/Third_Party/LwIP/src/core/ipv4/icmp.c ****   ICMP_STATS_INC(icmp.err);
 294:Middlewares/Third_Party/LwIP/src/core/ipv4/icmp.c ****   MIB2_STATS_INC(mib2.icmpinerrors);
ARM GAS  C:\Users\hh\AppData\Local\Temp\ccD83nHD.s 			page 7


 295:Middlewares/Third_Party/LwIP/src/core/ipv4/icmp.c ****   return;
 296:Middlewares/Third_Party/LwIP/src/core/ipv4/icmp.c **** #endif /* LWIP_ICMP_ECHO_CHECK_INPUT_PBUF_LEN || !LWIP_MULTICAST_PING || !LWIP_BROADCAST_PING */
 297:Middlewares/Third_Party/LwIP/src/core/ipv4/icmp.c **** }
 298:Middlewares/Third_Party/LwIP/src/core/ipv4/icmp.c **** 
 299:Middlewares/Third_Party/LwIP/src/core/ipv4/icmp.c **** /**
 300:Middlewares/Third_Party/LwIP/src/core/ipv4/icmp.c ****  * Send an icmp 'destination unreachable' packet, called from ip_input() if
 301:Middlewares/Third_Party/LwIP/src/core/ipv4/icmp.c ****  * the transport layer protocol is unknown and from udp_input() if the local
 302:Middlewares/Third_Party/LwIP/src/core/ipv4/icmp.c ****  * port is not bound.
 303:Middlewares/Third_Party/LwIP/src/core/ipv4/icmp.c ****  *
 304:Middlewares/Third_Party/LwIP/src/core/ipv4/icmp.c ****  * @param p the input packet for which the 'unreachable' should be sent,
 305:Middlewares/Third_Party/LwIP/src/core/ipv4/icmp.c ****  *          p->payload pointing to the IP header
 306:Middlewares/Third_Party/LwIP/src/core/ipv4/icmp.c ****  * @param t type of the 'unreachable' packet
 307:Middlewares/Third_Party/LwIP/src/core/ipv4/icmp.c ****  */
 308:Middlewares/Third_Party/LwIP/src/core/ipv4/icmp.c **** void
 309:Middlewares/Third_Party/LwIP/src/core/ipv4/icmp.c **** icmp_dest_unreach(struct pbuf *p, enum icmp_dur_type t)
 310:Middlewares/Third_Party/LwIP/src/core/ipv4/icmp.c **** {
 311:Middlewares/Third_Party/LwIP/src/core/ipv4/icmp.c ****   MIB2_STATS_INC(mib2.icmpoutdestunreachs);
 312:Middlewares/Third_Party/LwIP/src/core/ipv4/icmp.c ****   icmp_send_response(p, ICMP_DUR, t);
 313:Middlewares/Third_Party/LwIP/src/core/ipv4/icmp.c **** }
 314:Middlewares/Third_Party/LwIP/src/core/ipv4/icmp.c **** 
 315:Middlewares/Third_Party/LwIP/src/core/ipv4/icmp.c **** #if IP_FORWARD || IP_REASSEMBLY
 316:Middlewares/Third_Party/LwIP/src/core/ipv4/icmp.c **** /**
 317:Middlewares/Third_Party/LwIP/src/core/ipv4/icmp.c ****  * Send a 'time exceeded' packet, called from ip_forward() if TTL is 0.
 318:Middlewares/Third_Party/LwIP/src/core/ipv4/icmp.c ****  *
 319:Middlewares/Third_Party/LwIP/src/core/ipv4/icmp.c ****  * @param p the input packet for which the 'time exceeded' should be sent,
 320:Middlewares/Third_Party/LwIP/src/core/ipv4/icmp.c ****  *          p->payload pointing to the IP header
 321:Middlewares/Third_Party/LwIP/src/core/ipv4/icmp.c ****  * @param t type of the 'time exceeded' packet
 322:Middlewares/Third_Party/LwIP/src/core/ipv4/icmp.c ****  */
 323:Middlewares/Third_Party/LwIP/src/core/ipv4/icmp.c **** void
 324:Middlewares/Third_Party/LwIP/src/core/ipv4/icmp.c **** icmp_time_exceeded(struct pbuf *p, enum icmp_te_type t)
 325:Middlewares/Third_Party/LwIP/src/core/ipv4/icmp.c **** {
 326:Middlewares/Third_Party/LwIP/src/core/ipv4/icmp.c ****   MIB2_STATS_INC(mib2.icmpouttimeexcds);
 327:Middlewares/Third_Party/LwIP/src/core/ipv4/icmp.c ****   icmp_send_response(p, ICMP_TE, t);
 328:Middlewares/Third_Party/LwIP/src/core/ipv4/icmp.c **** }
 329:Middlewares/Third_Party/LwIP/src/core/ipv4/icmp.c **** 
 330:Middlewares/Third_Party/LwIP/src/core/ipv4/icmp.c **** #endif /* IP_FORWARD || IP_REASSEMBLY */
 331:Middlewares/Third_Party/LwIP/src/core/ipv4/icmp.c **** 
 332:Middlewares/Third_Party/LwIP/src/core/ipv4/icmp.c **** /**
 333:Middlewares/Third_Party/LwIP/src/core/ipv4/icmp.c ****  * Send an icmp packet in response to an incoming packet.
 334:Middlewares/Third_Party/LwIP/src/core/ipv4/icmp.c ****  *
 335:Middlewares/Third_Party/LwIP/src/core/ipv4/icmp.c ****  * @param p the input packet for which the 'unreachable' should be sent,
 336:Middlewares/Third_Party/LwIP/src/core/ipv4/icmp.c ****  *          p->payload pointing to the IP header
 337:Middlewares/Third_Party/LwIP/src/core/ipv4/icmp.c ****  * @param type Type of the ICMP header
 338:Middlewares/Third_Party/LwIP/src/core/ipv4/icmp.c ****  * @param code Code of the ICMP header
 339:Middlewares/Third_Party/LwIP/src/core/ipv4/icmp.c ****  */
 340:Middlewares/Third_Party/LwIP/src/core/ipv4/icmp.c **** static void
 341:Middlewares/Third_Party/LwIP/src/core/ipv4/icmp.c **** icmp_send_response(struct pbuf *p, u8_t type, u8_t code)
 342:Middlewares/Third_Party/LwIP/src/core/ipv4/icmp.c **** {
  38              		.loc 1 342 1 view -0
  39              		.cfi_startproc
  40              		@ args = 0, pretend = 0, frame = 16
  41              		@ frame_needed = 0, uses_anonymous_args = 0
  42              		.loc 1 342 1 is_stmt 0 view .LVU1
  43 0000 2DE9F043 		push	{r4, r5, r6, r7, r8, r9, lr}
  44              	.LCFI0:
  45              		.cfi_def_cfa_offset 28
  46              		.cfi_offset 4, -28
ARM GAS  C:\Users\hh\AppData\Local\Temp\ccD83nHD.s 			page 8


  47              		.cfi_offset 5, -24
  48              		.cfi_offset 6, -20
  49              		.cfi_offset 7, -16
  50              		.cfi_offset 8, -12
  51              		.cfi_offset 9, -8
  52              		.cfi_offset 14, -4
  53 0004 89B0     		sub	sp, sp, #36
  54              	.LCFI1:
  55              		.cfi_def_cfa_offset 64
  56 0006 0546     		mov	r5, r0
  57 0008 8846     		mov	r8, r1
  58 000a 9146     		mov	r9, r2
 343:Middlewares/Third_Party/LwIP/src/core/ipv4/icmp.c ****   struct pbuf *q;
  59              		.loc 1 343 3 is_stmt 1 view .LVU2
 344:Middlewares/Third_Party/LwIP/src/core/ipv4/icmp.c ****   struct ip_hdr *iphdr;
  60              		.loc 1 344 3 view .LVU3
 345:Middlewares/Third_Party/LwIP/src/core/ipv4/icmp.c ****   struct icmp_hdr *icmphdr;
  61              		.loc 1 345 3 view .LVU4
 346:Middlewares/Third_Party/LwIP/src/core/ipv4/icmp.c ****   ip4_addr_t iphdr_src;
  62              		.loc 1 346 3 view .LVU5
 347:Middlewares/Third_Party/LwIP/src/core/ipv4/icmp.c ****   struct netif *netif;
  63              		.loc 1 347 3 view .LVU6
 348:Middlewares/Third_Party/LwIP/src/core/ipv4/icmp.c ****   u16_t response_pkt_len;
  64              		.loc 1 348 3 view .LVU7
 349:Middlewares/Third_Party/LwIP/src/core/ipv4/icmp.c **** 
 350:Middlewares/Third_Party/LwIP/src/core/ipv4/icmp.c ****   /* increase number of messages attempted to send */
 351:Middlewares/Third_Party/LwIP/src/core/ipv4/icmp.c ****   MIB2_STATS_INC(mib2.icmpoutmsgs);
  65              		.loc 1 351 35 view .LVU8
 352:Middlewares/Third_Party/LwIP/src/core/ipv4/icmp.c **** 
 353:Middlewares/Third_Party/LwIP/src/core/ipv4/icmp.c ****   /* Keep IP header + up to 8 bytes */
 354:Middlewares/Third_Party/LwIP/src/core/ipv4/icmp.c ****   response_pkt_len = IP_HLEN + ICMP_DEST_UNREACH_DATASIZE;
  66              		.loc 1 354 3 view .LVU9
  67              	.LVL1:
 355:Middlewares/Third_Party/LwIP/src/core/ipv4/icmp.c ****   if (p->tot_len < response_pkt_len) {
  68              		.loc 1 355 3 view .LVU10
  69              		.loc 1 355 8 is_stmt 0 view .LVU11
  70 000c 0789     		ldrh	r7, [r0, #8]
  71              		.loc 1 355 6 view .LVU12
  72 000e 1B2F     		cmp	r7, #27
  73 0010 00D9     		bls	.L2
 354:Middlewares/Third_Party/LwIP/src/core/ipv4/icmp.c ****   if (p->tot_len < response_pkt_len) {
  74              		.loc 1 354 20 view .LVU13
  75 0012 1C27     		movs	r7, #28
  76              	.L2:
  77              	.LVL2:
 356:Middlewares/Third_Party/LwIP/src/core/ipv4/icmp.c ****     response_pkt_len = p->tot_len;
 357:Middlewares/Third_Party/LwIP/src/core/ipv4/icmp.c ****   }
 358:Middlewares/Third_Party/LwIP/src/core/ipv4/icmp.c **** 
 359:Middlewares/Third_Party/LwIP/src/core/ipv4/icmp.c ****   /* ICMP header + part of original packet */
 360:Middlewares/Third_Party/LwIP/src/core/ipv4/icmp.c ****   q = pbuf_alloc(PBUF_IP, sizeof(struct icmp_hdr) + response_pkt_len, PBUF_RAM);
  78              		.loc 1 360 3 is_stmt 1 view .LVU14
  79              		.loc 1 360 7 is_stmt 0 view .LVU15
  80 0014 07F10803 		add	r3, r7, #8
  81 0018 4FF42072 		mov	r2, #640
  82              	.LVL3:
  83              		.loc 1 360 7 view .LVU16
  84 001c 99B2     		uxth	r1, r3
ARM GAS  C:\Users\hh\AppData\Local\Temp\ccD83nHD.s 			page 9


  85              	.LVL4:
  86              		.loc 1 360 7 view .LVU17
  87 001e 2220     		movs	r0, #34
  88              	.LVL5:
  89              		.loc 1 360 7 view .LVU18
  90 0020 FFF7FEFF 		bl	pbuf_alloc
  91              	.LVL6:
 361:Middlewares/Third_Party/LwIP/src/core/ipv4/icmp.c ****   if (q == NULL) {
  92              		.loc 1 361 3 is_stmt 1 view .LVU19
  93              		.loc 1 361 6 is_stmt 0 view .LVU20
  94 0024 0646     		mov	r6, r0
  95 0026 98B3     		cbz	r0, .L1
 362:Middlewares/Third_Party/LwIP/src/core/ipv4/icmp.c ****     LWIP_DEBUGF(ICMP_DEBUG, ("icmp_send_response: failed to allocate pbuf for ICMP packet.\n"));
 363:Middlewares/Third_Party/LwIP/src/core/ipv4/icmp.c ****     MIB2_STATS_INC(mib2.icmpouterrors);
 364:Middlewares/Third_Party/LwIP/src/core/ipv4/icmp.c ****     return;
 365:Middlewares/Third_Party/LwIP/src/core/ipv4/icmp.c ****   }
 366:Middlewares/Third_Party/LwIP/src/core/ipv4/icmp.c ****   LWIP_ASSERT("check that first pbuf can hold icmp message",
  96              		.loc 1 366 3 is_stmt 1 view .LVU21
  97              		.loc 1 366 3 view .LVU22
  98 0028 4289     		ldrh	r2, [r0, #10]
  99 002a 07F10803 		add	r3, r7, #8
 100 002e 9A42     		cmp	r2, r3
 101 0030 31D3     		bcc	.L8
 102              	.LVL7:
 103              	.L5:
 104              		.loc 1 366 3 view .LVU23
 105              		.loc 1 366 3 view .LVU24
 367:Middlewares/Third_Party/LwIP/src/core/ipv4/icmp.c ****               (q->len >= (sizeof(struct icmp_hdr) + response_pkt_len)));
 368:Middlewares/Third_Party/LwIP/src/core/ipv4/icmp.c **** 
 369:Middlewares/Third_Party/LwIP/src/core/ipv4/icmp.c ****   iphdr = (struct ip_hdr *)p->payload;
 106              		.loc 1 369 3 view .LVU25
 107              		.loc 1 369 9 is_stmt 0 view .LVU26
 108 0032 6B68     		ldr	r3, [r5, #4]
 109 0034 0593     		str	r3, [sp, #20]
 110              	.LVL8:
 370:Middlewares/Third_Party/LwIP/src/core/ipv4/icmp.c ****   LWIP_DEBUGF(ICMP_DEBUG, ("icmp_send_response: Sending ICMP type %02X for packet from ", type));
 111              		.loc 1 370 97 is_stmt 1 view .LVU27
 371:Middlewares/Third_Party/LwIP/src/core/ipv4/icmp.c ****   ip4_addr_debug_print_val(ICMP_DEBUG, iphdr->src);
 112              		.loc 1 371 51 view .LVU28
 372:Middlewares/Third_Party/LwIP/src/core/ipv4/icmp.c ****   LWIP_DEBUGF(ICMP_DEBUG, (" to "));
 113              		.loc 1 372 36 view .LVU29
 373:Middlewares/Third_Party/LwIP/src/core/ipv4/icmp.c ****   ip4_addr_debug_print_val(ICMP_DEBUG, iphdr->dest);
 114              		.loc 1 373 52 view .LVU30
 374:Middlewares/Third_Party/LwIP/src/core/ipv4/icmp.c ****   LWIP_DEBUGF(ICMP_DEBUG, ("\n"));
 115              		.loc 1 374 34 view .LVU31
 375:Middlewares/Third_Party/LwIP/src/core/ipv4/icmp.c **** 
 376:Middlewares/Third_Party/LwIP/src/core/ipv4/icmp.c ****   icmphdr = (struct icmp_hdr *)q->payload;
 116              		.loc 1 376 3 view .LVU32
 117              		.loc 1 376 11 is_stmt 0 view .LVU33
 118 0036 7468     		ldr	r4, [r6, #4]
 119              	.LVL9:
 377:Middlewares/Third_Party/LwIP/src/core/ipv4/icmp.c ****   icmphdr->type = type;
 120              		.loc 1 377 3 is_stmt 1 view .LVU34
 121              		.loc 1 377 17 is_stmt 0 view .LVU35
 122 0038 84F80080 		strb	r8, [r4]
 378:Middlewares/Third_Party/LwIP/src/core/ipv4/icmp.c ****   icmphdr->code = code;
 123              		.loc 1 378 3 is_stmt 1 view .LVU36
ARM GAS  C:\Users\hh\AppData\Local\Temp\ccD83nHD.s 			page 10


 124              		.loc 1 378 17 is_stmt 0 view .LVU37
 125 003c 84F80190 		strb	r9, [r4, #1]
 379:Middlewares/Third_Party/LwIP/src/core/ipv4/icmp.c ****   icmphdr->data = 0;
 126              		.loc 1 379 3 is_stmt 1 view .LVU38
 127              		.loc 1 379 17 is_stmt 0 view .LVU39
 128 0040 0023     		movs	r3, #0
 129              	.LVL10:
 130              		.loc 1 379 17 view .LVU40
 131 0042 2371     		strb	r3, [r4, #4]
 132 0044 6371     		strb	r3, [r4, #5]
 133 0046 A371     		strb	r3, [r4, #6]
 134 0048 E371     		strb	r3, [r4, #7]
 380:Middlewares/Third_Party/LwIP/src/core/ipv4/icmp.c **** 
 381:Middlewares/Third_Party/LwIP/src/core/ipv4/icmp.c ****   /* copy fields from original packet */
 382:Middlewares/Third_Party/LwIP/src/core/ipv4/icmp.c ****   pbuf_copy_partial_pbuf(q, p, response_pkt_len, sizeof(struct icmp_hdr));
 135              		.loc 1 382 3 is_stmt 1 view .LVU41
 136 004a 0823     		movs	r3, #8
 137 004c 3A46     		mov	r2, r7
 138 004e 2946     		mov	r1, r5
 139 0050 3046     		mov	r0, r6
 140 0052 FFF7FEFF 		bl	pbuf_copy_partial_pbuf
 141              	.LVL11:
 383:Middlewares/Third_Party/LwIP/src/core/ipv4/icmp.c **** 
 384:Middlewares/Third_Party/LwIP/src/core/ipv4/icmp.c ****   ip4_addr_copy(iphdr_src, iphdr->src);
 142              		.loc 1 384 3 view .LVU42
 143 0056 059B     		ldr	r3, [sp, #20]
 144 0058 DB68     		ldr	r3, [r3, #12]	@ unaligned
 145 005a 0793     		str	r3, [sp, #28]
 385:Middlewares/Third_Party/LwIP/src/core/ipv4/icmp.c **** #ifdef LWIP_HOOK_IP4_ROUTE_SRC
 386:Middlewares/Third_Party/LwIP/src/core/ipv4/icmp.c ****   {
 387:Middlewares/Third_Party/LwIP/src/core/ipv4/icmp.c ****     ip4_addr_t iphdr_dst;
 388:Middlewares/Third_Party/LwIP/src/core/ipv4/icmp.c ****     ip4_addr_copy(iphdr_dst, iphdr->dest);
 389:Middlewares/Third_Party/LwIP/src/core/ipv4/icmp.c ****     netif = ip4_route_src(&iphdr_dst, &iphdr_src);
 390:Middlewares/Third_Party/LwIP/src/core/ipv4/icmp.c ****   }
 391:Middlewares/Third_Party/LwIP/src/core/ipv4/icmp.c **** #else
 392:Middlewares/Third_Party/LwIP/src/core/ipv4/icmp.c ****   netif = ip4_route(&iphdr_src);
 146              		.loc 1 392 3 view .LVU43
 147              		.loc 1 392 11 is_stmt 0 view .LVU44
 148 005c 07A8     		add	r0, sp, #28
 149 005e FFF7FEFF 		bl	ip4_route
 150              	.LVL12:
 393:Middlewares/Third_Party/LwIP/src/core/ipv4/icmp.c **** #endif
 394:Middlewares/Third_Party/LwIP/src/core/ipv4/icmp.c ****   if (netif != NULL) {
 151              		.loc 1 394 3 is_stmt 1 view .LVU45
 152              		.loc 1 394 6 is_stmt 0 view .LVU46
 153 0062 0746     		mov	r7, r0
 154              	.LVL13:
 155              		.loc 1 394 6 view .LVU47
 156 0064 88B1     		cbz	r0, .L6
 395:Middlewares/Third_Party/LwIP/src/core/ipv4/icmp.c ****     /* calculate checksum */
 396:Middlewares/Third_Party/LwIP/src/core/ipv4/icmp.c ****     icmphdr->chksum = 0;
 157              		.loc 1 396 5 is_stmt 1 view .LVU48
 158              		.loc 1 396 21 is_stmt 0 view .LVU49
 159 0066 0025     		movs	r5, #0
 160              	.LVL14:
 161              		.loc 1 396 21 view .LVU50
 162 0068 A570     		strb	r5, [r4, #2]
ARM GAS  C:\Users\hh\AppData\Local\Temp\ccD83nHD.s 			page 11


 163 006a E570     		strb	r5, [r4, #3]
 397:Middlewares/Third_Party/LwIP/src/core/ipv4/icmp.c **** #if CHECKSUM_GEN_ICMP
 398:Middlewares/Third_Party/LwIP/src/core/ipv4/icmp.c ****     IF__NETIF_CHECKSUM_ENABLED(netif, NETIF_CHECKSUM_GEN_ICMP) {
 399:Middlewares/Third_Party/LwIP/src/core/ipv4/icmp.c ****       icmphdr->chksum = inet_chksum(icmphdr, q->len);
 164              		.loc 1 399 7 is_stmt 1 view .LVU51
 165              		.loc 1 399 25 is_stmt 0 view .LVU52
 166 006c 7189     		ldrh	r1, [r6, #10]
 167 006e 2046     		mov	r0, r4
 168              	.LVL15:
 169              		.loc 1 399 25 view .LVU53
 170 0070 FFF7FEFF 		bl	inet_chksum
 171              	.LVL16:
 172              		.loc 1 399 23 discriminator 1 view .LVU54
 173 0074 6080     		strh	r0, [r4, #2]	@ unaligned
 400:Middlewares/Third_Party/LwIP/src/core/ipv4/icmp.c ****     }
 401:Middlewares/Third_Party/LwIP/src/core/ipv4/icmp.c **** #endif
 402:Middlewares/Third_Party/LwIP/src/core/ipv4/icmp.c ****     ICMP_STATS_INC(icmp.xmit);
 174              		.loc 1 402 30 is_stmt 1 view .LVU55
 403:Middlewares/Third_Party/LwIP/src/core/ipv4/icmp.c ****     ip4_output_if(q, NULL, &iphdr_src, ICMP_TTL, 0, IP_PROTO_ICMP, netif);
 175              		.loc 1 403 5 view .LVU56
 176 0076 0297     		str	r7, [sp, #8]
 177 0078 0123     		movs	r3, #1
 178 007a 0193     		str	r3, [sp, #4]
 179 007c 0095     		str	r5, [sp]
 180 007e FF23     		movs	r3, #255
 181 0080 07AA     		add	r2, sp, #28
 182 0082 2946     		mov	r1, r5
 183 0084 3046     		mov	r0, r6
 184 0086 FFF7FEFF 		bl	ip4_output_if
 185              	.LVL17:
 186              	.L6:
 404:Middlewares/Third_Party/LwIP/src/core/ipv4/icmp.c ****   }
 405:Middlewares/Third_Party/LwIP/src/core/ipv4/icmp.c ****   pbuf_free(q);
 187              		.loc 1 405 3 view .LVU57
 188 008a 3046     		mov	r0, r6
 189 008c FFF7FEFF 		bl	pbuf_free
 190              	.LVL18:
 191              	.L1:
 406:Middlewares/Third_Party/LwIP/src/core/ipv4/icmp.c **** }
 192              		.loc 1 406 1 is_stmt 0 view .LVU58
 193 0090 09B0     		add	sp, sp, #36
 194              	.LCFI2:
 195              		.cfi_remember_state
 196              		.cfi_def_cfa_offset 28
 197              		@ sp needed
 198 0092 BDE8F083 		pop	{r4, r5, r6, r7, r8, r9, pc}
 199              	.LVL19:
 200              	.L8:
 201              	.LCFI3:
 202              		.cfi_restore_state
 366:Middlewares/Third_Party/LwIP/src/core/ipv4/icmp.c ****               (q->len >= (sizeof(struct icmp_hdr) + response_pkt_len)));
 203              		.loc 1 366 3 is_stmt 1 discriminator 1 view .LVU59
 366:Middlewares/Third_Party/LwIP/src/core/ipv4/icmp.c ****               (q->len >= (sizeof(struct icmp_hdr) + response_pkt_len)));
 204              		.loc 1 366 3 discriminator 1 view .LVU60
 205 0096 044B     		ldr	r3, .L9
 206 0098 4FF4B772 		mov	r2, #366
 207 009c 0349     		ldr	r1, .L9+4
ARM GAS  C:\Users\hh\AppData\Local\Temp\ccD83nHD.s 			page 12


 208 009e 0448     		ldr	r0, .L9+8
 209              	.LVL20:
 366:Middlewares/Third_Party/LwIP/src/core/ipv4/icmp.c ****               (q->len >= (sizeof(struct icmp_hdr) + response_pkt_len)));
 210              		.loc 1 366 3 is_stmt 0 discriminator 1 view .LVU61
 211 00a0 FFF7FEFF 		bl	printf
 212              	.LVL21:
 213 00a4 C5E7     		b	.L5
 214              	.L10:
 215 00a6 00BF     		.align	2
 216              	.L9:
 217 00a8 00000000 		.word	.LC0
 218 00ac 34000000 		.word	.LC1
 219 00b0 60000000 		.word	.LC2
 220              		.cfi_endproc
 221              	.LFE175:
 223              		.section	.rodata.icmp_input.str1.4,"aMS",%progbits,1
 224              		.align	2
 225              	.LC3:
 226 0000 69636D70 		.ascii	"icmp_input: moving r->payload to icmp header failed"
 226      5F696E70 
 226      75743A20 
 226      6D6F7669 
 226      6E672072 
 227 0033 00       		.ascii	"\000"
 228              		.align	2
 229              	.LC4:
 230 0034 69636D70 		.ascii	"icmp_input: restoring original p->payload failed\000"
 230      5F696E70 
 230      75743A20 
 230      72657374 
 230      6F72696E 
 231              		.section	.text.icmp_input,"ax",%progbits
 232              		.align	1
 233              		.global	icmp_input
 234              		.syntax unified
 235              		.thumb
 236              		.thumb_func
 238              	icmp_input:
 239              	.LVL22:
 240              	.LFB172:
  81:Middlewares/Third_Party/LwIP/src/core/ipv4/icmp.c ****   u8_t type;
 241              		.loc 1 81 1 is_stmt 1 view -0
 242              		.cfi_startproc
 243              		@ args = 0, pretend = 0, frame = 0
 244              		@ frame_needed = 0, uses_anonymous_args = 0
  81:Middlewares/Third_Party/LwIP/src/core/ipv4/icmp.c ****   u8_t type;
 245              		.loc 1 81 1 is_stmt 0 view .LVU63
 246 0000 2DE9F041 		push	{r4, r5, r6, r7, r8, lr}
 247              	.LCFI4:
 248              		.cfi_def_cfa_offset 24
 249              		.cfi_offset 4, -24
 250              		.cfi_offset 5, -20
 251              		.cfi_offset 6, -16
 252              		.cfi_offset 7, -12
 253              		.cfi_offset 8, -8
 254              		.cfi_offset 14, -4
 255 0004 84B0     		sub	sp, sp, #16
ARM GAS  C:\Users\hh\AppData\Local\Temp\ccD83nHD.s 			page 13


 256              	.LCFI5:
 257              		.cfi_def_cfa_offset 40
 258 0006 0546     		mov	r5, r0
  82:Middlewares/Third_Party/LwIP/src/core/ipv4/icmp.c **** #ifdef LWIP_DEBUG
 259              		.loc 1 82 3 is_stmt 1 view .LVU64
  86:Middlewares/Third_Party/LwIP/src/core/ipv4/icmp.c ****   const struct ip_hdr *iphdr_in;
 260              		.loc 1 86 3 view .LVU65
  87:Middlewares/Third_Party/LwIP/src/core/ipv4/icmp.c ****   u16_t hlen;
 261              		.loc 1 87 3 view .LVU66
  88:Middlewares/Third_Party/LwIP/src/core/ipv4/icmp.c ****   const ip4_addr_t *src;
 262              		.loc 1 88 3 view .LVU67
  89:Middlewares/Third_Party/LwIP/src/core/ipv4/icmp.c **** 
 263              		.loc 1 89 3 view .LVU68
  91:Middlewares/Third_Party/LwIP/src/core/ipv4/icmp.c ****   MIB2_STATS_INC(mib2.icmpinmsgs);
 264              		.loc 1 91 28 view .LVU69
  92:Middlewares/Third_Party/LwIP/src/core/ipv4/icmp.c **** 
 265              		.loc 1 92 34 view .LVU70
  94:Middlewares/Third_Party/LwIP/src/core/ipv4/icmp.c ****   hlen = IPH_HL_BYTES(iphdr_in);
 266              		.loc 1 94 3 view .LVU71
  94:Middlewares/Third_Party/LwIP/src/core/ipv4/icmp.c ****   hlen = IPH_HL_BYTES(iphdr_in);
 267              		.loc 1 94 12 is_stmt 0 view .LVU72
 268 0008 524B     		ldr	r3, .L32
 269 000a 9E68     		ldr	r6, [r3, #8]
 270              	.LVL23:
  95:Middlewares/Third_Party/LwIP/src/core/ipv4/icmp.c ****   if (hlen < IP_HLEN) {
 271              		.loc 1 95 3 is_stmt 1 view .LVU73
  95:Middlewares/Third_Party/LwIP/src/core/ipv4/icmp.c ****   if (hlen < IP_HLEN) {
 272              		.loc 1 95 10 is_stmt 0 view .LVU74
 273 000c 3478     		ldrb	r4, [r6]	@ zero_extendqisi2
 274 000e 04F00F04 		and	r4, r4, #15
 275 0012 A400     		lsls	r4, r4, #2
 276              	.LVL24:
  96:Middlewares/Third_Party/LwIP/src/core/ipv4/icmp.c ****     LWIP_DEBUGF(ICMP_DEBUG, ("icmp_input: short IP header (%"S16_F" bytes) received\n", hlen));
 277              		.loc 1 96 3 is_stmt 1 view .LVU75
  96:Middlewares/Third_Party/LwIP/src/core/ipv4/icmp.c ****     LWIP_DEBUGF(ICMP_DEBUG, ("icmp_input: short IP header (%"S16_F" bytes) received\n", hlen));
 278              		.loc 1 96 6 is_stmt 0 view .LVU76
 279 0014 132C     		cmp	r4, #19
 280 0016 16D9     		bls	.L12
 281 0018 0F46     		mov	r7, r1
 100:Middlewares/Third_Party/LwIP/src/core/ipv4/icmp.c ****     LWIP_DEBUGF(ICMP_DEBUG, ("icmp_input: short ICMP (%"U16_F" bytes) received\n", p->tot_len));
 282              		.loc 1 100 3 is_stmt 1 view .LVU77
 100:Middlewares/Third_Party/LwIP/src/core/ipv4/icmp.c ****     LWIP_DEBUGF(ICMP_DEBUG, ("icmp_input: short ICMP (%"U16_F" bytes) received\n", p->tot_len));
 283              		.loc 1 100 8 is_stmt 0 view .LVU78
 284 001a 4389     		ldrh	r3, [r0, #10]
 100:Middlewares/Third_Party/LwIP/src/core/ipv4/icmp.c ****     LWIP_DEBUGF(ICMP_DEBUG, ("icmp_input: short ICMP (%"U16_F" bytes) received\n", p->tot_len));
 285              		.loc 1 100 6 view .LVU79
 286 001c 032B     		cmp	r3, #3
 287 001e 12D9     		bls	.L12
 105:Middlewares/Third_Party/LwIP/src/core/ipv4/icmp.c **** #ifdef LWIP_DEBUG
 288              		.loc 1 105 3 is_stmt 1 view .LVU80
 105:Middlewares/Third_Party/LwIP/src/core/ipv4/icmp.c **** #ifdef LWIP_DEBUG
 289              		.loc 1 105 21 is_stmt 0 view .LVU81
 290 0020 4368     		ldr	r3, [r0, #4]
 105:Middlewares/Third_Party/LwIP/src/core/ipv4/icmp.c **** #ifdef LWIP_DEBUG
 291              		.loc 1 105 8 view .LVU82
 292 0022 1B78     		ldrb	r3, [r3]	@ zero_extendqisi2
 293              	.LVL25:
ARM GAS  C:\Users\hh\AppData\Local\Temp\ccD83nHD.s 			page 14


 111:Middlewares/Third_Party/LwIP/src/core/ipv4/icmp.c ****     case ICMP_ER:
 294              		.loc 1 111 3 is_stmt 1 view .LVU83
 295 0024 082B     		cmp	r3, #8
 296 0026 40F08780 		bne	.L13
 118:Middlewares/Third_Party/LwIP/src/core/ipv4/icmp.c ****       src = ip4_current_dest_addr();
 297              		.loc 1 118 39 view .LVU84
 119:Middlewares/Third_Party/LwIP/src/core/ipv4/icmp.c ****       /* multicast destination address? */
 298              		.loc 1 119 7 view .LVU85
 299              	.LVL26:
 121:Middlewares/Third_Party/LwIP/src/core/ipv4/icmp.c **** #if LWIP_MULTICAST_PING
 300              		.loc 1 121 7 view .LVU86
 121:Middlewares/Third_Party/LwIP/src/core/ipv4/icmp.c **** #if LWIP_MULTICAST_PING
 301              		.loc 1 121 11 is_stmt 0 view .LVU87
 302 002a 4A4B     		ldr	r3, .L32
 303 002c 5869     		ldr	r0, [r3, #20]
 304              	.LVL27:
 121:Middlewares/Third_Party/LwIP/src/core/ipv4/icmp.c **** #if LWIP_MULTICAST_PING
 305              		.loc 1 121 11 view .LVU88
 306 002e 00F0F003 		and	r3, r0, #240
 121:Middlewares/Third_Party/LwIP/src/core/ipv4/icmp.c **** #if LWIP_MULTICAST_PING
 307              		.loc 1 121 10 view .LVU89
 308 0032 E02B     		cmp	r3, #224
 309 0034 1FD0     		beq	.L14
 131:Middlewares/Third_Party/LwIP/src/core/ipv4/icmp.c **** #if LWIP_BROADCAST_PING
 310              		.loc 1 131 7 is_stmt 1 view .LVU90
 131:Middlewares/Third_Party/LwIP/src/core/ipv4/icmp.c **** #if LWIP_BROADCAST_PING
 311              		.loc 1 131 11 is_stmt 0 view .LVU91
 312 0036 474B     		ldr	r3, .L32
 313 0038 1968     		ldr	r1, [r3]
 314              	.LVL28:
 131:Middlewares/Third_Party/LwIP/src/core/ipv4/icmp.c **** #if LWIP_BROADCAST_PING
 315              		.loc 1 131 11 view .LVU92
 316 003a FFF7FEFF 		bl	ip4_addr_isbroadcast_u32
 317              	.LVL29:
 131:Middlewares/Third_Party/LwIP/src/core/ipv4/icmp.c **** #if LWIP_BROADCAST_PING
 318              		.loc 1 131 10 discriminator 1 view .LVU93
 319 003e D0B9     		cbnz	r0, .L14
 140:Middlewares/Third_Party/LwIP/src/core/ipv4/icmp.c ****       if (p->tot_len < sizeof(struct icmp_echo_hdr)) {
 320              		.loc 1 140 54 is_stmt 1 view .LVU94
 141:Middlewares/Third_Party/LwIP/src/core/ipv4/icmp.c ****         LWIP_DEBUGF(ICMP_DEBUG, ("icmp_input: bad ICMP echo received\n"));
 321              		.loc 1 141 7 view .LVU95
 141:Middlewares/Third_Party/LwIP/src/core/ipv4/icmp.c ****         LWIP_DEBUGF(ICMP_DEBUG, ("icmp_input: bad ICMP echo received\n"));
 322              		.loc 1 141 12 is_stmt 0 view .LVU96
 323 0040 2B89     		ldrh	r3, [r5, #8]
 141:Middlewares/Third_Party/LwIP/src/core/ipv4/icmp.c ****         LWIP_DEBUGF(ICMP_DEBUG, ("icmp_input: bad ICMP echo received\n"));
 324              		.loc 1 141 10 view .LVU97
 325 0042 072B     		cmp	r3, #7
 326 0044 05D8     		bhi	.L25
 327              	.LVL30:
 328              	.L12:
 286:Middlewares/Third_Party/LwIP/src/core/ipv4/icmp.c ****   ICMP_STATS_INC(icmp.lenerr);
 329              		.loc 1 286 3 is_stmt 1 view .LVU98
 330 0046 2846     		mov	r0, r5
 331 0048 FFF7FEFF 		bl	pbuf_free
 332              	.LVL31:
 287:Middlewares/Third_Party/LwIP/src/core/ipv4/icmp.c ****   MIB2_STATS_INC(mib2.icmpinerrors);
 333              		.loc 1 287 30 view .LVU99
ARM GAS  C:\Users\hh\AppData\Local\Temp\ccD83nHD.s 			page 15


 288:Middlewares/Third_Party/LwIP/src/core/ipv4/icmp.c ****   return;
 334              		.loc 1 288 36 view .LVU100
 289:Middlewares/Third_Party/LwIP/src/core/ipv4/icmp.c **** #if LWIP_ICMP_ECHO_CHECK_INPUT_PBUF_LEN || !LWIP_MULTICAST_PING || !LWIP_BROADCAST_PING
 335              		.loc 1 289 3 view .LVU101
 336              	.L11:
 297:Middlewares/Third_Party/LwIP/src/core/ipv4/icmp.c **** 
 337              		.loc 1 297 1 is_stmt 0 view .LVU102
 338 004c 04B0     		add	sp, sp, #16
 339              	.LCFI6:
 340              		.cfi_remember_state
 341              		.cfi_def_cfa_offset 24
 342              		@ sp needed
 343 004e BDE8F081 		pop	{r4, r5, r6, r7, r8, pc}
 344              	.LVL32:
 345              	.L25:
 346              	.LCFI7:
 347              		.cfi_restore_state
 147:Middlewares/Third_Party/LwIP/src/core/ipv4/icmp.c ****           LWIP_DEBUGF(ICMP_DEBUG, ("icmp_input: checksum failed for received ICMP echo\n"));
 348              		.loc 1 147 9 is_stmt 1 view .LVU103
 147:Middlewares/Third_Party/LwIP/src/core/ipv4/icmp.c ****           LWIP_DEBUGF(ICMP_DEBUG, ("icmp_input: checksum failed for received ICMP echo\n"));
 349              		.loc 1 147 13 is_stmt 0 view .LVU104
 350 0052 2846     		mov	r0, r5
 351 0054 FFF7FEFF 		bl	inet_chksum_pbuf
 352              	.LVL33:
 147:Middlewares/Third_Party/LwIP/src/core/ipv4/icmp.c ****           LWIP_DEBUGF(ICMP_DEBUG, ("icmp_input: checksum failed for received ICMP echo\n"));
 353              		.loc 1 147 12 discriminator 1 view .LVU105
 354 0058 88B9     		cbnz	r0, .L26
 157:Middlewares/Third_Party/LwIP/src/core/ipv4/icmp.c ****         /* p is not big enough to contain link headers
 355              		.loc 1 157 7 is_stmt 1 view .LVU106
 157:Middlewares/Third_Party/LwIP/src/core/ipv4/icmp.c ****         /* p is not big enough to contain link headers
 356              		.loc 1 157 52 is_stmt 0 view .LVU107
 357 005a 04F10E03 		add	r3, r4, #14
 358 005e 9846     		mov	r8, r3
 157:Middlewares/Third_Party/LwIP/src/core/ipv4/icmp.c ****         /* p is not big enough to contain link headers
 359              		.loc 1 157 11 view .LVU108
 360 0060 1946     		mov	r1, r3
 361 0062 2846     		mov	r0, r5
 362 0064 FFF7FEFF 		bl	pbuf_add_header
 363              	.LVL34:
 157:Middlewares/Third_Party/LwIP/src/core/ipv4/icmp.c ****         /* p is not big enough to contain link headers
 364              		.loc 1 157 10 discriminator 1 view .LVU109
 365 0068 0028     		cmp	r0, #0
 366 006a 3ED0     		beq	.L17
 367              	.LBB2:
 161:Middlewares/Third_Party/LwIP/src/core/ipv4/icmp.c ****         u16_t alloc_len = (u16_t)(p->tot_len + hlen);
 368              		.loc 1 161 9 is_stmt 1 view .LVU110
 162:Middlewares/Third_Party/LwIP/src/core/ipv4/icmp.c ****         if (alloc_len < p->tot_len) {
 369              		.loc 1 162 9 view .LVU111
 162:Middlewares/Third_Party/LwIP/src/core/ipv4/icmp.c ****         if (alloc_len < p->tot_len) {
 370              		.loc 1 162 36 is_stmt 0 view .LVU112
 371 006c 2B89     		ldrh	r3, [r5, #8]
 162:Middlewares/Third_Party/LwIP/src/core/ipv4/icmp.c ****         if (alloc_len < p->tot_len) {
 372              		.loc 1 162 15 view .LVU113
 373 006e 1919     		adds	r1, r3, r4
 374 0070 89B2     		uxth	r1, r1
 375              	.LVL35:
 163:Middlewares/Third_Party/LwIP/src/core/ipv4/icmp.c ****           LWIP_DEBUGF(ICMP_DEBUG, ("icmp_input: allocating new pbuf failed (tot_len overflow)\n"));
ARM GAS  C:\Users\hh\AppData\Local\Temp\ccD83nHD.s 			page 16


 376              		.loc 1 163 9 is_stmt 1 view .LVU114
 163:Middlewares/Third_Party/LwIP/src/core/ipv4/icmp.c ****           LWIP_DEBUGF(ICMP_DEBUG, ("icmp_input: allocating new pbuf failed (tot_len overflow)\n"));
 377              		.loc 1 163 12 is_stmt 0 view .LVU115
 378 0072 8B42     		cmp	r3, r1
 379 0074 07D9     		bls	.L27
 380              	.LVL36:
 381              	.L14:
 163:Middlewares/Third_Party/LwIP/src/core/ipv4/icmp.c ****           LWIP_DEBUGF(ICMP_DEBUG, ("icmp_input: allocating new pbuf failed (tot_len overflow)\n"));
 382              		.loc 1 163 12 view .LVU116
 383              	.LBE2:
 292:Middlewares/Third_Party/LwIP/src/core/ipv4/icmp.c ****   ICMP_STATS_INC(icmp.err);
 384              		.loc 1 292 3 is_stmt 1 view .LVU117
 385 0076 2846     		mov	r0, r5
 386 0078 FFF7FEFF 		bl	pbuf_free
 387              	.LVL37:
 293:Middlewares/Third_Party/LwIP/src/core/ipv4/icmp.c ****   MIB2_STATS_INC(mib2.icmpinerrors);
 388              		.loc 1 293 27 view .LVU118
 294:Middlewares/Third_Party/LwIP/src/core/ipv4/icmp.c ****   return;
 389              		.loc 1 294 36 view .LVU119
 295:Middlewares/Third_Party/LwIP/src/core/ipv4/icmp.c **** #endif /* LWIP_ICMP_ECHO_CHECK_INPUT_PBUF_LEN || !LWIP_MULTICAST_PING || !LWIP_BROADCAST_PING */
 390              		.loc 1 295 3 view .LVU120
 391 007c E6E7     		b	.L11
 392              	.L26:
 148:Middlewares/Third_Party/LwIP/src/core/ipv4/icmp.c ****           pbuf_free(p);
 393              		.loc 1 148 92 view .LVU121
 149:Middlewares/Third_Party/LwIP/src/core/ipv4/icmp.c ****           ICMP_STATS_INC(icmp.chkerr);
 394              		.loc 1 149 11 view .LVU122
 395 007e 2846     		mov	r0, r5
 396 0080 FFF7FEFF 		bl	pbuf_free
 397              	.LVL38:
 150:Middlewares/Third_Party/LwIP/src/core/ipv4/icmp.c ****           MIB2_STATS_INC(mib2.icmpinerrors);
 398              		.loc 1 150 38 view .LVU123
 151:Middlewares/Third_Party/LwIP/src/core/ipv4/icmp.c ****           return;
 399              		.loc 1 151 44 view .LVU124
 152:Middlewares/Third_Party/LwIP/src/core/ipv4/icmp.c ****         }
 400              		.loc 1 152 11 view .LVU125
 401 0084 E2E7     		b	.L11
 402              	.LVL39:
 403              	.L27:
 404              	.LBB3:
 168:Middlewares/Third_Party/LwIP/src/core/ipv4/icmp.c ****         if (r == NULL) {
 405              		.loc 1 168 9 view .LVU126
 168:Middlewares/Third_Party/LwIP/src/core/ipv4/icmp.c ****         if (r == NULL) {
 406              		.loc 1 168 13 is_stmt 0 view .LVU127
 407 0086 4FF42072 		mov	r2, #640
 408 008a 0E20     		movs	r0, #14
 409 008c FFF7FEFF 		bl	pbuf_alloc
 410              	.LVL40:
 169:Middlewares/Third_Party/LwIP/src/core/ipv4/icmp.c ****           LWIP_DEBUGF(ICMP_DEBUG, ("icmp_input: allocating new pbuf failed\n"));
 411              		.loc 1 169 9 is_stmt 1 view .LVU128
 169:Middlewares/Third_Party/LwIP/src/core/ipv4/icmp.c ****           LWIP_DEBUGF(ICMP_DEBUG, ("icmp_input: allocating new pbuf failed\n"));
 412              		.loc 1 169 12 is_stmt 0 view .LVU129
 413 0090 8046     		mov	r8, r0
 414 0092 0028     		cmp	r0, #0
 415 0094 EFD0     		beq	.L14
 173:Middlewares/Third_Party/LwIP/src/core/ipv4/icmp.c ****           LWIP_DEBUGF(ICMP_DEBUG | LWIP_DBG_LEVEL_SERIOUS, ("first pbuf cannot hold the ICMP header
 416              		.loc 1 173 9 is_stmt 1 view .LVU130
ARM GAS  C:\Users\hh\AppData\Local\Temp\ccD83nHD.s 			page 17


 173:Middlewares/Third_Party/LwIP/src/core/ipv4/icmp.c ****           LWIP_DEBUGF(ICMP_DEBUG | LWIP_DBG_LEVEL_SERIOUS, ("first pbuf cannot hold the ICMP header
 417              		.loc 1 173 14 is_stmt 0 view .LVU131
 418 0096 4289     		ldrh	r2, [r0, #10]
 173:Middlewares/Third_Party/LwIP/src/core/ipv4/icmp.c ****           LWIP_DEBUGF(ICMP_DEBUG | LWIP_DBG_LEVEL_SERIOUS, ("first pbuf cannot hold the ICMP header
 419              		.loc 1 173 27 view .LVU132
 420 0098 04F10803 		add	r3, r4, #8
 173:Middlewares/Third_Party/LwIP/src/core/ipv4/icmp.c ****           LWIP_DEBUGF(ICMP_DEBUG | LWIP_DBG_LEVEL_SERIOUS, ("first pbuf cannot hold the ICMP header
 421              		.loc 1 173 12 view .LVU133
 422 009c 9A42     		cmp	r2, r3
 423 009e 13D3     		bcc	.L28
 179:Middlewares/Third_Party/LwIP/src/core/ipv4/icmp.c ****         /* switch r->payload back to icmp header (cannot fail) */
 424              		.loc 1 179 9 is_stmt 1 view .LVU134
 425 00a0 2246     		mov	r2, r4
 426 00a2 3146     		mov	r1, r6
 427 00a4 4068     		ldr	r0, [r0, #4]
 428              	.LVL41:
 179:Middlewares/Third_Party/LwIP/src/core/ipv4/icmp.c ****         /* switch r->payload back to icmp header (cannot fail) */
 429              		.loc 1 179 9 is_stmt 0 view .LVU135
 430 00a6 FFF7FEFF 		bl	memcpy
 431              	.LVL42:
 181:Middlewares/Third_Party/LwIP/src/core/ipv4/icmp.c ****           LWIP_ASSERT("icmp_input: moving r->payload to icmp header failed", 0);
 432              		.loc 1 181 9 is_stmt 1 view .LVU136
 181:Middlewares/Third_Party/LwIP/src/core/ipv4/icmp.c ****           LWIP_ASSERT("icmp_input: moving r->payload to icmp header failed", 0);
 433              		.loc 1 181 13 is_stmt 0 view .LVU137
 434 00aa 2146     		mov	r1, r4
 435 00ac 4046     		mov	r0, r8
 436 00ae FFF7FEFF 		bl	pbuf_remove_header
 437              	.LVL43:
 181:Middlewares/Third_Party/LwIP/src/core/ipv4/icmp.c ****           LWIP_ASSERT("icmp_input: moving r->payload to icmp header failed", 0);
 438              		.loc 1 181 12 discriminator 1 view .LVU138
 439 00b2 60B9     		cbnz	r0, .L29
 187:Middlewares/Third_Party/LwIP/src/core/ipv4/icmp.c ****           LWIP_DEBUGF(ICMP_DEBUG | LWIP_DBG_LEVEL_SERIOUS, ("icmp_input: copying to new pbuf failed
 440              		.loc 1 187 9 is_stmt 1 view .LVU139
 187:Middlewares/Third_Party/LwIP/src/core/ipv4/icmp.c ****           LWIP_DEBUGF(ICMP_DEBUG | LWIP_DBG_LEVEL_SERIOUS, ("icmp_input: copying to new pbuf failed
 441              		.loc 1 187 13 is_stmt 0 view .LVU140
 442 00b4 2946     		mov	r1, r5
 443 00b6 4046     		mov	r0, r8
 444 00b8 FFF7FEFF 		bl	pbuf_copy
 445              	.LVL44:
 187:Middlewares/Third_Party/LwIP/src/core/ipv4/icmp.c ****           LWIP_DEBUGF(ICMP_DEBUG | LWIP_DBG_LEVEL_SERIOUS, ("icmp_input: copying to new pbuf failed
 446              		.loc 1 187 12 discriminator 1 view .LVU141
 447 00bc 88B9     		cbnz	r0, .L30
 193:Middlewares/Third_Party/LwIP/src/core/ipv4/icmp.c ****         /* we now have an identical copy of p that has room for link headers */
 448              		.loc 1 193 9 is_stmt 1 view .LVU142
 449 00be 2846     		mov	r0, r5
 450 00c0 FFF7FEFF 		bl	pbuf_free
 451              	.LVL45:
 195:Middlewares/Third_Party/LwIP/src/core/ipv4/icmp.c ****       } else {
 452              		.loc 1 195 9 view .LVU143
 195:Middlewares/Third_Party/LwIP/src/core/ipv4/icmp.c ****       } else {
 453              		.loc 1 195 11 is_stmt 0 view .LVU144
 454 00c4 4546     		mov	r5, r8
 455              	.LBE3:
 456 00c6 15E0     		b	.L21
 457              	.LVL46:
 458              	.L28:
 459              	.LBB4:
ARM GAS  C:\Users\hh\AppData\Local\Temp\ccD83nHD.s 			page 18


 174:Middlewares/Third_Party/LwIP/src/core/ipv4/icmp.c ****           pbuf_free(r);
 460              		.loc 1 174 105 is_stmt 1 view .LVU145
 175:Middlewares/Third_Party/LwIP/src/core/ipv4/icmp.c ****           goto icmperr;
 461              		.loc 1 175 11 view .LVU146
 462 00c8 FFF7FEFF 		bl	pbuf_free
 463              	.LVL47:
 176:Middlewares/Third_Party/LwIP/src/core/ipv4/icmp.c ****         }
 464              		.loc 1 176 11 view .LVU147
 465 00cc D3E7     		b	.L14
 466              	.L29:
 182:Middlewares/Third_Party/LwIP/src/core/ipv4/icmp.c ****           pbuf_free(r);
 467              		.loc 1 182 11 view .LVU148
 182:Middlewares/Third_Party/LwIP/src/core/ipv4/icmp.c ****           pbuf_free(r);
 468              		.loc 1 182 11 view .LVU149
 182:Middlewares/Third_Party/LwIP/src/core/ipv4/icmp.c ****           pbuf_free(r);
 469              		.loc 1 182 11 discriminator 1 view .LVU150
 182:Middlewares/Third_Party/LwIP/src/core/ipv4/icmp.c ****           pbuf_free(r);
 470              		.loc 1 182 11 discriminator 1 view .LVU151
 471 00ce 224B     		ldr	r3, .L32+4
 472 00d0 B622     		movs	r2, #182
 473 00d2 2249     		ldr	r1, .L32+8
 474 00d4 2248     		ldr	r0, .L32+12
 475 00d6 FFF7FEFF 		bl	printf
 476              	.LVL48:
 182:Middlewares/Third_Party/LwIP/src/core/ipv4/icmp.c ****           pbuf_free(r);
 477              		.loc 1 182 11 view .LVU152
 182:Middlewares/Third_Party/LwIP/src/core/ipv4/icmp.c ****           pbuf_free(r);
 478              		.loc 1 182 11 view .LVU153
 183:Middlewares/Third_Party/LwIP/src/core/ipv4/icmp.c ****           goto icmperr;
 479              		.loc 1 183 11 view .LVU154
 480 00da 4046     		mov	r0, r8
 481 00dc FFF7FEFF 		bl	pbuf_free
 482              	.LVL49:
 184:Middlewares/Third_Party/LwIP/src/core/ipv4/icmp.c ****         }
 483              		.loc 1 184 11 view .LVU155
 484 00e0 C9E7     		b	.L14
 485              	.L30:
 188:Middlewares/Third_Party/LwIP/src/core/ipv4/icmp.c ****           pbuf_free(r);
 486              		.loc 1 188 105 view .LVU156
 189:Middlewares/Third_Party/LwIP/src/core/ipv4/icmp.c ****           goto icmperr;
 487              		.loc 1 189 11 view .LVU157
 488 00e2 4046     		mov	r0, r8
 489 00e4 FFF7FEFF 		bl	pbuf_free
 490              	.LVL50:
 190:Middlewares/Third_Party/LwIP/src/core/ipv4/icmp.c ****         }
 491              		.loc 1 190 11 view .LVU158
 492 00e8 C5E7     		b	.L14
 493              	.LVL51:
 494              	.L17:
 190:Middlewares/Third_Party/LwIP/src/core/ipv4/icmp.c ****         }
 495              		.loc 1 190 11 is_stmt 0 view .LVU159
 496              	.LBE4:
 198:Middlewares/Third_Party/LwIP/src/core/ipv4/icmp.c ****           LWIP_ASSERT("icmp_input: restoring original p->payload failed", 0);
 497              		.loc 1 198 9 is_stmt 1 view .LVU160
 198:Middlewares/Third_Party/LwIP/src/core/ipv4/icmp.c ****           LWIP_ASSERT("icmp_input: restoring original p->payload failed", 0);
 498              		.loc 1 198 13 is_stmt 0 view .LVU161
 499 00ea 4146     		mov	r1, r8
ARM GAS  C:\Users\hh\AppData\Local\Temp\ccD83nHD.s 			page 19


 500 00ec 2846     		mov	r0, r5
 501 00ee FFF7FEFF 		bl	pbuf_remove_header
 502              	.LVL52:
 198:Middlewares/Third_Party/LwIP/src/core/ipv4/icmp.c ****           LWIP_ASSERT("icmp_input: restoring original p->payload failed", 0);
 503              		.loc 1 198 12 discriminator 1 view .LVU162
 504 00f2 28BB     		cbnz	r0, .L31
 505              	.L21:
 207:Middlewares/Third_Party/LwIP/src/core/ipv4/icmp.c ****       if (pbuf_add_header(p, hlen)) {
 506              		.loc 1 207 7 is_stmt 1 view .LVU163
 207:Middlewares/Third_Party/LwIP/src/core/ipv4/icmp.c ****       if (pbuf_add_header(p, hlen)) {
 507              		.loc 1 207 13 is_stmt 0 view .LVU164
 508 00f4 6E68     		ldr	r6, [r5, #4]
 509              	.LVL53:
 208:Middlewares/Third_Party/LwIP/src/core/ipv4/icmp.c ****         LWIP_DEBUGF(ICMP_DEBUG | LWIP_DBG_LEVEL_SERIOUS, ("Can't move over header in packet\n"));
 510              		.loc 1 208 7 is_stmt 1 view .LVU165
 208:Middlewares/Third_Party/LwIP/src/core/ipv4/icmp.c ****         LWIP_DEBUGF(ICMP_DEBUG | LWIP_DBG_LEVEL_SERIOUS, ("Can't move over header in packet\n"));
 511              		.loc 1 208 11 is_stmt 0 view .LVU166
 512 00f6 2146     		mov	r1, r4
 513 00f8 2846     		mov	r0, r5
 514 00fa FFF7FEFF 		bl	pbuf_add_header
 515              	.LVL54:
 208:Middlewares/Third_Party/LwIP/src/core/ipv4/icmp.c ****         LWIP_DEBUGF(ICMP_DEBUG | LWIP_DBG_LEVEL_SERIOUS, ("Can't move over header in packet\n"));
 516              		.loc 1 208 10 discriminator 1 view .LVU167
 517 00fe D8B9     		cbnz	r0, .L13
 518              	.LBB5:
 211:Middlewares/Third_Party/LwIP/src/core/ipv4/icmp.c ****         struct ip_hdr *iphdr = (struct ip_hdr *)p->payload;
 519              		.loc 1 211 9 is_stmt 1 view .LVU168
 212:Middlewares/Third_Party/LwIP/src/core/ipv4/icmp.c ****         ip4_addr_copy(iphdr->src, *src);
 520              		.loc 1 212 9 view .LVU169
 212:Middlewares/Third_Party/LwIP/src/core/ipv4/icmp.c ****         ip4_addr_copy(iphdr->src, *src);
 521              		.loc 1 212 24 is_stmt 0 view .LVU170
 522 0100 6968     		ldr	r1, [r5, #4]
 523              	.LVL55:
 213:Middlewares/Third_Party/LwIP/src/core/ipv4/icmp.c ****         ip4_addr_copy(iphdr->dest, *ip4_current_src_addr());
 524              		.loc 1 213 9 is_stmt 1 view .LVU171
 525 0102 144B     		ldr	r3, .L32
 526 0104 5A69     		ldr	r2, [r3, #20]
 527 0106 CA60     		str	r2, [r1, #12]	@ unaligned
 214:Middlewares/Third_Party/LwIP/src/core/ipv4/icmp.c ****         ICMPH_TYPE_SET(iecho, ICMP_ER);
 528              		.loc 1 214 9 view .LVU172
 529 0108 1B69     		ldr	r3, [r3, #16]
 530 010a 0B61     		str	r3, [r1, #16]	@ unaligned
 215:Middlewares/Third_Party/LwIP/src/core/ipv4/icmp.c ****         p->if_idx = NETIF_NO_INDEX; /* we're reusing this pbuf, so reset its if_idx */
 531              		.loc 1 215 9 view .LVU173
 532 010c 3070     		strb	r0, [r6]
 216:Middlewares/Third_Party/LwIP/src/core/ipv4/icmp.c **** #if CHECKSUM_GEN_ICMP
 533              		.loc 1 216 9 view .LVU174
 216:Middlewares/Third_Party/LwIP/src/core/ipv4/icmp.c **** #if CHECKSUM_GEN_ICMP
 534              		.loc 1 216 19 is_stmt 0 view .LVU175
 535 010e E873     		strb	r0, [r5, #15]
 220:Middlewares/Third_Party/LwIP/src/core/ipv4/icmp.c ****             iecho->chksum = (u16_t)(iecho->chksum + PP_HTONS((u16_t)(ICMP_ECHO << 8)) + 1);
 536              		.loc 1 220 11 is_stmt 1 view .LVU176
 220:Middlewares/Third_Party/LwIP/src/core/ipv4/icmp.c ****             iecho->chksum = (u16_t)(iecho->chksum + PP_HTONS((u16_t)(ICMP_ECHO << 8)) + 1);
 537              		.loc 1 220 20 is_stmt 0 view .LVU177
 538 0110 7388     		ldrh	r3, [r6, #2]	@ unaligned
 220:Middlewares/Third_Party/LwIP/src/core/ipv4/icmp.c ****             iecho->chksum = (u16_t)(iecho->chksum + PP_HTONS((u16_t)(ICMP_ECHO << 8)) + 1);
 539              		.loc 1 220 14 view .LVU178
ARM GAS  C:\Users\hh\AppData\Local\Temp\ccD83nHD.s 			page 20


 540 0112 4FF6F772 		movw	r2, #65527
 541 0116 9342     		cmp	r3, r2
 542 0118 19D9     		bls	.L22
 221:Middlewares/Third_Party/LwIP/src/core/ipv4/icmp.c ****           } else {
 543              		.loc 1 221 13 is_stmt 1 view .LVU179
 221:Middlewares/Third_Party/LwIP/src/core/ipv4/icmp.c ****           } else {
 544              		.loc 1 221 29 is_stmt 0 view .LVU180
 545 011a 0933     		adds	r3, r3, #9
 221:Middlewares/Third_Party/LwIP/src/core/ipv4/icmp.c ****           } else {
 546              		.loc 1 221 27 view .LVU181
 547 011c 7380     		strh	r3, [r6, #2]	@ unaligned
 548              	.L23:
 236:Middlewares/Third_Party/LwIP/src/core/ipv4/icmp.c ****         IPH_CHKSUM_SET(iphdr, 0);
 549              		.loc 1 236 9 is_stmt 1 view .LVU182
 550 011e FF23     		movs	r3, #255
 551 0120 0B72     		strb	r3, [r1, #8]
 237:Middlewares/Third_Party/LwIP/src/core/ipv4/icmp.c **** #if CHECKSUM_GEN_IP
 552              		.loc 1 237 9 view .LVU183
 553 0122 0022     		movs	r2, #0
 554 0124 8A72     		strb	r2, [r1, #10]
 555 0126 CA72     		strb	r2, [r1, #11]
 244:Middlewares/Third_Party/LwIP/src/core/ipv4/icmp.c ****         /* increase number of messages attempted to send */
 556              		.loc 1 244 34 view .LVU184
 246:Middlewares/Third_Party/LwIP/src/core/ipv4/icmp.c ****         /* increase number of echo replies attempted to send */
 557              		.loc 1 246 41 view .LVU185
 248:Middlewares/Third_Party/LwIP/src/core/ipv4/icmp.c **** 
 558              		.loc 1 248 45 view .LVU186
 251:Middlewares/Third_Party/LwIP/src/core/ipv4/icmp.c ****                             ICMP_TTL, 0, IP_PROTO_ICMP, inp);
 559              		.loc 1 251 9 view .LVU187
 251:Middlewares/Third_Party/LwIP/src/core/ipv4/icmp.c ****                             ICMP_TTL, 0, IP_PROTO_ICMP, inp);
 560              		.loc 1 251 15 is_stmt 0 view .LVU188
 561 0128 0297     		str	r7, [sp, #8]
 562 012a 0121     		movs	r1, #1
 563              	.LVL56:
 251:Middlewares/Third_Party/LwIP/src/core/ipv4/icmp.c ****                             ICMP_TTL, 0, IP_PROTO_ICMP, inp);
 564              		.loc 1 251 15 view .LVU189
 565 012c 0191     		str	r1, [sp, #4]
 566 012e 0092     		str	r2, [sp]
 567 0130 0C49     		ldr	r1, .L32+16
 568              	.LVL57:
 251:Middlewares/Third_Party/LwIP/src/core/ipv4/icmp.c ****                             ICMP_TTL, 0, IP_PROTO_ICMP, inp);
 569              		.loc 1 251 15 view .LVU190
 570 0132 2846     		mov	r0, r5
 571 0134 FFF7FEFF 		bl	ip4_output_if
 572              	.LVL58:
 253:Middlewares/Third_Party/LwIP/src/core/ipv4/icmp.c ****           LWIP_DEBUGF(ICMP_DEBUG, ("icmp_input: ip_output_if returned an error: %s\n", lwip_strerr(
 573              		.loc 1 253 9 is_stmt 1 view .LVU191
 574              	.L13:
 253:Middlewares/Third_Party/LwIP/src/core/ipv4/icmp.c ****           LWIP_DEBUGF(ICMP_DEBUG, ("icmp_input: ip_output_if returned an error: %s\n", lwip_strerr(
 575              		.loc 1 253 9 is_stmt 0 view .LVU192
 576              	.LBE5:
 276:Middlewares/Third_Party/LwIP/src/core/ipv4/icmp.c ****       }
 577              		.loc 1 276 48 is_stmt 1 view .LVU193
 279:Middlewares/Third_Party/LwIP/src/core/ipv4/icmp.c ****       ICMP_STATS_INC(icmp.proterr);
 578              		.loc 1 279 58 view .LVU194
 280:Middlewares/Third_Party/LwIP/src/core/ipv4/icmp.c ****       ICMP_STATS_INC(icmp.drop);
 579              		.loc 1 280 35 view .LVU195
ARM GAS  C:\Users\hh\AppData\Local\Temp\ccD83nHD.s 			page 21


 281:Middlewares/Third_Party/LwIP/src/core/ipv4/icmp.c ****   }
 580              		.loc 1 281 32 view .LVU196
 283:Middlewares/Third_Party/LwIP/src/core/ipv4/icmp.c ****   return;
 581              		.loc 1 283 3 view .LVU197
 582 0138 2846     		mov	r0, r5
 583 013a FFF7FEFF 		bl	pbuf_free
 584              	.LVL59:
 284:Middlewares/Third_Party/LwIP/src/core/ipv4/icmp.c **** lenerr:
 585              		.loc 1 284 3 view .LVU198
 586 013e 85E7     		b	.L11
 587              	.LVL60:
 588              	.L31:
 199:Middlewares/Third_Party/LwIP/src/core/ipv4/icmp.c ****           goto icmperr;
 589              		.loc 1 199 11 view .LVU199
 199:Middlewares/Third_Party/LwIP/src/core/ipv4/icmp.c ****           goto icmperr;
 590              		.loc 1 199 11 view .LVU200
 199:Middlewares/Third_Party/LwIP/src/core/ipv4/icmp.c ****           goto icmperr;
 591              		.loc 1 199 11 discriminator 1 view .LVU201
 199:Middlewares/Third_Party/LwIP/src/core/ipv4/icmp.c ****           goto icmperr;
 592              		.loc 1 199 11 discriminator 1 view .LVU202
 593 0140 054B     		ldr	r3, .L32+4
 594 0142 C722     		movs	r2, #199
 595 0144 0849     		ldr	r1, .L32+20
 596 0146 0648     		ldr	r0, .L32+12
 597 0148 FFF7FEFF 		bl	printf
 598              	.LVL61:
 199:Middlewares/Third_Party/LwIP/src/core/ipv4/icmp.c ****           goto icmperr;
 599              		.loc 1 199 11 view .LVU203
 199:Middlewares/Third_Party/LwIP/src/core/ipv4/icmp.c ****           goto icmperr;
 600              		.loc 1 199 11 view .LVU204
 200:Middlewares/Third_Party/LwIP/src/core/ipv4/icmp.c ****         }
 601              		.loc 1 200 11 view .LVU205
 602 014c 93E7     		b	.L14
 603              	.LVL62:
 604              	.L22:
 605              	.LBB6:
 223:Middlewares/Third_Party/LwIP/src/core/ipv4/icmp.c ****           }
 606              		.loc 1 223 13 view .LVU206
 223:Middlewares/Third_Party/LwIP/src/core/ipv4/icmp.c ****           }
 607              		.loc 1 223 29 is_stmt 0 view .LVU207
 608 014e 0833     		adds	r3, r3, #8
 223:Middlewares/Third_Party/LwIP/src/core/ipv4/icmp.c ****           }
 609              		.loc 1 223 27 view .LVU208
 610 0150 7380     		strh	r3, [r6, #2]	@ unaligned
 611 0152 E4E7     		b	.L23
 612              	.L33:
 613              		.align	2
 614              	.L32:
 615 0154 00000000 		.word	ip_data
 616 0158 00000000 		.word	.LC0
 617 015c 00000000 		.word	.LC3
 618 0160 60000000 		.word	.LC2
 619 0164 14000000 		.word	ip_data+20
 620 0168 34000000 		.word	.LC4
 621              	.LBE6:
 622              		.cfi_endproc
 623              	.LFE172:
ARM GAS  C:\Users\hh\AppData\Local\Temp\ccD83nHD.s 			page 22


 625              		.section	.text.icmp_dest_unreach,"ax",%progbits
 626              		.align	1
 627              		.global	icmp_dest_unreach
 628              		.syntax unified
 629              		.thumb
 630              		.thumb_func
 632              	icmp_dest_unreach:
 633              	.LVL63:
 634              	.LFB173:
 310:Middlewares/Third_Party/LwIP/src/core/ipv4/icmp.c ****   MIB2_STATS_INC(mib2.icmpoutdestunreachs);
 635              		.loc 1 310 1 is_stmt 1 view -0
 636              		.cfi_startproc
 637              		@ args = 0, pretend = 0, frame = 0
 638              		@ frame_needed = 0, uses_anonymous_args = 0
 310:Middlewares/Third_Party/LwIP/src/core/ipv4/icmp.c ****   MIB2_STATS_INC(mib2.icmpoutdestunreachs);
 639              		.loc 1 310 1 is_stmt 0 view .LVU210
 640 0000 08B5     		push	{r3, lr}
 641              	.LCFI8:
 642              		.cfi_def_cfa_offset 8
 643              		.cfi_offset 3, -8
 644              		.cfi_offset 14, -4
 645 0002 0A46     		mov	r2, r1
 311:Middlewares/Third_Party/LwIP/src/core/ipv4/icmp.c ****   icmp_send_response(p, ICMP_DUR, t);
 646              		.loc 1 311 43 is_stmt 1 view .LVU211
 312:Middlewares/Third_Party/LwIP/src/core/ipv4/icmp.c **** }
 647              		.loc 1 312 3 view .LVU212
 648 0004 0321     		movs	r1, #3
 649              	.LVL64:
 312:Middlewares/Third_Party/LwIP/src/core/ipv4/icmp.c **** }
 650              		.loc 1 312 3 is_stmt 0 view .LVU213
 651 0006 FFF7FEFF 		bl	icmp_send_response
 652              	.LVL65:
 313:Middlewares/Third_Party/LwIP/src/core/ipv4/icmp.c **** 
 653              		.loc 1 313 1 view .LVU214
 654 000a 08BD     		pop	{r3, pc}
 655              		.cfi_endproc
 656              	.LFE173:
 658              		.section	.text.icmp_time_exceeded,"ax",%progbits
 659              		.align	1
 660              		.global	icmp_time_exceeded
 661              		.syntax unified
 662              		.thumb
 663              		.thumb_func
 665              	icmp_time_exceeded:
 666              	.LVL66:
 667              	.LFB174:
 325:Middlewares/Third_Party/LwIP/src/core/ipv4/icmp.c ****   MIB2_STATS_INC(mib2.icmpouttimeexcds);
 668              		.loc 1 325 1 is_stmt 1 view -0
 669              		.cfi_startproc
 670              		@ args = 0, pretend = 0, frame = 0
 671              		@ frame_needed = 0, uses_anonymous_args = 0
 325:Middlewares/Third_Party/LwIP/src/core/ipv4/icmp.c ****   MIB2_STATS_INC(mib2.icmpouttimeexcds);
 672              		.loc 1 325 1 is_stmt 0 view .LVU216
 673 0000 08B5     		push	{r3, lr}
 674              	.LCFI9:
 675              		.cfi_def_cfa_offset 8
 676              		.cfi_offset 3, -8
ARM GAS  C:\Users\hh\AppData\Local\Temp\ccD83nHD.s 			page 23


 677              		.cfi_offset 14, -4
 678 0002 0A46     		mov	r2, r1
 326:Middlewares/Third_Party/LwIP/src/core/ipv4/icmp.c ****   icmp_send_response(p, ICMP_TE, t);
 679              		.loc 1 326 40 is_stmt 1 view .LVU217
 327:Middlewares/Third_Party/LwIP/src/core/ipv4/icmp.c **** }
 680              		.loc 1 327 3 view .LVU218
 681 0004 0B21     		movs	r1, #11
 682              	.LVL67:
 327:Middlewares/Third_Party/LwIP/src/core/ipv4/icmp.c **** }
 683              		.loc 1 327 3 is_stmt 0 view .LVU219
 684 0006 FFF7FEFF 		bl	icmp_send_response
 685              	.LVL68:
 328:Middlewares/Third_Party/LwIP/src/core/ipv4/icmp.c **** 
 686              		.loc 1 328 1 view .LVU220
 687 000a 08BD     		pop	{r3, pc}
 688              		.cfi_endproc
 689              	.LFE174:
 691              		.text
 692              	.Letext0:
 693              		.file 2 "C:/Program Files (x86)/ARM/arm-gnu-toolchain-15.2.rel1-mingw-w64-i686-arm-none-eabi/arm-n
 694              		.file 3 "C:/Program Files (x86)/ARM/arm-gnu-toolchain-15.2.rel1-mingw-w64-i686-arm-none-eabi/arm-n
 695              		.file 4 "C:/Program Files (x86)/ARM/arm-gnu-toolchain-15.2.rel1-mingw-w64-i686-arm-none-eabi/lib/g
 696              		.file 5 "Middlewares/Third_Party/LwIP/src/include/lwip/arch.h"
 697              		.file 6 "Middlewares/Third_Party/LwIP/src/include/lwip/err.h"
 698              		.file 7 "Middlewares/Third_Party/LwIP/src/include/lwip/pbuf.h"
 699              		.file 8 "Middlewares/Third_Party/LwIP/src/include/lwip/ip4_addr.h"
 700              		.file 9 "Middlewares/Third_Party/LwIP/src/include/lwip/ip_addr.h"
 701              		.file 10 "Middlewares/Third_Party/LwIP/src/include/lwip/netif.h"
 702              		.file 11 "Middlewares/Third_Party/LwIP/src/include/lwip/prot/icmp.h"
 703              		.file 12 "Middlewares/Third_Party/LwIP/src/include/lwip/icmp.h"
 704              		.file 13 "Middlewares/Third_Party/LwIP/src/include/lwip/prot/ip4.h"
 705              		.file 14 "Middlewares/Third_Party/LwIP/src/include/lwip/ip.h"
 706              		.file 15 "Middlewares/Third_Party/LwIP/src/include/lwip/inet_chksum.h"
 707              		.file 16 "Middlewares/Third_Party/LwIP/src/include/lwip/ip4.h"
 708              		.file 17 "C:/Program Files (x86)/ARM/arm-gnu-toolchain-15.2.rel1-mingw-w64-i686-arm-none-eabi/arm-
 709              		.file 18 "C:/Program Files (x86)/ARM/arm-gnu-toolchain-15.2.rel1-mingw-w64-i686-arm-none-eabi/arm-
 710              		.file 19 "<built-in>"
ARM GAS  C:\Users\hh\AppData\Local\Temp\ccD83nHD.s 			page 24

