ARM GAS  C:\Users\hh\AppData\Local\Temp\ccMhx9gk.s 			page 1


   1              		.cpu cortex-m7
   2              		.arch armv7e-m
   3              		.fpu fpv5-d16
   4              		.eabi_attribute 28, 1
   5              		.eabi_attribute 20, 1
   6              		.eabi_attribute 21, 1
   7              		.eabi_attribute 23, 3
   8              		.eabi_attribute 24, 1
   9              		.eabi_attribute 25, 1
  10              		.eabi_attribute 26, 1
  11              		.eabi_attribute 30, 1
  12              		.eabi_attribute 34, 1
  13              		.eabi_attribute 18, 4
  14              		.file	"memp.c"
  15              		.text
  16              	.Ltext0:
  17              		.cfi_sections	.debug_frame
  18              		.file 1 "Middlewares/Third_Party/LwIP/src/core/memp.c"
  19              		.section	.rodata.do_memp_malloc_pool.str1.4,"aMS",%progbits,1
  20              		.align	2
  21              	.LC0:
  22 0000 4D696464 		.ascii	"Middlewares/Third_Party/LwIP/src/core/memp.c\000"
  22      6C657761 
  22      7265732F 
  22      54686972 
  22      645F5061 
  23 002d 000000   		.align	2
  24              	.LC1:
  25 0030 6D656D70 		.ascii	"memp_malloc: memp properly aligned\000"
  25      5F6D616C 
  25      6C6F633A 
  25      206D656D 
  25      70207072 
  26 0053 00       		.align	2
  27              	.LC2:
  28 0054 41737365 		.ascii	"Assertion \"%s\" failed at line %d in %s\012\000"
  28      7274696F 
  28      6E202225 
  28      73222066 
  28      61696C65 
  29              		.section	.text.do_memp_malloc_pool,"ax",%progbits
  30              		.align	1
  31              		.syntax unified
  32              		.thumb
  33              		.thumb_func
  35              	do_memp_malloc_pool:
  36              	.LVL0:
  37              	.LFB174:
   1:Middlewares/Third_Party/LwIP/src/core/memp.c **** /**
   2:Middlewares/Third_Party/LwIP/src/core/memp.c ****  * @file
   3:Middlewares/Third_Party/LwIP/src/core/memp.c ****  * Dynamic pool memory manager
   4:Middlewares/Third_Party/LwIP/src/core/memp.c ****  *
   5:Middlewares/Third_Party/LwIP/src/core/memp.c ****  * lwIP has dedicated pools for many structures (netconn, protocol control blocks,
   6:Middlewares/Third_Party/LwIP/src/core/memp.c ****  * packet buffers, ...). All these pools are managed here.
   7:Middlewares/Third_Party/LwIP/src/core/memp.c ****  *
   8:Middlewares/Third_Party/LwIP/src/core/memp.c ****  * @defgroup mempool Memory pools
   9:Middlewares/Third_Party/LwIP/src/core/memp.c ****  * @ingroup infrastructure
ARM GAS  C:\Users\hh\AppData\Local\Temp\ccMhx9gk.s 			page 2


  10:Middlewares/Third_Party/LwIP/src/core/memp.c ****  * Custom memory pools
  11:Middlewares/Third_Party/LwIP/src/core/memp.c **** 
  12:Middlewares/Third_Party/LwIP/src/core/memp.c ****  */
  13:Middlewares/Third_Party/LwIP/src/core/memp.c **** 
  14:Middlewares/Third_Party/LwIP/src/core/memp.c **** /*
  15:Middlewares/Third_Party/LwIP/src/core/memp.c ****  * Copyright (c) 2001-2004 Swedish Institute of Computer Science.
  16:Middlewares/Third_Party/LwIP/src/core/memp.c ****  * All rights reserved.
  17:Middlewares/Third_Party/LwIP/src/core/memp.c ****  *
  18:Middlewares/Third_Party/LwIP/src/core/memp.c ****  * Redistribution and use in source and binary forms, with or without modification,
  19:Middlewares/Third_Party/LwIP/src/core/memp.c ****  * are permitted provided that the following conditions are met:
  20:Middlewares/Third_Party/LwIP/src/core/memp.c ****  *
  21:Middlewares/Third_Party/LwIP/src/core/memp.c ****  * 1. Redistributions of source code must retain the above copyright notice,
  22:Middlewares/Third_Party/LwIP/src/core/memp.c ****  *    this list of conditions and the following disclaimer.
  23:Middlewares/Third_Party/LwIP/src/core/memp.c ****  * 2. Redistributions in binary form must reproduce the above copyright notice,
  24:Middlewares/Third_Party/LwIP/src/core/memp.c ****  *    this list of conditions and the following disclaimer in the documentation
  25:Middlewares/Third_Party/LwIP/src/core/memp.c ****  *    and/or other materials provided with the distribution.
  26:Middlewares/Third_Party/LwIP/src/core/memp.c ****  * 3. The name of the author may not be used to endorse or promote products
  27:Middlewares/Third_Party/LwIP/src/core/memp.c ****  *    derived from this software without specific prior written permission.
  28:Middlewares/Third_Party/LwIP/src/core/memp.c ****  *
  29:Middlewares/Third_Party/LwIP/src/core/memp.c ****  * THIS SOFTWARE IS PROVIDED BY THE AUTHOR ``AS IS'' AND ANY EXPRESS OR IMPLIED
  30:Middlewares/Third_Party/LwIP/src/core/memp.c ****  * WARRANTIES, INCLUDING, BUT NOT LIMITED TO, THE IMPLIED WARRANTIES OF
  31:Middlewares/Third_Party/LwIP/src/core/memp.c ****  * MERCHANTABILITY AND FITNESS FOR A PARTICULAR PURPOSE ARE DISCLAIMED. IN NO EVENT
  32:Middlewares/Third_Party/LwIP/src/core/memp.c ****  * SHALL THE AUTHOR BE LIABLE FOR ANY DIRECT, INDIRECT, INCIDENTAL, SPECIAL,
  33:Middlewares/Third_Party/LwIP/src/core/memp.c ****  * EXEMPLARY, OR CONSEQUENTIAL DAMAGES (INCLUDING, BUT NOT LIMITED TO, PROCUREMENT
  34:Middlewares/Third_Party/LwIP/src/core/memp.c ****  * OF SUBSTITUTE GOODS OR SERVICES; LOSS OF USE, DATA, OR PROFITS; OR BUSINESS
  35:Middlewares/Third_Party/LwIP/src/core/memp.c ****  * INTERRUPTION) HOWEVER CAUSED AND ON ANY THEORY OF LIABILITY, WHETHER IN
  36:Middlewares/Third_Party/LwIP/src/core/memp.c ****  * CONTRACT, STRICT LIABILITY, OR TORT (INCLUDING NEGLIGENCE OR OTHERWISE) ARISING
  37:Middlewares/Third_Party/LwIP/src/core/memp.c ****  * IN ANY WAY OUT OF THE USE OF THIS SOFTWARE, EVEN IF ADVISED OF THE POSSIBILITY
  38:Middlewares/Third_Party/LwIP/src/core/memp.c ****  * OF SUCH DAMAGE.
  39:Middlewares/Third_Party/LwIP/src/core/memp.c ****  *
  40:Middlewares/Third_Party/LwIP/src/core/memp.c ****  * This file is part of the lwIP TCP/IP stack.
  41:Middlewares/Third_Party/LwIP/src/core/memp.c ****  *
  42:Middlewares/Third_Party/LwIP/src/core/memp.c ****  * Author: Adam Dunkels <adam@sics.se>
  43:Middlewares/Third_Party/LwIP/src/core/memp.c ****  *
  44:Middlewares/Third_Party/LwIP/src/core/memp.c ****  */
  45:Middlewares/Third_Party/LwIP/src/core/memp.c **** 
  46:Middlewares/Third_Party/LwIP/src/core/memp.c **** #include "lwip/opt.h"
  47:Middlewares/Third_Party/LwIP/src/core/memp.c **** 
  48:Middlewares/Third_Party/LwIP/src/core/memp.c **** #include "lwip/memp.h"
  49:Middlewares/Third_Party/LwIP/src/core/memp.c **** #include "lwip/sys.h"
  50:Middlewares/Third_Party/LwIP/src/core/memp.c **** #include "lwip/stats.h"
  51:Middlewares/Third_Party/LwIP/src/core/memp.c **** 
  52:Middlewares/Third_Party/LwIP/src/core/memp.c **** #include <string.h>
  53:Middlewares/Third_Party/LwIP/src/core/memp.c **** 
  54:Middlewares/Third_Party/LwIP/src/core/memp.c **** /* Make sure we include everything we need for size calculation required by memp_std.h */
  55:Middlewares/Third_Party/LwIP/src/core/memp.c **** #include "lwip/pbuf.h"
  56:Middlewares/Third_Party/LwIP/src/core/memp.c **** #include "lwip/raw.h"
  57:Middlewares/Third_Party/LwIP/src/core/memp.c **** #include "lwip/udp.h"
  58:Middlewares/Third_Party/LwIP/src/core/memp.c **** #include "lwip/tcp.h"
  59:Middlewares/Third_Party/LwIP/src/core/memp.c **** #include "lwip/priv/tcp_priv.h"
  60:Middlewares/Third_Party/LwIP/src/core/memp.c **** #include "lwip/altcp.h"
  61:Middlewares/Third_Party/LwIP/src/core/memp.c **** #include "lwip/ip4_frag.h"
  62:Middlewares/Third_Party/LwIP/src/core/memp.c **** #include "lwip/netbuf.h"
  63:Middlewares/Third_Party/LwIP/src/core/memp.c **** #include "lwip/api.h"
  64:Middlewares/Third_Party/LwIP/src/core/memp.c **** #include "lwip/priv/tcpip_priv.h"
  65:Middlewares/Third_Party/LwIP/src/core/memp.c **** #include "lwip/priv/api_msg.h"
  66:Middlewares/Third_Party/LwIP/src/core/memp.c **** #include "lwip/priv/sockets_priv.h"
ARM GAS  C:\Users\hh\AppData\Local\Temp\ccMhx9gk.s 			page 3


  67:Middlewares/Third_Party/LwIP/src/core/memp.c **** #include "lwip/etharp.h"
  68:Middlewares/Third_Party/LwIP/src/core/memp.c **** #include "lwip/igmp.h"
  69:Middlewares/Third_Party/LwIP/src/core/memp.c **** #include "lwip/timeouts.h"
  70:Middlewares/Third_Party/LwIP/src/core/memp.c **** /* needed by default MEMP_NUM_SYS_TIMEOUT */
  71:Middlewares/Third_Party/LwIP/src/core/memp.c **** #include "netif/ppp/ppp_opts.h"
  72:Middlewares/Third_Party/LwIP/src/core/memp.c **** #include "lwip/netdb.h"
  73:Middlewares/Third_Party/LwIP/src/core/memp.c **** #include "lwip/dns.h"
  74:Middlewares/Third_Party/LwIP/src/core/memp.c **** #include "lwip/priv/nd6_priv.h"
  75:Middlewares/Third_Party/LwIP/src/core/memp.c **** #include "lwip/ip6_frag.h"
  76:Middlewares/Third_Party/LwIP/src/core/memp.c **** #include "lwip/mld6.h"
  77:Middlewares/Third_Party/LwIP/src/core/memp.c **** 
  78:Middlewares/Third_Party/LwIP/src/core/memp.c **** #define LWIP_MEMPOOL(name,num,size,desc) LWIP_MEMPOOL_DECLARE(name,num,size,desc)
  79:Middlewares/Third_Party/LwIP/src/core/memp.c **** #include "lwip/priv/memp_std.h"
  80:Middlewares/Third_Party/LwIP/src/core/memp.c **** 
  81:Middlewares/Third_Party/LwIP/src/core/memp.c **** const struct memp_desc *const memp_pools[MEMP_MAX] = {
  82:Middlewares/Third_Party/LwIP/src/core/memp.c **** #define LWIP_MEMPOOL(name,num,size,desc) &memp_ ## name,
  83:Middlewares/Third_Party/LwIP/src/core/memp.c **** #include "lwip/priv/memp_std.h"
  84:Middlewares/Third_Party/LwIP/src/core/memp.c **** };
  85:Middlewares/Third_Party/LwIP/src/core/memp.c **** 
  86:Middlewares/Third_Party/LwIP/src/core/memp.c **** #ifdef LWIP_HOOK_FILENAME
  87:Middlewares/Third_Party/LwIP/src/core/memp.c **** #include LWIP_HOOK_FILENAME
  88:Middlewares/Third_Party/LwIP/src/core/memp.c **** #endif
  89:Middlewares/Third_Party/LwIP/src/core/memp.c **** 
  90:Middlewares/Third_Party/LwIP/src/core/memp.c **** #if MEMP_MEM_MALLOC && MEMP_OVERFLOW_CHECK >= 2
  91:Middlewares/Third_Party/LwIP/src/core/memp.c **** #undef MEMP_OVERFLOW_CHECK
  92:Middlewares/Third_Party/LwIP/src/core/memp.c **** /* MEMP_OVERFLOW_CHECK >= 2 does not work with MEMP_MEM_MALLOC, use 1 instead */
  93:Middlewares/Third_Party/LwIP/src/core/memp.c **** #define MEMP_OVERFLOW_CHECK 1
  94:Middlewares/Third_Party/LwIP/src/core/memp.c **** #endif
  95:Middlewares/Third_Party/LwIP/src/core/memp.c **** 
  96:Middlewares/Third_Party/LwIP/src/core/memp.c **** #if MEMP_SANITY_CHECK && !MEMP_MEM_MALLOC
  97:Middlewares/Third_Party/LwIP/src/core/memp.c **** /**
  98:Middlewares/Third_Party/LwIP/src/core/memp.c ****  * Check that memp-lists don't form a circle, using "Floyd's cycle-finding algorithm".
  99:Middlewares/Third_Party/LwIP/src/core/memp.c ****  */
 100:Middlewares/Third_Party/LwIP/src/core/memp.c **** static int
 101:Middlewares/Third_Party/LwIP/src/core/memp.c **** memp_sanity(const struct memp_desc *desc)
 102:Middlewares/Third_Party/LwIP/src/core/memp.c **** {
 103:Middlewares/Third_Party/LwIP/src/core/memp.c ****   struct memp *t, *h;
 104:Middlewares/Third_Party/LwIP/src/core/memp.c **** 
 105:Middlewares/Third_Party/LwIP/src/core/memp.c ****   t = *desc->tab;
 106:Middlewares/Third_Party/LwIP/src/core/memp.c ****   if (t != NULL) {
 107:Middlewares/Third_Party/LwIP/src/core/memp.c ****     for (h = t->next; (t != NULL) && (h != NULL); t = t->next,
 108:Middlewares/Third_Party/LwIP/src/core/memp.c ****          h = ((h->next != NULL) ? h->next->next : NULL)) {
 109:Middlewares/Third_Party/LwIP/src/core/memp.c ****       if (t == h) {
 110:Middlewares/Third_Party/LwIP/src/core/memp.c ****         return 0;
 111:Middlewares/Third_Party/LwIP/src/core/memp.c ****       }
 112:Middlewares/Third_Party/LwIP/src/core/memp.c ****     }
 113:Middlewares/Third_Party/LwIP/src/core/memp.c ****   }
 114:Middlewares/Third_Party/LwIP/src/core/memp.c **** 
 115:Middlewares/Third_Party/LwIP/src/core/memp.c ****   return 1;
 116:Middlewares/Third_Party/LwIP/src/core/memp.c **** }
 117:Middlewares/Third_Party/LwIP/src/core/memp.c **** #endif /* MEMP_SANITY_CHECK && !MEMP_MEM_MALLOC */
 118:Middlewares/Third_Party/LwIP/src/core/memp.c **** 
 119:Middlewares/Third_Party/LwIP/src/core/memp.c **** #if MEMP_OVERFLOW_CHECK
 120:Middlewares/Third_Party/LwIP/src/core/memp.c **** /**
 121:Middlewares/Third_Party/LwIP/src/core/memp.c ****  * Check if a memp element was victim of an overflow or underflow
 122:Middlewares/Third_Party/LwIP/src/core/memp.c ****  * (e.g. the restricted area after/before it has been altered)
 123:Middlewares/Third_Party/LwIP/src/core/memp.c ****  *
ARM GAS  C:\Users\hh\AppData\Local\Temp\ccMhx9gk.s 			page 4


 124:Middlewares/Third_Party/LwIP/src/core/memp.c ****  * @param p the memp element to check
 125:Middlewares/Third_Party/LwIP/src/core/memp.c ****  * @param desc the pool p comes from
 126:Middlewares/Third_Party/LwIP/src/core/memp.c ****  */
 127:Middlewares/Third_Party/LwIP/src/core/memp.c **** static void
 128:Middlewares/Third_Party/LwIP/src/core/memp.c **** memp_overflow_check_element(struct memp *p, const struct memp_desc *desc)
 129:Middlewares/Third_Party/LwIP/src/core/memp.c **** {
 130:Middlewares/Third_Party/LwIP/src/core/memp.c ****   mem_overflow_check_raw((u8_t *)p + MEMP_SIZE, desc->size, "pool ", desc->desc);
 131:Middlewares/Third_Party/LwIP/src/core/memp.c **** }
 132:Middlewares/Third_Party/LwIP/src/core/memp.c **** 
 133:Middlewares/Third_Party/LwIP/src/core/memp.c **** /**
 134:Middlewares/Third_Party/LwIP/src/core/memp.c ****  * Initialize the restricted area of on memp element.
 135:Middlewares/Third_Party/LwIP/src/core/memp.c ****  */
 136:Middlewares/Third_Party/LwIP/src/core/memp.c **** static void
 137:Middlewares/Third_Party/LwIP/src/core/memp.c **** memp_overflow_init_element(struct memp *p, const struct memp_desc *desc)
 138:Middlewares/Third_Party/LwIP/src/core/memp.c **** {
 139:Middlewares/Third_Party/LwIP/src/core/memp.c ****   mem_overflow_init_raw((u8_t *)p + MEMP_SIZE, desc->size);
 140:Middlewares/Third_Party/LwIP/src/core/memp.c **** }
 141:Middlewares/Third_Party/LwIP/src/core/memp.c **** 
 142:Middlewares/Third_Party/LwIP/src/core/memp.c **** #if MEMP_OVERFLOW_CHECK >= 2
 143:Middlewares/Third_Party/LwIP/src/core/memp.c **** /**
 144:Middlewares/Third_Party/LwIP/src/core/memp.c ****  * Do an overflow check for all elements in every pool.
 145:Middlewares/Third_Party/LwIP/src/core/memp.c ****  *
 146:Middlewares/Third_Party/LwIP/src/core/memp.c ****  * @see memp_overflow_check_element for a description of the check
 147:Middlewares/Third_Party/LwIP/src/core/memp.c ****  */
 148:Middlewares/Third_Party/LwIP/src/core/memp.c **** static void
 149:Middlewares/Third_Party/LwIP/src/core/memp.c **** memp_overflow_check_all(void)
 150:Middlewares/Third_Party/LwIP/src/core/memp.c **** {
 151:Middlewares/Third_Party/LwIP/src/core/memp.c ****   u16_t i, j;
 152:Middlewares/Third_Party/LwIP/src/core/memp.c ****   struct memp *p;
 153:Middlewares/Third_Party/LwIP/src/core/memp.c ****   SYS_ARCH_DECL_PROTECT(old_level);
 154:Middlewares/Third_Party/LwIP/src/core/memp.c ****   SYS_ARCH_PROTECT(old_level);
 155:Middlewares/Third_Party/LwIP/src/core/memp.c **** 
 156:Middlewares/Third_Party/LwIP/src/core/memp.c ****   for (i = 0; i < MEMP_MAX; ++i) {
 157:Middlewares/Third_Party/LwIP/src/core/memp.c ****     p = (struct memp *)LWIP_MEM_ALIGN(memp_pools[i]->base);
 158:Middlewares/Third_Party/LwIP/src/core/memp.c ****     for (j = 0; j < memp_pools[i]->num; ++j) {
 159:Middlewares/Third_Party/LwIP/src/core/memp.c ****       memp_overflow_check_element(p, memp_pools[i]);
 160:Middlewares/Third_Party/LwIP/src/core/memp.c ****       p = LWIP_ALIGNMENT_CAST(struct memp *, ((u8_t *)p + MEMP_SIZE + memp_pools[i]->size + MEM_SAN
 161:Middlewares/Third_Party/LwIP/src/core/memp.c ****     }
 162:Middlewares/Third_Party/LwIP/src/core/memp.c ****   }
 163:Middlewares/Third_Party/LwIP/src/core/memp.c ****   SYS_ARCH_UNPROTECT(old_level);
 164:Middlewares/Third_Party/LwIP/src/core/memp.c **** }
 165:Middlewares/Third_Party/LwIP/src/core/memp.c **** #endif /* MEMP_OVERFLOW_CHECK >= 2 */
 166:Middlewares/Third_Party/LwIP/src/core/memp.c **** #endif /* MEMP_OVERFLOW_CHECK */
 167:Middlewares/Third_Party/LwIP/src/core/memp.c **** 
 168:Middlewares/Third_Party/LwIP/src/core/memp.c **** /**
 169:Middlewares/Third_Party/LwIP/src/core/memp.c ****  * Initialize custom memory pool.
 170:Middlewares/Third_Party/LwIP/src/core/memp.c ****  * Related functions: memp_malloc_pool, memp_free_pool
 171:Middlewares/Third_Party/LwIP/src/core/memp.c ****  *
 172:Middlewares/Third_Party/LwIP/src/core/memp.c ****  * @param desc pool to initialize
 173:Middlewares/Third_Party/LwIP/src/core/memp.c ****  */
 174:Middlewares/Third_Party/LwIP/src/core/memp.c **** void
 175:Middlewares/Third_Party/LwIP/src/core/memp.c **** memp_init_pool(const struct memp_desc *desc)
 176:Middlewares/Third_Party/LwIP/src/core/memp.c **** {
 177:Middlewares/Third_Party/LwIP/src/core/memp.c **** #if MEMP_MEM_MALLOC
 178:Middlewares/Third_Party/LwIP/src/core/memp.c ****   LWIP_UNUSED_ARG(desc);
 179:Middlewares/Third_Party/LwIP/src/core/memp.c **** #else
 180:Middlewares/Third_Party/LwIP/src/core/memp.c ****   int i;
ARM GAS  C:\Users\hh\AppData\Local\Temp\ccMhx9gk.s 			page 5


 181:Middlewares/Third_Party/LwIP/src/core/memp.c ****   struct memp *memp;
 182:Middlewares/Third_Party/LwIP/src/core/memp.c **** 
 183:Middlewares/Third_Party/LwIP/src/core/memp.c ****   *desc->tab = NULL;
 184:Middlewares/Third_Party/LwIP/src/core/memp.c ****   memp = (struct memp *)LWIP_MEM_ALIGN(desc->base);
 185:Middlewares/Third_Party/LwIP/src/core/memp.c **** #if MEMP_MEM_INIT
 186:Middlewares/Third_Party/LwIP/src/core/memp.c ****   /* force memset on pool memory */
 187:Middlewares/Third_Party/LwIP/src/core/memp.c ****   memset(memp, 0, (size_t)desc->num * (MEMP_SIZE + desc->size
 188:Middlewares/Third_Party/LwIP/src/core/memp.c **** #if MEMP_OVERFLOW_CHECK
 189:Middlewares/Third_Party/LwIP/src/core/memp.c ****                                        + MEM_SANITY_REGION_AFTER_ALIGNED
 190:Middlewares/Third_Party/LwIP/src/core/memp.c **** #endif
 191:Middlewares/Third_Party/LwIP/src/core/memp.c ****                                       ));
 192:Middlewares/Third_Party/LwIP/src/core/memp.c **** #endif
 193:Middlewares/Third_Party/LwIP/src/core/memp.c ****   /* create a linked list of memp elements */
 194:Middlewares/Third_Party/LwIP/src/core/memp.c ****   for (i = 0; i < desc->num; ++i) {
 195:Middlewares/Third_Party/LwIP/src/core/memp.c ****     memp->next = *desc->tab;
 196:Middlewares/Third_Party/LwIP/src/core/memp.c ****     *desc->tab = memp;
 197:Middlewares/Third_Party/LwIP/src/core/memp.c **** #if MEMP_OVERFLOW_CHECK
 198:Middlewares/Third_Party/LwIP/src/core/memp.c ****     memp_overflow_init_element(memp, desc);
 199:Middlewares/Third_Party/LwIP/src/core/memp.c **** #endif /* MEMP_OVERFLOW_CHECK */
 200:Middlewares/Third_Party/LwIP/src/core/memp.c ****     /* cast through void* to get rid of alignment warnings */
 201:Middlewares/Third_Party/LwIP/src/core/memp.c ****     memp = (struct memp *)(void *)((u8_t *)memp + MEMP_SIZE + desc->size
 202:Middlewares/Third_Party/LwIP/src/core/memp.c **** #if MEMP_OVERFLOW_CHECK
 203:Middlewares/Third_Party/LwIP/src/core/memp.c ****                                    + MEM_SANITY_REGION_AFTER_ALIGNED
 204:Middlewares/Third_Party/LwIP/src/core/memp.c **** #endif
 205:Middlewares/Third_Party/LwIP/src/core/memp.c ****                                   );
 206:Middlewares/Third_Party/LwIP/src/core/memp.c ****   }
 207:Middlewares/Third_Party/LwIP/src/core/memp.c **** #if MEMP_STATS
 208:Middlewares/Third_Party/LwIP/src/core/memp.c ****   desc->stats->avail = desc->num;
 209:Middlewares/Third_Party/LwIP/src/core/memp.c **** #endif /* MEMP_STATS */
 210:Middlewares/Third_Party/LwIP/src/core/memp.c **** #endif /* !MEMP_MEM_MALLOC */
 211:Middlewares/Third_Party/LwIP/src/core/memp.c **** 
 212:Middlewares/Third_Party/LwIP/src/core/memp.c **** #if MEMP_STATS && (defined(LWIP_DEBUG) || LWIP_STATS_DISPLAY)
 213:Middlewares/Third_Party/LwIP/src/core/memp.c ****   desc->stats->name  = desc->desc;
 214:Middlewares/Third_Party/LwIP/src/core/memp.c **** #endif /* MEMP_STATS && (defined(LWIP_DEBUG) || LWIP_STATS_DISPLAY) */
 215:Middlewares/Third_Party/LwIP/src/core/memp.c **** }
 216:Middlewares/Third_Party/LwIP/src/core/memp.c **** 
 217:Middlewares/Third_Party/LwIP/src/core/memp.c **** /**
 218:Middlewares/Third_Party/LwIP/src/core/memp.c ****  * Initializes lwIP built-in pools.
 219:Middlewares/Third_Party/LwIP/src/core/memp.c ****  * Related functions: memp_malloc, memp_free
 220:Middlewares/Third_Party/LwIP/src/core/memp.c ****  *
 221:Middlewares/Third_Party/LwIP/src/core/memp.c ****  * Carves out memp_memory into linked lists for each pool-type.
 222:Middlewares/Third_Party/LwIP/src/core/memp.c ****  */
 223:Middlewares/Third_Party/LwIP/src/core/memp.c **** void
 224:Middlewares/Third_Party/LwIP/src/core/memp.c **** memp_init(void)
 225:Middlewares/Third_Party/LwIP/src/core/memp.c **** {
 226:Middlewares/Third_Party/LwIP/src/core/memp.c ****   u16_t i;
 227:Middlewares/Third_Party/LwIP/src/core/memp.c **** 
 228:Middlewares/Third_Party/LwIP/src/core/memp.c ****   /* for every pool: */
 229:Middlewares/Third_Party/LwIP/src/core/memp.c ****   for (i = 0; i < LWIP_ARRAYSIZE(memp_pools); i++) {
 230:Middlewares/Third_Party/LwIP/src/core/memp.c ****     memp_init_pool(memp_pools[i]);
 231:Middlewares/Third_Party/LwIP/src/core/memp.c **** 
 232:Middlewares/Third_Party/LwIP/src/core/memp.c **** #if LWIP_STATS && MEMP_STATS
 233:Middlewares/Third_Party/LwIP/src/core/memp.c ****     lwip_stats.memp[i] = memp_pools[i]->stats;
 234:Middlewares/Third_Party/LwIP/src/core/memp.c **** #endif
 235:Middlewares/Third_Party/LwIP/src/core/memp.c ****   }
 236:Middlewares/Third_Party/LwIP/src/core/memp.c **** 
 237:Middlewares/Third_Party/LwIP/src/core/memp.c **** #if MEMP_OVERFLOW_CHECK >= 2
ARM GAS  C:\Users\hh\AppData\Local\Temp\ccMhx9gk.s 			page 6


 238:Middlewares/Third_Party/LwIP/src/core/memp.c ****   /* check everything a first time to see if it worked */
 239:Middlewares/Third_Party/LwIP/src/core/memp.c ****   memp_overflow_check_all();
 240:Middlewares/Third_Party/LwIP/src/core/memp.c **** #endif /* MEMP_OVERFLOW_CHECK >= 2 */
 241:Middlewares/Third_Party/LwIP/src/core/memp.c **** }
 242:Middlewares/Third_Party/LwIP/src/core/memp.c **** 
 243:Middlewares/Third_Party/LwIP/src/core/memp.c **** static void *
 244:Middlewares/Third_Party/LwIP/src/core/memp.c **** #if !MEMP_OVERFLOW_CHECK
 245:Middlewares/Third_Party/LwIP/src/core/memp.c **** do_memp_malloc_pool(const struct memp_desc *desc)
 246:Middlewares/Third_Party/LwIP/src/core/memp.c **** #else
 247:Middlewares/Third_Party/LwIP/src/core/memp.c **** do_memp_malloc_pool_fn(const struct memp_desc *desc, const char *file, const int line)
 248:Middlewares/Third_Party/LwIP/src/core/memp.c **** #endif
 249:Middlewares/Third_Party/LwIP/src/core/memp.c **** {
  38              		.loc 1 249 1 view -0
  39              		.cfi_startproc
  40              		@ args = 0, pretend = 0, frame = 0
  41              		@ frame_needed = 0, uses_anonymous_args = 0
  42              		.loc 1 249 1 is_stmt 0 view .LVU1
  43 0000 38B5     		push	{r3, r4, r5, lr}
  44              	.LCFI0:
  45              		.cfi_def_cfa_offset 16
  46              		.cfi_offset 3, -16
  47              		.cfi_offset 4, -12
  48              		.cfi_offset 5, -8
  49              		.cfi_offset 14, -4
  50 0002 0446     		mov	r4, r0
 250:Middlewares/Third_Party/LwIP/src/core/memp.c ****   struct memp *memp;
  51              		.loc 1 250 3 is_stmt 1 view .LVU2
 251:Middlewares/Third_Party/LwIP/src/core/memp.c ****   SYS_ARCH_DECL_PROTECT(old_level);
  52              		.loc 1 251 3 view .LVU3
 252:Middlewares/Third_Party/LwIP/src/core/memp.c **** 
 253:Middlewares/Third_Party/LwIP/src/core/memp.c **** #if MEMP_MEM_MALLOC
 254:Middlewares/Third_Party/LwIP/src/core/memp.c ****   memp = (struct memp *)mem_malloc(MEMP_SIZE + MEMP_ALIGN_SIZE(desc->size));
 255:Middlewares/Third_Party/LwIP/src/core/memp.c ****   SYS_ARCH_PROTECT(old_level);
 256:Middlewares/Third_Party/LwIP/src/core/memp.c **** #else /* MEMP_MEM_MALLOC */
 257:Middlewares/Third_Party/LwIP/src/core/memp.c ****   SYS_ARCH_PROTECT(old_level);
  53              		.loc 1 257 3 view .LVU4
  54 0004 FFF7FEFF 		bl	sys_arch_protect
  55              	.LVL1:
  56              		.loc 1 257 3 is_stmt 0 view .LVU5
  57 0008 0546     		mov	r5, r0
  58              	.LVL2:
 258:Middlewares/Third_Party/LwIP/src/core/memp.c **** 
 259:Middlewares/Third_Party/LwIP/src/core/memp.c ****   memp = *desc->tab;
  59              		.loc 1 259 3 is_stmt 1 view .LVU6
  60              		.loc 1 259 15 is_stmt 0 view .LVU7
  61 000a A368     		ldr	r3, [r4, #8]
  62              		.loc 1 259 8 view .LVU8
  63 000c 1C68     		ldr	r4, [r3]
  64              	.LVL3:
 260:Middlewares/Third_Party/LwIP/src/core/memp.c **** #endif /* MEMP_MEM_MALLOC */
 261:Middlewares/Third_Party/LwIP/src/core/memp.c **** 
 262:Middlewares/Third_Party/LwIP/src/core/memp.c ****   if (memp != NULL) {
  65              		.loc 1 262 3 is_stmt 1 view .LVU9
  66              		.loc 1 262 6 is_stmt 0 view .LVU10
  67 000e 8CB1     		cbz	r4, .L2
 263:Middlewares/Third_Party/LwIP/src/core/memp.c **** #if !MEMP_MEM_MALLOC
 264:Middlewares/Third_Party/LwIP/src/core/memp.c **** #if MEMP_OVERFLOW_CHECK == 1
ARM GAS  C:\Users\hh\AppData\Local\Temp\ccMhx9gk.s 			page 7


 265:Middlewares/Third_Party/LwIP/src/core/memp.c ****     memp_overflow_check_element(memp, desc);
 266:Middlewares/Third_Party/LwIP/src/core/memp.c **** #endif /* MEMP_OVERFLOW_CHECK */
 267:Middlewares/Third_Party/LwIP/src/core/memp.c **** 
 268:Middlewares/Third_Party/LwIP/src/core/memp.c ****     *desc->tab = memp->next;
  68              		.loc 1 268 5 is_stmt 1 view .LVU11
  69              		.loc 1 268 22 is_stmt 0 view .LVU12
  70 0010 2268     		ldr	r2, [r4]
  71              		.loc 1 268 16 view .LVU13
  72 0012 1A60     		str	r2, [r3]
 269:Middlewares/Third_Party/LwIP/src/core/memp.c **** #if MEMP_OVERFLOW_CHECK
 270:Middlewares/Third_Party/LwIP/src/core/memp.c ****     memp->next = NULL;
 271:Middlewares/Third_Party/LwIP/src/core/memp.c **** #endif /* MEMP_OVERFLOW_CHECK */
 272:Middlewares/Third_Party/LwIP/src/core/memp.c **** #endif /* !MEMP_MEM_MALLOC */
 273:Middlewares/Third_Party/LwIP/src/core/memp.c **** #if MEMP_OVERFLOW_CHECK
 274:Middlewares/Third_Party/LwIP/src/core/memp.c ****     memp->file = file;
 275:Middlewares/Third_Party/LwIP/src/core/memp.c ****     memp->line = line;
 276:Middlewares/Third_Party/LwIP/src/core/memp.c **** #if MEMP_MEM_MALLOC
 277:Middlewares/Third_Party/LwIP/src/core/memp.c ****     memp_overflow_init_element(memp, desc);
 278:Middlewares/Third_Party/LwIP/src/core/memp.c **** #endif /* MEMP_MEM_MALLOC */
 279:Middlewares/Third_Party/LwIP/src/core/memp.c **** #endif /* MEMP_OVERFLOW_CHECK */
 280:Middlewares/Third_Party/LwIP/src/core/memp.c ****     LWIP_ASSERT("memp_malloc: memp properly aligned",
  73              		.loc 1 280 5 is_stmt 1 view .LVU14
  74              		.loc 1 280 5 view .LVU15
  75 0014 14F0030F 		tst	r4, #3
  76 0018 04D1     		bne	.L6
  77              	.LVL4:
  78              	.L3:
  79              		.loc 1 280 5 view .LVU16
  80              		.loc 1 280 5 view .LVU17
 281:Middlewares/Third_Party/LwIP/src/core/memp.c ****                 ((mem_ptr_t)memp % MEM_ALIGNMENT) == 0);
 282:Middlewares/Third_Party/LwIP/src/core/memp.c **** #if MEMP_STATS
 283:Middlewares/Third_Party/LwIP/src/core/memp.c ****     desc->stats->used++;
 284:Middlewares/Third_Party/LwIP/src/core/memp.c ****     if (desc->stats->used > desc->stats->max) {
 285:Middlewares/Third_Party/LwIP/src/core/memp.c ****       desc->stats->max = desc->stats->used;
 286:Middlewares/Third_Party/LwIP/src/core/memp.c ****     }
 287:Middlewares/Third_Party/LwIP/src/core/memp.c **** #endif
 288:Middlewares/Third_Party/LwIP/src/core/memp.c ****     SYS_ARCH_UNPROTECT(old_level);
  81              		.loc 1 288 5 view .LVU18
  82 001a 2846     		mov	r0, r5
  83 001c FFF7FEFF 		bl	sys_arch_unprotect
  84              	.LVL5:
 289:Middlewares/Third_Party/LwIP/src/core/memp.c ****     /* cast through u8_t* to get rid of alignment warnings */
 290:Middlewares/Third_Party/LwIP/src/core/memp.c ****     return ((u8_t *)memp + MEMP_SIZE);
  85              		.loc 1 290 5 view .LVU19
  86              	.L1:
 291:Middlewares/Third_Party/LwIP/src/core/memp.c ****   } else {
 292:Middlewares/Third_Party/LwIP/src/core/memp.c **** #if MEMP_STATS
 293:Middlewares/Third_Party/LwIP/src/core/memp.c ****     desc->stats->err++;
 294:Middlewares/Third_Party/LwIP/src/core/memp.c **** #endif
 295:Middlewares/Third_Party/LwIP/src/core/memp.c ****     SYS_ARCH_UNPROTECT(old_level);
 296:Middlewares/Third_Party/LwIP/src/core/memp.c ****     LWIP_DEBUGF(MEMP_DEBUG | LWIP_DBG_LEVEL_SERIOUS, ("memp_malloc: out of memory in pool %s\n", de
 297:Middlewares/Third_Party/LwIP/src/core/memp.c ****   }
 298:Middlewares/Third_Party/LwIP/src/core/memp.c **** 
 299:Middlewares/Third_Party/LwIP/src/core/memp.c ****   return NULL;
 300:Middlewares/Third_Party/LwIP/src/core/memp.c **** }
  87              		.loc 1 300 1 is_stmt 0 view .LVU20
  88 0020 2046     		mov	r0, r4
ARM GAS  C:\Users\hh\AppData\Local\Temp\ccMhx9gk.s 			page 8


  89 0022 38BD     		pop	{r3, r4, r5, pc}
  90              	.LVL6:
  91              	.L6:
 280:Middlewares/Third_Party/LwIP/src/core/memp.c ****                 ((mem_ptr_t)memp % MEM_ALIGNMENT) == 0);
  92              		.loc 1 280 5 is_stmt 1 discriminator 1 view .LVU21
 280:Middlewares/Third_Party/LwIP/src/core/memp.c ****                 ((mem_ptr_t)memp % MEM_ALIGNMENT) == 0);
  93              		.loc 1 280 5 discriminator 1 view .LVU22
  94 0024 054B     		ldr	r3, .L7
  95 0026 4FF48C72 		mov	r2, #280
  96 002a 0549     		ldr	r1, .L7+4
  97 002c 0548     		ldr	r0, .L7+8
  98              	.LVL7:
 280:Middlewares/Third_Party/LwIP/src/core/memp.c ****                 ((mem_ptr_t)memp % MEM_ALIGNMENT) == 0);
  99              		.loc 1 280 5 is_stmt 0 discriminator 1 view .LVU23
 100 002e FFF7FEFF 		bl	printf
 101              	.LVL8:
 102 0032 F2E7     		b	.L3
 103              	.LVL9:
 104              	.L2:
 295:Middlewares/Third_Party/LwIP/src/core/memp.c ****     LWIP_DEBUGF(MEMP_DEBUG | LWIP_DBG_LEVEL_SERIOUS, ("memp_malloc: out of memory in pool %s\n", de
 105              		.loc 1 295 5 is_stmt 1 view .LVU24
 106 0034 FFF7FEFF 		bl	sys_arch_unprotect
 107              	.LVL10:
 296:Middlewares/Third_Party/LwIP/src/core/memp.c ****   }
 108              		.loc 1 296 110 view .LVU25
 299:Middlewares/Third_Party/LwIP/src/core/memp.c **** }
 109              		.loc 1 299 3 view .LVU26
 299:Middlewares/Third_Party/LwIP/src/core/memp.c **** }
 110              		.loc 1 299 10 is_stmt 0 view .LVU27
 111 0038 F2E7     		b	.L1
 112              	.L8:
 113 003a 00BF     		.align	2
 114              	.L7:
 115 003c 00000000 		.word	.LC0
 116 0040 30000000 		.word	.LC1
 117 0044 54000000 		.word	.LC2
 118              		.cfi_endproc
 119              	.LFE174:
 121              		.section	.rodata.do_memp_free_pool.str1.4,"aMS",%progbits,1
 122              		.align	2
 123              	.LC3:
 124 0000 6D656D70 		.ascii	"memp_free: mem properly aligned\000"
 124      5F667265 
 124      653A206D 
 124      656D2070 
 124      726F7065 
 125              		.section	.text.do_memp_free_pool,"ax",%progbits
 126              		.align	1
 127              		.syntax unified
 128              		.thumb
 129              		.thumb_func
 131              	do_memp_free_pool:
 132              	.LVL11:
 133              	.LFB177:
 301:Middlewares/Third_Party/LwIP/src/core/memp.c **** 
 302:Middlewares/Third_Party/LwIP/src/core/memp.c **** /**
 303:Middlewares/Third_Party/LwIP/src/core/memp.c ****  * Get an element from a custom pool.
ARM GAS  C:\Users\hh\AppData\Local\Temp\ccMhx9gk.s 			page 9


 304:Middlewares/Third_Party/LwIP/src/core/memp.c ****  *
 305:Middlewares/Third_Party/LwIP/src/core/memp.c ****  * @param desc the pool to get an element from
 306:Middlewares/Third_Party/LwIP/src/core/memp.c ****  *
 307:Middlewares/Third_Party/LwIP/src/core/memp.c ****  * @return a pointer to the allocated memory or a NULL pointer on error
 308:Middlewares/Third_Party/LwIP/src/core/memp.c ****  */
 309:Middlewares/Third_Party/LwIP/src/core/memp.c **** void *
 310:Middlewares/Third_Party/LwIP/src/core/memp.c **** #if !MEMP_OVERFLOW_CHECK
 311:Middlewares/Third_Party/LwIP/src/core/memp.c **** memp_malloc_pool(const struct memp_desc *desc)
 312:Middlewares/Third_Party/LwIP/src/core/memp.c **** #else
 313:Middlewares/Third_Party/LwIP/src/core/memp.c **** memp_malloc_pool_fn(const struct memp_desc *desc, const char *file, const int line)
 314:Middlewares/Third_Party/LwIP/src/core/memp.c **** #endif
 315:Middlewares/Third_Party/LwIP/src/core/memp.c **** {
 316:Middlewares/Third_Party/LwIP/src/core/memp.c ****   LWIP_ASSERT("invalid pool desc", desc != NULL);
 317:Middlewares/Third_Party/LwIP/src/core/memp.c ****   if (desc == NULL) {
 318:Middlewares/Third_Party/LwIP/src/core/memp.c ****     return NULL;
 319:Middlewares/Third_Party/LwIP/src/core/memp.c ****   }
 320:Middlewares/Third_Party/LwIP/src/core/memp.c **** 
 321:Middlewares/Third_Party/LwIP/src/core/memp.c **** #if !MEMP_OVERFLOW_CHECK
 322:Middlewares/Third_Party/LwIP/src/core/memp.c ****   return do_memp_malloc_pool(desc);
 323:Middlewares/Third_Party/LwIP/src/core/memp.c **** #else
 324:Middlewares/Third_Party/LwIP/src/core/memp.c ****   return do_memp_malloc_pool_fn(desc, file, line);
 325:Middlewares/Third_Party/LwIP/src/core/memp.c **** #endif
 326:Middlewares/Third_Party/LwIP/src/core/memp.c **** }
 327:Middlewares/Third_Party/LwIP/src/core/memp.c **** 
 328:Middlewares/Third_Party/LwIP/src/core/memp.c **** /**
 329:Middlewares/Third_Party/LwIP/src/core/memp.c ****  * Get an element from a specific pool.
 330:Middlewares/Third_Party/LwIP/src/core/memp.c ****  *
 331:Middlewares/Third_Party/LwIP/src/core/memp.c ****  * @param type the pool to get an element from
 332:Middlewares/Third_Party/LwIP/src/core/memp.c ****  *
 333:Middlewares/Third_Party/LwIP/src/core/memp.c ****  * @return a pointer to the allocated memory or a NULL pointer on error
 334:Middlewares/Third_Party/LwIP/src/core/memp.c ****  */
 335:Middlewares/Third_Party/LwIP/src/core/memp.c **** void *
 336:Middlewares/Third_Party/LwIP/src/core/memp.c **** #if !MEMP_OVERFLOW_CHECK
 337:Middlewares/Third_Party/LwIP/src/core/memp.c **** memp_malloc(memp_t type)
 338:Middlewares/Third_Party/LwIP/src/core/memp.c **** #else
 339:Middlewares/Third_Party/LwIP/src/core/memp.c **** memp_malloc_fn(memp_t type, const char *file, const int line)
 340:Middlewares/Third_Party/LwIP/src/core/memp.c **** #endif
 341:Middlewares/Third_Party/LwIP/src/core/memp.c **** {
 342:Middlewares/Third_Party/LwIP/src/core/memp.c ****   void *memp;
 343:Middlewares/Third_Party/LwIP/src/core/memp.c ****   LWIP_ERROR("memp_malloc: type < MEMP_MAX", (type < MEMP_MAX), return NULL;);
 344:Middlewares/Third_Party/LwIP/src/core/memp.c **** 
 345:Middlewares/Third_Party/LwIP/src/core/memp.c **** #if MEMP_OVERFLOW_CHECK >= 2
 346:Middlewares/Third_Party/LwIP/src/core/memp.c ****   memp_overflow_check_all();
 347:Middlewares/Third_Party/LwIP/src/core/memp.c **** #endif /* MEMP_OVERFLOW_CHECK >= 2 */
 348:Middlewares/Third_Party/LwIP/src/core/memp.c **** 
 349:Middlewares/Third_Party/LwIP/src/core/memp.c **** #if !MEMP_OVERFLOW_CHECK
 350:Middlewares/Third_Party/LwIP/src/core/memp.c ****   memp = do_memp_malloc_pool(memp_pools[type]);
 351:Middlewares/Third_Party/LwIP/src/core/memp.c **** #else
 352:Middlewares/Third_Party/LwIP/src/core/memp.c ****   memp = do_memp_malloc_pool_fn(memp_pools[type], file, line);
 353:Middlewares/Third_Party/LwIP/src/core/memp.c **** #endif
 354:Middlewares/Third_Party/LwIP/src/core/memp.c **** 
 355:Middlewares/Third_Party/LwIP/src/core/memp.c ****   return memp;
 356:Middlewares/Third_Party/LwIP/src/core/memp.c **** }
 357:Middlewares/Third_Party/LwIP/src/core/memp.c **** 
 358:Middlewares/Third_Party/LwIP/src/core/memp.c **** static void
 359:Middlewares/Third_Party/LwIP/src/core/memp.c **** do_memp_free_pool(const struct memp_desc *desc, void *mem)
 360:Middlewares/Third_Party/LwIP/src/core/memp.c **** {
ARM GAS  C:\Users\hh\AppData\Local\Temp\ccMhx9gk.s 			page 10


 134              		.loc 1 360 1 is_stmt 1 view -0
 135              		.cfi_startproc
 136              		@ args = 0, pretend = 0, frame = 0
 137              		@ frame_needed = 0, uses_anonymous_args = 0
 138              		.loc 1 360 1 is_stmt 0 view .LVU29
 139 0000 38B5     		push	{r3, r4, r5, lr}
 140              	.LCFI1:
 141              		.cfi_def_cfa_offset 16
 142              		.cfi_offset 3, -16
 143              		.cfi_offset 4, -12
 144              		.cfi_offset 5, -8
 145              		.cfi_offset 14, -4
 146 0002 0546     		mov	r5, r0
 147 0004 0C46     		mov	r4, r1
 361:Middlewares/Third_Party/LwIP/src/core/memp.c ****   struct memp *memp;
 148              		.loc 1 361 3 is_stmt 1 view .LVU30
 362:Middlewares/Third_Party/LwIP/src/core/memp.c ****   SYS_ARCH_DECL_PROTECT(old_level);
 149              		.loc 1 362 3 view .LVU31
 363:Middlewares/Third_Party/LwIP/src/core/memp.c **** 
 364:Middlewares/Third_Party/LwIP/src/core/memp.c ****   LWIP_ASSERT("memp_free: mem properly aligned",
 150              		.loc 1 364 3 view .LVU32
 151              		.loc 1 364 3 view .LVU33
 152 0006 11F0030F 		tst	r1, #3
 153 000a 09D1     		bne	.L12
 154              	.LVL12:
 155              	.L10:
 156              		.loc 1 364 3 view .LVU34
 157              		.loc 1 364 3 view .LVU35
 365:Middlewares/Third_Party/LwIP/src/core/memp.c ****               ((mem_ptr_t)mem % MEM_ALIGNMENT) == 0);
 366:Middlewares/Third_Party/LwIP/src/core/memp.c **** 
 367:Middlewares/Third_Party/LwIP/src/core/memp.c ****   /* cast through void* to get rid of alignment warnings */
 368:Middlewares/Third_Party/LwIP/src/core/memp.c ****   memp = (struct memp *)(void *)((u8_t *)mem - MEMP_SIZE);
 158              		.loc 1 368 3 view .LVU36
 369:Middlewares/Third_Party/LwIP/src/core/memp.c **** 
 370:Middlewares/Third_Party/LwIP/src/core/memp.c ****   SYS_ARCH_PROTECT(old_level);
 159              		.loc 1 370 3 view .LVU37
 160 000c FFF7FEFF 		bl	sys_arch_protect
 161              	.LVL13:
 371:Middlewares/Third_Party/LwIP/src/core/memp.c **** 
 372:Middlewares/Third_Party/LwIP/src/core/memp.c **** #if MEMP_OVERFLOW_CHECK == 1
 373:Middlewares/Third_Party/LwIP/src/core/memp.c ****   memp_overflow_check_element(memp, desc);
 374:Middlewares/Third_Party/LwIP/src/core/memp.c **** #endif /* MEMP_OVERFLOW_CHECK */
 375:Middlewares/Third_Party/LwIP/src/core/memp.c **** 
 376:Middlewares/Third_Party/LwIP/src/core/memp.c **** #if MEMP_STATS
 377:Middlewares/Third_Party/LwIP/src/core/memp.c ****   desc->stats->used--;
 378:Middlewares/Third_Party/LwIP/src/core/memp.c **** #endif
 379:Middlewares/Third_Party/LwIP/src/core/memp.c **** 
 380:Middlewares/Third_Party/LwIP/src/core/memp.c **** #if MEMP_MEM_MALLOC
 381:Middlewares/Third_Party/LwIP/src/core/memp.c ****   LWIP_UNUSED_ARG(desc);
 382:Middlewares/Third_Party/LwIP/src/core/memp.c ****   SYS_ARCH_UNPROTECT(old_level);
 383:Middlewares/Third_Party/LwIP/src/core/memp.c ****   mem_free(memp);
 384:Middlewares/Third_Party/LwIP/src/core/memp.c **** #else /* MEMP_MEM_MALLOC */
 385:Middlewares/Third_Party/LwIP/src/core/memp.c ****   memp->next = *desc->tab;
 162              		.loc 1 385 3 view .LVU38
 163              		.loc 1 385 21 is_stmt 0 view .LVU39
 164 0010 AB68     		ldr	r3, [r5, #8]
 165              		.loc 1 385 16 view .LVU40
ARM GAS  C:\Users\hh\AppData\Local\Temp\ccMhx9gk.s 			page 11


 166 0012 1B68     		ldr	r3, [r3]
 167              		.loc 1 385 14 view .LVU41
 168 0014 2360     		str	r3, [r4]
 386:Middlewares/Third_Party/LwIP/src/core/memp.c ****   *desc->tab = memp;
 169              		.loc 1 386 3 is_stmt 1 view .LVU42
 170              		.loc 1 386 8 is_stmt 0 view .LVU43
 171 0016 AB68     		ldr	r3, [r5, #8]
 172              		.loc 1 386 14 view .LVU44
 173 0018 1C60     		str	r4, [r3]
 387:Middlewares/Third_Party/LwIP/src/core/memp.c **** 
 388:Middlewares/Third_Party/LwIP/src/core/memp.c **** #if MEMP_SANITY_CHECK
 389:Middlewares/Third_Party/LwIP/src/core/memp.c ****   LWIP_ASSERT("memp sanity", memp_sanity(desc));
 390:Middlewares/Third_Party/LwIP/src/core/memp.c **** #endif /* MEMP_SANITY_CHECK */
 391:Middlewares/Third_Party/LwIP/src/core/memp.c **** 
 392:Middlewares/Third_Party/LwIP/src/core/memp.c ****   SYS_ARCH_UNPROTECT(old_level);
 174              		.loc 1 392 3 is_stmt 1 view .LVU45
 175 001a FFF7FEFF 		bl	sys_arch_unprotect
 176              	.LVL14:
 393:Middlewares/Third_Party/LwIP/src/core/memp.c **** #endif /* !MEMP_MEM_MALLOC */
 394:Middlewares/Third_Party/LwIP/src/core/memp.c **** }
 177              		.loc 1 394 1 is_stmt 0 view .LVU46
 178 001e 38BD     		pop	{r3, r4, r5, pc}
 179              	.LVL15:
 180              	.L12:
 364:Middlewares/Third_Party/LwIP/src/core/memp.c ****               ((mem_ptr_t)mem % MEM_ALIGNMENT) == 0);
 181              		.loc 1 364 3 is_stmt 1 discriminator 1 view .LVU47
 364:Middlewares/Third_Party/LwIP/src/core/memp.c ****               ((mem_ptr_t)mem % MEM_ALIGNMENT) == 0);
 182              		.loc 1 364 3 discriminator 1 view .LVU48
 183 0020 034B     		ldr	r3, .L13
 184 0022 4FF4B672 		mov	r2, #364
 185 0026 0349     		ldr	r1, .L13+4
 186              	.LVL16:
 364:Middlewares/Third_Party/LwIP/src/core/memp.c ****               ((mem_ptr_t)mem % MEM_ALIGNMENT) == 0);
 187              		.loc 1 364 3 is_stmt 0 discriminator 1 view .LVU49
 188 0028 0348     		ldr	r0, .L13+8
 189              	.LVL17:
 364:Middlewares/Third_Party/LwIP/src/core/memp.c ****               ((mem_ptr_t)mem % MEM_ALIGNMENT) == 0);
 190              		.loc 1 364 3 discriminator 1 view .LVU50
 191 002a FFF7FEFF 		bl	printf
 192              	.LVL18:
 193 002e EDE7     		b	.L10
 194              	.L14:
 195              		.align	2
 196              	.L13:
 197 0030 00000000 		.word	.LC0
 198 0034 00000000 		.word	.LC3
 199 0038 54000000 		.word	.LC2
 200              		.cfi_endproc
 201              	.LFE177:
 203              		.section	.text.memp_init_pool,"ax",%progbits
 204              		.align	1
 205              		.global	memp_init_pool
 206              		.syntax unified
 207              		.thumb
 208              		.thumb_func
 210              	memp_init_pool:
 211              	.LVL19:
ARM GAS  C:\Users\hh\AppData\Local\Temp\ccMhx9gk.s 			page 12


 212              	.LFB172:
 176:Middlewares/Third_Party/LwIP/src/core/memp.c **** #if MEMP_MEM_MALLOC
 213              		.loc 1 176 1 is_stmt 1 view -0
 214              		.cfi_startproc
 215              		@ args = 0, pretend = 0, frame = 0
 216              		@ frame_needed = 0, uses_anonymous_args = 0
 217              		@ link register save eliminated.
 180:Middlewares/Third_Party/LwIP/src/core/memp.c ****   struct memp *memp;
 218              		.loc 1 180 3 view .LVU52
 181:Middlewares/Third_Party/LwIP/src/core/memp.c **** 
 219              		.loc 1 181 3 view .LVU53
 183:Middlewares/Third_Party/LwIP/src/core/memp.c ****   memp = (struct memp *)LWIP_MEM_ALIGN(desc->base);
 220              		.loc 1 183 3 view .LVU54
 183:Middlewares/Third_Party/LwIP/src/core/memp.c ****   memp = (struct memp *)LWIP_MEM_ALIGN(desc->base);
 221              		.loc 1 183 8 is_stmt 0 view .LVU55
 222 0000 8368     		ldr	r3, [r0, #8]
 183:Middlewares/Third_Party/LwIP/src/core/memp.c ****   memp = (struct memp *)LWIP_MEM_ALIGN(desc->base);
 223              		.loc 1 183 14 view .LVU56
 224 0002 0022     		movs	r2, #0
 225 0004 1A60     		str	r2, [r3]
 184:Middlewares/Third_Party/LwIP/src/core/memp.c **** #if MEMP_MEM_INIT
 226              		.loc 1 184 3 is_stmt 1 view .LVU57
 184:Middlewares/Third_Party/LwIP/src/core/memp.c **** #if MEMP_MEM_INIT
 227              		.loc 1 184 25 is_stmt 0 view .LVU58
 228 0006 4368     		ldr	r3, [r0, #4]
 229 0008 0333     		adds	r3, r3, #3
 230 000a 23F00303 		bic	r3, r3, #3
 231              	.LVL20:
 194:Middlewares/Third_Party/LwIP/src/core/memp.c ****     memp->next = *desc->tab;
 232              		.loc 1 194 3 is_stmt 1 view .LVU59
 194:Middlewares/Third_Party/LwIP/src/core/memp.c ****     memp->next = *desc->tab;
 233              		.loc 1 194 3 is_stmt 0 view .LVU60
 234 000e 07E0     		b	.L16
 235              	.LVL21:
 236              	.L17:
 195:Middlewares/Third_Party/LwIP/src/core/memp.c ****     *desc->tab = memp;
 237              		.loc 1 195 5 is_stmt 1 view .LVU61
 195:Middlewares/Third_Party/LwIP/src/core/memp.c ****     *desc->tab = memp;
 238              		.loc 1 195 23 is_stmt 0 view .LVU62
 239 0010 8168     		ldr	r1, [r0, #8]
 195:Middlewares/Third_Party/LwIP/src/core/memp.c ****     *desc->tab = memp;
 240              		.loc 1 195 18 view .LVU63
 241 0012 0968     		ldr	r1, [r1]
 195:Middlewares/Third_Party/LwIP/src/core/memp.c ****     *desc->tab = memp;
 242              		.loc 1 195 16 view .LVU64
 243 0014 1960     		str	r1, [r3]
 196:Middlewares/Third_Party/LwIP/src/core/memp.c **** #if MEMP_OVERFLOW_CHECK
 244              		.loc 1 196 5 is_stmt 1 view .LVU65
 196:Middlewares/Third_Party/LwIP/src/core/memp.c **** #if MEMP_OVERFLOW_CHECK
 245              		.loc 1 196 10 is_stmt 0 view .LVU66
 246 0016 8168     		ldr	r1, [r0, #8]
 196:Middlewares/Third_Party/LwIP/src/core/memp.c **** #if MEMP_OVERFLOW_CHECK
 247              		.loc 1 196 16 view .LVU67
 248 0018 0B60     		str	r3, [r1]
 201:Middlewares/Third_Party/LwIP/src/core/memp.c **** #if MEMP_OVERFLOW_CHECK
 249              		.loc 1 201 5 is_stmt 1 view .LVU68
 201:Middlewares/Third_Party/LwIP/src/core/memp.c **** #if MEMP_OVERFLOW_CHECK
ARM GAS  C:\Users\hh\AppData\Local\Temp\ccMhx9gk.s 			page 13


 250              		.loc 1 201 67 is_stmt 0 view .LVU69
 251 001a 0188     		ldrh	r1, [r0]
 201:Middlewares/Third_Party/LwIP/src/core/memp.c **** #if MEMP_OVERFLOW_CHECK
 252              		.loc 1 201 10 view .LVU70
 253 001c 0B44     		add	r3, r3, r1
 254              	.LVL22:
 194:Middlewares/Third_Party/LwIP/src/core/memp.c ****     memp->next = *desc->tab;
 255              		.loc 1 194 30 is_stmt 1 discriminator 3 view .LVU71
 256 001e 0132     		adds	r2, r2, #1
 257              	.LVL23:
 258              	.L16:
 194:Middlewares/Third_Party/LwIP/src/core/memp.c ****     memp->next = *desc->tab;
 259              		.loc 1 194 17 discriminator 1 view .LVU72
 194:Middlewares/Third_Party/LwIP/src/core/memp.c ****     memp->next = *desc->tab;
 260              		.loc 1 194 23 is_stmt 0 discriminator 1 view .LVU73
 261 0020 4188     		ldrh	r1, [r0, #2]
 194:Middlewares/Third_Party/LwIP/src/core/memp.c ****     memp->next = *desc->tab;
 262              		.loc 1 194 17 discriminator 1 view .LVU74
 263 0022 9142     		cmp	r1, r2
 264 0024 F4DC     		bgt	.L17
 215:Middlewares/Third_Party/LwIP/src/core/memp.c **** 
 265              		.loc 1 215 1 view .LVU75
 266 0026 7047     		bx	lr
 267              		.cfi_endproc
 268              	.LFE172:
 270              		.section	.text.memp_init,"ax",%progbits
 271              		.align	1
 272              		.global	memp_init
 273              		.syntax unified
 274              		.thumb
 275              		.thumb_func
 277              	memp_init:
 278              	.LFB173:
 225:Middlewares/Third_Party/LwIP/src/core/memp.c ****   u16_t i;
 279              		.loc 1 225 1 is_stmt 1 view -0
 280              		.cfi_startproc
 281              		@ args = 0, pretend = 0, frame = 0
 282              		@ frame_needed = 0, uses_anonymous_args = 0
 283 0000 10B5     		push	{r4, lr}
 284              	.LCFI2:
 285              		.cfi_def_cfa_offset 8
 286              		.cfi_offset 4, -8
 287              		.cfi_offset 14, -4
 226:Middlewares/Third_Party/LwIP/src/core/memp.c **** 
 288              		.loc 1 226 3 view .LVU77
 229:Middlewares/Third_Party/LwIP/src/core/memp.c ****     memp_init_pool(memp_pools[i]);
 289              		.loc 1 229 3 view .LVU78
 290              	.LVL24:
 229:Middlewares/Third_Party/LwIP/src/core/memp.c ****     memp_init_pool(memp_pools[i]);
 291              		.loc 1 229 10 is_stmt 0 view .LVU79
 292 0002 0024     		movs	r4, #0
 229:Middlewares/Third_Party/LwIP/src/core/memp.c ****     memp_init_pool(memp_pools[i]);
 293              		.loc 1 229 3 view .LVU80
 294 0004 06E0     		b	.L19
 295              	.LVL25:
 296              	.L20:
 230:Middlewares/Third_Party/LwIP/src/core/memp.c **** 
ARM GAS  C:\Users\hh\AppData\Local\Temp\ccMhx9gk.s 			page 14


 297              		.loc 1 230 5 is_stmt 1 view .LVU81
 298 0006 054B     		ldr	r3, .L22
 299 0008 53F82400 		ldr	r0, [r3, r4, lsl #2]
 300 000c FFF7FEFF 		bl	memp_init_pool
 301              	.LVL26:
 229:Middlewares/Third_Party/LwIP/src/core/memp.c ****     memp_init_pool(memp_pools[i]);
 302              		.loc 1 229 48 discriminator 3 view .LVU82
 303 0010 0134     		adds	r4, r4, #1
 304              	.LVL27:
 229:Middlewares/Third_Party/LwIP/src/core/memp.c ****     memp_init_pool(memp_pools[i]);
 305              		.loc 1 229 48 is_stmt 0 discriminator 3 view .LVU83
 306 0012 A4B2     		uxth	r4, r4
 307              	.LVL28:
 308              	.L19:
 229:Middlewares/Third_Party/LwIP/src/core/memp.c ****     memp_init_pool(memp_pools[i]);
 309              		.loc 1 229 17 is_stmt 1 discriminator 1 view .LVU84
 310 0014 0B2C     		cmp	r4, #11
 311 0016 F6D9     		bls	.L20
 241:Middlewares/Third_Party/LwIP/src/core/memp.c **** 
 312              		.loc 1 241 1 is_stmt 0 view .LVU85
 313 0018 10BD     		pop	{r4, pc}
 314              	.LVL29:
 315              	.L23:
 241:Middlewares/Third_Party/LwIP/src/core/memp.c **** 
 316              		.loc 1 241 1 view .LVU86
 317 001a 00BF     		.align	2
 318              	.L22:
 319 001c 00000000 		.word	memp_pools
 320              		.cfi_endproc
 321              	.LFE173:
 323              		.section	.rodata.memp_malloc_pool.str1.4,"aMS",%progbits,1
 324              		.align	2
 325              	.LC4:
 326 0000 696E7661 		.ascii	"invalid pool desc\000"
 326      6C696420 
 326      706F6F6C 
 326      20646573 
 326      6300
 327              		.section	.text.memp_malloc_pool,"ax",%progbits
 328              		.align	1
 329              		.global	memp_malloc_pool
 330              		.syntax unified
 331              		.thumb
 332              		.thumb_func
 334              	memp_malloc_pool:
 335              	.LVL30:
 336              	.LFB175:
 315:Middlewares/Third_Party/LwIP/src/core/memp.c ****   LWIP_ASSERT("invalid pool desc", desc != NULL);
 337              		.loc 1 315 1 is_stmt 1 view -0
 338              		.cfi_startproc
 339              		@ args = 0, pretend = 0, frame = 0
 340              		@ frame_needed = 0, uses_anonymous_args = 0
 315:Middlewares/Third_Party/LwIP/src/core/memp.c ****   LWIP_ASSERT("invalid pool desc", desc != NULL);
 341              		.loc 1 315 1 is_stmt 0 view .LVU88
 342 0000 10B5     		push	{r4, lr}
 343              	.LCFI3:
 344              		.cfi_def_cfa_offset 8
ARM GAS  C:\Users\hh\AppData\Local\Temp\ccMhx9gk.s 			page 15


 345              		.cfi_offset 4, -8
 346              		.cfi_offset 14, -4
 316:Middlewares/Third_Party/LwIP/src/core/memp.c ****   if (desc == NULL) {
 347              		.loc 1 316 3 is_stmt 1 view .LVU89
 316:Middlewares/Third_Party/LwIP/src/core/memp.c ****   if (desc == NULL) {
 348              		.loc 1 316 3 view .LVU90
 349 0002 10B1     		cbz	r0, .L25
 316:Middlewares/Third_Party/LwIP/src/core/memp.c ****   if (desc == NULL) {
 350              		.loc 1 316 3 view .LVU91
 316:Middlewares/Third_Party/LwIP/src/core/memp.c ****   if (desc == NULL) {
 351              		.loc 1 316 3 view .LVU92
 317:Middlewares/Third_Party/LwIP/src/core/memp.c ****     return NULL;
 352              		.loc 1 317 3 view .LVU93
 322:Middlewares/Third_Party/LwIP/src/core/memp.c **** #else
 353              		.loc 1 322 3 view .LVU94
 322:Middlewares/Third_Party/LwIP/src/core/memp.c **** #else
 354              		.loc 1 322 10 is_stmt 0 view .LVU95
 355 0004 FFF7FEFF 		bl	do_memp_malloc_pool
 356              	.LVL31:
 357              	.L24:
 326:Middlewares/Third_Party/LwIP/src/core/memp.c **** 
 358              		.loc 1 326 1 view .LVU96
 359 0008 10BD     		pop	{r4, pc}
 360              	.LVL32:
 361              	.L25:
 326:Middlewares/Third_Party/LwIP/src/core/memp.c **** 
 362              		.loc 1 326 1 view .LVU97
 363 000a 0446     		mov	r4, r0
 316:Middlewares/Third_Party/LwIP/src/core/memp.c ****   if (desc == NULL) {
 364              		.loc 1 316 3 is_stmt 1 discriminator 1 view .LVU98
 316:Middlewares/Third_Party/LwIP/src/core/memp.c ****   if (desc == NULL) {
 365              		.loc 1 316 3 discriminator 1 view .LVU99
 366 000c 044B     		ldr	r3, .L28
 367 000e 4FF49E72 		mov	r2, #316
 368 0012 0449     		ldr	r1, .L28+4
 369 0014 0448     		ldr	r0, .L28+8
 370              	.LVL33:
 316:Middlewares/Third_Party/LwIP/src/core/memp.c ****   if (desc == NULL) {
 371              		.loc 1 316 3 is_stmt 0 discriminator 1 view .LVU100
 372 0016 FFF7FEFF 		bl	printf
 373              	.LVL34:
 316:Middlewares/Third_Party/LwIP/src/core/memp.c ****   if (desc == NULL) {
 374              		.loc 1 316 3 is_stmt 1 view .LVU101
 316:Middlewares/Third_Party/LwIP/src/core/memp.c ****   if (desc == NULL) {
 375              		.loc 1 316 3 view .LVU102
 317:Middlewares/Third_Party/LwIP/src/core/memp.c ****     return NULL;
 376              		.loc 1 317 3 view .LVU103
 318:Middlewares/Third_Party/LwIP/src/core/memp.c ****   }
 377              		.loc 1 318 5 view .LVU104
 318:Middlewares/Third_Party/LwIP/src/core/memp.c ****   }
 378              		.loc 1 318 12 is_stmt 0 view .LVU105
 379 001a 2046     		mov	r0, r4
 380 001c F4E7     		b	.L24
 381              	.L29:
 382 001e 00BF     		.align	2
 383              	.L28:
 384 0020 00000000 		.word	.LC0
ARM GAS  C:\Users\hh\AppData\Local\Temp\ccMhx9gk.s 			page 16


 385 0024 00000000 		.word	.LC4
 386 0028 54000000 		.word	.LC2
 387              		.cfi_endproc
 388              	.LFE175:
 390              		.section	.text.memp_malloc,"ax",%progbits
 391              		.align	1
 392              		.global	memp_malloc
 393              		.syntax unified
 394              		.thumb
 395              		.thumb_func
 397              	memp_malloc:
 398              	.LVL35:
 399              	.LFB176:
 341:Middlewares/Third_Party/LwIP/src/core/memp.c ****   void *memp;
 400              		.loc 1 341 1 is_stmt 1 view -0
 401              		.cfi_startproc
 402              		@ args = 0, pretend = 0, frame = 0
 403              		@ frame_needed = 0, uses_anonymous_args = 0
 342:Middlewares/Third_Party/LwIP/src/core/memp.c ****   LWIP_ERROR("memp_malloc: type < MEMP_MAX", (type < MEMP_MAX), return NULL;);
 404              		.loc 1 342 3 view .LVU107
 343:Middlewares/Third_Party/LwIP/src/core/memp.c **** 
 405              		.loc 1 343 3 view .LVU108
 343:Middlewares/Third_Party/LwIP/src/core/memp.c **** 
 406              		.loc 1 343 3 view .LVU109
 407 0000 0B28     		cmp	r0, #11
 408 0002 06D8     		bhi	.L32
 341:Middlewares/Third_Party/LwIP/src/core/memp.c ****   void *memp;
 409              		.loc 1 341 1 is_stmt 0 view .LVU110
 410 0004 08B5     		push	{r3, lr}
 411              	.LCFI4:
 412              		.cfi_def_cfa_offset 8
 413              		.cfi_offset 3, -8
 414              		.cfi_offset 14, -4
 343:Middlewares/Third_Party/LwIP/src/core/memp.c **** 
 415              		.loc 1 343 3 is_stmt 1 view .LVU111
 343:Middlewares/Third_Party/LwIP/src/core/memp.c **** 
 416              		.loc 1 343 3 view .LVU112
 350:Middlewares/Third_Party/LwIP/src/core/memp.c **** #else
 417              		.loc 1 350 3 view .LVU113
 350:Middlewares/Third_Party/LwIP/src/core/memp.c **** #else
 418              		.loc 1 350 10 is_stmt 0 view .LVU114
 419 0006 044B     		ldr	r3, .L37
 420 0008 53F82000 		ldr	r0, [r3, r0, lsl #2]
 421              	.LVL36:
 350:Middlewares/Third_Party/LwIP/src/core/memp.c **** #else
 422              		.loc 1 350 10 view .LVU115
 423 000c FFF7FEFF 		bl	do_memp_malloc_pool
 424              	.LVL37:
 355:Middlewares/Third_Party/LwIP/src/core/memp.c **** }
 425              		.loc 1 355 3 is_stmt 1 view .LVU116
 356:Middlewares/Third_Party/LwIP/src/core/memp.c **** 
 426              		.loc 1 356 1 is_stmt 0 view .LVU117
 427 0010 08BD     		pop	{r3, pc}
 428              	.LVL38:
 429              	.L32:
 430              	.LCFI5:
 431              		.cfi_def_cfa_offset 0
ARM GAS  C:\Users\hh\AppData\Local\Temp\ccMhx9gk.s 			page 17


 432              		.cfi_restore 3
 433              		.cfi_restore 14
 343:Middlewares/Third_Party/LwIP/src/core/memp.c **** 
 434              		.loc 1 343 3 discriminator 1 view .LVU118
 435 0012 0020     		movs	r0, #0
 436              	.LVL39:
 356:Middlewares/Third_Party/LwIP/src/core/memp.c **** 
 437              		.loc 1 356 1 view .LVU119
 438 0014 7047     		bx	lr
 439              	.L38:
 440 0016 00BF     		.align	2
 441              	.L37:
 442 0018 00000000 		.word	memp_pools
 443              		.cfi_endproc
 444              	.LFE176:
 446              		.section	.text.memp_free_pool,"ax",%progbits
 447              		.align	1
 448              		.global	memp_free_pool
 449              		.syntax unified
 450              		.thumb
 451              		.thumb_func
 453              	memp_free_pool:
 454              	.LVL40:
 455              	.LFB178:
 395:Middlewares/Third_Party/LwIP/src/core/memp.c **** 
 396:Middlewares/Third_Party/LwIP/src/core/memp.c **** /**
 397:Middlewares/Third_Party/LwIP/src/core/memp.c ****  * Put a custom pool element back into its pool.
 398:Middlewares/Third_Party/LwIP/src/core/memp.c ****  *
 399:Middlewares/Third_Party/LwIP/src/core/memp.c ****  * @param desc the pool where to put mem
 400:Middlewares/Third_Party/LwIP/src/core/memp.c ****  * @param mem the memp element to free
 401:Middlewares/Third_Party/LwIP/src/core/memp.c ****  */
 402:Middlewares/Third_Party/LwIP/src/core/memp.c **** void
 403:Middlewares/Third_Party/LwIP/src/core/memp.c **** memp_free_pool(const struct memp_desc *desc, void *mem)
 404:Middlewares/Third_Party/LwIP/src/core/memp.c **** {
 456              		.loc 1 404 1 is_stmt 1 view -0
 457              		.cfi_startproc
 458              		@ args = 0, pretend = 0, frame = 0
 459              		@ frame_needed = 0, uses_anonymous_args = 0
 460              		.loc 1 404 1 is_stmt 0 view .LVU121
 461 0000 38B5     		push	{r3, r4, r5, lr}
 462              	.LCFI6:
 463              		.cfi_def_cfa_offset 16
 464              		.cfi_offset 3, -16
 465              		.cfi_offset 4, -12
 466              		.cfi_offset 5, -8
 467              		.cfi_offset 14, -4
 468 0002 0D46     		mov	r5, r1
 405:Middlewares/Third_Party/LwIP/src/core/memp.c ****   LWIP_ASSERT("invalid pool desc", desc != NULL);
 469              		.loc 1 405 3 is_stmt 1 view .LVU122
 470              		.loc 1 405 3 view .LVU123
 471 0004 0446     		mov	r4, r0
 472 0006 20B1     		cbz	r0, .L43
 473              	.LVL41:
 474              	.L40:
 475              		.loc 1 405 3 view .LVU124
 476              		.loc 1 405 3 view .LVU125
 406:Middlewares/Third_Party/LwIP/src/core/memp.c ****   if ((desc == NULL) || (mem == NULL)) {
ARM GAS  C:\Users\hh\AppData\Local\Temp\ccMhx9gk.s 			page 18


 477              		.loc 1 406 3 view .LVU126
 478              		.loc 1 406 6 is_stmt 0 view .LVU127
 479 0008 002D     		cmp	r5, #0
 480 000a 18BF     		it	ne
 481 000c 002C     		cmpne	r4, #0
 482 000e 08D1     		bne	.L44
 483              	.L39:
 407:Middlewares/Third_Party/LwIP/src/core/memp.c ****     return;
 408:Middlewares/Third_Party/LwIP/src/core/memp.c ****   }
 409:Middlewares/Third_Party/LwIP/src/core/memp.c **** 
 410:Middlewares/Third_Party/LwIP/src/core/memp.c ****   do_memp_free_pool(desc, mem);
 411:Middlewares/Third_Party/LwIP/src/core/memp.c **** }
 484              		.loc 1 411 1 view .LVU128
 485 0010 38BD     		pop	{r3, r4, r5, pc}
 486              	.LVL42:
 487              	.L43:
 405:Middlewares/Third_Party/LwIP/src/core/memp.c ****   if ((desc == NULL) || (mem == NULL)) {
 488              		.loc 1 405 3 is_stmt 1 discriminator 1 view .LVU129
 405:Middlewares/Third_Party/LwIP/src/core/memp.c ****   if ((desc == NULL) || (mem == NULL)) {
 489              		.loc 1 405 3 discriminator 1 view .LVU130
 490 0012 064B     		ldr	r3, .L45
 491 0014 40F29512 		movw	r2, #405
 492 0018 0549     		ldr	r1, .L45+4
 493              	.LVL43:
 405:Middlewares/Third_Party/LwIP/src/core/memp.c ****   if ((desc == NULL) || (mem == NULL)) {
 494              		.loc 1 405 3 is_stmt 0 discriminator 1 view .LVU131
 495 001a 0648     		ldr	r0, .L45+8
 496              	.LVL44:
 405:Middlewares/Third_Party/LwIP/src/core/memp.c ****   if ((desc == NULL) || (mem == NULL)) {
 497              		.loc 1 405 3 discriminator 1 view .LVU132
 498 001c FFF7FEFF 		bl	printf
 499              	.LVL45:
 500 0020 F2E7     		b	.L40
 501              	.L44:
 410:Middlewares/Third_Party/LwIP/src/core/memp.c **** }
 502              		.loc 1 410 3 is_stmt 1 view .LVU133
 503 0022 2946     		mov	r1, r5
 504 0024 2046     		mov	r0, r4
 505 0026 FFF7FEFF 		bl	do_memp_free_pool
 506              	.LVL46:
 507 002a F1E7     		b	.L39
 508              	.L46:
 509              		.align	2
 510              	.L45:
 511 002c 00000000 		.word	.LC0
 512 0030 00000000 		.word	.LC4
 513 0034 54000000 		.word	.LC2
 514              		.cfi_endproc
 515              	.LFE178:
 517              		.section	.text.memp_free,"ax",%progbits
 518              		.align	1
 519              		.global	memp_free
 520              		.syntax unified
 521              		.thumb
 522              		.thumb_func
 524              	memp_free:
 525              	.LVL47:
ARM GAS  C:\Users\hh\AppData\Local\Temp\ccMhx9gk.s 			page 19


 526              	.LFB179:
 412:Middlewares/Third_Party/LwIP/src/core/memp.c **** 
 413:Middlewares/Third_Party/LwIP/src/core/memp.c **** /**
 414:Middlewares/Third_Party/LwIP/src/core/memp.c ****  * Put an element back into its pool.
 415:Middlewares/Third_Party/LwIP/src/core/memp.c ****  *
 416:Middlewares/Third_Party/LwIP/src/core/memp.c ****  * @param type the pool where to put mem
 417:Middlewares/Third_Party/LwIP/src/core/memp.c ****  * @param mem the memp element to free
 418:Middlewares/Third_Party/LwIP/src/core/memp.c ****  */
 419:Middlewares/Third_Party/LwIP/src/core/memp.c **** void
 420:Middlewares/Third_Party/LwIP/src/core/memp.c **** memp_free(memp_t type, void *mem)
 421:Middlewares/Third_Party/LwIP/src/core/memp.c **** {
 527              		.loc 1 421 1 view -0
 528              		.cfi_startproc
 529              		@ args = 0, pretend = 0, frame = 0
 530              		@ frame_needed = 0, uses_anonymous_args = 0
 422:Middlewares/Third_Party/LwIP/src/core/memp.c **** #ifdef LWIP_HOOK_MEMP_AVAILABLE
 423:Middlewares/Third_Party/LwIP/src/core/memp.c ****   struct memp *old_first;
 424:Middlewares/Third_Party/LwIP/src/core/memp.c **** #endif
 425:Middlewares/Third_Party/LwIP/src/core/memp.c **** 
 426:Middlewares/Third_Party/LwIP/src/core/memp.c ****   LWIP_ERROR("memp_free: type < MEMP_MAX", (type < MEMP_MAX), return;);
 531              		.loc 1 426 3 view .LVU135
 532              		.loc 1 426 3 view .LVU136
 533 0000 0B28     		cmp	r0, #11
 534 0002 07D8     		bhi	.L50
 535              		.loc 1 426 3 view .LVU137
 536              		.loc 1 426 3 view .LVU138
 427:Middlewares/Third_Party/LwIP/src/core/memp.c **** 
 428:Middlewares/Third_Party/LwIP/src/core/memp.c ****   if (mem == NULL) {
 537              		.loc 1 428 3 view .LVU139
 538              		.loc 1 428 6 is_stmt 0 view .LVU140
 539 0004 31B1     		cbz	r1, .L50
 421:Middlewares/Third_Party/LwIP/src/core/memp.c **** #ifdef LWIP_HOOK_MEMP_AVAILABLE
 540              		.loc 1 421 1 view .LVU141
 541 0006 08B5     		push	{r3, lr}
 542              	.LCFI7:
 543              		.cfi_def_cfa_offset 8
 544              		.cfi_offset 3, -8
 545              		.cfi_offset 14, -4
 429:Middlewares/Third_Party/LwIP/src/core/memp.c ****     return;
 430:Middlewares/Third_Party/LwIP/src/core/memp.c ****   }
 431:Middlewares/Third_Party/LwIP/src/core/memp.c **** 
 432:Middlewares/Third_Party/LwIP/src/core/memp.c **** #if MEMP_OVERFLOW_CHECK >= 2
 433:Middlewares/Third_Party/LwIP/src/core/memp.c ****   memp_overflow_check_all();
 434:Middlewares/Third_Party/LwIP/src/core/memp.c **** #endif /* MEMP_OVERFLOW_CHECK >= 2 */
 435:Middlewares/Third_Party/LwIP/src/core/memp.c **** 
 436:Middlewares/Third_Party/LwIP/src/core/memp.c **** #ifdef LWIP_HOOK_MEMP_AVAILABLE
 437:Middlewares/Third_Party/LwIP/src/core/memp.c ****   old_first = *memp_pools[type]->tab;
 438:Middlewares/Third_Party/LwIP/src/core/memp.c **** #endif
 439:Middlewares/Third_Party/LwIP/src/core/memp.c **** 
 440:Middlewares/Third_Party/LwIP/src/core/memp.c ****   do_memp_free_pool(memp_pools[type], mem);
 546              		.loc 1 440 3 is_stmt 1 view .LVU142
 547 0008 034B     		ldr	r3, .L53
 548 000a 53F82000 		ldr	r0, [r3, r0, lsl #2]
 549              	.LVL48:
 550              		.loc 1 440 3 is_stmt 0 view .LVU143
 551 000e FFF7FEFF 		bl	do_memp_free_pool
 552              	.LVL49:
ARM GAS  C:\Users\hh\AppData\Local\Temp\ccMhx9gk.s 			page 20


 441:Middlewares/Third_Party/LwIP/src/core/memp.c **** 
 442:Middlewares/Third_Party/LwIP/src/core/memp.c **** #ifdef LWIP_HOOK_MEMP_AVAILABLE
 443:Middlewares/Third_Party/LwIP/src/core/memp.c ****   if (old_first == NULL) {
 444:Middlewares/Third_Party/LwIP/src/core/memp.c ****     LWIP_HOOK_MEMP_AVAILABLE(type);
 445:Middlewares/Third_Party/LwIP/src/core/memp.c ****   }
 446:Middlewares/Third_Party/LwIP/src/core/memp.c **** #endif
 447:Middlewares/Third_Party/LwIP/src/core/memp.c **** }
 553              		.loc 1 447 1 view .LVU144
 554 0012 08BD     		pop	{r3, pc}
 555              	.LVL50:
 556              	.L50:
 557              	.LCFI8:
 558              		.cfi_def_cfa_offset 0
 559              		.cfi_restore 3
 560              		.cfi_restore 14
 561              		.loc 1 447 1 view .LVU145
 562 0014 7047     		bx	lr
 563              	.L54:
 564 0016 00BF     		.align	2
 565              	.L53:
 566 0018 00000000 		.word	memp_pools
 567              		.cfi_endproc
 568              	.LFE179:
 570              		.global	memp_pools
 571              		.section	.rodata.memp_pools,"a"
 572              		.align	2
 575              	memp_pools:
 576 0000 00000000 		.word	memp_TCP_PCB
 577 0004 00000000 		.word	memp_TCP_PCB_LISTEN
 578 0008 00000000 		.word	memp_TCP_SEG
 579 000c 00000000 		.word	memp_REASSDATA
 580 0010 00000000 		.word	memp_FRAG_PBUF
 581 0014 00000000 		.word	memp_NETBUF
 582 0018 00000000 		.word	memp_NETCONN
 583 001c 00000000 		.word	memp_TCPIP_MSG_API
 584 0020 00000000 		.word	memp_TCPIP_MSG_INPKT
 585 0024 00000000 		.word	memp_SYS_TIMEOUT
 586 0028 00000000 		.word	memp_PBUF
 587 002c 00000000 		.word	memp_PBUF_POOL
 588              		.global	memp_PBUF_POOL
 589              		.section	.rodata.memp_PBUF_POOL,"a"
 590              		.align	2
 593              	memp_PBUF_POOL:
 594 0000 6002     		.short	608
 595 0002 1000     		.short	16
 596 0004 00000000 		.word	memp_memory_PBUF_POOL_base
 597 0008 00000000 		.word	memp_tab_PBUF_POOL
 598              		.section	.bss.memp_tab_PBUF_POOL,"aw",%nobits
 599              		.align	2
 602              	memp_tab_PBUF_POOL:
 603 0000 00000000 		.space	4
 604              		.global	memp_memory_PBUF_POOL_base
 605              		.section	.bss.memp_memory_PBUF_POOL_base,"aw",%nobits
 606              		.align	2
 609              	memp_memory_PBUF_POOL_base:
 610 0000 00000000 		.space	9731
 610      00000000 
ARM GAS  C:\Users\hh\AppData\Local\Temp\ccMhx9gk.s 			page 21


 610      00000000 
 610      00000000 
 610      00000000 
 611              		.global	memp_PBUF
 612              		.section	.rodata.memp_PBUF,"a"
 613              		.align	2
 616              	memp_PBUF:
 617 0000 1000     		.short	16
 618 0002 1000     		.short	16
 619 0004 00000000 		.word	memp_memory_PBUF_base
 620 0008 00000000 		.word	memp_tab_PBUF
 621              		.section	.bss.memp_tab_PBUF,"aw",%nobits
 622              		.align	2
 625              	memp_tab_PBUF:
 626 0000 00000000 		.space	4
 627              		.global	memp_memory_PBUF_base
 628              		.section	.bss.memp_memory_PBUF_base,"aw",%nobits
 629              		.align	2
 632              	memp_memory_PBUF_base:
 633 0000 00000000 		.space	259
 633      00000000 
 633      00000000 
 633      00000000 
 633      00000000 
 634              		.global	memp_SYS_TIMEOUT
 635              		.section	.rodata.memp_SYS_TIMEOUT,"a"
 636              		.align	2
 639              	memp_SYS_TIMEOUT:
 640 0000 1000     		.short	16
 641 0002 0300     		.short	3
 642 0004 00000000 		.word	memp_memory_SYS_TIMEOUT_base
 643 0008 00000000 		.word	memp_tab_SYS_TIMEOUT
 644              		.section	.bss.memp_tab_SYS_TIMEOUT,"aw",%nobits
 645              		.align	2
 648              	memp_tab_SYS_TIMEOUT:
 649 0000 00000000 		.space	4
 650              		.global	memp_memory_SYS_TIMEOUT_base
 651              		.section	.bss.memp_memory_SYS_TIMEOUT_base,"aw",%nobits
 652              		.align	2
 655              	memp_memory_SYS_TIMEOUT_base:
 656 0000 00000000 		.space	51
 656      00000000 
 656      00000000 
 656      00000000 
 656      00000000 
 657              		.global	memp_TCPIP_MSG_INPKT
 658              		.section	.rodata.memp_TCPIP_MSG_INPKT,"a"
 659              		.align	2
 662              	memp_TCPIP_MSG_INPKT:
 663 0000 1000     		.short	16
 664 0002 0800     		.short	8
 665 0004 00000000 		.word	memp_memory_TCPIP_MSG_INPKT_base
 666 0008 00000000 		.word	memp_tab_TCPIP_MSG_INPKT
 667              		.section	.bss.memp_tab_TCPIP_MSG_INPKT,"aw",%nobits
 668              		.align	2
 671              	memp_tab_TCPIP_MSG_INPKT:
 672 0000 00000000 		.space	4
ARM GAS  C:\Users\hh\AppData\Local\Temp\ccMhx9gk.s 			page 22


 673              		.global	memp_memory_TCPIP_MSG_INPKT_base
 674              		.section	.bss.memp_memory_TCPIP_MSG_INPKT_base,"aw",%nobits
 675              		.align	2
 678              	memp_memory_TCPIP_MSG_INPKT_base:
 679 0000 00000000 		.space	131
 679      00000000 
 679      00000000 
 679      00000000 
 679      00000000 
 680              		.global	memp_TCPIP_MSG_API
 681              		.section	.rodata.memp_TCPIP_MSG_API,"a"
 682              		.align	2
 685              	memp_TCPIP_MSG_API:
 686 0000 1000     		.short	16
 687 0002 0800     		.short	8
 688 0004 00000000 		.word	memp_memory_TCPIP_MSG_API_base
 689 0008 00000000 		.word	memp_tab_TCPIP_MSG_API
 690              		.section	.bss.memp_tab_TCPIP_MSG_API,"aw",%nobits
 691              		.align	2
 694              	memp_tab_TCPIP_MSG_API:
 695 0000 00000000 		.space	4
 696              		.global	memp_memory_TCPIP_MSG_API_base
 697              		.section	.bss.memp_memory_TCPIP_MSG_API_base,"aw",%nobits
 698              		.align	2
 701              	memp_memory_TCPIP_MSG_API_base:
 702 0000 00000000 		.space	131
 702      00000000 
 702      00000000 
 702      00000000 
 702      00000000 
 703              		.global	memp_NETCONN
 704              		.section	.rodata.memp_NETCONN,"a"
 705              		.align	2
 708              	memp_NETCONN:
 709 0000 2800     		.short	40
 710 0002 0400     		.short	4
 711 0004 00000000 		.word	memp_memory_NETCONN_base
 712 0008 00000000 		.word	memp_tab_NETCONN
 713              		.section	.bss.memp_tab_NETCONN,"aw",%nobits
 714              		.align	2
 717              	memp_tab_NETCONN:
 718 0000 00000000 		.space	4
 719              		.global	memp_memory_NETCONN_base
 720              		.section	.bss.memp_memory_NETCONN_base,"aw",%nobits
 721              		.align	2
 724              	memp_memory_NETCONN_base:
 725 0000 00000000 		.space	163
 725      00000000 
 725      00000000 
 725      00000000 
 725      00000000 
 726              		.global	memp_NETBUF
 727              		.section	.rodata.memp_NETBUF,"a"
 728              		.align	2
 731              	memp_NETBUF:
 732 0000 1000     		.short	16
 733 0002 0200     		.short	2
ARM GAS  C:\Users\hh\AppData\Local\Temp\ccMhx9gk.s 			page 23


 734 0004 00000000 		.word	memp_memory_NETBUF_base
 735 0008 00000000 		.word	memp_tab_NETBUF
 736              		.section	.bss.memp_tab_NETBUF,"aw",%nobits
 737              		.align	2
 740              	memp_tab_NETBUF:
 741 0000 00000000 		.space	4
 742              		.global	memp_memory_NETBUF_base
 743              		.section	.bss.memp_memory_NETBUF_base,"aw",%nobits
 744              		.align	2
 747              	memp_memory_NETBUF_base:
 748 0000 00000000 		.space	35
 748      00000000 
 748      00000000 
 748      00000000 
 748      00000000 
 749              		.global	memp_FRAG_PBUF
 750              		.section	.rodata.memp_FRAG_PBUF,"a"
 751              		.align	2
 754              	memp_FRAG_PBUF:
 755 0000 1800     		.short	24
 756 0002 0F00     		.short	15
 757 0004 00000000 		.word	memp_memory_FRAG_PBUF_base
 758 0008 00000000 		.word	memp_tab_FRAG_PBUF
 759              		.section	.bss.memp_tab_FRAG_PBUF,"aw",%nobits
 760              		.align	2
 763              	memp_tab_FRAG_PBUF:
 764 0000 00000000 		.space	4
 765              		.global	memp_memory_FRAG_PBUF_base
 766              		.section	.bss.memp_memory_FRAG_PBUF_base,"aw",%nobits
 767              		.align	2
 770              	memp_memory_FRAG_PBUF_base:
 771 0000 00000000 		.space	363
 771      00000000 
 771      00000000 
 771      00000000 
 771      00000000 
 772              		.global	memp_REASSDATA
 773              		.section	.rodata.memp_REASSDATA,"a"
 774              		.align	2
 777              	memp_REASSDATA:
 778 0000 2000     		.short	32
 779 0002 0500     		.short	5
 780 0004 00000000 		.word	memp_memory_REASSDATA_base
 781 0008 00000000 		.word	memp_tab_REASSDATA
 782              		.section	.bss.memp_tab_REASSDATA,"aw",%nobits
 783              		.align	2
 786              	memp_tab_REASSDATA:
 787 0000 00000000 		.space	4
 788              		.global	memp_memory_REASSDATA_base
 789              		.section	.bss.memp_memory_REASSDATA_base,"aw",%nobits
 790              		.align	2
 793              	memp_memory_REASSDATA_base:
 794 0000 00000000 		.space	163
 794      00000000 
 794      00000000 
 794      00000000 
 794      00000000 
ARM GAS  C:\Users\hh\AppData\Local\Temp\ccMhx9gk.s 			page 24


 795              		.global	memp_TCP_SEG
 796              		.section	.rodata.memp_TCP_SEG,"a"
 797              		.align	2
 800              	memp_TCP_SEG:
 801 0000 1000     		.short	16
 802 0002 1000     		.short	16
 803 0004 00000000 		.word	memp_memory_TCP_SEG_base
 804 0008 00000000 		.word	memp_tab_TCP_SEG
 805              		.section	.bss.memp_tab_TCP_SEG,"aw",%nobits
 806              		.align	2
 809              	memp_tab_TCP_SEG:
 810 0000 00000000 		.space	4
 811              		.global	memp_memory_TCP_SEG_base
 812              		.section	.bss.memp_memory_TCP_SEG_base,"aw",%nobits
 813              		.align	2
 816              	memp_memory_TCP_SEG_base:
 817 0000 00000000 		.space	259
 817      00000000 
 817      00000000 
 817      00000000 
 817      00000000 
 818              		.global	memp_TCP_PCB_LISTEN
 819              		.section	.rodata.memp_TCP_PCB_LISTEN,"a"
 820              		.align	2
 823              	memp_TCP_PCB_LISTEN:
 824 0000 1C00     		.short	28
 825 0002 0800     		.short	8
 826 0004 00000000 		.word	memp_memory_TCP_PCB_LISTEN_base
 827 0008 00000000 		.word	memp_tab_TCP_PCB_LISTEN
 828              		.section	.bss.memp_tab_TCP_PCB_LISTEN,"aw",%nobits
 829              		.align	2
 832              	memp_tab_TCP_PCB_LISTEN:
 833 0000 00000000 		.space	4
 834              		.global	memp_memory_TCP_PCB_LISTEN_base
 835              		.section	.bss.memp_memory_TCP_PCB_LISTEN_base,"aw",%nobits
 836              		.align	2
 839              	memp_memory_TCP_PCB_LISTEN_base:
 840 0000 00000000 		.space	227
 840      00000000 
 840      00000000 
 840      00000000 
 840      00000000 
 841              		.global	memp_TCP_PCB
 842              		.section	.rodata.memp_TCP_PCB,"a"
 843              		.align	2
 846              	memp_TCP_PCB:
 847 0000 9C00     		.short	156
 848 0002 0500     		.short	5
 849 0004 00000000 		.word	memp_memory_TCP_PCB_base
 850 0008 00000000 		.word	memp_tab_TCP_PCB
 851              		.section	.bss.memp_tab_TCP_PCB,"aw",%nobits
 852              		.align	2
 855              	memp_tab_TCP_PCB:
 856 0000 00000000 		.space	4
 857              		.global	memp_memory_TCP_PCB_base
 858              		.section	.bss.memp_memory_TCP_PCB_base,"aw",%nobits
 859              		.align	2
ARM GAS  C:\Users\hh\AppData\Local\Temp\ccMhx9gk.s 			page 25


 862              	memp_memory_TCP_PCB_base:
 863 0000 00000000 		.space	783
 863      00000000 
 863      00000000 
 863      00000000 
 863      00000000 
 864              		.text
 865              	.Letext0:
 866              		.file 2 "C:/Program Files (x86)/ARM/arm-gnu-toolchain-15.2.rel1-mingw-w64-i686-arm-none-eabi/arm-n
 867              		.file 3 "C:/Program Files (x86)/ARM/arm-gnu-toolchain-15.2.rel1-mingw-w64-i686-arm-none-eabi/arm-n
 868              		.file 4 "Middlewares/Third_Party/LwIP/system/arch/cc.h"
 869              		.file 5 "Middlewares/Third_Party/LwIP/src/include/lwip/arch.h"
 870              		.file 6 "Middlewares/Third_Party/LwIP/src/include/lwip/memp.h"
 871              		.file 7 "Middlewares/Third_Party/LwIP/src/include/lwip/priv/memp_priv.h"
 872              		.file 8 "Middlewares/Third_Party/LwIP/src/include/lwip/priv/memp_std.h"
 873              		.file 9 "Middlewares/Third_Party/LwIP/src/include/lwip/sys.h"
 874              		.file 10 "C:/Program Files (x86)/ARM/arm-gnu-toolchain-15.2.rel1-mingw-w64-i686-arm-none-eabi/arm-
ARM GAS  C:\Users\hh\AppData\Local\Temp\ccMhx9gk.s 			page 26

