ARM GAS  C:\Users\hh\AppData\Local\Temp\cc3qgJrr.s 			page 1


   1              		.cpu cortex-m7
   2              		.arch armv7e-m
   3              		.fpu fpv5-d16
   4              		.eabi_attribute 28, 1
   5              		.eabi_attribute 20, 1
   6              		.eabi_attribute 21, 1
   7              		.eabi_attribute 23, 3
   8              		.eabi_attribute 24, 1
   9              		.eabi_attribute 25, 1
  10              		.eabi_attribute 26, 1
  11              		.eabi_attribute 30, 1
  12              		.eabi_attribute 34, 1
  13              		.eabi_attribute 18, 4
  14              		.file	"mqtt.c"
  15              		.text
  16              	.Ltext0:
  17              		.cfi_sections	.debug_frame
  18              		.file 1 "Middlewares/Third_Party/LwIP/src/apps/mqtt/mqtt.c"
  19              		.section	.text.msg_generate_packet_id,"ax",%progbits
  20              		.align	1
  21              		.syntax unified
  22              		.thumb
  23              		.thumb_func
  25              	msg_generate_packet_id:
  26              	.LVL0:
  27              	.LFB172:
   1:Middlewares/Third_Party/LwIP/src/apps/mqtt/mqtt.c **** /**
   2:Middlewares/Third_Party/LwIP/src/apps/mqtt/mqtt.c ****  * @file
   3:Middlewares/Third_Party/LwIP/src/apps/mqtt/mqtt.c ****  * MQTT client
   4:Middlewares/Third_Party/LwIP/src/apps/mqtt/mqtt.c ****  *
   5:Middlewares/Third_Party/LwIP/src/apps/mqtt/mqtt.c ****  * @defgroup mqtt MQTT client
   6:Middlewares/Third_Party/LwIP/src/apps/mqtt/mqtt.c ****  * @ingroup apps
   7:Middlewares/Third_Party/LwIP/src/apps/mqtt/mqtt.c ****  * @verbinclude mqtt_client.txt
   8:Middlewares/Third_Party/LwIP/src/apps/mqtt/mqtt.c ****  */
   9:Middlewares/Third_Party/LwIP/src/apps/mqtt/mqtt.c **** 
  10:Middlewares/Third_Party/LwIP/src/apps/mqtt/mqtt.c **** /*
  11:Middlewares/Third_Party/LwIP/src/apps/mqtt/mqtt.c ****  * Copyright (c) 2016 Erik Andersson <erian747@gmail.com>
  12:Middlewares/Third_Party/LwIP/src/apps/mqtt/mqtt.c ****  * All rights reserved.
  13:Middlewares/Third_Party/LwIP/src/apps/mqtt/mqtt.c ****  *
  14:Middlewares/Third_Party/LwIP/src/apps/mqtt/mqtt.c ****  * Redistribution and use in source and binary forms, with or without modification,
  15:Middlewares/Third_Party/LwIP/src/apps/mqtt/mqtt.c ****  * are permitted provided that the following conditions are met:
  16:Middlewares/Third_Party/LwIP/src/apps/mqtt/mqtt.c ****  *
  17:Middlewares/Third_Party/LwIP/src/apps/mqtt/mqtt.c ****  * 1. Redistributions of source code must retain the above copyright notice,
  18:Middlewares/Third_Party/LwIP/src/apps/mqtt/mqtt.c ****  *    this list of conditions and the following disclaimer.
  19:Middlewares/Third_Party/LwIP/src/apps/mqtt/mqtt.c ****  * 2. Redistributions in binary form must reproduce the above copyright notice,
  20:Middlewares/Third_Party/LwIP/src/apps/mqtt/mqtt.c ****  *    this list of conditions and the following disclaimer in the documentation
  21:Middlewares/Third_Party/LwIP/src/apps/mqtt/mqtt.c ****  *    and/or other materials provided with the distribution.
  22:Middlewares/Third_Party/LwIP/src/apps/mqtt/mqtt.c ****  * 3. The name of the author may not be used to endorse or promote products
  23:Middlewares/Third_Party/LwIP/src/apps/mqtt/mqtt.c ****  *    derived from this software without specific prior written permission.
  24:Middlewares/Third_Party/LwIP/src/apps/mqtt/mqtt.c ****  *
  25:Middlewares/Third_Party/LwIP/src/apps/mqtt/mqtt.c ****  * THIS SOFTWARE IS PROVIDED BY THE AUTHOR ``AS IS'' AND ANY EXPRESS OR IMPLIED
  26:Middlewares/Third_Party/LwIP/src/apps/mqtt/mqtt.c ****  * WARRANTIES, INCLUDING, BUT NOT LIMITED TO, THE IMPLIED WARRANTIES OF
  27:Middlewares/Third_Party/LwIP/src/apps/mqtt/mqtt.c ****  * MERCHANTABILITY AND FITNESS FOR A PARTICULAR PURPOSE ARE DISCLAIMED. IN NO EVENT
  28:Middlewares/Third_Party/LwIP/src/apps/mqtt/mqtt.c ****  * SHALL THE AUTHOR BE LIABLE FOR ANY DIRECT, INDIRECT, INCIDENTAL, SPECIAL,
  29:Middlewares/Third_Party/LwIP/src/apps/mqtt/mqtt.c ****  * EXEMPLARY, OR CONSEQUENTIAL DAMAGES (INCLUDING, BUT NOT LIMITED TO, PROCUREMENT
  30:Middlewares/Third_Party/LwIP/src/apps/mqtt/mqtt.c ****  * OF SUBSTITUTE GOODS OR SERVICES; LOSS OF USE, DATA, OR PROFITS; OR BUSINESS
  31:Middlewares/Third_Party/LwIP/src/apps/mqtt/mqtt.c ****  * INTERRUPTION) HOWEVER CAUSED AND ON ANY THEORY OF LIABILITY, WHETHER IN
ARM GAS  C:\Users\hh\AppData\Local\Temp\cc3qgJrr.s 			page 2


  32:Middlewares/Third_Party/LwIP/src/apps/mqtt/mqtt.c ****  * CONTRACT, STRICT LIABILITY, OR TORT (INCLUDING NEGLIGENCE OR OTHERWISE) ARISING
  33:Middlewares/Third_Party/LwIP/src/apps/mqtt/mqtt.c ****  * IN ANY WAY OUT OF THE USE OF THIS SOFTWARE, EVEN IF ADVISED OF THE POSSIBILITY
  34:Middlewares/Third_Party/LwIP/src/apps/mqtt/mqtt.c ****  * OF SUCH DAMAGE.
  35:Middlewares/Third_Party/LwIP/src/apps/mqtt/mqtt.c ****  *
  36:Middlewares/Third_Party/LwIP/src/apps/mqtt/mqtt.c ****  * This file is part of the lwIP TCP/IP stack
  37:Middlewares/Third_Party/LwIP/src/apps/mqtt/mqtt.c ****  *
  38:Middlewares/Third_Party/LwIP/src/apps/mqtt/mqtt.c ****  * Author: Erik Andersson <erian747@gmail.com>
  39:Middlewares/Third_Party/LwIP/src/apps/mqtt/mqtt.c ****  *
  40:Middlewares/Third_Party/LwIP/src/apps/mqtt/mqtt.c ****  *
  41:Middlewares/Third_Party/LwIP/src/apps/mqtt/mqtt.c ****  * @todo:
  42:Middlewares/Third_Party/LwIP/src/apps/mqtt/mqtt.c ****  * - Handle large outgoing payloads for PUBLISH messages
  43:Middlewares/Third_Party/LwIP/src/apps/mqtt/mqtt.c ****  * - Fix restriction of a single topic in each (UN)SUBSCRIBE message (protocol has support for mult
  44:Middlewares/Third_Party/LwIP/src/apps/mqtt/mqtt.c ****  * - Add support for legacy MQTT protocol version
  45:Middlewares/Third_Party/LwIP/src/apps/mqtt/mqtt.c ****  *
  46:Middlewares/Third_Party/LwIP/src/apps/mqtt/mqtt.c ****  * Please coordinate changes and requests with Erik Andersson
  47:Middlewares/Third_Party/LwIP/src/apps/mqtt/mqtt.c ****  * Erik Andersson <erian747@gmail.com>
  48:Middlewares/Third_Party/LwIP/src/apps/mqtt/mqtt.c ****  *
  49:Middlewares/Third_Party/LwIP/src/apps/mqtt/mqtt.c ****  */
  50:Middlewares/Third_Party/LwIP/src/apps/mqtt/mqtt.c **** #include "lwip/apps/mqtt.h"
  51:Middlewares/Third_Party/LwIP/src/apps/mqtt/mqtt.c **** #include "lwip/apps/mqtt_priv.h"
  52:Middlewares/Third_Party/LwIP/src/apps/mqtt/mqtt.c **** #include "lwip/timeouts.h"
  53:Middlewares/Third_Party/LwIP/src/apps/mqtt/mqtt.c **** #include "lwip/ip_addr.h"
  54:Middlewares/Third_Party/LwIP/src/apps/mqtt/mqtt.c **** #include "lwip/mem.h"
  55:Middlewares/Third_Party/LwIP/src/apps/mqtt/mqtt.c **** #include "lwip/err.h"
  56:Middlewares/Third_Party/LwIP/src/apps/mqtt/mqtt.c **** #include "lwip/pbuf.h"
  57:Middlewares/Third_Party/LwIP/src/apps/mqtt/mqtt.c **** #include "lwip/altcp.h"
  58:Middlewares/Third_Party/LwIP/src/apps/mqtt/mqtt.c **** #include "lwip/altcp_tcp.h"
  59:Middlewares/Third_Party/LwIP/src/apps/mqtt/mqtt.c **** #include "lwip/altcp_tls.h"
  60:Middlewares/Third_Party/LwIP/src/apps/mqtt/mqtt.c **** #include <string.h>
  61:Middlewares/Third_Party/LwIP/src/apps/mqtt/mqtt.c **** 
  62:Middlewares/Third_Party/LwIP/src/apps/mqtt/mqtt.c **** #if LWIP_TCP && LWIP_CALLBACK_API
  63:Middlewares/Third_Party/LwIP/src/apps/mqtt/mqtt.c **** 
  64:Middlewares/Third_Party/LwIP/src/apps/mqtt/mqtt.c **** /**
  65:Middlewares/Third_Party/LwIP/src/apps/mqtt/mqtt.c ****  * MQTT_DEBUG: Default is off.
  66:Middlewares/Third_Party/LwIP/src/apps/mqtt/mqtt.c ****  */
  67:Middlewares/Third_Party/LwIP/src/apps/mqtt/mqtt.c **** #if !defined MQTT_DEBUG || defined __DOXYGEN__
  68:Middlewares/Third_Party/LwIP/src/apps/mqtt/mqtt.c **** #define MQTT_DEBUG                  LWIP_DBG_OFF
  69:Middlewares/Third_Party/LwIP/src/apps/mqtt/mqtt.c **** #endif
  70:Middlewares/Third_Party/LwIP/src/apps/mqtt/mqtt.c **** 
  71:Middlewares/Third_Party/LwIP/src/apps/mqtt/mqtt.c **** #define MQTT_DEBUG_TRACE        (MQTT_DEBUG | LWIP_DBG_TRACE)
  72:Middlewares/Third_Party/LwIP/src/apps/mqtt/mqtt.c **** #define MQTT_DEBUG_STATE        (MQTT_DEBUG | LWIP_DBG_STATE)
  73:Middlewares/Third_Party/LwIP/src/apps/mqtt/mqtt.c **** #define MQTT_DEBUG_WARN         (MQTT_DEBUG | LWIP_DBG_LEVEL_WARNING)
  74:Middlewares/Third_Party/LwIP/src/apps/mqtt/mqtt.c **** #define MQTT_DEBUG_WARN_STATE   (MQTT_DEBUG | LWIP_DBG_LEVEL_WARNING | LWIP_DBG_STATE)
  75:Middlewares/Third_Party/LwIP/src/apps/mqtt/mqtt.c **** #define MQTT_DEBUG_SERIOUS      (MQTT_DEBUG | LWIP_DBG_LEVEL_SERIOUS)
  76:Middlewares/Third_Party/LwIP/src/apps/mqtt/mqtt.c **** 
  77:Middlewares/Third_Party/LwIP/src/apps/mqtt/mqtt.c **** 
  78:Middlewares/Third_Party/LwIP/src/apps/mqtt/mqtt.c **** 
  79:Middlewares/Third_Party/LwIP/src/apps/mqtt/mqtt.c **** /**
  80:Middlewares/Third_Party/LwIP/src/apps/mqtt/mqtt.c ****  * MQTT client connection states
  81:Middlewares/Third_Party/LwIP/src/apps/mqtt/mqtt.c ****  */
  82:Middlewares/Third_Party/LwIP/src/apps/mqtt/mqtt.c **** enum {
  83:Middlewares/Third_Party/LwIP/src/apps/mqtt/mqtt.c ****   TCP_DISCONNECTED,
  84:Middlewares/Third_Party/LwIP/src/apps/mqtt/mqtt.c ****   TCP_CONNECTING,
  85:Middlewares/Third_Party/LwIP/src/apps/mqtt/mqtt.c ****   MQTT_CONNECTING,
  86:Middlewares/Third_Party/LwIP/src/apps/mqtt/mqtt.c ****   MQTT_CONNECTED
  87:Middlewares/Third_Party/LwIP/src/apps/mqtt/mqtt.c **** };
  88:Middlewares/Third_Party/LwIP/src/apps/mqtt/mqtt.c **** 
ARM GAS  C:\Users\hh\AppData\Local\Temp\cc3qgJrr.s 			page 3


  89:Middlewares/Third_Party/LwIP/src/apps/mqtt/mqtt.c **** /**
  90:Middlewares/Third_Party/LwIP/src/apps/mqtt/mqtt.c ****  * MQTT control message types
  91:Middlewares/Third_Party/LwIP/src/apps/mqtt/mqtt.c ****  */
  92:Middlewares/Third_Party/LwIP/src/apps/mqtt/mqtt.c **** enum mqtt_message_type {
  93:Middlewares/Third_Party/LwIP/src/apps/mqtt/mqtt.c ****   MQTT_MSG_TYPE_CONNECT = 1,
  94:Middlewares/Third_Party/LwIP/src/apps/mqtt/mqtt.c ****   MQTT_MSG_TYPE_CONNACK = 2,
  95:Middlewares/Third_Party/LwIP/src/apps/mqtt/mqtt.c ****   MQTT_MSG_TYPE_PUBLISH = 3,
  96:Middlewares/Third_Party/LwIP/src/apps/mqtt/mqtt.c ****   MQTT_MSG_TYPE_PUBACK = 4,
  97:Middlewares/Third_Party/LwIP/src/apps/mqtt/mqtt.c ****   MQTT_MSG_TYPE_PUBREC = 5,
  98:Middlewares/Third_Party/LwIP/src/apps/mqtt/mqtt.c ****   MQTT_MSG_TYPE_PUBREL = 6,
  99:Middlewares/Third_Party/LwIP/src/apps/mqtt/mqtt.c ****   MQTT_MSG_TYPE_PUBCOMP = 7,
 100:Middlewares/Third_Party/LwIP/src/apps/mqtt/mqtt.c ****   MQTT_MSG_TYPE_SUBSCRIBE = 8,
 101:Middlewares/Third_Party/LwIP/src/apps/mqtt/mqtt.c ****   MQTT_MSG_TYPE_SUBACK = 9,
 102:Middlewares/Third_Party/LwIP/src/apps/mqtt/mqtt.c ****   MQTT_MSG_TYPE_UNSUBSCRIBE = 10,
 103:Middlewares/Third_Party/LwIP/src/apps/mqtt/mqtt.c ****   MQTT_MSG_TYPE_UNSUBACK = 11,
 104:Middlewares/Third_Party/LwIP/src/apps/mqtt/mqtt.c ****   MQTT_MSG_TYPE_PINGREQ = 12,
 105:Middlewares/Third_Party/LwIP/src/apps/mqtt/mqtt.c ****   MQTT_MSG_TYPE_PINGRESP = 13,
 106:Middlewares/Third_Party/LwIP/src/apps/mqtt/mqtt.c ****   MQTT_MSG_TYPE_DISCONNECT = 14
 107:Middlewares/Third_Party/LwIP/src/apps/mqtt/mqtt.c **** };
 108:Middlewares/Third_Party/LwIP/src/apps/mqtt/mqtt.c **** 
 109:Middlewares/Third_Party/LwIP/src/apps/mqtt/mqtt.c **** /** Helpers to extract control packet type and qos from first byte in fixed header */
 110:Middlewares/Third_Party/LwIP/src/apps/mqtt/mqtt.c **** #define MQTT_CTL_PACKET_TYPE(fixed_hdr_byte0) ((fixed_hdr_byte0 & 0xf0) >> 4)
 111:Middlewares/Third_Party/LwIP/src/apps/mqtt/mqtt.c **** #define MQTT_CTL_PACKET_QOS(fixed_hdr_byte0) ((fixed_hdr_byte0 & 0x6) >> 1)
 112:Middlewares/Third_Party/LwIP/src/apps/mqtt/mqtt.c **** 
 113:Middlewares/Third_Party/LwIP/src/apps/mqtt/mqtt.c **** /**
 114:Middlewares/Third_Party/LwIP/src/apps/mqtt/mqtt.c ****  * MQTT connect flags, only used in CONNECT message
 115:Middlewares/Third_Party/LwIP/src/apps/mqtt/mqtt.c ****  */
 116:Middlewares/Third_Party/LwIP/src/apps/mqtt/mqtt.c **** enum mqtt_connect_flag {
 117:Middlewares/Third_Party/LwIP/src/apps/mqtt/mqtt.c ****   MQTT_CONNECT_FLAG_USERNAME = 1 << 7,
 118:Middlewares/Third_Party/LwIP/src/apps/mqtt/mqtt.c ****   MQTT_CONNECT_FLAG_PASSWORD = 1 << 6,
 119:Middlewares/Third_Party/LwIP/src/apps/mqtt/mqtt.c ****   MQTT_CONNECT_FLAG_WILL_RETAIN = 1 << 5,
 120:Middlewares/Third_Party/LwIP/src/apps/mqtt/mqtt.c ****   MQTT_CONNECT_FLAG_WILL = 1 << 2,
 121:Middlewares/Third_Party/LwIP/src/apps/mqtt/mqtt.c ****   MQTT_CONNECT_FLAG_CLEAN_SESSION = 1 << 1
 122:Middlewares/Third_Party/LwIP/src/apps/mqtt/mqtt.c **** };
 123:Middlewares/Third_Party/LwIP/src/apps/mqtt/mqtt.c **** 
 124:Middlewares/Third_Party/LwIP/src/apps/mqtt/mqtt.c **** 
 125:Middlewares/Third_Party/LwIP/src/apps/mqtt/mqtt.c **** static void mqtt_cyclic_timer(void *arg);
 126:Middlewares/Third_Party/LwIP/src/apps/mqtt/mqtt.c **** 
 127:Middlewares/Third_Party/LwIP/src/apps/mqtt/mqtt.c **** #if defined(LWIP_DEBUG)
 128:Middlewares/Third_Party/LwIP/src/apps/mqtt/mqtt.c **** static const char *const mqtt_message_type_str[15] = {
 129:Middlewares/Third_Party/LwIP/src/apps/mqtt/mqtt.c ****   "UNDEFINED",
 130:Middlewares/Third_Party/LwIP/src/apps/mqtt/mqtt.c ****   "CONNECT",
 131:Middlewares/Third_Party/LwIP/src/apps/mqtt/mqtt.c ****   "CONNACK",
 132:Middlewares/Third_Party/LwIP/src/apps/mqtt/mqtt.c ****   "PUBLISH",
 133:Middlewares/Third_Party/LwIP/src/apps/mqtt/mqtt.c ****   "PUBACK",
 134:Middlewares/Third_Party/LwIP/src/apps/mqtt/mqtt.c ****   "PUBREC",
 135:Middlewares/Third_Party/LwIP/src/apps/mqtt/mqtt.c ****   "PUBREL",
 136:Middlewares/Third_Party/LwIP/src/apps/mqtt/mqtt.c ****   "PUBCOMP",
 137:Middlewares/Third_Party/LwIP/src/apps/mqtt/mqtt.c ****   "SUBSCRIBE",
 138:Middlewares/Third_Party/LwIP/src/apps/mqtt/mqtt.c ****   "SUBACK",
 139:Middlewares/Third_Party/LwIP/src/apps/mqtt/mqtt.c ****   "UNSUBSCRIBE",
 140:Middlewares/Third_Party/LwIP/src/apps/mqtt/mqtt.c ****   "UNSUBACK",
 141:Middlewares/Third_Party/LwIP/src/apps/mqtt/mqtt.c ****   "PINGREQ",
 142:Middlewares/Third_Party/LwIP/src/apps/mqtt/mqtt.c ****   "PINGRESP",
 143:Middlewares/Third_Party/LwIP/src/apps/mqtt/mqtt.c ****   "DISCONNECT"
 144:Middlewares/Third_Party/LwIP/src/apps/mqtt/mqtt.c **** };
 145:Middlewares/Third_Party/LwIP/src/apps/mqtt/mqtt.c **** 
ARM GAS  C:\Users\hh\AppData\Local\Temp\cc3qgJrr.s 			page 4


 146:Middlewares/Third_Party/LwIP/src/apps/mqtt/mqtt.c **** /**
 147:Middlewares/Third_Party/LwIP/src/apps/mqtt/mqtt.c ****  * Message type value to string
 148:Middlewares/Third_Party/LwIP/src/apps/mqtt/mqtt.c ****  * @param msg_type see enum mqtt_message_type
 149:Middlewares/Third_Party/LwIP/src/apps/mqtt/mqtt.c ****  *
 150:Middlewares/Third_Party/LwIP/src/apps/mqtt/mqtt.c ****  * @return Control message type text string
 151:Middlewares/Third_Party/LwIP/src/apps/mqtt/mqtt.c ****  */
 152:Middlewares/Third_Party/LwIP/src/apps/mqtt/mqtt.c **** static const char *
 153:Middlewares/Third_Party/LwIP/src/apps/mqtt/mqtt.c **** mqtt_msg_type_to_str(u8_t msg_type)
 154:Middlewares/Third_Party/LwIP/src/apps/mqtt/mqtt.c **** {
 155:Middlewares/Third_Party/LwIP/src/apps/mqtt/mqtt.c ****   if (msg_type >= LWIP_ARRAYSIZE(mqtt_message_type_str)) {
 156:Middlewares/Third_Party/LwIP/src/apps/mqtt/mqtt.c ****     msg_type = 0;
 157:Middlewares/Third_Party/LwIP/src/apps/mqtt/mqtt.c ****   }
 158:Middlewares/Third_Party/LwIP/src/apps/mqtt/mqtt.c ****   return mqtt_message_type_str[msg_type];
 159:Middlewares/Third_Party/LwIP/src/apps/mqtt/mqtt.c **** }
 160:Middlewares/Third_Party/LwIP/src/apps/mqtt/mqtt.c **** 
 161:Middlewares/Third_Party/LwIP/src/apps/mqtt/mqtt.c **** #endif
 162:Middlewares/Third_Party/LwIP/src/apps/mqtt/mqtt.c **** 
 163:Middlewares/Third_Party/LwIP/src/apps/mqtt/mqtt.c **** 
 164:Middlewares/Third_Party/LwIP/src/apps/mqtt/mqtt.c **** /**
 165:Middlewares/Third_Party/LwIP/src/apps/mqtt/mqtt.c ****  * Generate MQTT packet identifier
 166:Middlewares/Third_Party/LwIP/src/apps/mqtt/mqtt.c ****  * @param client MQTT client
 167:Middlewares/Third_Party/LwIP/src/apps/mqtt/mqtt.c ****  * @return New packet identifier, range 1 to 65535
 168:Middlewares/Third_Party/LwIP/src/apps/mqtt/mqtt.c ****  */
 169:Middlewares/Third_Party/LwIP/src/apps/mqtt/mqtt.c **** static u16_t
 170:Middlewares/Third_Party/LwIP/src/apps/mqtt/mqtt.c **** msg_generate_packet_id(mqtt_client_t *client)
 171:Middlewares/Third_Party/LwIP/src/apps/mqtt/mqtt.c **** {
  28              		.loc 1 171 1 view -0
  29              		.cfi_startproc
  30              		@ args = 0, pretend = 0, frame = 0
  31              		@ frame_needed = 0, uses_anonymous_args = 0
  32              		@ link register save eliminated.
 172:Middlewares/Third_Party/LwIP/src/apps/mqtt/mqtt.c ****   client->pkt_id_seq++;
  33              		.loc 1 172 3 view .LVU1
  34              		.loc 1 172 9 is_stmt 0 view .LVU2
  35 0000 C288     		ldrh	r2, [r0, #6]
  36              		.loc 1 172 21 view .LVU3
  37 0002 531C     		adds	r3, r2, #1
  38 0004 9BB2     		uxth	r3, r3
  39 0006 C380     		strh	r3, [r0, #6]	@ movhi
 173:Middlewares/Third_Party/LwIP/src/apps/mqtt/mqtt.c ****   if (client->pkt_id_seq == 0) {
  40              		.loc 1 173 3 is_stmt 1 view .LVU4
  41              		.loc 1 173 6 is_stmt 0 view .LVU5
  42 0008 0BB9     		cbnz	r3, .L2
 174:Middlewares/Third_Party/LwIP/src/apps/mqtt/mqtt.c ****     client->pkt_id_seq++;
  43              		.loc 1 174 5 is_stmt 1 view .LVU6
  44              		.loc 1 174 23 is_stmt 0 view .LVU7
  45 000a 0232     		adds	r2, r2, #2
  46 000c C280     		strh	r2, [r0, #6]	@ movhi
  47              	.L2:
 175:Middlewares/Third_Party/LwIP/src/apps/mqtt/mqtt.c ****   }
 176:Middlewares/Third_Party/LwIP/src/apps/mqtt/mqtt.c ****   return client->pkt_id_seq;
  48              		.loc 1 176 3 is_stmt 1 view .LVU8
 177:Middlewares/Third_Party/LwIP/src/apps/mqtt/mqtt.c **** }
  49              		.loc 1 177 1 is_stmt 0 view .LVU9
  50 000e C088     		ldrh	r0, [r0, #6]
  51              	.LVL1:
  52              		.loc 1 177 1 view .LVU10
ARM GAS  C:\Users\hh\AppData\Local\Temp\cc3qgJrr.s 			page 5


  53 0010 7047     		bx	lr
  54              		.cfi_endproc
  55              	.LFE172:
  57              		.section	.text.mqtt_ringbuf_put,"ax",%progbits
  58              		.align	1
  59              		.syntax unified
  60              		.thumb
  61              		.thumb_func
  63              	mqtt_ringbuf_put:
  64              	.LVL2:
  65              	.LFB173:
 178:Middlewares/Third_Party/LwIP/src/apps/mqtt/mqtt.c **** 
 179:Middlewares/Third_Party/LwIP/src/apps/mqtt/mqtt.c **** /*-------------------------------------------------------------------------------------------------
 180:Middlewares/Third_Party/LwIP/src/apps/mqtt/mqtt.c **** /* Output ring buffer */
 181:Middlewares/Third_Party/LwIP/src/apps/mqtt/mqtt.c **** 
 182:Middlewares/Third_Party/LwIP/src/apps/mqtt/mqtt.c **** /** Add single item to ring buffer */
 183:Middlewares/Third_Party/LwIP/src/apps/mqtt/mqtt.c **** static void
 184:Middlewares/Third_Party/LwIP/src/apps/mqtt/mqtt.c **** mqtt_ringbuf_put(struct mqtt_ringbuf_t *rb, u8_t item)
 185:Middlewares/Third_Party/LwIP/src/apps/mqtt/mqtt.c **** {
  66              		.loc 1 185 1 is_stmt 1 view -0
  67              		.cfi_startproc
  68              		@ args = 0, pretend = 0, frame = 0
  69              		@ frame_needed = 0, uses_anonymous_args = 0
  70              		@ link register save eliminated.
 186:Middlewares/Third_Party/LwIP/src/apps/mqtt/mqtt.c ****   rb->buf[rb->put] = item;
  71              		.loc 1 186 3 view .LVU12
  72              		.loc 1 186 13 is_stmt 0 view .LVU13
  73 0000 0388     		ldrh	r3, [r0]
  74              		.loc 1 186 20 view .LVU14
  75 0002 C218     		adds	r2, r0, r3
  76 0004 1171     		strb	r1, [r2, #4]
 187:Middlewares/Third_Party/LwIP/src/apps/mqtt/mqtt.c ****   rb->put++;
  77              		.loc 1 187 3 is_stmt 1 view .LVU15
  78              		.loc 1 187 10 is_stmt 0 view .LVU16
  79 0006 0133     		adds	r3, r3, #1
  80 0008 9BB2     		uxth	r3, r3
  81 000a 0380     		strh	r3, [r0]	@ movhi
 188:Middlewares/Third_Party/LwIP/src/apps/mqtt/mqtt.c ****   if (rb->put >= MQTT_OUTPUT_RINGBUF_SIZE) {
  82              		.loc 1 188 3 is_stmt 1 view .LVU17
  83              		.loc 1 188 6 is_stmt 0 view .LVU18
  84 000c FF2B     		cmp	r3, #255
  85 000e 01D9     		bls	.L3
 189:Middlewares/Third_Party/LwIP/src/apps/mqtt/mqtt.c ****     rb->put = 0;
  86              		.loc 1 189 5 is_stmt 1 view .LVU19
  87              		.loc 1 189 13 is_stmt 0 view .LVU20
  88 0010 0023     		movs	r3, #0
  89 0012 0380     		strh	r3, [r0]	@ movhi
  90              	.L3:
 190:Middlewares/Third_Party/LwIP/src/apps/mqtt/mqtt.c ****   }
 191:Middlewares/Third_Party/LwIP/src/apps/mqtt/mqtt.c **** }
  91              		.loc 1 191 1 view .LVU21
  92 0014 7047     		bx	lr
  93              		.cfi_endproc
  94              	.LFE173:
  96              		.section	.text.mqtt_ringbuf_get_ptr,"ax",%progbits
  97              		.align	1
  98              		.syntax unified
ARM GAS  C:\Users\hh\AppData\Local\Temp\cc3qgJrr.s 			page 6


  99              		.thumb
 100              		.thumb_func
 102              	mqtt_ringbuf_get_ptr:
 103              	.LVL3:
 104              	.LFB174:
 192:Middlewares/Third_Party/LwIP/src/apps/mqtt/mqtt.c **** 
 193:Middlewares/Third_Party/LwIP/src/apps/mqtt/mqtt.c **** /** Return pointer to ring buffer get position */
 194:Middlewares/Third_Party/LwIP/src/apps/mqtt/mqtt.c **** static u8_t *
 195:Middlewares/Third_Party/LwIP/src/apps/mqtt/mqtt.c **** mqtt_ringbuf_get_ptr(struct mqtt_ringbuf_t *rb)
 196:Middlewares/Third_Party/LwIP/src/apps/mqtt/mqtt.c **** {
 105              		.loc 1 196 1 is_stmt 1 view -0
 106              		.cfi_startproc
 107              		@ args = 0, pretend = 0, frame = 0
 108              		@ frame_needed = 0, uses_anonymous_args = 0
 109              		@ link register save eliminated.
 197:Middlewares/Third_Party/LwIP/src/apps/mqtt/mqtt.c ****   return &rb->buf[rb->get];
 110              		.loc 1 197 3 view .LVU23
 111              		.loc 1 197 21 is_stmt 0 view .LVU24
 112 0000 4388     		ldrh	r3, [r0, #2]
 113              		.loc 1 197 10 view .LVU25
 114 0002 1844     		add	r0, r0, r3
 115              	.LVL4:
 198:Middlewares/Third_Party/LwIP/src/apps/mqtt/mqtt.c **** }
 116              		.loc 1 198 1 view .LVU26
 117 0004 0430     		adds	r0, r0, #4
 118 0006 7047     		bx	lr
 119              		.cfi_endproc
 120              	.LFE174:
 122              		.section	.text.mqtt_ringbuf_len,"ax",%progbits
 123              		.align	1
 124              		.syntax unified
 125              		.thumb
 126              		.thumb_func
 128              	mqtt_ringbuf_len:
 129              	.LVL5:
 130              	.LFB176:
 199:Middlewares/Third_Party/LwIP/src/apps/mqtt/mqtt.c **** 
 200:Middlewares/Third_Party/LwIP/src/apps/mqtt/mqtt.c **** static void
 201:Middlewares/Third_Party/LwIP/src/apps/mqtt/mqtt.c **** mqtt_ringbuf_advance_get_idx(struct mqtt_ringbuf_t *rb, u16_t len)
 202:Middlewares/Third_Party/LwIP/src/apps/mqtt/mqtt.c **** {
 203:Middlewares/Third_Party/LwIP/src/apps/mqtt/mqtt.c ****   LWIP_ASSERT("mqtt_ringbuf_advance_get_idx: len < MQTT_OUTPUT_RINGBUF_SIZE", len < MQTT_OUTPUT_RIN
 204:Middlewares/Third_Party/LwIP/src/apps/mqtt/mqtt.c **** 
 205:Middlewares/Third_Party/LwIP/src/apps/mqtt/mqtt.c ****   rb->get += len;
 206:Middlewares/Third_Party/LwIP/src/apps/mqtt/mqtt.c ****   if (rb->get >= MQTT_OUTPUT_RINGBUF_SIZE) {
 207:Middlewares/Third_Party/LwIP/src/apps/mqtt/mqtt.c ****     rb->get = rb->get - MQTT_OUTPUT_RINGBUF_SIZE;
 208:Middlewares/Third_Party/LwIP/src/apps/mqtt/mqtt.c ****   }
 209:Middlewares/Third_Party/LwIP/src/apps/mqtt/mqtt.c **** }
 210:Middlewares/Third_Party/LwIP/src/apps/mqtt/mqtt.c **** 
 211:Middlewares/Third_Party/LwIP/src/apps/mqtt/mqtt.c **** /** Return number of bytes in ring buffer */
 212:Middlewares/Third_Party/LwIP/src/apps/mqtt/mqtt.c **** static u16_t
 213:Middlewares/Third_Party/LwIP/src/apps/mqtt/mqtt.c **** mqtt_ringbuf_len(struct mqtt_ringbuf_t *rb)
 214:Middlewares/Third_Party/LwIP/src/apps/mqtt/mqtt.c **** {
 131              		.loc 1 214 1 is_stmt 1 view -0
 132              		.cfi_startproc
 133              		@ args = 0, pretend = 0, frame = 0
 134              		@ frame_needed = 0, uses_anonymous_args = 0
 135              		@ link register save eliminated.
ARM GAS  C:\Users\hh\AppData\Local\Temp\cc3qgJrr.s 			page 7


 215:Middlewares/Third_Party/LwIP/src/apps/mqtt/mqtt.c ****   u32_t len = rb->put - rb->get;
 136              		.loc 1 215 3 view .LVU28
 137              		.loc 1 215 17 is_stmt 0 view .LVU29
 138 0000 0388     		ldrh	r3, [r0]
 139              		.loc 1 215 27 view .LVU30
 140 0002 4288     		ldrh	r2, [r0, #2]
 141              		.loc 1 215 23 view .LVU31
 142 0004 981A     		subs	r0, r3, r2
 143              	.LVL6:
 216:Middlewares/Third_Party/LwIP/src/apps/mqtt/mqtt.c ****   if (len > 0xFFFF) {
 144              		.loc 1 216 3 is_stmt 1 view .LVU32
 145              		.loc 1 216 6 is_stmt 0 view .LVU33
 146 0006 B0F5803F 		cmp	r0, #65536
 147 000a 01D3     		bcc	.L7
 217:Middlewares/Third_Party/LwIP/src/apps/mqtt/mqtt.c ****     len += MQTT_OUTPUT_RINGBUF_SIZE;
 148              		.loc 1 217 5 is_stmt 1 view .LVU34
 149              		.loc 1 217 9 is_stmt 0 view .LVU35
 150 000c 00F58070 		add	r0, r0, #256
 151              	.LVL7:
 152              	.L7:
 218:Middlewares/Third_Party/LwIP/src/apps/mqtt/mqtt.c ****   }
 219:Middlewares/Third_Party/LwIP/src/apps/mqtt/mqtt.c ****   return (u16_t)len;
 153              		.loc 1 219 3 is_stmt 1 view .LVU36
 220:Middlewares/Third_Party/LwIP/src/apps/mqtt/mqtt.c **** }
 154              		.loc 1 220 1 is_stmt 0 view .LVU37
 155 0010 80B2     		uxth	r0, r0
 156              	.LVL8:
 157              		.loc 1 220 1 view .LVU38
 158 0012 7047     		bx	lr
 159              		.cfi_endproc
 160              	.LFE176:
 162              		.section	.text.mqtt_delete_request,"ax",%progbits
 163              		.align	1
 164              		.syntax unified
 165              		.thumb
 166              		.thumb_func
 168              	mqtt_delete_request:
 169              	.LVL9:
 170              	.LFB180:
 221:Middlewares/Third_Party/LwIP/src/apps/mqtt/mqtt.c **** 
 222:Middlewares/Third_Party/LwIP/src/apps/mqtt/mqtt.c **** /** Return number of bytes free in ring buffer */
 223:Middlewares/Third_Party/LwIP/src/apps/mqtt/mqtt.c **** #define mqtt_ringbuf_free(rb) (MQTT_OUTPUT_RINGBUF_SIZE - mqtt_ringbuf_len(rb))
 224:Middlewares/Third_Party/LwIP/src/apps/mqtt/mqtt.c **** 
 225:Middlewares/Third_Party/LwIP/src/apps/mqtt/mqtt.c **** /** Return number of bytes possible to read without wrapping around */
 226:Middlewares/Third_Party/LwIP/src/apps/mqtt/mqtt.c **** #define mqtt_ringbuf_linear_read_length(rb) LWIP_MIN(mqtt_ringbuf_len(rb), (MQTT_OUTPUT_RINGBUF_SIZ
 227:Middlewares/Third_Party/LwIP/src/apps/mqtt/mqtt.c **** 
 228:Middlewares/Third_Party/LwIP/src/apps/mqtt/mqtt.c **** /**
 229:Middlewares/Third_Party/LwIP/src/apps/mqtt/mqtt.c ****  * Try send as many bytes as possible from output ring buffer
 230:Middlewares/Third_Party/LwIP/src/apps/mqtt/mqtt.c ****  * @param rb Output ring buffer
 231:Middlewares/Third_Party/LwIP/src/apps/mqtt/mqtt.c ****  * @param tpcb TCP connection handle
 232:Middlewares/Third_Party/LwIP/src/apps/mqtt/mqtt.c ****  */
 233:Middlewares/Third_Party/LwIP/src/apps/mqtt/mqtt.c **** static void
 234:Middlewares/Third_Party/LwIP/src/apps/mqtt/mqtt.c **** mqtt_output_send(struct mqtt_ringbuf_t *rb, struct altcp_pcb *tpcb)
 235:Middlewares/Third_Party/LwIP/src/apps/mqtt/mqtt.c **** {
 236:Middlewares/Third_Party/LwIP/src/apps/mqtt/mqtt.c ****   err_t err;
 237:Middlewares/Third_Party/LwIP/src/apps/mqtt/mqtt.c ****   u8_t wrap = 0;
 238:Middlewares/Third_Party/LwIP/src/apps/mqtt/mqtt.c ****   u16_t ringbuf_lin_len = mqtt_ringbuf_linear_read_length(rb);
ARM GAS  C:\Users\hh\AppData\Local\Temp\cc3qgJrr.s 			page 8


 239:Middlewares/Third_Party/LwIP/src/apps/mqtt/mqtt.c ****   u16_t send_len = altcp_sndbuf(tpcb);
 240:Middlewares/Third_Party/LwIP/src/apps/mqtt/mqtt.c ****   LWIP_ASSERT("mqtt_output_send: tpcb != NULL", tpcb != NULL);
 241:Middlewares/Third_Party/LwIP/src/apps/mqtt/mqtt.c **** 
 242:Middlewares/Third_Party/LwIP/src/apps/mqtt/mqtt.c ****   if (send_len == 0 || ringbuf_lin_len == 0) {
 243:Middlewares/Third_Party/LwIP/src/apps/mqtt/mqtt.c ****     return;
 244:Middlewares/Third_Party/LwIP/src/apps/mqtt/mqtt.c ****   }
 245:Middlewares/Third_Party/LwIP/src/apps/mqtt/mqtt.c **** 
 246:Middlewares/Third_Party/LwIP/src/apps/mqtt/mqtt.c ****   LWIP_DEBUGF(MQTT_DEBUG_TRACE, ("mqtt_output_send: tcp_sndbuf: %d bytes, ringbuf_linear_available:
 247:Middlewares/Third_Party/LwIP/src/apps/mqtt/mqtt.c ****                                  send_len, ringbuf_lin_len, rb->get, rb->put));
 248:Middlewares/Third_Party/LwIP/src/apps/mqtt/mqtt.c **** 
 249:Middlewares/Third_Party/LwIP/src/apps/mqtt/mqtt.c ****   if (send_len > ringbuf_lin_len) {
 250:Middlewares/Third_Party/LwIP/src/apps/mqtt/mqtt.c ****     /* Space in TCP output buffer is larger than available in ring buffer linear portion */
 251:Middlewares/Third_Party/LwIP/src/apps/mqtt/mqtt.c ****     send_len = ringbuf_lin_len;
 252:Middlewares/Third_Party/LwIP/src/apps/mqtt/mqtt.c ****     /* Wrap around if more data in ring buffer after linear portion */
 253:Middlewares/Third_Party/LwIP/src/apps/mqtt/mqtt.c ****     wrap = (mqtt_ringbuf_len(rb) > ringbuf_lin_len);
 254:Middlewares/Third_Party/LwIP/src/apps/mqtt/mqtt.c ****   }
 255:Middlewares/Third_Party/LwIP/src/apps/mqtt/mqtt.c ****   err = altcp_write(tpcb, mqtt_ringbuf_get_ptr(rb), send_len, TCP_WRITE_FLAG_COPY | (wrap ? TCP_WRI
 256:Middlewares/Third_Party/LwIP/src/apps/mqtt/mqtt.c ****   if ((err == ERR_OK) && wrap) {
 257:Middlewares/Third_Party/LwIP/src/apps/mqtt/mqtt.c ****     mqtt_ringbuf_advance_get_idx(rb, send_len);
 258:Middlewares/Third_Party/LwIP/src/apps/mqtt/mqtt.c ****     /* Use the lesser one of ring buffer linear length and TCP send buffer size */
 259:Middlewares/Third_Party/LwIP/src/apps/mqtt/mqtt.c ****     send_len = LWIP_MIN(altcp_sndbuf(tpcb), mqtt_ringbuf_linear_read_length(rb));
 260:Middlewares/Third_Party/LwIP/src/apps/mqtt/mqtt.c ****     err = altcp_write(tpcb, mqtt_ringbuf_get_ptr(rb), send_len, TCP_WRITE_FLAG_COPY);
 261:Middlewares/Third_Party/LwIP/src/apps/mqtt/mqtt.c ****   }
 262:Middlewares/Third_Party/LwIP/src/apps/mqtt/mqtt.c **** 
 263:Middlewares/Third_Party/LwIP/src/apps/mqtt/mqtt.c ****   if (err == ERR_OK) {
 264:Middlewares/Third_Party/LwIP/src/apps/mqtt/mqtt.c ****     mqtt_ringbuf_advance_get_idx(rb, send_len);
 265:Middlewares/Third_Party/LwIP/src/apps/mqtt/mqtt.c ****     /* Flush */
 266:Middlewares/Third_Party/LwIP/src/apps/mqtt/mqtt.c ****     altcp_output(tpcb);
 267:Middlewares/Third_Party/LwIP/src/apps/mqtt/mqtt.c ****   } else {
 268:Middlewares/Third_Party/LwIP/src/apps/mqtt/mqtt.c ****     LWIP_DEBUGF(MQTT_DEBUG_WARN, ("mqtt_output_send: Send failed with err %d (\"%s\")\n", err, lwip
 269:Middlewares/Third_Party/LwIP/src/apps/mqtt/mqtt.c ****   }
 270:Middlewares/Third_Party/LwIP/src/apps/mqtt/mqtt.c **** }
 271:Middlewares/Third_Party/LwIP/src/apps/mqtt/mqtt.c **** 
 272:Middlewares/Third_Party/LwIP/src/apps/mqtt/mqtt.c **** 
 273:Middlewares/Third_Party/LwIP/src/apps/mqtt/mqtt.c **** 
 274:Middlewares/Third_Party/LwIP/src/apps/mqtt/mqtt.c **** /*-------------------------------------------------------------------------------------------------
 275:Middlewares/Third_Party/LwIP/src/apps/mqtt/mqtt.c **** /* Request queue */
 276:Middlewares/Third_Party/LwIP/src/apps/mqtt/mqtt.c **** 
 277:Middlewares/Third_Party/LwIP/src/apps/mqtt/mqtt.c **** /**
 278:Middlewares/Third_Party/LwIP/src/apps/mqtt/mqtt.c ****  * Create request item
 279:Middlewares/Third_Party/LwIP/src/apps/mqtt/mqtt.c ****  * @param r_objs Pointer to request objects
 280:Middlewares/Third_Party/LwIP/src/apps/mqtt/mqtt.c ****  * @param r_objs_len Number of array entries
 281:Middlewares/Third_Party/LwIP/src/apps/mqtt/mqtt.c ****  * @param pkt_id Packet identifier of request
 282:Middlewares/Third_Party/LwIP/src/apps/mqtt/mqtt.c ****  * @param cb Packet callback to call when requests lifetime ends
 283:Middlewares/Third_Party/LwIP/src/apps/mqtt/mqtt.c ****  * @param arg Parameter following callback
 284:Middlewares/Third_Party/LwIP/src/apps/mqtt/mqtt.c ****  * @return Request or NULL if failed to create
 285:Middlewares/Third_Party/LwIP/src/apps/mqtt/mqtt.c ****  */
 286:Middlewares/Third_Party/LwIP/src/apps/mqtt/mqtt.c **** static struct mqtt_request_t *
 287:Middlewares/Third_Party/LwIP/src/apps/mqtt/mqtt.c **** mqtt_create_request(struct mqtt_request_t *r_objs, size_t r_objs_len, u16_t pkt_id, mqtt_request_cb
 288:Middlewares/Third_Party/LwIP/src/apps/mqtt/mqtt.c **** {
 289:Middlewares/Third_Party/LwIP/src/apps/mqtt/mqtt.c ****   struct mqtt_request_t *r = NULL;
 290:Middlewares/Third_Party/LwIP/src/apps/mqtt/mqtt.c ****   u8_t n;
 291:Middlewares/Third_Party/LwIP/src/apps/mqtt/mqtt.c ****   LWIP_ASSERT("mqtt_create_request: r_objs != NULL", r_objs != NULL);
 292:Middlewares/Third_Party/LwIP/src/apps/mqtt/mqtt.c ****   for (n = 0; n < r_objs_len; n++) {
 293:Middlewares/Third_Party/LwIP/src/apps/mqtt/mqtt.c ****     /* Item point to itself if not in use */
 294:Middlewares/Third_Party/LwIP/src/apps/mqtt/mqtt.c ****     if (r_objs[n].next == &r_objs[n]) {
 295:Middlewares/Third_Party/LwIP/src/apps/mqtt/mqtt.c ****       r = &r_objs[n];
ARM GAS  C:\Users\hh\AppData\Local\Temp\cc3qgJrr.s 			page 9


 296:Middlewares/Third_Party/LwIP/src/apps/mqtt/mqtt.c ****       r->next = NULL;
 297:Middlewares/Third_Party/LwIP/src/apps/mqtt/mqtt.c ****       r->cb = cb;
 298:Middlewares/Third_Party/LwIP/src/apps/mqtt/mqtt.c ****       r->arg = arg;
 299:Middlewares/Third_Party/LwIP/src/apps/mqtt/mqtt.c ****       r->pkt_id = pkt_id;
 300:Middlewares/Third_Party/LwIP/src/apps/mqtt/mqtt.c ****       break;
 301:Middlewares/Third_Party/LwIP/src/apps/mqtt/mqtt.c ****     }
 302:Middlewares/Third_Party/LwIP/src/apps/mqtt/mqtt.c ****   }
 303:Middlewares/Third_Party/LwIP/src/apps/mqtt/mqtt.c ****   return r;
 304:Middlewares/Third_Party/LwIP/src/apps/mqtt/mqtt.c **** }
 305:Middlewares/Third_Party/LwIP/src/apps/mqtt/mqtt.c **** 
 306:Middlewares/Third_Party/LwIP/src/apps/mqtt/mqtt.c **** 
 307:Middlewares/Third_Party/LwIP/src/apps/mqtt/mqtt.c **** /**
 308:Middlewares/Third_Party/LwIP/src/apps/mqtt/mqtt.c ****  * Append request to pending request queue
 309:Middlewares/Third_Party/LwIP/src/apps/mqtt/mqtt.c ****  * @param tail Pointer to request queue tail pointer
 310:Middlewares/Third_Party/LwIP/src/apps/mqtt/mqtt.c ****  * @param r Request to append
 311:Middlewares/Third_Party/LwIP/src/apps/mqtt/mqtt.c ****  */
 312:Middlewares/Third_Party/LwIP/src/apps/mqtt/mqtt.c **** static void
 313:Middlewares/Third_Party/LwIP/src/apps/mqtt/mqtt.c **** mqtt_append_request(struct mqtt_request_t **tail, struct mqtt_request_t *r)
 314:Middlewares/Third_Party/LwIP/src/apps/mqtt/mqtt.c **** {
 315:Middlewares/Third_Party/LwIP/src/apps/mqtt/mqtt.c ****   struct mqtt_request_t *head = NULL;
 316:Middlewares/Third_Party/LwIP/src/apps/mqtt/mqtt.c ****   s16_t time_before = 0;
 317:Middlewares/Third_Party/LwIP/src/apps/mqtt/mqtt.c ****   struct mqtt_request_t *iter;
 318:Middlewares/Third_Party/LwIP/src/apps/mqtt/mqtt.c **** 
 319:Middlewares/Third_Party/LwIP/src/apps/mqtt/mqtt.c ****   LWIP_ASSERT("mqtt_append_request: tail != NULL", tail != NULL);
 320:Middlewares/Third_Party/LwIP/src/apps/mqtt/mqtt.c **** 
 321:Middlewares/Third_Party/LwIP/src/apps/mqtt/mqtt.c ****   /* Iterate through queue to find head, and count total timeout time */
 322:Middlewares/Third_Party/LwIP/src/apps/mqtt/mqtt.c ****   for (iter = *tail; iter != NULL; iter = iter->next) {
 323:Middlewares/Third_Party/LwIP/src/apps/mqtt/mqtt.c ****     time_before += iter->timeout_diff;
 324:Middlewares/Third_Party/LwIP/src/apps/mqtt/mqtt.c ****     head = iter;
 325:Middlewares/Third_Party/LwIP/src/apps/mqtt/mqtt.c ****   }
 326:Middlewares/Third_Party/LwIP/src/apps/mqtt/mqtt.c **** 
 327:Middlewares/Third_Party/LwIP/src/apps/mqtt/mqtt.c ****   LWIP_ASSERT("mqtt_append_request: time_before <= MQTT_REQ_TIMEOUT", time_before <= MQTT_REQ_TIMEO
 328:Middlewares/Third_Party/LwIP/src/apps/mqtt/mqtt.c ****   r->timeout_diff = MQTT_REQ_TIMEOUT - time_before;
 329:Middlewares/Third_Party/LwIP/src/apps/mqtt/mqtt.c ****   if (head == NULL) {
 330:Middlewares/Third_Party/LwIP/src/apps/mqtt/mqtt.c ****     *tail = r;
 331:Middlewares/Third_Party/LwIP/src/apps/mqtt/mqtt.c ****   } else {
 332:Middlewares/Third_Party/LwIP/src/apps/mqtt/mqtt.c ****     head->next = r;
 333:Middlewares/Third_Party/LwIP/src/apps/mqtt/mqtt.c ****   }
 334:Middlewares/Third_Party/LwIP/src/apps/mqtt/mqtt.c **** }
 335:Middlewares/Third_Party/LwIP/src/apps/mqtt/mqtt.c **** 
 336:Middlewares/Third_Party/LwIP/src/apps/mqtt/mqtt.c **** 
 337:Middlewares/Third_Party/LwIP/src/apps/mqtt/mqtt.c **** /**
 338:Middlewares/Third_Party/LwIP/src/apps/mqtt/mqtt.c ****  * Delete request item
 339:Middlewares/Third_Party/LwIP/src/apps/mqtt/mqtt.c ****  * @param r Request item to delete
 340:Middlewares/Third_Party/LwIP/src/apps/mqtt/mqtt.c ****  */
 341:Middlewares/Third_Party/LwIP/src/apps/mqtt/mqtt.c **** static void
 342:Middlewares/Third_Party/LwIP/src/apps/mqtt/mqtt.c **** mqtt_delete_request(struct mqtt_request_t *r)
 343:Middlewares/Third_Party/LwIP/src/apps/mqtt/mqtt.c **** {
 171              		.loc 1 343 1 is_stmt 1 view -0
 172              		.cfi_startproc
 173              		@ args = 0, pretend = 0, frame = 0
 174              		@ frame_needed = 0, uses_anonymous_args = 0
 175              		@ link register save eliminated.
 344:Middlewares/Third_Party/LwIP/src/apps/mqtt/mqtt.c ****   if (r != NULL) {
 176              		.loc 1 344 3 view .LVU40
 177              		.loc 1 344 6 is_stmt 0 view .LVU41
 178 0000 0346     		mov	r3, r0
ARM GAS  C:\Users\hh\AppData\Local\Temp\cc3qgJrr.s 			page 10


 179 0002 00B1     		cbz	r0, .L8
 345:Middlewares/Third_Party/LwIP/src/apps/mqtt/mqtt.c ****     r->next = r;
 180              		.loc 1 345 5 is_stmt 1 view .LVU42
 181              		.loc 1 345 13 is_stmt 0 view .LVU43
 182 0004 1860     		str	r0, [r3]
 183              	.L8:
 346:Middlewares/Third_Party/LwIP/src/apps/mqtt/mqtt.c ****   }
 347:Middlewares/Third_Party/LwIP/src/apps/mqtt/mqtt.c **** }
 184              		.loc 1 347 1 view .LVU44
 185 0006 7047     		bx	lr
 186              		.cfi_endproc
 187              	.LFE180:
 189              		.section	.text.mqtt_output_append_u8,"ax",%progbits
 190              		.align	1
 191              		.syntax unified
 192              		.thumb
 193              		.thumb_func
 195              	mqtt_output_append_u8:
 196              	.LVL10:
 197              	.LFB185:
 348:Middlewares/Third_Party/LwIP/src/apps/mqtt/mqtt.c **** 
 349:Middlewares/Third_Party/LwIP/src/apps/mqtt/mqtt.c **** /**
 350:Middlewares/Third_Party/LwIP/src/apps/mqtt/mqtt.c ****  * Remove a request item with a specific packet identifier from request queue
 351:Middlewares/Third_Party/LwIP/src/apps/mqtt/mqtt.c ****  * @param tail Pointer to request queue tail pointer
 352:Middlewares/Third_Party/LwIP/src/apps/mqtt/mqtt.c ****  * @param pkt_id Packet identifier of request to take
 353:Middlewares/Third_Party/LwIP/src/apps/mqtt/mqtt.c ****  * @return Request item if found, NULL if not
 354:Middlewares/Third_Party/LwIP/src/apps/mqtt/mqtt.c ****  */
 355:Middlewares/Third_Party/LwIP/src/apps/mqtt/mqtt.c **** static struct mqtt_request_t *
 356:Middlewares/Third_Party/LwIP/src/apps/mqtt/mqtt.c **** mqtt_take_request(struct mqtt_request_t **tail, u16_t pkt_id)
 357:Middlewares/Third_Party/LwIP/src/apps/mqtt/mqtt.c **** {
 358:Middlewares/Third_Party/LwIP/src/apps/mqtt/mqtt.c ****   struct mqtt_request_t *iter = NULL, *prev = NULL;
 359:Middlewares/Third_Party/LwIP/src/apps/mqtt/mqtt.c ****   LWIP_ASSERT("mqtt_take_request: tail != NULL", tail != NULL);
 360:Middlewares/Third_Party/LwIP/src/apps/mqtt/mqtt.c ****   /* Search all request for pkt_id */
 361:Middlewares/Third_Party/LwIP/src/apps/mqtt/mqtt.c ****   for (iter = *tail; iter != NULL; iter = iter->next) {
 362:Middlewares/Third_Party/LwIP/src/apps/mqtt/mqtt.c ****     if (iter->pkt_id == pkt_id) {
 363:Middlewares/Third_Party/LwIP/src/apps/mqtt/mqtt.c ****       break;
 364:Middlewares/Third_Party/LwIP/src/apps/mqtt/mqtt.c ****     }
 365:Middlewares/Third_Party/LwIP/src/apps/mqtt/mqtt.c ****     prev = iter;
 366:Middlewares/Third_Party/LwIP/src/apps/mqtt/mqtt.c ****   }
 367:Middlewares/Third_Party/LwIP/src/apps/mqtt/mqtt.c **** 
 368:Middlewares/Third_Party/LwIP/src/apps/mqtt/mqtt.c ****   /* If request was found */
 369:Middlewares/Third_Party/LwIP/src/apps/mqtt/mqtt.c ****   if (iter != NULL) {
 370:Middlewares/Third_Party/LwIP/src/apps/mqtt/mqtt.c ****     /* unchain */
 371:Middlewares/Third_Party/LwIP/src/apps/mqtt/mqtt.c ****     if (prev == NULL) {
 372:Middlewares/Third_Party/LwIP/src/apps/mqtt/mqtt.c ****       *tail = iter->next;
 373:Middlewares/Third_Party/LwIP/src/apps/mqtt/mqtt.c ****     } else {
 374:Middlewares/Third_Party/LwIP/src/apps/mqtt/mqtt.c ****       prev->next = iter->next;
 375:Middlewares/Third_Party/LwIP/src/apps/mqtt/mqtt.c ****     }
 376:Middlewares/Third_Party/LwIP/src/apps/mqtt/mqtt.c ****     /* If exists, add remaining timeout time for the request to next */
 377:Middlewares/Third_Party/LwIP/src/apps/mqtt/mqtt.c ****     if (iter->next != NULL) {
 378:Middlewares/Third_Party/LwIP/src/apps/mqtt/mqtt.c ****       iter->next->timeout_diff += iter->timeout_diff;
 379:Middlewares/Third_Party/LwIP/src/apps/mqtt/mqtt.c ****     }
 380:Middlewares/Third_Party/LwIP/src/apps/mqtt/mqtt.c ****     iter->next = NULL;
 381:Middlewares/Third_Party/LwIP/src/apps/mqtt/mqtt.c ****   }
 382:Middlewares/Third_Party/LwIP/src/apps/mqtt/mqtt.c ****   return iter;
 383:Middlewares/Third_Party/LwIP/src/apps/mqtt/mqtt.c **** }
 384:Middlewares/Third_Party/LwIP/src/apps/mqtt/mqtt.c **** 
ARM GAS  C:\Users\hh\AppData\Local\Temp\cc3qgJrr.s 			page 11


 385:Middlewares/Third_Party/LwIP/src/apps/mqtt/mqtt.c **** /**
 386:Middlewares/Third_Party/LwIP/src/apps/mqtt/mqtt.c ****  * Handle requests timeout
 387:Middlewares/Third_Party/LwIP/src/apps/mqtt/mqtt.c ****  * @param tail Pointer to request queue tail pointer
 388:Middlewares/Third_Party/LwIP/src/apps/mqtt/mqtt.c ****  * @param t Time since last call in seconds
 389:Middlewares/Third_Party/LwIP/src/apps/mqtt/mqtt.c ****  */
 390:Middlewares/Third_Party/LwIP/src/apps/mqtt/mqtt.c **** static void
 391:Middlewares/Third_Party/LwIP/src/apps/mqtt/mqtt.c **** mqtt_request_time_elapsed(struct mqtt_request_t **tail, u8_t t)
 392:Middlewares/Third_Party/LwIP/src/apps/mqtt/mqtt.c **** {
 393:Middlewares/Third_Party/LwIP/src/apps/mqtt/mqtt.c ****   struct mqtt_request_t *r;
 394:Middlewares/Third_Party/LwIP/src/apps/mqtt/mqtt.c ****   LWIP_ASSERT("mqtt_request_time_elapsed: tail != NULL", tail != NULL);
 395:Middlewares/Third_Party/LwIP/src/apps/mqtt/mqtt.c ****   r = *tail;
 396:Middlewares/Third_Party/LwIP/src/apps/mqtt/mqtt.c ****   while (t > 0 && r != NULL) {
 397:Middlewares/Third_Party/LwIP/src/apps/mqtt/mqtt.c ****     if (t >= r->timeout_diff) {
 398:Middlewares/Third_Party/LwIP/src/apps/mqtt/mqtt.c ****       t -= (u8_t)r->timeout_diff;
 399:Middlewares/Third_Party/LwIP/src/apps/mqtt/mqtt.c ****       /* Unchain */
 400:Middlewares/Third_Party/LwIP/src/apps/mqtt/mqtt.c ****       *tail = r->next;
 401:Middlewares/Third_Party/LwIP/src/apps/mqtt/mqtt.c ****       /* Notify upper layer about timeout */
 402:Middlewares/Third_Party/LwIP/src/apps/mqtt/mqtt.c ****       if (r->cb != NULL) {
 403:Middlewares/Third_Party/LwIP/src/apps/mqtt/mqtt.c ****         r->cb(r->arg, ERR_TIMEOUT);
 404:Middlewares/Third_Party/LwIP/src/apps/mqtt/mqtt.c ****       }
 405:Middlewares/Third_Party/LwIP/src/apps/mqtt/mqtt.c ****       mqtt_delete_request(r);
 406:Middlewares/Third_Party/LwIP/src/apps/mqtt/mqtt.c ****       /* Tail might be be modified in callback, so re-read it in every iteration */
 407:Middlewares/Third_Party/LwIP/src/apps/mqtt/mqtt.c ****       r = *(struct mqtt_request_t *const volatile *)tail;
 408:Middlewares/Third_Party/LwIP/src/apps/mqtt/mqtt.c ****     } else {
 409:Middlewares/Third_Party/LwIP/src/apps/mqtt/mqtt.c ****       r->timeout_diff -= t;
 410:Middlewares/Third_Party/LwIP/src/apps/mqtt/mqtt.c ****       t = 0;
 411:Middlewares/Third_Party/LwIP/src/apps/mqtt/mqtt.c ****     }
 412:Middlewares/Third_Party/LwIP/src/apps/mqtt/mqtt.c ****   }
 413:Middlewares/Third_Party/LwIP/src/apps/mqtt/mqtt.c **** }
 414:Middlewares/Third_Party/LwIP/src/apps/mqtt/mqtt.c **** 
 415:Middlewares/Third_Party/LwIP/src/apps/mqtt/mqtt.c **** /**
 416:Middlewares/Third_Party/LwIP/src/apps/mqtt/mqtt.c ****  * Free all request items
 417:Middlewares/Third_Party/LwIP/src/apps/mqtt/mqtt.c ****  * @param tail Pointer to request queue tail pointer
 418:Middlewares/Third_Party/LwIP/src/apps/mqtt/mqtt.c ****  */
 419:Middlewares/Third_Party/LwIP/src/apps/mqtt/mqtt.c **** static void
 420:Middlewares/Third_Party/LwIP/src/apps/mqtt/mqtt.c **** mqtt_clear_requests(struct mqtt_request_t **tail)
 421:Middlewares/Third_Party/LwIP/src/apps/mqtt/mqtt.c **** {
 422:Middlewares/Third_Party/LwIP/src/apps/mqtt/mqtt.c ****   struct mqtt_request_t *iter, *next;
 423:Middlewares/Third_Party/LwIP/src/apps/mqtt/mqtt.c ****   LWIP_ASSERT("mqtt_clear_requests: tail != NULL", tail != NULL);
 424:Middlewares/Third_Party/LwIP/src/apps/mqtt/mqtt.c ****   for (iter = *tail; iter != NULL; iter = next) {
 425:Middlewares/Third_Party/LwIP/src/apps/mqtt/mqtt.c ****     next = iter->next;
 426:Middlewares/Third_Party/LwIP/src/apps/mqtt/mqtt.c ****     mqtt_delete_request(iter);
 427:Middlewares/Third_Party/LwIP/src/apps/mqtt/mqtt.c ****   }
 428:Middlewares/Third_Party/LwIP/src/apps/mqtt/mqtt.c ****   *tail = NULL;
 429:Middlewares/Third_Party/LwIP/src/apps/mqtt/mqtt.c **** }
 430:Middlewares/Third_Party/LwIP/src/apps/mqtt/mqtt.c **** /**
 431:Middlewares/Third_Party/LwIP/src/apps/mqtt/mqtt.c ****  * Initialize all request items
 432:Middlewares/Third_Party/LwIP/src/apps/mqtt/mqtt.c ****  * @param r_objs Pointer to request objects
 433:Middlewares/Third_Party/LwIP/src/apps/mqtt/mqtt.c ****  * @param r_objs_len Number of array entries
 434:Middlewares/Third_Party/LwIP/src/apps/mqtt/mqtt.c ****  */
 435:Middlewares/Third_Party/LwIP/src/apps/mqtt/mqtt.c **** static void
 436:Middlewares/Third_Party/LwIP/src/apps/mqtt/mqtt.c **** mqtt_init_requests(struct mqtt_request_t *r_objs, size_t r_objs_len)
 437:Middlewares/Third_Party/LwIP/src/apps/mqtt/mqtt.c **** {
 438:Middlewares/Third_Party/LwIP/src/apps/mqtt/mqtt.c ****   u8_t n;
 439:Middlewares/Third_Party/LwIP/src/apps/mqtt/mqtt.c ****   LWIP_ASSERT("mqtt_init_requests: r_objs != NULL", r_objs != NULL);
 440:Middlewares/Third_Party/LwIP/src/apps/mqtt/mqtt.c ****   for (n = 0; n < r_objs_len; n++) {
 441:Middlewares/Third_Party/LwIP/src/apps/mqtt/mqtt.c ****     /* Item pointing to itself indicates unused */
ARM GAS  C:\Users\hh\AppData\Local\Temp\cc3qgJrr.s 			page 12


 442:Middlewares/Third_Party/LwIP/src/apps/mqtt/mqtt.c ****     r_objs[n].next = &r_objs[n];
 443:Middlewares/Third_Party/LwIP/src/apps/mqtt/mqtt.c ****   }
 444:Middlewares/Third_Party/LwIP/src/apps/mqtt/mqtt.c **** }
 445:Middlewares/Third_Party/LwIP/src/apps/mqtt/mqtt.c **** 
 446:Middlewares/Third_Party/LwIP/src/apps/mqtt/mqtt.c **** /*-------------------------------------------------------------------------------------------------
 447:Middlewares/Third_Party/LwIP/src/apps/mqtt/mqtt.c **** /* Output message build helpers */
 448:Middlewares/Third_Party/LwIP/src/apps/mqtt/mqtt.c **** 
 449:Middlewares/Third_Party/LwIP/src/apps/mqtt/mqtt.c **** 
 450:Middlewares/Third_Party/LwIP/src/apps/mqtt/mqtt.c **** static void
 451:Middlewares/Third_Party/LwIP/src/apps/mqtt/mqtt.c **** mqtt_output_append_u8(struct mqtt_ringbuf_t *rb, u8_t value)
 452:Middlewares/Third_Party/LwIP/src/apps/mqtt/mqtt.c **** {
 198              		.loc 1 452 1 is_stmt 1 view -0
 199              		.cfi_startproc
 200              		@ args = 0, pretend = 0, frame = 0
 201              		@ frame_needed = 0, uses_anonymous_args = 0
 202              		.loc 1 452 1 is_stmt 0 view .LVU46
 203 0000 08B5     		push	{r3, lr}
 204              	.LCFI0:
 205              		.cfi_def_cfa_offset 8
 206              		.cfi_offset 3, -8
 207              		.cfi_offset 14, -4
 453:Middlewares/Third_Party/LwIP/src/apps/mqtt/mqtt.c ****   mqtt_ringbuf_put(rb, value);
 208              		.loc 1 453 3 is_stmt 1 view .LVU47
 209 0002 FFF7FEFF 		bl	mqtt_ringbuf_put
 210              	.LVL11:
 454:Middlewares/Third_Party/LwIP/src/apps/mqtt/mqtt.c **** }
 211              		.loc 1 454 1 is_stmt 0 view .LVU48
 212 0006 08BD     		pop	{r3, pc}
 213              		.cfi_endproc
 214              	.LFE185:
 216              		.section	.text.mqtt_output_append_u16,"ax",%progbits
 217              		.align	1
 218              		.syntax unified
 219              		.thumb
 220              		.thumb_func
 222              	mqtt_output_append_u16:
 223              	.LVL12:
 224              	.LFB186:
 455:Middlewares/Third_Party/LwIP/src/apps/mqtt/mqtt.c **** 
 456:Middlewares/Third_Party/LwIP/src/apps/mqtt/mqtt.c **** static
 457:Middlewares/Third_Party/LwIP/src/apps/mqtt/mqtt.c **** void mqtt_output_append_u16(struct mqtt_ringbuf_t *rb, u16_t value)
 458:Middlewares/Third_Party/LwIP/src/apps/mqtt/mqtt.c **** {
 225              		.loc 1 458 1 is_stmt 1 view -0
 226              		.cfi_startproc
 227              		@ args = 0, pretend = 0, frame = 0
 228              		@ frame_needed = 0, uses_anonymous_args = 0
 229              		.loc 1 458 1 is_stmt 0 view .LVU50
 230 0000 38B5     		push	{r3, r4, r5, lr}
 231              	.LCFI1:
 232              		.cfi_def_cfa_offset 16
 233              		.cfi_offset 3, -16
 234              		.cfi_offset 4, -12
 235              		.cfi_offset 5, -8
 236              		.cfi_offset 14, -4
 237 0002 0546     		mov	r5, r0
 238 0004 0C46     		mov	r4, r1
 459:Middlewares/Third_Party/LwIP/src/apps/mqtt/mqtt.c ****   mqtt_ringbuf_put(rb, value >> 8);
ARM GAS  C:\Users\hh\AppData\Local\Temp\cc3qgJrr.s 			page 13


 239              		.loc 1 459 3 is_stmt 1 view .LVU51
 240 0006 090A     		lsrs	r1, r1, #8
 241              	.LVL13:
 242              		.loc 1 459 3 is_stmt 0 view .LVU52
 243 0008 FFF7FEFF 		bl	mqtt_ringbuf_put
 244              	.LVL14:
 460:Middlewares/Third_Party/LwIP/src/apps/mqtt/mqtt.c ****   mqtt_ringbuf_put(rb, value & 0xff);
 245              		.loc 1 460 3 is_stmt 1 view .LVU53
 246 000c E1B2     		uxtb	r1, r4
 247 000e 2846     		mov	r0, r5
 248 0010 FFF7FEFF 		bl	mqtt_ringbuf_put
 249              	.LVL15:
 461:Middlewares/Third_Party/LwIP/src/apps/mqtt/mqtt.c **** }
 250              		.loc 1 461 1 is_stmt 0 view .LVU54
 251 0014 38BD     		pop	{r3, r4, r5, pc}
 252              		.loc 1 461 1 view .LVU55
 253              		.cfi_endproc
 254              	.LFE186:
 256              		.section	.text.mqtt_output_append_buf,"ax",%progbits
 257              		.align	1
 258              		.syntax unified
 259              		.thumb
 260              		.thumb_func
 262              	mqtt_output_append_buf:
 263              	.LVL16:
 264              	.LFB187:
 462:Middlewares/Third_Party/LwIP/src/apps/mqtt/mqtt.c **** 
 463:Middlewares/Third_Party/LwIP/src/apps/mqtt/mqtt.c **** static void
 464:Middlewares/Third_Party/LwIP/src/apps/mqtt/mqtt.c **** mqtt_output_append_buf(struct mqtt_ringbuf_t *rb, const void *data, u16_t length)
 465:Middlewares/Third_Party/LwIP/src/apps/mqtt/mqtt.c **** {
 265              		.loc 1 465 1 is_stmt 1 view -0
 266              		.cfi_startproc
 267              		@ args = 0, pretend = 0, frame = 0
 268              		@ frame_needed = 0, uses_anonymous_args = 0
 269              		.loc 1 465 1 is_stmt 0 view .LVU57
 270 0000 F8B5     		push	{r3, r4, r5, r6, r7, lr}
 271              	.LCFI2:
 272              		.cfi_def_cfa_offset 24
 273              		.cfi_offset 3, -24
 274              		.cfi_offset 4, -20
 275              		.cfi_offset 5, -16
 276              		.cfi_offset 6, -12
 277              		.cfi_offset 7, -8
 278              		.cfi_offset 14, -4
 279 0002 0746     		mov	r7, r0
 280 0004 0E46     		mov	r6, r1
 281 0006 1546     		mov	r5, r2
 466:Middlewares/Third_Party/LwIP/src/apps/mqtt/mqtt.c ****   u16_t n;
 282              		.loc 1 466 3 is_stmt 1 view .LVU58
 467:Middlewares/Third_Party/LwIP/src/apps/mqtt/mqtt.c ****   for (n = 0; n < length; n++) {
 283              		.loc 1 467 3 view .LVU59
 284              	.LVL17:
 285              		.loc 1 467 10 is_stmt 0 view .LVU60
 286 0008 0024     		movs	r4, #0
 287              		.loc 1 467 3 view .LVU61
 288 000a 05E0     		b	.L15
 289              	.LVL18:
ARM GAS  C:\Users\hh\AppData\Local\Temp\cc3qgJrr.s 			page 14


 290              	.L16:
 468:Middlewares/Third_Party/LwIP/src/apps/mqtt/mqtt.c ****     mqtt_ringbuf_put(rb, ((const u8_t *)data)[n]);
 291              		.loc 1 468 5 is_stmt 1 view .LVU62
 292 000c 315D     		ldrb	r1, [r6, r4]	@ zero_extendqisi2
 293 000e 3846     		mov	r0, r7
 294 0010 FFF7FEFF 		bl	mqtt_ringbuf_put
 295              	.LVL19:
 467:Middlewares/Third_Party/LwIP/src/apps/mqtt/mqtt.c ****   for (n = 0; n < length; n++) {
 296              		.loc 1 467 28 discriminator 3 view .LVU63
 297 0014 0134     		adds	r4, r4, #1
 298              	.LVL20:
 467:Middlewares/Third_Party/LwIP/src/apps/mqtt/mqtt.c ****   for (n = 0; n < length; n++) {
 299              		.loc 1 467 28 is_stmt 0 discriminator 3 view .LVU64
 300 0016 A4B2     		uxth	r4, r4
 301              	.LVL21:
 302              	.L15:
 467:Middlewares/Third_Party/LwIP/src/apps/mqtt/mqtt.c ****   for (n = 0; n < length; n++) {
 303              		.loc 1 467 17 is_stmt 1 discriminator 1 view .LVU65
 304 0018 AC42     		cmp	r4, r5
 305 001a F7D3     		bcc	.L16
 469:Middlewares/Third_Party/LwIP/src/apps/mqtt/mqtt.c ****   }
 470:Middlewares/Third_Party/LwIP/src/apps/mqtt/mqtt.c **** }
 306              		.loc 1 470 1 is_stmt 0 view .LVU66
 307 001c F8BD     		pop	{r3, r4, r5, r6, r7, pc}
 308              		.loc 1 470 1 view .LVU67
 309              		.cfi_endproc
 310              	.LFE187:
 312              		.section	.text.mqtt_output_append_string,"ax",%progbits
 313              		.align	1
 314              		.syntax unified
 315              		.thumb
 316              		.thumb_func
 318              	mqtt_output_append_string:
 319              	.LVL22:
 320              	.LFB188:
 471:Middlewares/Third_Party/LwIP/src/apps/mqtt/mqtt.c **** 
 472:Middlewares/Third_Party/LwIP/src/apps/mqtt/mqtt.c **** static void
 473:Middlewares/Third_Party/LwIP/src/apps/mqtt/mqtt.c **** mqtt_output_append_string(struct mqtt_ringbuf_t *rb, const char *str, u16_t length)
 474:Middlewares/Third_Party/LwIP/src/apps/mqtt/mqtt.c **** {
 321              		.loc 1 474 1 is_stmt 1 view -0
 322              		.cfi_startproc
 323              		@ args = 0, pretend = 0, frame = 0
 324              		@ frame_needed = 0, uses_anonymous_args = 0
 325              		.loc 1 474 1 is_stmt 0 view .LVU69
 326 0000 F8B5     		push	{r3, r4, r5, r6, r7, lr}
 327              	.LCFI3:
 328              		.cfi_def_cfa_offset 24
 329              		.cfi_offset 3, -24
 330              		.cfi_offset 4, -20
 331              		.cfi_offset 5, -16
 332              		.cfi_offset 6, -12
 333              		.cfi_offset 7, -8
 334              		.cfi_offset 14, -4
 335 0002 0646     		mov	r6, r0
 336 0004 0F46     		mov	r7, r1
 337 0006 1546     		mov	r5, r2
 475:Middlewares/Third_Party/LwIP/src/apps/mqtt/mqtt.c ****   u16_t n;
ARM GAS  C:\Users\hh\AppData\Local\Temp\cc3qgJrr.s 			page 15


 338              		.loc 1 475 3 is_stmt 1 view .LVU70
 476:Middlewares/Third_Party/LwIP/src/apps/mqtt/mqtt.c ****   mqtt_ringbuf_put(rb, length >> 8);
 339              		.loc 1 476 3 view .LVU71
 340 0008 110A     		lsrs	r1, r2, #8
 341              	.LVL23:
 342              		.loc 1 476 3 is_stmt 0 view .LVU72
 343 000a FFF7FEFF 		bl	mqtt_ringbuf_put
 344              	.LVL24:
 477:Middlewares/Third_Party/LwIP/src/apps/mqtt/mqtt.c ****   mqtt_ringbuf_put(rb, length & 0xff);
 345              		.loc 1 477 3 is_stmt 1 view .LVU73
 346 000e E9B2     		uxtb	r1, r5
 347 0010 3046     		mov	r0, r6
 348 0012 FFF7FEFF 		bl	mqtt_ringbuf_put
 349              	.LVL25:
 478:Middlewares/Third_Party/LwIP/src/apps/mqtt/mqtt.c ****   for (n = 0; n < length; n++) {
 350              		.loc 1 478 3 view .LVU74
 351              		.loc 1 478 10 is_stmt 0 view .LVU75
 352 0016 0024     		movs	r4, #0
 353              		.loc 1 478 3 view .LVU76
 354 0018 05E0     		b	.L19
 355              	.LVL26:
 356              	.L20:
 479:Middlewares/Third_Party/LwIP/src/apps/mqtt/mqtt.c ****     mqtt_ringbuf_put(rb, str[n]);
 357              		.loc 1 479 5 is_stmt 1 view .LVU77
 358 001a 395D     		ldrb	r1, [r7, r4]	@ zero_extendqisi2
 359 001c 3046     		mov	r0, r6
 360 001e FFF7FEFF 		bl	mqtt_ringbuf_put
 361              	.LVL27:
 478:Middlewares/Third_Party/LwIP/src/apps/mqtt/mqtt.c ****   for (n = 0; n < length; n++) {
 362              		.loc 1 478 28 discriminator 3 view .LVU78
 363 0022 0134     		adds	r4, r4, #1
 364              	.LVL28:
 478:Middlewares/Third_Party/LwIP/src/apps/mqtt/mqtt.c ****   for (n = 0; n < length; n++) {
 365              		.loc 1 478 28 is_stmt 0 discriminator 3 view .LVU79
 366 0024 A4B2     		uxth	r4, r4
 367              	.LVL29:
 368              	.L19:
 478:Middlewares/Third_Party/LwIP/src/apps/mqtt/mqtt.c ****   for (n = 0; n < length; n++) {
 369              		.loc 1 478 17 is_stmt 1 discriminator 1 view .LVU80
 370 0026 AC42     		cmp	r4, r5
 371 0028 F7D3     		bcc	.L20
 480:Middlewares/Third_Party/LwIP/src/apps/mqtt/mqtt.c ****   }
 481:Middlewares/Third_Party/LwIP/src/apps/mqtt/mqtt.c **** }
 372              		.loc 1 481 1 is_stmt 0 view .LVU81
 373 002a F8BD     		pop	{r3, r4, r5, r6, r7, pc}
 374              		.loc 1 481 1 view .LVU82
 375              		.cfi_endproc
 376              	.LFE188:
 378              		.section	.text.mqtt_output_append_fixed_header,"ax",%progbits
 379              		.align	1
 380              		.syntax unified
 381              		.thumb
 382              		.thumb_func
 384              	mqtt_output_append_fixed_header:
 385              	.LVL30:
 386              	.LFB189:
 482:Middlewares/Third_Party/LwIP/src/apps/mqtt/mqtt.c **** 
ARM GAS  C:\Users\hh\AppData\Local\Temp\cc3qgJrr.s 			page 16


 483:Middlewares/Third_Party/LwIP/src/apps/mqtt/mqtt.c **** /**
 484:Middlewares/Third_Party/LwIP/src/apps/mqtt/mqtt.c ****  * Append fixed header
 485:Middlewares/Third_Party/LwIP/src/apps/mqtt/mqtt.c ****  * @param rb Output ring buffer
 486:Middlewares/Third_Party/LwIP/src/apps/mqtt/mqtt.c ****  * @param msg_type see enum mqtt_message_type
 487:Middlewares/Third_Party/LwIP/src/apps/mqtt/mqtt.c ****  * @param fdup MQTT DUP flag
 488:Middlewares/Third_Party/LwIP/src/apps/mqtt/mqtt.c ****  * @param fqos MQTT QoS field
 489:Middlewares/Third_Party/LwIP/src/apps/mqtt/mqtt.c ****  * @param fretain MQTT retain flag
 490:Middlewares/Third_Party/LwIP/src/apps/mqtt/mqtt.c ****  * @param r_length Remaining length after fixed header
 491:Middlewares/Third_Party/LwIP/src/apps/mqtt/mqtt.c ****  */
 492:Middlewares/Third_Party/LwIP/src/apps/mqtt/mqtt.c **** 
 493:Middlewares/Third_Party/LwIP/src/apps/mqtt/mqtt.c **** static void
 494:Middlewares/Third_Party/LwIP/src/apps/mqtt/mqtt.c **** mqtt_output_append_fixed_header(struct mqtt_ringbuf_t *rb, u8_t msg_type, u8_t fdup,
 495:Middlewares/Third_Party/LwIP/src/apps/mqtt/mqtt.c ****                                 u8_t fqos, u8_t fretain, u16_t r_length)
 496:Middlewares/Third_Party/LwIP/src/apps/mqtt/mqtt.c **** {
 387              		.loc 1 496 1 is_stmt 1 view -0
 388              		.cfi_startproc
 389              		@ args = 8, pretend = 0, frame = 0
 390              		@ frame_needed = 0, uses_anonymous_args = 0
 391              		.loc 1 496 1 is_stmt 0 view .LVU84
 392 0000 38B5     		push	{r3, r4, r5, lr}
 393              	.LCFI4:
 394              		.cfi_def_cfa_offset 16
 395              		.cfi_offset 3, -16
 396              		.cfi_offset 4, -12
 397              		.cfi_offset 5, -8
 398              		.cfi_offset 14, -4
 399 0002 0546     		mov	r5, r0
 400 0004 BDF81440 		ldrh	r4, [sp, #20]
 497:Middlewares/Third_Party/LwIP/src/apps/mqtt/mqtt.c ****   /* Start with control byte */
 498:Middlewares/Third_Party/LwIP/src/apps/mqtt/mqtt.c ****   mqtt_output_append_u8(rb, (((msg_type & 0x0f) << 4) | ((fdup & 1) << 3) | ((fqos & 3) << 1) | (fr
 401              		.loc 1 498 3 is_stmt 1 view .LVU85
 402              		.loc 1 498 69 is_stmt 0 view .LVU86
 403 0008 D200     		lsls	r2, r2, #3
 404              	.LVL31:
 405              		.loc 1 498 69 view .LVU87
 406 000a 02F00802 		and	r2, r2, #8
 407              		.loc 1 498 55 view .LVU88
 408 000e 42EA0112 		orr	r2, r2, r1, lsl #4
 409 0012 52B2     		sxtb	r2, r2
 410              		.loc 1 498 89 view .LVU89
 411 0014 5B00     		lsls	r3, r3, #1
 412              	.LVL32:
 413              		.loc 1 498 89 view .LVU90
 414 0016 03F00603 		and	r3, r3, #6
 415              		.loc 1 498 75 view .LVU91
 416 001a 1A43     		orrs	r2, r2, r3
 417              		.loc 1 498 3 view .LVU92
 418 001c 9DF81010 		ldrb	r1, [sp, #16]	@ zero_extendqisi2
 419              	.LVL33:
 420              		.loc 1 498 3 view .LVU93
 421 0020 01F00101 		and	r1, r1, #1
 422 0024 1143     		orrs	r1, r1, r2
 423 0026 C9B2     		uxtb	r1, r1
 424 0028 FFF7FEFF 		bl	mqtt_output_append_u8
 425              	.LVL34:
 426              		.loc 1 498 3 view .LVU94
 427 002c 07E0     		b	.L24
ARM GAS  C:\Users\hh\AppData\Local\Temp\cc3qgJrr.s 			page 17


 428              	.LVL35:
 429              	.L25:
 499:Middlewares/Third_Party/LwIP/src/apps/mqtt/mqtt.c ****   /* Encode remaining length field */
 500:Middlewares/Third_Party/LwIP/src/apps/mqtt/mqtt.c ****   do {
 501:Middlewares/Third_Party/LwIP/src/apps/mqtt/mqtt.c ****     mqtt_output_append_u8(rb, (r_length & 0x7f) | (r_length >= 128 ? 0x80 : 0));
 430              		.loc 1 501 49 discriminator 2 view .LVU95
 431 002e 0023     		movs	r3, #0
 432              	.L23:
 433              		.loc 1 501 49 discriminator 4 view .LVU96
 434 0030 1943     		orrs	r1, r1, r3
 435              		.loc 1 501 5 discriminator 4 view .LVU97
 436 0032 C9B2     		uxtb	r1, r1
 437 0034 2846     		mov	r0, r5
 438 0036 FFF7FEFF 		bl	mqtt_output_append_u8
 439              	.LVL36:
 502:Middlewares/Third_Party/LwIP/src/apps/mqtt/mqtt.c ****     r_length >>= 7;
 440              		.loc 1 502 5 is_stmt 1 view .LVU98
 503:Middlewares/Third_Party/LwIP/src/apps/mqtt/mqtt.c ****   } while (r_length > 0);
 441              		.loc 1 503 21 view .LVU99
 442 003a E409     		lsrs	r4, r4, #7
 443              	.LVL37:
 444              		.loc 1 503 21 is_stmt 0 view .LVU100
 445 003c 06D0     		beq	.L27
 446              	.LVL38:
 447              	.L24:
 500:Middlewares/Third_Party/LwIP/src/apps/mqtt/mqtt.c ****     mqtt_output_append_u8(rb, (r_length & 0x7f) | (r_length >= 128 ? 0x80 : 0));
 448              		.loc 1 500 3 is_stmt 1 view .LVU101
 501:Middlewares/Third_Party/LwIP/src/apps/mqtt/mqtt.c ****     r_length >>= 7;
 449              		.loc 1 501 5 view .LVU102
 501:Middlewares/Third_Party/LwIP/src/apps/mqtt/mqtt.c ****     r_length >>= 7;
 450              		.loc 1 501 41 is_stmt 0 view .LVU103
 451 003e 04F07F01 		and	r1, r4, #127
 501:Middlewares/Third_Party/LwIP/src/apps/mqtt/mqtt.c ****     r_length >>= 7;
 452              		.loc 1 501 49 view .LVU104
 453 0042 7F2C     		cmp	r4, #127
 454 0044 F3D9     		bls	.L25
 501:Middlewares/Third_Party/LwIP/src/apps/mqtt/mqtt.c ****     r_length >>= 7;
 455              		.loc 1 501 49 discriminator 1 view .LVU105
 456 0046 6FF07F03 		mvn	r3, #127
 457 004a F1E7     		b	.L23
 458              	.LVL39:
 459              	.L27:
 504:Middlewares/Third_Party/LwIP/src/apps/mqtt/mqtt.c **** }
 460              		.loc 1 504 1 view .LVU106
 461 004c 38BD     		pop	{r3, r4, r5, pc}
 462              		.loc 1 504 1 view .LVU107
 463              		.cfi_endproc
 464              	.LFE189:
 466              		.section	.text.mqtt_incoming_suback,"ax",%progbits
 467              		.align	1
 468              		.syntax unified
 469              		.thumb
 470              		.thumb_func
 472              	mqtt_incoming_suback:
 473              	.LVL40:
 474              	.LFB194:
 505:Middlewares/Third_Party/LwIP/src/apps/mqtt/mqtt.c **** 
ARM GAS  C:\Users\hh\AppData\Local\Temp\cc3qgJrr.s 			page 18


 506:Middlewares/Third_Party/LwIP/src/apps/mqtt/mqtt.c **** 
 507:Middlewares/Third_Party/LwIP/src/apps/mqtt/mqtt.c **** /**
 508:Middlewares/Third_Party/LwIP/src/apps/mqtt/mqtt.c ****  * Check output buffer space
 509:Middlewares/Third_Party/LwIP/src/apps/mqtt/mqtt.c ****  * @param rb Output ring buffer
 510:Middlewares/Third_Party/LwIP/src/apps/mqtt/mqtt.c ****  * @param r_length Remaining length after fixed header
 511:Middlewares/Third_Party/LwIP/src/apps/mqtt/mqtt.c ****  * @return 1 if message will fit, 0 if not enough buffer space
 512:Middlewares/Third_Party/LwIP/src/apps/mqtt/mqtt.c ****  */
 513:Middlewares/Third_Party/LwIP/src/apps/mqtt/mqtt.c **** static u8_t
 514:Middlewares/Third_Party/LwIP/src/apps/mqtt/mqtt.c **** mqtt_output_check_space(struct mqtt_ringbuf_t *rb, u16_t r_length)
 515:Middlewares/Third_Party/LwIP/src/apps/mqtt/mqtt.c **** {
 516:Middlewares/Third_Party/LwIP/src/apps/mqtt/mqtt.c ****   /* Start with length of type byte + remaining length */
 517:Middlewares/Third_Party/LwIP/src/apps/mqtt/mqtt.c ****   u16_t total_len = 1 + r_length;
 518:Middlewares/Third_Party/LwIP/src/apps/mqtt/mqtt.c **** 
 519:Middlewares/Third_Party/LwIP/src/apps/mqtt/mqtt.c ****   LWIP_ASSERT("mqtt_output_check_space: rb != NULL", rb != NULL);
 520:Middlewares/Third_Party/LwIP/src/apps/mqtt/mqtt.c **** 
 521:Middlewares/Third_Party/LwIP/src/apps/mqtt/mqtt.c ****   /* Calculate number of required bytes to contain the remaining bytes field and add to total*/
 522:Middlewares/Third_Party/LwIP/src/apps/mqtt/mqtt.c ****   do {
 523:Middlewares/Third_Party/LwIP/src/apps/mqtt/mqtt.c ****     total_len++;
 524:Middlewares/Third_Party/LwIP/src/apps/mqtt/mqtt.c ****     r_length >>= 7;
 525:Middlewares/Third_Party/LwIP/src/apps/mqtt/mqtt.c ****   } while (r_length > 0);
 526:Middlewares/Third_Party/LwIP/src/apps/mqtt/mqtt.c **** 
 527:Middlewares/Third_Party/LwIP/src/apps/mqtt/mqtt.c ****   return (total_len <= mqtt_ringbuf_free(rb));
 528:Middlewares/Third_Party/LwIP/src/apps/mqtt/mqtt.c **** }
 529:Middlewares/Third_Party/LwIP/src/apps/mqtt/mqtt.c **** 
 530:Middlewares/Third_Party/LwIP/src/apps/mqtt/mqtt.c **** 
 531:Middlewares/Third_Party/LwIP/src/apps/mqtt/mqtt.c **** /**
 532:Middlewares/Third_Party/LwIP/src/apps/mqtt/mqtt.c ****  * Close connection to server
 533:Middlewares/Third_Party/LwIP/src/apps/mqtt/mqtt.c ****  * @param client MQTT client
 534:Middlewares/Third_Party/LwIP/src/apps/mqtt/mqtt.c ****  * @param reason Reason for disconnection
 535:Middlewares/Third_Party/LwIP/src/apps/mqtt/mqtt.c ****  */
 536:Middlewares/Third_Party/LwIP/src/apps/mqtt/mqtt.c **** static void
 537:Middlewares/Third_Party/LwIP/src/apps/mqtt/mqtt.c **** mqtt_close(mqtt_client_t *client, mqtt_connection_status_t reason)
 538:Middlewares/Third_Party/LwIP/src/apps/mqtt/mqtt.c **** {
 539:Middlewares/Third_Party/LwIP/src/apps/mqtt/mqtt.c ****   LWIP_ASSERT("mqtt_close: client != NULL", client != NULL);
 540:Middlewares/Third_Party/LwIP/src/apps/mqtt/mqtt.c **** 
 541:Middlewares/Third_Party/LwIP/src/apps/mqtt/mqtt.c ****   /* Bring down TCP connection if not already done */
 542:Middlewares/Third_Party/LwIP/src/apps/mqtt/mqtt.c ****   if (client->conn != NULL) {
 543:Middlewares/Third_Party/LwIP/src/apps/mqtt/mqtt.c ****     err_t res;
 544:Middlewares/Third_Party/LwIP/src/apps/mqtt/mqtt.c ****     altcp_recv(client->conn, NULL);
 545:Middlewares/Third_Party/LwIP/src/apps/mqtt/mqtt.c ****     altcp_err(client->conn,  NULL);
 546:Middlewares/Third_Party/LwIP/src/apps/mqtt/mqtt.c ****     altcp_sent(client->conn, NULL);
 547:Middlewares/Third_Party/LwIP/src/apps/mqtt/mqtt.c ****     res = altcp_close(client->conn);
 548:Middlewares/Third_Party/LwIP/src/apps/mqtt/mqtt.c ****     if (res != ERR_OK) {
 549:Middlewares/Third_Party/LwIP/src/apps/mqtt/mqtt.c ****       altcp_abort(client->conn);
 550:Middlewares/Third_Party/LwIP/src/apps/mqtt/mqtt.c ****       LWIP_DEBUGF(MQTT_DEBUG_TRACE, ("mqtt_close: Close err=%s\n", lwip_strerr(res)));
 551:Middlewares/Third_Party/LwIP/src/apps/mqtt/mqtt.c ****     }
 552:Middlewares/Third_Party/LwIP/src/apps/mqtt/mqtt.c ****     client->conn = NULL;
 553:Middlewares/Third_Party/LwIP/src/apps/mqtt/mqtt.c ****   }
 554:Middlewares/Third_Party/LwIP/src/apps/mqtt/mqtt.c **** 
 555:Middlewares/Third_Party/LwIP/src/apps/mqtt/mqtt.c ****   /* Remove all pending requests */
 556:Middlewares/Third_Party/LwIP/src/apps/mqtt/mqtt.c ****   mqtt_clear_requests(&client->pend_req_queue);
 557:Middlewares/Third_Party/LwIP/src/apps/mqtt/mqtt.c ****   /* Stop cyclic timer */
 558:Middlewares/Third_Party/LwIP/src/apps/mqtt/mqtt.c ****   sys_untimeout(mqtt_cyclic_timer, client);
 559:Middlewares/Third_Party/LwIP/src/apps/mqtt/mqtt.c **** 
 560:Middlewares/Third_Party/LwIP/src/apps/mqtt/mqtt.c ****   /* Notify upper layer of disconnection if changed state */
 561:Middlewares/Third_Party/LwIP/src/apps/mqtt/mqtt.c ****   if (client->conn_state != TCP_DISCONNECTED) {
 562:Middlewares/Third_Party/LwIP/src/apps/mqtt/mqtt.c **** 
ARM GAS  C:\Users\hh\AppData\Local\Temp\cc3qgJrr.s 			page 19


 563:Middlewares/Third_Party/LwIP/src/apps/mqtt/mqtt.c ****     client->conn_state = TCP_DISCONNECTED;
 564:Middlewares/Third_Party/LwIP/src/apps/mqtt/mqtt.c ****     if (client->connect_cb != NULL) {
 565:Middlewares/Third_Party/LwIP/src/apps/mqtt/mqtt.c ****       client->connect_cb(client, client->connect_arg, reason);
 566:Middlewares/Third_Party/LwIP/src/apps/mqtt/mqtt.c ****     }
 567:Middlewares/Third_Party/LwIP/src/apps/mqtt/mqtt.c ****   }
 568:Middlewares/Third_Party/LwIP/src/apps/mqtt/mqtt.c **** }
 569:Middlewares/Third_Party/LwIP/src/apps/mqtt/mqtt.c **** 
 570:Middlewares/Third_Party/LwIP/src/apps/mqtt/mqtt.c **** 
 571:Middlewares/Third_Party/LwIP/src/apps/mqtt/mqtt.c **** /**
 572:Middlewares/Third_Party/LwIP/src/apps/mqtt/mqtt.c ****  * Interval timer, called every MQTT_CYCLIC_TIMER_INTERVAL seconds in MQTT_CONNECTING and MQTT_CONN
 573:Middlewares/Third_Party/LwIP/src/apps/mqtt/mqtt.c ****  * @param arg MQTT client
 574:Middlewares/Third_Party/LwIP/src/apps/mqtt/mqtt.c ****  */
 575:Middlewares/Third_Party/LwIP/src/apps/mqtt/mqtt.c **** static void
 576:Middlewares/Third_Party/LwIP/src/apps/mqtt/mqtt.c **** mqtt_cyclic_timer(void *arg)
 577:Middlewares/Third_Party/LwIP/src/apps/mqtt/mqtt.c **** {
 578:Middlewares/Third_Party/LwIP/src/apps/mqtt/mqtt.c ****   u8_t restart_timer = 1;
 579:Middlewares/Third_Party/LwIP/src/apps/mqtt/mqtt.c ****   mqtt_client_t *client = (mqtt_client_t *)arg;
 580:Middlewares/Third_Party/LwIP/src/apps/mqtt/mqtt.c ****   LWIP_ASSERT("mqtt_cyclic_timer: client != NULL", client != NULL);
 581:Middlewares/Third_Party/LwIP/src/apps/mqtt/mqtt.c **** 
 582:Middlewares/Third_Party/LwIP/src/apps/mqtt/mqtt.c ****   if (client->conn_state == MQTT_CONNECTING) {
 583:Middlewares/Third_Party/LwIP/src/apps/mqtt/mqtt.c ****     client->cyclic_tick++;
 584:Middlewares/Third_Party/LwIP/src/apps/mqtt/mqtt.c ****     if ((client->cyclic_tick * MQTT_CYCLIC_TIMER_INTERVAL) >= MQTT_CONNECT_TIMOUT) {
 585:Middlewares/Third_Party/LwIP/src/apps/mqtt/mqtt.c ****       LWIP_DEBUGF(MQTT_DEBUG_TRACE, ("mqtt_cyclic_timer: CONNECT attempt to server timed out\n"));
 586:Middlewares/Third_Party/LwIP/src/apps/mqtt/mqtt.c ****       /* Disconnect TCP */
 587:Middlewares/Third_Party/LwIP/src/apps/mqtt/mqtt.c ****       mqtt_close(client, MQTT_CONNECT_TIMEOUT);
 588:Middlewares/Third_Party/LwIP/src/apps/mqtt/mqtt.c ****       restart_timer = 0;
 589:Middlewares/Third_Party/LwIP/src/apps/mqtt/mqtt.c ****     }
 590:Middlewares/Third_Party/LwIP/src/apps/mqtt/mqtt.c ****   } else if (client->conn_state == MQTT_CONNECTED) {
 591:Middlewares/Third_Party/LwIP/src/apps/mqtt/mqtt.c ****     /* Handle timeout for pending requests */
 592:Middlewares/Third_Party/LwIP/src/apps/mqtt/mqtt.c ****     mqtt_request_time_elapsed(&client->pend_req_queue, MQTT_CYCLIC_TIMER_INTERVAL);
 593:Middlewares/Third_Party/LwIP/src/apps/mqtt/mqtt.c **** 
 594:Middlewares/Third_Party/LwIP/src/apps/mqtt/mqtt.c ****     /* keep_alive > 0 means keep alive functionality shall be used */
 595:Middlewares/Third_Party/LwIP/src/apps/mqtt/mqtt.c ****     if (client->keep_alive > 0) {
 596:Middlewares/Third_Party/LwIP/src/apps/mqtt/mqtt.c **** 
 597:Middlewares/Third_Party/LwIP/src/apps/mqtt/mqtt.c ****       client->server_watchdog++;
 598:Middlewares/Third_Party/LwIP/src/apps/mqtt/mqtt.c ****       /* If reception from server has been idle for 1.5*keep_alive time, server is considered unres
 599:Middlewares/Third_Party/LwIP/src/apps/mqtt/mqtt.c ****       if ((client->server_watchdog * MQTT_CYCLIC_TIMER_INTERVAL) > (client->keep_alive + client->ke
 600:Middlewares/Third_Party/LwIP/src/apps/mqtt/mqtt.c ****         LWIP_DEBUGF(MQTT_DEBUG_WARN, ("mqtt_cyclic_timer: Server incoming keep-alive timeout\n"));
 601:Middlewares/Third_Party/LwIP/src/apps/mqtt/mqtt.c ****         mqtt_close(client, MQTT_CONNECT_TIMEOUT);
 602:Middlewares/Third_Party/LwIP/src/apps/mqtt/mqtt.c ****         restart_timer = 0;
 603:Middlewares/Third_Party/LwIP/src/apps/mqtt/mqtt.c ****       }
 604:Middlewares/Third_Party/LwIP/src/apps/mqtt/mqtt.c **** 
 605:Middlewares/Third_Party/LwIP/src/apps/mqtt/mqtt.c ****       /* If time for a keep alive message to be sent, transmission has been idle for keep_alive tim
 606:Middlewares/Third_Party/LwIP/src/apps/mqtt/mqtt.c ****       client->cyclic_tick++;
 607:Middlewares/Third_Party/LwIP/src/apps/mqtt/mqtt.c ****       if ((client->cyclic_tick * MQTT_CYCLIC_TIMER_INTERVAL) >= client->keep_alive) {
 608:Middlewares/Third_Party/LwIP/src/apps/mqtt/mqtt.c ****         LWIP_DEBUGF(MQTT_DEBUG_TRACE, ("mqtt_cyclic_timer: Sending keep-alive message to server\n")
 609:Middlewares/Third_Party/LwIP/src/apps/mqtt/mqtt.c ****         if (mqtt_output_check_space(&client->output, 0) != 0) {
 610:Middlewares/Third_Party/LwIP/src/apps/mqtt/mqtt.c ****           mqtt_output_append_fixed_header(&client->output, MQTT_MSG_TYPE_PINGREQ, 0, 0, 0, 0);
 611:Middlewares/Third_Party/LwIP/src/apps/mqtt/mqtt.c ****           client->cyclic_tick = 0;
 612:Middlewares/Third_Party/LwIP/src/apps/mqtt/mqtt.c ****         }
 613:Middlewares/Third_Party/LwIP/src/apps/mqtt/mqtt.c ****       }
 614:Middlewares/Third_Party/LwIP/src/apps/mqtt/mqtt.c ****     }
 615:Middlewares/Third_Party/LwIP/src/apps/mqtt/mqtt.c ****   } else {
 616:Middlewares/Third_Party/LwIP/src/apps/mqtt/mqtt.c ****     LWIP_DEBUGF(MQTT_DEBUG_WARN, ("mqtt_cyclic_timer: Timer should not be running in state %d\n", c
 617:Middlewares/Third_Party/LwIP/src/apps/mqtt/mqtt.c ****     restart_timer = 0;
 618:Middlewares/Third_Party/LwIP/src/apps/mqtt/mqtt.c ****   }
 619:Middlewares/Third_Party/LwIP/src/apps/mqtt/mqtt.c ****   if (restart_timer) {
ARM GAS  C:\Users\hh\AppData\Local\Temp\cc3qgJrr.s 			page 20


 620:Middlewares/Third_Party/LwIP/src/apps/mqtt/mqtt.c ****     sys_timeout(MQTT_CYCLIC_TIMER_INTERVAL * 1000, mqtt_cyclic_timer, arg);
 621:Middlewares/Third_Party/LwIP/src/apps/mqtt/mqtt.c ****   }
 622:Middlewares/Third_Party/LwIP/src/apps/mqtt/mqtt.c **** }
 623:Middlewares/Third_Party/LwIP/src/apps/mqtt/mqtt.c **** 
 624:Middlewares/Third_Party/LwIP/src/apps/mqtt/mqtt.c **** 
 625:Middlewares/Third_Party/LwIP/src/apps/mqtt/mqtt.c **** /**
 626:Middlewares/Third_Party/LwIP/src/apps/mqtt/mqtt.c ****  * Send PUBACK, PUBREC or PUBREL response message
 627:Middlewares/Third_Party/LwIP/src/apps/mqtt/mqtt.c ****  * @param client MQTT client
 628:Middlewares/Third_Party/LwIP/src/apps/mqtt/mqtt.c ****  * @param msg PUBACK, PUBREC or PUBREL
 629:Middlewares/Third_Party/LwIP/src/apps/mqtt/mqtt.c ****  * @param pkt_id Packet identifier
 630:Middlewares/Third_Party/LwIP/src/apps/mqtt/mqtt.c ****  * @param qos QoS value
 631:Middlewares/Third_Party/LwIP/src/apps/mqtt/mqtt.c ****  * @return ERR_OK if successful, ERR_MEM if out of memory
 632:Middlewares/Third_Party/LwIP/src/apps/mqtt/mqtt.c ****  */
 633:Middlewares/Third_Party/LwIP/src/apps/mqtt/mqtt.c **** static err_t
 634:Middlewares/Third_Party/LwIP/src/apps/mqtt/mqtt.c **** pub_ack_rec_rel_response(mqtt_client_t *client, u8_t msg, u16_t pkt_id, u8_t qos)
 635:Middlewares/Third_Party/LwIP/src/apps/mqtt/mqtt.c **** {
 636:Middlewares/Third_Party/LwIP/src/apps/mqtt/mqtt.c ****   err_t err = ERR_OK;
 637:Middlewares/Third_Party/LwIP/src/apps/mqtt/mqtt.c ****   if (mqtt_output_check_space(&client->output, 2)) {
 638:Middlewares/Third_Party/LwIP/src/apps/mqtt/mqtt.c ****     mqtt_output_append_fixed_header(&client->output, msg, 0, qos, 0, 2);
 639:Middlewares/Third_Party/LwIP/src/apps/mqtt/mqtt.c ****     mqtt_output_append_u16(&client->output, pkt_id);
 640:Middlewares/Third_Party/LwIP/src/apps/mqtt/mqtt.c ****     mqtt_output_send(&client->output, client->conn);
 641:Middlewares/Third_Party/LwIP/src/apps/mqtt/mqtt.c ****   } else {
 642:Middlewares/Third_Party/LwIP/src/apps/mqtt/mqtt.c ****     LWIP_DEBUGF(MQTT_DEBUG_TRACE, ("pub_ack_rec_rel_response: OOM creating response: %s with pkt_id
 643:Middlewares/Third_Party/LwIP/src/apps/mqtt/mqtt.c ****                                    mqtt_msg_type_to_str(msg), pkt_id));
 644:Middlewares/Third_Party/LwIP/src/apps/mqtt/mqtt.c ****     err = ERR_MEM;
 645:Middlewares/Third_Party/LwIP/src/apps/mqtt/mqtt.c ****   }
 646:Middlewares/Third_Party/LwIP/src/apps/mqtt/mqtt.c ****   return err;
 647:Middlewares/Third_Party/LwIP/src/apps/mqtt/mqtt.c **** }
 648:Middlewares/Third_Party/LwIP/src/apps/mqtt/mqtt.c **** 
 649:Middlewares/Third_Party/LwIP/src/apps/mqtt/mqtt.c **** /**
 650:Middlewares/Third_Party/LwIP/src/apps/mqtt/mqtt.c ****  * Subscribe response from server
 651:Middlewares/Third_Party/LwIP/src/apps/mqtt/mqtt.c ****  * @param r Matching request
 652:Middlewares/Third_Party/LwIP/src/apps/mqtt/mqtt.c ****  * @param result Result code from server
 653:Middlewares/Third_Party/LwIP/src/apps/mqtt/mqtt.c ****  */
 654:Middlewares/Third_Party/LwIP/src/apps/mqtt/mqtt.c **** static void
 655:Middlewares/Third_Party/LwIP/src/apps/mqtt/mqtt.c **** mqtt_incoming_suback(struct mqtt_request_t *r, u8_t result)
 656:Middlewares/Third_Party/LwIP/src/apps/mqtt/mqtt.c **** {
 475              		.loc 1 656 1 is_stmt 1 view -0
 476              		.cfi_startproc
 477              		@ args = 0, pretend = 0, frame = 0
 478              		@ frame_needed = 0, uses_anonymous_args = 0
 479              		.loc 1 656 1 is_stmt 0 view .LVU109
 480 0000 08B5     		push	{r3, lr}
 481              	.LCFI5:
 482              		.cfi_def_cfa_offset 8
 483              		.cfi_offset 3, -8
 484              		.cfi_offset 14, -4
 657:Middlewares/Third_Party/LwIP/src/apps/mqtt/mqtt.c ****   if (r->cb != NULL) {
 485              		.loc 1 657 3 is_stmt 1 view .LVU110
 486              		.loc 1 657 8 is_stmt 0 view .LVU111
 487 0002 4368     		ldr	r3, [r0, #4]
 488              		.loc 1 657 6 view .LVU112
 489 0004 23B1     		cbz	r3, .L28
 658:Middlewares/Third_Party/LwIP/src/apps/mqtt/mqtt.c ****     r->cb(r->arg, result < 3 ? ERR_OK : ERR_ABRT);
 490              		.loc 1 658 5 is_stmt 1 view .LVU113
 491 0006 8068     		ldr	r0, [r0, #8]
 492              	.LVL41:
ARM GAS  C:\Users\hh\AppData\Local\Temp\cc3qgJrr.s 			page 21


 493              		.loc 1 658 5 is_stmt 0 view .LVU114
 494 0008 0229     		cmp	r1, #2
 495 000a 02D8     		bhi	.L31
 496              		.loc 1 658 5 discriminator 1 view .LVU115
 497 000c 0021     		movs	r1, #0
 498              	.LVL42:
 499              	.L30:
 500              		.loc 1 658 5 discriminator 4 view .LVU116
 501 000e 9847     		blx	r3
 502              	.LVL43:
 503              	.L28:
 659:Middlewares/Third_Party/LwIP/src/apps/mqtt/mqtt.c ****   }
 660:Middlewares/Third_Party/LwIP/src/apps/mqtt/mqtt.c **** }
 504              		.loc 1 660 1 view .LVU117
 505 0010 08BD     		pop	{r3, pc}
 506              	.LVL44:
 507              	.L31:
 658:Middlewares/Third_Party/LwIP/src/apps/mqtt/mqtt.c ****     r->cb(r->arg, result < 3 ? ERR_OK : ERR_ABRT);
 508              		.loc 1 658 5 discriminator 2 view .LVU118
 509 0012 6FF00C01 		mvn	r1, #12
 510              	.LVL45:
 658:Middlewares/Third_Party/LwIP/src/apps/mqtt/mqtt.c ****     r->cb(r->arg, result < 3 ? ERR_OK : ERR_ABRT);
 511              		.loc 1 658 5 discriminator 2 view .LVU119
 512 0016 FAE7     		b	.L30
 513              		.cfi_endproc
 514              	.LFE194:
 516              		.section	.rodata.mqtt_create_request.str1.4,"aMS",%progbits,1
 517              		.align	2
 518              	.LC0:
 519 0000 4D696464 		.ascii	"Middlewares/Third_Party/LwIP/src/apps/mqtt/mqtt.c\000"
 519      6C657761 
 519      7265732F 
 519      54686972 
 519      645F5061 
 520 0032 0000     		.align	2
 521              	.LC1:
 522 0034 6D717474 		.ascii	"mqtt_create_request: r_objs != NULL\000"
 522      5F637265 
 522      6174655F 
 522      72657175 
 522      6573743A 
 523              		.align	2
 524              	.LC2:
 525 0058 41737365 		.ascii	"Assertion \"%s\" failed at line %d in %s\012\000"
 525      7274696F 
 525      6E202225 
 525      73222066 
 525      61696C65 
 526              		.section	.text.mqtt_create_request,"ax",%progbits
 527              		.align	1
 528              		.syntax unified
 529              		.thumb
 530              		.thumb_func
 532              	mqtt_create_request:
 533              	.LVL46:
 534              	.LFB178:
 288:Middlewares/Third_Party/LwIP/src/apps/mqtt/mqtt.c ****   struct mqtt_request_t *r = NULL;
ARM GAS  C:\Users\hh\AppData\Local\Temp\cc3qgJrr.s 			page 22


 535              		.loc 1 288 1 is_stmt 1 view -0
 536              		.cfi_startproc
 537              		@ args = 4, pretend = 0, frame = 0
 538              		@ frame_needed = 0, uses_anonymous_args = 0
 288:Middlewares/Third_Party/LwIP/src/apps/mqtt/mqtt.c ****   struct mqtt_request_t *r = NULL;
 539              		.loc 1 288 1 is_stmt 0 view .LVU121
 540 0000 F8B5     		push	{r3, r4, r5, r6, r7, lr}
 541              	.LCFI6:
 542              		.cfi_def_cfa_offset 24
 543              		.cfi_offset 3, -24
 544              		.cfi_offset 4, -20
 545              		.cfi_offset 5, -16
 546              		.cfi_offset 6, -12
 547              		.cfi_offset 7, -8
 548              		.cfi_offset 14, -4
 549 0002 0D46     		mov	r5, r1
 550 0004 1646     		mov	r6, r2
 551 0006 1F46     		mov	r7, r3
 289:Middlewares/Third_Party/LwIP/src/apps/mqtt/mqtt.c ****   u8_t n;
 552              		.loc 1 289 3 is_stmt 1 view .LVU122
 553              	.LVL47:
 290:Middlewares/Third_Party/LwIP/src/apps/mqtt/mqtt.c ****   LWIP_ASSERT("mqtt_create_request: r_objs != NULL", r_objs != NULL);
 554              		.loc 1 290 3 view .LVU123
 291:Middlewares/Third_Party/LwIP/src/apps/mqtt/mqtt.c ****   for (n = 0; n < r_objs_len; n++) {
 555              		.loc 1 291 3 view .LVU124
 291:Middlewares/Third_Party/LwIP/src/apps/mqtt/mqtt.c ****   for (n = 0; n < r_objs_len; n++) {
 556              		.loc 1 291 3 view .LVU125
 557 0008 0446     		mov	r4, r0
 558 000a 10B1     		cbz	r0, .L40
 559              	.LVL48:
 560              	.L34:
 291:Middlewares/Third_Party/LwIP/src/apps/mqtt/mqtt.c ****   for (n = 0; n < r_objs_len; n++) {
 561              		.loc 1 291 3 view .LVU126
 291:Middlewares/Third_Party/LwIP/src/apps/mqtt/mqtt.c ****   for (n = 0; n < r_objs_len; n++) {
 562              		.loc 1 291 3 view .LVU127
 292:Middlewares/Third_Party/LwIP/src/apps/mqtt/mqtt.c ****     /* Item point to itself if not in use */
 563              		.loc 1 292 3 view .LVU128
 292:Middlewares/Third_Party/LwIP/src/apps/mqtt/mqtt.c ****     /* Item point to itself if not in use */
 564              		.loc 1 292 10 is_stmt 0 view .LVU129
 565 000c 4FF0000C 		mov	ip, #0
 292:Middlewares/Third_Party/LwIP/src/apps/mqtt/mqtt.c ****     /* Item point to itself if not in use */
 566              		.loc 1 292 3 view .LVU130
 567 0010 0BE0     		b	.L35
 568              	.LVL49:
 569              	.L40:
 291:Middlewares/Third_Party/LwIP/src/apps/mqtt/mqtt.c ****   for (n = 0; n < r_objs_len; n++) {
 570              		.loc 1 291 3 is_stmt 1 discriminator 1 view .LVU131
 291:Middlewares/Third_Party/LwIP/src/apps/mqtt/mqtt.c ****   for (n = 0; n < r_objs_len; n++) {
 571              		.loc 1 291 3 discriminator 1 view .LVU132
 572 0012 104B     		ldr	r3, .L42
 573              	.LVL50:
 291:Middlewares/Third_Party/LwIP/src/apps/mqtt/mqtt.c ****   for (n = 0; n < r_objs_len; n++) {
 574              		.loc 1 291 3 is_stmt 0 discriminator 1 view .LVU133
 575 0014 40F22312 		movw	r2, #291
 576              	.LVL51:
 291:Middlewares/Third_Party/LwIP/src/apps/mqtt/mqtt.c ****   for (n = 0; n < r_objs_len; n++) {
 577              		.loc 1 291 3 discriminator 1 view .LVU134
ARM GAS  C:\Users\hh\AppData\Local\Temp\cc3qgJrr.s 			page 23


 578 0018 0F49     		ldr	r1, .L42+4
 579              	.LVL52:
 291:Middlewares/Third_Party/LwIP/src/apps/mqtt/mqtt.c ****   for (n = 0; n < r_objs_len; n++) {
 580              		.loc 1 291 3 discriminator 1 view .LVU135
 581 001a 1048     		ldr	r0, .L42+8
 582              	.LVL53:
 291:Middlewares/Third_Party/LwIP/src/apps/mqtt/mqtt.c ****   for (n = 0; n < r_objs_len; n++) {
 583              		.loc 1 291 3 discriminator 1 view .LVU136
 584 001c FFF7FEFF 		bl	printf
 585              	.LVL54:
 586 0020 F4E7     		b	.L34
 587              	.LVL55:
 588              	.L36:
 292:Middlewares/Third_Party/LwIP/src/apps/mqtt/mqtt.c ****     /* Item point to itself if not in use */
 589              		.loc 1 292 32 is_stmt 1 discriminator 2 view .LVU137
 590 0022 0CF1010C 		add	ip, ip, #1
 591              	.LVL56:
 292:Middlewares/Third_Party/LwIP/src/apps/mqtt/mqtt.c ****     /* Item point to itself if not in use */
 592              		.loc 1 292 32 is_stmt 0 discriminator 2 view .LVU138
 593 0026 5FFA8CFC 		uxtb	ip, ip
 594              	.LVL57:
 595              	.L35:
 292:Middlewares/Third_Party/LwIP/src/apps/mqtt/mqtt.c ****     /* Item point to itself if not in use */
 596              		.loc 1 292 17 is_stmt 1 discriminator 1 view .LVU139
 597 002a AC45     		cmp	ip, r5
 598 002c 0FD2     		bcs	.L41
 294:Middlewares/Third_Party/LwIP/src/apps/mqtt/mqtt.c ****       r = &r_objs[n];
 599              		.loc 1 294 5 view .LVU140
 294:Middlewares/Third_Party/LwIP/src/apps/mqtt/mqtt.c ****       r = &r_objs[n];
 600              		.loc 1 294 15 is_stmt 0 view .LVU141
 601 002e 4FEA0C1E 		lsl	lr, ip, #4
 602 0032 04EB0C10 		add	r0, r4, ip, lsl #4
 294:Middlewares/Third_Party/LwIP/src/apps/mqtt/mqtt.c ****       r = &r_objs[n];
 603              		.loc 1 294 18 view .LVU142
 604 0036 54F80E30 		ldr	r3, [r4, lr]
 294:Middlewares/Third_Party/LwIP/src/apps/mqtt/mqtt.c ****       r = &r_objs[n];
 605              		.loc 1 294 8 view .LVU143
 606 003a 9842     		cmp	r0, r3
 607 003c F1D1     		bne	.L36
 295:Middlewares/Third_Party/LwIP/src/apps/mqtt/mqtt.c ****       r->next = NULL;
 608              		.loc 1 295 7 is_stmt 1 view .LVU144
 609              	.LVL58:
 296:Middlewares/Third_Party/LwIP/src/apps/mqtt/mqtt.c ****       r->cb = cb;
 610              		.loc 1 296 7 view .LVU145
 296:Middlewares/Third_Party/LwIP/src/apps/mqtt/mqtt.c ****       r->cb = cb;
 611              		.loc 1 296 15 is_stmt 0 view .LVU146
 612 003e 0023     		movs	r3, #0
 613 0040 44F80E30 		str	r3, [r4, lr]
 297:Middlewares/Third_Party/LwIP/src/apps/mqtt/mqtt.c ****       r->arg = arg;
 614              		.loc 1 297 7 is_stmt 1 view .LVU147
 297:Middlewares/Third_Party/LwIP/src/apps/mqtt/mqtt.c ****       r->arg = arg;
 615              		.loc 1 297 13 is_stmt 0 view .LVU148
 616 0044 4760     		str	r7, [r0, #4]
 298:Middlewares/Third_Party/LwIP/src/apps/mqtt/mqtt.c ****       r->pkt_id = pkt_id;
 617              		.loc 1 298 7 is_stmt 1 view .LVU149
 298:Middlewares/Third_Party/LwIP/src/apps/mqtt/mqtt.c ****       r->pkt_id = pkt_id;
 618              		.loc 1 298 14 is_stmt 0 view .LVU150
ARM GAS  C:\Users\hh\AppData\Local\Temp\cc3qgJrr.s 			page 24


 619 0046 069B     		ldr	r3, [sp, #24]
 620 0048 8360     		str	r3, [r0, #8]
 299:Middlewares/Third_Party/LwIP/src/apps/mqtt/mqtt.c ****       break;
 621              		.loc 1 299 7 is_stmt 1 view .LVU151
 299:Middlewares/Third_Party/LwIP/src/apps/mqtt/mqtt.c ****       break;
 622              		.loc 1 299 17 is_stmt 0 view .LVU152
 623 004a 8681     		strh	r6, [r0, #12]	@ movhi
 300:Middlewares/Third_Party/LwIP/src/apps/mqtt/mqtt.c ****     }
 624              		.loc 1 300 7 is_stmt 1 view .LVU153
 625 004c 00E0     		b	.L33
 626              	.LVL59:
 627              	.L41:
 289:Middlewares/Third_Party/LwIP/src/apps/mqtt/mqtt.c ****   u8_t n;
 628              		.loc 1 289 26 is_stmt 0 view .LVU154
 629 004e 0020     		movs	r0, #0
 303:Middlewares/Third_Party/LwIP/src/apps/mqtt/mqtt.c **** }
 630              		.loc 1 303 3 is_stmt 1 view .LVU155
 631              	.LVL60:
 632              	.L33:
 304:Middlewares/Third_Party/LwIP/src/apps/mqtt/mqtt.c **** 
 633              		.loc 1 304 1 is_stmt 0 view .LVU156
 634 0050 F8BD     		pop	{r3, r4, r5, r6, r7, pc}
 635              	.LVL61:
 636              	.L43:
 304:Middlewares/Third_Party/LwIP/src/apps/mqtt/mqtt.c **** 
 637              		.loc 1 304 1 view .LVU157
 638 0052 00BF     		.align	2
 639              	.L42:
 640 0054 00000000 		.word	.LC0
 641 0058 34000000 		.word	.LC1
 642 005c 58000000 		.word	.LC2
 643              		.cfi_endproc
 644              	.LFE178:
 646              		.section	.rodata.mqtt_output_check_space.str1.4,"aMS",%progbits,1
 647              		.align	2
 648              	.LC3:
 649 0000 6D717474 		.ascii	"mqtt_output_check_space: rb != NULL\000"
 649      5F6F7574 
 649      7075745F 
 649      63686563 
 649      6B5F7370 
 650              		.section	.text.mqtt_output_check_space,"ax",%progbits
 651              		.align	1
 652              		.syntax unified
 653              		.thumb
 654              		.thumb_func
 656              	mqtt_output_check_space:
 657              	.LVL62:
 658              	.LFB190:
 515:Middlewares/Third_Party/LwIP/src/apps/mqtt/mqtt.c ****   /* Start with length of type byte + remaining length */
 659              		.loc 1 515 1 is_stmt 1 view -0
 660              		.cfi_startproc
 661              		@ args = 0, pretend = 0, frame = 0
 662              		@ frame_needed = 0, uses_anonymous_args = 0
 515:Middlewares/Third_Party/LwIP/src/apps/mqtt/mqtt.c ****   /* Start with length of type byte + remaining length */
 663              		.loc 1 515 1 is_stmt 0 view .LVU159
 664 0000 70B5     		push	{r4, r5, r6, lr}
ARM GAS  C:\Users\hh\AppData\Local\Temp\cc3qgJrr.s 			page 25


 665              	.LCFI7:
 666              		.cfi_def_cfa_offset 16
 667              		.cfi_offset 4, -16
 668              		.cfi_offset 5, -12
 669              		.cfi_offset 6, -8
 670              		.cfi_offset 14, -4
 671 0002 0D46     		mov	r5, r1
 517:Middlewares/Third_Party/LwIP/src/apps/mqtt/mqtt.c **** 
 672              		.loc 1 517 3 is_stmt 1 view .LVU160
 517:Middlewares/Third_Party/LwIP/src/apps/mqtt/mqtt.c **** 
 673              		.loc 1 517 9 is_stmt 0 view .LVU161
 674 0004 4C1C     		adds	r4, r1, #1
 675 0006 A4B2     		uxth	r4, r4
 676              	.LVL63:
 519:Middlewares/Third_Party/LwIP/src/apps/mqtt/mqtt.c **** 
 677              		.loc 1 519 3 is_stmt 1 view .LVU162
 519:Middlewares/Third_Party/LwIP/src/apps/mqtt/mqtt.c **** 
 678              		.loc 1 519 3 view .LVU163
 679 0008 0646     		mov	r6, r0
 680 000a 68B1     		cbz	r0, .L48
 681              	.LVL64:
 682              	.L46:
 519:Middlewares/Third_Party/LwIP/src/apps/mqtt/mqtt.c **** 
 683              		.loc 1 519 3 view .LVU164
 519:Middlewares/Third_Party/LwIP/src/apps/mqtt/mqtt.c **** 
 684              		.loc 1 519 3 view .LVU165
 522:Middlewares/Third_Party/LwIP/src/apps/mqtt/mqtt.c ****     total_len++;
 685              		.loc 1 522 3 view .LVU166
 523:Middlewares/Third_Party/LwIP/src/apps/mqtt/mqtt.c ****     r_length >>= 7;
 686              		.loc 1 523 5 view .LVU167
 523:Middlewares/Third_Party/LwIP/src/apps/mqtt/mqtt.c ****     r_length >>= 7;
 687              		.loc 1 523 14 is_stmt 0 view .LVU168
 688 000c 0134     		adds	r4, r4, #1
 689              	.LVL65:
 523:Middlewares/Third_Party/LwIP/src/apps/mqtt/mqtt.c ****     r_length >>= 7;
 690              		.loc 1 523 14 view .LVU169
 691 000e A4B2     		uxth	r4, r4
 692              	.LVL66:
 524:Middlewares/Third_Party/LwIP/src/apps/mqtt/mqtt.c ****   } while (r_length > 0);
 693              		.loc 1 524 5 is_stmt 1 view .LVU170
 525:Middlewares/Third_Party/LwIP/src/apps/mqtt/mqtt.c **** 
 694              		.loc 1 525 21 discriminator 1 view .LVU171
 695 0010 ED09     		lsrs	r5, r5, #7
 696              	.LVL67:
 525:Middlewares/Third_Party/LwIP/src/apps/mqtt/mqtt.c **** 
 697              		.loc 1 525 21 is_stmt 0 discriminator 1 view .LVU172
 698 0012 FBD1     		bne	.L46
 527:Middlewares/Third_Party/LwIP/src/apps/mqtt/mqtt.c **** }
 699              		.loc 1 527 3 is_stmt 1 view .LVU173
 527:Middlewares/Third_Party/LwIP/src/apps/mqtt/mqtt.c **** }
 700              		.loc 1 527 24 is_stmt 0 view .LVU174
 701 0014 3046     		mov	r0, r6
 702 0016 FFF7FEFF 		bl	mqtt_ringbuf_len
 703              	.LVL68:
 527:Middlewares/Third_Party/LwIP/src/apps/mqtt/mqtt.c **** }
 704              		.loc 1 527 24 discriminator 1 view .LVU175
 705 001a C0F58070 		rsb	r0, r0, #256
ARM GAS  C:\Users\hh\AppData\Local\Temp\cc3qgJrr.s 			page 26


 528:Middlewares/Third_Party/LwIP/src/apps/mqtt/mqtt.c **** 
 706              		.loc 1 528 1 view .LVU176
 707 001e 8442     		cmp	r4, r0
 708 0020 CCBF     		ite	gt
 709 0022 0020     		movgt	r0, #0
 710 0024 0120     		movle	r0, #1
 711 0026 70BD     		pop	{r4, r5, r6, pc}
 712              	.LVL69:
 713              	.L48:
 519:Middlewares/Third_Party/LwIP/src/apps/mqtt/mqtt.c **** 
 714              		.loc 1 519 3 is_stmt 1 discriminator 1 view .LVU177
 519:Middlewares/Third_Party/LwIP/src/apps/mqtt/mqtt.c **** 
 715              		.loc 1 519 3 discriminator 1 view .LVU178
 716 0028 034B     		ldr	r3, .L49
 717 002a 40F20722 		movw	r2, #519
 718 002e 0349     		ldr	r1, .L49+4
 719              	.LVL70:
 519:Middlewares/Third_Party/LwIP/src/apps/mqtt/mqtt.c **** 
 720              		.loc 1 519 3 is_stmt 0 discriminator 1 view .LVU179
 721 0030 0348     		ldr	r0, .L49+8
 722              	.LVL71:
 519:Middlewares/Third_Party/LwIP/src/apps/mqtt/mqtt.c **** 
 723              		.loc 1 519 3 discriminator 1 view .LVU180
 724 0032 FFF7FEFF 		bl	printf
 725              	.LVL72:
 726 0036 E9E7     		b	.L46
 727              	.L50:
 728              		.align	2
 729              	.L49:
 730 0038 00000000 		.word	.LC0
 731 003c 00000000 		.word	.LC3
 732 0040 58000000 		.word	.LC2
 733              		.cfi_endproc
 734              	.LFE190:
 736              		.section	.rodata.mqtt_append_request.str1.4,"aMS",%progbits,1
 737              		.align	2
 738              	.LC4:
 739 0000 6D717474 		.ascii	"mqtt_append_request: tail != NULL\000"
 739      5F617070 
 739      656E645F 
 739      72657175 
 739      6573743A 
 740 0022 0000     		.align	2
 741              	.LC5:
 742 0024 6D717474 		.ascii	"mqtt_append_request: time_before <= MQTT_REQ_TIMEOU"
 742      5F617070 
 742      656E645F 
 742      72657175 
 742      6573743A 
 743 0057 5400     		.ascii	"T\000"
 744              		.section	.text.mqtt_append_request,"ax",%progbits
 745              		.align	1
 746              		.syntax unified
 747              		.thumb
 748              		.thumb_func
 750              	mqtt_append_request:
 751              	.LVL73:
ARM GAS  C:\Users\hh\AppData\Local\Temp\cc3qgJrr.s 			page 27


 752              	.LFB179:
 314:Middlewares/Third_Party/LwIP/src/apps/mqtt/mqtt.c ****   struct mqtt_request_t *head = NULL;
 753              		.loc 1 314 1 is_stmt 1 view -0
 754              		.cfi_startproc
 755              		@ args = 0, pretend = 0, frame = 0
 756              		@ frame_needed = 0, uses_anonymous_args = 0
 314:Middlewares/Third_Party/LwIP/src/apps/mqtt/mqtt.c ****   struct mqtt_request_t *head = NULL;
 757              		.loc 1 314 1 is_stmt 0 view .LVU182
 758 0000 F8B5     		push	{r3, r4, r5, r6, r7, lr}
 759              	.LCFI8:
 760              		.cfi_def_cfa_offset 24
 761              		.cfi_offset 3, -24
 762              		.cfi_offset 4, -20
 763              		.cfi_offset 5, -16
 764              		.cfi_offset 6, -12
 765              		.cfi_offset 7, -8
 766              		.cfi_offset 14, -4
 767 0002 0E46     		mov	r6, r1
 315:Middlewares/Third_Party/LwIP/src/apps/mqtt/mqtt.c ****   s16_t time_before = 0;
 768              		.loc 1 315 3 is_stmt 1 view .LVU183
 769              	.LVL74:
 316:Middlewares/Third_Party/LwIP/src/apps/mqtt/mqtt.c ****   struct mqtt_request_t *iter;
 770              		.loc 1 316 3 view .LVU184
 317:Middlewares/Third_Party/LwIP/src/apps/mqtt/mqtt.c **** 
 771              		.loc 1 317 3 view .LVU185
 319:Middlewares/Third_Party/LwIP/src/apps/mqtt/mqtt.c **** 
 772              		.loc 1 319 3 view .LVU186
 319:Middlewares/Third_Party/LwIP/src/apps/mqtt/mqtt.c **** 
 773              		.loc 1 319 3 view .LVU187
 774 0004 0746     		mov	r7, r0
 775 0006 18B1     		cbz	r0, .L59
 776              	.LVL75:
 777              	.L52:
 319:Middlewares/Third_Party/LwIP/src/apps/mqtt/mqtt.c **** 
 778              		.loc 1 319 3 view .LVU188
 319:Middlewares/Third_Party/LwIP/src/apps/mqtt/mqtt.c **** 
 779              		.loc 1 319 3 view .LVU189
 322:Middlewares/Third_Party/LwIP/src/apps/mqtt/mqtt.c ****     time_before += iter->timeout_diff;
 780              		.loc 1 322 3 view .LVU190
 322:Middlewares/Third_Party/LwIP/src/apps/mqtt/mqtt.c ****     time_before += iter->timeout_diff;
 781              		.loc 1 322 13 is_stmt 0 view .LVU191
 782 0008 3B68     		ldr	r3, [r7]
 783              	.LVL76:
 316:Middlewares/Third_Party/LwIP/src/apps/mqtt/mqtt.c ****   struct mqtt_request_t *iter;
 784              		.loc 1 316 9 view .LVU192
 785 000a 0024     		movs	r4, #0
 315:Middlewares/Third_Party/LwIP/src/apps/mqtt/mqtt.c ****   s16_t time_before = 0;
 786              		.loc 1 315 26 view .LVU193
 787 000c 2546     		mov	r5, r4
 322:Middlewares/Third_Party/LwIP/src/apps/mqtt/mqtt.c ****     time_before += iter->timeout_diff;
 788              		.loc 1 322 3 view .LVU194
 789 000e 0CE0     		b	.L53
 790              	.LVL77:
 791              	.L59:
 319:Middlewares/Third_Party/LwIP/src/apps/mqtt/mqtt.c **** 
 792              		.loc 1 319 3 is_stmt 1 discriminator 1 view .LVU195
 319:Middlewares/Third_Party/LwIP/src/apps/mqtt/mqtt.c **** 
ARM GAS  C:\Users\hh\AppData\Local\Temp\cc3qgJrr.s 			page 28


 793              		.loc 1 319 3 discriminator 1 view .LVU196
 794 0010 104B     		ldr	r3, .L62
 795 0012 40F23F12 		movw	r2, #319
 796 0016 1049     		ldr	r1, .L62+4
 797              	.LVL78:
 319:Middlewares/Third_Party/LwIP/src/apps/mqtt/mqtt.c **** 
 798              		.loc 1 319 3 is_stmt 0 discriminator 1 view .LVU197
 799 0018 1048     		ldr	r0, .L62+8
 800              	.LVL79:
 319:Middlewares/Third_Party/LwIP/src/apps/mqtt/mqtt.c **** 
 801              		.loc 1 319 3 discriminator 1 view .LVU198
 802 001a FFF7FEFF 		bl	printf
 803              	.LVL80:
 804 001e F3E7     		b	.L52
 805              	.LVL81:
 806              	.L54:
 323:Middlewares/Third_Party/LwIP/src/apps/mqtt/mqtt.c ****     head = iter;
 807              		.loc 1 323 5 is_stmt 1 view .LVU199
 323:Middlewares/Third_Party/LwIP/src/apps/mqtt/mqtt.c ****     head = iter;
 808              		.loc 1 323 24 is_stmt 0 view .LVU200
 809 0020 DA89     		ldrh	r2, [r3, #14]
 323:Middlewares/Third_Party/LwIP/src/apps/mqtt/mqtt.c ****     head = iter;
 810              		.loc 1 323 17 view .LVU201
 811 0022 1444     		add	r4, r4, r2
 812              	.LVL82:
 323:Middlewares/Third_Party/LwIP/src/apps/mqtt/mqtt.c ****     head = iter;
 813              		.loc 1 323 17 view .LVU202
 814 0024 24B2     		sxth	r4, r4
 815              	.LVL83:
 324:Middlewares/Third_Party/LwIP/src/apps/mqtt/mqtt.c ****   }
 816              		.loc 1 324 5 is_stmt 1 view .LVU203
 322:Middlewares/Third_Party/LwIP/src/apps/mqtt/mqtt.c ****     time_before += iter->timeout_diff;
 817              		.loc 1 322 41 discriminator 3 view .LVU204
 324:Middlewares/Third_Party/LwIP/src/apps/mqtt/mqtt.c ****   }
 818              		.loc 1 324 10 is_stmt 0 view .LVU205
 819 0026 1D46     		mov	r5, r3
 322:Middlewares/Third_Party/LwIP/src/apps/mqtt/mqtt.c ****     time_before += iter->timeout_diff;
 820              		.loc 1 322 41 discriminator 3 view .LVU206
 821 0028 1B68     		ldr	r3, [r3]
 822              	.LVL84:
 823              	.L53:
 322:Middlewares/Third_Party/LwIP/src/apps/mqtt/mqtt.c ****     time_before += iter->timeout_diff;
 824              		.loc 1 322 27 is_stmt 1 discriminator 1 view .LVU207
 825 002a 002B     		cmp	r3, #0
 826 002c F8D1     		bne	.L54
 327:Middlewares/Third_Party/LwIP/src/apps/mqtt/mqtt.c ****   r->timeout_diff = MQTT_REQ_TIMEOUT - time_before;
 827              		.loc 1 327 3 view .LVU208
 327:Middlewares/Third_Party/LwIP/src/apps/mqtt/mqtt.c ****   r->timeout_diff = MQTT_REQ_TIMEOUT - time_before;
 828              		.loc 1 327 3 view .LVU209
 829 002e 1E2C     		cmp	r4, #30
 830 0030 05DC     		bgt	.L60
 831              	.LVL85:
 832              	.L55:
 327:Middlewares/Third_Party/LwIP/src/apps/mqtt/mqtt.c ****   r->timeout_diff = MQTT_REQ_TIMEOUT - time_before;
 833              		.loc 1 327 3 view .LVU210
 327:Middlewares/Third_Party/LwIP/src/apps/mqtt/mqtt.c ****   r->timeout_diff = MQTT_REQ_TIMEOUT - time_before;
 834              		.loc 1 327 3 view .LVU211
ARM GAS  C:\Users\hh\AppData\Local\Temp\cc3qgJrr.s 			page 29


 328:Middlewares/Third_Party/LwIP/src/apps/mqtt/mqtt.c ****   if (head == NULL) {
 835              		.loc 1 328 3 view .LVU212
 328:Middlewares/Third_Party/LwIP/src/apps/mqtt/mqtt.c ****   if (head == NULL) {
 836              		.loc 1 328 38 is_stmt 0 view .LVU213
 837 0032 C4F11E04 		rsb	r4, r4, #30
 838              	.LVL86:
 328:Middlewares/Third_Party/LwIP/src/apps/mqtt/mqtt.c ****   if (head == NULL) {
 839              		.loc 1 328 19 view .LVU214
 840 0036 F481     		strh	r4, [r6, #14]	@ movhi
 329:Middlewares/Third_Party/LwIP/src/apps/mqtt/mqtt.c ****     *tail = r;
 841              		.loc 1 329 3 is_stmt 1 view .LVU215
 329:Middlewares/Third_Party/LwIP/src/apps/mqtt/mqtt.c ****     *tail = r;
 842              		.loc 1 329 6 is_stmt 0 view .LVU216
 843 0038 4DB1     		cbz	r5, .L61
 332:Middlewares/Third_Party/LwIP/src/apps/mqtt/mqtt.c ****   }
 844              		.loc 1 332 5 is_stmt 1 view .LVU217
 332:Middlewares/Third_Party/LwIP/src/apps/mqtt/mqtt.c ****   }
 845              		.loc 1 332 16 is_stmt 0 view .LVU218
 846 003a 2E60     		str	r6, [r5]
 847              	.L51:
 334:Middlewares/Third_Party/LwIP/src/apps/mqtt/mqtt.c **** 
 848              		.loc 1 334 1 view .LVU219
 849 003c F8BD     		pop	{r3, r4, r5, r6, r7, pc}
 850              	.LVL87:
 851              	.L60:
 327:Middlewares/Third_Party/LwIP/src/apps/mqtt/mqtt.c ****   r->timeout_diff = MQTT_REQ_TIMEOUT - time_before;
 852              		.loc 1 327 3 is_stmt 1 discriminator 1 view .LVU220
 327:Middlewares/Third_Party/LwIP/src/apps/mqtt/mqtt.c ****   r->timeout_diff = MQTT_REQ_TIMEOUT - time_before;
 853              		.loc 1 327 3 discriminator 1 view .LVU221
 854 003e 054B     		ldr	r3, .L62
 855              	.LVL88:
 327:Middlewares/Third_Party/LwIP/src/apps/mqtt/mqtt.c ****   r->timeout_diff = MQTT_REQ_TIMEOUT - time_before;
 856              		.loc 1 327 3 is_stmt 0 discriminator 1 view .LVU222
 857 0040 40F24712 		movw	r2, #327
 858 0044 0649     		ldr	r1, .L62+12
 859 0046 0548     		ldr	r0, .L62+8
 860 0048 FFF7FEFF 		bl	printf
 861              	.LVL89:
 862 004c F1E7     		b	.L55
 863              	.LVL90:
 864              	.L61:
 330:Middlewares/Third_Party/LwIP/src/apps/mqtt/mqtt.c ****   } else {
 865              		.loc 1 330 5 is_stmt 1 view .LVU223
 330:Middlewares/Third_Party/LwIP/src/apps/mqtt/mqtt.c ****   } else {
 866              		.loc 1 330 11 is_stmt 0 view .LVU224
 867 004e 3E60     		str	r6, [r7]
 868 0050 F4E7     		b	.L51
 869              	.L63:
 870 0052 00BF     		.align	2
 871              	.L62:
 872 0054 00000000 		.word	.LC0
 873 0058 00000000 		.word	.LC4
 874 005c 58000000 		.word	.LC2
 875 0060 24000000 		.word	.LC5
 876              		.cfi_endproc
 877              	.LFE179:
 879              		.section	.rodata.mqtt_ringbuf_advance_get_idx.str1.4,"aMS",%progbits,1
ARM GAS  C:\Users\hh\AppData\Local\Temp\cc3qgJrr.s 			page 30


 880              		.align	2
 881              	.LC6:
 882 0000 6D717474 		.ascii	"mqtt_ringbuf_advance_get_idx: len < MQTT_OUTPUT_RIN"
 882      5F72696E 
 882      67627566 
 882      5F616476 
 882      616E6365 
 883 0033 47425546 		.ascii	"GBUF_SIZE\000"
 883      5F53495A 
 883      4500
 884              		.section	.text.mqtt_ringbuf_advance_get_idx,"ax",%progbits
 885              		.align	1
 886              		.syntax unified
 887              		.thumb
 888              		.thumb_func
 890              	mqtt_ringbuf_advance_get_idx:
 891              	.LVL91:
 892              	.LFB175:
 202:Middlewares/Third_Party/LwIP/src/apps/mqtt/mqtt.c ****   LWIP_ASSERT("mqtt_ringbuf_advance_get_idx: len < MQTT_OUTPUT_RINGBUF_SIZE", len < MQTT_OUTPUT_RIN
 893              		.loc 1 202 1 is_stmt 1 view -0
 894              		.cfi_startproc
 895              		@ args = 0, pretend = 0, frame = 0
 896              		@ frame_needed = 0, uses_anonymous_args = 0
 202:Middlewares/Third_Party/LwIP/src/apps/mqtt/mqtt.c ****   LWIP_ASSERT("mqtt_ringbuf_advance_get_idx: len < MQTT_OUTPUT_RINGBUF_SIZE", len < MQTT_OUTPUT_RIN
 897              		.loc 1 202 1 is_stmt 0 view .LVU226
 898 0000 38B5     		push	{r3, r4, r5, lr}
 899              	.LCFI9:
 900              		.cfi_def_cfa_offset 16
 901              		.cfi_offset 3, -16
 902              		.cfi_offset 4, -12
 903              		.cfi_offset 5, -8
 904              		.cfi_offset 14, -4
 905 0002 0446     		mov	r4, r0
 906 0004 0D46     		mov	r5, r1
 203:Middlewares/Third_Party/LwIP/src/apps/mqtt/mqtt.c **** 
 907              		.loc 1 203 3 is_stmt 1 view .LVU227
 203:Middlewares/Third_Party/LwIP/src/apps/mqtt/mqtt.c **** 
 908              		.loc 1 203 3 view .LVU228
 909 0006 FF29     		cmp	r1, #255
 910 0008 09D8     		bhi	.L68
 911              	.LVL92:
 912              	.L65:
 203:Middlewares/Third_Party/LwIP/src/apps/mqtt/mqtt.c **** 
 913              		.loc 1 203 3 view .LVU229
 203:Middlewares/Third_Party/LwIP/src/apps/mqtt/mqtt.c **** 
 914              		.loc 1 203 3 view .LVU230
 205:Middlewares/Third_Party/LwIP/src/apps/mqtt/mqtt.c ****   if (rb->get >= MQTT_OUTPUT_RINGBUF_SIZE) {
 915              		.loc 1 205 3 view .LVU231
 205:Middlewares/Third_Party/LwIP/src/apps/mqtt/mqtt.c ****   if (rb->get >= MQTT_OUTPUT_RINGBUF_SIZE) {
 916              		.loc 1 205 5 is_stmt 0 view .LVU232
 917 000a 6188     		ldrh	r1, [r4, #2]
 205:Middlewares/Third_Party/LwIP/src/apps/mqtt/mqtt.c ****   if (rb->get >= MQTT_OUTPUT_RINGBUF_SIZE) {
 918              		.loc 1 205 11 view .LVU233
 919 000c 2944     		add	r1, r1, r5
 920 000e 89B2     		uxth	r1, r1
 921 0010 6180     		strh	r1, [r4, #2]	@ movhi
 206:Middlewares/Third_Party/LwIP/src/apps/mqtt/mqtt.c ****     rb->get = rb->get - MQTT_OUTPUT_RINGBUF_SIZE;
ARM GAS  C:\Users\hh\AppData\Local\Temp\cc3qgJrr.s 			page 31


 922              		.loc 1 206 3 is_stmt 1 view .LVU234
 206:Middlewares/Third_Party/LwIP/src/apps/mqtt/mqtt.c ****     rb->get = rb->get - MQTT_OUTPUT_RINGBUF_SIZE;
 923              		.loc 1 206 6 is_stmt 0 view .LVU235
 924 0012 FF29     		cmp	r1, #255
 925 0014 02D9     		bls	.L64
 207:Middlewares/Third_Party/LwIP/src/apps/mqtt/mqtt.c ****   }
 926              		.loc 1 207 5 is_stmt 1 view .LVU236
 207:Middlewares/Third_Party/LwIP/src/apps/mqtt/mqtt.c ****   }
 927              		.loc 1 207 23 is_stmt 0 view .LVU237
 928 0016 A1F58071 		sub	r1, r1, #256
 207:Middlewares/Third_Party/LwIP/src/apps/mqtt/mqtt.c ****   }
 929              		.loc 1 207 13 view .LVU238
 930 001a 6180     		strh	r1, [r4, #2]	@ movhi
 931              	.L64:
 209:Middlewares/Third_Party/LwIP/src/apps/mqtt/mqtt.c **** 
 932              		.loc 1 209 1 view .LVU239
 933 001c 38BD     		pop	{r3, r4, r5, pc}
 934              	.LVL93:
 935              	.L68:
 203:Middlewares/Third_Party/LwIP/src/apps/mqtt/mqtt.c **** 
 936              		.loc 1 203 3 is_stmt 1 discriminator 1 view .LVU240
 203:Middlewares/Third_Party/LwIP/src/apps/mqtt/mqtt.c **** 
 937              		.loc 1 203 3 discriminator 1 view .LVU241
 938 001e 034B     		ldr	r3, .L69
 939 0020 CB22     		movs	r2, #203
 940 0022 0349     		ldr	r1, .L69+4
 941              	.LVL94:
 203:Middlewares/Third_Party/LwIP/src/apps/mqtt/mqtt.c **** 
 942              		.loc 1 203 3 is_stmt 0 discriminator 1 view .LVU242
 943 0024 0348     		ldr	r0, .L69+8
 944              	.LVL95:
 203:Middlewares/Third_Party/LwIP/src/apps/mqtt/mqtt.c **** 
 945              		.loc 1 203 3 discriminator 1 view .LVU243
 946 0026 FFF7FEFF 		bl	printf
 947              	.LVL96:
 948 002a EEE7     		b	.L65
 949              	.L70:
 950              		.align	2
 951              	.L69:
 952 002c 00000000 		.word	.LC0
 953 0030 00000000 		.word	.LC6
 954 0034 58000000 		.word	.LC2
 955              		.cfi_endproc
 956              	.LFE175:
 958              		.section	.rodata.mqtt_request_time_elapsed.str1.4,"aMS",%progbits,1
 959              		.align	2
 960              	.LC7:
 961 0000 6D717474 		.ascii	"mqtt_request_time_elapsed: tail != NULL\000"
 961      5F726571 
 961      75657374 
 961      5F74696D 
 961      655F656C 
 962              		.section	.text.mqtt_request_time_elapsed,"ax",%progbits
 963              		.align	1
 964              		.syntax unified
 965              		.thumb
 966              		.thumb_func
ARM GAS  C:\Users\hh\AppData\Local\Temp\cc3qgJrr.s 			page 32


 968              	mqtt_request_time_elapsed:
 969              	.LVL97:
 970              	.LFB182:
 392:Middlewares/Third_Party/LwIP/src/apps/mqtt/mqtt.c ****   struct mqtt_request_t *r;
 971              		.loc 1 392 1 is_stmt 1 view -0
 972              		.cfi_startproc
 973              		@ args = 0, pretend = 0, frame = 0
 974              		@ frame_needed = 0, uses_anonymous_args = 0
 392:Middlewares/Third_Party/LwIP/src/apps/mqtt/mqtt.c ****   struct mqtt_request_t *r;
 975              		.loc 1 392 1 is_stmt 0 view .LVU245
 976 0000 70B5     		push	{r4, r5, r6, lr}
 977              	.LCFI10:
 978              		.cfi_def_cfa_offset 16
 979              		.cfi_offset 4, -16
 980              		.cfi_offset 5, -12
 981              		.cfi_offset 6, -8
 982              		.cfi_offset 14, -4
 983 0002 0D46     		mov	r5, r1
 393:Middlewares/Third_Party/LwIP/src/apps/mqtt/mqtt.c ****   LWIP_ASSERT("mqtt_request_time_elapsed: tail != NULL", tail != NULL);
 984              		.loc 1 393 3 is_stmt 1 view .LVU246
 394:Middlewares/Third_Party/LwIP/src/apps/mqtt/mqtt.c ****   r = *tail;
 985              		.loc 1 394 3 view .LVU247
 394:Middlewares/Third_Party/LwIP/src/apps/mqtt/mqtt.c ****   r = *tail;
 986              		.loc 1 394 3 view .LVU248
 987 0004 0646     		mov	r6, r0
 988 0006 08B1     		cbz	r0, .L80
 989              	.LVL98:
 990              	.L72:
 394:Middlewares/Third_Party/LwIP/src/apps/mqtt/mqtt.c ****   r = *tail;
 991              		.loc 1 394 3 view .LVU249
 394:Middlewares/Third_Party/LwIP/src/apps/mqtt/mqtt.c ****   r = *tail;
 992              		.loc 1 394 3 view .LVU250
 395:Middlewares/Third_Party/LwIP/src/apps/mqtt/mqtt.c ****   while (t > 0 && r != NULL) {
 993              		.loc 1 395 3 view .LVU251
 395:Middlewares/Third_Party/LwIP/src/apps/mqtt/mqtt.c ****   while (t > 0 && r != NULL) {
 994              		.loc 1 395 5 is_stmt 0 view .LVU252
 995 0008 3468     		ldr	r4, [r6]
 996              	.LVL99:
 396:Middlewares/Third_Party/LwIP/src/apps/mqtt/mqtt.c ****     if (t >= r->timeout_diff) {
 997              		.loc 1 396 3 is_stmt 1 view .LVU253
 396:Middlewares/Third_Party/LwIP/src/apps/mqtt/mqtt.c ****     if (t >= r->timeout_diff) {
 998              		.loc 1 396 9 is_stmt 0 view .LVU254
 999 000a 0BE0     		b	.L73
 1000              	.LVL100:
 1001              	.L80:
 394:Middlewares/Third_Party/LwIP/src/apps/mqtt/mqtt.c ****   r = *tail;
 1002              		.loc 1 394 3 is_stmt 1 discriminator 1 view .LVU255
 394:Middlewares/Third_Party/LwIP/src/apps/mqtt/mqtt.c ****   r = *tail;
 1003              		.loc 1 394 3 discriminator 1 view .LVU256
 1004 000c 124B     		ldr	r3, .L81
 1005 000e 4FF4C572 		mov	r2, #394
 1006 0012 1249     		ldr	r1, .L81+4
 1007              	.LVL101:
 394:Middlewares/Third_Party/LwIP/src/apps/mqtt/mqtt.c ****   r = *tail;
 1008              		.loc 1 394 3 is_stmt 0 discriminator 1 view .LVU257
 1009 0014 1248     		ldr	r0, .L81+8
 1010              	.LVL102:
ARM GAS  C:\Users\hh\AppData\Local\Temp\cc3qgJrr.s 			page 33


 394:Middlewares/Third_Party/LwIP/src/apps/mqtt/mqtt.c ****   r = *tail;
 1011              		.loc 1 394 3 discriminator 1 view .LVU258
 1012 0016 FFF7FEFF 		bl	printf
 1013              	.LVL103:
 1014 001a F5E7     		b	.L72
 1015              	.LVL104:
 1016              	.L75:
 405:Middlewares/Third_Party/LwIP/src/apps/mqtt/mqtt.c ****       /* Tail might be be modified in callback, so re-read it in every iteration */
 1017              		.loc 1 405 7 is_stmt 1 view .LVU259
 1018 001c 2046     		mov	r0, r4
 1019 001e FFF7FEFF 		bl	mqtt_delete_request
 1020              	.LVL105:
 407:Middlewares/Third_Party/LwIP/src/apps/mqtt/mqtt.c ****     } else {
 1021              		.loc 1 407 7 view .LVU260
 407:Middlewares/Third_Party/LwIP/src/apps/mqtt/mqtt.c ****     } else {
 1022              		.loc 1 407 9 is_stmt 0 view .LVU261
 1023 0022 3468     		ldr	r4, [r6]
 1024              	.LVL106:
 1025              	.L73:
 396:Middlewares/Third_Party/LwIP/src/apps/mqtt/mqtt.c ****     if (t >= r->timeout_diff) {
 1026              		.loc 1 396 16 is_stmt 1 view .LVU262
 396:Middlewares/Third_Party/LwIP/src/apps/mqtt/mqtt.c ****     if (t >= r->timeout_diff) {
 1027              		.loc 1 396 21 is_stmt 0 view .LVU263
 1028 0024 231E     		subs	r3, r4, #0
 1029 0026 18BF     		it	ne
 1030 0028 0123     		movne	r3, #1
 396:Middlewares/Third_Party/LwIP/src/apps/mqtt/mqtt.c ****     if (t >= r->timeout_diff) {
 1031              		.loc 1 396 16 view .LVU264
 1032 002a A5B1     		cbz	r5, .L71
 396:Middlewares/Third_Party/LwIP/src/apps/mqtt/mqtt.c ****     if (t >= r->timeout_diff) {
 1033              		.loc 1 396 16 view .LVU265
 1034 002c 9BB1     		cbz	r3, .L71
 397:Middlewares/Third_Party/LwIP/src/apps/mqtt/mqtt.c ****       t -= (u8_t)r->timeout_diff;
 1035              		.loc 1 397 5 is_stmt 1 view .LVU266
 397:Middlewares/Third_Party/LwIP/src/apps/mqtt/mqtt.c ****       t -= (u8_t)r->timeout_diff;
 1036              		.loc 1 397 15 is_stmt 0 view .LVU267
 1037 002e E389     		ldrh	r3, [r4, #14]
 397:Middlewares/Third_Party/LwIP/src/apps/mqtt/mqtt.c ****       t -= (u8_t)r->timeout_diff;
 1038              		.loc 1 397 8 view .LVU268
 1039 0030 9D42     		cmp	r5, r3
 1040 0032 0CD3     		bcc	.L74
 398:Middlewares/Third_Party/LwIP/src/apps/mqtt/mqtt.c ****       /* Unchain */
 1041              		.loc 1 398 7 is_stmt 1 view .LVU269
 398:Middlewares/Third_Party/LwIP/src/apps/mqtt/mqtt.c ****       /* Unchain */
 1042              		.loc 1 398 12 is_stmt 0 view .LVU270
 1043 0034 DBB2     		uxtb	r3, r3
 398:Middlewares/Third_Party/LwIP/src/apps/mqtt/mqtt.c ****       /* Unchain */
 1044              		.loc 1 398 9 view .LVU271
 1045 0036 EB1A     		subs	r3, r5, r3
 1046 0038 DDB2     		uxtb	r5, r3
 1047              	.LVL107:
 400:Middlewares/Third_Party/LwIP/src/apps/mqtt/mqtt.c ****       /* Notify upper layer about timeout */
 1048              		.loc 1 400 7 is_stmt 1 view .LVU272
 400:Middlewares/Third_Party/LwIP/src/apps/mqtt/mqtt.c ****       /* Notify upper layer about timeout */
 1049              		.loc 1 400 16 is_stmt 0 view .LVU273
 1050 003a 2368     		ldr	r3, [r4]
 400:Middlewares/Third_Party/LwIP/src/apps/mqtt/mqtt.c ****       /* Notify upper layer about timeout */
ARM GAS  C:\Users\hh\AppData\Local\Temp\cc3qgJrr.s 			page 34


 1051              		.loc 1 400 13 view .LVU274
 1052 003c 3360     		str	r3, [r6]
 402:Middlewares/Third_Party/LwIP/src/apps/mqtt/mqtt.c ****         r->cb(r->arg, ERR_TIMEOUT);
 1053              		.loc 1 402 7 is_stmt 1 view .LVU275
 402:Middlewares/Third_Party/LwIP/src/apps/mqtt/mqtt.c ****         r->cb(r->arg, ERR_TIMEOUT);
 1054              		.loc 1 402 12 is_stmt 0 view .LVU276
 1055 003e 6368     		ldr	r3, [r4, #4]
 402:Middlewares/Third_Party/LwIP/src/apps/mqtt/mqtt.c ****         r->cb(r->arg, ERR_TIMEOUT);
 1056              		.loc 1 402 10 view .LVU277
 1057 0040 002B     		cmp	r3, #0
 1058 0042 EBD0     		beq	.L75
 403:Middlewares/Third_Party/LwIP/src/apps/mqtt/mqtt.c ****       }
 1059              		.loc 1 403 9 is_stmt 1 view .LVU278
 1060 0044 6FF00201 		mvn	r1, #2
 1061 0048 A068     		ldr	r0, [r4, #8]
 1062 004a 9847     		blx	r3
 1063              	.LVL108:
 1064 004c E6E7     		b	.L75
 1065              	.L74:
 409:Middlewares/Third_Party/LwIP/src/apps/mqtt/mqtt.c ****       t = 0;
 1066              		.loc 1 409 7 view .LVU279
 409:Middlewares/Third_Party/LwIP/src/apps/mqtt/mqtt.c ****       t = 0;
 1067              		.loc 1 409 23 is_stmt 0 view .LVU280
 1068 004e 5B1B     		subs	r3, r3, r5
 1069 0050 E381     		strh	r3, [r4, #14]	@ movhi
 410:Middlewares/Third_Party/LwIP/src/apps/mqtt/mqtt.c ****     }
 1070              		.loc 1 410 7 is_stmt 1 view .LVU281
 1071              	.LVL109:
 410:Middlewares/Third_Party/LwIP/src/apps/mqtt/mqtt.c ****     }
 1072              		.loc 1 410 9 is_stmt 0 view .LVU282
 1073 0052 0025     		movs	r5, #0
 1074 0054 E6E7     		b	.L73
 1075              	.LVL110:
 1076              	.L71:
 413:Middlewares/Third_Party/LwIP/src/apps/mqtt/mqtt.c **** 
 1077              		.loc 1 413 1 view .LVU283
 1078 0056 70BD     		pop	{r4, r5, r6, pc}
 1079              	.LVL111:
 1080              	.L82:
 413:Middlewares/Third_Party/LwIP/src/apps/mqtt/mqtt.c **** 
 1081              		.loc 1 413 1 view .LVU284
 1082              		.align	2
 1083              	.L81:
 1084 0058 00000000 		.word	.LC0
 1085 005c 00000000 		.word	.LC7
 1086 0060 58000000 		.word	.LC2
 1087              		.cfi_endproc
 1088              	.LFE182:
 1090              		.section	.rodata.mqtt_clear_requests.str1.4,"aMS",%progbits,1
 1091              		.align	2
 1092              	.LC8:
 1093 0000 6D717474 		.ascii	"mqtt_clear_requests: tail != NULL\000"
 1093      5F636C65 
 1093      61725F72 
 1093      65717565 
 1093      7374733A 
 1094              		.section	.text.mqtt_clear_requests,"ax",%progbits
ARM GAS  C:\Users\hh\AppData\Local\Temp\cc3qgJrr.s 			page 35


 1095              		.align	1
 1096              		.syntax unified
 1097              		.thumb
 1098              		.thumb_func
 1100              	mqtt_clear_requests:
 1101              	.LVL112:
 1102              	.LFB183:
 421:Middlewares/Third_Party/LwIP/src/apps/mqtt/mqtt.c ****   struct mqtt_request_t *iter, *next;
 1103              		.loc 1 421 1 is_stmt 1 view -0
 1104              		.cfi_startproc
 1105              		@ args = 0, pretend = 0, frame = 0
 1106              		@ frame_needed = 0, uses_anonymous_args = 0
 421:Middlewares/Third_Party/LwIP/src/apps/mqtt/mqtt.c ****   struct mqtt_request_t *iter, *next;
 1107              		.loc 1 421 1 is_stmt 0 view .LVU286
 1108 0000 38B5     		push	{r3, r4, r5, lr}
 1109              	.LCFI11:
 1110              		.cfi_def_cfa_offset 16
 1111              		.cfi_offset 3, -16
 1112              		.cfi_offset 4, -12
 1113              		.cfi_offset 5, -8
 1114              		.cfi_offset 14, -4
 422:Middlewares/Third_Party/LwIP/src/apps/mqtt/mqtt.c ****   LWIP_ASSERT("mqtt_clear_requests: tail != NULL", tail != NULL);
 1115              		.loc 1 422 3 is_stmt 1 view .LVU287
 423:Middlewares/Third_Party/LwIP/src/apps/mqtt/mqtt.c ****   for (iter = *tail; iter != NULL; iter = next) {
 1116              		.loc 1 423 3 view .LVU288
 423:Middlewares/Third_Party/LwIP/src/apps/mqtt/mqtt.c ****   for (iter = *tail; iter != NULL; iter = next) {
 1117              		.loc 1 423 3 view .LVU289
 1118 0002 0546     		mov	r5, r0
 1119 0004 08B1     		cbz	r0, .L88
 1120              	.LVL113:
 1121              	.L84:
 423:Middlewares/Third_Party/LwIP/src/apps/mqtt/mqtt.c ****   for (iter = *tail; iter != NULL; iter = next) {
 1122              		.loc 1 423 3 view .LVU290
 423:Middlewares/Third_Party/LwIP/src/apps/mqtt/mqtt.c ****   for (iter = *tail; iter != NULL; iter = next) {
 1123              		.loc 1 423 3 view .LVU291
 424:Middlewares/Third_Party/LwIP/src/apps/mqtt/mqtt.c ****     next = iter->next;
 1124              		.loc 1 424 3 view .LVU292
 424:Middlewares/Third_Party/LwIP/src/apps/mqtt/mqtt.c ****     next = iter->next;
 1125              		.loc 1 424 13 is_stmt 0 view .LVU293
 1126 0006 2868     		ldr	r0, [r5]
 1127              	.LVL114:
 424:Middlewares/Third_Party/LwIP/src/apps/mqtt/mqtt.c ****     next = iter->next;
 1128              		.loc 1 424 3 view .LVU294
 1129 0008 0BE0     		b	.L85
 1130              	.LVL115:
 1131              	.L88:
 423:Middlewares/Third_Party/LwIP/src/apps/mqtt/mqtt.c ****   for (iter = *tail; iter != NULL; iter = next) {
 1132              		.loc 1 423 3 is_stmt 1 discriminator 1 view .LVU295
 423:Middlewares/Third_Party/LwIP/src/apps/mqtt/mqtt.c ****   for (iter = *tail; iter != NULL; iter = next) {
 1133              		.loc 1 423 3 discriminator 1 view .LVU296
 1134 000a 084B     		ldr	r3, .L89
 1135 000c 40F2A712 		movw	r2, #423
 1136 0010 0749     		ldr	r1, .L89+4
 1137 0012 0848     		ldr	r0, .L89+8
 1138              	.LVL116:
 423:Middlewares/Third_Party/LwIP/src/apps/mqtt/mqtt.c ****   for (iter = *tail; iter != NULL; iter = next) {
 1139              		.loc 1 423 3 is_stmt 0 discriminator 1 view .LVU297
ARM GAS  C:\Users\hh\AppData\Local\Temp\cc3qgJrr.s 			page 36


 1140 0014 FFF7FEFF 		bl	printf
 1141              	.LVL117:
 1142 0018 F5E7     		b	.L84
 1143              	.LVL118:
 1144              	.L86:
 425:Middlewares/Third_Party/LwIP/src/apps/mqtt/mqtt.c ****     mqtt_delete_request(iter);
 1145              		.loc 1 425 5 is_stmt 1 view .LVU298
 425:Middlewares/Third_Party/LwIP/src/apps/mqtt/mqtt.c ****     mqtt_delete_request(iter);
 1146              		.loc 1 425 10 is_stmt 0 view .LVU299
 1147 001a 0468     		ldr	r4, [r0]
 1148              	.LVL119:
 426:Middlewares/Third_Party/LwIP/src/apps/mqtt/mqtt.c ****   }
 1149              		.loc 1 426 5 is_stmt 1 view .LVU300
 1150 001c FFF7FEFF 		bl	mqtt_delete_request
 1151              	.LVL120:
 424:Middlewares/Third_Party/LwIP/src/apps/mqtt/mqtt.c ****     next = iter->next;
 1152              		.loc 1 424 41 discriminator 3 view .LVU301
 424:Middlewares/Third_Party/LwIP/src/apps/mqtt/mqtt.c ****     next = iter->next;
 1153              		.loc 1 424 41 is_stmt 0 discriminator 3 view .LVU302
 1154 0020 2046     		mov	r0, r4
 1155              	.LVL121:
 1156              	.L85:
 424:Middlewares/Third_Party/LwIP/src/apps/mqtt/mqtt.c ****     next = iter->next;
 1157              		.loc 1 424 27 is_stmt 1 discriminator 1 view .LVU303
 1158 0022 0028     		cmp	r0, #0
 1159 0024 F9D1     		bne	.L86
 428:Middlewares/Third_Party/LwIP/src/apps/mqtt/mqtt.c **** }
 1160              		.loc 1 428 3 view .LVU304
 428:Middlewares/Third_Party/LwIP/src/apps/mqtt/mqtt.c **** }
 1161              		.loc 1 428 9 is_stmt 0 view .LVU305
 1162 0026 2860     		str	r0, [r5]
 429:Middlewares/Third_Party/LwIP/src/apps/mqtt/mqtt.c **** /**
 1163              		.loc 1 429 1 view .LVU306
 1164 0028 38BD     		pop	{r3, r4, r5, pc}
 1165              	.LVL122:
 1166              	.L90:
 429:Middlewares/Third_Party/LwIP/src/apps/mqtt/mqtt.c **** /**
 1167              		.loc 1 429 1 view .LVU307
 1168 002a 00BF     		.align	2
 1169              	.L89:
 1170 002c 00000000 		.word	.LC0
 1171 0030 00000000 		.word	.LC8
 1172 0034 58000000 		.word	.LC2
 1173              		.cfi_endproc
 1174              	.LFE183:
 1176              		.section	.rodata.mqtt_take_request.str1.4,"aMS",%progbits,1
 1177              		.align	2
 1178              	.LC9:
 1179 0000 6D717474 		.ascii	"mqtt_take_request: tail != NULL\000"
 1179      5F74616B 
 1179      655F7265 
 1179      71756573 
 1179      743A2074 
 1180              		.section	.text.mqtt_take_request,"ax",%progbits
 1181              		.align	1
 1182              		.syntax unified
 1183              		.thumb
ARM GAS  C:\Users\hh\AppData\Local\Temp\cc3qgJrr.s 			page 37


 1184              		.thumb_func
 1186              	mqtt_take_request:
 1187              	.LVL123:
 1188              	.LFB181:
 357:Middlewares/Third_Party/LwIP/src/apps/mqtt/mqtt.c ****   struct mqtt_request_t *iter = NULL, *prev = NULL;
 1189              		.loc 1 357 1 is_stmt 1 view -0
 1190              		.cfi_startproc
 1191              		@ args = 0, pretend = 0, frame = 0
 1192              		@ frame_needed = 0, uses_anonymous_args = 0
 357:Middlewares/Third_Party/LwIP/src/apps/mqtt/mqtt.c ****   struct mqtt_request_t *iter = NULL, *prev = NULL;
 1193              		.loc 1 357 1 is_stmt 0 view .LVU309
 1194 0000 38B5     		push	{r3, r4, r5, lr}
 1195              	.LCFI12:
 1196              		.cfi_def_cfa_offset 16
 1197              		.cfi_offset 3, -16
 1198              		.cfi_offset 4, -12
 1199              		.cfi_offset 5, -8
 1200              		.cfi_offset 14, -4
 1201 0002 0C46     		mov	r4, r1
 358:Middlewares/Third_Party/LwIP/src/apps/mqtt/mqtt.c ****   LWIP_ASSERT("mqtt_take_request: tail != NULL", tail != NULL);
 1202              		.loc 1 358 3 is_stmt 1 view .LVU310
 1203              	.LVL124:
 359:Middlewares/Third_Party/LwIP/src/apps/mqtt/mqtt.c ****   /* Search all request for pkt_id */
 1204              		.loc 1 359 3 view .LVU311
 359:Middlewares/Third_Party/LwIP/src/apps/mqtt/mqtt.c ****   /* Search all request for pkt_id */
 1205              		.loc 1 359 3 view .LVU312
 1206 0004 0546     		mov	r5, r0
 1207 0006 10B1     		cbz	r0, .L101
 1208              	.LVL125:
 1209              	.L92:
 359:Middlewares/Third_Party/LwIP/src/apps/mqtt/mqtt.c ****   /* Search all request for pkt_id */
 1210              		.loc 1 359 3 view .LVU313
 359:Middlewares/Third_Party/LwIP/src/apps/mqtt/mqtt.c ****   /* Search all request for pkt_id */
 1211              		.loc 1 359 3 view .LVU314
 361:Middlewares/Third_Party/LwIP/src/apps/mqtt/mqtt.c ****     if (iter->pkt_id == pkt_id) {
 1212              		.loc 1 361 3 view .LVU315
 361:Middlewares/Third_Party/LwIP/src/apps/mqtt/mqtt.c ****     if (iter->pkt_id == pkt_id) {
 1213              		.loc 1 361 13 is_stmt 0 view .LVU316
 1214 0008 2868     		ldr	r0, [r5]
 1215              	.LVL126:
 358:Middlewares/Third_Party/LwIP/src/apps/mqtt/mqtt.c ****   LWIP_ASSERT("mqtt_take_request: tail != NULL", tail != NULL);
 1216              		.loc 1 358 40 view .LVU317
 1217 000a 0022     		movs	r2, #0
 361:Middlewares/Third_Party/LwIP/src/apps/mqtt/mqtt.c ****     if (iter->pkt_id == pkt_id) {
 1218              		.loc 1 361 3 view .LVU318
 1219 000c 09E0     		b	.L93
 1220              	.LVL127:
 1221              	.L101:
 359:Middlewares/Third_Party/LwIP/src/apps/mqtt/mqtt.c ****   /* Search all request for pkt_id */
 1222              		.loc 1 359 3 is_stmt 1 discriminator 1 view .LVU319
 359:Middlewares/Third_Party/LwIP/src/apps/mqtt/mqtt.c ****   /* Search all request for pkt_id */
 1223              		.loc 1 359 3 discriminator 1 view .LVU320
 1224 000e 0F4B     		ldr	r3, .L104
 1225 0010 40F26712 		movw	r2, #359
 1226 0014 0E49     		ldr	r1, .L104+4
 1227              	.LVL128:
 359:Middlewares/Third_Party/LwIP/src/apps/mqtt/mqtt.c ****   /* Search all request for pkt_id */
ARM GAS  C:\Users\hh\AppData\Local\Temp\cc3qgJrr.s 			page 38


 1228              		.loc 1 359 3 is_stmt 0 discriminator 1 view .LVU321
 1229 0016 0F48     		ldr	r0, .L104+8
 1230              	.LVL129:
 359:Middlewares/Third_Party/LwIP/src/apps/mqtt/mqtt.c ****   /* Search all request for pkt_id */
 1231              		.loc 1 359 3 discriminator 1 view .LVU322
 1232 0018 FFF7FEFF 		bl	printf
 1233              	.LVL130:
 1234 001c F4E7     		b	.L92
 1235              	.LVL131:
 1236              	.L102:
 365:Middlewares/Third_Party/LwIP/src/apps/mqtt/mqtt.c ****   }
 1237              		.loc 1 365 5 is_stmt 1 view .LVU323
 361:Middlewares/Third_Party/LwIP/src/apps/mqtt/mqtt.c ****     if (iter->pkt_id == pkt_id) {
 1238              		.loc 1 361 41 discriminator 2 view .LVU324
 365:Middlewares/Third_Party/LwIP/src/apps/mqtt/mqtt.c ****   }
 1239              		.loc 1 365 10 is_stmt 0 view .LVU325
 1240 001e 0246     		mov	r2, r0
 361:Middlewares/Third_Party/LwIP/src/apps/mqtt/mqtt.c ****     if (iter->pkt_id == pkt_id) {
 1241              		.loc 1 361 41 discriminator 2 view .LVU326
 1242 0020 0068     		ldr	r0, [r0]
 1243              	.LVL132:
 1244              	.L93:
 361:Middlewares/Third_Party/LwIP/src/apps/mqtt/mqtt.c ****     if (iter->pkt_id == pkt_id) {
 1245              		.loc 1 361 27 is_stmt 1 discriminator 1 view .LVU327
 1246 0022 10B1     		cbz	r0, .L94
 362:Middlewares/Third_Party/LwIP/src/apps/mqtt/mqtt.c ****       break;
 1247              		.loc 1 362 5 view .LVU328
 362:Middlewares/Third_Party/LwIP/src/apps/mqtt/mqtt.c ****       break;
 1248              		.loc 1 362 13 is_stmt 0 view .LVU329
 1249 0024 8389     		ldrh	r3, [r0, #12]
 362:Middlewares/Third_Party/LwIP/src/apps/mqtt/mqtt.c ****       break;
 1250              		.loc 1 362 8 view .LVU330
 1251 0026 A342     		cmp	r3, r4
 1252 0028 F9D1     		bne	.L102
 1253              	.L94:
 369:Middlewares/Third_Party/LwIP/src/apps/mqtt/mqtt.c ****     /* unchain */
 1254              		.loc 1 369 3 is_stmt 1 view .LVU331
 369:Middlewares/Third_Party/LwIP/src/apps/mqtt/mqtt.c ****     /* unchain */
 1255              		.loc 1 369 6 is_stmt 0 view .LVU332
 1256 002a 50B1     		cbz	r0, .L91
 371:Middlewares/Third_Party/LwIP/src/apps/mqtt/mqtt.c ****       *tail = iter->next;
 1257              		.loc 1 371 5 is_stmt 1 view .LVU333
 371:Middlewares/Third_Party/LwIP/src/apps/mqtt/mqtt.c ****       *tail = iter->next;
 1258              		.loc 1 371 8 is_stmt 0 view .LVU334
 1259 002c 52B1     		cbz	r2, .L103
 374:Middlewares/Third_Party/LwIP/src/apps/mqtt/mqtt.c ****     }
 1260              		.loc 1 374 7 is_stmt 1 view .LVU335
 374:Middlewares/Third_Party/LwIP/src/apps/mqtt/mqtt.c ****     }
 1261              		.loc 1 374 24 is_stmt 0 view .LVU336
 1262 002e 0368     		ldr	r3, [r0]
 374:Middlewares/Third_Party/LwIP/src/apps/mqtt/mqtt.c ****     }
 1263              		.loc 1 374 18 view .LVU337
 1264 0030 1360     		str	r3, [r2]
 1265              	.L98:
 377:Middlewares/Third_Party/LwIP/src/apps/mqtt/mqtt.c ****       iter->next->timeout_diff += iter->timeout_diff;
 1266              		.loc 1 377 5 is_stmt 1 view .LVU338
 377:Middlewares/Third_Party/LwIP/src/apps/mqtt/mqtt.c ****       iter->next->timeout_diff += iter->timeout_diff;
ARM GAS  C:\Users\hh\AppData\Local\Temp\cc3qgJrr.s 			page 39


 1267              		.loc 1 377 13 is_stmt 0 view .LVU339
 1268 0032 0368     		ldr	r3, [r0]
 377:Middlewares/Third_Party/LwIP/src/apps/mqtt/mqtt.c ****       iter->next->timeout_diff += iter->timeout_diff;
 1269              		.loc 1 377 8 view .LVU340
 1270 0034 1BB1     		cbz	r3, .L99
 378:Middlewares/Third_Party/LwIP/src/apps/mqtt/mqtt.c ****     }
 1271              		.loc 1 378 7 is_stmt 1 view .LVU341
 378:Middlewares/Third_Party/LwIP/src/apps/mqtt/mqtt.c ****     }
 1272              		.loc 1 378 17 is_stmt 0 view .LVU342
 1273 0036 DA89     		ldrh	r2, [r3, #14]
 1274              	.LVL133:
 378:Middlewares/Third_Party/LwIP/src/apps/mqtt/mqtt.c ****     }
 1275              		.loc 1 378 39 view .LVU343
 1276 0038 C189     		ldrh	r1, [r0, #14]
 378:Middlewares/Third_Party/LwIP/src/apps/mqtt/mqtt.c ****     }
 1277              		.loc 1 378 32 view .LVU344
 1278 003a 0A44     		add	r2, r2, r1
 1279 003c DA81     		strh	r2, [r3, #14]	@ movhi
 1280              	.L99:
 380:Middlewares/Third_Party/LwIP/src/apps/mqtt/mqtt.c ****   }
 1281              		.loc 1 380 5 is_stmt 1 view .LVU345
 380:Middlewares/Third_Party/LwIP/src/apps/mqtt/mqtt.c ****   }
 1282              		.loc 1 380 16 is_stmt 0 view .LVU346
 1283 003e 0023     		movs	r3, #0
 1284 0040 0360     		str	r3, [r0]
 382:Middlewares/Third_Party/LwIP/src/apps/mqtt/mqtt.c **** }
 1285              		.loc 1 382 3 is_stmt 1 view .LVU347
 1286              	.L91:
 383:Middlewares/Third_Party/LwIP/src/apps/mqtt/mqtt.c **** 
 1287              		.loc 1 383 1 is_stmt 0 view .LVU348
 1288 0042 38BD     		pop	{r3, r4, r5, pc}
 1289              	.LVL134:
 1290              	.L103:
 372:Middlewares/Third_Party/LwIP/src/apps/mqtt/mqtt.c ****     } else {
 1291              		.loc 1 372 7 is_stmt 1 view .LVU349
 372:Middlewares/Third_Party/LwIP/src/apps/mqtt/mqtt.c ****     } else {
 1292              		.loc 1 372 19 is_stmt 0 view .LVU350
 1293 0044 0368     		ldr	r3, [r0]
 372:Middlewares/Third_Party/LwIP/src/apps/mqtt/mqtt.c ****     } else {
 1294              		.loc 1 372 13 view .LVU351
 1295 0046 2B60     		str	r3, [r5]
 1296 0048 F3E7     		b	.L98
 1297              	.L105:
 1298 004a 00BF     		.align	2
 1299              	.L104:
 1300 004c 00000000 		.word	.LC0
 1301 0050 00000000 		.word	.LC9
 1302 0054 58000000 		.word	.LC2
 1303              		.cfi_endproc
 1304              	.LFE181:
 1306              		.section	.rodata.mqtt_init_requests.str1.4,"aMS",%progbits,1
 1307              		.align	2
 1308              	.LC10:
 1309 0000 6D717474 		.ascii	"mqtt_init_requests: r_objs != NULL\000"
 1309      5F696E69 
 1309      745F7265 
 1309      71756573 
ARM GAS  C:\Users\hh\AppData\Local\Temp\cc3qgJrr.s 			page 40


 1309      74733A20 
 1310              		.section	.text.mqtt_init_requests,"ax",%progbits
 1311              		.align	1
 1312              		.syntax unified
 1313              		.thumb
 1314              		.thumb_func
 1316              	mqtt_init_requests:
 1317              	.LVL135:
 1318              	.LFB184:
 437:Middlewares/Third_Party/LwIP/src/apps/mqtt/mqtt.c ****   u8_t n;
 1319              		.loc 1 437 1 is_stmt 1 view -0
 1320              		.cfi_startproc
 1321              		@ args = 0, pretend = 0, frame = 0
 1322              		@ frame_needed = 0, uses_anonymous_args = 0
 437:Middlewares/Third_Party/LwIP/src/apps/mqtt/mqtt.c ****   u8_t n;
 1323              		.loc 1 437 1 is_stmt 0 view .LVU353
 1324 0000 38B5     		push	{r3, r4, r5, lr}
 1325              	.LCFI13:
 1326              		.cfi_def_cfa_offset 16
 1327              		.cfi_offset 3, -16
 1328              		.cfi_offset 4, -12
 1329              		.cfi_offset 5, -8
 1330              		.cfi_offset 14, -4
 1331 0002 0C46     		mov	r4, r1
 438:Middlewares/Third_Party/LwIP/src/apps/mqtt/mqtt.c ****   LWIP_ASSERT("mqtt_init_requests: r_objs != NULL", r_objs != NULL);
 1332              		.loc 1 438 3 is_stmt 1 view .LVU354
 439:Middlewares/Third_Party/LwIP/src/apps/mqtt/mqtt.c ****   for (n = 0; n < r_objs_len; n++) {
 1333              		.loc 1 439 3 view .LVU355
 439:Middlewares/Third_Party/LwIP/src/apps/mqtt/mqtt.c ****   for (n = 0; n < r_objs_len; n++) {
 1334              		.loc 1 439 3 view .LVU356
 1335 0004 0546     		mov	r5, r0
 1336 0006 08B1     		cbz	r0, .L111
 1337              	.LVL136:
 1338              	.L107:
 437:Middlewares/Third_Party/LwIP/src/apps/mqtt/mqtt.c ****   u8_t n;
 1339              		.loc 1 437 1 is_stmt 0 view .LVU357
 1340 0008 0023     		movs	r3, #0
 1341 000a 0CE0     		b	.L108
 1342              	.LVL137:
 1343              	.L111:
 439:Middlewares/Third_Party/LwIP/src/apps/mqtt/mqtt.c ****   for (n = 0; n < r_objs_len; n++) {
 1344              		.loc 1 439 3 is_stmt 1 discriminator 1 view .LVU358
 439:Middlewares/Third_Party/LwIP/src/apps/mqtt/mqtt.c ****   for (n = 0; n < r_objs_len; n++) {
 1345              		.loc 1 439 3 discriminator 1 view .LVU359
 1346 000c 074B     		ldr	r3, .L112
 1347 000e 40F2B712 		movw	r2, #439
 1348 0012 0749     		ldr	r1, .L112+4
 1349              	.LVL138:
 439:Middlewares/Third_Party/LwIP/src/apps/mqtt/mqtt.c ****   for (n = 0; n < r_objs_len; n++) {
 1350              		.loc 1 439 3 is_stmt 0 discriminator 1 view .LVU360
 1351 0014 0748     		ldr	r0, .L112+8
 1352              	.LVL139:
 439:Middlewares/Third_Party/LwIP/src/apps/mqtt/mqtt.c ****   for (n = 0; n < r_objs_len; n++) {
 1353              		.loc 1 439 3 discriminator 1 view .LVU361
 1354 0016 FFF7FEFF 		bl	printf
 1355              	.LVL140:
 1356 001a F5E7     		b	.L107
ARM GAS  C:\Users\hh\AppData\Local\Temp\cc3qgJrr.s 			page 41


 1357              	.LVL141:
 1358              	.L109:
 442:Middlewares/Third_Party/LwIP/src/apps/mqtt/mqtt.c ****   }
 1359              		.loc 1 442 5 is_stmt 1 view .LVU362
 442:Middlewares/Third_Party/LwIP/src/apps/mqtt/mqtt.c ****   }
 1360              		.loc 1 442 11 is_stmt 0 view .LVU363
 1361 001c 05EB0312 		add	r2, r5, r3, lsl #4
 442:Middlewares/Third_Party/LwIP/src/apps/mqtt/mqtt.c ****   }
 1362              		.loc 1 442 20 view .LVU364
 1363 0020 1260     		str	r2, [r2]
 440:Middlewares/Third_Party/LwIP/src/apps/mqtt/mqtt.c ****     /* Item pointing to itself indicates unused */
 1364              		.loc 1 440 32 is_stmt 1 discriminator 3 view .LVU365
 1365 0022 0133     		adds	r3, r3, #1
 1366              	.LVL142:
 440:Middlewares/Third_Party/LwIP/src/apps/mqtt/mqtt.c ****     /* Item pointing to itself indicates unused */
 1367              		.loc 1 440 32 is_stmt 0 discriminator 3 view .LVU366
 1368 0024 DBB2     		uxtb	r3, r3
 1369              	.LVL143:
 1370              	.L108:
 440:Middlewares/Third_Party/LwIP/src/apps/mqtt/mqtt.c ****     /* Item pointing to itself indicates unused */
 1371              		.loc 1 440 17 is_stmt 1 discriminator 1 view .LVU367
 1372 0026 A342     		cmp	r3, r4
 1373 0028 F8D3     		bcc	.L109
 444:Middlewares/Third_Party/LwIP/src/apps/mqtt/mqtt.c **** 
 1374              		.loc 1 444 1 is_stmt 0 view .LVU368
 1375 002a 38BD     		pop	{r3, r4, r5, pc}
 1376              	.LVL144:
 1377              	.L113:
 444:Middlewares/Third_Party/LwIP/src/apps/mqtt/mqtt.c **** 
 1378              		.loc 1 444 1 view .LVU369
 1379              		.align	2
 1380              	.L112:
 1381 002c 00000000 		.word	.LC0
 1382 0030 00000000 		.word	.LC10
 1383 0034 58000000 		.word	.LC2
 1384              		.cfi_endproc
 1385              	.LFE184:
 1387              		.section	.text.mqtt_output_send,"ax",%progbits
 1388              		.align	1
 1389              		.syntax unified
 1390              		.thumb
 1391              		.thumb_func
 1393              	mqtt_output_send:
 1394              	.LVL145:
 1395              	.LFB177:
 235:Middlewares/Third_Party/LwIP/src/apps/mqtt/mqtt.c ****   err_t err;
 1396              		.loc 1 235 1 is_stmt 1 view -0
 1397              		.cfi_startproc
 1398              		@ args = 0, pretend = 0, frame = 0
 1399              		@ frame_needed = 0, uses_anonymous_args = 0
 235:Middlewares/Third_Party/LwIP/src/apps/mqtt/mqtt.c ****   err_t err;
 1400              		.loc 1 235 1 is_stmt 0 view .LVU371
 1401 0000 F8B5     		push	{r3, r4, r5, r6, r7, lr}
 1402              	.LCFI14:
 1403              		.cfi_def_cfa_offset 24
 1404              		.cfi_offset 3, -24
 1405              		.cfi_offset 4, -20
ARM GAS  C:\Users\hh\AppData\Local\Temp\cc3qgJrr.s 			page 42


 1406              		.cfi_offset 5, -16
 1407              		.cfi_offset 6, -12
 1408              		.cfi_offset 7, -8
 1409              		.cfi_offset 14, -4
 1410 0002 0446     		mov	r4, r0
 1411 0004 0D46     		mov	r5, r1
 236:Middlewares/Third_Party/LwIP/src/apps/mqtt/mqtt.c ****   u8_t wrap = 0;
 1412              		.loc 1 236 3 is_stmt 1 view .LVU372
 237:Middlewares/Third_Party/LwIP/src/apps/mqtt/mqtt.c ****   u16_t ringbuf_lin_len = mqtt_ringbuf_linear_read_length(rb);
 1413              		.loc 1 237 3 view .LVU373
 1414              	.LVL146:
 238:Middlewares/Third_Party/LwIP/src/apps/mqtt/mqtt.c ****   u16_t send_len = altcp_sndbuf(tpcb);
 1415              		.loc 1 238 3 view .LVU374
 238:Middlewares/Third_Party/LwIP/src/apps/mqtt/mqtt.c ****   u16_t send_len = altcp_sndbuf(tpcb);
 1416              		.loc 1 238 27 is_stmt 0 view .LVU375
 1417 0006 FFF7FEFF 		bl	mqtt_ringbuf_len
 1418              	.LVL147:
 238:Middlewares/Third_Party/LwIP/src/apps/mqtt/mqtt.c ****   u16_t send_len = altcp_sndbuf(tpcb);
 1419              		.loc 1 238 27 discriminator 1 view .LVU376
 1420 000a 6388     		ldrh	r3, [r4, #2]
 1421 000c C3F58072 		rsb	r2, r3, #256
 238:Middlewares/Third_Party/LwIP/src/apps/mqtt/mqtt.c ****   u16_t send_len = altcp_sndbuf(tpcb);
 1422              		.loc 1 238 9 discriminator 1 view .LVU377
 1423 0010 9042     		cmp	r0, r2
 1424 0012 22DA     		bge	.L115
 1425              	.LVL148:
 239:Middlewares/Third_Party/LwIP/src/apps/mqtt/mqtt.c ****   LWIP_ASSERT("mqtt_output_send: tpcb != NULL", tpcb != NULL);
 1426              		.loc 1 239 3 is_stmt 1 view .LVU378
 239:Middlewares/Third_Party/LwIP/src/apps/mqtt/mqtt.c ****   LWIP_ASSERT("mqtt_output_send: tpcb != NULL", tpcb != NULL);
 1427              		.loc 1 239 9 is_stmt 0 view .LVU379
 1428 0014 B5F86460 		ldrh	r6, [r5, #100]
 1429              	.LVL149:
 240:Middlewares/Third_Party/LwIP/src/apps/mqtt/mqtt.c **** 
 1430              		.loc 1 240 3 is_stmt 1 view .LVU380
 240:Middlewares/Third_Party/LwIP/src/apps/mqtt/mqtt.c **** 
 1431              		.loc 1 240 3 view .LVU381
 238:Middlewares/Third_Party/LwIP/src/apps/mqtt/mqtt.c ****   u16_t send_len = altcp_sndbuf(tpcb);
 1432              		.loc 1 238 27 is_stmt 0 discriminator 2 view .LVU382
 1433 0018 0346     		mov	r3, r0
 1434              	.LVL150:
 1435              	.L116:
 240:Middlewares/Third_Party/LwIP/src/apps/mqtt/mqtt.c **** 
 1436              		.loc 1 240 3 is_stmt 1 view .LVU383
 240:Middlewares/Third_Party/LwIP/src/apps/mqtt/mqtt.c **** 
 1437              		.loc 1 240 3 view .LVU384
 242:Middlewares/Third_Party/LwIP/src/apps/mqtt/mqtt.c ****     return;
 1438              		.loc 1 242 3 view .LVU385
 242:Middlewares/Third_Party/LwIP/src/apps/mqtt/mqtt.c ****     return;
 1439              		.loc 1 242 6 is_stmt 0 view .LVU386
 1440 001a 002B     		cmp	r3, #0
 1441 001c 18BF     		it	ne
 1442 001e 002E     		cmpne	r6, #0
 1443 0020 1AD0     		beq	.L114
 247:Middlewares/Third_Party/LwIP/src/apps/mqtt/mqtt.c **** 
 1444              		.loc 1 247 79 is_stmt 1 view .LVU387
 249:Middlewares/Third_Party/LwIP/src/apps/mqtt/mqtt.c ****     /* Space in TCP output buffer is larger than available in ring buffer linear portion */
 1445              		.loc 1 249 3 view .LVU388
ARM GAS  C:\Users\hh\AppData\Local\Temp\cc3qgJrr.s 			page 43


 249:Middlewares/Third_Party/LwIP/src/apps/mqtt/mqtt.c ****     /* Space in TCP output buffer is larger than available in ring buffer linear portion */
 1446              		.loc 1 249 6 is_stmt 0 view .LVU389
 1447 0022 B342     		cmp	r3, r6
 1448 0024 1FD2     		bcs	.L123
 251:Middlewares/Third_Party/LwIP/src/apps/mqtt/mqtt.c ****     /* Wrap around if more data in ring buffer after linear portion */
 1449              		.loc 1 251 5 is_stmt 1 view .LVU390
 1450              	.LVL151:
 253:Middlewares/Third_Party/LwIP/src/apps/mqtt/mqtt.c ****   }
 1451              		.loc 1 253 5 view .LVU391
 253:Middlewares/Third_Party/LwIP/src/apps/mqtt/mqtt.c ****   }
 1452              		.loc 1 253 34 is_stmt 0 discriminator 1 view .LVU392
 1453 0026 9842     		cmp	r0, r3
 1454 0028 94BF     		ite	ls
 1455 002a 0022     		movls	r2, #0
 1456 002c 0122     		movhi	r2, #1
 1457 002e 1746     		mov	r7, r2
 1458              	.LVL152:
 251:Middlewares/Third_Party/LwIP/src/apps/mqtt/mqtt.c ****     /* Wrap around if more data in ring buffer after linear portion */
 1459              		.loc 1 251 14 view .LVU393
 1460 0030 1E46     		mov	r6, r3
 1461              	.LVL153:
 1462              	.L118:
 255:Middlewares/Third_Party/LwIP/src/apps/mqtt/mqtt.c ****   if ((err == ERR_OK) && wrap) {
 1463              		.loc 1 255 3 is_stmt 1 view .LVU394
 255:Middlewares/Third_Party/LwIP/src/apps/mqtt/mqtt.c ****   if ((err == ERR_OK) && wrap) {
 1464              		.loc 1 255 27 is_stmt 0 view .LVU395
 1465 0032 2046     		mov	r0, r4
 1466 0034 FFF7FEFF 		bl	mqtt_ringbuf_get_ptr
 1467              	.LVL154:
 1468 0038 0146     		mov	r1, r0
 255:Middlewares/Third_Party/LwIP/src/apps/mqtt/mqtt.c ****   if ((err == ERR_OK) && wrap) {
 1469              		.loc 1 255 9 discriminator 1 view .LVU396
 1470 003a BFB1     		cbz	r7, .L124
 255:Middlewares/Third_Party/LwIP/src/apps/mqtt/mqtt.c ****   if ((err == ERR_OK) && wrap) {
 1471              		.loc 1 255 9 discriminator 2 view .LVU397
 1472 003c 0323     		movs	r3, #3
 1473              	.L119:
 255:Middlewares/Third_Party/LwIP/src/apps/mqtt/mqtt.c ****   if ((err == ERR_OK) && wrap) {
 1474              		.loc 1 255 9 discriminator 5 view .LVU398
 1475 003e 3246     		mov	r2, r6
 1476 0040 2846     		mov	r0, r5
 1477 0042 FFF7FEFF 		bl	tcp_write
 1478              	.LVL155:
 256:Middlewares/Third_Party/LwIP/src/apps/mqtt/mqtt.c ****     mqtt_ringbuf_advance_get_idx(rb, send_len);
 1479              		.loc 1 256 3 is_stmt 1 view .LVU399
 256:Middlewares/Third_Party/LwIP/src/apps/mqtt/mqtt.c ****     mqtt_ringbuf_advance_get_idx(rb, send_len);
 1480              		.loc 1 256 12 is_stmt 0 view .LVU400
 1481 0046 0246     		mov	r2, r0
 256:Middlewares/Third_Party/LwIP/src/apps/mqtt/mqtt.c ****     mqtt_ringbuf_advance_get_idx(rb, send_len);
 1482              		.loc 1 256 23 view .LVU401
 1483 0048 3B46     		mov	r3, r7
 1484 004a 0028     		cmp	r0, #0
 1485 004c 14BF     		ite	ne
 1486 004e 0023     		movne	r3, #0
 1487 0050 03F00103 		andeq	r3, r3, #1
 256:Middlewares/Third_Party/LwIP/src/apps/mqtt/mqtt.c ****     mqtt_ringbuf_advance_get_idx(rb, send_len);
 1488              		.loc 1 256 6 view .LVU402
ARM GAS  C:\Users\hh\AppData\Local\Temp\cc3qgJrr.s 			page 44


 1489 0054 63B9     		cbnz	r3, .L128
 1490              	.LVL156:
 1491              	.L120:
 263:Middlewares/Third_Party/LwIP/src/apps/mqtt/mqtt.c ****     mqtt_ringbuf_advance_get_idx(rb, send_len);
 1492              		.loc 1 263 3 is_stmt 1 view .LVU403
 263:Middlewares/Third_Party/LwIP/src/apps/mqtt/mqtt.c ****     mqtt_ringbuf_advance_get_idx(rb, send_len);
 1493              		.loc 1 263 6 is_stmt 0 view .LVU404
 1494 0056 8AB3     		cbz	r2, .L129
 1495              	.LVL157:
 1496              	.L114:
 270:Middlewares/Third_Party/LwIP/src/apps/mqtt/mqtt.c **** 
 1497              		.loc 1 270 1 view .LVU405
 1498 0058 F8BD     		pop	{r3, r4, r5, r6, r7, pc}
 1499              	.LVL158:
 1500              	.L115:
 238:Middlewares/Third_Party/LwIP/src/apps/mqtt/mqtt.c ****   u16_t send_len = altcp_sndbuf(tpcb);
 1501              		.loc 1 238 9 discriminator 3 view .LVU406
 1502 005a C3F58073 		rsb	r3, r3, #256
 1503 005e 9BB2     		uxth	r3, r3
 1504              	.LVL159:
 239:Middlewares/Third_Party/LwIP/src/apps/mqtt/mqtt.c ****   LWIP_ASSERT("mqtt_output_send: tpcb != NULL", tpcb != NULL);
 1505              		.loc 1 239 3 is_stmt 1 view .LVU407
 239:Middlewares/Third_Party/LwIP/src/apps/mqtt/mqtt.c ****   LWIP_ASSERT("mqtt_output_send: tpcb != NULL", tpcb != NULL);
 1506              		.loc 1 239 9 is_stmt 0 view .LVU408
 1507 0060 B5F86460 		ldrh	r6, [r5, #100]
 1508              	.LVL160:
 240:Middlewares/Third_Party/LwIP/src/apps/mqtt/mqtt.c **** 
 1509              		.loc 1 240 3 is_stmt 1 view .LVU409
 240:Middlewares/Third_Party/LwIP/src/apps/mqtt/mqtt.c **** 
 1510              		.loc 1 240 3 view .LVU410
 1511 0064 D9E7     		b	.L116
 1512              	.LVL161:
 1513              	.L123:
 237:Middlewares/Third_Party/LwIP/src/apps/mqtt/mqtt.c ****   u16_t ringbuf_lin_len = mqtt_ringbuf_linear_read_length(rb);
 1514              		.loc 1 237 8 is_stmt 0 view .LVU411
 1515 0066 0023     		movs	r3, #0
 1516 0068 1F46     		mov	r7, r3
 1517 006a E2E7     		b	.L118
 1518              	.LVL162:
 1519              	.L124:
 255:Middlewares/Third_Party/LwIP/src/apps/mqtt/mqtt.c ****   if ((err == ERR_OK) && wrap) {
 1520              		.loc 1 255 9 discriminator 3 view .LVU412
 1521 006c 0123     		movs	r3, #1
 1522 006e E6E7     		b	.L119
 1523              	.LVL163:
 1524              	.L128:
 257:Middlewares/Third_Party/LwIP/src/apps/mqtt/mqtt.c ****     /* Use the lesser one of ring buffer linear length and TCP send buffer size */
 1525              		.loc 1 257 5 is_stmt 1 view .LVU413
 1526 0070 3146     		mov	r1, r6
 1527 0072 2046     		mov	r0, r4
 1528              	.LVL164:
 257:Middlewares/Third_Party/LwIP/src/apps/mqtt/mqtt.c ****     /* Use the lesser one of ring buffer linear length and TCP send buffer size */
 1529              		.loc 1 257 5 is_stmt 0 view .LVU414
 1530 0074 FFF7FEFF 		bl	mqtt_ringbuf_advance_get_idx
 1531              	.LVL165:
 259:Middlewares/Third_Party/LwIP/src/apps/mqtt/mqtt.c ****     err = altcp_write(tpcb, mqtt_ringbuf_get_ptr(rb), send_len, TCP_WRITE_FLAG_COPY);
 1532              		.loc 1 259 5 is_stmt 1 view .LVU415
ARM GAS  C:\Users\hh\AppData\Local\Temp\cc3qgJrr.s 			page 45


 259:Middlewares/Third_Party/LwIP/src/apps/mqtt/mqtt.c ****     err = altcp_write(tpcb, mqtt_ringbuf_get_ptr(rb), send_len, TCP_WRITE_FLAG_COPY);
 1533              		.loc 1 259 16 is_stmt 0 view .LVU416
 1534 0078 B5F86460 		ldrh	r6, [r5, #100]
 1535              	.LVL166:
 259:Middlewares/Third_Party/LwIP/src/apps/mqtt/mqtt.c ****     err = altcp_write(tpcb, mqtt_ringbuf_get_ptr(rb), send_len, TCP_WRITE_FLAG_COPY);
 1536              		.loc 1 259 16 view .LVU417
 1537 007c 3746     		mov	r7, r6
 1538              	.LVL167:
 259:Middlewares/Third_Party/LwIP/src/apps/mqtt/mqtt.c ****     err = altcp_write(tpcb, mqtt_ringbuf_get_ptr(rb), send_len, TCP_WRITE_FLAG_COPY);
 1539              		.loc 1 259 16 view .LVU418
 1540 007e 2046     		mov	r0, r4
 1541 0080 FFF7FEFF 		bl	mqtt_ringbuf_len
 1542              	.LVL168:
 259:Middlewares/Third_Party/LwIP/src/apps/mqtt/mqtt.c ****     err = altcp_write(tpcb, mqtt_ringbuf_get_ptr(rb), send_len, TCP_WRITE_FLAG_COPY);
 1543              		.loc 1 259 16 discriminator 1 view .LVU419
 1544 0084 6288     		ldrh	r2, [r4, #2]
 1545 0086 C2F58073 		rsb	r3, r2, #256
 1546 008a 9842     		cmp	r0, r3
 1547 008c 12DA     		bge	.L125
 259:Middlewares/Third_Party/LwIP/src/apps/mqtt/mqtt.c ****     err = altcp_write(tpcb, mqtt_ringbuf_get_ptr(rb), send_len, TCP_WRITE_FLAG_COPY);
 1548              		.loc 1 259 16 discriminator 4 view .LVU420
 1549 008e 0146     		mov	r1, r0
 1550              	.L121:
 259:Middlewares/Third_Party/LwIP/src/apps/mqtt/mqtt.c ****     err = altcp_write(tpcb, mqtt_ringbuf_get_ptr(rb), send_len, TCP_WRITE_FLAG_COPY);
 1551              		.loc 1 259 14 discriminator 6 view .LVU421
 1552 0090 8F42     		cmp	r7, r1
 1553 0092 04DB     		blt	.L122
 259:Middlewares/Third_Party/LwIP/src/apps/mqtt/mqtt.c ****     err = altcp_write(tpcb, mqtt_ringbuf_get_ptr(rb), send_len, TCP_WRITE_FLAG_COPY);
 1554              		.loc 1 259 14 discriminator 9 view .LVU422
 1555 0094 9842     		cmp	r0, r3
 1556 0096 0FDB     		blt	.L126
 259:Middlewares/Third_Party/LwIP/src/apps/mqtt/mqtt.c ****     err = altcp_write(tpcb, mqtt_ringbuf_get_ptr(rb), send_len, TCP_WRITE_FLAG_COPY);
 1557              		.loc 1 259 14 discriminator 11 view .LVU423
 1558 0098 C2F58072 		rsb	r2, r2, #256
 1559 009c 96B2     		uxth	r6, r2
 1560              	.LVL169:
 1561              	.L122:
 260:Middlewares/Third_Party/LwIP/src/apps/mqtt/mqtt.c ****   }
 1562              		.loc 1 260 5 is_stmt 1 view .LVU424
 260:Middlewares/Third_Party/LwIP/src/apps/mqtt/mqtt.c ****   }
 1563              		.loc 1 260 29 is_stmt 0 view .LVU425
 1564 009e 2046     		mov	r0, r4
 1565 00a0 FFF7FEFF 		bl	mqtt_ringbuf_get_ptr
 1566              	.LVL170:
 1567 00a4 0146     		mov	r1, r0
 260:Middlewares/Third_Party/LwIP/src/apps/mqtt/mqtt.c ****   }
 1568              		.loc 1 260 11 discriminator 1 view .LVU426
 1569 00a6 0123     		movs	r3, #1
 1570 00a8 3246     		mov	r2, r6
 1571 00aa 2846     		mov	r0, r5
 1572 00ac FFF7FEFF 		bl	tcp_write
 1573              	.LVL171:
 1574 00b0 0246     		mov	r2, r0
 1575 00b2 D0E7     		b	.L120
 1576              	.LVL172:
 1577              	.L125:
 259:Middlewares/Third_Party/LwIP/src/apps/mqtt/mqtt.c ****     err = altcp_write(tpcb, mqtt_ringbuf_get_ptr(rb), send_len, TCP_WRITE_FLAG_COPY);
ARM GAS  C:\Users\hh\AppData\Local\Temp\cc3qgJrr.s 			page 46


 1578              		.loc 1 259 16 discriminator 3 view .LVU427
 1579 00b4 1946     		mov	r1, r3
 1580 00b6 EBE7     		b	.L121
 1581              	.L126:
 259:Middlewares/Third_Party/LwIP/src/apps/mqtt/mqtt.c ****     err = altcp_write(tpcb, mqtt_ringbuf_get_ptr(rb), send_len, TCP_WRITE_FLAG_COPY);
 1582              		.loc 1 259 16 discriminator 10 view .LVU428
 1583 00b8 0646     		mov	r6, r0
 1584 00ba F0E7     		b	.L122
 1585              	.LVL173:
 1586              	.L129:
 264:Middlewares/Third_Party/LwIP/src/apps/mqtt/mqtt.c ****     /* Flush */
 1587              		.loc 1 264 5 is_stmt 1 view .LVU429
 1588 00bc 3146     		mov	r1, r6
 1589 00be 2046     		mov	r0, r4
 1590 00c0 FFF7FEFF 		bl	mqtt_ringbuf_advance_get_idx
 1591              	.LVL174:
 266:Middlewares/Third_Party/LwIP/src/apps/mqtt/mqtt.c ****   } else {
 1592              		.loc 1 266 5 view .LVU430
 1593 00c4 2846     		mov	r0, r5
 1594 00c6 FFF7FEFF 		bl	tcp_output
 1595              	.LVL175:
 268:Middlewares/Third_Party/LwIP/src/apps/mqtt/mqtt.c ****   }
 1596              		.loc 1 268 114 view .LVU431
 1597 00ca C5E7     		b	.L114
 1598              		.cfi_endproc
 1599              	.LFE177:
 1601              		.section	.text.mqtt_tcp_poll_cb,"ax",%progbits
 1602              		.align	1
 1603              		.syntax unified
 1604              		.thumb
 1605              		.thumb_func
 1607              	mqtt_tcp_poll_cb:
 1608              	.LVL176:
 1609              	.LFB200:
 661:Middlewares/Third_Party/LwIP/src/apps/mqtt/mqtt.c **** 
 662:Middlewares/Third_Party/LwIP/src/apps/mqtt/mqtt.c **** 
 663:Middlewares/Third_Party/LwIP/src/apps/mqtt/mqtt.c **** /**
 664:Middlewares/Third_Party/LwIP/src/apps/mqtt/mqtt.c ****  * Complete MQTT message received or buffer full
 665:Middlewares/Third_Party/LwIP/src/apps/mqtt/mqtt.c ****  * @param client MQTT client
 666:Middlewares/Third_Party/LwIP/src/apps/mqtt/mqtt.c ****  * @param fixed_hdr_len length of fixed header
 667:Middlewares/Third_Party/LwIP/src/apps/mqtt/mqtt.c ****  * @param length length received part
 668:Middlewares/Third_Party/LwIP/src/apps/mqtt/mqtt.c ****  * @param remaining_length Remaining length of complete message
 669:Middlewares/Third_Party/LwIP/src/apps/mqtt/mqtt.c ****  */
 670:Middlewares/Third_Party/LwIP/src/apps/mqtt/mqtt.c **** static mqtt_connection_status_t
 671:Middlewares/Third_Party/LwIP/src/apps/mqtt/mqtt.c **** mqtt_message_received(mqtt_client_t *client, u8_t fixed_hdr_len, u16_t length, u32_t remaining_leng
 672:Middlewares/Third_Party/LwIP/src/apps/mqtt/mqtt.c ****                       u8_t *var_hdr_payload)
 673:Middlewares/Third_Party/LwIP/src/apps/mqtt/mqtt.c **** {
 674:Middlewares/Third_Party/LwIP/src/apps/mqtt/mqtt.c ****   mqtt_connection_status_t res = MQTT_CONNECT_ACCEPTED;
 675:Middlewares/Third_Party/LwIP/src/apps/mqtt/mqtt.c **** 
 676:Middlewares/Third_Party/LwIP/src/apps/mqtt/mqtt.c ****   /* Control packet type */
 677:Middlewares/Third_Party/LwIP/src/apps/mqtt/mqtt.c ****   u8_t pkt_type = MQTT_CTL_PACKET_TYPE(client->rx_buffer[0]);
 678:Middlewares/Third_Party/LwIP/src/apps/mqtt/mqtt.c ****   u16_t pkt_id = 0;
 679:Middlewares/Third_Party/LwIP/src/apps/mqtt/mqtt.c **** 
 680:Middlewares/Third_Party/LwIP/src/apps/mqtt/mqtt.c ****   LWIP_ASSERT("fixed_hdr_len <= client->msg_idx", fixed_hdr_len <= client->msg_idx);
 681:Middlewares/Third_Party/LwIP/src/apps/mqtt/mqtt.c ****   LWIP_ERROR("buffer length mismatch", fixed_hdr_len + length <= MQTT_VAR_HEADER_BUFFER_LEN,
 682:Middlewares/Third_Party/LwIP/src/apps/mqtt/mqtt.c ****              return MQTT_CONNECT_DISCONNECTED);
 683:Middlewares/Third_Party/LwIP/src/apps/mqtt/mqtt.c **** 
ARM GAS  C:\Users\hh\AppData\Local\Temp\cc3qgJrr.s 			page 47


 684:Middlewares/Third_Party/LwIP/src/apps/mqtt/mqtt.c ****   if (pkt_type == MQTT_MSG_TYPE_CONNACK) {
 685:Middlewares/Third_Party/LwIP/src/apps/mqtt/mqtt.c ****     if (client->conn_state == MQTT_CONNECTING) {
 686:Middlewares/Third_Party/LwIP/src/apps/mqtt/mqtt.c ****       if (length < 2) {
 687:Middlewares/Third_Party/LwIP/src/apps/mqtt/mqtt.c ****         LWIP_DEBUGF(MQTT_DEBUG_WARN,( "mqtt_message_received: Received short CONNACK message\n"));
 688:Middlewares/Third_Party/LwIP/src/apps/mqtt/mqtt.c ****         goto out_disconnect;
 689:Middlewares/Third_Party/LwIP/src/apps/mqtt/mqtt.c ****       }
 690:Middlewares/Third_Party/LwIP/src/apps/mqtt/mqtt.c ****       /* Get result code from CONNACK */
 691:Middlewares/Third_Party/LwIP/src/apps/mqtt/mqtt.c ****       res = (mqtt_connection_status_t)var_hdr_payload[1];
 692:Middlewares/Third_Party/LwIP/src/apps/mqtt/mqtt.c ****       LWIP_DEBUGF(MQTT_DEBUG_TRACE, ("mqtt_message_received: Connect response code %d\n", res));
 693:Middlewares/Third_Party/LwIP/src/apps/mqtt/mqtt.c ****       if (res == MQTT_CONNECT_ACCEPTED) {
 694:Middlewares/Third_Party/LwIP/src/apps/mqtt/mqtt.c ****         /* Reset cyclic_tick when changing to connected state */
 695:Middlewares/Third_Party/LwIP/src/apps/mqtt/mqtt.c ****         client->cyclic_tick = 0;
 696:Middlewares/Third_Party/LwIP/src/apps/mqtt/mqtt.c ****         client->conn_state = MQTT_CONNECTED;
 697:Middlewares/Third_Party/LwIP/src/apps/mqtt/mqtt.c ****         /* Notify upper layer */
 698:Middlewares/Third_Party/LwIP/src/apps/mqtt/mqtt.c ****         if (client->connect_cb != NULL) {
 699:Middlewares/Third_Party/LwIP/src/apps/mqtt/mqtt.c ****           client->connect_cb(client, client->connect_arg, res);
 700:Middlewares/Third_Party/LwIP/src/apps/mqtt/mqtt.c ****         }
 701:Middlewares/Third_Party/LwIP/src/apps/mqtt/mqtt.c ****       }
 702:Middlewares/Third_Party/LwIP/src/apps/mqtt/mqtt.c ****     } else {
 703:Middlewares/Third_Party/LwIP/src/apps/mqtt/mqtt.c ****       LWIP_DEBUGF(MQTT_DEBUG_WARN, ("mqtt_message_received: Received CONNACK in connected state\n")
 704:Middlewares/Third_Party/LwIP/src/apps/mqtt/mqtt.c ****     }
 705:Middlewares/Third_Party/LwIP/src/apps/mqtt/mqtt.c ****   } else if (pkt_type == MQTT_MSG_TYPE_PINGRESP) {
 706:Middlewares/Third_Party/LwIP/src/apps/mqtt/mqtt.c ****     LWIP_DEBUGF(MQTT_DEBUG_TRACE, ( "mqtt_message_received: Received PINGRESP from server\n"));
 707:Middlewares/Third_Party/LwIP/src/apps/mqtt/mqtt.c **** 
 708:Middlewares/Third_Party/LwIP/src/apps/mqtt/mqtt.c ****   } else if (pkt_type == MQTT_MSG_TYPE_PUBLISH) {
 709:Middlewares/Third_Party/LwIP/src/apps/mqtt/mqtt.c ****     u16_t payload_offset = 0;
 710:Middlewares/Third_Party/LwIP/src/apps/mqtt/mqtt.c ****     u16_t payload_length = length;
 711:Middlewares/Third_Party/LwIP/src/apps/mqtt/mqtt.c ****     u8_t qos = MQTT_CTL_PACKET_QOS(client->rx_buffer[0]);
 712:Middlewares/Third_Party/LwIP/src/apps/mqtt/mqtt.c **** 
 713:Middlewares/Third_Party/LwIP/src/apps/mqtt/mqtt.c ****     if (client->msg_idx == (u32_t)(fixed_hdr_len + length)) {
 714:Middlewares/Third_Party/LwIP/src/apps/mqtt/mqtt.c ****       /* First publish message frame. Should have topic and pkt id*/
 715:Middlewares/Third_Party/LwIP/src/apps/mqtt/mqtt.c ****       size_t var_hdr_payload_bufsize = sizeof(client->rx_buffer) - fixed_hdr_len;
 716:Middlewares/Third_Party/LwIP/src/apps/mqtt/mqtt.c ****       u8_t *topic;
 717:Middlewares/Third_Party/LwIP/src/apps/mqtt/mqtt.c ****       u16_t after_topic;
 718:Middlewares/Third_Party/LwIP/src/apps/mqtt/mqtt.c ****       u8_t bkp;
 719:Middlewares/Third_Party/LwIP/src/apps/mqtt/mqtt.c ****       u16_t topic_len;
 720:Middlewares/Third_Party/LwIP/src/apps/mqtt/mqtt.c ****       u16_t qos_len = (qos ? 2U : 0U);
 721:Middlewares/Third_Party/LwIP/src/apps/mqtt/mqtt.c ****       if (length < 2 + qos_len) {
 722:Middlewares/Third_Party/LwIP/src/apps/mqtt/mqtt.c ****         LWIP_DEBUGF(MQTT_DEBUG_WARN,( "mqtt_message_received: Received short PUBLISH packet\n"));
 723:Middlewares/Third_Party/LwIP/src/apps/mqtt/mqtt.c ****         goto out_disconnect;
 724:Middlewares/Third_Party/LwIP/src/apps/mqtt/mqtt.c ****       }
 725:Middlewares/Third_Party/LwIP/src/apps/mqtt/mqtt.c ****       topic_len = var_hdr_payload[0];
 726:Middlewares/Third_Party/LwIP/src/apps/mqtt/mqtt.c ****       topic_len = (topic_len << 8) + (u16_t)(var_hdr_payload[1]);
 727:Middlewares/Third_Party/LwIP/src/apps/mqtt/mqtt.c ****       if ((topic_len > length - (2 + qos_len)) ||
 728:Middlewares/Third_Party/LwIP/src/apps/mqtt/mqtt.c ****           (topic_len > var_hdr_payload_bufsize - (2 + qos_len))) {
 729:Middlewares/Third_Party/LwIP/src/apps/mqtt/mqtt.c ****         LWIP_DEBUGF(MQTT_DEBUG_WARN,( "mqtt_message_received: Received short PUBLISH packet (topic)
 730:Middlewares/Third_Party/LwIP/src/apps/mqtt/mqtt.c ****         goto out_disconnect;
 731:Middlewares/Third_Party/LwIP/src/apps/mqtt/mqtt.c ****       }
 732:Middlewares/Third_Party/LwIP/src/apps/mqtt/mqtt.c **** 
 733:Middlewares/Third_Party/LwIP/src/apps/mqtt/mqtt.c ****       topic = var_hdr_payload + 2;
 734:Middlewares/Third_Party/LwIP/src/apps/mqtt/mqtt.c ****       after_topic = 2 + topic_len;
 735:Middlewares/Third_Party/LwIP/src/apps/mqtt/mqtt.c ****       /* Check buffer length, add one byte even for QoS 0 so that zero termination will fit */
 736:Middlewares/Third_Party/LwIP/src/apps/mqtt/mqtt.c ****       if ((after_topic + (qos ? 2U : 1U)) > var_hdr_payload_bufsize) {
 737:Middlewares/Third_Party/LwIP/src/apps/mqtt/mqtt.c ****         LWIP_DEBUGF(MQTT_DEBUG_WARN, ("mqtt_message_received: Receive buffer can not fit topic + pk
 738:Middlewares/Third_Party/LwIP/src/apps/mqtt/mqtt.c ****         goto out_disconnect;
 739:Middlewares/Third_Party/LwIP/src/apps/mqtt/mqtt.c ****       }
 740:Middlewares/Third_Party/LwIP/src/apps/mqtt/mqtt.c **** 
ARM GAS  C:\Users\hh\AppData\Local\Temp\cc3qgJrr.s 			page 48


 741:Middlewares/Third_Party/LwIP/src/apps/mqtt/mqtt.c ****       /* id for QoS 1 and 2 */
 742:Middlewares/Third_Party/LwIP/src/apps/mqtt/mqtt.c ****       if (qos > 0) {
 743:Middlewares/Third_Party/LwIP/src/apps/mqtt/mqtt.c ****         if (length < after_topic + 2U) {
 744:Middlewares/Third_Party/LwIP/src/apps/mqtt/mqtt.c ****           LWIP_DEBUGF(MQTT_DEBUG_WARN,( "mqtt_message_received: Received short PUBLISH packet (afte
 745:Middlewares/Third_Party/LwIP/src/apps/mqtt/mqtt.c ****           goto out_disconnect;
 746:Middlewares/Third_Party/LwIP/src/apps/mqtt/mqtt.c ****         }
 747:Middlewares/Third_Party/LwIP/src/apps/mqtt/mqtt.c ****         client->inpub_pkt_id = ((u16_t)var_hdr_payload[after_topic] << 8) + (u16_t)var_hdr_payload[
 748:Middlewares/Third_Party/LwIP/src/apps/mqtt/mqtt.c ****         after_topic += 2;
 749:Middlewares/Third_Party/LwIP/src/apps/mqtt/mqtt.c ****       } else {
 750:Middlewares/Third_Party/LwIP/src/apps/mqtt/mqtt.c ****         client->inpub_pkt_id = 0;
 751:Middlewares/Third_Party/LwIP/src/apps/mqtt/mqtt.c ****       }
 752:Middlewares/Third_Party/LwIP/src/apps/mqtt/mqtt.c ****       /* Take backup of byte after topic */
 753:Middlewares/Third_Party/LwIP/src/apps/mqtt/mqtt.c ****       bkp = topic[topic_len];
 754:Middlewares/Third_Party/LwIP/src/apps/mqtt/mqtt.c ****       /* Zero terminate string */
 755:Middlewares/Third_Party/LwIP/src/apps/mqtt/mqtt.c ****       topic[topic_len] = 0;
 756:Middlewares/Third_Party/LwIP/src/apps/mqtt/mqtt.c ****       /* Payload data remaining in receive buffer */
 757:Middlewares/Third_Party/LwIP/src/apps/mqtt/mqtt.c ****       payload_length = length - after_topic;
 758:Middlewares/Third_Party/LwIP/src/apps/mqtt/mqtt.c ****       payload_offset = after_topic;
 759:Middlewares/Third_Party/LwIP/src/apps/mqtt/mqtt.c **** 
 760:Middlewares/Third_Party/LwIP/src/apps/mqtt/mqtt.c ****       LWIP_DEBUGF(MQTT_DEBUG_TRACE, ("mqtt_incoming_publish: Received message with QoS %d at topic:
 761:Middlewares/Third_Party/LwIP/src/apps/mqtt/mqtt.c ****                                      qos, topic, remaining_length + payload_length));
 762:Middlewares/Third_Party/LwIP/src/apps/mqtt/mqtt.c ****       if (client->pub_cb != NULL) {
 763:Middlewares/Third_Party/LwIP/src/apps/mqtt/mqtt.c ****         client->pub_cb(client->inpub_arg, (const char *)topic, remaining_length + payload_length);
 764:Middlewares/Third_Party/LwIP/src/apps/mqtt/mqtt.c ****       }
 765:Middlewares/Third_Party/LwIP/src/apps/mqtt/mqtt.c ****       /* Restore byte after topic */
 766:Middlewares/Third_Party/LwIP/src/apps/mqtt/mqtt.c ****       topic[topic_len] = bkp;
 767:Middlewares/Third_Party/LwIP/src/apps/mqtt/mqtt.c ****     }
 768:Middlewares/Third_Party/LwIP/src/apps/mqtt/mqtt.c ****     if (payload_length > 0 || remaining_length == 0) {
 769:Middlewares/Third_Party/LwIP/src/apps/mqtt/mqtt.c ****       if (length < (size_t)(payload_offset + payload_length)) {
 770:Middlewares/Third_Party/LwIP/src/apps/mqtt/mqtt.c ****         LWIP_DEBUGF(MQTT_DEBUG_WARN,( "mqtt_message_received: Received short packet (payload)\n"));
 771:Middlewares/Third_Party/LwIP/src/apps/mqtt/mqtt.c ****         goto out_disconnect;
 772:Middlewares/Third_Party/LwIP/src/apps/mqtt/mqtt.c ****       }
 773:Middlewares/Third_Party/LwIP/src/apps/mqtt/mqtt.c ****       if (client->data_cb != NULL) {
 774:Middlewares/Third_Party/LwIP/src/apps/mqtt/mqtt.c ****         client->data_cb(client->inpub_arg, var_hdr_payload + payload_offset, payload_length, remain
 775:Middlewares/Third_Party/LwIP/src/apps/mqtt/mqtt.c ****       }
 776:Middlewares/Third_Party/LwIP/src/apps/mqtt/mqtt.c ****       /* Reply if QoS > 0 */
 777:Middlewares/Third_Party/LwIP/src/apps/mqtt/mqtt.c ****       if (remaining_length == 0 && qos > 0) {
 778:Middlewares/Third_Party/LwIP/src/apps/mqtt/mqtt.c ****         /* Send PUBACK for QoS 1 or PUBREC for QoS 2 */
 779:Middlewares/Third_Party/LwIP/src/apps/mqtt/mqtt.c ****         u8_t resp_msg = (qos == 1) ? MQTT_MSG_TYPE_PUBACK : MQTT_MSG_TYPE_PUBREC;
 780:Middlewares/Third_Party/LwIP/src/apps/mqtt/mqtt.c ****         LWIP_DEBUGF(MQTT_DEBUG_TRACE, ("mqtt_incoming_publish: Sending publish response: %s with pk
 781:Middlewares/Third_Party/LwIP/src/apps/mqtt/mqtt.c ****                                        mqtt_msg_type_to_str(resp_msg), client->inpub_pkt_id));
 782:Middlewares/Third_Party/LwIP/src/apps/mqtt/mqtt.c ****         pub_ack_rec_rel_response(client, resp_msg, client->inpub_pkt_id, 0);
 783:Middlewares/Third_Party/LwIP/src/apps/mqtt/mqtt.c ****       }
 784:Middlewares/Third_Party/LwIP/src/apps/mqtt/mqtt.c ****     }
 785:Middlewares/Third_Party/LwIP/src/apps/mqtt/mqtt.c ****   } else {
 786:Middlewares/Third_Party/LwIP/src/apps/mqtt/mqtt.c ****     if (length < 2) {
 787:Middlewares/Third_Party/LwIP/src/apps/mqtt/mqtt.c ****       LWIP_DEBUGF(MQTT_DEBUG_WARN,( "mqtt_message_received: Received short message\n"));
 788:Middlewares/Third_Party/LwIP/src/apps/mqtt/mqtt.c ****       goto out_disconnect;
 789:Middlewares/Third_Party/LwIP/src/apps/mqtt/mqtt.c ****     }
 790:Middlewares/Third_Party/LwIP/src/apps/mqtt/mqtt.c ****     /* Get packet identifier */
 791:Middlewares/Third_Party/LwIP/src/apps/mqtt/mqtt.c ****     pkt_id = (u16_t)var_hdr_payload[0] << 8;
 792:Middlewares/Third_Party/LwIP/src/apps/mqtt/mqtt.c ****     pkt_id |= (u16_t)var_hdr_payload[1];
 793:Middlewares/Third_Party/LwIP/src/apps/mqtt/mqtt.c ****     if (pkt_id == 0) {
 794:Middlewares/Third_Party/LwIP/src/apps/mqtt/mqtt.c ****       LWIP_DEBUGF(MQTT_DEBUG_WARN, ("mqtt_message_received: Got message with illegal packet identif
 795:Middlewares/Third_Party/LwIP/src/apps/mqtt/mqtt.c ****       goto out_disconnect;
 796:Middlewares/Third_Party/LwIP/src/apps/mqtt/mqtt.c ****     }
 797:Middlewares/Third_Party/LwIP/src/apps/mqtt/mqtt.c ****     if (pkt_type == MQTT_MSG_TYPE_PUBREC) {
ARM GAS  C:\Users\hh\AppData\Local\Temp\cc3qgJrr.s 			page 49


 798:Middlewares/Third_Party/LwIP/src/apps/mqtt/mqtt.c ****       LWIP_DEBUGF(MQTT_DEBUG_TRACE, ("mqtt_message_received: PUBREC, sending PUBREL with pkt_id: %d
 799:Middlewares/Third_Party/LwIP/src/apps/mqtt/mqtt.c ****       pub_ack_rec_rel_response(client, MQTT_MSG_TYPE_PUBREL, pkt_id, 1);
 800:Middlewares/Third_Party/LwIP/src/apps/mqtt/mqtt.c **** 
 801:Middlewares/Third_Party/LwIP/src/apps/mqtt/mqtt.c ****     } else if (pkt_type == MQTT_MSG_TYPE_PUBREL) {
 802:Middlewares/Third_Party/LwIP/src/apps/mqtt/mqtt.c ****       LWIP_DEBUGF(MQTT_DEBUG_TRACE, ("mqtt_message_received: PUBREL, sending PUBCOMP response with 
 803:Middlewares/Third_Party/LwIP/src/apps/mqtt/mqtt.c ****       pub_ack_rec_rel_response(client, MQTT_MSG_TYPE_PUBCOMP, pkt_id, 0);
 804:Middlewares/Third_Party/LwIP/src/apps/mqtt/mqtt.c **** 
 805:Middlewares/Third_Party/LwIP/src/apps/mqtt/mqtt.c ****     } else if (pkt_type == MQTT_MSG_TYPE_SUBACK || pkt_type == MQTT_MSG_TYPE_UNSUBACK ||
 806:Middlewares/Third_Party/LwIP/src/apps/mqtt/mqtt.c ****                pkt_type == MQTT_MSG_TYPE_PUBCOMP || pkt_type == MQTT_MSG_TYPE_PUBACK) {
 807:Middlewares/Third_Party/LwIP/src/apps/mqtt/mqtt.c ****       struct mqtt_request_t *r = mqtt_take_request(&client->pend_req_queue, pkt_id);
 808:Middlewares/Third_Party/LwIP/src/apps/mqtt/mqtt.c ****       if (r != NULL) {
 809:Middlewares/Third_Party/LwIP/src/apps/mqtt/mqtt.c ****         LWIP_DEBUGF(MQTT_DEBUG_TRACE, ("mqtt_message_received: %s response with id %d\n", mqtt_msg_
 810:Middlewares/Third_Party/LwIP/src/apps/mqtt/mqtt.c ****         if (pkt_type == MQTT_MSG_TYPE_SUBACK) {
 811:Middlewares/Third_Party/LwIP/src/apps/mqtt/mqtt.c ****           if (length < 3) {
 812:Middlewares/Third_Party/LwIP/src/apps/mqtt/mqtt.c ****             LWIP_DEBUGF(MQTT_DEBUG_WARN, ("mqtt_message_received: To small SUBACK packet\n"));
 813:Middlewares/Third_Party/LwIP/src/apps/mqtt/mqtt.c ****             goto out_disconnect;
 814:Middlewares/Third_Party/LwIP/src/apps/mqtt/mqtt.c ****           } else {
 815:Middlewares/Third_Party/LwIP/src/apps/mqtt/mqtt.c ****             mqtt_incoming_suback(r, var_hdr_payload[2]);
 816:Middlewares/Third_Party/LwIP/src/apps/mqtt/mqtt.c ****           }
 817:Middlewares/Third_Party/LwIP/src/apps/mqtt/mqtt.c ****         } else if (r->cb != NULL) {
 818:Middlewares/Third_Party/LwIP/src/apps/mqtt/mqtt.c ****           r->cb(r->arg, ERR_OK);
 819:Middlewares/Third_Party/LwIP/src/apps/mqtt/mqtt.c ****         }
 820:Middlewares/Third_Party/LwIP/src/apps/mqtt/mqtt.c ****         mqtt_delete_request(r);
 821:Middlewares/Third_Party/LwIP/src/apps/mqtt/mqtt.c ****       } else {
 822:Middlewares/Third_Party/LwIP/src/apps/mqtt/mqtt.c ****         LWIP_DEBUGF(MQTT_DEBUG_WARN, ( "mqtt_message_received: Received %s reply, with wrong pkt_id
 823:Middlewares/Third_Party/LwIP/src/apps/mqtt/mqtt.c ****       }
 824:Middlewares/Third_Party/LwIP/src/apps/mqtt/mqtt.c ****     } else {
 825:Middlewares/Third_Party/LwIP/src/apps/mqtt/mqtt.c ****       LWIP_DEBUGF(MQTT_DEBUG_WARN, ( "mqtt_message_received: Received unknown message type: %d\n", 
 826:Middlewares/Third_Party/LwIP/src/apps/mqtt/mqtt.c ****       goto out_disconnect;
 827:Middlewares/Third_Party/LwIP/src/apps/mqtt/mqtt.c ****     }
 828:Middlewares/Third_Party/LwIP/src/apps/mqtt/mqtt.c ****   }
 829:Middlewares/Third_Party/LwIP/src/apps/mqtt/mqtt.c ****   return res;
 830:Middlewares/Third_Party/LwIP/src/apps/mqtt/mqtt.c **** out_disconnect:
 831:Middlewares/Third_Party/LwIP/src/apps/mqtt/mqtt.c ****   return MQTT_CONNECT_DISCONNECTED;
 832:Middlewares/Third_Party/LwIP/src/apps/mqtt/mqtt.c **** }
 833:Middlewares/Third_Party/LwIP/src/apps/mqtt/mqtt.c **** 
 834:Middlewares/Third_Party/LwIP/src/apps/mqtt/mqtt.c **** 
 835:Middlewares/Third_Party/LwIP/src/apps/mqtt/mqtt.c **** /**
 836:Middlewares/Third_Party/LwIP/src/apps/mqtt/mqtt.c ****  * MQTT incoming message parser
 837:Middlewares/Third_Party/LwIP/src/apps/mqtt/mqtt.c ****  * @param client MQTT client
 838:Middlewares/Third_Party/LwIP/src/apps/mqtt/mqtt.c ****  * @param p PBUF chain of received data
 839:Middlewares/Third_Party/LwIP/src/apps/mqtt/mqtt.c ****  * @return Connection status
 840:Middlewares/Third_Party/LwIP/src/apps/mqtt/mqtt.c ****  */
 841:Middlewares/Third_Party/LwIP/src/apps/mqtt/mqtt.c **** static mqtt_connection_status_t
 842:Middlewares/Third_Party/LwIP/src/apps/mqtt/mqtt.c **** mqtt_parse_incoming(mqtt_client_t *client, struct pbuf *p)
 843:Middlewares/Third_Party/LwIP/src/apps/mqtt/mqtt.c **** {
 844:Middlewares/Third_Party/LwIP/src/apps/mqtt/mqtt.c ****   u16_t in_offset = 0;
 845:Middlewares/Third_Party/LwIP/src/apps/mqtt/mqtt.c ****   u32_t msg_rem_len = 0;
 846:Middlewares/Third_Party/LwIP/src/apps/mqtt/mqtt.c ****   u8_t fixed_hdr_len = 0;
 847:Middlewares/Third_Party/LwIP/src/apps/mqtt/mqtt.c ****   u8_t b = 0;
 848:Middlewares/Third_Party/LwIP/src/apps/mqtt/mqtt.c **** 
 849:Middlewares/Third_Party/LwIP/src/apps/mqtt/mqtt.c ****   while (p->tot_len > in_offset) {
 850:Middlewares/Third_Party/LwIP/src/apps/mqtt/mqtt.c ****     /* We ALWAYS parse the header here first. Even if the header was not
 851:Middlewares/Third_Party/LwIP/src/apps/mqtt/mqtt.c ****        included in this segment, we re-parse it here by buffering it in
 852:Middlewares/Third_Party/LwIP/src/apps/mqtt/mqtt.c ****        client->rx_buffer. client->msg_idx keeps track of this. */
 853:Middlewares/Third_Party/LwIP/src/apps/mqtt/mqtt.c ****     if ((fixed_hdr_len < 2) || ((b & 0x80) != 0)) {
 854:Middlewares/Third_Party/LwIP/src/apps/mqtt/mqtt.c **** 
ARM GAS  C:\Users\hh\AppData\Local\Temp\cc3qgJrr.s 			page 50


 855:Middlewares/Third_Party/LwIP/src/apps/mqtt/mqtt.c ****       if (fixed_hdr_len < client->msg_idx) {
 856:Middlewares/Third_Party/LwIP/src/apps/mqtt/mqtt.c ****         /* parse header from old pbuf (buffered in client->rx_buffer) */
 857:Middlewares/Third_Party/LwIP/src/apps/mqtt/mqtt.c ****         b = client->rx_buffer[fixed_hdr_len];
 858:Middlewares/Third_Party/LwIP/src/apps/mqtt/mqtt.c ****       } else {
 859:Middlewares/Third_Party/LwIP/src/apps/mqtt/mqtt.c ****         /* parse header from this pbuf and save it in client->rx_buffer in case
 860:Middlewares/Third_Party/LwIP/src/apps/mqtt/mqtt.c ****            it comes in segmented */
 861:Middlewares/Third_Party/LwIP/src/apps/mqtt/mqtt.c ****         b = pbuf_get_at(p, in_offset++);
 862:Middlewares/Third_Party/LwIP/src/apps/mqtt/mqtt.c ****         client->rx_buffer[client->msg_idx++] = b;
 863:Middlewares/Third_Party/LwIP/src/apps/mqtt/mqtt.c ****       }
 864:Middlewares/Third_Party/LwIP/src/apps/mqtt/mqtt.c ****       fixed_hdr_len++;
 865:Middlewares/Third_Party/LwIP/src/apps/mqtt/mqtt.c **** 
 866:Middlewares/Third_Party/LwIP/src/apps/mqtt/mqtt.c ****       if (fixed_hdr_len >= 2) {
 867:Middlewares/Third_Party/LwIP/src/apps/mqtt/mqtt.c ****         /* fixed header contains at least 2 bytes but can contain more, depending on
 868:Middlewares/Third_Party/LwIP/src/apps/mqtt/mqtt.c ****            'remaining length'. All bytes but the last of this have 0x80 set to
 869:Middlewares/Third_Party/LwIP/src/apps/mqtt/mqtt.c ****            indicate more bytes are coming. */
 870:Middlewares/Third_Party/LwIP/src/apps/mqtt/mqtt.c ****         msg_rem_len |= (u32_t)(b & 0x7f) << ((fixed_hdr_len - 2) * 7);
 871:Middlewares/Third_Party/LwIP/src/apps/mqtt/mqtt.c ****         if ((b & 0x80) == 0) {
 872:Middlewares/Third_Party/LwIP/src/apps/mqtt/mqtt.c ****           /* fixed header is done */
 873:Middlewares/Third_Party/LwIP/src/apps/mqtt/mqtt.c ****           LWIP_DEBUGF(MQTT_DEBUG_TRACE, ("mqtt_parse_incoming: Remaining length after fixed header:
 874:Middlewares/Third_Party/LwIP/src/apps/mqtt/mqtt.c ****           if (msg_rem_len == 0) {
 875:Middlewares/Third_Party/LwIP/src/apps/mqtt/mqtt.c ****             /* Complete message with no extra headers of payload received */
 876:Middlewares/Third_Party/LwIP/src/apps/mqtt/mqtt.c ****             mqtt_message_received(client, fixed_hdr_len, 0, 0, NULL);
 877:Middlewares/Third_Party/LwIP/src/apps/mqtt/mqtt.c ****             client->msg_idx = 0;
 878:Middlewares/Third_Party/LwIP/src/apps/mqtt/mqtt.c ****             fixed_hdr_len = 0;
 879:Middlewares/Third_Party/LwIP/src/apps/mqtt/mqtt.c ****           } else {
 880:Middlewares/Third_Party/LwIP/src/apps/mqtt/mqtt.c ****             /* Bytes remaining in message (changes remaining length if this is
 881:Middlewares/Third_Party/LwIP/src/apps/mqtt/mqtt.c ****                not the first segment of this message) */
 882:Middlewares/Third_Party/LwIP/src/apps/mqtt/mqtt.c ****             msg_rem_len = (msg_rem_len + fixed_hdr_len) - client->msg_idx;
 883:Middlewares/Third_Party/LwIP/src/apps/mqtt/mqtt.c ****           }
 884:Middlewares/Third_Party/LwIP/src/apps/mqtt/mqtt.c ****         }
 885:Middlewares/Third_Party/LwIP/src/apps/mqtt/mqtt.c ****       }
 886:Middlewares/Third_Party/LwIP/src/apps/mqtt/mqtt.c ****     } else {
 887:Middlewares/Third_Party/LwIP/src/apps/mqtt/mqtt.c ****       /* Fixed header has been parsed, parse variable header */
 888:Middlewares/Third_Party/LwIP/src/apps/mqtt/mqtt.c ****       u16_t cpy_len, buffer_space;
 889:Middlewares/Third_Party/LwIP/src/apps/mqtt/mqtt.c ****       u8_t *var_hdr_payload;
 890:Middlewares/Third_Party/LwIP/src/apps/mqtt/mqtt.c ****       mqtt_connection_status_t res;
 891:Middlewares/Third_Party/LwIP/src/apps/mqtt/mqtt.c **** 
 892:Middlewares/Third_Party/LwIP/src/apps/mqtt/mqtt.c ****       /* Allow to copy the lesser one of available length in input data or bytes remaining in messa
 893:Middlewares/Third_Party/LwIP/src/apps/mqtt/mqtt.c ****       cpy_len = (u16_t)LWIP_MIN((u16_t)(p->tot_len - in_offset), msg_rem_len);
 894:Middlewares/Third_Party/LwIP/src/apps/mqtt/mqtt.c **** 
 895:Middlewares/Third_Party/LwIP/src/apps/mqtt/mqtt.c ****       /* Limit to available space in buffer */
 896:Middlewares/Third_Party/LwIP/src/apps/mqtt/mqtt.c ****       buffer_space = MQTT_VAR_HEADER_BUFFER_LEN - fixed_hdr_len;
 897:Middlewares/Third_Party/LwIP/src/apps/mqtt/mqtt.c ****       if (cpy_len > buffer_space) {
 898:Middlewares/Third_Party/LwIP/src/apps/mqtt/mqtt.c ****         cpy_len = buffer_space;
 899:Middlewares/Third_Party/LwIP/src/apps/mqtt/mqtt.c ****       }
 900:Middlewares/Third_Party/LwIP/src/apps/mqtt/mqtt.c ****       /* Adjust cpy_len to ensure zero-copy operation for remaining parts of current message */
 901:Middlewares/Third_Party/LwIP/src/apps/mqtt/mqtt.c ****       if (client->msg_idx >= MQTT_VAR_HEADER_BUFFER_LEN) {
 902:Middlewares/Third_Party/LwIP/src/apps/mqtt/mqtt.c ****         if (cpy_len > (p->len - in_offset))
 903:Middlewares/Third_Party/LwIP/src/apps/mqtt/mqtt.c ****           cpy_len = p->len - in_offset;
 904:Middlewares/Third_Party/LwIP/src/apps/mqtt/mqtt.c ****       }
 905:Middlewares/Third_Party/LwIP/src/apps/mqtt/mqtt.c ****       var_hdr_payload = (u8_t*)pbuf_get_contiguous(p, client->rx_buffer + fixed_hdr_len,
 906:Middlewares/Third_Party/LwIP/src/apps/mqtt/mqtt.c ****                                                    buffer_space, cpy_len, in_offset);
 907:Middlewares/Third_Party/LwIP/src/apps/mqtt/mqtt.c **** 
 908:Middlewares/Third_Party/LwIP/src/apps/mqtt/mqtt.c ****       /* Advance get and put indexes  */
 909:Middlewares/Third_Party/LwIP/src/apps/mqtt/mqtt.c ****       client->msg_idx += cpy_len;
 910:Middlewares/Third_Party/LwIP/src/apps/mqtt/mqtt.c ****       in_offset += cpy_len;
 911:Middlewares/Third_Party/LwIP/src/apps/mqtt/mqtt.c ****       msg_rem_len -= cpy_len;
ARM GAS  C:\Users\hh\AppData\Local\Temp\cc3qgJrr.s 			page 51


 912:Middlewares/Third_Party/LwIP/src/apps/mqtt/mqtt.c **** 
 913:Middlewares/Third_Party/LwIP/src/apps/mqtt/mqtt.c ****       LWIP_DEBUGF(MQTT_DEBUG_TRACE, ("mqtt_parse_incoming: msg_idx: %"U32_F", cpy_len: %"U16_F", re
 914:Middlewares/Third_Party/LwIP/src/apps/mqtt/mqtt.c ****       /* Whole or partial message received */
 915:Middlewares/Third_Party/LwIP/src/apps/mqtt/mqtt.c ****       res = mqtt_message_received(client, fixed_hdr_len, cpy_len, msg_rem_len, var_hdr_payload);
 916:Middlewares/Third_Party/LwIP/src/apps/mqtt/mqtt.c ****       if (res != MQTT_CONNECT_ACCEPTED) {
 917:Middlewares/Third_Party/LwIP/src/apps/mqtt/mqtt.c ****         return res;
 918:Middlewares/Third_Party/LwIP/src/apps/mqtt/mqtt.c ****       }
 919:Middlewares/Third_Party/LwIP/src/apps/mqtt/mqtt.c ****       if (msg_rem_len == 0) {
 920:Middlewares/Third_Party/LwIP/src/apps/mqtt/mqtt.c ****         /* Reset parser state */
 921:Middlewares/Third_Party/LwIP/src/apps/mqtt/mqtt.c ****         client->msg_idx = 0;
 922:Middlewares/Third_Party/LwIP/src/apps/mqtt/mqtt.c ****         /* msg_tot_len = 0; */
 923:Middlewares/Third_Party/LwIP/src/apps/mqtt/mqtt.c ****         fixed_hdr_len = 0;
 924:Middlewares/Third_Party/LwIP/src/apps/mqtt/mqtt.c ****       }
 925:Middlewares/Third_Party/LwIP/src/apps/mqtt/mqtt.c ****     }
 926:Middlewares/Third_Party/LwIP/src/apps/mqtt/mqtt.c ****   }
 927:Middlewares/Third_Party/LwIP/src/apps/mqtt/mqtt.c ****   return MQTT_CONNECT_ACCEPTED;
 928:Middlewares/Third_Party/LwIP/src/apps/mqtt/mqtt.c **** }
 929:Middlewares/Third_Party/LwIP/src/apps/mqtt/mqtt.c **** 
 930:Middlewares/Third_Party/LwIP/src/apps/mqtt/mqtt.c **** 
 931:Middlewares/Third_Party/LwIP/src/apps/mqtt/mqtt.c **** /**
 932:Middlewares/Third_Party/LwIP/src/apps/mqtt/mqtt.c ****  * TCP received callback function. @see tcp_recv_fn
 933:Middlewares/Third_Party/LwIP/src/apps/mqtt/mqtt.c ****  * @param arg MQTT client
 934:Middlewares/Third_Party/LwIP/src/apps/mqtt/mqtt.c ****  * @param p PBUF chain of received data
 935:Middlewares/Third_Party/LwIP/src/apps/mqtt/mqtt.c ****  * @param err Passed as return value if not ERR_OK
 936:Middlewares/Third_Party/LwIP/src/apps/mqtt/mqtt.c ****  * @return ERR_OK or err passed into callback
 937:Middlewares/Third_Party/LwIP/src/apps/mqtt/mqtt.c ****  */
 938:Middlewares/Third_Party/LwIP/src/apps/mqtt/mqtt.c **** static err_t
 939:Middlewares/Third_Party/LwIP/src/apps/mqtt/mqtt.c **** mqtt_tcp_recv_cb(void *arg, struct altcp_pcb *pcb, struct pbuf *p, err_t err)
 940:Middlewares/Third_Party/LwIP/src/apps/mqtt/mqtt.c **** {
 941:Middlewares/Third_Party/LwIP/src/apps/mqtt/mqtt.c ****   mqtt_client_t *client = (mqtt_client_t *)arg;
 942:Middlewares/Third_Party/LwIP/src/apps/mqtt/mqtt.c ****   LWIP_ASSERT("mqtt_tcp_recv_cb: client != NULL", client != NULL);
 943:Middlewares/Third_Party/LwIP/src/apps/mqtt/mqtt.c ****   LWIP_ASSERT("mqtt_tcp_recv_cb: client->conn == pcb", client->conn == pcb);
 944:Middlewares/Third_Party/LwIP/src/apps/mqtt/mqtt.c **** 
 945:Middlewares/Third_Party/LwIP/src/apps/mqtt/mqtt.c ****   if (p == NULL) {
 946:Middlewares/Third_Party/LwIP/src/apps/mqtt/mqtt.c ****     LWIP_DEBUGF(MQTT_DEBUG_TRACE, ("mqtt_tcp_recv_cb: Recv pbuf=NULL, remote has closed connection\
 947:Middlewares/Third_Party/LwIP/src/apps/mqtt/mqtt.c ****     mqtt_close(client, MQTT_CONNECT_DISCONNECTED);
 948:Middlewares/Third_Party/LwIP/src/apps/mqtt/mqtt.c ****   } else {
 949:Middlewares/Third_Party/LwIP/src/apps/mqtt/mqtt.c ****     mqtt_connection_status_t res;
 950:Middlewares/Third_Party/LwIP/src/apps/mqtt/mqtt.c ****     if (err != ERR_OK) {
 951:Middlewares/Third_Party/LwIP/src/apps/mqtt/mqtt.c ****       LWIP_DEBUGF(MQTT_DEBUG_WARN, ("mqtt_tcp_recv_cb: Recv err=%d\n", err));
 952:Middlewares/Third_Party/LwIP/src/apps/mqtt/mqtt.c ****       pbuf_free(p);
 953:Middlewares/Third_Party/LwIP/src/apps/mqtt/mqtt.c ****       return err;
 954:Middlewares/Third_Party/LwIP/src/apps/mqtt/mqtt.c ****     }
 955:Middlewares/Third_Party/LwIP/src/apps/mqtt/mqtt.c **** 
 956:Middlewares/Third_Party/LwIP/src/apps/mqtt/mqtt.c ****     /* Tell remote that data has been received */
 957:Middlewares/Third_Party/LwIP/src/apps/mqtt/mqtt.c ****     altcp_recved(pcb, p->tot_len);
 958:Middlewares/Third_Party/LwIP/src/apps/mqtt/mqtt.c ****     res = mqtt_parse_incoming(client, p);
 959:Middlewares/Third_Party/LwIP/src/apps/mqtt/mqtt.c ****     pbuf_free(p);
 960:Middlewares/Third_Party/LwIP/src/apps/mqtt/mqtt.c **** 
 961:Middlewares/Third_Party/LwIP/src/apps/mqtt/mqtt.c ****     if (res != MQTT_CONNECT_ACCEPTED) {
 962:Middlewares/Third_Party/LwIP/src/apps/mqtt/mqtt.c ****       mqtt_close(client, res);
 963:Middlewares/Third_Party/LwIP/src/apps/mqtt/mqtt.c ****     }
 964:Middlewares/Third_Party/LwIP/src/apps/mqtt/mqtt.c ****     /* If keep alive functionality is used */
 965:Middlewares/Third_Party/LwIP/src/apps/mqtt/mqtt.c ****     if (client->keep_alive != 0) {
 966:Middlewares/Third_Party/LwIP/src/apps/mqtt/mqtt.c ****       /* Reset server alive watchdog */
 967:Middlewares/Third_Party/LwIP/src/apps/mqtt/mqtt.c ****       client->server_watchdog = 0;
 968:Middlewares/Third_Party/LwIP/src/apps/mqtt/mqtt.c ****     }
ARM GAS  C:\Users\hh\AppData\Local\Temp\cc3qgJrr.s 			page 52


 969:Middlewares/Third_Party/LwIP/src/apps/mqtt/mqtt.c **** 
 970:Middlewares/Third_Party/LwIP/src/apps/mqtt/mqtt.c ****   }
 971:Middlewares/Third_Party/LwIP/src/apps/mqtt/mqtt.c ****   return ERR_OK;
 972:Middlewares/Third_Party/LwIP/src/apps/mqtt/mqtt.c **** }
 973:Middlewares/Third_Party/LwIP/src/apps/mqtt/mqtt.c **** 
 974:Middlewares/Third_Party/LwIP/src/apps/mqtt/mqtt.c **** 
 975:Middlewares/Third_Party/LwIP/src/apps/mqtt/mqtt.c **** /**
 976:Middlewares/Third_Party/LwIP/src/apps/mqtt/mqtt.c ****  * TCP data sent callback function. @see tcp_sent_fn
 977:Middlewares/Third_Party/LwIP/src/apps/mqtt/mqtt.c ****  * @param arg MQTT client
 978:Middlewares/Third_Party/LwIP/src/apps/mqtt/mqtt.c ****  * @param tpcb TCP connection handle
 979:Middlewares/Third_Party/LwIP/src/apps/mqtt/mqtt.c ****  * @param len Number of bytes sent
 980:Middlewares/Third_Party/LwIP/src/apps/mqtt/mqtt.c ****  * @return ERR_OK
 981:Middlewares/Third_Party/LwIP/src/apps/mqtt/mqtt.c ****  */
 982:Middlewares/Third_Party/LwIP/src/apps/mqtt/mqtt.c **** static err_t
 983:Middlewares/Third_Party/LwIP/src/apps/mqtt/mqtt.c **** mqtt_tcp_sent_cb(void *arg, struct altcp_pcb *tpcb, u16_t len)
 984:Middlewares/Third_Party/LwIP/src/apps/mqtt/mqtt.c **** {
 985:Middlewares/Third_Party/LwIP/src/apps/mqtt/mqtt.c ****   mqtt_client_t *client = (mqtt_client_t *)arg;
 986:Middlewares/Third_Party/LwIP/src/apps/mqtt/mqtt.c **** 
 987:Middlewares/Third_Party/LwIP/src/apps/mqtt/mqtt.c ****   LWIP_UNUSED_ARG(tpcb);
 988:Middlewares/Third_Party/LwIP/src/apps/mqtt/mqtt.c ****   LWIP_UNUSED_ARG(len);
 989:Middlewares/Third_Party/LwIP/src/apps/mqtt/mqtt.c **** 
 990:Middlewares/Third_Party/LwIP/src/apps/mqtt/mqtt.c ****   if (client->conn_state == MQTT_CONNECTED) {
 991:Middlewares/Third_Party/LwIP/src/apps/mqtt/mqtt.c ****     struct mqtt_request_t *r;
 992:Middlewares/Third_Party/LwIP/src/apps/mqtt/mqtt.c **** 
 993:Middlewares/Third_Party/LwIP/src/apps/mqtt/mqtt.c ****     /* Reset keep-alive send timer and server watchdog */
 994:Middlewares/Third_Party/LwIP/src/apps/mqtt/mqtt.c ****     client->cyclic_tick = 0;
 995:Middlewares/Third_Party/LwIP/src/apps/mqtt/mqtt.c ****     client->server_watchdog = 0;
 996:Middlewares/Third_Party/LwIP/src/apps/mqtt/mqtt.c ****     /* QoS 0 publish has no response from server, so call its callbacks here */
 997:Middlewares/Third_Party/LwIP/src/apps/mqtt/mqtt.c ****     while ((r = mqtt_take_request(&client->pend_req_queue, 0)) != NULL) {
 998:Middlewares/Third_Party/LwIP/src/apps/mqtt/mqtt.c ****       LWIP_DEBUGF(MQTT_DEBUG_TRACE, ("mqtt_tcp_sent_cb: Calling QoS 0 publish complete callback\n")
 999:Middlewares/Third_Party/LwIP/src/apps/mqtt/mqtt.c ****       if (r->cb != NULL) {
1000:Middlewares/Third_Party/LwIP/src/apps/mqtt/mqtt.c ****         r->cb(r->arg, ERR_OK);
1001:Middlewares/Third_Party/LwIP/src/apps/mqtt/mqtt.c ****       }
1002:Middlewares/Third_Party/LwIP/src/apps/mqtt/mqtt.c ****       mqtt_delete_request(r);
1003:Middlewares/Third_Party/LwIP/src/apps/mqtt/mqtt.c ****     }
1004:Middlewares/Third_Party/LwIP/src/apps/mqtt/mqtt.c ****     /* Try send any remaining buffers from output queue */
1005:Middlewares/Third_Party/LwIP/src/apps/mqtt/mqtt.c ****     mqtt_output_send(&client->output, client->conn);
1006:Middlewares/Third_Party/LwIP/src/apps/mqtt/mqtt.c ****   }
1007:Middlewares/Third_Party/LwIP/src/apps/mqtt/mqtt.c ****   return ERR_OK;
1008:Middlewares/Third_Party/LwIP/src/apps/mqtt/mqtt.c **** }
1009:Middlewares/Third_Party/LwIP/src/apps/mqtt/mqtt.c **** 
1010:Middlewares/Third_Party/LwIP/src/apps/mqtt/mqtt.c **** /**
1011:Middlewares/Third_Party/LwIP/src/apps/mqtt/mqtt.c ****  * TCP error callback function. @see tcp_err_fn
1012:Middlewares/Third_Party/LwIP/src/apps/mqtt/mqtt.c ****  * @param arg MQTT client
1013:Middlewares/Third_Party/LwIP/src/apps/mqtt/mqtt.c ****  * @param err Error encountered
1014:Middlewares/Third_Party/LwIP/src/apps/mqtt/mqtt.c ****  */
1015:Middlewares/Third_Party/LwIP/src/apps/mqtt/mqtt.c **** static void
1016:Middlewares/Third_Party/LwIP/src/apps/mqtt/mqtt.c **** mqtt_tcp_err_cb(void *arg, err_t err)
1017:Middlewares/Third_Party/LwIP/src/apps/mqtt/mqtt.c **** {
1018:Middlewares/Third_Party/LwIP/src/apps/mqtt/mqtt.c ****   mqtt_client_t *client = (mqtt_client_t *)arg;
1019:Middlewares/Third_Party/LwIP/src/apps/mqtt/mqtt.c ****   LWIP_UNUSED_ARG(err); /* only used for debug output */
1020:Middlewares/Third_Party/LwIP/src/apps/mqtt/mqtt.c ****   LWIP_DEBUGF(MQTT_DEBUG_TRACE, ("mqtt_tcp_err_cb: TCP error callback: error %d, arg: %p\n", err, a
1021:Middlewares/Third_Party/LwIP/src/apps/mqtt/mqtt.c ****   LWIP_ASSERT("mqtt_tcp_err_cb: client != NULL", client != NULL);
1022:Middlewares/Third_Party/LwIP/src/apps/mqtt/mqtt.c ****   /* Set conn to null before calling close as pcb is already deallocated*/
1023:Middlewares/Third_Party/LwIP/src/apps/mqtt/mqtt.c ****   client->conn = NULL;
1024:Middlewares/Third_Party/LwIP/src/apps/mqtt/mqtt.c ****   mqtt_close(client, MQTT_CONNECT_DISCONNECTED);
1025:Middlewares/Third_Party/LwIP/src/apps/mqtt/mqtt.c **** }
ARM GAS  C:\Users\hh\AppData\Local\Temp\cc3qgJrr.s 			page 53


1026:Middlewares/Third_Party/LwIP/src/apps/mqtt/mqtt.c **** 
1027:Middlewares/Third_Party/LwIP/src/apps/mqtt/mqtt.c **** /**
1028:Middlewares/Third_Party/LwIP/src/apps/mqtt/mqtt.c ****  * TCP poll callback function. @see tcp_poll_fn
1029:Middlewares/Third_Party/LwIP/src/apps/mqtt/mqtt.c ****  * @param arg MQTT client
1030:Middlewares/Third_Party/LwIP/src/apps/mqtt/mqtt.c ****  * @param tpcb TCP connection handle
1031:Middlewares/Third_Party/LwIP/src/apps/mqtt/mqtt.c ****  * @return err ERR_OK
1032:Middlewares/Third_Party/LwIP/src/apps/mqtt/mqtt.c ****  */
1033:Middlewares/Third_Party/LwIP/src/apps/mqtt/mqtt.c **** static err_t
1034:Middlewares/Third_Party/LwIP/src/apps/mqtt/mqtt.c **** mqtt_tcp_poll_cb(void *arg, struct altcp_pcb *tpcb)
1035:Middlewares/Third_Party/LwIP/src/apps/mqtt/mqtt.c **** {
 1610              		.loc 1 1035 1 view -0
 1611              		.cfi_startproc
 1612              		@ args = 0, pretend = 0, frame = 0
 1613              		@ frame_needed = 0, uses_anonymous_args = 0
 1614              		.loc 1 1035 1 is_stmt 0 view .LVU433
 1615 0000 08B5     		push	{r3, lr}
 1616              	.LCFI15:
 1617              		.cfi_def_cfa_offset 8
 1618              		.cfi_offset 3, -8
 1619              		.cfi_offset 14, -4
1036:Middlewares/Third_Party/LwIP/src/apps/mqtt/mqtt.c ****   mqtt_client_t *client = (mqtt_client_t *)arg;
 1620              		.loc 1 1036 3 is_stmt 1 view .LVU434
 1621              	.LVL177:
1037:Middlewares/Third_Party/LwIP/src/apps/mqtt/mqtt.c ****   if (client->conn_state == MQTT_CONNECTED) {
 1622              		.loc 1 1037 3 view .LVU435
 1623              		.loc 1 1037 13 is_stmt 0 view .LVU436
 1624 0002 837A     		ldrb	r3, [r0, #10]	@ zero_extendqisi2
 1625              		.loc 1 1037 6 view .LVU437
 1626 0004 032B     		cmp	r3, #3
 1627 0006 01D0     		beq	.L133
 1628              	.LVL178:
 1629              	.L131:
1038:Middlewares/Third_Party/LwIP/src/apps/mqtt/mqtt.c ****     /* Try send any remaining buffers from output queue */
1039:Middlewares/Third_Party/LwIP/src/apps/mqtt/mqtt.c ****     mqtt_output_send(&client->output, tpcb);
1040:Middlewares/Third_Party/LwIP/src/apps/mqtt/mqtt.c ****   }
1041:Middlewares/Third_Party/LwIP/src/apps/mqtt/mqtt.c ****   return ERR_OK;
 1630              		.loc 1 1041 3 is_stmt 1 view .LVU438
1042:Middlewares/Third_Party/LwIP/src/apps/mqtt/mqtt.c **** }
 1631              		.loc 1 1042 1 is_stmt 0 view .LVU439
 1632 0008 0020     		movs	r0, #0
 1633 000a 08BD     		pop	{r3, pc}
 1634              	.LVL179:
 1635              	.L133:
1039:Middlewares/Third_Party/LwIP/src/apps/mqtt/mqtt.c ****   }
 1636              		.loc 1 1039 5 is_stmt 1 view .LVU440
 1637 000c EC30     		adds	r0, r0, #236
 1638              	.LVL180:
1039:Middlewares/Third_Party/LwIP/src/apps/mqtt/mqtt.c ****   }
 1639              		.loc 1 1039 5 is_stmt 0 view .LVU441
 1640 000e FFF7FEFF 		bl	mqtt_output_send
 1641              	.LVL181:
1039:Middlewares/Third_Party/LwIP/src/apps/mqtt/mqtt.c ****   }
 1642              		.loc 1 1039 5 view .LVU442
 1643 0012 F9E7     		b	.L131
 1644              		.cfi_endproc
 1645              	.LFE200:
 1647              		.section	.text.mqtt_tcp_sent_cb,"ax",%progbits
ARM GAS  C:\Users\hh\AppData\Local\Temp\cc3qgJrr.s 			page 54


 1648              		.align	1
 1649              		.syntax unified
 1650              		.thumb
 1651              		.thumb_func
 1653              	mqtt_tcp_sent_cb:
 1654              	.LVL182:
 1655              	.LFB198:
 984:Middlewares/Third_Party/LwIP/src/apps/mqtt/mqtt.c ****   mqtt_client_t *client = (mqtt_client_t *)arg;
 1656              		.loc 1 984 1 is_stmt 1 view -0
 1657              		.cfi_startproc
 1658              		@ args = 0, pretend = 0, frame = 0
 1659              		@ frame_needed = 0, uses_anonymous_args = 0
 984:Middlewares/Third_Party/LwIP/src/apps/mqtt/mqtt.c ****   mqtt_client_t *client = (mqtt_client_t *)arg;
 1660              		.loc 1 984 1 is_stmt 0 view .LVU444
 1661 0000 38B5     		push	{r3, r4, r5, lr}
 1662              	.LCFI16:
 1663              		.cfi_def_cfa_offset 16
 1664              		.cfi_offset 3, -16
 1665              		.cfi_offset 4, -12
 1666              		.cfi_offset 5, -8
 1667              		.cfi_offset 14, -4
 985:Middlewares/Third_Party/LwIP/src/apps/mqtt/mqtt.c **** 
 1668              		.loc 1 985 3 is_stmt 1 view .LVU445
 1669              	.LVL183:
 987:Middlewares/Third_Party/LwIP/src/apps/mqtt/mqtt.c ****   LWIP_UNUSED_ARG(len);
 1670              		.loc 1 987 3 view .LVU446
 988:Middlewares/Third_Party/LwIP/src/apps/mqtt/mqtt.c **** 
 1671              		.loc 1 988 3 view .LVU447
 990:Middlewares/Third_Party/LwIP/src/apps/mqtt/mqtt.c ****     struct mqtt_request_t *r;
 1672              		.loc 1 990 3 view .LVU448
 990:Middlewares/Third_Party/LwIP/src/apps/mqtt/mqtt.c ****     struct mqtt_request_t *r;
 1673              		.loc 1 990 13 is_stmt 0 view .LVU449
 1674 0002 837A     		ldrb	r3, [r0, #10]	@ zero_extendqisi2
 990:Middlewares/Third_Party/LwIP/src/apps/mqtt/mqtt.c ****     struct mqtt_request_t *r;
 1675              		.loc 1 990 6 view .LVU450
 1676 0004 032B     		cmp	r3, #3
 1677 0006 01D0     		beq	.L140
 1678              	.LVL184:
 1679              	.L135:
1007:Middlewares/Third_Party/LwIP/src/apps/mqtt/mqtt.c **** }
 1680              		.loc 1 1007 3 is_stmt 1 view .LVU451
1008:Middlewares/Third_Party/LwIP/src/apps/mqtt/mqtt.c **** 
 1681              		.loc 1 1008 1 is_stmt 0 view .LVU452
 1682 0008 0020     		movs	r0, #0
 1683 000a 38BD     		pop	{r3, r4, r5, pc}
 1684              	.LVL185:
 1685              	.L140:
1008:Middlewares/Third_Party/LwIP/src/apps/mqtt/mqtt.c **** 
 1686              		.loc 1 1008 1 view .LVU453
 1687 000c 0546     		mov	r5, r0
 1688              	.LBB2:
 991:Middlewares/Third_Party/LwIP/src/apps/mqtt/mqtt.c **** 
 1689              		.loc 1 991 5 is_stmt 1 view .LVU454
 994:Middlewares/Third_Party/LwIP/src/apps/mqtt/mqtt.c ****     client->server_watchdog = 0;
 1690              		.loc 1 994 5 view .LVU455
 994:Middlewares/Third_Party/LwIP/src/apps/mqtt/mqtt.c ****     client->server_watchdog = 0;
 1691              		.loc 1 994 25 is_stmt 0 view .LVU456
ARM GAS  C:\Users\hh\AppData\Local\Temp\cc3qgJrr.s 			page 55


 1692 000e 0023     		movs	r3, #0
 1693 0010 0380     		strh	r3, [r0]	@ movhi
 995:Middlewares/Third_Party/LwIP/src/apps/mqtt/mqtt.c ****     /* QoS 0 publish has no response from server, so call its callbacks here */
 1694              		.loc 1 995 5 is_stmt 1 view .LVU457
 995:Middlewares/Third_Party/LwIP/src/apps/mqtt/mqtt.c ****     /* QoS 0 publish has no response from server, so call its callbacks here */
 1695              		.loc 1 995 29 is_stmt 0 view .LVU458
 1696 0012 8380     		strh	r3, [r0, #4]	@ movhi
 997:Middlewares/Third_Party/LwIP/src/apps/mqtt/mqtt.c ****       LWIP_DEBUGF(MQTT_DEBUG_TRACE, ("mqtt_tcp_sent_cb: Calling QoS 0 publish complete callback\n")
 1697              		.loc 1 997 5 is_stmt 1 view .LVU459
 997:Middlewares/Third_Party/LwIP/src/apps/mqtt/mqtt.c ****       LWIP_DEBUGF(MQTT_DEBUG_TRACE, ("mqtt_tcp_sent_cb: Calling QoS 0 publish complete callback\n")
 1698              		.loc 1 997 11 is_stmt 0 view .LVU460
 1699 0014 02E0     		b	.L136
 1700              	.LVL186:
 1701              	.L137:
1002:Middlewares/Third_Party/LwIP/src/apps/mqtt/mqtt.c ****     }
 1702              		.loc 1 1002 7 is_stmt 1 view .LVU461
 1703 0016 2046     		mov	r0, r4
 1704 0018 FFF7FEFF 		bl	mqtt_delete_request
 1705              	.LVL187:
 1706              	.L136:
 997:Middlewares/Third_Party/LwIP/src/apps/mqtt/mqtt.c ****       LWIP_DEBUGF(MQTT_DEBUG_TRACE, ("mqtt_tcp_sent_cb: Calling QoS 0 publish complete callback\n")
 1707              		.loc 1 997 64 view .LVU462
 997:Middlewares/Third_Party/LwIP/src/apps/mqtt/mqtt.c ****       LWIP_DEBUGF(MQTT_DEBUG_TRACE, ("mqtt_tcp_sent_cb: Calling QoS 0 publish complete callback\n")
 1708              		.loc 1 997 17 is_stmt 0 view .LVU463
 1709 001c 0021     		movs	r1, #0
 1710 001e 05F11800 		add	r0, r5, #24
 1711 0022 FFF7FEFF 		bl	mqtt_take_request
 1712              	.LVL188:
 997:Middlewares/Third_Party/LwIP/src/apps/mqtt/mqtt.c ****       LWIP_DEBUGF(MQTT_DEBUG_TRACE, ("mqtt_tcp_sent_cb: Calling QoS 0 publish complete callback\n")
 1713              		.loc 1 997 64 discriminator 1 view .LVU464
 1714 0026 0446     		mov	r4, r0
 1715 0028 30B1     		cbz	r0, .L141
 998:Middlewares/Third_Party/LwIP/src/apps/mqtt/mqtt.c ****       if (r->cb != NULL) {
 1716              		.loc 1 998 101 is_stmt 1 view .LVU465
 999:Middlewares/Third_Party/LwIP/src/apps/mqtt/mqtt.c ****         r->cb(r->arg, ERR_OK);
 1717              		.loc 1 999 7 view .LVU466
 999:Middlewares/Third_Party/LwIP/src/apps/mqtt/mqtt.c ****         r->cb(r->arg, ERR_OK);
 1718              		.loc 1 999 12 is_stmt 0 view .LVU467
 1719 002a 6368     		ldr	r3, [r4, #4]
 999:Middlewares/Third_Party/LwIP/src/apps/mqtt/mqtt.c ****         r->cb(r->arg, ERR_OK);
 1720              		.loc 1 999 10 view .LVU468
 1721 002c 002B     		cmp	r3, #0
 1722 002e F2D0     		beq	.L137
1000:Middlewares/Third_Party/LwIP/src/apps/mqtt/mqtt.c ****       }
 1723              		.loc 1 1000 9 is_stmt 1 view .LVU469
 1724 0030 0021     		movs	r1, #0
 1725 0032 A068     		ldr	r0, [r4, #8]
 1726              	.LVL189:
1000:Middlewares/Third_Party/LwIP/src/apps/mqtt/mqtt.c ****       }
 1727              		.loc 1 1000 9 is_stmt 0 view .LVU470
 1728 0034 9847     		blx	r3
 1729              	.LVL190:
 1730 0036 EEE7     		b	.L137
 1731              	.LVL191:
 1732              	.L141:
1005:Middlewares/Third_Party/LwIP/src/apps/mqtt/mqtt.c ****   }
 1733              		.loc 1 1005 5 is_stmt 1 view .LVU471
ARM GAS  C:\Users\hh\AppData\Local\Temp\cc3qgJrr.s 			page 56


 1734 0038 E968     		ldr	r1, [r5, #12]
 1735 003a 05F1EC00 		add	r0, r5, #236
 1736              	.LVL192:
1005:Middlewares/Third_Party/LwIP/src/apps/mqtt/mqtt.c ****   }
 1737              		.loc 1 1005 5 is_stmt 0 view .LVU472
 1738 003e FFF7FEFF 		bl	mqtt_output_send
 1739              	.LVL193:
 1740 0042 E1E7     		b	.L135
 1741              	.LBE2:
 1742              		.cfi_endproc
 1743              	.LFE198:
 1745              		.section	.text.pub_ack_rec_rel_response,"ax",%progbits
 1746              		.align	1
 1747              		.syntax unified
 1748              		.thumb
 1749              		.thumb_func
 1751              	pub_ack_rec_rel_response:
 1752              	.LVL194:
 1753              	.LFB193:
 635:Middlewares/Third_Party/LwIP/src/apps/mqtt/mqtt.c ****   err_t err = ERR_OK;
 1754              		.loc 1 635 1 is_stmt 1 view -0
 1755              		.cfi_startproc
 1756              		@ args = 0, pretend = 0, frame = 0
 1757              		@ frame_needed = 0, uses_anonymous_args = 0
 635:Middlewares/Third_Party/LwIP/src/apps/mqtt/mqtt.c ****   err_t err = ERR_OK;
 1758              		.loc 1 635 1 is_stmt 0 view .LVU474
 1759 0000 2DE9F043 		push	{r4, r5, r6, r7, r8, r9, lr}
 1760              	.LCFI17:
 1761              		.cfi_def_cfa_offset 28
 1762              		.cfi_offset 4, -28
 1763              		.cfi_offset 5, -24
 1764              		.cfi_offset 6, -20
 1765              		.cfi_offset 7, -16
 1766              		.cfi_offset 8, -12
 1767              		.cfi_offset 9, -8
 1768              		.cfi_offset 14, -4
 1769 0004 83B0     		sub	sp, sp, #12
 1770              	.LCFI18:
 1771              		.cfi_def_cfa_offset 40
 1772 0006 0546     		mov	r5, r0
 1773 0008 8946     		mov	r9, r1
 1774 000a 9046     		mov	r8, r2
 1775 000c 1F46     		mov	r7, r3
 636:Middlewares/Third_Party/LwIP/src/apps/mqtt/mqtt.c ****   if (mqtt_output_check_space(&client->output, 2)) {
 1776              		.loc 1 636 3 is_stmt 1 view .LVU475
 1777              	.LVL195:
 637:Middlewares/Third_Party/LwIP/src/apps/mqtt/mqtt.c ****     mqtt_output_append_fixed_header(&client->output, msg, 0, qos, 0, 2);
 1778              		.loc 1 637 3 view .LVU476
 637:Middlewares/Third_Party/LwIP/src/apps/mqtt/mqtt.c ****     mqtt_output_append_fixed_header(&client->output, msg, 0, qos, 0, 2);
 1779              		.loc 1 637 7 is_stmt 0 view .LVU477
 1780 000e 00F1EC06 		add	r6, r0, #236
 1781 0012 0221     		movs	r1, #2
 1782              	.LVL196:
 637:Middlewares/Third_Party/LwIP/src/apps/mqtt/mqtt.c ****     mqtt_output_append_fixed_header(&client->output, msg, 0, qos, 0, 2);
 1783              		.loc 1 637 7 view .LVU478
 1784 0014 3046     		mov	r0, r6
 1785              	.LVL197:
ARM GAS  C:\Users\hh\AppData\Local\Temp\cc3qgJrr.s 			page 57


 637:Middlewares/Third_Party/LwIP/src/apps/mqtt/mqtt.c ****     mqtt_output_append_fixed_header(&client->output, msg, 0, qos, 0, 2);
 1786              		.loc 1 637 7 view .LVU479
 1787 0016 FFF7FEFF 		bl	mqtt_output_check_space
 1788              	.LVL198:
 637:Middlewares/Third_Party/LwIP/src/apps/mqtt/mqtt.c ****     mqtt_output_append_fixed_header(&client->output, msg, 0, qos, 0, 2);
 1789              		.loc 1 637 6 discriminator 1 view .LVU480
 1790 001a A8B1     		cbz	r0, .L144
 638:Middlewares/Third_Party/LwIP/src/apps/mqtt/mqtt.c ****     mqtt_output_append_u16(&client->output, pkt_id);
 1791              		.loc 1 638 5 is_stmt 1 view .LVU481
 1792 001c 0223     		movs	r3, #2
 1793 001e 0193     		str	r3, [sp, #4]
 1794 0020 0024     		movs	r4, #0
 1795 0022 0094     		str	r4, [sp]
 1796 0024 3B46     		mov	r3, r7
 1797 0026 2246     		mov	r2, r4
 1798 0028 4946     		mov	r1, r9
 1799 002a 3046     		mov	r0, r6
 1800 002c FFF7FEFF 		bl	mqtt_output_append_fixed_header
 1801              	.LVL199:
 639:Middlewares/Third_Party/LwIP/src/apps/mqtt/mqtt.c ****     mqtt_output_send(&client->output, client->conn);
 1802              		.loc 1 639 5 view .LVU482
 1803 0030 4146     		mov	r1, r8
 1804 0032 3046     		mov	r0, r6
 1805 0034 FFF7FEFF 		bl	mqtt_output_append_u16
 1806              	.LVL200:
 640:Middlewares/Third_Party/LwIP/src/apps/mqtt/mqtt.c ****   } else {
 1807              		.loc 1 640 5 view .LVU483
 1808 0038 E968     		ldr	r1, [r5, #12]
 1809 003a 3046     		mov	r0, r6
 1810 003c FFF7FEFF 		bl	mqtt_output_send
 1811              	.LVL201:
 636:Middlewares/Third_Party/LwIP/src/apps/mqtt/mqtt.c ****   if (mqtt_output_check_space(&client->output, 2)) {
 1812              		.loc 1 636 9 is_stmt 0 view .LVU484
 1813 0040 2046     		mov	r0, r4
 1814              	.L143:
 1815              	.LVL202:
 646:Middlewares/Third_Party/LwIP/src/apps/mqtt/mqtt.c **** }
 1816              		.loc 1 646 3 is_stmt 1 view .LVU485
 647:Middlewares/Third_Party/LwIP/src/apps/mqtt/mqtt.c **** 
 1817              		.loc 1 647 1 is_stmt 0 view .LVU486
 1818 0042 03B0     		add	sp, sp, #12
 1819              	.LCFI19:
 1820              		.cfi_remember_state
 1821              		.cfi_def_cfa_offset 28
 1822              		@ sp needed
 1823 0044 BDE8F083 		pop	{r4, r5, r6, r7, r8, r9, pc}
 1824              	.LVL203:
 1825              	.L144:
 1826              	.LCFI20:
 1827              		.cfi_restore_state
 644:Middlewares/Third_Party/LwIP/src/apps/mqtt/mqtt.c ****   }
 1828              		.loc 1 644 9 view .LVU487
 1829 0048 4FF0FF30 		mov	r0, #-1
 1830 004c F9E7     		b	.L143
 1831              		.cfi_endproc
 1832              	.LFE193:
 1834              		.section	.rodata.mqtt_message_received.str1.4,"aMS",%progbits,1
ARM GAS  C:\Users\hh\AppData\Local\Temp\cc3qgJrr.s 			page 58


 1835              		.align	2
 1836              	.LC11:
 1837 0000 66697865 		.ascii	"fixed_hdr_len <= client->msg_idx\000"
 1837      645F6864 
 1837      725F6C65 
 1837      6E203C3D 
 1837      20636C69 
 1838              		.section	.text.mqtt_message_received,"ax",%progbits
 1839              		.align	1
 1840              		.syntax unified
 1841              		.thumb
 1842              		.thumb_func
 1844              	mqtt_message_received:
 1845              	.LVL204:
 1846              	.LFB195:
 673:Middlewares/Third_Party/LwIP/src/apps/mqtt/mqtt.c ****   mqtt_connection_status_t res = MQTT_CONNECT_ACCEPTED;
 1847              		.loc 1 673 1 is_stmt 1 view -0
 1848              		.cfi_startproc
 1849              		@ args = 4, pretend = 0, frame = 8
 1850              		@ frame_needed = 0, uses_anonymous_args = 0
 673:Middlewares/Third_Party/LwIP/src/apps/mqtt/mqtt.c ****   mqtt_connection_status_t res = MQTT_CONNECT_ACCEPTED;
 1851              		.loc 1 673 1 is_stmt 0 view .LVU489
 1852 0000 2DE9F04F 		push	{r4, r5, r6, r7, r8, r9, r10, fp, lr}
 1853              	.LCFI21:
 1854              		.cfi_def_cfa_offset 36
 1855              		.cfi_offset 4, -36
 1856              		.cfi_offset 5, -32
 1857              		.cfi_offset 6, -28
 1858              		.cfi_offset 7, -24
 1859              		.cfi_offset 8, -20
 1860              		.cfi_offset 9, -16
 1861              		.cfi_offset 10, -12
 1862              		.cfi_offset 11, -8
 1863              		.cfi_offset 14, -4
 1864 0004 83B0     		sub	sp, sp, #12
 1865              	.LCFI22:
 1866              		.cfi_def_cfa_offset 48
 1867 0006 0446     		mov	r4, r0
 1868 0008 0E46     		mov	r6, r1
 1869 000a 1746     		mov	r7, r2
 1870 000c 9846     		mov	r8, r3
 674:Middlewares/Third_Party/LwIP/src/apps/mqtt/mqtt.c **** 
 1871              		.loc 1 674 3 is_stmt 1 view .LVU490
 1872              	.LVL205:
 677:Middlewares/Third_Party/LwIP/src/apps/mqtt/mqtt.c ****   u16_t pkt_id = 0;
 1873              		.loc 1 677 3 view .LVU491
 677:Middlewares/Third_Party/LwIP/src/apps/mqtt/mqtt.c ****   u16_t pkt_id = 0;
 1874              		.loc 1 677 19 is_stmt 0 view .LVU492
 1875 000e 90F86C50 		ldrb	r5, [r0, #108]	@ zero_extendqisi2
 677:Middlewares/Third_Party/LwIP/src/apps/mqtt/mqtt.c ****   u16_t pkt_id = 0;
 1876              		.loc 1 677 8 view .LVU493
 1877 0012 2D09     		lsrs	r5, r5, #4
 1878              	.LVL206:
 678:Middlewares/Third_Party/LwIP/src/apps/mqtt/mqtt.c **** 
 1879              		.loc 1 678 3 is_stmt 1 view .LVU494
 680:Middlewares/Third_Party/LwIP/src/apps/mqtt/mqtt.c ****   LWIP_ERROR("buffer length mismatch", fixed_hdr_len + length <= MQTT_VAR_HEADER_BUFFER_LEN,
 1880              		.loc 1 680 3 view .LVU495
ARM GAS  C:\Users\hh\AppData\Local\Temp\cc3qgJrr.s 			page 59


 680:Middlewares/Third_Party/LwIP/src/apps/mqtt/mqtt.c ****   LWIP_ERROR("buffer length mismatch", fixed_hdr_len + length <= MQTT_VAR_HEADER_BUFFER_LEN,
 1881              		.loc 1 680 3 view .LVU496
 1882 0014 836E     		ldr	r3, [r0, #104]
 1883              	.LVL207:
 680:Middlewares/Third_Party/LwIP/src/apps/mqtt/mqtt.c ****   LWIP_ERROR("buffer length mismatch", fixed_hdr_len + length <= MQTT_VAR_HEADER_BUFFER_LEN,
 1884              		.loc 1 680 3 is_stmt 0 view .LVU497
 1885 0016 9942     		cmp	r1, r3
 1886 0018 3DD8     		bhi	.L187
 1887              	.LVL208:
 1888              	.L147:
 680:Middlewares/Third_Party/LwIP/src/apps/mqtt/mqtt.c ****   LWIP_ERROR("buffer length mismatch", fixed_hdr_len + length <= MQTT_VAR_HEADER_BUFFER_LEN,
 1889              		.loc 1 680 3 is_stmt 1 view .LVU498
 680:Middlewares/Third_Party/LwIP/src/apps/mqtt/mqtt.c ****   LWIP_ERROR("buffer length mismatch", fixed_hdr_len + length <= MQTT_VAR_HEADER_BUFFER_LEN,
 1890              		.loc 1 680 3 view .LVU499
 681:Middlewares/Third_Party/LwIP/src/apps/mqtt/mqtt.c ****              return MQTT_CONNECT_DISCONNECTED);
 1891              		.loc 1 681 3 view .LVU500
 681:Middlewares/Third_Party/LwIP/src/apps/mqtt/mqtt.c ****              return MQTT_CONNECT_DISCONNECTED);
 1892              		.loc 1 681 3 view .LVU501
 1893 001a F319     		adds	r3, r6, r7
 1894 001c 802B     		cmp	r3, #128
 1895 001e 00F3F580 		bgt	.L165
 681:Middlewares/Third_Party/LwIP/src/apps/mqtt/mqtt.c ****              return MQTT_CONNECT_DISCONNECTED);
 1896              		.loc 1 681 3 view .LVU502
 684:Middlewares/Third_Party/LwIP/src/apps/mqtt/mqtt.c ****     if (client->conn_state == MQTT_CONNECTING) {
 1897              		.loc 1 684 3 view .LVU503
 684:Middlewares/Third_Party/LwIP/src/apps/mqtt/mqtt.c ****     if (client->conn_state == MQTT_CONNECTING) {
 1898              		.loc 1 684 6 is_stmt 0 view .LVU504
 1899 0022 022D     		cmp	r5, #2
 1900 0024 3FD0     		beq	.L188
 705:Middlewares/Third_Party/LwIP/src/apps/mqtt/mqtt.c ****     LWIP_DEBUGF(MQTT_DEBUG_TRACE, ( "mqtt_message_received: Received PINGRESP from server\n"));
 1901              		.loc 1 705 10 is_stmt 1 view .LVU505
 705:Middlewares/Third_Party/LwIP/src/apps/mqtt/mqtt.c ****     LWIP_DEBUGF(MQTT_DEBUG_TRACE, ( "mqtt_message_received: Received PINGRESP from server\n"));
 1902              		.loc 1 705 13 is_stmt 0 view .LVU506
 1903 0026 0D2D     		cmp	r5, #13
 1904 0028 00F0F980 		beq	.L168
 708:Middlewares/Third_Party/LwIP/src/apps/mqtt/mqtt.c ****     u16_t payload_offset = 0;
 1905              		.loc 1 708 10 is_stmt 1 view .LVU507
 708:Middlewares/Third_Party/LwIP/src/apps/mqtt/mqtt.c ****     u16_t payload_offset = 0;
 1906              		.loc 1 708 13 is_stmt 0 view .LVU508
 1907 002c 032D     		cmp	r5, #3
 1908 002e 53D0     		beq	.L189
 786:Middlewares/Third_Party/LwIP/src/apps/mqtt/mqtt.c ****       LWIP_DEBUGF(MQTT_DEBUG_WARN,( "mqtt_message_received: Received short message\n"));
 1909              		.loc 1 786 5 is_stmt 1 view .LVU509
 786:Middlewares/Third_Party/LwIP/src/apps/mqtt/mqtt.c ****       LWIP_DEBUGF(MQTT_DEBUG_WARN,( "mqtt_message_received: Received short message\n"));
 1910              		.loc 1 786 8 is_stmt 0 view .LVU510
 1911 0030 012F     		cmp	r7, #1
 1912 0032 40F20A81 		bls	.L181
 791:Middlewares/Third_Party/LwIP/src/apps/mqtt/mqtt.c ****     pkt_id |= (u16_t)var_hdr_payload[1];
 1913              		.loc 1 791 5 is_stmt 1 view .LVU511
 791:Middlewares/Third_Party/LwIP/src/apps/mqtt/mqtt.c ****     pkt_id |= (u16_t)var_hdr_payload[1];
 1914              		.loc 1 791 36 is_stmt 0 view .LVU512
 1915 0036 0C9B     		ldr	r3, [sp, #48]
 1916 0038 1B78     		ldrb	r3, [r3]	@ zero_extendqisi2
 1917              	.LVL209:
 792:Middlewares/Third_Party/LwIP/src/apps/mqtt/mqtt.c ****     if (pkt_id == 0) {
 1918              		.loc 1 792 5 is_stmt 1 view .LVU513
 792:Middlewares/Third_Party/LwIP/src/apps/mqtt/mqtt.c ****     if (pkt_id == 0) {
ARM GAS  C:\Users\hh\AppData\Local\Temp\cc3qgJrr.s 			page 60


 1919              		.loc 1 792 37 is_stmt 0 view .LVU514
 1920 003a 0C9A     		ldr	r2, [sp, #48]
 1921 003c 5278     		ldrb	r2, [r2, #1]	@ zero_extendqisi2
 1922              	.LVL210:
 793:Middlewares/Third_Party/LwIP/src/apps/mqtt/mqtt.c ****       LWIP_DEBUGF(MQTT_DEBUG_WARN, ("mqtt_message_received: Got message with illegal packet identif
 1923              		.loc 1 793 5 is_stmt 1 view .LVU515
 793:Middlewares/Third_Party/LwIP/src/apps/mqtt/mqtt.c ****       LWIP_DEBUGF(MQTT_DEBUG_WARN, ("mqtt_message_received: Got message with illegal packet identif
 1924              		.loc 1 793 8 is_stmt 0 view .LVU516
 1925 003e 52EA0321 		orrs	r1, r2, r3, lsl #8
 1926              	.LVL211:
 793:Middlewares/Third_Party/LwIP/src/apps/mqtt/mqtt.c ****       LWIP_DEBUGF(MQTT_DEBUG_WARN, ("mqtt_message_received: Got message with illegal packet identif
 1927              		.loc 1 793 8 view .LVU517
 1928 0042 00F00581 		beq	.L182
 797:Middlewares/Third_Party/LwIP/src/apps/mqtt/mqtt.c ****       LWIP_DEBUGF(MQTT_DEBUG_TRACE, ("mqtt_message_received: PUBREC, sending PUBREL with pkt_id: %d
 1929              		.loc 1 797 5 is_stmt 1 view .LVU518
 797:Middlewares/Third_Party/LwIP/src/apps/mqtt/mqtt.c ****       LWIP_DEBUGF(MQTT_DEBUG_TRACE, ("mqtt_message_received: PUBREC, sending PUBREL with pkt_id: %d
 1930              		.loc 1 797 8 is_stmt 0 view .LVU519
 1931 0046 052D     		cmp	r5, #5
 1932 0048 00F0C980 		beq	.L190
 801:Middlewares/Third_Party/LwIP/src/apps/mqtt/mqtt.c ****       LWIP_DEBUGF(MQTT_DEBUG_TRACE, ("mqtt_message_received: PUBREL, sending PUBCOMP response with 
 1933              		.loc 1 801 12 is_stmt 1 view .LVU520
 801:Middlewares/Third_Party/LwIP/src/apps/mqtt/mqtt.c ****       LWIP_DEBUGF(MQTT_DEBUG_TRACE, ("mqtt_message_received: PUBREL, sending PUBCOMP response with 
 1934              		.loc 1 801 15 is_stmt 0 view .LVU521
 1935 004c 062D     		cmp	r5, #6
 1936 004e 00F0CE80 		beq	.L191
 805:Middlewares/Third_Party/LwIP/src/apps/mqtt/mqtt.c ****                pkt_type == MQTT_MSG_TYPE_PUBCOMP || pkt_type == MQTT_MSG_TYPE_PUBACK) {
 1937              		.loc 1 805 12 is_stmt 1 view .LVU522
 805:Middlewares/Third_Party/LwIP/src/apps/mqtt/mqtt.c ****                pkt_type == MQTT_MSG_TYPE_PUBCOMP || pkt_type == MQTT_MSG_TYPE_PUBACK) {
 1938              		.loc 1 805 15 is_stmt 0 view .LVU523
 1939 0052 0B2D     		cmp	r5, #11
 1940 0054 18BF     		it	ne
 1941 0056 092D     		cmpne	r5, #9
 1942 0058 08D0     		beq	.L161
 806:Middlewares/Third_Party/LwIP/src/apps/mqtt/mqtt.c ****       struct mqtt_request_t *r = mqtt_take_request(&client->pend_req_queue, pkt_id);
 1943              		.loc 1 806 62 view .LVU524
 1944 005a 042D     		cmp	r5, #4
 1945 005c 14BF     		ite	ne
 1946 005e 0023     		movne	r3, #0
 1947 0060 0123     		moveq	r3, #1
 806:Middlewares/Third_Party/LwIP/src/apps/mqtt/mqtt.c ****       struct mqtt_request_t *r = mqtt_take_request(&client->pend_req_queue, pkt_id);
 1948              		.loc 1 806 50 view .LVU525
 1949 0062 072D     		cmp	r5, #7
 1950 0064 02D0     		beq	.L161
 1951 0066 002B     		cmp	r3, #0
 1952 0068 00F0F580 		beq	.L183
 1953              	.L161:
 1954              	.LBB3:
 807:Middlewares/Third_Party/LwIP/src/apps/mqtt/mqtt.c ****       if (r != NULL) {
 1955              		.loc 1 807 7 is_stmt 1 view .LVU526
 807:Middlewares/Third_Party/LwIP/src/apps/mqtt/mqtt.c ****       if (r != NULL) {
 1956              		.loc 1 807 34 is_stmt 0 view .LVU527
 1957 006c 04F11800 		add	r0, r4, #24
 1958 0070 FFF7FEFF 		bl	mqtt_take_request
 1959              	.LVL212:
 808:Middlewares/Third_Party/LwIP/src/apps/mqtt/mqtt.c ****         LWIP_DEBUGF(MQTT_DEBUG_TRACE, ("mqtt_message_received: %s response with id %d\n", mqtt_msg_
 1960              		.loc 1 808 7 is_stmt 1 view .LVU528
 808:Middlewares/Third_Party/LwIP/src/apps/mqtt/mqtt.c ****         LWIP_DEBUGF(MQTT_DEBUG_TRACE, ("mqtt_message_received: %s response with id %d\n", mqtt_msg_
ARM GAS  C:\Users\hh\AppData\Local\Temp\cc3qgJrr.s 			page 61


 1961              		.loc 1 808 10 is_stmt 0 view .LVU529
 1962 0074 0446     		mov	r4, r0
 1963              	.LVL213:
 808:Middlewares/Third_Party/LwIP/src/apps/mqtt/mqtt.c ****         LWIP_DEBUGF(MQTT_DEBUG_TRACE, ("mqtt_message_received: %s response with id %d\n", mqtt_msg_
 1964              		.loc 1 808 10 view .LVU530
 1965 0076 0028     		cmp	r0, #0
 1966 0078 00F0F080 		beq	.L184
 809:Middlewares/Third_Party/LwIP/src/apps/mqtt/mqtt.c ****         if (pkt_type == MQTT_MSG_TYPE_SUBACK) {
 1967              		.loc 1 809 131 is_stmt 1 view .LVU531
 810:Middlewares/Third_Party/LwIP/src/apps/mqtt/mqtt.c ****           if (length < 3) {
 1968              		.loc 1 810 9 view .LVU532
 810:Middlewares/Third_Party/LwIP/src/apps/mqtt/mqtt.c ****           if (length < 3) {
 1969              		.loc 1 810 12 is_stmt 0 view .LVU533
 1970 007c 092D     		cmp	r5, #9
 1971 007e 00F0BE80 		beq	.L192
 817:Middlewares/Third_Party/LwIP/src/apps/mqtt/mqtt.c ****           r->cb(r->arg, ERR_OK);
 1972              		.loc 1 817 16 is_stmt 1 view .LVU534
 817:Middlewares/Third_Party/LwIP/src/apps/mqtt/mqtt.c ****           r->cb(r->arg, ERR_OK);
 1973              		.loc 1 817 21 is_stmt 0 view .LVU535
 1974 0082 4368     		ldr	r3, [r0, #4]
 817:Middlewares/Third_Party/LwIP/src/apps/mqtt/mqtt.c ****           r->cb(r->arg, ERR_OK);
 1975              		.loc 1 817 19 view .LVU536
 1976 0084 13B1     		cbz	r3, .L164
 818:Middlewares/Third_Party/LwIP/src/apps/mqtt/mqtt.c ****         }
 1977              		.loc 1 818 11 is_stmt 1 view .LVU537
 1978 0086 0021     		movs	r1, #0
 1979 0088 8068     		ldr	r0, [r0, #8]
 1980              	.LVL214:
 818:Middlewares/Third_Party/LwIP/src/apps/mqtt/mqtt.c ****         }
 1981              		.loc 1 818 11 is_stmt 0 view .LVU538
 1982 008a 9847     		blx	r3
 1983              	.LVL215:
 1984              	.L164:
 820:Middlewares/Third_Party/LwIP/src/apps/mqtt/mqtt.c ****       } else {
 1985              		.loc 1 820 9 is_stmt 1 view .LVU539
 1986 008c 2046     		mov	r0, r4
 1987 008e FFF7FEFF 		bl	mqtt_delete_request
 1988              	.LVL216:
 1989              	.LBE3:
 674:Middlewares/Third_Party/LwIP/src/apps/mqtt/mqtt.c **** 
 1990              		.loc 1 674 28 is_stmt 0 view .LVU540
 1991 0092 0025     		movs	r5, #0
 1992              	.LVL217:
 1993              	.LBB4:
 674:Middlewares/Third_Party/LwIP/src/apps/mqtt/mqtt.c **** 
 1994              		.loc 1 674 28 view .LVU541
 1995 0094 BCE0     		b	.L148
 1996              	.LVL218:
 1997              	.L187:
 674:Middlewares/Third_Party/LwIP/src/apps/mqtt/mqtt.c **** 
 1998              		.loc 1 674 28 view .LVU542
 1999              	.LBE4:
 680:Middlewares/Third_Party/LwIP/src/apps/mqtt/mqtt.c ****   LWIP_ERROR("buffer length mismatch", fixed_hdr_len + length <= MQTT_VAR_HEADER_BUFFER_LEN,
 2000              		.loc 1 680 3 is_stmt 1 discriminator 1 view .LVU543
 680:Middlewares/Third_Party/LwIP/src/apps/mqtt/mqtt.c ****   LWIP_ERROR("buffer length mismatch", fixed_hdr_len + length <= MQTT_VAR_HEADER_BUFFER_LEN,
 2001              		.loc 1 680 3 discriminator 1 view .LVU544
 2002 0096 744B     		ldr	r3, .L196
ARM GAS  C:\Users\hh\AppData\Local\Temp\cc3qgJrr.s 			page 62


 2003 0098 4FF42A72 		mov	r2, #680
 2004              	.LVL219:
 680:Middlewares/Third_Party/LwIP/src/apps/mqtt/mqtt.c ****   LWIP_ERROR("buffer length mismatch", fixed_hdr_len + length <= MQTT_VAR_HEADER_BUFFER_LEN,
 2005              		.loc 1 680 3 is_stmt 0 discriminator 1 view .LVU545
 2006 009c 7349     		ldr	r1, .L196+4
 2007              	.LVL220:
 680:Middlewares/Third_Party/LwIP/src/apps/mqtt/mqtt.c ****   LWIP_ERROR("buffer length mismatch", fixed_hdr_len + length <= MQTT_VAR_HEADER_BUFFER_LEN,
 2008              		.loc 1 680 3 discriminator 1 view .LVU546
 2009 009e 7448     		ldr	r0, .L196+8
 2010              	.LVL221:
 680:Middlewares/Third_Party/LwIP/src/apps/mqtt/mqtt.c ****   LWIP_ERROR("buffer length mismatch", fixed_hdr_len + length <= MQTT_VAR_HEADER_BUFFER_LEN,
 2011              		.loc 1 680 3 discriminator 1 view .LVU547
 2012 00a0 FFF7FEFF 		bl	printf
 2013              	.LVL222:
 2014 00a4 B9E7     		b	.L147
 2015              	.L188:
 685:Middlewares/Third_Party/LwIP/src/apps/mqtt/mqtt.c ****       if (length < 2) {
 2016              		.loc 1 685 5 is_stmt 1 view .LVU548
 685:Middlewares/Third_Party/LwIP/src/apps/mqtt/mqtt.c ****       if (length < 2) {
 2017              		.loc 1 685 15 is_stmt 0 view .LVU549
 2018 00a6 A37A     		ldrb	r3, [r4, #10]	@ zero_extendqisi2
 685:Middlewares/Third_Party/LwIP/src/apps/mqtt/mqtt.c ****       if (length < 2) {
 2019              		.loc 1 685 8 view .LVU550
 2020 00a8 022B     		cmp	r3, #2
 2021 00aa 01D0     		beq	.L193
 674:Middlewares/Third_Party/LwIP/src/apps/mqtt/mqtt.c **** 
 2022              		.loc 1 674 28 view .LVU551
 2023 00ac 0025     		movs	r5, #0
 2024              	.LVL223:
 674:Middlewares/Third_Party/LwIP/src/apps/mqtt/mqtt.c **** 
 2025              		.loc 1 674 28 view .LVU552
 2026 00ae AFE0     		b	.L148
 2027              	.LVL224:
 2028              	.L193:
 686:Middlewares/Third_Party/LwIP/src/apps/mqtt/mqtt.c ****         LWIP_DEBUGF(MQTT_DEBUG_WARN,( "mqtt_message_received: Received short CONNACK message\n"));
 2029              		.loc 1 686 7 is_stmt 1 view .LVU553
 686:Middlewares/Third_Party/LwIP/src/apps/mqtt/mqtt.c ****         LWIP_DEBUGF(MQTT_DEBUG_WARN,( "mqtt_message_received: Received short CONNACK message\n"));
 2030              		.loc 1 686 10 is_stmt 0 view .LVU554
 2031 00b0 012F     		cmp	r7, #1
 2032 00b2 40F2B180 		bls	.L167
 691:Middlewares/Third_Party/LwIP/src/apps/mqtt/mqtt.c ****       LWIP_DEBUGF(MQTT_DEBUG_TRACE, ("mqtt_message_received: Connect response code %d\n", res));
 2033              		.loc 1 691 7 is_stmt 1 view .LVU555
 691:Middlewares/Third_Party/LwIP/src/apps/mqtt/mqtt.c ****       LWIP_DEBUGF(MQTT_DEBUG_TRACE, ("mqtt_message_received: Connect response code %d\n", res));
 2034              		.loc 1 691 54 is_stmt 0 view .LVU556
 2035 00b6 0C9B     		ldr	r3, [sp, #48]
 2036 00b8 5D78     		ldrb	r5, [r3, #1]	@ zero_extendqisi2
 2037              	.LVL225:
 692:Middlewares/Third_Party/LwIP/src/apps/mqtt/mqtt.c ****       if (res == MQTT_CONNECT_ACCEPTED) {
 2038              		.loc 1 692 96 is_stmt 1 view .LVU557
 693:Middlewares/Third_Party/LwIP/src/apps/mqtt/mqtt.c ****         /* Reset cyclic_tick when changing to connected state */
 2039              		.loc 1 693 7 view .LVU558
 693:Middlewares/Third_Party/LwIP/src/apps/mqtt/mqtt.c ****         /* Reset cyclic_tick when changing to connected state */
 2040              		.loc 1 693 10 is_stmt 0 view .LVU559
 2041 00ba 002D     		cmp	r5, #0
 2042 00bc 40F0A880 		bne	.L148
 695:Middlewares/Third_Party/LwIP/src/apps/mqtt/mqtt.c ****         client->conn_state = MQTT_CONNECTED;
 2043              		.loc 1 695 9 is_stmt 1 view .LVU560
ARM GAS  C:\Users\hh\AppData\Local\Temp\cc3qgJrr.s 			page 63


 695:Middlewares/Third_Party/LwIP/src/apps/mqtt/mqtt.c ****         client->conn_state = MQTT_CONNECTED;
 2044              		.loc 1 695 29 is_stmt 0 view .LVU561
 2045 00c0 2580     		strh	r5, [r4]	@ movhi
 696:Middlewares/Third_Party/LwIP/src/apps/mqtt/mqtt.c ****         /* Notify upper layer */
 2046              		.loc 1 696 9 is_stmt 1 view .LVU562
 696:Middlewares/Third_Party/LwIP/src/apps/mqtt/mqtt.c ****         /* Notify upper layer */
 2047              		.loc 1 696 28 is_stmt 0 view .LVU563
 2048 00c2 0323     		movs	r3, #3
 2049 00c4 A372     		strb	r3, [r4, #10]
 698:Middlewares/Third_Party/LwIP/src/apps/mqtt/mqtt.c ****           client->connect_cb(client, client->connect_arg, res);
 2050              		.loc 1 698 9 is_stmt 1 view .LVU564
 698:Middlewares/Third_Party/LwIP/src/apps/mqtt/mqtt.c ****           client->connect_cb(client, client->connect_arg, res);
 2051              		.loc 1 698 19 is_stmt 0 view .LVU565
 2052 00c6 6369     		ldr	r3, [r4, #20]
 698:Middlewares/Third_Party/LwIP/src/apps/mqtt/mqtt.c ****           client->connect_cb(client, client->connect_arg, res);
 2053              		.loc 1 698 12 view .LVU566
 2054 00c8 002B     		cmp	r3, #0
 2055 00ca 00F0A180 		beq	.L148
 699:Middlewares/Third_Party/LwIP/src/apps/mqtt/mqtt.c ****         }
 2056              		.loc 1 699 11 is_stmt 1 view .LVU567
 2057 00ce 2A46     		mov	r2, r5
 2058 00d0 2169     		ldr	r1, [r4, #16]
 2059 00d2 2046     		mov	r0, r4
 2060 00d4 9847     		blx	r3
 2061              	.LVL226:
 2062 00d6 9BE0     		b	.L148
 2063              	.LVL227:
 2064              	.L189:
 2065              	.LBB5:
 709:Middlewares/Third_Party/LwIP/src/apps/mqtt/mqtt.c ****     u16_t payload_length = length;
 2066              		.loc 1 709 5 view .LVU568
 710:Middlewares/Third_Party/LwIP/src/apps/mqtt/mqtt.c ****     u8_t qos = MQTT_CTL_PACKET_QOS(client->rx_buffer[0]);
 2067              		.loc 1 710 5 view .LVU569
 711:Middlewares/Third_Party/LwIP/src/apps/mqtt/mqtt.c **** 
 2068              		.loc 1 711 5 view .LVU570
 711:Middlewares/Third_Party/LwIP/src/apps/mqtt/mqtt.c **** 
 2069              		.loc 1 711 16 is_stmt 0 view .LVU571
 2070 00d8 94F86C20 		ldrb	r2, [r4, #108]	@ zero_extendqisi2
 711:Middlewares/Third_Party/LwIP/src/apps/mqtt/mqtt.c **** 
 2071              		.loc 1 711 10 view .LVU572
 2072 00dc C2F34102 		ubfx	r2, r2, #1, #2
 2073 00e0 9146     		mov	r9, r2
 2074              	.LVL228:
 713:Middlewares/Third_Party/LwIP/src/apps/mqtt/mqtt.c ****       /* First publish message frame. Should have topic and pkt id*/
 2075              		.loc 1 713 5 is_stmt 1 view .LVU573
 713:Middlewares/Third_Party/LwIP/src/apps/mqtt/mqtt.c ****       /* First publish message frame. Should have topic and pkt id*/
 2076              		.loc 1 713 15 is_stmt 0 view .LVU574
 2077 00e2 A26E     		ldr	r2, [r4, #104]
 713:Middlewares/Third_Party/LwIP/src/apps/mqtt/mqtt.c ****       /* First publish message frame. Should have topic and pkt id*/
 2078              		.loc 1 713 8 view .LVU575
 2079 00e4 9A42     		cmp	r2, r3
 2080 00e6 2DD0     		beq	.L194
 710:Middlewares/Third_Party/LwIP/src/apps/mqtt/mqtt.c ****     u8_t qos = MQTT_CTL_PACKET_QOS(client->rx_buffer[0]);
 2081              		.loc 1 710 11 view .LVU576
 2082 00e8 3E46     		mov	r6, r7
 2083              	.LVL229:
 709:Middlewares/Third_Party/LwIP/src/apps/mqtt/mqtt.c ****     u16_t payload_length = length;
ARM GAS  C:\Users\hh\AppData\Local\Temp\cc3qgJrr.s 			page 64


 2084              		.loc 1 709 11 view .LVU577
 2085 00ea 0023     		movs	r3, #0
 2086 00ec 9A46     		mov	r10, r3
 2087              	.LVL230:
 2088              	.L151:
 768:Middlewares/Third_Party/LwIP/src/apps/mqtt/mqtt.c ****       if (length < (size_t)(payload_offset + payload_length)) {
 2089              		.loc 1 768 5 is_stmt 1 view .LVU578
 768:Middlewares/Third_Party/LwIP/src/apps/mqtt/mqtt.c ****       if (length < (size_t)(payload_offset + payload_length)) {
 2090              		.loc 1 768 48 is_stmt 0 view .LVU579
 2091 00ee B8FA88F5 		clz	r5, r8
 2092 00f2 6D09     		lsrs	r5, r5, #5
 768:Middlewares/Third_Party/LwIP/src/apps/mqtt/mqtt.c ****       if (length < (size_t)(payload_offset + payload_length)) {
 2093              		.loc 1 768 28 view .LVU580
 2094 00f4 002E     		cmp	r6, #0
 2095 00f6 0CBF     		ite	eq
 2096 00f8 2B46     		moveq	r3, r5
 2097 00fa 45F00103 		orrne	r3, r5, #1
 768:Middlewares/Third_Party/LwIP/src/apps/mqtt/mqtt.c ****       if (length < (size_t)(payload_offset + payload_length)) {
 2098              		.loc 1 768 8 view .LVU581
 2099 00fe 002B     		cmp	r3, #0
 2100 0100 00F09E80 		beq	.L177
 769:Middlewares/Third_Party/LwIP/src/apps/mqtt/mqtt.c ****         LWIP_DEBUGF(MQTT_DEBUG_WARN,( "mqtt_message_received: Received short packet (payload)\n"));
 2101              		.loc 1 769 7 is_stmt 1 view .LVU582
 769:Middlewares/Third_Party/LwIP/src/apps/mqtt/mqtt.c ****         LWIP_DEBUGF(MQTT_DEBUG_WARN,( "mqtt_message_received: Received short packet (payload)\n"));
 2102              		.loc 1 769 44 is_stmt 0 view .LVU583
 2103 0104 5146     		mov	r1, r10
 2104 0106 8B19     		adds	r3, r1, r6
 769:Middlewares/Third_Party/LwIP/src/apps/mqtt/mqtt.c ****         LWIP_DEBUGF(MQTT_DEBUG_WARN,( "mqtt_message_received: Received short packet (payload)\n"));
 2105              		.loc 1 769 10 view .LVU584
 2106 0108 9F42     		cmp	r7, r3
 2107 010a C0F09B80 		bcc	.L178
 773:Middlewares/Third_Party/LwIP/src/apps/mqtt/mqtt.c ****         client->data_cb(client->inpub_arg, var_hdr_payload + payload_offset, payload_length, remain
 2108              		.loc 1 773 7 is_stmt 1 view .LVU585
 773:Middlewares/Third_Party/LwIP/src/apps/mqtt/mqtt.c ****         client->data_cb(client->inpub_arg, var_hdr_payload + payload_offset, payload_length, remain
 2109              		.loc 1 773 17 is_stmt 0 view .LVU586
 2110 010e 276E     		ldr	r7, [r4, #96]
 2111              	.LVL231:
 773:Middlewares/Third_Party/LwIP/src/apps/mqtt/mqtt.c ****         client->data_cb(client->inpub_arg, var_hdr_payload + payload_offset, payload_length, remain
 2112              		.loc 1 773 10 view .LVU587
 2113 0110 2FB1     		cbz	r7, .L157
 774:Middlewares/Third_Party/LwIP/src/apps/mqtt/mqtt.c ****       }
 2114              		.loc 1 774 9 is_stmt 1 view .LVU588
 2115 0112 2B46     		mov	r3, r5
 2116 0114 3246     		mov	r2, r6
 2117 0116 0C98     		ldr	r0, [sp, #48]
 2118 0118 0144     		add	r1, r1, r0
 2119 011a E06D     		ldr	r0, [r4, #92]
 2120 011c B847     		blx	r7
 2121              	.LVL232:
 2122              	.L157:
 777:Middlewares/Third_Party/LwIP/src/apps/mqtt/mqtt.c ****         /* Send PUBACK for QoS 1 or PUBREC for QoS 2 */
 2123              		.loc 1 777 7 view .LVU589
 777:Middlewares/Third_Party/LwIP/src/apps/mqtt/mqtt.c ****         /* Send PUBACK for QoS 1 or PUBREC for QoS 2 */
 2124              		.loc 1 777 33 is_stmt 0 view .LVU590
 2125 011e 4B46     		mov	r3, r9
 2126 0120 B9F1000F 		cmp	r9, #0
 2127 0124 0CBF     		ite	eq
ARM GAS  C:\Users\hh\AppData\Local\Temp\cc3qgJrr.s 			page 65


 2128 0126 0025     		moveq	r5, #0
 2129 0128 05F00105 		andne	r5, r5, #1
 777:Middlewares/Third_Party/LwIP/src/apps/mqtt/mqtt.c ****         /* Send PUBACK for QoS 1 or PUBREC for QoS 2 */
 2130              		.loc 1 777 10 view .LVU591
 2131 012c 002D     		cmp	r5, #0
 2132 012e 6FD0     		beq	.L148
 2133              	.LBB6:
 779:Middlewares/Third_Party/LwIP/src/apps/mqtt/mqtt.c ****         LWIP_DEBUGF(MQTT_DEBUG_TRACE, ("mqtt_incoming_publish: Sending publish response: %s with pk
 2134              		.loc 1 779 9 is_stmt 1 view .LVU592
 779:Middlewares/Third_Party/LwIP/src/apps/mqtt/mqtt.c ****         LWIP_DEBUGF(MQTT_DEBUG_TRACE, ("mqtt_incoming_publish: Sending publish response: %s with pk
 2135              		.loc 1 779 14 is_stmt 0 view .LVU593
 2136 0130 012B     		cmp	r3, #1
 2137 0132 52D0     		beq	.L195
 779:Middlewares/Third_Party/LwIP/src/apps/mqtt/mqtt.c ****         LWIP_DEBUGF(MQTT_DEBUG_TRACE, ("mqtt_incoming_publish: Sending publish response: %s with pk
 2138              		.loc 1 779 14 discriminator 2 view .LVU594
 2139 0134 0521     		movs	r1, #5
 2140              	.L158:
 2141              	.LVL233:
 781:Middlewares/Third_Party/LwIP/src/apps/mqtt/mqtt.c ****         pub_ack_rec_rel_response(client, resp_msg, client->inpub_pkt_id, 0);
 2142              		.loc 1 781 94 is_stmt 1 view .LVU595
 782:Middlewares/Third_Party/LwIP/src/apps/mqtt/mqtt.c ****       }
 2143              		.loc 1 782 9 view .LVU596
 2144 0136 0023     		movs	r3, #0
 2145 0138 2289     		ldrh	r2, [r4, #8]
 2146 013a 2046     		mov	r0, r4
 2147 013c FFF7FEFF 		bl	pub_ack_rec_rel_response
 2148              	.LVL234:
 782:Middlewares/Third_Party/LwIP/src/apps/mqtt/mqtt.c ****       }
 2149              		.loc 1 782 9 is_stmt 0 view .LVU597
 2150              	.LBE6:
 2151              	.LBE5:
 674:Middlewares/Third_Party/LwIP/src/apps/mqtt/mqtt.c **** 
 2152              		.loc 1 674 28 view .LVU598
 2153 0140 0025     		movs	r5, #0
 2154 0142 65E0     		b	.L148
 2155              	.LVL235:
 2156              	.L194:
 2157              	.LBB9:
 2158              	.LBB7:
 715:Middlewares/Third_Party/LwIP/src/apps/mqtt/mqtt.c ****       u8_t *topic;
 2159              		.loc 1 715 7 is_stmt 1 view .LVU599
 715:Middlewares/Third_Party/LwIP/src/apps/mqtt/mqtt.c ****       u8_t *topic;
 2160              		.loc 1 715 14 is_stmt 0 view .LVU600
 2161 0144 C6F18006 		rsb	r6, r6, #128
 2162              	.LVL236:
 716:Middlewares/Third_Party/LwIP/src/apps/mqtt/mqtt.c ****       u16_t after_topic;
 2163              		.loc 1 716 7 is_stmt 1 view .LVU601
 717:Middlewares/Third_Party/LwIP/src/apps/mqtt/mqtt.c ****       u8_t bkp;
 2164              		.loc 1 717 7 view .LVU602
 718:Middlewares/Third_Party/LwIP/src/apps/mqtt/mqtt.c ****       u16_t topic_len;
 2165              		.loc 1 718 7 view .LVU603
 719:Middlewares/Third_Party/LwIP/src/apps/mqtt/mqtt.c ****       u16_t qos_len = (qos ? 2U : 0U);
 2166              		.loc 1 719 7 view .LVU604
 720:Middlewares/Third_Party/LwIP/src/apps/mqtt/mqtt.c ****       if (length < 2 + qos_len) {
 2167              		.loc 1 720 7 view .LVU605
 720:Middlewares/Third_Party/LwIP/src/apps/mqtt/mqtt.c ****       if (length < 2 + qos_len) {
 2168              		.loc 1 720 13 is_stmt 0 view .LVU606
ARM GAS  C:\Users\hh\AppData\Local\Temp\cc3qgJrr.s 			page 66


 2169 0148 4B46     		mov	r3, r9
 2170 014a 03B1     		cbz	r3, .L152
 720:Middlewares/Third_Party/LwIP/src/apps/mqtt/mqtt.c ****       if (length < 2 + qos_len) {
 2171              		.loc 1 720 13 discriminator 1 view .LVU607
 2172 014c 0223     		movs	r3, #2
 2173              	.L152:
 2174              	.LVL237:
 721:Middlewares/Third_Party/LwIP/src/apps/mqtt/mqtt.c ****         LWIP_DEBUGF(MQTT_DEBUG_WARN,( "mqtt_message_received: Received short PUBLISH packet\n"));
 2175              		.loc 1 721 7 is_stmt 1 view .LVU608
 721:Middlewares/Third_Party/LwIP/src/apps/mqtt/mqtt.c ****         LWIP_DEBUGF(MQTT_DEBUG_WARN,( "mqtt_message_received: Received short PUBLISH packet\n"));
 2176              		.loc 1 721 18 is_stmt 0 view .LVU609
 2177 014e 5A1C     		adds	r2, r3, #1
 721:Middlewares/Third_Party/LwIP/src/apps/mqtt/mqtt.c ****         LWIP_DEBUGF(MQTT_DEBUG_WARN,( "mqtt_message_received: Received short PUBLISH packet\n"));
 2178              		.loc 1 721 10 view .LVU610
 2179 0150 9742     		cmp	r7, r2
 2180 0152 66DD     		ble	.L171
 725:Middlewares/Third_Party/LwIP/src/apps/mqtt/mqtt.c ****       topic_len = (topic_len << 8) + (u16_t)(var_hdr_payload[1]);
 2181              		.loc 1 725 7 is_stmt 1 view .LVU611
 725:Middlewares/Third_Party/LwIP/src/apps/mqtt/mqtt.c ****       topic_len = (topic_len << 8) + (u16_t)(var_hdr_payload[1]);
 2182              		.loc 1 725 34 is_stmt 0 view .LVU612
 2183 0154 0C9A     		ldr	r2, [sp, #48]
 2184 0156 1178     		ldrb	r1, [r2]	@ zero_extendqisi2
 2185              	.LVL238:
 726:Middlewares/Third_Party/LwIP/src/apps/mqtt/mqtt.c ****       if ((topic_len > length - (2 + qos_len)) ||
 2186              		.loc 1 726 7 is_stmt 1 view .LVU613
 726:Middlewares/Third_Party/LwIP/src/apps/mqtt/mqtt.c ****       if ((topic_len > length - (2 + qos_len)) ||
 2187              		.loc 1 726 61 is_stmt 0 view .LVU614
 2188 0158 5278     		ldrb	r2, [r2, #1]	@ zero_extendqisi2
 726:Middlewares/Third_Party/LwIP/src/apps/mqtt/mqtt.c ****       if ((topic_len > length - (2 + qos_len)) ||
 2189              		.loc 1 726 17 view .LVU615
 2190 015a 02EB0122 		add	r2, r2, r1, lsl #8
 2191 015e 95B2     		uxth	r5, r2
 2192              	.LVL239:
 727:Middlewares/Third_Party/LwIP/src/apps/mqtt/mqtt.c ****           (topic_len > var_hdr_payload_bufsize - (2 + qos_len))) {
 2193              		.loc 1 727 7 is_stmt 1 view .LVU616
 727:Middlewares/Third_Party/LwIP/src/apps/mqtt/mqtt.c ****           (topic_len > var_hdr_payload_bufsize - (2 + qos_len))) {
 2194              		.loc 1 727 36 is_stmt 0 view .LVU617
 2195 0160 9A1C     		adds	r2, r3, #2
 727:Middlewares/Third_Party/LwIP/src/apps/mqtt/mqtt.c ****           (topic_len > var_hdr_payload_bufsize - (2 + qos_len))) {
 2196              		.loc 1 727 31 view .LVU618
 2197 0162 BA1A     		subs	r2, r7, r2
 727:Middlewares/Third_Party/LwIP/src/apps/mqtt/mqtt.c ****           (topic_len > var_hdr_payload_bufsize - (2 + qos_len))) {
 2198              		.loc 1 727 10 view .LVU619
 2199 0164 9542     		cmp	r5, r2
 2200 0166 5FDC     		bgt	.L172
 728:Middlewares/Third_Party/LwIP/src/apps/mqtt/mqtt.c ****         LWIP_DEBUGF(MQTT_DEBUG_WARN,( "mqtt_message_received: Received short PUBLISH packet (topic)
 2201              		.loc 1 728 48 view .LVU620
 2202 0168 F31A     		subs	r3, r6, r3
 2203              	.LVL240:
 728:Middlewares/Third_Party/LwIP/src/apps/mqtt/mqtt.c ****         LWIP_DEBUGF(MQTT_DEBUG_WARN,( "mqtt_message_received: Received short PUBLISH packet (topic)
 2204              		.loc 1 728 48 view .LVU621
 2205 016a 023B     		subs	r3, r3, #2
 727:Middlewares/Third_Party/LwIP/src/apps/mqtt/mqtt.c ****           (topic_len > var_hdr_payload_bufsize - (2 + qos_len))) {
 2206              		.loc 1 727 48 discriminator 1 view .LVU622
 2207 016c 9D42     		cmp	r5, r3
 2208 016e 5ED8     		bhi	.L173
 733:Middlewares/Third_Party/LwIP/src/apps/mqtt/mqtt.c ****       after_topic = 2 + topic_len;
ARM GAS  C:\Users\hh\AppData\Local\Temp\cc3qgJrr.s 			page 67


 2209              		.loc 1 733 7 is_stmt 1 view .LVU623
 733:Middlewares/Third_Party/LwIP/src/apps/mqtt/mqtt.c ****       after_topic = 2 + topic_len;
 2210              		.loc 1 733 13 is_stmt 0 view .LVU624
 2211 0170 0C9B     		ldr	r3, [sp, #48]
 2212 0172 0233     		adds	r3, r3, #2
 2213 0174 9B46     		mov	fp, r3
 2214              	.LVL241:
 734:Middlewares/Third_Party/LwIP/src/apps/mqtt/mqtt.c ****       /* Check buffer length, add one byte even for QoS 0 so that zero termination will fit */
 2215              		.loc 1 734 7 is_stmt 1 view .LVU625
 734:Middlewares/Third_Party/LwIP/src/apps/mqtt/mqtt.c ****       /* Check buffer length, add one byte even for QoS 0 so that zero termination will fit */
 2216              		.loc 1 734 19 is_stmt 0 view .LVU626
 2217 0176 AB1C     		adds	r3, r5, #2
 2218              	.LVL242:
 734:Middlewares/Third_Party/LwIP/src/apps/mqtt/mqtt.c ****       /* Check buffer length, add one byte even for QoS 0 so that zero termination will fit */
 2219              		.loc 1 734 19 view .LVU627
 2220 0178 9BB2     		uxth	r3, r3
 2221 017a 9A46     		mov	r10, r3
 2222              	.LVL243:
 736:Middlewares/Third_Party/LwIP/src/apps/mqtt/mqtt.c ****         LWIP_DEBUGF(MQTT_DEBUG_WARN, ("mqtt_message_received: Receive buffer can not fit topic + pk
 2223              		.loc 1 736 7 is_stmt 1 view .LVU628
 736:Middlewares/Third_Party/LwIP/src/apps/mqtt/mqtt.c ****         LWIP_DEBUGF(MQTT_DEBUG_WARN, ("mqtt_message_received: Receive buffer can not fit topic + pk
 2224              		.loc 1 736 24 is_stmt 0 view .LVU629
 2225 017c 1A46     		mov	r2, r3
 736:Middlewares/Third_Party/LwIP/src/apps/mqtt/mqtt.c ****         LWIP_DEBUGF(MQTT_DEBUG_WARN, ("mqtt_message_received: Receive buffer can not fit topic + pk
 2226              		.loc 1 736 36 view .LVU630
 2227 017e 4B46     		mov	r3, r9
 2228              	.LVL244:
 736:Middlewares/Third_Party/LwIP/src/apps/mqtt/mqtt.c ****         LWIP_DEBUGF(MQTT_DEBUG_WARN, ("mqtt_message_received: Receive buffer can not fit topic + pk
 2229              		.loc 1 736 36 view .LVU631
 2230 0180 9BB1     		cbz	r3, .L174
 736:Middlewares/Third_Party/LwIP/src/apps/mqtt/mqtt.c ****         LWIP_DEBUGF(MQTT_DEBUG_WARN, ("mqtt_message_received: Receive buffer can not fit topic + pk
 2231              		.loc 1 736 36 discriminator 1 view .LVU632
 2232 0182 0223     		movs	r3, #2
 2233              	.L153:
 736:Middlewares/Third_Party/LwIP/src/apps/mqtt/mqtt.c ****         LWIP_DEBUGF(MQTT_DEBUG_WARN, ("mqtt_message_received: Receive buffer can not fit topic + pk
 2234              		.loc 1 736 24 discriminator 4 view .LVU633
 2235 0184 1344     		add	r3, r3, r2
 736:Middlewares/Third_Party/LwIP/src/apps/mqtt/mqtt.c ****         LWIP_DEBUGF(MQTT_DEBUG_WARN, ("mqtt_message_received: Receive buffer can not fit topic + pk
 2236              		.loc 1 736 10 discriminator 4 view .LVU634
 2237 0186 B342     		cmp	r3, r6
 2238 0188 54D8     		bhi	.L175
 742:Middlewares/Third_Party/LwIP/src/apps/mqtt/mqtt.c ****         if (length < after_topic + 2U) {
 2239              		.loc 1 742 7 is_stmt 1 view .LVU635
 742:Middlewares/Third_Party/LwIP/src/apps/mqtt/mqtt.c ****         if (length < after_topic + 2U) {
 2240              		.loc 1 742 10 is_stmt 0 view .LVU636
 2241 018a 4B46     		mov	r3, r9
 2242 018c 7BB1     		cbz	r3, .L154
 743:Middlewares/Third_Party/LwIP/src/apps/mqtt/mqtt.c ****           LWIP_DEBUGF(MQTT_DEBUG_WARN,( "mqtt_message_received: Received short PUBLISH packet (afte
 2243              		.loc 1 743 9 is_stmt 1 view .LVU637
 743:Middlewares/Third_Party/LwIP/src/apps/mqtt/mqtt.c ****           LWIP_DEBUGF(MQTT_DEBUG_WARN,( "mqtt_message_received: Received short PUBLISH packet (afte
 2244              		.loc 1 743 34 is_stmt 0 view .LVU638
 2245 018e 931C     		adds	r3, r2, #2
 743:Middlewares/Third_Party/LwIP/src/apps/mqtt/mqtt.c ****           LWIP_DEBUGF(MQTT_DEBUG_WARN,( "mqtt_message_received: Received short PUBLISH packet (afte
 2246              		.loc 1 743 12 view .LVU639
 2247 0190 9F42     		cmp	r7, r3
 2248 0192 52D3     		bcc	.L176
 747:Middlewares/Third_Party/LwIP/src/apps/mqtt/mqtt.c ****         after_topic += 2;
ARM GAS  C:\Users\hh\AppData\Local\Temp\cc3qgJrr.s 			page 68


 2249              		.loc 1 747 9 is_stmt 1 view .LVU640
 747:Middlewares/Third_Party/LwIP/src/apps/mqtt/mqtt.c ****         after_topic += 2;
 2250              		.loc 1 747 55 is_stmt 0 view .LVU641
 2251 0194 0C9B     		ldr	r3, [sp, #48]
 2252 0196 995C     		ldrb	r1, [r3, r2]	@ zero_extendqisi2
 747:Middlewares/Third_Party/LwIP/src/apps/mqtt/mqtt.c ****         after_topic += 2;
 2253              		.loc 1 747 112 view .LVU642
 2254 0198 0132     		adds	r2, r2, #1
 2255              	.LVL245:
 747:Middlewares/Third_Party/LwIP/src/apps/mqtt/mqtt.c ****         after_topic += 2;
 2256              		.loc 1 747 99 view .LVU643
 2257 019a 9B5C     		ldrb	r3, [r3, r2]	@ zero_extendqisi2
 747:Middlewares/Third_Party/LwIP/src/apps/mqtt/mqtt.c ****         after_topic += 2;
 2258              		.loc 1 747 75 view .LVU644
 2259 019c 03EB0123 		add	r3, r3, r1, lsl #8
 747:Middlewares/Third_Party/LwIP/src/apps/mqtt/mqtt.c ****         after_topic += 2;
 2260              		.loc 1 747 30 view .LVU645
 2261 01a0 2381     		strh	r3, [r4, #8]	@ movhi
 748:Middlewares/Third_Party/LwIP/src/apps/mqtt/mqtt.c ****       } else {
 2262              		.loc 1 748 9 is_stmt 1 view .LVU646
 748:Middlewares/Third_Party/LwIP/src/apps/mqtt/mqtt.c ****       } else {
 2263              		.loc 1 748 21 is_stmt 0 view .LVU647
 2264 01a2 2B1D     		adds	r3, r5, #4
 2265 01a4 9BB2     		uxth	r3, r3
 2266 01a6 9A46     		mov	r10, r3
 2267              	.LVL246:
 748:Middlewares/Third_Party/LwIP/src/apps/mqtt/mqtt.c ****       } else {
 2268              		.loc 1 748 21 view .LVU648
 2269 01a8 03E0     		b	.L155
 2270              	.LVL247:
 2271              	.L174:
 736:Middlewares/Third_Party/LwIP/src/apps/mqtt/mqtt.c ****         LWIP_DEBUGF(MQTT_DEBUG_WARN, ("mqtt_message_received: Receive buffer can not fit topic + pk
 2272              		.loc 1 736 36 discriminator 2 view .LVU649
 2273 01aa 0123     		movs	r3, #1
 2274 01ac EAE7     		b	.L153
 2275              	.L154:
 750:Middlewares/Third_Party/LwIP/src/apps/mqtt/mqtt.c ****       }
 2276              		.loc 1 750 9 is_stmt 1 view .LVU650
 750:Middlewares/Third_Party/LwIP/src/apps/mqtt/mqtt.c ****       }
 2277              		.loc 1 750 30 is_stmt 0 view .LVU651
 2278 01ae A4F80890 		strh	r9, [r4, #8]	@ movhi
 2279              	.LVL248:
 2280              	.L155:
 753:Middlewares/Third_Party/LwIP/src/apps/mqtt/mqtt.c ****       /* Zero terminate string */
 2281              		.loc 1 753 7 is_stmt 1 view .LVU652
 753:Middlewares/Third_Party/LwIP/src/apps/mqtt/mqtt.c ****       /* Zero terminate string */
 2282              		.loc 1 753 11 is_stmt 0 view .LVU653
 2283 01b2 5946     		mov	r1, fp
 2284 01b4 1BF80530 		ldrb	r3, [fp, r5]	@ zero_extendqisi2
 2285 01b8 0193     		str	r3, [sp, #4]
 2286              	.LVL249:
 755:Middlewares/Third_Party/LwIP/src/apps/mqtt/mqtt.c ****       /* Payload data remaining in receive buffer */
 2287              		.loc 1 755 7 is_stmt 1 view .LVU654
 755:Middlewares/Third_Party/LwIP/src/apps/mqtt/mqtt.c ****       /* Payload data remaining in receive buffer */
 2288              		.loc 1 755 24 is_stmt 0 view .LVU655
 2289 01ba 0023     		movs	r3, #0
 2290 01bc 0BF80530 		strb	r3, [fp, r5]
ARM GAS  C:\Users\hh\AppData\Local\Temp\cc3qgJrr.s 			page 69


 757:Middlewares/Third_Party/LwIP/src/apps/mqtt/mqtt.c ****       payload_offset = after_topic;
 2291              		.loc 1 757 7 is_stmt 1 view .LVU656
 757:Middlewares/Third_Party/LwIP/src/apps/mqtt/mqtt.c ****       payload_offset = after_topic;
 2292              		.loc 1 757 22 is_stmt 0 view .LVU657
 2293 01c0 5246     		mov	r2, r10
 2294 01c2 BB1A     		subs	r3, r7, r2
 2295 01c4 9EB2     		uxth	r6, r3
 2296              	.LVL250:
 758:Middlewares/Third_Party/LwIP/src/apps/mqtt/mqtt.c **** 
 2297              		.loc 1 758 7 is_stmt 1 view .LVU658
 761:Middlewares/Third_Party/LwIP/src/apps/mqtt/mqtt.c ****       if (client->pub_cb != NULL) {
 2298              		.loc 1 761 85 view .LVU659
 762:Middlewares/Third_Party/LwIP/src/apps/mqtt/mqtt.c ****         client->pub_cb(client->inpub_arg, (const char *)topic, remaining_length + payload_length);
 2299              		.loc 1 762 7 view .LVU660
 762:Middlewares/Third_Party/LwIP/src/apps/mqtt/mqtt.c ****         client->pub_cb(client->inpub_arg, (const char *)topic, remaining_length + payload_length);
 2300              		.loc 1 762 17 is_stmt 0 view .LVU661
 2301 01c6 636E     		ldr	r3, [r4, #100]
 762:Middlewares/Third_Party/LwIP/src/apps/mqtt/mqtt.c ****         client->pub_cb(client->inpub_arg, (const char *)topic, remaining_length + payload_length);
 2302              		.loc 1 762 10 view .LVU662
 2303 01c8 1BB1     		cbz	r3, .L156
 2304              	.LVL251:
 763:Middlewares/Third_Party/LwIP/src/apps/mqtt/mqtt.c ****       }
 2305              		.loc 1 763 9 is_stmt 1 view .LVU663
 2306 01ca 4246     		mov	r2, r8
 2307 01cc B218     		adds	r2, r6, r2
 2308 01ce E06D     		ldr	r0, [r4, #92]
 2309 01d0 9847     		blx	r3
 2310              	.LVL252:
 2311              	.L156:
 766:Middlewares/Third_Party/LwIP/src/apps/mqtt/mqtt.c ****     }
 2312              		.loc 1 766 7 view .LVU664
 766:Middlewares/Third_Party/LwIP/src/apps/mqtt/mqtt.c ****     }
 2313              		.loc 1 766 24 is_stmt 0 view .LVU665
 2314 01d2 019A     		ldr	r2, [sp, #4]
 2315 01d4 0BF80520 		strb	r2, [fp, r5]
 2316 01d8 89E7     		b	.L151
 2317              	.LVL253:
 2318              	.L195:
 766:Middlewares/Third_Party/LwIP/src/apps/mqtt/mqtt.c ****     }
 2319              		.loc 1 766 24 view .LVU666
 2320              	.LBE7:
 2321              	.LBB8:
 779:Middlewares/Third_Party/LwIP/src/apps/mqtt/mqtt.c ****         LWIP_DEBUGF(MQTT_DEBUG_TRACE, ("mqtt_incoming_publish: Sending publish response: %s with pk
 2322              		.loc 1 779 14 discriminator 1 view .LVU667
 2323 01da 0421     		movs	r1, #4
 2324 01dc ABE7     		b	.L158
 2325              	.LVL254:
 2326              	.L190:
 779:Middlewares/Third_Party/LwIP/src/apps/mqtt/mqtt.c ****         LWIP_DEBUGF(MQTT_DEBUG_TRACE, ("mqtt_incoming_publish: Sending publish response: %s with pk
 2327              		.loc 1 779 14 discriminator 1 view .LVU668
 2328              	.LBE8:
 2329              	.LBE9:
 798:Middlewares/Third_Party/LwIP/src/apps/mqtt/mqtt.c ****       pub_ack_rec_rel_response(client, MQTT_MSG_TYPE_PUBREL, pkt_id, 1);
 2330              		.loc 1 798 113 is_stmt 1 view .LVU669
 799:Middlewares/Third_Party/LwIP/src/apps/mqtt/mqtt.c **** 
 2331              		.loc 1 799 7 view .LVU670
 2332 01de 0123     		movs	r3, #1
ARM GAS  C:\Users\hh\AppData\Local\Temp\cc3qgJrr.s 			page 70


 2333 01e0 0A46     		mov	r2, r1
 2334 01e2 0621     		movs	r1, #6
 2335              	.LVL255:
 799:Middlewares/Third_Party/LwIP/src/apps/mqtt/mqtt.c **** 
 2336              		.loc 1 799 7 is_stmt 0 view .LVU671
 2337 01e4 2046     		mov	r0, r4
 2338 01e6 FFF7FEFF 		bl	pub_ack_rec_rel_response
 2339              	.LVL256:
 674:Middlewares/Third_Party/LwIP/src/apps/mqtt/mqtt.c **** 
 2340              		.loc 1 674 28 view .LVU672
 2341 01ea 0025     		movs	r5, #0
 2342              	.LVL257:
 674:Middlewares/Third_Party/LwIP/src/apps/mqtt/mqtt.c **** 
 2343              		.loc 1 674 28 view .LVU673
 2344 01ec 10E0     		b	.L148
 2345              	.LVL258:
 2346              	.L191:
 802:Middlewares/Third_Party/LwIP/src/apps/mqtt/mqtt.c ****       pub_ack_rec_rel_response(client, MQTT_MSG_TYPE_PUBCOMP, pkt_id, 0);
 2347              		.loc 1 802 123 is_stmt 1 view .LVU674
 803:Middlewares/Third_Party/LwIP/src/apps/mqtt/mqtt.c **** 
 2348              		.loc 1 803 7 view .LVU675
 2349 01ee 0023     		movs	r3, #0
 2350 01f0 0A46     		mov	r2, r1
 2351 01f2 0721     		movs	r1, #7
 2352              	.LVL259:
 803:Middlewares/Third_Party/LwIP/src/apps/mqtt/mqtt.c **** 
 2353              		.loc 1 803 7 is_stmt 0 view .LVU676
 2354 01f4 2046     		mov	r0, r4
 2355 01f6 FFF7FEFF 		bl	pub_ack_rec_rel_response
 2356              	.LVL260:
 674:Middlewares/Third_Party/LwIP/src/apps/mqtt/mqtt.c **** 
 2357              		.loc 1 674 28 view .LVU677
 2358 01fa 0025     		movs	r5, #0
 2359              	.LVL261:
 674:Middlewares/Third_Party/LwIP/src/apps/mqtt/mqtt.c **** 
 2360              		.loc 1 674 28 view .LVU678
 2361 01fc 08E0     		b	.L148
 2362              	.LVL262:
 2363              	.L192:
 2364              	.LBB10:
 811:Middlewares/Third_Party/LwIP/src/apps/mqtt/mqtt.c ****             LWIP_DEBUGF(MQTT_DEBUG_WARN, ("mqtt_message_received: To small SUBACK packet\n"));
 2365              		.loc 1 811 11 is_stmt 1 view .LVU679
 811:Middlewares/Third_Party/LwIP/src/apps/mqtt/mqtt.c ****             LWIP_DEBUGF(MQTT_DEBUG_WARN, ("mqtt_message_received: To small SUBACK packet\n"));
 2366              		.loc 1 811 14 is_stmt 0 view .LVU680
 2367 01fe 022F     		cmp	r7, #2
 2368 0200 2ED9     		bls	.L185
 815:Middlewares/Third_Party/LwIP/src/apps/mqtt/mqtt.c ****           }
 2369              		.loc 1 815 13 is_stmt 1 view .LVU681
 2370 0202 0C9B     		ldr	r3, [sp, #48]
 2371 0204 9978     		ldrb	r1, [r3, #2]	@ zero_extendqisi2
 2372 0206 FFF7FEFF 		bl	mqtt_incoming_suback
 2373              	.LVL263:
 815:Middlewares/Third_Party/LwIP/src/apps/mqtt/mqtt.c ****           }
 2374              		.loc 1 815 13 is_stmt 0 view .LVU682
 2375 020a 3FE7     		b	.L164
 2376              	.LVL264:
 2377              	.L165:
ARM GAS  C:\Users\hh\AppData\Local\Temp\cc3qgJrr.s 			page 71


 815:Middlewares/Third_Party/LwIP/src/apps/mqtt/mqtt.c ****           }
 2378              		.loc 1 815 13 view .LVU683
 2379              	.LBE10:
 681:Middlewares/Third_Party/LwIP/src/apps/mqtt/mqtt.c ****              return MQTT_CONNECT_DISCONNECTED);
 2380              		.loc 1 681 3 discriminator 1 view .LVU684
 2381 020c 4FF48075 		mov	r5, #256
 2382              	.LVL265:
 2383              	.L148:
 832:Middlewares/Third_Party/LwIP/src/apps/mqtt/mqtt.c **** 
 2384              		.loc 1 832 1 view .LVU685
 2385 0210 2846     		mov	r0, r5
 2386 0212 03B0     		add	sp, sp, #12
 2387              	.LCFI23:
 2388              		.cfi_remember_state
 2389              		.cfi_def_cfa_offset 36
 2390              		@ sp needed
 2391 0214 BDE8F08F 		pop	{r4, r5, r6, r7, r8, r9, r10, fp, pc}
 2392              	.LVL266:
 2393              	.L167:
 2394              	.LCFI24:
 2395              		.cfi_restore_state
 831:Middlewares/Third_Party/LwIP/src/apps/mqtt/mqtt.c **** }
 2396              		.loc 1 831 10 view .LVU686
 2397 0218 4FF48075 		mov	r5, #256
 2398              	.LVL267:
 831:Middlewares/Third_Party/LwIP/src/apps/mqtt/mqtt.c **** }
 2399              		.loc 1 831 10 view .LVU687
 2400 021c F8E7     		b	.L148
 2401              	.LVL268:
 2402              	.L168:
 674:Middlewares/Third_Party/LwIP/src/apps/mqtt/mqtt.c **** 
 2403              		.loc 1 674 28 view .LVU688
 2404 021e 0025     		movs	r5, #0
 2405              	.LVL269:
 674:Middlewares/Third_Party/LwIP/src/apps/mqtt/mqtt.c **** 
 2406              		.loc 1 674 28 view .LVU689
 2407 0220 F6E7     		b	.L148
 2408              	.LVL270:
 2409              	.L171:
 831:Middlewares/Third_Party/LwIP/src/apps/mqtt/mqtt.c **** }
 2410              		.loc 1 831 10 view .LVU690
 2411 0222 4FF48075 		mov	r5, #256
 2412              	.LVL271:
 831:Middlewares/Third_Party/LwIP/src/apps/mqtt/mqtt.c **** }
 2413              		.loc 1 831 10 view .LVU691
 2414 0226 F3E7     		b	.L148
 2415              	.LVL272:
 2416              	.L172:
 831:Middlewares/Third_Party/LwIP/src/apps/mqtt/mqtt.c **** }
 2417              		.loc 1 831 10 view .LVU692
 2418 0228 4FF48075 		mov	r5, #256
 2419              	.LVL273:
 831:Middlewares/Third_Party/LwIP/src/apps/mqtt/mqtt.c **** }
 2420              		.loc 1 831 10 view .LVU693
 2421 022c F0E7     		b	.L148
 2422              	.LVL274:
 2423              	.L173:
ARM GAS  C:\Users\hh\AppData\Local\Temp\cc3qgJrr.s 			page 72


 831:Middlewares/Third_Party/LwIP/src/apps/mqtt/mqtt.c **** }
 2424              		.loc 1 831 10 view .LVU694
 2425 022e 4FF48075 		mov	r5, #256
 2426              	.LVL275:
 831:Middlewares/Third_Party/LwIP/src/apps/mqtt/mqtt.c **** }
 2427              		.loc 1 831 10 view .LVU695
 2428 0232 EDE7     		b	.L148
 2429              	.LVL276:
 2430              	.L175:
 831:Middlewares/Third_Party/LwIP/src/apps/mqtt/mqtt.c **** }
 2431              		.loc 1 831 10 view .LVU696
 2432 0234 4FF48075 		mov	r5, #256
 2433              	.LVL277:
 831:Middlewares/Third_Party/LwIP/src/apps/mqtt/mqtt.c **** }
 2434              		.loc 1 831 10 view .LVU697
 2435 0238 EAE7     		b	.L148
 2436              	.LVL278:
 2437              	.L176:
 831:Middlewares/Third_Party/LwIP/src/apps/mqtt/mqtt.c **** }
 2438              		.loc 1 831 10 view .LVU698
 2439 023a 4FF48075 		mov	r5, #256
 2440              	.LVL279:
 831:Middlewares/Third_Party/LwIP/src/apps/mqtt/mqtt.c **** }
 2441              		.loc 1 831 10 view .LVU699
 2442 023e E7E7     		b	.L148
 2443              	.LVL280:
 2444              	.L177:
 674:Middlewares/Third_Party/LwIP/src/apps/mqtt/mqtt.c **** 
 2445              		.loc 1 674 28 view .LVU700
 2446 0240 1D46     		mov	r5, r3
 2447 0242 E5E7     		b	.L148
 2448              	.L178:
 831:Middlewares/Third_Party/LwIP/src/apps/mqtt/mqtt.c **** }
 2449              		.loc 1 831 10 view .LVU701
 2450 0244 4FF48075 		mov	r5, #256
 2451 0248 E2E7     		b	.L148
 2452              	.LVL281:
 2453              	.L181:
 831:Middlewares/Third_Party/LwIP/src/apps/mqtt/mqtt.c **** }
 2454              		.loc 1 831 10 view .LVU702
 2455 024a 4FF48075 		mov	r5, #256
 2456              	.LVL282:
 831:Middlewares/Third_Party/LwIP/src/apps/mqtt/mqtt.c **** }
 2457              		.loc 1 831 10 view .LVU703
 2458 024e DFE7     		b	.L148
 2459              	.LVL283:
 2460              	.L182:
 831:Middlewares/Third_Party/LwIP/src/apps/mqtt/mqtt.c **** }
 2461              		.loc 1 831 10 view .LVU704
 2462 0250 4FF48075 		mov	r5, #256
 2463              	.LVL284:
 831:Middlewares/Third_Party/LwIP/src/apps/mqtt/mqtt.c **** }
 2464              		.loc 1 831 10 view .LVU705
 2465 0254 DCE7     		b	.L148
 2466              	.LVL285:
 2467              	.L183:
 831:Middlewares/Third_Party/LwIP/src/apps/mqtt/mqtt.c **** }
ARM GAS  C:\Users\hh\AppData\Local\Temp\cc3qgJrr.s 			page 73


 2468              		.loc 1 831 10 view .LVU706
 2469 0256 4FF48075 		mov	r5, #256
 2470              	.LVL286:
 831:Middlewares/Third_Party/LwIP/src/apps/mqtt/mqtt.c **** }
 2471              		.loc 1 831 10 view .LVU707
 2472 025a D9E7     		b	.L148
 2473              	.LVL287:
 2474              	.L184:
 674:Middlewares/Third_Party/LwIP/src/apps/mqtt/mqtt.c **** 
 2475              		.loc 1 674 28 view .LVU708
 2476 025c 0546     		mov	r5, r0
 2477              	.LVL288:
 674:Middlewares/Third_Party/LwIP/src/apps/mqtt/mqtt.c **** 
 2478              		.loc 1 674 28 view .LVU709
 2479 025e D7E7     		b	.L148
 2480              	.LVL289:
 2481              	.L185:
 831:Middlewares/Third_Party/LwIP/src/apps/mqtt/mqtt.c **** }
 2482              		.loc 1 831 10 view .LVU710
 2483 0260 4FF48075 		mov	r5, #256
 2484              	.LVL290:
 831:Middlewares/Third_Party/LwIP/src/apps/mqtt/mqtt.c **** }
 2485              		.loc 1 831 10 view .LVU711
 2486 0264 D4E7     		b	.L148
 2487              	.L197:
 2488 0266 00BF     		.align	2
 2489              	.L196:
 2490 0268 00000000 		.word	.LC0
 2491 026c 00000000 		.word	.LC11
 2492 0270 58000000 		.word	.LC2
 2493              		.cfi_endproc
 2494              	.LFE195:
 2496              		.section	.rodata.mqtt_close.str1.4,"aMS",%progbits,1
 2497              		.align	2
 2498              	.LC12:
 2499 0000 6D717474 		.ascii	"mqtt_close: client != NULL\000"
 2499      5F636C6F 
 2499      73653A20 
 2499      636C6965 
 2499      6E742021 
 2500              		.section	.text.mqtt_close,"ax",%progbits
 2501              		.align	1
 2502              		.syntax unified
 2503              		.thumb
 2504              		.thumb_func
 2506              	mqtt_close:
 2507              	.LVL291:
 2508              	.LFB191:
 538:Middlewares/Third_Party/LwIP/src/apps/mqtt/mqtt.c ****   LWIP_ASSERT("mqtt_close: client != NULL", client != NULL);
 2509              		.loc 1 538 1 is_stmt 1 view -0
 2510              		.cfi_startproc
 2511              		@ args = 0, pretend = 0, frame = 0
 2512              		@ frame_needed = 0, uses_anonymous_args = 0
 538:Middlewares/Third_Party/LwIP/src/apps/mqtt/mqtt.c ****   LWIP_ASSERT("mqtt_close: client != NULL", client != NULL);
 2513              		.loc 1 538 1 is_stmt 0 view .LVU713
 2514 0000 38B5     		push	{r3, r4, r5, lr}
 2515              	.LCFI25:
ARM GAS  C:\Users\hh\AppData\Local\Temp\cc3qgJrr.s 			page 74


 2516              		.cfi_def_cfa_offset 16
 2517              		.cfi_offset 3, -16
 2518              		.cfi_offset 4, -12
 2519              		.cfi_offset 5, -8
 2520              		.cfi_offset 14, -4
 2521 0002 0D46     		mov	r5, r1
 539:Middlewares/Third_Party/LwIP/src/apps/mqtt/mqtt.c **** 
 2522              		.loc 1 539 3 is_stmt 1 view .LVU714
 539:Middlewares/Third_Party/LwIP/src/apps/mqtt/mqtt.c **** 
 2523              		.loc 1 539 3 view .LVU715
 2524 0004 0446     		mov	r4, r0
 2525 0006 28B3     		cbz	r0, .L204
 2526              	.LVL292:
 2527              	.L199:
 539:Middlewares/Third_Party/LwIP/src/apps/mqtt/mqtt.c **** 
 2528              		.loc 1 539 3 view .LVU716
 539:Middlewares/Third_Party/LwIP/src/apps/mqtt/mqtt.c **** 
 2529              		.loc 1 539 3 view .LVU717
 542:Middlewares/Third_Party/LwIP/src/apps/mqtt/mqtt.c ****     err_t res;
 2530              		.loc 1 542 3 view .LVU718
 542:Middlewares/Third_Party/LwIP/src/apps/mqtt/mqtt.c ****     err_t res;
 2531              		.loc 1 542 13 is_stmt 0 view .LVU719
 2532 0008 E068     		ldr	r0, [r4, #12]
 542:Middlewares/Third_Party/LwIP/src/apps/mqtt/mqtt.c ****     err_t res;
 2533              		.loc 1 542 6 view .LVU720
 2534 000a 80B1     		cbz	r0, .L200
 2535              	.LBB11:
 543:Middlewares/Third_Party/LwIP/src/apps/mqtt/mqtt.c ****     altcp_recv(client->conn, NULL);
 2536              		.loc 1 543 5 is_stmt 1 view .LVU721
 544:Middlewares/Third_Party/LwIP/src/apps/mqtt/mqtt.c ****     altcp_err(client->conn,  NULL);
 2537              		.loc 1 544 5 view .LVU722
 2538 000c 0021     		movs	r1, #0
 2539 000e FFF7FEFF 		bl	tcp_recv
 2540              	.LVL293:
 545:Middlewares/Third_Party/LwIP/src/apps/mqtt/mqtt.c ****     altcp_sent(client->conn, NULL);
 2541              		.loc 1 545 5 view .LVU723
 2542 0012 0021     		movs	r1, #0
 2543 0014 E068     		ldr	r0, [r4, #12]
 2544 0016 FFF7FEFF 		bl	tcp_err
 2545              	.LVL294:
 546:Middlewares/Third_Party/LwIP/src/apps/mqtt/mqtt.c ****     res = altcp_close(client->conn);
 2546              		.loc 1 546 5 view .LVU724
 2547 001a 0021     		movs	r1, #0
 2548 001c E068     		ldr	r0, [r4, #12]
 2549 001e FFF7FEFF 		bl	tcp_sent
 2550              	.LVL295:
 547:Middlewares/Third_Party/LwIP/src/apps/mqtt/mqtt.c ****     if (res != ERR_OK) {
 2551              		.loc 1 547 5 view .LVU725
 547:Middlewares/Third_Party/LwIP/src/apps/mqtt/mqtt.c ****     if (res != ERR_OK) {
 2552              		.loc 1 547 11 is_stmt 0 view .LVU726
 2553 0022 E068     		ldr	r0, [r4, #12]
 2554 0024 FFF7FEFF 		bl	tcp_close
 2555              	.LVL296:
 548:Middlewares/Third_Party/LwIP/src/apps/mqtt/mqtt.c ****       altcp_abort(client->conn);
 2556              		.loc 1 548 5 is_stmt 1 view .LVU727
 548:Middlewares/Third_Party/LwIP/src/apps/mqtt/mqtt.c ****       altcp_abort(client->conn);
 2557              		.loc 1 548 8 is_stmt 0 view .LVU728
ARM GAS  C:\Users\hh\AppData\Local\Temp\cc3qgJrr.s 			page 75


 2558 0028 E0B9     		cbnz	r0, .L205
 2559              	.LVL297:
 2560              	.L201:
 550:Middlewares/Third_Party/LwIP/src/apps/mqtt/mqtt.c ****     }
 2561              		.loc 1 550 86 is_stmt 1 view .LVU729
 552:Middlewares/Third_Party/LwIP/src/apps/mqtt/mqtt.c ****   }
 2562              		.loc 1 552 5 view .LVU730
 552:Middlewares/Third_Party/LwIP/src/apps/mqtt/mqtt.c ****   }
 2563              		.loc 1 552 18 is_stmt 0 view .LVU731
 2564 002a 0023     		movs	r3, #0
 2565 002c E360     		str	r3, [r4, #12]
 2566              	.LVL298:
 2567              	.L200:
 552:Middlewares/Third_Party/LwIP/src/apps/mqtt/mqtt.c ****   }
 2568              		.loc 1 552 18 view .LVU732
 2569              	.LBE11:
 556:Middlewares/Third_Party/LwIP/src/apps/mqtt/mqtt.c ****   /* Stop cyclic timer */
 2570              		.loc 1 556 3 is_stmt 1 view .LVU733
 2571 002e 04F11800 		add	r0, r4, #24
 2572 0032 FFF7FEFF 		bl	mqtt_clear_requests
 2573              	.LVL299:
 558:Middlewares/Third_Party/LwIP/src/apps/mqtt/mqtt.c **** 
 2574              		.loc 1 558 3 view .LVU734
 2575 0036 2146     		mov	r1, r4
 2576 0038 0C48     		ldr	r0, .L206
 2577 003a FFF7FEFF 		bl	sys_untimeout
 2578              	.LVL300:
 561:Middlewares/Third_Party/LwIP/src/apps/mqtt/mqtt.c **** 
 2579              		.loc 1 561 3 view .LVU735
 561:Middlewares/Third_Party/LwIP/src/apps/mqtt/mqtt.c **** 
 2580              		.loc 1 561 13 is_stmt 0 view .LVU736
 2581 003e A37A     		ldrb	r3, [r4, #10]	@ zero_extendqisi2
 561:Middlewares/Third_Party/LwIP/src/apps/mqtt/mqtt.c **** 
 2582              		.loc 1 561 6 view .LVU737
 2583 0040 3BB1     		cbz	r3, .L198
 563:Middlewares/Third_Party/LwIP/src/apps/mqtt/mqtt.c ****     if (client->connect_cb != NULL) {
 2584              		.loc 1 563 5 is_stmt 1 view .LVU738
 563:Middlewares/Third_Party/LwIP/src/apps/mqtt/mqtt.c ****     if (client->connect_cb != NULL) {
 2585              		.loc 1 563 24 is_stmt 0 view .LVU739
 2586 0042 0023     		movs	r3, #0
 2587 0044 A372     		strb	r3, [r4, #10]
 564:Middlewares/Third_Party/LwIP/src/apps/mqtt/mqtt.c ****       client->connect_cb(client, client->connect_arg, reason);
 2588              		.loc 1 564 5 is_stmt 1 view .LVU740
 564:Middlewares/Third_Party/LwIP/src/apps/mqtt/mqtt.c ****       client->connect_cb(client, client->connect_arg, reason);
 2589              		.loc 1 564 15 is_stmt 0 view .LVU741
 2590 0046 6369     		ldr	r3, [r4, #20]
 564:Middlewares/Third_Party/LwIP/src/apps/mqtt/mqtt.c ****       client->connect_cb(client, client->connect_arg, reason);
 2591              		.loc 1 564 8 view .LVU742
 2592 0048 1BB1     		cbz	r3, .L198
 565:Middlewares/Third_Party/LwIP/src/apps/mqtt/mqtt.c ****     }
 2593              		.loc 1 565 7 is_stmt 1 view .LVU743
 2594 004a 2A46     		mov	r2, r5
 2595 004c 2169     		ldr	r1, [r4, #16]
 2596 004e 2046     		mov	r0, r4
 2597 0050 9847     		blx	r3
 2598              	.LVL301:
 2599              	.L198:
ARM GAS  C:\Users\hh\AppData\Local\Temp\cc3qgJrr.s 			page 76


 568:Middlewares/Third_Party/LwIP/src/apps/mqtt/mqtt.c **** 
 2600              		.loc 1 568 1 is_stmt 0 view .LVU744
 2601 0052 38BD     		pop	{r3, r4, r5, pc}
 2602              	.LVL302:
 2603              	.L204:
 539:Middlewares/Third_Party/LwIP/src/apps/mqtt/mqtt.c **** 
 2604              		.loc 1 539 3 is_stmt 1 discriminator 1 view .LVU745
 539:Middlewares/Third_Party/LwIP/src/apps/mqtt/mqtt.c **** 
 2605              		.loc 1 539 3 discriminator 1 view .LVU746
 2606 0054 064B     		ldr	r3, .L206+4
 2607 0056 40F21B22 		movw	r2, #539
 2608 005a 0649     		ldr	r1, .L206+8
 2609              	.LVL303:
 539:Middlewares/Third_Party/LwIP/src/apps/mqtt/mqtt.c **** 
 2610              		.loc 1 539 3 is_stmt 0 discriminator 1 view .LVU747
 2611 005c 0648     		ldr	r0, .L206+12
 2612              	.LVL304:
 539:Middlewares/Third_Party/LwIP/src/apps/mqtt/mqtt.c **** 
 2613              		.loc 1 539 3 discriminator 1 view .LVU748
 2614 005e FFF7FEFF 		bl	printf
 2615              	.LVL305:
 2616 0062 D1E7     		b	.L199
 2617              	.LVL306:
 2618              	.L205:
 2619              	.LBB12:
 549:Middlewares/Third_Party/LwIP/src/apps/mqtt/mqtt.c ****       LWIP_DEBUGF(MQTT_DEBUG_TRACE, ("mqtt_close: Close err=%s\n", lwip_strerr(res)));
 2620              		.loc 1 549 7 is_stmt 1 view .LVU749
 2621 0064 E068     		ldr	r0, [r4, #12]
 2622              	.LVL307:
 549:Middlewares/Third_Party/LwIP/src/apps/mqtt/mqtt.c ****       LWIP_DEBUGF(MQTT_DEBUG_TRACE, ("mqtt_close: Close err=%s\n", lwip_strerr(res)));
 2623              		.loc 1 549 7 is_stmt 0 view .LVU750
 2624 0066 FFF7FEFF 		bl	tcp_abort
 2625              	.LVL308:
 2626 006a DEE7     		b	.L201
 2627              	.L207:
 2628              		.align	2
 2629              	.L206:
 2630 006c 00000000 		.word	mqtt_cyclic_timer
 2631 0070 00000000 		.word	.LC0
 2632 0074 00000000 		.word	.LC12
 2633 0078 58000000 		.word	.LC2
 2634              	.LBE12:
 2635              		.cfi_endproc
 2636              	.LFE191:
 2638              		.section	.rodata.mqtt_tcp_err_cb.str1.4,"aMS",%progbits,1
 2639              		.align	2
 2640              	.LC13:
 2641 0000 6D717474 		.ascii	"mqtt_tcp_err_cb: client != NULL\000"
 2641      5F746370 
 2641      5F657272 
 2641      5F63623A 
 2641      20636C69 
 2642              		.section	.text.mqtt_tcp_err_cb,"ax",%progbits
 2643              		.align	1
 2644              		.syntax unified
 2645              		.thumb
 2646              		.thumb_func
ARM GAS  C:\Users\hh\AppData\Local\Temp\cc3qgJrr.s 			page 77


 2648              	mqtt_tcp_err_cb:
 2649              	.LVL309:
 2650              	.LFB199:
1017:Middlewares/Third_Party/LwIP/src/apps/mqtt/mqtt.c ****   mqtt_client_t *client = (mqtt_client_t *)arg;
 2651              		.loc 1 1017 1 is_stmt 1 view -0
 2652              		.cfi_startproc
 2653              		@ args = 0, pretend = 0, frame = 0
 2654              		@ frame_needed = 0, uses_anonymous_args = 0
1017:Middlewares/Third_Party/LwIP/src/apps/mqtt/mqtt.c ****   mqtt_client_t *client = (mqtt_client_t *)arg;
 2655              		.loc 1 1017 1 is_stmt 0 view .LVU752
 2656 0000 10B5     		push	{r4, lr}
 2657              	.LCFI26:
 2658              		.cfi_def_cfa_offset 8
 2659              		.cfi_offset 4, -8
 2660              		.cfi_offset 14, -4
1018:Middlewares/Third_Party/LwIP/src/apps/mqtt/mqtt.c ****   LWIP_UNUSED_ARG(err); /* only used for debug output */
 2661              		.loc 1 1018 3 is_stmt 1 view .LVU753
 2662              	.LVL310:
1019:Middlewares/Third_Party/LwIP/src/apps/mqtt/mqtt.c ****   LWIP_DEBUGF(MQTT_DEBUG_TRACE, ("mqtt_tcp_err_cb: TCP error callback: error %d, arg: %p\n", err, a
 2663              		.loc 1 1019 3 view .LVU754
1020:Middlewares/Third_Party/LwIP/src/apps/mqtt/mqtt.c ****   LWIP_ASSERT("mqtt_tcp_err_cb: client != NULL", client != NULL);
 2664              		.loc 1 1020 104 view .LVU755
1021:Middlewares/Third_Party/LwIP/src/apps/mqtt/mqtt.c ****   /* Set conn to null before calling close as pcb is already deallocated*/
 2665              		.loc 1 1021 3 view .LVU756
1021:Middlewares/Third_Party/LwIP/src/apps/mqtt/mqtt.c ****   /* Set conn to null before calling close as pcb is already deallocated*/
 2666              		.loc 1 1021 3 view .LVU757
 2667 0002 0446     		mov	r4, r0
 2668 0004 38B1     		cbz	r0, .L211
 2669              	.LVL311:
 2670              	.L209:
1021:Middlewares/Third_Party/LwIP/src/apps/mqtt/mqtt.c ****   /* Set conn to null before calling close as pcb is already deallocated*/
 2671              		.loc 1 1021 3 view .LVU758
1021:Middlewares/Third_Party/LwIP/src/apps/mqtt/mqtt.c ****   /* Set conn to null before calling close as pcb is already deallocated*/
 2672              		.loc 1 1021 3 view .LVU759
1023:Middlewares/Third_Party/LwIP/src/apps/mqtt/mqtt.c ****   mqtt_close(client, MQTT_CONNECT_DISCONNECTED);
 2673              		.loc 1 1023 3 view .LVU760
1023:Middlewares/Third_Party/LwIP/src/apps/mqtt/mqtt.c ****   mqtt_close(client, MQTT_CONNECT_DISCONNECTED);
 2674              		.loc 1 1023 16 is_stmt 0 view .LVU761
 2675 0006 0023     		movs	r3, #0
 2676 0008 E360     		str	r3, [r4, #12]
1024:Middlewares/Third_Party/LwIP/src/apps/mqtt/mqtt.c **** }
 2677              		.loc 1 1024 3 is_stmt 1 view .LVU762
 2678 000a 4FF48071 		mov	r1, #256
 2679 000e 2046     		mov	r0, r4
 2680 0010 FFF7FEFF 		bl	mqtt_close
 2681              	.LVL312:
1025:Middlewares/Third_Party/LwIP/src/apps/mqtt/mqtt.c **** 
 2682              		.loc 1 1025 1 is_stmt 0 view .LVU763
 2683 0014 10BD     		pop	{r4, pc}
 2684              	.LVL313:
 2685              	.L211:
1021:Middlewares/Third_Party/LwIP/src/apps/mqtt/mqtt.c ****   /* Set conn to null before calling close as pcb is already deallocated*/
 2686              		.loc 1 1021 3 is_stmt 1 discriminator 1 view .LVU764
1021:Middlewares/Third_Party/LwIP/src/apps/mqtt/mqtt.c ****   /* Set conn to null before calling close as pcb is already deallocated*/
 2687              		.loc 1 1021 3 discriminator 1 view .LVU765
 2688 0016 044B     		ldr	r3, .L212
 2689 0018 40F2FD32 		movw	r2, #1021
ARM GAS  C:\Users\hh\AppData\Local\Temp\cc3qgJrr.s 			page 78


 2690 001c 0349     		ldr	r1, .L212+4
 2691              	.LVL314:
1021:Middlewares/Third_Party/LwIP/src/apps/mqtt/mqtt.c ****   /* Set conn to null before calling close as pcb is already deallocated*/
 2692              		.loc 1 1021 3 is_stmt 0 discriminator 1 view .LVU766
 2693 001e 0448     		ldr	r0, .L212+8
 2694              	.LVL315:
1021:Middlewares/Third_Party/LwIP/src/apps/mqtt/mqtt.c ****   /* Set conn to null before calling close as pcb is already deallocated*/
 2695              		.loc 1 1021 3 discriminator 1 view .LVU767
 2696 0020 FFF7FEFF 		bl	printf
 2697              	.LVL316:
 2698 0024 EFE7     		b	.L209
 2699              	.L213:
 2700 0026 00BF     		.align	2
 2701              	.L212:
 2702 0028 00000000 		.word	.LC0
 2703 002c 00000000 		.word	.LC13
 2704 0030 58000000 		.word	.LC2
 2705              		.cfi_endproc
 2706              	.LFE199:
 2708              		.section	.rodata.mqtt_cyclic_timer.str1.4,"aMS",%progbits,1
 2709              		.align	2
 2710              	.LC14:
 2711 0000 6D717474 		.ascii	"mqtt_cyclic_timer: client != NULL\000"
 2711      5F637963 
 2711      6C69635F 
 2711      74696D65 
 2711      723A2063 
 2712              		.section	.text.mqtt_cyclic_timer,"ax",%progbits
 2713              		.align	1
 2714              		.syntax unified
 2715              		.thumb
 2716              		.thumb_func
 2718              	mqtt_cyclic_timer:
 2719              	.LVL317:
 2720              	.LFB192:
 577:Middlewares/Third_Party/LwIP/src/apps/mqtt/mqtt.c ****   u8_t restart_timer = 1;
 2721              		.loc 1 577 1 is_stmt 1 view -0
 2722              		.cfi_startproc
 2723              		@ args = 0, pretend = 0, frame = 0
 2724              		@ frame_needed = 0, uses_anonymous_args = 0
 577:Middlewares/Third_Party/LwIP/src/apps/mqtt/mqtt.c ****   u8_t restart_timer = 1;
 2725              		.loc 1 577 1 is_stmt 0 view .LVU769
 2726 0000 70B5     		push	{r4, r5, r6, lr}
 2727              	.LCFI27:
 2728              		.cfi_def_cfa_offset 16
 2729              		.cfi_offset 4, -16
 2730              		.cfi_offset 5, -12
 2731              		.cfi_offset 6, -8
 2732              		.cfi_offset 14, -4
 2733 0002 82B0     		sub	sp, sp, #8
 2734              	.LCFI28:
 2735              		.cfi_def_cfa_offset 24
 578:Middlewares/Third_Party/LwIP/src/apps/mqtt/mqtt.c ****   mqtt_client_t *client = (mqtt_client_t *)arg;
 2736              		.loc 1 578 3 is_stmt 1 view .LVU770
 2737              	.LVL318:
 579:Middlewares/Third_Party/LwIP/src/apps/mqtt/mqtt.c ****   LWIP_ASSERT("mqtt_cyclic_timer: client != NULL", client != NULL);
 2738              		.loc 1 579 3 view .LVU771
ARM GAS  C:\Users\hh\AppData\Local\Temp\cc3qgJrr.s 			page 79


 580:Middlewares/Third_Party/LwIP/src/apps/mqtt/mqtt.c **** 
 2739              		.loc 1 580 3 view .LVU772
 580:Middlewares/Third_Party/LwIP/src/apps/mqtt/mqtt.c **** 
 2740              		.loc 1 580 3 view .LVU773
 2741 0004 0446     		mov	r4, r0
 2742 0006 30B1     		cbz	r0, .L223
 2743              	.LVL319:
 2744              	.L215:
 580:Middlewares/Third_Party/LwIP/src/apps/mqtt/mqtt.c **** 
 2745              		.loc 1 580 3 view .LVU774
 580:Middlewares/Third_Party/LwIP/src/apps/mqtt/mqtt.c **** 
 2746              		.loc 1 580 3 view .LVU775
 582:Middlewares/Third_Party/LwIP/src/apps/mqtt/mqtt.c ****     client->cyclic_tick++;
 2747              		.loc 1 582 3 view .LVU776
 582:Middlewares/Third_Party/LwIP/src/apps/mqtt/mqtt.c ****     client->cyclic_tick++;
 2748              		.loc 1 582 13 is_stmt 0 view .LVU777
 2749 0008 A37A     		ldrb	r3, [r4, #10]	@ zero_extendqisi2
 582:Middlewares/Third_Party/LwIP/src/apps/mqtt/mqtt.c ****     client->cyclic_tick++;
 2750              		.loc 1 582 6 view .LVU778
 2751 000a 022B     		cmp	r3, #2
 2752 000c 0BD0     		beq	.L224
 590:Middlewares/Third_Party/LwIP/src/apps/mqtt/mqtt.c ****     /* Handle timeout for pending requests */
 2753              		.loc 1 590 10 is_stmt 1 view .LVU779
 590:Middlewares/Third_Party/LwIP/src/apps/mqtt/mqtt.c ****     /* Handle timeout for pending requests */
 2754              		.loc 1 590 13 is_stmt 0 view .LVU780
 2755 000e 032B     		cmp	r3, #3
 2756 0010 1ED0     		beq	.L225
 2757              	.LVL320:
 2758              	.L214:
 622:Middlewares/Third_Party/LwIP/src/apps/mqtt/mqtt.c **** 
 2759              		.loc 1 622 1 view .LVU781
 2760 0012 02B0     		add	sp, sp, #8
 2761              	.LCFI29:
 2762              		.cfi_remember_state
 2763              		.cfi_def_cfa_offset 16
 2764              		@ sp needed
 2765 0014 70BD     		pop	{r4, r5, r6, pc}
 2766              	.LVL321:
 2767              	.L223:
 2768              	.LCFI30:
 2769              		.cfi_restore_state
 580:Middlewares/Third_Party/LwIP/src/apps/mqtt/mqtt.c **** 
 2770              		.loc 1 580 3 is_stmt 1 discriminator 1 view .LVU782
 580:Middlewares/Third_Party/LwIP/src/apps/mqtt/mqtt.c **** 
 2771              		.loc 1 580 3 discriminator 1 view .LVU783
 2772 0016 2D4B     		ldr	r3, .L229
 2773 0018 4FF41172 		mov	r2, #580
 2774 001c 2C49     		ldr	r1, .L229+4
 2775 001e 2D48     		ldr	r0, .L229+8
 2776              	.LVL322:
 580:Middlewares/Third_Party/LwIP/src/apps/mqtt/mqtt.c **** 
 2777              		.loc 1 580 3 is_stmt 0 discriminator 1 view .LVU784
 2778 0020 FFF7FEFF 		bl	printf
 2779              	.LVL323:
 2780 0024 F0E7     		b	.L215
 2781              	.L224:
 583:Middlewares/Third_Party/LwIP/src/apps/mqtt/mqtt.c ****     if ((client->cyclic_tick * MQTT_CYCLIC_TIMER_INTERVAL) >= MQTT_CONNECT_TIMOUT) {
ARM GAS  C:\Users\hh\AppData\Local\Temp\cc3qgJrr.s 			page 80


 2782              		.loc 1 583 5 is_stmt 1 view .LVU785
 583:Middlewares/Third_Party/LwIP/src/apps/mqtt/mqtt.c ****     if ((client->cyclic_tick * MQTT_CYCLIC_TIMER_INTERVAL) >= MQTT_CONNECT_TIMOUT) {
 2783              		.loc 1 583 11 is_stmt 0 view .LVU786
 2784 0026 2388     		ldrh	r3, [r4]
 583:Middlewares/Third_Party/LwIP/src/apps/mqtt/mqtt.c ****     if ((client->cyclic_tick * MQTT_CYCLIC_TIMER_INTERVAL) >= MQTT_CONNECT_TIMOUT) {
 2785              		.loc 1 583 24 view .LVU787
 2786 0028 0133     		adds	r3, r3, #1
 2787 002a 9BB2     		uxth	r3, r3
 2788 002c 2380     		strh	r3, [r4]	@ movhi
 584:Middlewares/Third_Party/LwIP/src/apps/mqtt/mqtt.c ****       LWIP_DEBUGF(MQTT_DEBUG_TRACE, ("mqtt_cyclic_timer: CONNECT attempt to server timed out\n"));
 2789              		.loc 1 584 5 is_stmt 1 view .LVU788
 584:Middlewares/Third_Party/LwIP/src/apps/mqtt/mqtt.c ****       LWIP_DEBUGF(MQTT_DEBUG_TRACE, ("mqtt_cyclic_timer: CONNECT attempt to server timed out\n"));
 2790              		.loc 1 584 30 is_stmt 0 view .LVU789
 2791 002e 03EB8303 		add	r3, r3, r3, lsl #2
 584:Middlewares/Third_Party/LwIP/src/apps/mqtt/mqtt.c ****       LWIP_DEBUGF(MQTT_DEBUG_TRACE, ("mqtt_cyclic_timer: CONNECT attempt to server timed out\n"));
 2792              		.loc 1 584 8 view .LVU790
 2793 0032 632B     		cmp	r3, #99
 2794 0034 06DC     		bgt	.L226
 2795              	.LVL324:
 2796              	.L217:
 620:Middlewares/Third_Party/LwIP/src/apps/mqtt/mqtt.c ****   }
 2797              		.loc 1 620 5 is_stmt 1 view .LVU791
 2798 0036 2246     		mov	r2, r4
 2799 0038 2749     		ldr	r1, .L229+12
 2800 003a 41F28830 		movw	r0, #5000
 2801 003e FFF7FEFF 		bl	sys_timeout
 2802              	.LVL325:
 622:Middlewares/Third_Party/LwIP/src/apps/mqtt/mqtt.c **** 
 2803              		.loc 1 622 1 is_stmt 0 view .LVU792
 2804 0042 E6E7     		b	.L214
 2805              	.LVL326:
 2806              	.L226:
 585:Middlewares/Third_Party/LwIP/src/apps/mqtt/mqtt.c ****       /* Disconnect TCP */
 2807              		.loc 1 585 98 is_stmt 1 view .LVU793
 587:Middlewares/Third_Party/LwIP/src/apps/mqtt/mqtt.c ****       restart_timer = 0;
 2808              		.loc 1 587 7 view .LVU794
 2809 0044 40F20111 		movw	r1, #257
 2810 0048 2046     		mov	r0, r4
 2811 004a FFF7FEFF 		bl	mqtt_close
 2812              	.LVL327:
 588:Middlewares/Third_Party/LwIP/src/apps/mqtt/mqtt.c ****     }
 2813              		.loc 1 588 7 view .LVU795
 619:Middlewares/Third_Party/LwIP/src/apps/mqtt/mqtt.c ****     sys_timeout(MQTT_CYCLIC_TIMER_INTERVAL * 1000, mqtt_cyclic_timer, arg);
 2814              		.loc 1 619 3 view .LVU796
 2815 004e E0E7     		b	.L214
 2816              	.LVL328:
 2817              	.L225:
 592:Middlewares/Third_Party/LwIP/src/apps/mqtt/mqtt.c **** 
 2818              		.loc 1 592 5 view .LVU797
 2819 0050 0521     		movs	r1, #5
 2820 0052 04F11800 		add	r0, r4, #24
 2821 0056 FFF7FEFF 		bl	mqtt_request_time_elapsed
 2822              	.LVL329:
 595:Middlewares/Third_Party/LwIP/src/apps/mqtt/mqtt.c **** 
 2823              		.loc 1 595 5 view .LVU798
 595:Middlewares/Third_Party/LwIP/src/apps/mqtt/mqtt.c **** 
 2824              		.loc 1 595 15 is_stmt 0 view .LVU799
ARM GAS  C:\Users\hh\AppData\Local\Temp\cc3qgJrr.s 			page 81


 2825 005a 6288     		ldrh	r2, [r4, #2]
 595:Middlewares/Third_Party/LwIP/src/apps/mqtt/mqtt.c **** 
 2826              		.loc 1 595 8 view .LVU800
 2827 005c 002A     		cmp	r2, #0
 2828 005e EAD0     		beq	.L217
 597:Middlewares/Third_Party/LwIP/src/apps/mqtt/mqtt.c ****       /* If reception from server has been idle for 1.5*keep_alive time, server is considered unres
 2829              		.loc 1 597 7 is_stmt 1 view .LVU801
 597:Middlewares/Third_Party/LwIP/src/apps/mqtt/mqtt.c ****       /* If reception from server has been idle for 1.5*keep_alive time, server is considered unres
 2830              		.loc 1 597 13 is_stmt 0 view .LVU802
 2831 0060 A388     		ldrh	r3, [r4, #4]
 597:Middlewares/Third_Party/LwIP/src/apps/mqtt/mqtt.c ****       /* If reception from server has been idle for 1.5*keep_alive time, server is considered unres
 2832              		.loc 1 597 30 view .LVU803
 2833 0062 0133     		adds	r3, r3, #1
 2834 0064 9BB2     		uxth	r3, r3
 2835 0066 A380     		strh	r3, [r4, #4]	@ movhi
 599:Middlewares/Third_Party/LwIP/src/apps/mqtt/mqtt.c ****         LWIP_DEBUGF(MQTT_DEBUG_WARN, ("mqtt_cyclic_timer: Server incoming keep-alive timeout\n"));
 2836              		.loc 1 599 7 is_stmt 1 view .LVU804
 599:Middlewares/Third_Party/LwIP/src/apps/mqtt/mqtt.c ****         LWIP_DEBUGF(MQTT_DEBUG_WARN, ("mqtt_cyclic_timer: Server incoming keep-alive timeout\n"));
 2837              		.loc 1 599 36 is_stmt 0 view .LVU805
 2838 0068 03EB8303 		add	r3, r3, r3, lsl #2
 599:Middlewares/Third_Party/LwIP/src/apps/mqtt/mqtt.c ****         LWIP_DEBUGF(MQTT_DEBUG_WARN, ("mqtt_cyclic_timer: Server incoming keep-alive timeout\n"));
 2839              		.loc 1 599 88 view .LVU806
 2840 006c 02EB5202 		add	r2, r2, r2, lsr #1
 599:Middlewares/Third_Party/LwIP/src/apps/mqtt/mqtt.c ****         LWIP_DEBUGF(MQTT_DEBUG_WARN, ("mqtt_cyclic_timer: Server incoming keep-alive timeout\n"));
 2841              		.loc 1 599 10 view .LVU807
 2842 0070 9342     		cmp	r3, r2
 2843 0072 0DDC     		bgt	.L227
 578:Middlewares/Third_Party/LwIP/src/apps/mqtt/mqtt.c ****   mqtt_client_t *client = (mqtt_client_t *)arg;
 2844              		.loc 1 578 8 view .LVU808
 2845 0074 0123     		movs	r3, #1
 2846 0076 1D46     		mov	r5, r3
 2847              	.LVL330:
 2848              	.L219:
 606:Middlewares/Third_Party/LwIP/src/apps/mqtt/mqtt.c ****       if ((client->cyclic_tick * MQTT_CYCLIC_TIMER_INTERVAL) >= client->keep_alive) {
 2849              		.loc 1 606 7 is_stmt 1 view .LVU809
 606:Middlewares/Third_Party/LwIP/src/apps/mqtt/mqtt.c ****       if ((client->cyclic_tick * MQTT_CYCLIC_TIMER_INTERVAL) >= client->keep_alive) {
 2850              		.loc 1 606 13 is_stmt 0 view .LVU810
 2851 0078 2388     		ldrh	r3, [r4]
 606:Middlewares/Third_Party/LwIP/src/apps/mqtt/mqtt.c ****       if ((client->cyclic_tick * MQTT_CYCLIC_TIMER_INTERVAL) >= client->keep_alive) {
 2852              		.loc 1 606 26 view .LVU811
 2853 007a 0133     		adds	r3, r3, #1
 2854 007c 9BB2     		uxth	r3, r3
 2855 007e 2380     		strh	r3, [r4]	@ movhi
 607:Middlewares/Third_Party/LwIP/src/apps/mqtt/mqtt.c ****         LWIP_DEBUGF(MQTT_DEBUG_TRACE, ("mqtt_cyclic_timer: Sending keep-alive message to server\n")
 2856              		.loc 1 607 7 is_stmt 1 view .LVU812
 607:Middlewares/Third_Party/LwIP/src/apps/mqtt/mqtt.c ****         LWIP_DEBUGF(MQTT_DEBUG_TRACE, ("mqtt_cyclic_timer: Sending keep-alive message to server\n")
 2857              		.loc 1 607 32 is_stmt 0 view .LVU813
 2858 0080 03EB8303 		add	r3, r3, r3, lsl #2
 607:Middlewares/Third_Party/LwIP/src/apps/mqtt/mqtt.c ****         LWIP_DEBUGF(MQTT_DEBUG_TRACE, ("mqtt_cyclic_timer: Sending keep-alive message to server\n")
 2859              		.loc 1 607 71 view .LVU814
 2860 0084 6288     		ldrh	r2, [r4, #2]
 607:Middlewares/Third_Party/LwIP/src/apps/mqtt/mqtt.c ****         LWIP_DEBUGF(MQTT_DEBUG_TRACE, ("mqtt_cyclic_timer: Sending keep-alive message to server\n")
 2861              		.loc 1 607 10 view .LVU815
 2862 0086 9342     		cmp	r3, r2
 2863 0088 0ADA     		bge	.L228
 2864              	.L220:
 619:Middlewares/Third_Party/LwIP/src/apps/mqtt/mqtt.c ****     sys_timeout(MQTT_CYCLIC_TIMER_INTERVAL * 1000, mqtt_cyclic_timer, arg);
ARM GAS  C:\Users\hh\AppData\Local\Temp\cc3qgJrr.s 			page 82


 2865              		.loc 1 619 3 is_stmt 1 view .LVU816
 619:Middlewares/Third_Party/LwIP/src/apps/mqtt/mqtt.c ****     sys_timeout(MQTT_CYCLIC_TIMER_INTERVAL * 1000, mqtt_cyclic_timer, arg);
 2866              		.loc 1 619 6 is_stmt 0 view .LVU817
 2867 008a 002D     		cmp	r5, #0
 2868 008c C1D0     		beq	.L214
 2869 008e D2E7     		b	.L217
 2870              	.LVL331:
 2871              	.L227:
 600:Middlewares/Third_Party/LwIP/src/apps/mqtt/mqtt.c ****         mqtt_close(client, MQTT_CONNECT_TIMEOUT);
 2872              		.loc 1 600 98 is_stmt 1 view .LVU818
 601:Middlewares/Third_Party/LwIP/src/apps/mqtt/mqtt.c ****         restart_timer = 0;
 2873              		.loc 1 601 9 view .LVU819
 2874 0090 40F20111 		movw	r1, #257
 2875 0094 2046     		mov	r0, r4
 2876 0096 FFF7FEFF 		bl	mqtt_close
 2877              	.LVL332:
 602:Middlewares/Third_Party/LwIP/src/apps/mqtt/mqtt.c ****       }
 2878              		.loc 1 602 9 view .LVU820
 602:Middlewares/Third_Party/LwIP/src/apps/mqtt/mqtt.c ****       }
 2879              		.loc 1 602 23 is_stmt 0 view .LVU821
 2880 009a 0023     		movs	r3, #0
 2881 009c 1D46     		mov	r5, r3
 2882 009e EBE7     		b	.L219
 2883              	.LVL333:
 2884              	.L228:
 608:Middlewares/Third_Party/LwIP/src/apps/mqtt/mqtt.c ****         if (mqtt_output_check_space(&client->output, 0) != 0) {
 2885              		.loc 1 608 101 is_stmt 1 view .LVU822
 609:Middlewares/Third_Party/LwIP/src/apps/mqtt/mqtt.c ****           mqtt_output_append_fixed_header(&client->output, MQTT_MSG_TYPE_PINGREQ, 0, 0, 0, 0);
 2886              		.loc 1 609 9 view .LVU823
 609:Middlewares/Third_Party/LwIP/src/apps/mqtt/mqtt.c ****           mqtt_output_append_fixed_header(&client->output, MQTT_MSG_TYPE_PINGREQ, 0, 0, 0, 0);
 2887              		.loc 1 609 13 is_stmt 0 view .LVU824
 2888 00a0 04F1EC03 		add	r3, r4, #236
 2889 00a4 1E46     		mov	r6, r3
 2890 00a6 0021     		movs	r1, #0
 2891 00a8 1846     		mov	r0, r3
 2892 00aa FFF7FEFF 		bl	mqtt_output_check_space
 2893              	.LVL334:
 609:Middlewares/Third_Party/LwIP/src/apps/mqtt/mqtt.c ****           mqtt_output_append_fixed_header(&client->output, MQTT_MSG_TYPE_PINGREQ, 0, 0, 0, 0);
 2894              		.loc 1 609 12 discriminator 1 view .LVU825
 2895 00ae 0028     		cmp	r0, #0
 2896 00b0 EBD0     		beq	.L220
 610:Middlewares/Third_Party/LwIP/src/apps/mqtt/mqtt.c ****           client->cyclic_tick = 0;
 2897              		.loc 1 610 11 is_stmt 1 view .LVU826
 2898 00b2 0023     		movs	r3, #0
 2899 00b4 0193     		str	r3, [sp, #4]
 2900 00b6 0093     		str	r3, [sp]
 2901 00b8 1A46     		mov	r2, r3
 2902 00ba 0C21     		movs	r1, #12
 2903 00bc 3046     		mov	r0, r6
 2904 00be FFF7FEFF 		bl	mqtt_output_append_fixed_header
 2905              	.LVL335:
 611:Middlewares/Third_Party/LwIP/src/apps/mqtt/mqtt.c ****         }
 2906              		.loc 1 611 11 view .LVU827
 611:Middlewares/Third_Party/LwIP/src/apps/mqtt/mqtt.c ****         }
 2907              		.loc 1 611 31 is_stmt 0 view .LVU828
 2908 00c2 4FF00003 		mov	r3, #0	@ movhi
 2909 00c6 2380     		strh	r3, [r4]	@ movhi
ARM GAS  C:\Users\hh\AppData\Local\Temp\cc3qgJrr.s 			page 83


 2910 00c8 DFE7     		b	.L220
 2911              	.L230:
 2912 00ca 00BF     		.align	2
 2913              	.L229:
 2914 00cc 00000000 		.word	.LC0
 2915 00d0 00000000 		.word	.LC14
 2916 00d4 58000000 		.word	.LC2
 2917 00d8 00000000 		.word	mqtt_cyclic_timer
 2918              		.cfi_endproc
 2919              	.LFE192:
 2921              		.section	.text.mqtt_tcp_connect_cb,"ax",%progbits
 2922              		.align	1
 2923              		.syntax unified
 2924              		.thumb
 2925              		.thumb_func
 2927              	mqtt_tcp_connect_cb:
 2928              	.LVL336:
 2929              	.LFB201:
1043:Middlewares/Third_Party/LwIP/src/apps/mqtt/mqtt.c **** 
1044:Middlewares/Third_Party/LwIP/src/apps/mqtt/mqtt.c **** /**
1045:Middlewares/Third_Party/LwIP/src/apps/mqtt/mqtt.c ****  * TCP connect callback function. @see tcp_connected_fn
1046:Middlewares/Third_Party/LwIP/src/apps/mqtt/mqtt.c ****  * @param arg MQTT client
1047:Middlewares/Third_Party/LwIP/src/apps/mqtt/mqtt.c ****  * @param err Always ERR_OK, mqtt_tcp_err_cb is called in case of error
1048:Middlewares/Third_Party/LwIP/src/apps/mqtt/mqtt.c ****  * @return ERR_OK
1049:Middlewares/Third_Party/LwIP/src/apps/mqtt/mqtt.c ****  */
1050:Middlewares/Third_Party/LwIP/src/apps/mqtt/mqtt.c **** static err_t
1051:Middlewares/Third_Party/LwIP/src/apps/mqtt/mqtt.c **** mqtt_tcp_connect_cb(void *arg, struct altcp_pcb *tpcb, err_t err)
1052:Middlewares/Third_Party/LwIP/src/apps/mqtt/mqtt.c **** {
 2930              		.loc 1 1052 1 is_stmt 1 view -0
 2931              		.cfi_startproc
 2932              		@ args = 0, pretend = 0, frame = 0
 2933              		@ frame_needed = 0, uses_anonymous_args = 0
 2934              		.loc 1 1052 1 is_stmt 0 view .LVU830
 2935 0000 70B5     		push	{r4, r5, r6, lr}
 2936              	.LCFI31:
 2937              		.cfi_def_cfa_offset 16
 2938              		.cfi_offset 4, -16
 2939              		.cfi_offset 5, -12
 2940              		.cfi_offset 6, -8
 2941              		.cfi_offset 14, -4
1053:Middlewares/Third_Party/LwIP/src/apps/mqtt/mqtt.c ****   mqtt_client_t *client = (mqtt_client_t *)arg;
 2942              		.loc 1 1053 3 is_stmt 1 view .LVU831
 2943              	.LVL337:
1054:Middlewares/Third_Party/LwIP/src/apps/mqtt/mqtt.c **** 
1055:Middlewares/Third_Party/LwIP/src/apps/mqtt/mqtt.c ****   if (err != ERR_OK) {
 2944              		.loc 1 1055 3 view .LVU832
 2945              		.loc 1 1055 6 is_stmt 0 view .LVU833
 2946 0002 1646     		mov	r6, r2
 2947 0004 0AB1     		cbz	r2, .L234
 2948              	.LVL338:
 2949              	.L232:
1056:Middlewares/Third_Party/LwIP/src/apps/mqtt/mqtt.c ****     LWIP_DEBUGF(MQTT_DEBUG_WARN, ("mqtt_tcp_connect_cb: TCP connect error %d\n", err));
1057:Middlewares/Third_Party/LwIP/src/apps/mqtt/mqtt.c ****     return err;
1058:Middlewares/Third_Party/LwIP/src/apps/mqtt/mqtt.c ****   }
1059:Middlewares/Third_Party/LwIP/src/apps/mqtt/mqtt.c **** 
1060:Middlewares/Third_Party/LwIP/src/apps/mqtt/mqtt.c ****   /* Initiate receiver state */
1061:Middlewares/Third_Party/LwIP/src/apps/mqtt/mqtt.c ****   client->msg_idx = 0;
ARM GAS  C:\Users\hh\AppData\Local\Temp\cc3qgJrr.s 			page 84


1062:Middlewares/Third_Party/LwIP/src/apps/mqtt/mqtt.c **** 
1063:Middlewares/Third_Party/LwIP/src/apps/mqtt/mqtt.c ****   /* Setup TCP callbacks */
1064:Middlewares/Third_Party/LwIP/src/apps/mqtt/mqtt.c ****   altcp_recv(tpcb, mqtt_tcp_recv_cb);
1065:Middlewares/Third_Party/LwIP/src/apps/mqtt/mqtt.c ****   altcp_sent(tpcb, mqtt_tcp_sent_cb);
1066:Middlewares/Third_Party/LwIP/src/apps/mqtt/mqtt.c ****   altcp_poll(tpcb, mqtt_tcp_poll_cb, 2);
1067:Middlewares/Third_Party/LwIP/src/apps/mqtt/mqtt.c **** 
1068:Middlewares/Third_Party/LwIP/src/apps/mqtt/mqtt.c ****   LWIP_DEBUGF(MQTT_DEBUG_TRACE, ("mqtt_tcp_connect_cb: TCP connection established to server\n"));
1069:Middlewares/Third_Party/LwIP/src/apps/mqtt/mqtt.c ****   /* Enter MQTT connect state */
1070:Middlewares/Third_Party/LwIP/src/apps/mqtt/mqtt.c ****   client->conn_state = MQTT_CONNECTING;
1071:Middlewares/Third_Party/LwIP/src/apps/mqtt/mqtt.c **** 
1072:Middlewares/Third_Party/LwIP/src/apps/mqtt/mqtt.c ****   /* Start cyclic timer */
1073:Middlewares/Third_Party/LwIP/src/apps/mqtt/mqtt.c ****   sys_timeout(MQTT_CYCLIC_TIMER_INTERVAL * 1000, mqtt_cyclic_timer, client);
1074:Middlewares/Third_Party/LwIP/src/apps/mqtt/mqtt.c ****   client->cyclic_tick = 0;
1075:Middlewares/Third_Party/LwIP/src/apps/mqtt/mqtt.c **** 
1076:Middlewares/Third_Party/LwIP/src/apps/mqtt/mqtt.c ****   /* Start transmission from output queue, connect message is the first one out*/
1077:Middlewares/Third_Party/LwIP/src/apps/mqtt/mqtt.c ****   mqtt_output_send(&client->output, client->conn);
1078:Middlewares/Third_Party/LwIP/src/apps/mqtt/mqtt.c **** 
1079:Middlewares/Third_Party/LwIP/src/apps/mqtt/mqtt.c ****   return ERR_OK;
1080:Middlewares/Third_Party/LwIP/src/apps/mqtt/mqtt.c **** }
 2950              		.loc 1 1080 1 view .LVU834
 2951 0006 3046     		mov	r0, r6
 2952 0008 70BD     		pop	{r4, r5, r6, pc}
 2953              	.LVL339:
 2954              	.L234:
 2955              		.loc 1 1080 1 view .LVU835
 2956 000a 0446     		mov	r4, r0
 2957 000c 0D46     		mov	r5, r1
1061:Middlewares/Third_Party/LwIP/src/apps/mqtt/mqtt.c **** 
 2958              		.loc 1 1061 3 is_stmt 1 view .LVU836
1061:Middlewares/Third_Party/LwIP/src/apps/mqtt/mqtt.c **** 
 2959              		.loc 1 1061 19 is_stmt 0 view .LVU837
 2960 000e 8266     		str	r2, [r0, #104]
1064:Middlewares/Third_Party/LwIP/src/apps/mqtt/mqtt.c ****   altcp_sent(tpcb, mqtt_tcp_sent_cb);
 2961              		.loc 1 1064 3 is_stmt 1 view .LVU838
 2962 0010 0E49     		ldr	r1, .L235
 2963              	.LVL340:
1064:Middlewares/Third_Party/LwIP/src/apps/mqtt/mqtt.c ****   altcp_sent(tpcb, mqtt_tcp_sent_cb);
 2964              		.loc 1 1064 3 is_stmt 0 view .LVU839
 2965 0012 2846     		mov	r0, r5
 2966              	.LVL341:
1064:Middlewares/Third_Party/LwIP/src/apps/mqtt/mqtt.c ****   altcp_sent(tpcb, mqtt_tcp_sent_cb);
 2967              		.loc 1 1064 3 view .LVU840
 2968 0014 FFF7FEFF 		bl	tcp_recv
 2969              	.LVL342:
1065:Middlewares/Third_Party/LwIP/src/apps/mqtt/mqtt.c ****   altcp_poll(tpcb, mqtt_tcp_poll_cb, 2);
 2970              		.loc 1 1065 3 is_stmt 1 view .LVU841
 2971 0018 0D49     		ldr	r1, .L235+4
 2972 001a 2846     		mov	r0, r5
 2973 001c FFF7FEFF 		bl	tcp_sent
 2974              	.LVL343:
1066:Middlewares/Third_Party/LwIP/src/apps/mqtt/mqtt.c **** 
 2975              		.loc 1 1066 3 view .LVU842
 2976 0020 0222     		movs	r2, #2
 2977 0022 0C49     		ldr	r1, .L235+8
 2978 0024 2846     		mov	r0, r5
 2979 0026 FFF7FEFF 		bl	tcp_poll
 2980              	.LVL344:
ARM GAS  C:\Users\hh\AppData\Local\Temp\cc3qgJrr.s 			page 85


1068:Middlewares/Third_Party/LwIP/src/apps/mqtt/mqtt.c ****   /* Enter MQTT connect state */
 2981              		.loc 1 1068 97 view .LVU843
1070:Middlewares/Third_Party/LwIP/src/apps/mqtt/mqtt.c **** 
 2982              		.loc 1 1070 3 view .LVU844
1070:Middlewares/Third_Party/LwIP/src/apps/mqtt/mqtt.c **** 
 2983              		.loc 1 1070 22 is_stmt 0 view .LVU845
 2984 002a 0223     		movs	r3, #2
 2985 002c A372     		strb	r3, [r4, #10]
1073:Middlewares/Third_Party/LwIP/src/apps/mqtt/mqtt.c ****   client->cyclic_tick = 0;
 2986              		.loc 1 1073 3 is_stmt 1 view .LVU846
 2987 002e 2246     		mov	r2, r4
 2988 0030 0949     		ldr	r1, .L235+12
 2989 0032 41F28830 		movw	r0, #5000
 2990 0036 FFF7FEFF 		bl	sys_timeout
 2991              	.LVL345:
1074:Middlewares/Third_Party/LwIP/src/apps/mqtt/mqtt.c **** 
 2992              		.loc 1 1074 3 view .LVU847
1074:Middlewares/Third_Party/LwIP/src/apps/mqtt/mqtt.c **** 
 2993              		.loc 1 1074 23 is_stmt 0 view .LVU848
 2994 003a 4FF00003 		mov	r3, #0	@ movhi
 2995 003e 2380     		strh	r3, [r4]	@ movhi
1077:Middlewares/Third_Party/LwIP/src/apps/mqtt/mqtt.c **** 
 2996              		.loc 1 1077 3 is_stmt 1 view .LVU849
 2997 0040 E168     		ldr	r1, [r4, #12]
 2998 0042 04F1EC00 		add	r0, r4, #236
 2999 0046 FFF7FEFF 		bl	mqtt_output_send
 3000              	.LVL346:
1079:Middlewares/Third_Party/LwIP/src/apps/mqtt/mqtt.c **** }
 3001              		.loc 1 1079 3 view .LVU850
1079:Middlewares/Third_Party/LwIP/src/apps/mqtt/mqtt.c **** }
 3002              		.loc 1 1079 10 is_stmt 0 view .LVU851
 3003 004a DCE7     		b	.L232
 3004              	.L236:
 3005              		.align	2
 3006              	.L235:
 3007 004c 00000000 		.word	mqtt_tcp_recv_cb
 3008 0050 00000000 		.word	mqtt_tcp_sent_cb
 3009 0054 00000000 		.word	mqtt_tcp_poll_cb
 3010 0058 00000000 		.word	mqtt_cyclic_timer
 3011              		.cfi_endproc
 3012              	.LFE201:
 3014              		.section	.text.mqtt_parse_incoming,"ax",%progbits
 3015              		.align	1
 3016              		.syntax unified
 3017              		.thumb
 3018              		.thumb_func
 3020              	mqtt_parse_incoming:
 3021              	.LVL347:
 3022              	.LFB196:
 843:Middlewares/Third_Party/LwIP/src/apps/mqtt/mqtt.c ****   u16_t in_offset = 0;
 3023              		.loc 1 843 1 is_stmt 1 view -0
 3024              		.cfi_startproc
 3025              		@ args = 0, pretend = 0, frame = 0
 3026              		@ frame_needed = 0, uses_anonymous_args = 0
 843:Middlewares/Third_Party/LwIP/src/apps/mqtt/mqtt.c ****   u16_t in_offset = 0;
 3027              		.loc 1 843 1 is_stmt 0 view .LVU853
 3028 0000 2DE9F047 		push	{r4, r5, r6, r7, r8, r9, r10, lr}
ARM GAS  C:\Users\hh\AppData\Local\Temp\cc3qgJrr.s 			page 86


 3029              	.LCFI32:
 3030              		.cfi_def_cfa_offset 32
 3031              		.cfi_offset 4, -32
 3032              		.cfi_offset 5, -28
 3033              		.cfi_offset 6, -24
 3034              		.cfi_offset 7, -20
 3035              		.cfi_offset 8, -16
 3036              		.cfi_offset 9, -12
 3037              		.cfi_offset 10, -8
 3038              		.cfi_offset 14, -4
 3039 0004 82B0     		sub	sp, sp, #8
 3040              	.LCFI33:
 3041              		.cfi_def_cfa_offset 40
 3042 0006 0746     		mov	r7, r0
 3043 0008 8A46     		mov	r10, r1
 844:Middlewares/Third_Party/LwIP/src/apps/mqtt/mqtt.c ****   u32_t msg_rem_len = 0;
 3044              		.loc 1 844 3 is_stmt 1 view .LVU854
 3045              	.LVL348:
 845:Middlewares/Third_Party/LwIP/src/apps/mqtt/mqtt.c ****   u8_t fixed_hdr_len = 0;
 3046              		.loc 1 845 3 view .LVU855
 846:Middlewares/Third_Party/LwIP/src/apps/mqtt/mqtt.c ****   u8_t b = 0;
 3047              		.loc 1 846 3 view .LVU856
 847:Middlewares/Third_Party/LwIP/src/apps/mqtt/mqtt.c **** 
 3048              		.loc 1 847 3 view .LVU857
 849:Middlewares/Third_Party/LwIP/src/apps/mqtt/mqtt.c ****     /* We ALWAYS parse the header here first. Even if the header was not
 3049              		.loc 1 849 3 view .LVU858
 847:Middlewares/Third_Party/LwIP/src/apps/mqtt/mqtt.c **** 
 3050              		.loc 1 847 8 is_stmt 0 view .LVU859
 3051 000a 4FF00009 		mov	r9, #0
 846:Middlewares/Third_Party/LwIP/src/apps/mqtt/mqtt.c ****   u8_t b = 0;
 3052              		.loc 1 846 8 view .LVU860
 3053 000e 4D46     		mov	r5, r9
 845:Middlewares/Third_Party/LwIP/src/apps/mqtt/mqtt.c ****   u8_t fixed_hdr_len = 0;
 3054              		.loc 1 845 9 view .LVU861
 3055 0010 C846     		mov	r8, r9
 844:Middlewares/Third_Party/LwIP/src/apps/mqtt/mqtt.c ****   u32_t msg_rem_len = 0;
 3056              		.loc 1 844 9 view .LVU862
 3057 0012 4E46     		mov	r6, r9
 849:Middlewares/Third_Party/LwIP/src/apps/mqtt/mqtt.c ****     /* We ALWAYS parse the header here first. Even if the header was not
 3058              		.loc 1 849 9 view .LVU863
 3059 0014 4DE0     		b	.L238
 3060              	.LVL349:
 3061              	.L240:
 861:Middlewares/Third_Party/LwIP/src/apps/mqtt/mqtt.c ****         client->rx_buffer[client->msg_idx++] = b;
 3062              		.loc 1 861 9 is_stmt 1 view .LVU864
 861:Middlewares/Third_Party/LwIP/src/apps/mqtt/mqtt.c ****         client->rx_buffer[client->msg_idx++] = b;
 3063              		.loc 1 861 13 is_stmt 0 view .LVU865
 3064 0016 741C     		adds	r4, r6, #1
 3065 0018 A4B2     		uxth	r4, r4
 3066              	.LVL350:
 861:Middlewares/Third_Party/LwIP/src/apps/mqtt/mqtt.c ****         client->rx_buffer[client->msg_idx++] = b;
 3067              		.loc 1 861 13 view .LVU866
 3068 001a 3146     		mov	r1, r6
 3069 001c 5046     		mov	r0, r10
 3070 001e FFF7FEFF 		bl	pbuf_get_at
 3071              	.LVL351:
 3072 0022 8146     		mov	r9, r0
ARM GAS  C:\Users\hh\AppData\Local\Temp\cc3qgJrr.s 			page 87


 3073              	.LVL352:
 862:Middlewares/Third_Party/LwIP/src/apps/mqtt/mqtt.c ****       }
 3074              		.loc 1 862 9 is_stmt 1 view .LVU867
 862:Middlewares/Third_Party/LwIP/src/apps/mqtt/mqtt.c ****       }
 3075              		.loc 1 862 33 is_stmt 0 view .LVU868
 3076 0024 BB6E     		ldr	r3, [r7, #104]
 862:Middlewares/Third_Party/LwIP/src/apps/mqtt/mqtt.c ****       }
 3077              		.loc 1 862 42 view .LVU869
 3078 0026 5A1C     		adds	r2, r3, #1
 3079 0028 BA66     		str	r2, [r7, #104]
 862:Middlewares/Third_Party/LwIP/src/apps/mqtt/mqtt.c ****       }
 3080              		.loc 1 862 46 view .LVU870
 3081 002a 3B44     		add	r3, r3, r7
 3082 002c 83F86C00 		strb	r0, [r3, #108]
 861:Middlewares/Third_Party/LwIP/src/apps/mqtt/mqtt.c ****         client->rx_buffer[client->msg_idx++] = b;
 3083              		.loc 1 861 13 view .LVU871
 3084 0030 2646     		mov	r6, r4
 3085 0032 50E0     		b	.L241
 3086              	.LVL353:
 3087              	.L252:
 876:Middlewares/Third_Party/LwIP/src/apps/mqtt/mqtt.c ****             client->msg_idx = 0;
 3088              		.loc 1 876 13 is_stmt 1 view .LVU872
 3089 0034 CDF80080 		str	r8, [sp]
 3090 0038 4346     		mov	r3, r8
 3091 003a 4246     		mov	r2, r8
 3092 003c 2946     		mov	r1, r5
 3093 003e 3846     		mov	r0, r7
 3094 0040 FFF7FEFF 		bl	mqtt_message_received
 3095              	.LVL354:
 877:Middlewares/Third_Party/LwIP/src/apps/mqtt/mqtt.c ****             fixed_hdr_len = 0;
 3096              		.loc 1 877 13 view .LVU873
 877:Middlewares/Third_Party/LwIP/src/apps/mqtt/mqtt.c ****             fixed_hdr_len = 0;
 3097              		.loc 1 877 29 is_stmt 0 view .LVU874
 3098 0044 C7F86880 		str	r8, [r7, #104]
 878:Middlewares/Third_Party/LwIP/src/apps/mqtt/mqtt.c ****           } else {
 3099              		.loc 1 878 13 is_stmt 1 view .LVU875
 3100              	.LVL355:
 878:Middlewares/Third_Party/LwIP/src/apps/mqtt/mqtt.c ****           } else {
 3101              		.loc 1 878 27 is_stmt 0 view .LVU876
 3102 0048 4546     		mov	r5, r8
 3103 004a 32E0     		b	.L238
 3104              	.LVL356:
 3105              	.L239:
 3106              	.LBB13:
 888:Middlewares/Third_Party/LwIP/src/apps/mqtt/mqtt.c ****       u8_t *var_hdr_payload;
 3107              		.loc 1 888 7 is_stmt 1 view .LVU877
 889:Middlewares/Third_Party/LwIP/src/apps/mqtt/mqtt.c ****       mqtt_connection_status_t res;
 3108              		.loc 1 889 7 view .LVU878
 890:Middlewares/Third_Party/LwIP/src/apps/mqtt/mqtt.c **** 
 3109              		.loc 1 890 7 view .LVU879
 893:Middlewares/Third_Party/LwIP/src/apps/mqtt/mqtt.c **** 
 3110              		.loc 1 893 7 view .LVU880
 893:Middlewares/Third_Party/LwIP/src/apps/mqtt/mqtt.c **** 
 3111              		.loc 1 893 24 is_stmt 0 view .LVU881
 3112 004c A41B     		subs	r4, r4, r6
 3113 004e A4B2     		uxth	r4, r4
 893:Middlewares/Third_Party/LwIP/src/apps/mqtt/mqtt.c **** 
ARM GAS  C:\Users\hh\AppData\Local\Temp\cc3qgJrr.s 			page 88


 3114              		.loc 1 893 17 view .LVU882
 3115 0050 4445     		cmp	r4, r8
 3116 0052 01D3     		bcc	.L244
 893:Middlewares/Third_Party/LwIP/src/apps/mqtt/mqtt.c **** 
 3117              		.loc 1 893 15 discriminator 2 view .LVU883
 3118 0054 1FFA88F4 		uxth	r4, r8
 3119              	.L244:
 3120              	.LVL357:
 896:Middlewares/Third_Party/LwIP/src/apps/mqtt/mqtt.c ****       if (cpy_len > buffer_space) {
 3121              		.loc 1 896 7 is_stmt 1 view .LVU884
 896:Middlewares/Third_Party/LwIP/src/apps/mqtt/mqtt.c ****       if (cpy_len > buffer_space) {
 3122              		.loc 1 896 20 is_stmt 0 view .LVU885
 3123 0058 C5F18002 		rsb	r2, r5, #128
 3124 005c 92B2     		uxth	r2, r2
 3125              	.LVL358:
 897:Middlewares/Third_Party/LwIP/src/apps/mqtt/mqtt.c ****         cpy_len = buffer_space;
 3126              		.loc 1 897 7 is_stmt 1 view .LVU886
 897:Middlewares/Third_Party/LwIP/src/apps/mqtt/mqtt.c ****         cpy_len = buffer_space;
 3127              		.loc 1 897 10 is_stmt 0 view .LVU887
 3128 005e 9442     		cmp	r4, r2
 3129 0060 00D9     		bls	.L245
 898:Middlewares/Third_Party/LwIP/src/apps/mqtt/mqtt.c ****       }
 3130              		.loc 1 898 17 view .LVU888
 3131 0062 1446     		mov	r4, r2
 3132              	.LVL359:
 3133              	.L245:
 901:Middlewares/Third_Party/LwIP/src/apps/mqtt/mqtt.c ****         if (cpy_len > (p->len - in_offset))
 3134              		.loc 1 901 7 is_stmt 1 view .LVU889
 901:Middlewares/Third_Party/LwIP/src/apps/mqtt/mqtt.c ****         if (cpy_len > (p->len - in_offset))
 3135              		.loc 1 901 17 is_stmt 0 view .LVU890
 3136 0064 BB6E     		ldr	r3, [r7, #104]
 901:Middlewares/Third_Party/LwIP/src/apps/mqtt/mqtt.c ****         if (cpy_len > (p->len - in_offset))
 3137              		.loc 1 901 10 view .LVU891
 3138 0066 7F2B     		cmp	r3, #127
 3139 0068 05D9     		bls	.L246
 902:Middlewares/Third_Party/LwIP/src/apps/mqtt/mqtt.c ****           cpy_len = p->len - in_offset;
 3140              		.loc 1 902 9 is_stmt 1 view .LVU892
 902:Middlewares/Third_Party/LwIP/src/apps/mqtt/mqtt.c ****           cpy_len = p->len - in_offset;
 3141              		.loc 1 902 25 is_stmt 0 view .LVU893
 3142 006a BAF80A30 		ldrh	r3, [r10, #10]
 902:Middlewares/Third_Party/LwIP/src/apps/mqtt/mqtt.c ****           cpy_len = p->len - in_offset;
 3143              		.loc 1 902 31 view .LVU894
 3144 006e 991B     		subs	r1, r3, r6
 902:Middlewares/Third_Party/LwIP/src/apps/mqtt/mqtt.c ****           cpy_len = p->len - in_offset;
 3145              		.loc 1 902 12 view .LVU895
 3146 0070 8C42     		cmp	r4, r1
 3147 0072 00DD     		ble	.L246
 903:Middlewares/Third_Party/LwIP/src/apps/mqtt/mqtt.c ****       }
 3148              		.loc 1 903 11 is_stmt 1 view .LVU896
 903:Middlewares/Third_Party/LwIP/src/apps/mqtt/mqtt.c ****       }
 3149              		.loc 1 903 19 is_stmt 0 view .LVU897
 3150 0074 8CB2     		uxth	r4, r1
 3151              	.LVL360:
 3152              	.L246:
 905:Middlewares/Third_Party/LwIP/src/apps/mqtt/mqtt.c ****                                                    buffer_space, cpy_len, in_offset);
 3153              		.loc 1 905 7 is_stmt 1 view .LVU898
 905:Middlewares/Third_Party/LwIP/src/apps/mqtt/mqtt.c ****                                                    buffer_space, cpy_len, in_offset);
ARM GAS  C:\Users\hh\AppData\Local\Temp\cc3qgJrr.s 			page 89


 3154              		.loc 1 905 55 is_stmt 0 view .LVU899
 3155 0076 07F16C01 		add	r1, r7, #108
 905:Middlewares/Third_Party/LwIP/src/apps/mqtt/mqtt.c ****                                                    buffer_space, cpy_len, in_offset);
 3156              		.loc 1 905 32 view .LVU900
 3157 007a 0096     		str	r6, [sp]
 3158 007c 2346     		mov	r3, r4
 3159 007e 2944     		add	r1, r1, r5
 3160 0080 5046     		mov	r0, r10
 3161 0082 FFF7FEFF 		bl	pbuf_get_contiguous
 3162              	.LVL361:
 909:Middlewares/Third_Party/LwIP/src/apps/mqtt/mqtt.c ****       in_offset += cpy_len;
 3163              		.loc 1 909 7 is_stmt 1 view .LVU901
 909:Middlewares/Third_Party/LwIP/src/apps/mqtt/mqtt.c ****       in_offset += cpy_len;
 3164              		.loc 1 909 13 is_stmt 0 view .LVU902
 3165 0086 BB6E     		ldr	r3, [r7, #104]
 909:Middlewares/Third_Party/LwIP/src/apps/mqtt/mqtt.c ****       in_offset += cpy_len;
 3166              		.loc 1 909 23 view .LVU903
 3167 0088 2344     		add	r3, r3, r4
 3168 008a BB66     		str	r3, [r7, #104]
 910:Middlewares/Third_Party/LwIP/src/apps/mqtt/mqtt.c ****       msg_rem_len -= cpy_len;
 3169              		.loc 1 910 7 is_stmt 1 view .LVU904
 910:Middlewares/Third_Party/LwIP/src/apps/mqtt/mqtt.c ****       msg_rem_len -= cpy_len;
 3170              		.loc 1 910 17 is_stmt 0 view .LVU905
 3171 008c 2644     		add	r6, r6, r4
 3172              	.LVL362:
 910:Middlewares/Third_Party/LwIP/src/apps/mqtt/mqtt.c ****       msg_rem_len -= cpy_len;
 3173              		.loc 1 910 17 view .LVU906
 3174 008e B6B2     		uxth	r6, r6
 3175              	.LVL363:
 911:Middlewares/Third_Party/LwIP/src/apps/mqtt/mqtt.c **** 
 3176              		.loc 1 911 7 is_stmt 1 view .LVU907
 911:Middlewares/Third_Party/LwIP/src/apps/mqtt/mqtt.c **** 
 3177              		.loc 1 911 19 is_stmt 0 view .LVU908
 3178 0090 A8EB0408 		sub	r8, r8, r4
 3179              	.LVL364:
 913:Middlewares/Third_Party/LwIP/src/apps/mqtt/mqtt.c ****       /* Whole or partial message received */
 3180              		.loc 1 913 160 is_stmt 1 view .LVU909
 915:Middlewares/Third_Party/LwIP/src/apps/mqtt/mqtt.c ****       if (res != MQTT_CONNECT_ACCEPTED) {
 3181              		.loc 1 915 7 view .LVU910
 915:Middlewares/Third_Party/LwIP/src/apps/mqtt/mqtt.c ****       if (res != MQTT_CONNECT_ACCEPTED) {
 3182              		.loc 1 915 13 is_stmt 0 view .LVU911
 3183 0094 0090     		str	r0, [sp]
 3184 0096 4346     		mov	r3, r8
 3185 0098 2246     		mov	r2, r4
 3186 009a 2946     		mov	r1, r5
 3187 009c 3846     		mov	r0, r7
 3188              	.LVL365:
 915:Middlewares/Third_Party/LwIP/src/apps/mqtt/mqtt.c ****       if (res != MQTT_CONNECT_ACCEPTED) {
 3189              		.loc 1 915 13 view .LVU912
 3190 009e FFF7FEFF 		bl	mqtt_message_received
 3191              	.LVL366:
 916:Middlewares/Third_Party/LwIP/src/apps/mqtt/mqtt.c ****         return res;
 3192              		.loc 1 916 7 is_stmt 1 view .LVU913
 916:Middlewares/Third_Party/LwIP/src/apps/mqtt/mqtt.c ****         return res;
 3193              		.loc 1 916 10 is_stmt 0 view .LVU914
 3194 00a2 0346     		mov	r3, r0
 3195 00a4 78BB     		cbnz	r0, .L247
ARM GAS  C:\Users\hh\AppData\Local\Temp\cc3qgJrr.s 			page 90


 919:Middlewares/Third_Party/LwIP/src/apps/mqtt/mqtt.c ****         /* Reset parser state */
 3196              		.loc 1 919 7 is_stmt 1 view .LVU915
 919:Middlewares/Third_Party/LwIP/src/apps/mqtt/mqtt.c ****         /* Reset parser state */
 3197              		.loc 1 919 10 is_stmt 0 view .LVU916
 3198 00a6 B8F1000F 		cmp	r8, #0
 3199 00aa 02D1     		bne	.L238
 921:Middlewares/Third_Party/LwIP/src/apps/mqtt/mqtt.c ****         /* msg_tot_len = 0; */
 3200              		.loc 1 921 9 is_stmt 1 view .LVU917
 921:Middlewares/Third_Party/LwIP/src/apps/mqtt/mqtt.c ****         /* msg_tot_len = 0; */
 3201              		.loc 1 921 25 is_stmt 0 view .LVU918
 3202 00ac 4546     		mov	r5, r8
 3203              	.LVL367:
 921:Middlewares/Third_Party/LwIP/src/apps/mqtt/mqtt.c ****         /* msg_tot_len = 0; */
 3204              		.loc 1 921 25 view .LVU919
 3205 00ae C7F86880 		str	r8, [r7, #104]
 923:Middlewares/Third_Party/LwIP/src/apps/mqtt/mqtt.c ****       }
 3206              		.loc 1 923 9 is_stmt 1 view .LVU920
 3207              	.LVL368:
 3208              	.L238:
 923:Middlewares/Third_Party/LwIP/src/apps/mqtt/mqtt.c ****       }
 3209              		.loc 1 923 9 is_stmt 0 view .LVU921
 3210              	.LBE13:
 849:Middlewares/Third_Party/LwIP/src/apps/mqtt/mqtt.c ****     /* We ALWAYS parse the header here first. Even if the header was not
 3211              		.loc 1 849 21 is_stmt 1 view .LVU922
 849:Middlewares/Third_Party/LwIP/src/apps/mqtt/mqtt.c ****     /* We ALWAYS parse the header here first. Even if the header was not
 3212              		.loc 1 849 11 is_stmt 0 view .LVU923
 3213 00b2 BAF80840 		ldrh	r4, [r10, #8]
 849:Middlewares/Third_Party/LwIP/src/apps/mqtt/mqtt.c ****     /* We ALWAYS parse the header here first. Even if the header was not
 3214              		.loc 1 849 21 view .LVU924
 3215 00b6 B442     		cmp	r4, r6
 3216 00b8 24D9     		bls	.L251
 853:Middlewares/Third_Party/LwIP/src/apps/mqtt/mqtt.c **** 
 3217              		.loc 1 853 5 is_stmt 1 view .LVU925
 853:Middlewares/Third_Party/LwIP/src/apps/mqtt/mqtt.c **** 
 3218              		.loc 1 853 44 is_stmt 0 view .LVU926
 3219 00ba C9F3C713 		ubfx	r3, r9, #7, #8
 853:Middlewares/Third_Party/LwIP/src/apps/mqtt/mqtt.c **** 
 3220              		.loc 1 853 29 view .LVU927
 3221 00be 012D     		cmp	r5, #1
 3222 00c0 98BF     		it	ls
 3223 00c2 43F00103 		orrls	r3, r3, #1
 853:Middlewares/Third_Party/LwIP/src/apps/mqtt/mqtt.c **** 
 3224              		.loc 1 853 8 view .LVU928
 3225 00c6 002B     		cmp	r3, #0
 3226 00c8 C0D0     		beq	.L239
 855:Middlewares/Third_Party/LwIP/src/apps/mqtt/mqtt.c ****         /* parse header from old pbuf (buffered in client->rx_buffer) */
 3227              		.loc 1 855 7 is_stmt 1 view .LVU929
 855:Middlewares/Third_Party/LwIP/src/apps/mqtt/mqtt.c ****         /* parse header from old pbuf (buffered in client->rx_buffer) */
 3228              		.loc 1 855 33 is_stmt 0 view .LVU930
 3229 00ca BB6E     		ldr	r3, [r7, #104]
 855:Middlewares/Third_Party/LwIP/src/apps/mqtt/mqtt.c ****         /* parse header from old pbuf (buffered in client->rx_buffer) */
 3230              		.loc 1 855 10 view .LVU931
 3231 00cc 9D42     		cmp	r5, r3
 3232 00ce A2D2     		bcs	.L240
 857:Middlewares/Third_Party/LwIP/src/apps/mqtt/mqtt.c ****       } else {
 3233              		.loc 1 857 9 is_stmt 1 view .LVU932
 857:Middlewares/Third_Party/LwIP/src/apps/mqtt/mqtt.c ****       } else {
ARM GAS  C:\Users\hh\AppData\Local\Temp\cc3qgJrr.s 			page 91


 3234              		.loc 1 857 11 is_stmt 0 view .LVU933
 3235 00d0 7B19     		adds	r3, r7, r5
 3236 00d2 93F86C90 		ldrb	r9, [r3, #108]	@ zero_extendqisi2
 3237              	.LVL369:
 3238              	.L241:
 864:Middlewares/Third_Party/LwIP/src/apps/mqtt/mqtt.c **** 
 3239              		.loc 1 864 7 is_stmt 1 view .LVU934
 864:Middlewares/Third_Party/LwIP/src/apps/mqtt/mqtt.c **** 
 3240              		.loc 1 864 20 is_stmt 0 view .LVU935
 3241 00d6 0135     		adds	r5, r5, #1
 3242              	.LVL370:
 864:Middlewares/Third_Party/LwIP/src/apps/mqtt/mqtt.c **** 
 3243              		.loc 1 864 20 view .LVU936
 3244 00d8 EDB2     		uxtb	r5, r5
 3245              	.LVL371:
 866:Middlewares/Third_Party/LwIP/src/apps/mqtt/mqtt.c ****         /* fixed header contains at least 2 bytes but can contain more, depending on
 3246              		.loc 1 866 7 is_stmt 1 view .LVU937
 866:Middlewares/Third_Party/LwIP/src/apps/mqtt/mqtt.c ****         /* fixed header contains at least 2 bytes but can contain more, depending on
 3247              		.loc 1 866 10 is_stmt 0 view .LVU938
 3248 00da 012D     		cmp	r5, #1
 3249 00dc E9D9     		bls	.L238
 870:Middlewares/Third_Party/LwIP/src/apps/mqtt/mqtt.c ****         if ((b & 0x80) == 0) {
 3250              		.loc 1 870 9 is_stmt 1 view .LVU939
 870:Middlewares/Third_Party/LwIP/src/apps/mqtt/mqtt.c ****         if ((b & 0x80) == 0) {
 3251              		.loc 1 870 24 is_stmt 0 view .LVU940
 3252 00de 09F07F03 		and	r3, r9, #127
 870:Middlewares/Third_Party/LwIP/src/apps/mqtt/mqtt.c ****         if ((b & 0x80) == 0) {
 3253              		.loc 1 870 61 view .LVU941
 3254 00e2 AA1E     		subs	r2, r5, #2
 870:Middlewares/Third_Party/LwIP/src/apps/mqtt/mqtt.c ****         if ((b & 0x80) == 0) {
 3255              		.loc 1 870 66 view .LVU942
 3256 00e4 C2EBC202 		rsb	r2, r2, r2, lsl #3
 870:Middlewares/Third_Party/LwIP/src/apps/mqtt/mqtt.c ****         if ((b & 0x80) == 0) {
 3257              		.loc 1 870 42 view .LVU943
 3258 00e8 9340     		lsls	r3, r3, r2
 870:Middlewares/Third_Party/LwIP/src/apps/mqtt/mqtt.c ****         if ((b & 0x80) == 0) {
 3259              		.loc 1 870 21 view .LVU944
 3260 00ea 48EA0308 		orr	r8, r8, r3
 3261              	.LVL372:
 871:Middlewares/Third_Party/LwIP/src/apps/mqtt/mqtt.c ****           /* fixed header is done */
 3262              		.loc 1 871 9 is_stmt 1 view .LVU945
 871:Middlewares/Third_Party/LwIP/src/apps/mqtt/mqtt.c ****           /* fixed header is done */
 3263              		.loc 1 871 12 is_stmt 0 view .LVU946
 3264 00ee 19F0800F 		tst	r9, #128
 3265 00f2 DED1     		bne	.L238
 873:Middlewares/Third_Party/LwIP/src/apps/mqtt/mqtt.c ****           if (msg_rem_len == 0) {
 3266              		.loc 1 873 127 is_stmt 1 view .LVU947
 874:Middlewares/Third_Party/LwIP/src/apps/mqtt/mqtt.c ****             /* Complete message with no extra headers of payload received */
 3267              		.loc 1 874 11 view .LVU948
 874:Middlewares/Third_Party/LwIP/src/apps/mqtt/mqtt.c ****             /* Complete message with no extra headers of payload received */
 3268              		.loc 1 874 14 is_stmt 0 view .LVU949
 3269 00f4 B8F1000F 		cmp	r8, #0
 3270 00f8 9CD0     		beq	.L252
 882:Middlewares/Third_Party/LwIP/src/apps/mqtt/mqtt.c ****           }
 3271              		.loc 1 882 13 is_stmt 1 view .LVU950
 882:Middlewares/Third_Party/LwIP/src/apps/mqtt/mqtt.c ****           }
 3272              		.loc 1 882 40 is_stmt 0 view .LVU951
ARM GAS  C:\Users\hh\AppData\Local\Temp\cc3qgJrr.s 			page 92


 3273 00fa A844     		add	r8, r8, r5
 3274              	.LVL373:
 882:Middlewares/Third_Party/LwIP/src/apps/mqtt/mqtt.c ****           }
 3275              		.loc 1 882 65 view .LVU952
 3276 00fc BB6E     		ldr	r3, [r7, #104]
 882:Middlewares/Third_Party/LwIP/src/apps/mqtt/mqtt.c ****           }
 3277              		.loc 1 882 25 view .LVU953
 3278 00fe A8EB0308 		sub	r8, r8, r3
 3279              	.LVL374:
 882:Middlewares/Third_Party/LwIP/src/apps/mqtt/mqtt.c ****           }
 3280              		.loc 1 882 25 view .LVU954
 3281 0102 D6E7     		b	.L238
 3282              	.L251:
 927:Middlewares/Third_Party/LwIP/src/apps/mqtt/mqtt.c **** }
 3283              		.loc 1 927 10 view .LVU955
 3284 0104 0023     		movs	r3, #0
 3285              	.L247:
 928:Middlewares/Third_Party/LwIP/src/apps/mqtt/mqtt.c **** 
 3286              		.loc 1 928 1 view .LVU956
 3287 0106 1846     		mov	r0, r3
 3288 0108 02B0     		add	sp, sp, #8
 3289              	.LCFI34:
 3290              		.cfi_def_cfa_offset 32
 3291              		@ sp needed
 3292 010a BDE8F087 		pop	{r4, r5, r6, r7, r8, r9, r10, pc}
 928:Middlewares/Third_Party/LwIP/src/apps/mqtt/mqtt.c **** 
 3293              		.loc 1 928 1 view .LVU957
 3294              		.cfi_endproc
 3295              	.LFE196:
 3297              		.section	.rodata.mqtt_tcp_recv_cb.str1.4,"aMS",%progbits,1
 3298              		.align	2
 3299              	.LC15:
 3300 0000 6D717474 		.ascii	"mqtt_tcp_recv_cb: client != NULL\000"
 3300      5F746370 
 3300      5F726563 
 3300      765F6362 
 3300      3A20636C 
 3301 0021 000000   		.align	2
 3302              	.LC16:
 3303 0024 6D717474 		.ascii	"mqtt_tcp_recv_cb: client->conn == pcb\000"
 3303      5F746370 
 3303      5F726563 
 3303      765F6362 
 3303      3A20636C 
 3304              		.section	.text.mqtt_tcp_recv_cb,"ax",%progbits
 3305              		.align	1
 3306              		.syntax unified
 3307              		.thumb
 3308              		.thumb_func
 3310              	mqtt_tcp_recv_cb:
 3311              	.LVL375:
 3312              	.LFB197:
 940:Middlewares/Third_Party/LwIP/src/apps/mqtt/mqtt.c ****   mqtt_client_t *client = (mqtt_client_t *)arg;
 3313              		.loc 1 940 1 is_stmt 1 view -0
 3314              		.cfi_startproc
 3315              		@ args = 0, pretend = 0, frame = 0
 3316              		@ frame_needed = 0, uses_anonymous_args = 0
ARM GAS  C:\Users\hh\AppData\Local\Temp\cc3qgJrr.s 			page 93


 940:Middlewares/Third_Party/LwIP/src/apps/mqtt/mqtt.c ****   mqtt_client_t *client = (mqtt_client_t *)arg;
 3317              		.loc 1 940 1 is_stmt 0 view .LVU959
 3318 0000 F8B5     		push	{r3, r4, r5, r6, r7, lr}
 3319              	.LCFI35:
 3320              		.cfi_def_cfa_offset 24
 3321              		.cfi_offset 3, -24
 3322              		.cfi_offset 4, -20
 3323              		.cfi_offset 5, -16
 3324              		.cfi_offset 6, -12
 3325              		.cfi_offset 7, -8
 3326              		.cfi_offset 14, -4
 3327 0002 0E46     		mov	r6, r1
 3328 0004 1446     		mov	r4, r2
 3329 0006 1F46     		mov	r7, r3
 941:Middlewares/Third_Party/LwIP/src/apps/mqtt/mqtt.c ****   LWIP_ASSERT("mqtt_tcp_recv_cb: client != NULL", client != NULL);
 3330              		.loc 1 941 3 is_stmt 1 view .LVU960
 3331              	.LVL376:
 942:Middlewares/Third_Party/LwIP/src/apps/mqtt/mqtt.c ****   LWIP_ASSERT("mqtt_tcp_recv_cb: client->conn == pcb", client->conn == pcb);
 3332              		.loc 1 942 3 view .LVU961
 942:Middlewares/Third_Party/LwIP/src/apps/mqtt/mqtt.c ****   LWIP_ASSERT("mqtt_tcp_recv_cb: client->conn == pcb", client->conn == pcb);
 3333              		.loc 1 942 3 view .LVU962
 3334 0008 0546     		mov	r5, r0
 3335 000a E8B1     		cbz	r0, .L261
 3336              	.LVL377:
 3337              	.L254:
 942:Middlewares/Third_Party/LwIP/src/apps/mqtt/mqtt.c ****   LWIP_ASSERT("mqtt_tcp_recv_cb: client->conn == pcb", client->conn == pcb);
 3338              		.loc 1 942 3 view .LVU963
 942:Middlewares/Third_Party/LwIP/src/apps/mqtt/mqtt.c ****   LWIP_ASSERT("mqtt_tcp_recv_cb: client->conn == pcb", client->conn == pcb);
 3339              		.loc 1 942 3 view .LVU964
 943:Middlewares/Third_Party/LwIP/src/apps/mqtt/mqtt.c **** 
 3340              		.loc 1 943 3 view .LVU965
 943:Middlewares/Third_Party/LwIP/src/apps/mqtt/mqtt.c **** 
 3341              		.loc 1 943 3 view .LVU966
 3342 000c EB68     		ldr	r3, [r5, #12]
 3343 000e B342     		cmp	r3, r6
 3344 0010 06D0     		beq	.L255
 943:Middlewares/Third_Party/LwIP/src/apps/mqtt/mqtt.c **** 
 3345              		.loc 1 943 3 discriminator 1 view .LVU967
 943:Middlewares/Third_Party/LwIP/src/apps/mqtt/mqtt.c **** 
 3346              		.loc 1 943 3 discriminator 1 view .LVU968
 3347 0012 1A4B     		ldr	r3, .L265
 3348 0014 40F2AF32 		movw	r2, #943
 3349 0018 1949     		ldr	r1, .L265+4
 3350 001a 1A48     		ldr	r0, .L265+8
 3351 001c FFF7FEFF 		bl	printf
 3352              	.LVL378:
 3353              	.L255:
 943:Middlewares/Third_Party/LwIP/src/apps/mqtt/mqtt.c **** 
 3354              		.loc 1 943 3 view .LVU969
 943:Middlewares/Third_Party/LwIP/src/apps/mqtt/mqtt.c **** 
 3355              		.loc 1 943 3 view .LVU970
 945:Middlewares/Third_Party/LwIP/src/apps/mqtt/mqtt.c ****     LWIP_DEBUGF(MQTT_DEBUG_TRACE, ("mqtt_tcp_recv_cb: Recv pbuf=NULL, remote has closed connection\
 3356              		.loc 1 945 3 view .LVU971
 945:Middlewares/Third_Party/LwIP/src/apps/mqtt/mqtt.c ****     LWIP_DEBUGF(MQTT_DEBUG_TRACE, ("mqtt_tcp_recv_cb: Recv pbuf=NULL, remote has closed connection\
 3357              		.loc 1 945 6 is_stmt 0 view .LVU972
 3358 0020 D4B1     		cbz	r4, .L262
 3359              	.LBB14:
ARM GAS  C:\Users\hh\AppData\Local\Temp\cc3qgJrr.s 			page 94


 949:Middlewares/Third_Party/LwIP/src/apps/mqtt/mqtt.c ****     if (err != ERR_OK) {
 3360              		.loc 1 949 5 is_stmt 1 view .LVU973
 950:Middlewares/Third_Party/LwIP/src/apps/mqtt/mqtt.c ****       LWIP_DEBUGF(MQTT_DEBUG_WARN, ("mqtt_tcp_recv_cb: Recv err=%d\n", err));
 3361              		.loc 1 950 5 view .LVU974
 950:Middlewares/Third_Party/LwIP/src/apps/mqtt/mqtt.c ****       LWIP_DEBUGF(MQTT_DEBUG_WARN, ("mqtt_tcp_recv_cb: Recv err=%d\n", err));
 3362              		.loc 1 950 8 is_stmt 0 view .LVU975
 3363 0022 07BB     		cbnz	r7, .L263
 957:Middlewares/Third_Party/LwIP/src/apps/mqtt/mqtt.c ****     res = mqtt_parse_incoming(client, p);
 3364              		.loc 1 957 5 is_stmt 1 view .LVU976
 3365 0024 2189     		ldrh	r1, [r4, #8]
 3366 0026 3046     		mov	r0, r6
 3367 0028 FFF7FEFF 		bl	tcp_recved
 3368              	.LVL379:
 958:Middlewares/Third_Party/LwIP/src/apps/mqtt/mqtt.c ****     pbuf_free(p);
 3369              		.loc 1 958 5 view .LVU977
 958:Middlewares/Third_Party/LwIP/src/apps/mqtt/mqtt.c ****     pbuf_free(p);
 3370              		.loc 1 958 11 is_stmt 0 view .LVU978
 3371 002c 2146     		mov	r1, r4
 3372 002e 2846     		mov	r0, r5
 3373 0030 FFF7FEFF 		bl	mqtt_parse_incoming
 3374              	.LVL380:
 3375 0034 0646     		mov	r6, r0
 3376              	.LVL381:
 959:Middlewares/Third_Party/LwIP/src/apps/mqtt/mqtt.c **** 
 3377              		.loc 1 959 5 is_stmt 1 view .LVU979
 3378 0036 2046     		mov	r0, r4
 3379 0038 FFF7FEFF 		bl	pbuf_free
 3380              	.LVL382:
 961:Middlewares/Third_Party/LwIP/src/apps/mqtt/mqtt.c ****       mqtt_close(client, res);
 3381              		.loc 1 961 5 view .LVU980
 961:Middlewares/Third_Party/LwIP/src/apps/mqtt/mqtt.c ****       mqtt_close(client, res);
 3382              		.loc 1 961 8 is_stmt 0 view .LVU981
 3383 003c C6B9     		cbnz	r6, .L264
 3384              	.L259:
 965:Middlewares/Third_Party/LwIP/src/apps/mqtt/mqtt.c ****       /* Reset server alive watchdog */
 3385              		.loc 1 965 5 is_stmt 1 view .LVU982
 965:Middlewares/Third_Party/LwIP/src/apps/mqtt/mqtt.c ****       /* Reset server alive watchdog */
 3386              		.loc 1 965 15 is_stmt 0 view .LVU983
 3387 003e 6B88     		ldrh	r3, [r5, #2]
 965:Middlewares/Third_Party/LwIP/src/apps/mqtt/mqtt.c ****       /* Reset server alive watchdog */
 3388              		.loc 1 965 8 view .LVU984
 3389 0040 A3B1     		cbz	r3, .L257
 967:Middlewares/Third_Party/LwIP/src/apps/mqtt/mqtt.c ****     }
 3390              		.loc 1 967 7 is_stmt 1 view .LVU985
 967:Middlewares/Third_Party/LwIP/src/apps/mqtt/mqtt.c ****     }
 3391              		.loc 1 967 31 is_stmt 0 view .LVU986
 3392 0042 0023     		movs	r3, #0
 3393 0044 AB80     		strh	r3, [r5, #4]	@ movhi
 3394 0046 11E0     		b	.L257
 3395              	.LVL383:
 3396              	.L261:
 967:Middlewares/Third_Party/LwIP/src/apps/mqtt/mqtt.c ****     }
 3397              		.loc 1 967 31 view .LVU987
 3398              	.LBE14:
 942:Middlewares/Third_Party/LwIP/src/apps/mqtt/mqtt.c ****   LWIP_ASSERT("mqtt_tcp_recv_cb: client->conn == pcb", client->conn == pcb);
 3399              		.loc 1 942 3 is_stmt 1 discriminator 1 view .LVU988
 942:Middlewares/Third_Party/LwIP/src/apps/mqtt/mqtt.c ****   LWIP_ASSERT("mqtt_tcp_recv_cb: client->conn == pcb", client->conn == pcb);
ARM GAS  C:\Users\hh\AppData\Local\Temp\cc3qgJrr.s 			page 95


 3400              		.loc 1 942 3 discriminator 1 view .LVU989
 3401 0048 0C4B     		ldr	r3, .L265
 3402              	.LVL384:
 942:Middlewares/Third_Party/LwIP/src/apps/mqtt/mqtt.c ****   LWIP_ASSERT("mqtt_tcp_recv_cb: client->conn == pcb", client->conn == pcb);
 3403              		.loc 1 942 3 is_stmt 0 discriminator 1 view .LVU990
 3404 004a 40F2AE32 		movw	r2, #942
 3405              	.LVL385:
 942:Middlewares/Third_Party/LwIP/src/apps/mqtt/mqtt.c ****   LWIP_ASSERT("mqtt_tcp_recv_cb: client->conn == pcb", client->conn == pcb);
 3406              		.loc 1 942 3 discriminator 1 view .LVU991
 3407 004e 0E49     		ldr	r1, .L265+12
 3408              	.LVL386:
 942:Middlewares/Third_Party/LwIP/src/apps/mqtt/mqtt.c ****   LWIP_ASSERT("mqtt_tcp_recv_cb: client->conn == pcb", client->conn == pcb);
 3409              		.loc 1 942 3 discriminator 1 view .LVU992
 3410 0050 0C48     		ldr	r0, .L265+8
 3411              	.LVL387:
 942:Middlewares/Third_Party/LwIP/src/apps/mqtt/mqtt.c ****   LWIP_ASSERT("mqtt_tcp_recv_cb: client->conn == pcb", client->conn == pcb);
 3412              		.loc 1 942 3 discriminator 1 view .LVU993
 3413 0052 FFF7FEFF 		bl	printf
 3414              	.LVL388:
 3415 0056 D9E7     		b	.L254
 3416              	.L262:
 946:Middlewares/Third_Party/LwIP/src/apps/mqtt/mqtt.c ****     mqtt_close(client, MQTT_CONNECT_DISCONNECTED);
 3417              		.loc 1 946 104 is_stmt 1 view .LVU994
 947:Middlewares/Third_Party/LwIP/src/apps/mqtt/mqtt.c ****   } else {
 3418              		.loc 1 947 5 view .LVU995
 3419 0058 4FF48071 		mov	r1, #256
 3420 005c 2846     		mov	r0, r5
 3421 005e FFF7FEFF 		bl	mqtt_close
 3422              	.LVL389:
 971:Middlewares/Third_Party/LwIP/src/apps/mqtt/mqtt.c **** }
 3423              		.loc 1 971 10 is_stmt 0 view .LVU996
 3424 0062 2746     		mov	r7, r4
 3425              	.LVL390:
 971:Middlewares/Third_Party/LwIP/src/apps/mqtt/mqtt.c **** }
 3426              		.loc 1 971 10 view .LVU997
 3427 0064 02E0     		b	.L257
 3428              	.L263:
 3429              	.LBB15:
 951:Middlewares/Third_Party/LwIP/src/apps/mqtt/mqtt.c ****       pbuf_free(p);
 3430              		.loc 1 951 77 is_stmt 1 view .LVU998
 952:Middlewares/Third_Party/LwIP/src/apps/mqtt/mqtt.c ****       return err;
 3431              		.loc 1 952 7 view .LVU999
 3432 0066 2046     		mov	r0, r4
 3433 0068 FFF7FEFF 		bl	pbuf_free
 3434              	.LVL391:
 953:Middlewares/Third_Party/LwIP/src/apps/mqtt/mqtt.c ****     }
 3435              		.loc 1 953 7 view .LVU1000
 3436              	.L257:
 953:Middlewares/Third_Party/LwIP/src/apps/mqtt/mqtt.c ****     }
 3437              		.loc 1 953 7 is_stmt 0 view .LVU1001
 3438              	.LBE15:
 972:Middlewares/Third_Party/LwIP/src/apps/mqtt/mqtt.c **** 
 3439              		.loc 1 972 1 view .LVU1002
 3440 006c 3846     		mov	r0, r7
 3441 006e F8BD     		pop	{r3, r4, r5, r6, r7, pc}
 3442              	.LVL392:
 3443              	.L264:
ARM GAS  C:\Users\hh\AppData\Local\Temp\cc3qgJrr.s 			page 96


 3444              	.LBB16:
 962:Middlewares/Third_Party/LwIP/src/apps/mqtt/mqtt.c ****     }
 3445              		.loc 1 962 7 is_stmt 1 view .LVU1003
 3446 0070 3146     		mov	r1, r6
 3447 0072 2846     		mov	r0, r5
 3448 0074 FFF7FEFF 		bl	mqtt_close
 3449              	.LVL393:
 3450 0078 E1E7     		b	.L259
 3451              	.L266:
 3452 007a 00BF     		.align	2
 3453              	.L265:
 3454 007c 00000000 		.word	.LC0
 3455 0080 24000000 		.word	.LC16
 3456 0084 58000000 		.word	.LC2
 3457 0088 00000000 		.word	.LC15
 3458              	.LBE16:
 3459              		.cfi_endproc
 3460              	.LFE197:
 3462              		.section	.rodata.mqtt_publish.str1.4,"aMS",%progbits,1
 3463              		.align	2
 3464              	.LC17:
 3465 0000 6D717474 		.ascii	"mqtt_publish: client != NULL\000"
 3465      5F707562 
 3465      6C697368 
 3465      3A20636C 
 3465      69656E74 
 3466 001d 000000   		.align	2
 3467              	.LC18:
 3468 0020 6D717474 		.ascii	"mqtt_publish: topic != NULL\000"
 3468      5F707562 
 3468      6C697368 
 3468      3A20746F 
 3468      70696320 
 3469              		.section	.text.mqtt_publish,"ax",%progbits
 3470              		.align	1
 3471              		.global	mqtt_publish
 3472              		.syntax unified
 3473              		.thumb
 3474              		.thumb_func
 3476              	mqtt_publish:
 3477              	.LVL394:
 3478              	.LFB202:
1081:Middlewares/Third_Party/LwIP/src/apps/mqtt/mqtt.c **** 
1082:Middlewares/Third_Party/LwIP/src/apps/mqtt/mqtt.c **** 
1083:Middlewares/Third_Party/LwIP/src/apps/mqtt/mqtt.c **** 
1084:Middlewares/Third_Party/LwIP/src/apps/mqtt/mqtt.c **** /*-------------------------------------------------------------------------------------------------
1085:Middlewares/Third_Party/LwIP/src/apps/mqtt/mqtt.c **** /* Public API */
1086:Middlewares/Third_Party/LwIP/src/apps/mqtt/mqtt.c **** 
1087:Middlewares/Third_Party/LwIP/src/apps/mqtt/mqtt.c **** 
1088:Middlewares/Third_Party/LwIP/src/apps/mqtt/mqtt.c **** /**
1089:Middlewares/Third_Party/LwIP/src/apps/mqtt/mqtt.c ****  * @ingroup mqtt
1090:Middlewares/Third_Party/LwIP/src/apps/mqtt/mqtt.c ****  * MQTT publish function.
1091:Middlewares/Third_Party/LwIP/src/apps/mqtt/mqtt.c ****  * @param client MQTT client
1092:Middlewares/Third_Party/LwIP/src/apps/mqtt/mqtt.c ****  * @param topic Publish topic string
1093:Middlewares/Third_Party/LwIP/src/apps/mqtt/mqtt.c ****  * @param payload Data to publish (NULL is allowed)
1094:Middlewares/Third_Party/LwIP/src/apps/mqtt/mqtt.c ****  * @param payload_length Length of payload (0 is allowed)
1095:Middlewares/Third_Party/LwIP/src/apps/mqtt/mqtt.c ****  * @param qos Quality of service, 0 1 or 2
ARM GAS  C:\Users\hh\AppData\Local\Temp\cc3qgJrr.s 			page 97


1096:Middlewares/Third_Party/LwIP/src/apps/mqtt/mqtt.c ****  * @param retain MQTT retain flag
1097:Middlewares/Third_Party/LwIP/src/apps/mqtt/mqtt.c ****  * @param cb Callback to call when publish is complete or has timed out
1098:Middlewares/Third_Party/LwIP/src/apps/mqtt/mqtt.c ****  * @param arg User supplied argument to publish callback
1099:Middlewares/Third_Party/LwIP/src/apps/mqtt/mqtt.c ****  * @return ERR_OK if successful
1100:Middlewares/Third_Party/LwIP/src/apps/mqtt/mqtt.c ****  *         ERR_CONN if client is disconnected
1101:Middlewares/Third_Party/LwIP/src/apps/mqtt/mqtt.c ****  *         ERR_MEM if short on memory
1102:Middlewares/Third_Party/LwIP/src/apps/mqtt/mqtt.c ****  */
1103:Middlewares/Third_Party/LwIP/src/apps/mqtt/mqtt.c **** err_t
1104:Middlewares/Third_Party/LwIP/src/apps/mqtt/mqtt.c **** mqtt_publish(mqtt_client_t *client, const char *topic, const void *payload, u16_t payload_length, u
1105:Middlewares/Third_Party/LwIP/src/apps/mqtt/mqtt.c ****              mqtt_request_cb_t cb, void *arg)
1106:Middlewares/Third_Party/LwIP/src/apps/mqtt/mqtt.c **** {
 3479              		.loc 1 1106 1 view -0
 3480              		.cfi_startproc
 3481              		@ args = 16, pretend = 0, frame = 8
 3482              		@ frame_needed = 0, uses_anonymous_args = 0
 3483              		.loc 1 1106 1 is_stmt 0 view .LVU1005
 3484 0000 2DE9F04F 		push	{r4, r5, r6, r7, r8, r9, r10, fp, lr}
 3485              	.LCFI36:
 3486              		.cfi_def_cfa_offset 36
 3487              		.cfi_offset 4, -36
 3488              		.cfi_offset 5, -32
 3489              		.cfi_offset 6, -28
 3490              		.cfi_offset 7, -24
 3491              		.cfi_offset 8, -20
 3492              		.cfi_offset 9, -16
 3493              		.cfi_offset 10, -12
 3494              		.cfi_offset 11, -8
 3495              		.cfi_offset 14, -4
 3496 0004 85B0     		sub	sp, sp, #20
 3497              	.LCFI37:
 3498              		.cfi_def_cfa_offset 56
 3499 0006 0F46     		mov	r7, r1
 3500 0008 9346     		mov	fp, r2
 3501 000a 9946     		mov	r9, r3
 3502 000c 9DF838A0 		ldrb	r10, [sp, #56]	@ zero_extendqisi2
1107:Middlewares/Third_Party/LwIP/src/apps/mqtt/mqtt.c ****   struct mqtt_request_t *r;
 3503              		.loc 1 1107 3 is_stmt 1 view .LVU1006
1108:Middlewares/Third_Party/LwIP/src/apps/mqtt/mqtt.c ****   u16_t pkt_id;
 3504              		.loc 1 1108 3 view .LVU1007
1109:Middlewares/Third_Party/LwIP/src/apps/mqtt/mqtt.c ****   size_t topic_strlen;
 3505              		.loc 1 1109 3 view .LVU1008
1110:Middlewares/Third_Party/LwIP/src/apps/mqtt/mqtt.c ****   size_t total_len;
 3506              		.loc 1 1110 3 view .LVU1009
1111:Middlewares/Third_Party/LwIP/src/apps/mqtt/mqtt.c ****   u16_t topic_len;
 3507              		.loc 1 1111 3 view .LVU1010
1112:Middlewares/Third_Party/LwIP/src/apps/mqtt/mqtt.c ****   u16_t remaining_length;
 3508              		.loc 1 1112 3 view .LVU1011
1113:Middlewares/Third_Party/LwIP/src/apps/mqtt/mqtt.c **** 
1114:Middlewares/Third_Party/LwIP/src/apps/mqtt/mqtt.c ****   LWIP_ASSERT_CORE_LOCKED();
 3509              		.loc 1 1114 28 view .LVU1012
1115:Middlewares/Third_Party/LwIP/src/apps/mqtt/mqtt.c ****   LWIP_ASSERT("mqtt_publish: client != NULL", client);
 3510              		.loc 1 1115 3 view .LVU1013
 3511              		.loc 1 1115 3 view .LVU1014
 3512 0010 0646     		mov	r6, r0
 3513 0012 0028     		cmp	r0, #0
 3514 0014 50D0     		beq	.L281
 3515              	.LVL395:
ARM GAS  C:\Users\hh\AppData\Local\Temp\cc3qgJrr.s 			page 98


 3516              	.L268:
 3517              		.loc 1 1115 3 view .LVU1015
 3518              		.loc 1 1115 3 view .LVU1016
1116:Middlewares/Third_Party/LwIP/src/apps/mqtt/mqtt.c ****   LWIP_ASSERT("mqtt_publish: topic != NULL", topic);
 3519              		.loc 1 1116 3 view .LVU1017
 3520              		.loc 1 1116 3 view .LVU1018
 3521 0016 002F     		cmp	r7, #0
 3522 0018 56D0     		beq	.L282
 3523              	.L269:
 3524              		.loc 1 1116 3 view .LVU1019
 3525              		.loc 1 1116 3 view .LVU1020
1117:Middlewares/Third_Party/LwIP/src/apps/mqtt/mqtt.c ****   LWIP_ERROR("mqtt_publish: TCP disconnected", (client->conn_state != TCP_DISCONNECTED), return ERR
 3526              		.loc 1 1117 3 view .LVU1021
 3527              		.loc 1 1117 3 view .LVU1022
 3528 001a B37A     		ldrb	r3, [r6, #10]	@ zero_extendqisi2
 3529 001c 002B     		cmp	r3, #0
 3530 001e 72D0     		beq	.L275
 3531              		.loc 1 1117 3 view .LVU1023
1118:Middlewares/Third_Party/LwIP/src/apps/mqtt/mqtt.c **** 
1119:Middlewares/Third_Party/LwIP/src/apps/mqtt/mqtt.c ****   topic_strlen = strlen(topic);
 3532              		.loc 1 1119 3 view .LVU1024
 3533              		.loc 1 1119 18 is_stmt 0 view .LVU1025
 3534 0020 3846     		mov	r0, r7
 3535 0022 FFF7FEFF 		bl	strlen
 3536              	.LVL396:
1120:Middlewares/Third_Party/LwIP/src/apps/mqtt/mqtt.c ****   LWIP_ERROR("mqtt_publish: topic length overflow", (topic_strlen <= (0xFFFF - 2)), return ERR_ARG)
 3537              		.loc 1 1120 3 is_stmt 1 view .LVU1026
 3538              		.loc 1 1120 3 view .LVU1027
 3539 0026 4FF6FD73 		movw	r3, #65533
 3540 002a 9842     		cmp	r0, r3
 3541 002c 6ED8     		bhi	.L276
 3542              		.loc 1 1120 3 view .LVU1028
1121:Middlewares/Third_Party/LwIP/src/apps/mqtt/mqtt.c ****   topic_len = (u16_t)topic_strlen;
 3543              		.loc 1 1121 3 view .LVU1029
 3544              		.loc 1 1121 13 is_stmt 0 view .LVU1030
 3545 002e 85B2     		uxth	r5, r0
 3546              	.LVL397:
1122:Middlewares/Third_Party/LwIP/src/apps/mqtt/mqtt.c ****   total_len = 2 + topic_len + payload_length;
 3547              		.loc 1 1122 3 is_stmt 1 view .LVU1031
 3548              		.loc 1 1122 17 is_stmt 0 view .LVU1032
 3549 0030 AC1C     		adds	r4, r5, #2
 3550              		.loc 1 1122 29 view .LVU1033
 3551 0032 4C44     		add	r4, r4, r9
 3552              	.LVL398:
1123:Middlewares/Third_Party/LwIP/src/apps/mqtt/mqtt.c **** 
1124:Middlewares/Third_Party/LwIP/src/apps/mqtt/mqtt.c ****   if (qos > 0) {
 3553              		.loc 1 1124 3 is_stmt 1 view .LVU1034
 3554              		.loc 1 1124 6 is_stmt 0 view .LVU1035
 3555 0034 BAF1000F 		cmp	r10, #0
 3556 0038 4ED1     		bne	.L283
1125:Middlewares/Third_Party/LwIP/src/apps/mqtt/mqtt.c ****     total_len += 2;
1126:Middlewares/Third_Party/LwIP/src/apps/mqtt/mqtt.c ****     /* Generate pkt_id id for QoS1 and 2 */
1127:Middlewares/Third_Party/LwIP/src/apps/mqtt/mqtt.c ****     pkt_id = msg_generate_packet_id(client);
1128:Middlewares/Third_Party/LwIP/src/apps/mqtt/mqtt.c ****   } else {
1129:Middlewares/Third_Party/LwIP/src/apps/mqtt/mqtt.c ****     /* Use reserved value pkt_id 0 for QoS 0 in request handle */
1130:Middlewares/Third_Party/LwIP/src/apps/mqtt/mqtt.c ****     pkt_id = 0;
 3557              		.loc 1 1130 12 view .LVU1036
ARM GAS  C:\Users\hh\AppData\Local\Temp\cc3qgJrr.s 			page 99


 3558 003a CDF808A0 		str	r10, [sp, #8]
 3559              	.LVL399:
 3560              	.L271:
1131:Middlewares/Third_Party/LwIP/src/apps/mqtt/mqtt.c ****   }
1132:Middlewares/Third_Party/LwIP/src/apps/mqtt/mqtt.c ****   LWIP_ERROR("mqtt_publish: total length overflow", (total_len <= 0xFFFF), return ERR_ARG);
 3561              		.loc 1 1132 3 is_stmt 1 view .LVU1037
 3562              		.loc 1 1132 3 view .LVU1038
 3563 003e B4F5803F 		cmp	r4, #65536
 3564 0042 66D2     		bcs	.L278
 3565              		.loc 1 1132 3 view .LVU1039
1133:Middlewares/Third_Party/LwIP/src/apps/mqtt/mqtt.c ****   remaining_length = (u16_t)total_len;
 3566              		.loc 1 1133 3 view .LVU1040
 3567              		.loc 1 1133 20 is_stmt 0 view .LVU1041
 3568 0044 A4B2     		uxth	r4, r4
 3569              	.LVL400:
1134:Middlewares/Third_Party/LwIP/src/apps/mqtt/mqtt.c **** 
1135:Middlewares/Third_Party/LwIP/src/apps/mqtt/mqtt.c ****   LWIP_DEBUGF(MQTT_DEBUG_TRACE, ("mqtt_publish: Publish with payload length %d to topic \"%s\"\n", 
 3570              		.loc 1 1135 123 is_stmt 1 view .LVU1042
1136:Middlewares/Third_Party/LwIP/src/apps/mqtt/mqtt.c **** 
1137:Middlewares/Third_Party/LwIP/src/apps/mqtt/mqtt.c ****   r = mqtt_create_request(client->req_list, LWIP_ARRAYSIZE(client->req_list), pkt_id, cb, arg);
 3571              		.loc 1 1137 3 view .LVU1043
 3572              		.loc 1 1137 7 is_stmt 0 view .LVU1044
 3573 0046 119B     		ldr	r3, [sp, #68]
 3574 0048 0093     		str	r3, [sp]
 3575 004a 109B     		ldr	r3, [sp, #64]
 3576 004c 029A     		ldr	r2, [sp, #8]
 3577 004e 0421     		movs	r1, #4
 3578 0050 06F11C00 		add	r0, r6, #28
 3579 0054 FFF7FEFF 		bl	mqtt_create_request
 3580              	.LVL401:
1138:Middlewares/Third_Party/LwIP/src/apps/mqtt/mqtt.c ****   if (r == NULL) {
 3581              		.loc 1 1138 3 is_stmt 1 view .LVU1045
 3582              		.loc 1 1138 6 is_stmt 0 view .LVU1046
 3583 0058 0390     		str	r0, [sp, #12]
 3584 005a 0028     		cmp	r0, #0
 3585 005c 5CD0     		beq	.L279
1139:Middlewares/Third_Party/LwIP/src/apps/mqtt/mqtt.c ****     return ERR_MEM;
1140:Middlewares/Third_Party/LwIP/src/apps/mqtt/mqtt.c ****   }
1141:Middlewares/Third_Party/LwIP/src/apps/mqtt/mqtt.c **** 
1142:Middlewares/Third_Party/LwIP/src/apps/mqtt/mqtt.c ****   if (mqtt_output_check_space(&client->output, remaining_length) == 0) {
 3586              		.loc 1 1142 3 is_stmt 1 view .LVU1047
 3587              		.loc 1 1142 7 is_stmt 0 view .LVU1048
 3588 005e 06F1EC08 		add	r8, r6, #236
 3589 0062 2146     		mov	r1, r4
 3590 0064 4046     		mov	r0, r8
 3591              	.LVL402:
 3592              		.loc 1 1142 7 view .LVU1049
 3593 0066 FFF7FEFF 		bl	mqtt_output_check_space
 3594              	.LVL403:
 3595              		.loc 1 1142 6 discriminator 1 view .LVU1050
 3596 006a 0028     		cmp	r0, #0
 3597 006c 3AD0     		beq	.L284
1143:Middlewares/Third_Party/LwIP/src/apps/mqtt/mqtt.c ****     mqtt_delete_request(r);
1144:Middlewares/Third_Party/LwIP/src/apps/mqtt/mqtt.c ****     return ERR_MEM;
1145:Middlewares/Third_Party/LwIP/src/apps/mqtt/mqtt.c ****   }
1146:Middlewares/Third_Party/LwIP/src/apps/mqtt/mqtt.c ****   /* Append fixed header */
1147:Middlewares/Third_Party/LwIP/src/apps/mqtt/mqtt.c ****   mqtt_output_append_fixed_header(&client->output, MQTT_MSG_TYPE_PUBLISH, 0, qos, retain, remaining
ARM GAS  C:\Users\hh\AppData\Local\Temp\cc3qgJrr.s 			page 100


 3598              		.loc 1 1147 3 is_stmt 1 view .LVU1051
 3599 006e 0194     		str	r4, [sp, #4]
 3600 0070 9DF83C30 		ldrb	r3, [sp, #60]	@ zero_extendqisi2
 3601 0074 0093     		str	r3, [sp]
 3602 0076 5346     		mov	r3, r10
 3603 0078 0022     		movs	r2, #0
 3604 007a 0321     		movs	r1, #3
 3605 007c 4046     		mov	r0, r8
 3606 007e FFF7FEFF 		bl	mqtt_output_append_fixed_header
 3607              	.LVL404:
1148:Middlewares/Third_Party/LwIP/src/apps/mqtt/mqtt.c **** 
1149:Middlewares/Third_Party/LwIP/src/apps/mqtt/mqtt.c ****   /* Append Topic */
1150:Middlewares/Third_Party/LwIP/src/apps/mqtt/mqtt.c ****   mqtt_output_append_string(&client->output, topic, topic_len);
 3608              		.loc 1 1150 3 view .LVU1052
 3609 0082 2A46     		mov	r2, r5
 3610 0084 3946     		mov	r1, r7
 3611 0086 4046     		mov	r0, r8
 3612 0088 FFF7FEFF 		bl	mqtt_output_append_string
 3613              	.LVL405:
1151:Middlewares/Third_Party/LwIP/src/apps/mqtt/mqtt.c **** 
1152:Middlewares/Third_Party/LwIP/src/apps/mqtt/mqtt.c ****   /* Append packet if for QoS 1 and 2*/
1153:Middlewares/Third_Party/LwIP/src/apps/mqtt/mqtt.c ****   if (qos > 0) {
 3614              		.loc 1 1153 3 view .LVU1053
 3615              		.loc 1 1153 6 is_stmt 0 view .LVU1054
 3616 008c BAF1000F 		cmp	r10, #0
 3617 0090 2ED1     		bne	.L285
 3618              	.L273:
1154:Middlewares/Third_Party/LwIP/src/apps/mqtt/mqtt.c ****     mqtt_output_append_u16(&client->output, pkt_id);
1155:Middlewares/Third_Party/LwIP/src/apps/mqtt/mqtt.c ****   }
1156:Middlewares/Third_Party/LwIP/src/apps/mqtt/mqtt.c **** 
1157:Middlewares/Third_Party/LwIP/src/apps/mqtt/mqtt.c ****   /* Append optional publish payload */
1158:Middlewares/Third_Party/LwIP/src/apps/mqtt/mqtt.c ****   if ((payload != NULL) && (payload_length > 0)) {
 3619              		.loc 1 1158 3 is_stmt 1 view .LVU1055
 3620              		.loc 1 1158 6 is_stmt 0 view .LVU1056
 3621 0092 5B46     		mov	r3, fp
 3622 0094 002B     		cmp	r3, #0
 3623 0096 18BF     		it	ne
 3624 0098 B9F1000F 		cmpne	r9, #0
 3625 009c 2DD1     		bne	.L286
 3626              	.L274:
1159:Middlewares/Third_Party/LwIP/src/apps/mqtt/mqtt.c ****     mqtt_output_append_buf(&client->output, payload, payload_length);
1160:Middlewares/Third_Party/LwIP/src/apps/mqtt/mqtt.c ****   }
1161:Middlewares/Third_Party/LwIP/src/apps/mqtt/mqtt.c **** 
1162:Middlewares/Third_Party/LwIP/src/apps/mqtt/mqtt.c ****   mqtt_append_request(&client->pend_req_queue, r);
 3627              		.loc 1 1162 3 is_stmt 1 view .LVU1057
 3628 009e 0399     		ldr	r1, [sp, #12]
 3629 00a0 06F11800 		add	r0, r6, #24
 3630 00a4 FFF7FEFF 		bl	mqtt_append_request
 3631              	.LVL406:
1163:Middlewares/Third_Party/LwIP/src/apps/mqtt/mqtt.c ****   mqtt_output_send(&client->output, client->conn);
 3632              		.loc 1 1163 3 view .LVU1058
 3633 00a8 F168     		ldr	r1, [r6, #12]
 3634 00aa 4046     		mov	r0, r8
 3635 00ac FFF7FEFF 		bl	mqtt_output_send
 3636              	.LVL407:
1164:Middlewares/Third_Party/LwIP/src/apps/mqtt/mqtt.c ****   return ERR_OK;
 3637              		.loc 1 1164 3 view .LVU1059
ARM GAS  C:\Users\hh\AppData\Local\Temp\cc3qgJrr.s 			page 101


 3638              		.loc 1 1164 10 is_stmt 0 view .LVU1060
 3639 00b0 0020     		movs	r0, #0
 3640              	.LVL408:
 3641              	.L270:
1165:Middlewares/Third_Party/LwIP/src/apps/mqtt/mqtt.c **** }
 3642              		.loc 1 1165 1 view .LVU1061
 3643 00b2 05B0     		add	sp, sp, #20
 3644              	.LCFI38:
 3645              		.cfi_remember_state
 3646              		.cfi_def_cfa_offset 36
 3647              		@ sp needed
 3648 00b4 BDE8F08F 		pop	{r4, r5, r6, r7, r8, r9, r10, fp, pc}
 3649              	.LVL409:
 3650              	.L281:
 3651              	.LCFI39:
 3652              		.cfi_restore_state
1115:Middlewares/Third_Party/LwIP/src/apps/mqtt/mqtt.c ****   LWIP_ASSERT("mqtt_publish: topic != NULL", topic);
 3653              		.loc 1 1115 3 is_stmt 1 discriminator 1 view .LVU1062
1115:Middlewares/Third_Party/LwIP/src/apps/mqtt/mqtt.c ****   LWIP_ASSERT("mqtt_publish: topic != NULL", topic);
 3654              		.loc 1 1115 3 discriminator 1 view .LVU1063
 3655 00b8 194B     		ldr	r3, .L287
 3656              	.LVL410:
1115:Middlewares/Third_Party/LwIP/src/apps/mqtt/mqtt.c ****   LWIP_ASSERT("mqtt_publish: topic != NULL", topic);
 3657              		.loc 1 1115 3 is_stmt 0 discriminator 1 view .LVU1064
 3658 00ba 40F25B42 		movw	r2, #1115
 3659              	.LVL411:
1115:Middlewares/Third_Party/LwIP/src/apps/mqtt/mqtt.c ****   LWIP_ASSERT("mqtt_publish: topic != NULL", topic);
 3660              		.loc 1 1115 3 discriminator 1 view .LVU1065
 3661 00be 1949     		ldr	r1, .L287+4
 3662              	.LVL412:
1115:Middlewares/Third_Party/LwIP/src/apps/mqtt/mqtt.c ****   LWIP_ASSERT("mqtt_publish: topic != NULL", topic);
 3663              		.loc 1 1115 3 discriminator 1 view .LVU1066
 3664 00c0 1948     		ldr	r0, .L287+8
 3665              	.LVL413:
1115:Middlewares/Third_Party/LwIP/src/apps/mqtt/mqtt.c ****   LWIP_ASSERT("mqtt_publish: topic != NULL", topic);
 3666              		.loc 1 1115 3 discriminator 1 view .LVU1067
 3667 00c2 FFF7FEFF 		bl	printf
 3668              	.LVL414:
 3669 00c6 A6E7     		b	.L268
 3670              	.L282:
1116:Middlewares/Third_Party/LwIP/src/apps/mqtt/mqtt.c ****   LWIP_ERROR("mqtt_publish: TCP disconnected", (client->conn_state != TCP_DISCONNECTED), return ERR
 3671              		.loc 1 1116 3 is_stmt 1 discriminator 1 view .LVU1068
1116:Middlewares/Third_Party/LwIP/src/apps/mqtt/mqtt.c ****   LWIP_ERROR("mqtt_publish: TCP disconnected", (client->conn_state != TCP_DISCONNECTED), return ERR
 3672              		.loc 1 1116 3 discriminator 1 view .LVU1069
 3673 00c8 154B     		ldr	r3, .L287
 3674 00ca 40F25C42 		movw	r2, #1116
 3675 00ce 1749     		ldr	r1, .L287+12
 3676 00d0 1548     		ldr	r0, .L287+8
 3677 00d2 FFF7FEFF 		bl	printf
 3678              	.LVL415:
 3679 00d6 A0E7     		b	.L269
 3680              	.LVL416:
 3681              	.L283:
1125:Middlewares/Third_Party/LwIP/src/apps/mqtt/mqtt.c ****     /* Generate pkt_id id for QoS1 and 2 */
 3682              		.loc 1 1125 5 view .LVU1070
1125:Middlewares/Third_Party/LwIP/src/apps/mqtt/mqtt.c ****     /* Generate pkt_id id for QoS1 and 2 */
 3683              		.loc 1 1125 15 is_stmt 0 view .LVU1071
ARM GAS  C:\Users\hh\AppData\Local\Temp\cc3qgJrr.s 			page 102


 3684 00d8 0234     		adds	r4, r4, #2
 3685              	.LVL417:
1127:Middlewares/Third_Party/LwIP/src/apps/mqtt/mqtt.c ****   } else {
 3686              		.loc 1 1127 5 is_stmt 1 view .LVU1072
1127:Middlewares/Third_Party/LwIP/src/apps/mqtt/mqtt.c ****   } else {
 3687              		.loc 1 1127 14 is_stmt 0 view .LVU1073
 3688 00da 3046     		mov	r0, r6
 3689              	.LVL418:
1127:Middlewares/Third_Party/LwIP/src/apps/mqtt/mqtt.c ****   } else {
 3690              		.loc 1 1127 14 view .LVU1074
 3691 00dc FFF7FEFF 		bl	msg_generate_packet_id
 3692              	.LVL419:
 3693 00e0 0290     		str	r0, [sp, #8]
 3694              	.LVL420:
1127:Middlewares/Third_Party/LwIP/src/apps/mqtt/mqtt.c ****   } else {
 3695              		.loc 1 1127 14 view .LVU1075
 3696 00e2 ACE7     		b	.L271
 3697              	.LVL421:
 3698              	.L284:
1143:Middlewares/Third_Party/LwIP/src/apps/mqtt/mqtt.c ****     return ERR_MEM;
 3699              		.loc 1 1143 5 is_stmt 1 view .LVU1076
 3700 00e4 0398     		ldr	r0, [sp, #12]
 3701 00e6 FFF7FEFF 		bl	mqtt_delete_request
 3702              	.LVL422:
1144:Middlewares/Third_Party/LwIP/src/apps/mqtt/mqtt.c ****   }
 3703              		.loc 1 1144 5 view .LVU1077
1144:Middlewares/Third_Party/LwIP/src/apps/mqtt/mqtt.c ****   }
 3704              		.loc 1 1144 12 is_stmt 0 view .LVU1078
 3705 00ea 4FF0FF30 		mov	r0, #-1
 3706 00ee E0E7     		b	.L270
 3707              	.L285:
1154:Middlewares/Third_Party/LwIP/src/apps/mqtt/mqtt.c ****   }
 3708              		.loc 1 1154 5 is_stmt 1 view .LVU1079
 3709 00f0 0299     		ldr	r1, [sp, #8]
 3710 00f2 4046     		mov	r0, r8
 3711 00f4 FFF7FEFF 		bl	mqtt_output_append_u16
 3712              	.LVL423:
 3713 00f8 CBE7     		b	.L273
 3714              	.LVL424:
 3715              	.L286:
1159:Middlewares/Third_Party/LwIP/src/apps/mqtt/mqtt.c ****   }
 3716              		.loc 1 1159 5 view .LVU1080
 3717 00fa 4A46     		mov	r2, r9
 3718 00fc 5946     		mov	r1, fp
 3719 00fe 4046     		mov	r0, r8
 3720 0100 FFF7FEFF 		bl	mqtt_output_append_buf
 3721              	.LVL425:
1159:Middlewares/Third_Party/LwIP/src/apps/mqtt/mqtt.c ****   }
 3722              		.loc 1 1159 5 is_stmt 0 view .LVU1081
 3723 0104 CBE7     		b	.L274
 3724              	.LVL426:
 3725              	.L275:
1117:Middlewares/Third_Party/LwIP/src/apps/mqtt/mqtt.c **** 
 3726              		.loc 1 1117 3 discriminator 1 view .LVU1082
 3727 0106 6FF00A00 		mvn	r0, #10
 3728 010a D2E7     		b	.L270
 3729              	.LVL427:
ARM GAS  C:\Users\hh\AppData\Local\Temp\cc3qgJrr.s 			page 103


 3730              	.L276:
1120:Middlewares/Third_Party/LwIP/src/apps/mqtt/mqtt.c ****   topic_len = (u16_t)topic_strlen;
 3731              		.loc 1 1120 3 discriminator 1 view .LVU1083
 3732 010c 6FF00F00 		mvn	r0, #15
 3733              	.LVL428:
1120:Middlewares/Third_Party/LwIP/src/apps/mqtt/mqtt.c ****   topic_len = (u16_t)topic_strlen;
 3734              		.loc 1 1120 3 discriminator 1 view .LVU1084
 3735 0110 CFE7     		b	.L270
 3736              	.LVL429:
 3737              	.L278:
1132:Middlewares/Third_Party/LwIP/src/apps/mqtt/mqtt.c ****   remaining_length = (u16_t)total_len;
 3738              		.loc 1 1132 3 discriminator 1 view .LVU1085
 3739 0112 6FF00F00 		mvn	r0, #15
 3740 0116 CCE7     		b	.L270
 3741              	.LVL430:
 3742              	.L279:
1139:Middlewares/Third_Party/LwIP/src/apps/mqtt/mqtt.c ****   }
 3743              		.loc 1 1139 12 view .LVU1086
 3744 0118 4FF0FF30 		mov	r0, #-1
 3745              	.LVL431:
1139:Middlewares/Third_Party/LwIP/src/apps/mqtt/mqtt.c ****   }
 3746              		.loc 1 1139 12 view .LVU1087
 3747 011c C9E7     		b	.L270
 3748              	.L288:
 3749 011e 00BF     		.align	2
 3750              	.L287:
 3751 0120 00000000 		.word	.LC0
 3752 0124 00000000 		.word	.LC17
 3753 0128 58000000 		.word	.LC2
 3754 012c 20000000 		.word	.LC18
 3755              		.cfi_endproc
 3756              	.LFE202:
 3758              		.section	.rodata.mqtt_sub_unsub.str1.4,"aMS",%progbits,1
 3759              		.align	2
 3760              	.LC19:
 3761 0000 6D717474 		.ascii	"mqtt_sub_unsub: client != NULL\000"
 3761      5F737562 
 3761      5F756E73 
 3761      75623A20 
 3761      636C6965 
 3762 001f 00       		.align	2
 3763              	.LC20:
 3764 0020 6D717474 		.ascii	"mqtt_sub_unsub: topic != NULL\000"
 3764      5F737562 
 3764      5F756E73 
 3764      75623A20 
 3764      746F7069 
 3765 003e 0000     		.align	2
 3766              	.LC21:
 3767 0040 6D717474 		.ascii	"mqtt_sub_unsub: qos < 3\000"
 3767      5F737562 
 3767      5F756E73 
 3767      75623A20 
 3767      716F7320 
 3768              		.section	.text.mqtt_sub_unsub,"ax",%progbits
 3769              		.align	1
 3770              		.global	mqtt_sub_unsub
ARM GAS  C:\Users\hh\AppData\Local\Temp\cc3qgJrr.s 			page 104


 3771              		.syntax unified
 3772              		.thumb
 3773              		.thumb_func
 3775              	mqtt_sub_unsub:
 3776              	.LVL432:
 3777              	.LFB203:
1166:Middlewares/Third_Party/LwIP/src/apps/mqtt/mqtt.c **** 
1167:Middlewares/Third_Party/LwIP/src/apps/mqtt/mqtt.c **** 
1168:Middlewares/Third_Party/LwIP/src/apps/mqtt/mqtt.c **** /**
1169:Middlewares/Third_Party/LwIP/src/apps/mqtt/mqtt.c ****  * @ingroup mqtt
1170:Middlewares/Third_Party/LwIP/src/apps/mqtt/mqtt.c ****  * MQTT subscribe/unsubscribe function.
1171:Middlewares/Third_Party/LwIP/src/apps/mqtt/mqtt.c ****  * @param client MQTT client
1172:Middlewares/Third_Party/LwIP/src/apps/mqtt/mqtt.c ****  * @param topic topic to subscribe to
1173:Middlewares/Third_Party/LwIP/src/apps/mqtt/mqtt.c ****  * @param qos Quality of service, 0 1 or 2 (only used for subscribe)
1174:Middlewares/Third_Party/LwIP/src/apps/mqtt/mqtt.c ****  * @param cb Callback to call when subscribe/unsubscribe response is received
1175:Middlewares/Third_Party/LwIP/src/apps/mqtt/mqtt.c ****  * @param arg User supplied argument to publish callback
1176:Middlewares/Third_Party/LwIP/src/apps/mqtt/mqtt.c ****  * @param sub 1 for subscribe, 0 for unsubscribe
1177:Middlewares/Third_Party/LwIP/src/apps/mqtt/mqtt.c ****  * @return ERR_OK if successful, @see err_t enum for other results
1178:Middlewares/Third_Party/LwIP/src/apps/mqtt/mqtt.c ****  */
1179:Middlewares/Third_Party/LwIP/src/apps/mqtt/mqtt.c **** err_t
1180:Middlewares/Third_Party/LwIP/src/apps/mqtt/mqtt.c **** mqtt_sub_unsub(mqtt_client_t *client, const char *topic, u8_t qos, mqtt_request_cb_t cb, void *arg,
1181:Middlewares/Third_Party/LwIP/src/apps/mqtt/mqtt.c **** {
 3778              		.loc 1 1181 1 is_stmt 1 view -0
 3779              		.cfi_startproc
 3780              		@ args = 8, pretend = 0, frame = 8
 3781              		@ frame_needed = 0, uses_anonymous_args = 0
 3782              		.loc 1 1181 1 is_stmt 0 view .LVU1089
 3783 0000 2DE9F04F 		push	{r4, r5, r6, r7, r8, r9, r10, fp, lr}
 3784              	.LCFI40:
 3785              		.cfi_def_cfa_offset 36
 3786              		.cfi_offset 4, -36
 3787              		.cfi_offset 5, -32
 3788              		.cfi_offset 6, -28
 3789              		.cfi_offset 7, -24
 3790              		.cfi_offset 8, -20
 3791              		.cfi_offset 9, -16
 3792              		.cfi_offset 10, -12
 3793              		.cfi_offset 11, -8
 3794              		.cfi_offset 14, -4
 3795 0004 85B0     		sub	sp, sp, #20
 3796              	.LCFI41:
 3797              		.cfi_def_cfa_offset 56
 3798 0006 8846     		mov	r8, r1
 3799 0008 9246     		mov	r10, r2
 3800 000a 1F46     		mov	r7, r3
 3801 000c 9DF83C90 		ldrb	r9, [sp, #60]	@ zero_extendqisi2
1182:Middlewares/Third_Party/LwIP/src/apps/mqtt/mqtt.c ****   size_t topic_strlen;
 3802              		.loc 1 1182 3 is_stmt 1 view .LVU1090
1183:Middlewares/Third_Party/LwIP/src/apps/mqtt/mqtt.c ****   size_t total_len;
 3803              		.loc 1 1183 3 view .LVU1091
1184:Middlewares/Third_Party/LwIP/src/apps/mqtt/mqtt.c ****   u16_t topic_len;
 3804              		.loc 1 1184 3 view .LVU1092
1185:Middlewares/Third_Party/LwIP/src/apps/mqtt/mqtt.c ****   u16_t remaining_length;
 3805              		.loc 1 1185 3 view .LVU1093
1186:Middlewares/Third_Party/LwIP/src/apps/mqtt/mqtt.c ****   u16_t pkt_id;
 3806              		.loc 1 1186 3 view .LVU1094
1187:Middlewares/Third_Party/LwIP/src/apps/mqtt/mqtt.c ****   struct mqtt_request_t *r;
ARM GAS  C:\Users\hh\AppData\Local\Temp\cc3qgJrr.s 			page 105


 3807              		.loc 1 1187 3 view .LVU1095
1188:Middlewares/Third_Party/LwIP/src/apps/mqtt/mqtt.c **** 
1189:Middlewares/Third_Party/LwIP/src/apps/mqtt/mqtt.c ****   LWIP_ASSERT_CORE_LOCKED();
 3808              		.loc 1 1189 28 view .LVU1096
1190:Middlewares/Third_Party/LwIP/src/apps/mqtt/mqtt.c ****   LWIP_ASSERT("mqtt_sub_unsub: client != NULL", client);
 3809              		.loc 1 1190 3 view .LVU1097
 3810              		.loc 1 1190 3 view .LVU1098
 3811 0010 0646     		mov	r6, r0
 3812 0012 0028     		cmp	r0, #0
 3813 0014 55D0     		beq	.L303
 3814              	.LVL433:
 3815              	.L290:
 3816              		.loc 1 1190 3 view .LVU1099
 3817              		.loc 1 1190 3 view .LVU1100
1191:Middlewares/Third_Party/LwIP/src/apps/mqtt/mqtt.c ****   LWIP_ASSERT("mqtt_sub_unsub: topic != NULL", topic);
 3818              		.loc 1 1191 3 view .LVU1101
 3819              		.loc 1 1191 3 view .LVU1102
 3820 0016 B8F1000F 		cmp	r8, #0
 3821 001a 5AD0     		beq	.L304
 3822              	.L291:
 3823              		.loc 1 1191 3 view .LVU1103
 3824              		.loc 1 1191 3 view .LVU1104
1192:Middlewares/Third_Party/LwIP/src/apps/mqtt/mqtt.c **** 
1193:Middlewares/Third_Party/LwIP/src/apps/mqtt/mqtt.c ****   topic_strlen = strlen(topic);
 3825              		.loc 1 1193 3 view .LVU1105
 3826              		.loc 1 1193 18 is_stmt 0 view .LVU1106
 3827 001c 4046     		mov	r0, r8
 3828 001e FFF7FEFF 		bl	strlen
 3829              	.LVL434:
1194:Middlewares/Third_Party/LwIP/src/apps/mqtt/mqtt.c ****   LWIP_ERROR("mqtt_sub_unsub: topic length overflow", (topic_strlen <= (0xFFFF - 2)), return ERR_AR
 3830              		.loc 1 1194 3 is_stmt 1 view .LVU1107
 3831              		.loc 1 1194 3 view .LVU1108
 3832 0022 4FF6FD73 		movw	r3, #65533
 3833 0026 9842     		cmp	r0, r3
 3834 0028 73D8     		bhi	.L297
 3835              		.loc 1 1194 3 view .LVU1109
1195:Middlewares/Third_Party/LwIP/src/apps/mqtt/mqtt.c ****   topic_len = (u16_t)topic_strlen;
 3836              		.loc 1 1195 3 view .LVU1110
 3837              		.loc 1 1195 13 is_stmt 0 view .LVU1111
 3838 002a 84B2     		uxth	r4, r0
 3839              	.LVL435:
1196:Middlewares/Third_Party/LwIP/src/apps/mqtt/mqtt.c ****   /* Topic string, pkt_id, qos for subscribe */
1197:Middlewares/Third_Party/LwIP/src/apps/mqtt/mqtt.c ****   total_len =  topic_len + 2 + 2 + (sub != 0);
 3840              		.loc 1 1197 3 is_stmt 1 view .LVU1112
 3841              		.loc 1 1197 30 is_stmt 0 view .LVU1113
 3842 002c 251D     		adds	r5, r4, #4
 3843              		.loc 1 1197 34 view .LVU1114
 3844 002e B9F1000F 		cmp	r9, #0
 3845 0032 18BF     		it	ne
 3846 0034 0135     		addne	r5, r5, #1
 3847              	.LVL436:
1198:Middlewares/Third_Party/LwIP/src/apps/mqtt/mqtt.c ****   LWIP_ERROR("mqtt_sub_unsub: total length overflow", (total_len <= 0xFFFF), return ERR_ARG);
 3848              		.loc 1 1198 3 is_stmt 1 view .LVU1115
 3849              		.loc 1 1198 3 view .LVU1116
 3850 0036 B5F5803F 		cmp	r5, #65536
 3851 003a 6DD2     		bcs	.L298
 3852              		.loc 1 1198 3 view .LVU1117
ARM GAS  C:\Users\hh\AppData\Local\Temp\cc3qgJrr.s 			page 106


1199:Middlewares/Third_Party/LwIP/src/apps/mqtt/mqtt.c ****   remaining_length = (u16_t)total_len;
 3853              		.loc 1 1199 3 view .LVU1118
 3854              		.loc 1 1199 20 is_stmt 0 view .LVU1119
 3855 003c ADB2     		uxth	r5, r5
 3856              	.LVL437:
1200:Middlewares/Third_Party/LwIP/src/apps/mqtt/mqtt.c **** 
1201:Middlewares/Third_Party/LwIP/src/apps/mqtt/mqtt.c ****   LWIP_ASSERT("mqtt_sub_unsub: qos < 3", qos < 3);
 3857              		.loc 1 1201 3 is_stmt 1 view .LVU1120
 3858              		.loc 1 1201 3 view .LVU1121
 3859 003e 5346     		mov	r3, r10
 3860 0040 022B     		cmp	r3, #2
 3861 0042 4ED8     		bhi	.L305
 3862              	.LVL438:
 3863              	.L293:
 3864              		.loc 1 1201 3 view .LVU1122
 3865              		.loc 1 1201 3 view .LVU1123
1202:Middlewares/Third_Party/LwIP/src/apps/mqtt/mqtt.c ****   if (client->conn_state == TCP_DISCONNECTED) {
 3866              		.loc 1 1202 3 view .LVU1124
 3867              		.loc 1 1202 13 is_stmt 0 view .LVU1125
 3868 0044 B37A     		ldrb	r3, [r6, #10]	@ zero_extendqisi2
 3869              		.loc 1 1202 6 view .LVU1126
 3870 0046 002B     		cmp	r3, #0
 3871 0048 69D0     		beq	.L299
1203:Middlewares/Third_Party/LwIP/src/apps/mqtt/mqtt.c ****     LWIP_DEBUGF(MQTT_DEBUG_WARN, ("mqtt_sub_unsub: Can not (un)subscribe in disconnected state\n"))
1204:Middlewares/Third_Party/LwIP/src/apps/mqtt/mqtt.c ****     return ERR_CONN;
1205:Middlewares/Third_Party/LwIP/src/apps/mqtt/mqtt.c ****   }
1206:Middlewares/Third_Party/LwIP/src/apps/mqtt/mqtt.c **** 
1207:Middlewares/Third_Party/LwIP/src/apps/mqtt/mqtt.c ****   pkt_id = msg_generate_packet_id(client);
 3872              		.loc 1 1207 3 is_stmt 1 view .LVU1127
 3873              		.loc 1 1207 12 is_stmt 0 view .LVU1128
 3874 004a 3046     		mov	r0, r6
 3875 004c FFF7FEFF 		bl	msg_generate_packet_id
 3876              	.LVL439:
 3877 0050 0246     		mov	r2, r0
 3878 0052 0390     		str	r0, [sp, #12]
 3879              	.LVL440:
1208:Middlewares/Third_Party/LwIP/src/apps/mqtt/mqtt.c ****   r = mqtt_create_request(client->req_list, LWIP_ARRAYSIZE(client->req_list), pkt_id, cb, arg);
 3880              		.loc 1 1208 3 is_stmt 1 view .LVU1129
 3881              		.loc 1 1208 7 is_stmt 0 view .LVU1130
 3882 0054 0E9B     		ldr	r3, [sp, #56]
 3883 0056 0093     		str	r3, [sp]
 3884 0058 3B46     		mov	r3, r7
 3885 005a 0421     		movs	r1, #4
 3886 005c 06F11C00 		add	r0, r6, #28
 3887 0060 FFF7FEFF 		bl	mqtt_create_request
 3888              	.LVL441:
1209:Middlewares/Third_Party/LwIP/src/apps/mqtt/mqtt.c ****   if (r == NULL) {
 3889              		.loc 1 1209 3 is_stmt 1 view .LVU1131
 3890              		.loc 1 1209 6 is_stmt 0 view .LVU1132
 3891 0064 8346     		mov	fp, r0
 3892 0066 0028     		cmp	r0, #0
 3893 0068 5CD0     		beq	.L300
1210:Middlewares/Third_Party/LwIP/src/apps/mqtt/mqtt.c ****     return ERR_MEM;
1211:Middlewares/Third_Party/LwIP/src/apps/mqtt/mqtt.c ****   }
1212:Middlewares/Third_Party/LwIP/src/apps/mqtt/mqtt.c **** 
1213:Middlewares/Third_Party/LwIP/src/apps/mqtt/mqtt.c ****   if (mqtt_output_check_space(&client->output, remaining_length) == 0) {
 3894              		.loc 1 1213 3 is_stmt 1 view .LVU1133
ARM GAS  C:\Users\hh\AppData\Local\Temp\cc3qgJrr.s 			page 107


 3895              		.loc 1 1213 7 is_stmt 0 view .LVU1134
 3896 006a 06F1EC07 		add	r7, r6, #236
 3897              	.LVL442:
 3898              		.loc 1 1213 7 view .LVU1135
 3899 006e 2946     		mov	r1, r5
 3900 0070 3846     		mov	r0, r7
 3901              	.LVL443:
 3902              		.loc 1 1213 7 view .LVU1136
 3903 0072 FFF7FEFF 		bl	mqtt_output_check_space
 3904              	.LVL444:
 3905              		.loc 1 1213 6 discriminator 1 view .LVU1137
 3906 0076 0028     		cmp	r0, #0
 3907 0078 3BD0     		beq	.L306
1214:Middlewares/Third_Party/LwIP/src/apps/mqtt/mqtt.c ****     mqtt_delete_request(r);
1215:Middlewares/Third_Party/LwIP/src/apps/mqtt/mqtt.c ****     return ERR_MEM;
1216:Middlewares/Third_Party/LwIP/src/apps/mqtt/mqtt.c ****   }
1217:Middlewares/Third_Party/LwIP/src/apps/mqtt/mqtt.c **** 
1218:Middlewares/Third_Party/LwIP/src/apps/mqtt/mqtt.c ****   LWIP_DEBUGF(MQTT_DEBUG_TRACE, ("mqtt_sub_unsub: Client (un)subscribe to topic \"%s\", id: %d\n", 
 3908              		.loc 1 1218 115 is_stmt 1 view .LVU1138
1219:Middlewares/Third_Party/LwIP/src/apps/mqtt/mqtt.c **** 
1220:Middlewares/Third_Party/LwIP/src/apps/mqtt/mqtt.c ****   mqtt_output_append_fixed_header(&client->output, sub ? MQTT_MSG_TYPE_SUBSCRIBE : MQTT_MSG_TYPE_UN
 3909              		.loc 1 1220 3 view .LVU1139
 3910 007a B9F1000F 		cmp	r9, #0
 3911 007e 3ED0     		beq	.L301
 3912              		.loc 1 1220 3 is_stmt 0 discriminator 1 view .LVU1140
 3913 0080 0821     		movs	r1, #8
 3914              	.L295:
 3915              		.loc 1 1220 3 discriminator 4 view .LVU1141
 3916 0082 0195     		str	r5, [sp, #4]
 3917 0084 0022     		movs	r2, #0
 3918 0086 0092     		str	r2, [sp]
 3919 0088 0123     		movs	r3, #1
 3920 008a 3846     		mov	r0, r7
 3921 008c FFF7FEFF 		bl	mqtt_output_append_fixed_header
 3922              	.LVL445:
1221:Middlewares/Third_Party/LwIP/src/apps/mqtt/mqtt.c ****   /* Packet id */
1222:Middlewares/Third_Party/LwIP/src/apps/mqtt/mqtt.c ****   mqtt_output_append_u16(&client->output, pkt_id);
 3923              		.loc 1 1222 3 is_stmt 1 view .LVU1142
 3924 0090 0399     		ldr	r1, [sp, #12]
 3925 0092 3846     		mov	r0, r7
 3926 0094 FFF7FEFF 		bl	mqtt_output_append_u16
 3927              	.LVL446:
1223:Middlewares/Third_Party/LwIP/src/apps/mqtt/mqtt.c ****   /* Topic */
1224:Middlewares/Third_Party/LwIP/src/apps/mqtt/mqtt.c ****   mqtt_output_append_string(&client->output, topic, topic_len);
 3928              		.loc 1 1224 3 view .LVU1143
 3929 0098 2246     		mov	r2, r4
 3930 009a 4146     		mov	r1, r8
 3931 009c 3846     		mov	r0, r7
 3932 009e FFF7FEFF 		bl	mqtt_output_append_string
 3933              	.LVL447:
1225:Middlewares/Third_Party/LwIP/src/apps/mqtt/mqtt.c ****   /* QoS */
1226:Middlewares/Third_Party/LwIP/src/apps/mqtt/mqtt.c ****   if (sub != 0) {
 3934              		.loc 1 1226 3 view .LVU1144
 3935              		.loc 1 1226 6 is_stmt 0 view .LVU1145
 3936 00a2 B9F1000F 		cmp	r9, #0
 3937 00a6 2CD1     		bne	.L307
 3938              	.L296:
ARM GAS  C:\Users\hh\AppData\Local\Temp\cc3qgJrr.s 			page 108


1227:Middlewares/Third_Party/LwIP/src/apps/mqtt/mqtt.c ****     mqtt_output_append_u8(&client->output, LWIP_MIN(qos, 2));
1228:Middlewares/Third_Party/LwIP/src/apps/mqtt/mqtt.c ****   }
1229:Middlewares/Third_Party/LwIP/src/apps/mqtt/mqtt.c **** 
1230:Middlewares/Third_Party/LwIP/src/apps/mqtt/mqtt.c ****   mqtt_append_request(&client->pend_req_queue, r);
 3939              		.loc 1 1230 3 is_stmt 1 view .LVU1146
 3940 00a8 5946     		mov	r1, fp
 3941 00aa 06F11800 		add	r0, r6, #24
 3942 00ae FFF7FEFF 		bl	mqtt_append_request
 3943              	.LVL448:
1231:Middlewares/Third_Party/LwIP/src/apps/mqtt/mqtt.c ****   mqtt_output_send(&client->output, client->conn);
 3944              		.loc 1 1231 3 view .LVU1147
 3945 00b2 F168     		ldr	r1, [r6, #12]
 3946 00b4 3846     		mov	r0, r7
 3947 00b6 FFF7FEFF 		bl	mqtt_output_send
 3948              	.LVL449:
1232:Middlewares/Third_Party/LwIP/src/apps/mqtt/mqtt.c ****   return ERR_OK;
 3949              		.loc 1 1232 3 view .LVU1148
 3950              		.loc 1 1232 10 is_stmt 0 view .LVU1149
 3951 00ba 0020     		movs	r0, #0
 3952              	.LVL450:
 3953              	.L292:
1233:Middlewares/Third_Party/LwIP/src/apps/mqtt/mqtt.c **** }
 3954              		.loc 1 1233 1 view .LVU1150
 3955 00bc 05B0     		add	sp, sp, #20
 3956              	.LCFI42:
 3957              		.cfi_remember_state
 3958              		.cfi_def_cfa_offset 36
 3959              		@ sp needed
 3960 00be BDE8F08F 		pop	{r4, r5, r6, r7, r8, r9, r10, fp, pc}
 3961              	.LVL451:
 3962              	.L303:
 3963              	.LCFI43:
 3964              		.cfi_restore_state
1190:Middlewares/Third_Party/LwIP/src/apps/mqtt/mqtt.c ****   LWIP_ASSERT("mqtt_sub_unsub: topic != NULL", topic);
 3965              		.loc 1 1190 3 is_stmt 1 discriminator 1 view .LVU1151
1190:Middlewares/Third_Party/LwIP/src/apps/mqtt/mqtt.c ****   LWIP_ASSERT("mqtt_sub_unsub: topic != NULL", topic);
 3966              		.loc 1 1190 3 discriminator 1 view .LVU1152
 3967 00c2 1A4B     		ldr	r3, .L308
 3968              	.LVL452:
1190:Middlewares/Third_Party/LwIP/src/apps/mqtt/mqtt.c ****   LWIP_ASSERT("mqtt_sub_unsub: topic != NULL", topic);
 3969              		.loc 1 1190 3 is_stmt 0 discriminator 1 view .LVU1153
 3970 00c4 40F2A642 		movw	r2, #1190
 3971              	.LVL453:
1190:Middlewares/Third_Party/LwIP/src/apps/mqtt/mqtt.c ****   LWIP_ASSERT("mqtt_sub_unsub: topic != NULL", topic);
 3972              		.loc 1 1190 3 discriminator 1 view .LVU1154
 3973 00c8 1949     		ldr	r1, .L308+4
 3974              	.LVL454:
1190:Middlewares/Third_Party/LwIP/src/apps/mqtt/mqtt.c ****   LWIP_ASSERT("mqtt_sub_unsub: topic != NULL", topic);
 3975              		.loc 1 1190 3 discriminator 1 view .LVU1155
 3976 00ca 1A48     		ldr	r0, .L308+8
 3977              	.LVL455:
1190:Middlewares/Third_Party/LwIP/src/apps/mqtt/mqtt.c ****   LWIP_ASSERT("mqtt_sub_unsub: topic != NULL", topic);
 3978              		.loc 1 1190 3 discriminator 1 view .LVU1156
 3979 00cc FFF7FEFF 		bl	printf
 3980              	.LVL456:
 3981 00d0 A1E7     		b	.L290
 3982              	.L304:
ARM GAS  C:\Users\hh\AppData\Local\Temp\cc3qgJrr.s 			page 109


1191:Middlewares/Third_Party/LwIP/src/apps/mqtt/mqtt.c **** 
 3983              		.loc 1 1191 3 is_stmt 1 discriminator 1 view .LVU1157
1191:Middlewares/Third_Party/LwIP/src/apps/mqtt/mqtt.c **** 
 3984              		.loc 1 1191 3 discriminator 1 view .LVU1158
 3985 00d2 164B     		ldr	r3, .L308
 3986 00d4 40F2A742 		movw	r2, #1191
 3987 00d8 1749     		ldr	r1, .L308+12
 3988 00da 1648     		ldr	r0, .L308+8
 3989 00dc FFF7FEFF 		bl	printf
 3990              	.LVL457:
 3991 00e0 9CE7     		b	.L291
 3992              	.LVL458:
 3993              	.L305:
1201:Middlewares/Third_Party/LwIP/src/apps/mqtt/mqtt.c ****   if (client->conn_state == TCP_DISCONNECTED) {
 3994              		.loc 1 1201 3 discriminator 1 view .LVU1159
1201:Middlewares/Third_Party/LwIP/src/apps/mqtt/mqtt.c ****   if (client->conn_state == TCP_DISCONNECTED) {
 3995              		.loc 1 1201 3 discriminator 1 view .LVU1160
 3996 00e2 124B     		ldr	r3, .L308
 3997              	.LVL459:
1201:Middlewares/Third_Party/LwIP/src/apps/mqtt/mqtt.c ****   if (client->conn_state == TCP_DISCONNECTED) {
 3998              		.loc 1 1201 3 is_stmt 0 discriminator 1 view .LVU1161
 3999 00e4 40F2B142 		movw	r2, #1201
 4000 00e8 1449     		ldr	r1, .L308+16
 4001 00ea 1248     		ldr	r0, .L308+8
 4002              	.LVL460:
1201:Middlewares/Third_Party/LwIP/src/apps/mqtt/mqtt.c ****   if (client->conn_state == TCP_DISCONNECTED) {
 4003              		.loc 1 1201 3 discriminator 1 view .LVU1162
 4004 00ec FFF7FEFF 		bl	printf
 4005              	.LVL461:
 4006 00f0 A8E7     		b	.L293
 4007              	.LVL462:
 4008              	.L306:
1214:Middlewares/Third_Party/LwIP/src/apps/mqtt/mqtt.c ****     return ERR_MEM;
 4009              		.loc 1 1214 5 is_stmt 1 view .LVU1163
 4010 00f2 5846     		mov	r0, fp
 4011 00f4 FFF7FEFF 		bl	mqtt_delete_request
 4012              	.LVL463:
1215:Middlewares/Third_Party/LwIP/src/apps/mqtt/mqtt.c ****   }
 4013              		.loc 1 1215 5 view .LVU1164
1215:Middlewares/Third_Party/LwIP/src/apps/mqtt/mqtt.c ****   }
 4014              		.loc 1 1215 12 is_stmt 0 view .LVU1165
 4015 00f8 4FF0FF30 		mov	r0, #-1
 4016 00fc DEE7     		b	.L292
 4017              	.L301:
1220:Middlewares/Third_Party/LwIP/src/apps/mqtt/mqtt.c ****   /* Packet id */
 4018              		.loc 1 1220 3 discriminator 2 view .LVU1166
 4019 00fe 0A21     		movs	r1, #10
 4020 0100 BFE7     		b	.L295
 4021              	.L307:
1227:Middlewares/Third_Party/LwIP/src/apps/mqtt/mqtt.c ****   }
 4022              		.loc 1 1227 5 is_stmt 1 view .LVU1167
 4023 0102 5146     		mov	r1, r10
 4024 0104 0229     		cmp	r1, #2
 4025 0106 28BF     		it	cs
 4026 0108 0221     		movcs	r1, #2
 4027 010a 3846     		mov	r0, r7
 4028 010c FFF7FEFF 		bl	mqtt_output_append_u8
ARM GAS  C:\Users\hh\AppData\Local\Temp\cc3qgJrr.s 			page 110


 4029              	.LVL464:
 4030 0110 CAE7     		b	.L296
 4031              	.LVL465:
 4032              	.L297:
1194:Middlewares/Third_Party/LwIP/src/apps/mqtt/mqtt.c ****   topic_len = (u16_t)topic_strlen;
 4033              		.loc 1 1194 3 is_stmt 0 discriminator 1 view .LVU1168
 4034 0112 6FF00F00 		mvn	r0, #15
 4035              	.LVL466:
1194:Middlewares/Third_Party/LwIP/src/apps/mqtt/mqtt.c ****   topic_len = (u16_t)topic_strlen;
 4036              		.loc 1 1194 3 discriminator 1 view .LVU1169
 4037 0116 D1E7     		b	.L292
 4038              	.LVL467:
 4039              	.L298:
1198:Middlewares/Third_Party/LwIP/src/apps/mqtt/mqtt.c ****   remaining_length = (u16_t)total_len;
 4040              		.loc 1 1198 3 discriminator 1 view .LVU1170
 4041 0118 6FF00F00 		mvn	r0, #15
 4042              	.LVL468:
1198:Middlewares/Third_Party/LwIP/src/apps/mqtt/mqtt.c ****   remaining_length = (u16_t)total_len;
 4043              		.loc 1 1198 3 discriminator 1 view .LVU1171
 4044 011c CEE7     		b	.L292
 4045              	.LVL469:
 4046              	.L299:
1204:Middlewares/Third_Party/LwIP/src/apps/mqtt/mqtt.c ****   }
 4047              		.loc 1 1204 12 view .LVU1172
 4048 011e 6FF00A00 		mvn	r0, #10
 4049 0122 CBE7     		b	.L292
 4050              	.LVL470:
 4051              	.L300:
1210:Middlewares/Third_Party/LwIP/src/apps/mqtt/mqtt.c ****   }
 4052              		.loc 1 1210 12 view .LVU1173
 4053 0124 4FF0FF30 		mov	r0, #-1
 4054              	.LVL471:
1210:Middlewares/Third_Party/LwIP/src/apps/mqtt/mqtt.c ****   }
 4055              		.loc 1 1210 12 view .LVU1174
 4056 0128 C8E7     		b	.L292
 4057              	.L309:
 4058 012a 00BF     		.align	2
 4059              	.L308:
 4060 012c 00000000 		.word	.LC0
 4061 0130 00000000 		.word	.LC19
 4062 0134 58000000 		.word	.LC2
 4063 0138 20000000 		.word	.LC20
 4064 013c 40000000 		.word	.LC21
 4065              		.cfi_endproc
 4066              	.LFE203:
 4068              		.section	.rodata.mqtt_set_inpub_callback.str1.4,"aMS",%progbits,1
 4069              		.align	2
 4070              	.LC22:
 4071 0000 6D717474 		.ascii	"mqtt_set_inpub_callback: client != NULL\000"
 4071      5F736574 
 4071      5F696E70 
 4071      75625F63 
 4071      616C6C62 
 4072              		.section	.text.mqtt_set_inpub_callback,"ax",%progbits
 4073              		.align	1
 4074              		.global	mqtt_set_inpub_callback
 4075              		.syntax unified
ARM GAS  C:\Users\hh\AppData\Local\Temp\cc3qgJrr.s 			page 111


 4076              		.thumb
 4077              		.thumb_func
 4079              	mqtt_set_inpub_callback:
 4080              	.LVL472:
 4081              	.LFB204:
1234:Middlewares/Third_Party/LwIP/src/apps/mqtt/mqtt.c **** 
1235:Middlewares/Third_Party/LwIP/src/apps/mqtt/mqtt.c **** 
1236:Middlewares/Third_Party/LwIP/src/apps/mqtt/mqtt.c **** /**
1237:Middlewares/Third_Party/LwIP/src/apps/mqtt/mqtt.c ****  * @ingroup mqtt
1238:Middlewares/Third_Party/LwIP/src/apps/mqtt/mqtt.c ****  * Set callback to handle incoming publish requests from server
1239:Middlewares/Third_Party/LwIP/src/apps/mqtt/mqtt.c ****  * @param client MQTT client
1240:Middlewares/Third_Party/LwIP/src/apps/mqtt/mqtt.c ****  * @param pub_cb Callback invoked when publish starts, contain topic and total length of payload
1241:Middlewares/Third_Party/LwIP/src/apps/mqtt/mqtt.c ****  * @param data_cb Callback for each fragment of payload that arrives
1242:Middlewares/Third_Party/LwIP/src/apps/mqtt/mqtt.c ****  * @param arg User supplied argument to both callbacks
1243:Middlewares/Third_Party/LwIP/src/apps/mqtt/mqtt.c ****  */
1244:Middlewares/Third_Party/LwIP/src/apps/mqtt/mqtt.c **** void
1245:Middlewares/Third_Party/LwIP/src/apps/mqtt/mqtt.c **** mqtt_set_inpub_callback(mqtt_client_t *client, mqtt_incoming_publish_cb_t pub_cb,
1246:Middlewares/Third_Party/LwIP/src/apps/mqtt/mqtt.c ****                         mqtt_incoming_data_cb_t data_cb, void *arg)
1247:Middlewares/Third_Party/LwIP/src/apps/mqtt/mqtt.c **** {
 4082              		.loc 1 1247 1 is_stmt 1 view -0
 4083              		.cfi_startproc
 4084              		@ args = 0, pretend = 0, frame = 0
 4085              		@ frame_needed = 0, uses_anonymous_args = 0
 4086              		.loc 1 1247 1 is_stmt 0 view .LVU1176
 4087 0000 F8B5     		push	{r3, r4, r5, r6, r7, lr}
 4088              	.LCFI44:
 4089              		.cfi_def_cfa_offset 24
 4090              		.cfi_offset 3, -24
 4091              		.cfi_offset 4, -20
 4092              		.cfi_offset 5, -16
 4093              		.cfi_offset 6, -12
 4094              		.cfi_offset 7, -8
 4095              		.cfi_offset 14, -4
 4096 0002 0D46     		mov	r5, r1
 4097 0004 1646     		mov	r6, r2
 4098 0006 1F46     		mov	r7, r3
1248:Middlewares/Third_Party/LwIP/src/apps/mqtt/mqtt.c ****   LWIP_ASSERT_CORE_LOCKED();
 4099              		.loc 1 1248 28 is_stmt 1 view .LVU1177
1249:Middlewares/Third_Party/LwIP/src/apps/mqtt/mqtt.c ****   LWIP_ASSERT("mqtt_set_inpub_callback: client != NULL", client != NULL);
 4100              		.loc 1 1249 3 view .LVU1178
 4101              		.loc 1 1249 3 view .LVU1179
 4102 0008 0446     		mov	r4, r0
 4103 000a 18B1     		cbz	r0, .L313
 4104              	.LVL473:
 4105              	.L311:
 4106              		.loc 1 1249 3 view .LVU1180
 4107              		.loc 1 1249 3 view .LVU1181
1250:Middlewares/Third_Party/LwIP/src/apps/mqtt/mqtt.c ****   client->data_cb = data_cb;
 4108              		.loc 1 1250 3 view .LVU1182
 4109              		.loc 1 1250 19 is_stmt 0 view .LVU1183
 4110 000c 2666     		str	r6, [r4, #96]
1251:Middlewares/Third_Party/LwIP/src/apps/mqtt/mqtt.c ****   client->pub_cb = pub_cb;
 4111              		.loc 1 1251 3 is_stmt 1 view .LVU1184
 4112              		.loc 1 1251 18 is_stmt 0 view .LVU1185
 4113 000e 6566     		str	r5, [r4, #100]
1252:Middlewares/Third_Party/LwIP/src/apps/mqtt/mqtt.c ****   client->inpub_arg = arg;
 4114              		.loc 1 1252 3 is_stmt 1 view .LVU1186
ARM GAS  C:\Users\hh\AppData\Local\Temp\cc3qgJrr.s 			page 112


 4115              		.loc 1 1252 21 is_stmt 0 view .LVU1187
 4116 0010 E765     		str	r7, [r4, #92]
1253:Middlewares/Third_Party/LwIP/src/apps/mqtt/mqtt.c **** }
 4117              		.loc 1 1253 1 view .LVU1188
 4118 0012 F8BD     		pop	{r3, r4, r5, r6, r7, pc}
 4119              	.LVL474:
 4120              	.L313:
1249:Middlewares/Third_Party/LwIP/src/apps/mqtt/mqtt.c ****   client->data_cb = data_cb;
 4121              		.loc 1 1249 3 is_stmt 1 discriminator 1 view .LVU1189
1249:Middlewares/Third_Party/LwIP/src/apps/mqtt/mqtt.c ****   client->data_cb = data_cb;
 4122              		.loc 1 1249 3 discriminator 1 view .LVU1190
 4123 0014 034B     		ldr	r3, .L314
 4124              	.LVL475:
1249:Middlewares/Third_Party/LwIP/src/apps/mqtt/mqtt.c ****   client->data_cb = data_cb;
 4125              		.loc 1 1249 3 is_stmt 0 discriminator 1 view .LVU1191
 4126 0016 40F2E142 		movw	r2, #1249
 4127              	.LVL476:
1249:Middlewares/Third_Party/LwIP/src/apps/mqtt/mqtt.c ****   client->data_cb = data_cb;
 4128              		.loc 1 1249 3 discriminator 1 view .LVU1192
 4129 001a 0349     		ldr	r1, .L314+4
 4130              	.LVL477:
1249:Middlewares/Third_Party/LwIP/src/apps/mqtt/mqtt.c ****   client->data_cb = data_cb;
 4131              		.loc 1 1249 3 discriminator 1 view .LVU1193
 4132 001c 0348     		ldr	r0, .L314+8
 4133              	.LVL478:
1249:Middlewares/Third_Party/LwIP/src/apps/mqtt/mqtt.c ****   client->data_cb = data_cb;
 4134              		.loc 1 1249 3 discriminator 1 view .LVU1194
 4135 001e FFF7FEFF 		bl	printf
 4136              	.LVL479:
 4137 0022 F3E7     		b	.L311
 4138              	.L315:
 4139              		.align	2
 4140              	.L314:
 4141 0024 00000000 		.word	.LC0
 4142 0028 00000000 		.word	.LC22
 4143 002c 58000000 		.word	.LC2
 4144              		.cfi_endproc
 4145              	.LFE204:
 4147              		.section	.text.mqtt_client_new,"ax",%progbits
 4148              		.align	1
 4149              		.global	mqtt_client_new
 4150              		.syntax unified
 4151              		.thumb
 4152              		.thumb_func
 4154              	mqtt_client_new:
 4155              	.LFB205:
1254:Middlewares/Third_Party/LwIP/src/apps/mqtt/mqtt.c **** 
1255:Middlewares/Third_Party/LwIP/src/apps/mqtt/mqtt.c **** /**
1256:Middlewares/Third_Party/LwIP/src/apps/mqtt/mqtt.c ****  * @ingroup mqtt
1257:Middlewares/Third_Party/LwIP/src/apps/mqtt/mqtt.c ****  * Create a new MQTT client instance
1258:Middlewares/Third_Party/LwIP/src/apps/mqtt/mqtt.c ****  * @return Pointer to instance on success, NULL otherwise
1259:Middlewares/Third_Party/LwIP/src/apps/mqtt/mqtt.c ****  */
1260:Middlewares/Third_Party/LwIP/src/apps/mqtt/mqtt.c **** mqtt_client_t *
1261:Middlewares/Third_Party/LwIP/src/apps/mqtt/mqtt.c **** mqtt_client_new(void)
1262:Middlewares/Third_Party/LwIP/src/apps/mqtt/mqtt.c **** {
 4156              		.loc 1 1262 1 is_stmt 1 view -0
 4157              		.cfi_startproc
ARM GAS  C:\Users\hh\AppData\Local\Temp\cc3qgJrr.s 			page 113


 4158              		@ args = 0, pretend = 0, frame = 0
 4159              		@ frame_needed = 0, uses_anonymous_args = 0
 4160 0000 08B5     		push	{r3, lr}
 4161              	.LCFI45:
 4162              		.cfi_def_cfa_offset 8
 4163              		.cfi_offset 3, -8
 4164              		.cfi_offset 14, -4
1263:Middlewares/Third_Party/LwIP/src/apps/mqtt/mqtt.c ****   LWIP_ASSERT_CORE_LOCKED();
 4165              		.loc 1 1263 28 view .LVU1196
1264:Middlewares/Third_Party/LwIP/src/apps/mqtt/mqtt.c ****   return (mqtt_client_t *)mem_calloc(1, sizeof(mqtt_client_t));
 4166              		.loc 1 1264 3 view .LVU1197
 4167              		.loc 1 1264 27 is_stmt 0 view .LVU1198
 4168 0002 4FF4F871 		mov	r1, #496
 4169 0006 0120     		movs	r0, #1
 4170 0008 FFF7FEFF 		bl	mem_calloc
 4171              	.LVL480:
1265:Middlewares/Third_Party/LwIP/src/apps/mqtt/mqtt.c **** }
 4172              		.loc 1 1265 1 view .LVU1199
 4173 000c 08BD     		pop	{r3, pc}
 4174              		.cfi_endproc
 4175              	.LFE205:
 4177              		.section	.text.mqtt_client_free,"ax",%progbits
 4178              		.align	1
 4179              		.global	mqtt_client_free
 4180              		.syntax unified
 4181              		.thumb
 4182              		.thumb_func
 4184              	mqtt_client_free:
 4185              	.LVL481:
 4186              	.LFB206:
1266:Middlewares/Third_Party/LwIP/src/apps/mqtt/mqtt.c **** 
1267:Middlewares/Third_Party/LwIP/src/apps/mqtt/mqtt.c **** /**
1268:Middlewares/Third_Party/LwIP/src/apps/mqtt/mqtt.c ****  * @ingroup mqtt
1269:Middlewares/Third_Party/LwIP/src/apps/mqtt/mqtt.c ****  * Free MQTT client instance
1270:Middlewares/Third_Party/LwIP/src/apps/mqtt/mqtt.c ****  * @param client Pointer to instance to be freed
1271:Middlewares/Third_Party/LwIP/src/apps/mqtt/mqtt.c ****  */
1272:Middlewares/Third_Party/LwIP/src/apps/mqtt/mqtt.c **** void
1273:Middlewares/Third_Party/LwIP/src/apps/mqtt/mqtt.c **** mqtt_client_free(mqtt_client_t *client)
1274:Middlewares/Third_Party/LwIP/src/apps/mqtt/mqtt.c **** {
 4187              		.loc 1 1274 1 is_stmt 1 view -0
 4188              		.cfi_startproc
 4189              		@ args = 0, pretend = 0, frame = 0
 4190              		@ frame_needed = 0, uses_anonymous_args = 0
 4191              		.loc 1 1274 1 is_stmt 0 view .LVU1201
 4192 0000 08B5     		push	{r3, lr}
 4193              	.LCFI46:
 4194              		.cfi_def_cfa_offset 8
 4195              		.cfi_offset 3, -8
 4196              		.cfi_offset 14, -4
1275:Middlewares/Third_Party/LwIP/src/apps/mqtt/mqtt.c ****   mem_free(client);
 4197              		.loc 1 1275 3 is_stmt 1 view .LVU1202
 4198 0002 FFF7FEFF 		bl	mem_free
 4199              	.LVL482:
1276:Middlewares/Third_Party/LwIP/src/apps/mqtt/mqtt.c **** }
 4200              		.loc 1 1276 1 is_stmt 0 view .LVU1203
 4201 0006 08BD     		pop	{r3, pc}
 4202              		.cfi_endproc
ARM GAS  C:\Users\hh\AppData\Local\Temp\cc3qgJrr.s 			page 114


 4203              	.LFE206:
 4205              		.section	.rodata.mqtt_client_connect.str1.4,"aMS",%progbits,1
 4206              		.align	2
 4207              	.LC23:
 4208 0000 6D717474 		.ascii	"mqtt_client_connect: client != NULL\000"
 4208      5F636C69 
 4208      656E745F 
 4208      636F6E6E 
 4208      6563743A 
 4209              		.align	2
 4210              	.LC24:
 4211 0024 6D717474 		.ascii	"mqtt_client_connect: ip_addr != NULL\000"
 4211      5F636C69 
 4211      656E745F 
 4211      636F6E6E 
 4211      6563743A 
 4212 0049 000000   		.align	2
 4213              	.LC25:
 4214 004c 6D717474 		.ascii	"mqtt_client_connect: client_info != NULL\000"
 4214      5F636C69 
 4214      656E745F 
 4214      636F6E6E 
 4214      6563743A 
 4215 0075 000000   		.align	2
 4216              	.LC26:
 4217 0078 6D717474 		.ascii	"mqtt_client_connect: client_info->client_id != NULL"
 4217      5F636C69 
 4217      656E745F 
 4217      636F6E6E 
 4217      6563743A 
 4218 00ab 00       		.ascii	"\000"
 4219              		.align	2
 4220              	.LC27:
 4221 00ac 4D515454 		.ascii	"MQTT\000"
 4221      00
 4222              		.section	.text.mqtt_client_connect,"ax",%progbits
 4223              		.align	1
 4224              		.global	mqtt_client_connect
 4225              		.syntax unified
 4226              		.thumb
 4227              		.thumb_func
 4229              	mqtt_client_connect:
 4230              	.LVL483:
 4231              	.LFB207:
1277:Middlewares/Third_Party/LwIP/src/apps/mqtt/mqtt.c **** 
1278:Middlewares/Third_Party/LwIP/src/apps/mqtt/mqtt.c **** /**
1279:Middlewares/Third_Party/LwIP/src/apps/mqtt/mqtt.c ****  * @ingroup mqtt
1280:Middlewares/Third_Party/LwIP/src/apps/mqtt/mqtt.c ****  * Connect to MQTT server
1281:Middlewares/Third_Party/LwIP/src/apps/mqtt/mqtt.c ****  * @param client MQTT client
1282:Middlewares/Third_Party/LwIP/src/apps/mqtt/mqtt.c ****  * @param ip_addr Server IP
1283:Middlewares/Third_Party/LwIP/src/apps/mqtt/mqtt.c ****  * @param port Server port
1284:Middlewares/Third_Party/LwIP/src/apps/mqtt/mqtt.c ****  * @param cb Connection state change callback
1285:Middlewares/Third_Party/LwIP/src/apps/mqtt/mqtt.c ****  * @param arg User supplied argument to connection callback
1286:Middlewares/Third_Party/LwIP/src/apps/mqtt/mqtt.c ****  * @param client_info Client identification and connection options
1287:Middlewares/Third_Party/LwIP/src/apps/mqtt/mqtt.c ****  * @return ERR_OK if successful, @see err_t enum for other results
1288:Middlewares/Third_Party/LwIP/src/apps/mqtt/mqtt.c ****  */
1289:Middlewares/Third_Party/LwIP/src/apps/mqtt/mqtt.c **** err_t
ARM GAS  C:\Users\hh\AppData\Local\Temp\cc3qgJrr.s 			page 115


1290:Middlewares/Third_Party/LwIP/src/apps/mqtt/mqtt.c **** mqtt_client_connect(mqtt_client_t *client, const ip_addr_t *ip_addr, u16_t port, mqtt_connection_cb
1291:Middlewares/Third_Party/LwIP/src/apps/mqtt/mqtt.c ****                     const struct mqtt_connect_client_info_t *client_info)
1292:Middlewares/Third_Party/LwIP/src/apps/mqtt/mqtt.c **** {
 4232              		.loc 1 1292 1 is_stmt 1 view -0
 4233              		.cfi_startproc
 4234              		@ args = 8, pretend = 0, frame = 24
 4235              		@ frame_needed = 0, uses_anonymous_args = 0
 4236              		.loc 1 1292 1 is_stmt 0 view .LVU1205
 4237 0000 2DE9F04F 		push	{r4, r5, r6, r7, r8, r9, r10, fp, lr}
 4238              	.LCFI47:
 4239              		.cfi_def_cfa_offset 36
 4240              		.cfi_offset 4, -36
 4241              		.cfi_offset 5, -32
 4242              		.cfi_offset 6, -28
 4243              		.cfi_offset 7, -24
 4244              		.cfi_offset 8, -20
 4245              		.cfi_offset 9, -16
 4246              		.cfi_offset 10, -12
 4247              		.cfi_offset 11, -8
 4248              		.cfi_offset 14, -4
 4249 0004 89B0     		sub	sp, sp, #36
 4250              	.LCFI48:
 4251              		.cfi_def_cfa_offset 72
 4252 0006 8A46     		mov	r10, r1
 4253 0008 0392     		str	r2, [sp, #12]
 4254 000a 9946     		mov	r9, r3
 4255 000c 139D     		ldr	r5, [sp, #76]
1293:Middlewares/Third_Party/LwIP/src/apps/mqtt/mqtt.c ****   err_t err;
 4256              		.loc 1 1293 3 is_stmt 1 view .LVU1206
1294:Middlewares/Third_Party/LwIP/src/apps/mqtt/mqtt.c ****   size_t len;
 4257              		.loc 1 1294 3 view .LVU1207
1295:Middlewares/Third_Party/LwIP/src/apps/mqtt/mqtt.c ****   u16_t client_id_length;
 4258              		.loc 1 1295 3 view .LVU1208
1296:Middlewares/Third_Party/LwIP/src/apps/mqtt/mqtt.c ****   /* Length is the sum of 2+"MQTT", protocol level, flags and keep alive */
1297:Middlewares/Third_Party/LwIP/src/apps/mqtt/mqtt.c ****   u16_t remaining_length = 2 + 4 + 1 + 1 + 2;
 4259              		.loc 1 1297 3 view .LVU1209
 4260              	.LVL484:
1298:Middlewares/Third_Party/LwIP/src/apps/mqtt/mqtt.c ****   u8_t flags = 0, will_topic_len = 0, will_msg_len = 0;
 4261              		.loc 1 1298 3 view .LVU1210
1299:Middlewares/Third_Party/LwIP/src/apps/mqtt/mqtt.c ****   u16_t client_user_len = 0, client_pass_len = 0;
 4262              		.loc 1 1299 3 view .LVU1211
1300:Middlewares/Third_Party/LwIP/src/apps/mqtt/mqtt.c ****   mqtt_incoming_data_cb_t data_cb;
 4263              		.loc 1 1300 3 view .LVU1212
1301:Middlewares/Third_Party/LwIP/src/apps/mqtt/mqtt.c ****   mqtt_incoming_publish_cb_t pub_cb;
 4264              		.loc 1 1301 3 view .LVU1213
1302:Middlewares/Third_Party/LwIP/src/apps/mqtt/mqtt.c ****   void *inpub_arg;
 4265              		.loc 1 1302 3 view .LVU1214
1303:Middlewares/Third_Party/LwIP/src/apps/mqtt/mqtt.c **** 
1304:Middlewares/Third_Party/LwIP/src/apps/mqtt/mqtt.c ****   LWIP_ASSERT_CORE_LOCKED();
 4266              		.loc 1 1304 28 view .LVU1215
1305:Middlewares/Third_Party/LwIP/src/apps/mqtt/mqtt.c ****   LWIP_ASSERT("mqtt_client_connect: client != NULL", client != NULL);
 4267              		.loc 1 1305 3 view .LVU1216
 4268              		.loc 1 1305 3 view .LVU1217
 4269 000e 0446     		mov	r4, r0
 4270 0010 0028     		cmp	r0, #0
 4271 0012 00F0CC80 		beq	.L354
 4272              	.LVL485:
ARM GAS  C:\Users\hh\AppData\Local\Temp\cc3qgJrr.s 			page 116


 4273              	.L321:
 4274              		.loc 1 1305 3 view .LVU1218
 4275              		.loc 1 1305 3 view .LVU1219
1306:Middlewares/Third_Party/LwIP/src/apps/mqtt/mqtt.c ****   LWIP_ASSERT("mqtt_client_connect: ip_addr != NULL", ip_addr != NULL);
 4276              		.loc 1 1306 3 view .LVU1220
 4277              		.loc 1 1306 3 view .LVU1221
 4278 0016 5346     		mov	r3, r10
 4279 0018 002B     		cmp	r3, #0
 4280 001a 00F0D080 		beq	.L355
 4281              	.L322:
 4282              		.loc 1 1306 3 view .LVU1222
 4283              		.loc 1 1306 3 view .LVU1223
1307:Middlewares/Third_Party/LwIP/src/apps/mqtt/mqtt.c ****   LWIP_ASSERT("mqtt_client_connect: client_info != NULL", client_info != NULL);
 4284              		.loc 1 1307 3 view .LVU1224
 4285              		.loc 1 1307 3 view .LVU1225
 4286 001e 002D     		cmp	r5, #0
 4287 0020 00F0D580 		beq	.L356
 4288              	.L323:
 4289              		.loc 1 1307 3 view .LVU1226
 4290              		.loc 1 1307 3 view .LVU1227
1308:Middlewares/Third_Party/LwIP/src/apps/mqtt/mqtt.c ****   LWIP_ASSERT("mqtt_client_connect: client_info->client_id != NULL", client_info->client_id != NULL
 4291              		.loc 1 1308 3 view .LVU1228
 4292              		.loc 1 1308 3 view .LVU1229
 4293 0024 2B68     		ldr	r3, [r5]
 4294 0026 002B     		cmp	r3, #0
 4295 0028 00F0D980 		beq	.L357
 4296              	.L324:
 4297              		.loc 1 1308 3 view .LVU1230
 4298              		.loc 1 1308 3 view .LVU1231
1309:Middlewares/Third_Party/LwIP/src/apps/mqtt/mqtt.c **** 
1310:Middlewares/Third_Party/LwIP/src/apps/mqtt/mqtt.c ****   if (client->conn_state != TCP_DISCONNECTED) {
 4299              		.loc 1 1310 3 view .LVU1232
 4300              		.loc 1 1310 13 is_stmt 0 view .LVU1233
 4301 002c A67A     		ldrb	r6, [r4, #10]	@ zero_extendqisi2
 4302              		.loc 1 1310 6 view .LVU1234
 4303 002e 002E     		cmp	r6, #0
 4304 0030 40F03981 		bne	.L334
1311:Middlewares/Third_Party/LwIP/src/apps/mqtt/mqtt.c ****     LWIP_DEBUGF(MQTT_DEBUG_WARN, ("mqtt_client_connect: Already connected\n"));
1312:Middlewares/Third_Party/LwIP/src/apps/mqtt/mqtt.c ****     return ERR_ISCONN;
1313:Middlewares/Third_Party/LwIP/src/apps/mqtt/mqtt.c ****   }
1314:Middlewares/Third_Party/LwIP/src/apps/mqtt/mqtt.c **** 
1315:Middlewares/Third_Party/LwIP/src/apps/mqtt/mqtt.c ****   /* Wipe clean, but keep callbacks */
1316:Middlewares/Third_Party/LwIP/src/apps/mqtt/mqtt.c ****   data_cb = client->data_cb;
 4305              		.loc 1 1316 3 is_stmt 1 view .LVU1235
 4306              		.loc 1 1316 11 is_stmt 0 view .LVU1236
 4307 0034 236E     		ldr	r3, [r4, #96]
 4308 0036 0293     		str	r3, [sp, #8]
 4309              	.LVL486:
1317:Middlewares/Third_Party/LwIP/src/apps/mqtt/mqtt.c ****   pub_cb = client->pub_cb;
 4310              		.loc 1 1317 3 is_stmt 1 view .LVU1237
 4311              		.loc 1 1317 10 is_stmt 0 view .LVU1238
 4312 0038 676E     		ldr	r7, [r4, #100]
 4313              	.LVL487:
1318:Middlewares/Third_Party/LwIP/src/apps/mqtt/mqtt.c ****   inpub_arg = client->inpub_arg;
 4314              		.loc 1 1318 3 is_stmt 1 view .LVU1239
 4315              		.loc 1 1318 13 is_stmt 0 view .LVU1240
 4316 003a D4F85C80 		ldr	r8, [r4, #92]
ARM GAS  C:\Users\hh\AppData\Local\Temp\cc3qgJrr.s 			page 117


 4317              	.LVL488:
1319:Middlewares/Third_Party/LwIP/src/apps/mqtt/mqtt.c ****   memset(client, 0, sizeof(mqtt_client_t));
 4318              		.loc 1 1319 3 is_stmt 1 view .LVU1241
 4319 003e 4FF4F872 		mov	r2, #496
 4320 0042 3146     		mov	r1, r6
 4321 0044 2046     		mov	r0, r4
 4322 0046 FFF7FEFF 		bl	memset
 4323              	.LVL489:
1320:Middlewares/Third_Party/LwIP/src/apps/mqtt/mqtt.c ****   client->data_cb = data_cb;
 4324              		.loc 1 1320 3 view .LVU1242
 4325              		.loc 1 1320 19 is_stmt 0 view .LVU1243
 4326 004a 029B     		ldr	r3, [sp, #8]
 4327 004c 2366     		str	r3, [r4, #96]
1321:Middlewares/Third_Party/LwIP/src/apps/mqtt/mqtt.c ****   client->pub_cb = pub_cb;
 4328              		.loc 1 1321 3 is_stmt 1 view .LVU1244
 4329              		.loc 1 1321 18 is_stmt 0 view .LVU1245
 4330 004e 6766     		str	r7, [r4, #100]
1322:Middlewares/Third_Party/LwIP/src/apps/mqtt/mqtt.c ****   client->inpub_arg = inpub_arg;
 4331              		.loc 1 1322 3 is_stmt 1 view .LVU1246
 4332              		.loc 1 1322 21 is_stmt 0 view .LVU1247
 4333 0050 C4F85C80 		str	r8, [r4, #92]
1323:Middlewares/Third_Party/LwIP/src/apps/mqtt/mqtt.c **** 
1324:Middlewares/Third_Party/LwIP/src/apps/mqtt/mqtt.c ****   client->connect_arg = arg;
 4334              		.loc 1 1324 3 is_stmt 1 view .LVU1248
 4335              		.loc 1 1324 23 is_stmt 0 view .LVU1249
 4336 0054 129B     		ldr	r3, [sp, #72]
 4337 0056 2361     		str	r3, [r4, #16]
1325:Middlewares/Third_Party/LwIP/src/apps/mqtt/mqtt.c ****   client->connect_cb = cb;
 4338              		.loc 1 1325 3 is_stmt 1 view .LVU1250
 4339              		.loc 1 1325 22 is_stmt 0 view .LVU1251
 4340 0058 C4F81490 		str	r9, [r4, #20]
1326:Middlewares/Third_Party/LwIP/src/apps/mqtt/mqtt.c ****   client->keep_alive = client_info->keep_alive;
 4341              		.loc 1 1326 3 is_stmt 1 view .LVU1252
 4342              		.loc 1 1326 35 is_stmt 0 view .LVU1253
 4343 005c AB89     		ldrh	r3, [r5, #12]
 4344              		.loc 1 1326 22 view .LVU1254
 4345 005e 6380     		strh	r3, [r4, #2]	@ movhi
1327:Middlewares/Third_Party/LwIP/src/apps/mqtt/mqtt.c ****   mqtt_init_requests(client->req_list, LWIP_ARRAYSIZE(client->req_list));
 4346              		.loc 1 1327 3 is_stmt 1 view .LVU1255
 4347 0060 0421     		movs	r1, #4
 4348 0062 04F11C00 		add	r0, r4, #28
 4349 0066 FFF7FEFF 		bl	mqtt_init_requests
 4350              	.LVL490:
1328:Middlewares/Third_Party/LwIP/src/apps/mqtt/mqtt.c **** 
1329:Middlewares/Third_Party/LwIP/src/apps/mqtt/mqtt.c ****   /* Build connect message */
1330:Middlewares/Third_Party/LwIP/src/apps/mqtt/mqtt.c ****   if (client_info->will_topic != NULL && client_info->will_msg != NULL) {
 4351              		.loc 1 1330 3 view .LVU1256
 4352              		.loc 1 1330 18 is_stmt 0 view .LVU1257
 4353 006a 2869     		ldr	r0, [r5, #16]
 4354              		.loc 1 1330 6 view .LVU1258
 4355 006c 0028     		cmp	r0, #0
 4356 006e 00F0BE80 		beq	.L335
 4357              		.loc 1 1330 53 discriminator 1 view .LVU1259
 4358 0072 D5F81480 		ldr	r8, [r5, #20]
 4359              	.LVL491:
 4360              		.loc 1 1330 39 discriminator 1 view .LVU1260
 4361 0076 B8F1000F 		cmp	r8, #0
ARM GAS  C:\Users\hh\AppData\Local\Temp\cc3qgJrr.s 			page 118


 4362 007a 00F0BD80 		beq	.L336
1331:Middlewares/Third_Party/LwIP/src/apps/mqtt/mqtt.c ****     flags |= MQTT_CONNECT_FLAG_WILL;
 4363              		.loc 1 1331 5 is_stmt 1 view .LVU1261
 4364              	.LVL492:
1332:Middlewares/Third_Party/LwIP/src/apps/mqtt/mqtt.c ****     flags |= (client_info->will_qos & 3) << 3;
 4365              		.loc 1 1332 5 view .LVU1262
 4366              		.loc 1 1332 26 is_stmt 0 view .LVU1263
 4367 007e 6B7E     		ldrb	r3, [r5, #25]	@ zero_extendqisi2
 4368              		.loc 1 1332 42 view .LVU1264
 4369 0080 DB00     		lsls	r3, r3, #3
 4370 0082 03F01803 		and	r3, r3, #24
 4371              		.loc 1 1332 11 view .LVU1265
 4372 0086 43F00406 		orr	r6, r3, #4
 4373              	.LVL493:
1333:Middlewares/Third_Party/LwIP/src/apps/mqtt/mqtt.c ****     if (client_info->will_retain) {
 4374              		.loc 1 1333 5 is_stmt 1 view .LVU1266
 4375              		.loc 1 1333 20 is_stmt 0 view .LVU1267
 4376 008a AA7E     		ldrb	r2, [r5, #26]	@ zero_extendqisi2
 4377              		.loc 1 1333 8 view .LVU1268
 4378 008c 0AB1     		cbz	r2, .L327
1334:Middlewares/Third_Party/LwIP/src/apps/mqtt/mqtt.c ****       flags |= MQTT_CONNECT_FLAG_WILL_RETAIN;
 4379              		.loc 1 1334 7 is_stmt 1 view .LVU1269
 4380              		.loc 1 1334 13 is_stmt 0 view .LVU1270
 4381 008e 43F02406 		orr	r6, r3, #36
 4382              	.LVL494:
 4383              	.L327:
1335:Middlewares/Third_Party/LwIP/src/apps/mqtt/mqtt.c ****     }
1336:Middlewares/Third_Party/LwIP/src/apps/mqtt/mqtt.c ****     len = strlen(client_info->will_topic);
 4384              		.loc 1 1336 5 is_stmt 1 view .LVU1271
 4385              		.loc 1 1336 11 is_stmt 0 view .LVU1272
 4386 0092 FFF7FEFF 		bl	strlen
 4387              	.LVL495:
 4388 0096 0746     		mov	r7, r0
 4389              	.LVL496:
1337:Middlewares/Third_Party/LwIP/src/apps/mqtt/mqtt.c ****     LWIP_ERROR("mqtt_client_connect: client_info->will_topic length overflow", len <= 0xFF, return 
 4390              		.loc 1 1337 5 is_stmt 1 view .LVU1273
 4391              		.loc 1 1337 5 view .LVU1274
 4392 0098 FF28     		cmp	r0, #255
 4393 009a 00F20881 		bhi	.L337
 4394              		.loc 1 1337 5 view .LVU1275
1338:Middlewares/Third_Party/LwIP/src/apps/mqtt/mqtt.c ****     LWIP_ERROR("mqtt_client_connect: client_info->will_topic length must be > 0", len > 0, return E
 4395              		.loc 1 1338 5 view .LVU1276
 4396              		.loc 1 1338 5 view .LVU1277
 4397 009e 0028     		cmp	r0, #0
 4398 00a0 00F00981 		beq	.L338
 4399              		.loc 1 1338 5 view .LVU1278
1339:Middlewares/Third_Party/LwIP/src/apps/mqtt/mqtt.c ****     will_topic_len = (u8_t)len;
 4400              		.loc 1 1339 5 view .LVU1279
 4401              		.loc 1 1339 20 is_stmt 0 view .LVU1280
 4402 00a4 C3B2     		uxtb	r3, r0
 4403 00a6 0593     		str	r3, [sp, #20]
 4404              	.LVL497:
1340:Middlewares/Third_Party/LwIP/src/apps/mqtt/mqtt.c ****     if (client_info->will_msg_len == 0)
 4405              		.loc 1 1340 5 is_stmt 1 view .LVU1281
 4406              		.loc 1 1340 20 is_stmt 0 view .LVU1282
 4407 00a8 2B7E     		ldrb	r3, [r5, #24]	@ zero_extendqisi2
 4408 00aa 0293     		str	r3, [sp, #8]
ARM GAS  C:\Users\hh\AppData\Local\Temp\cc3qgJrr.s 			page 119


 4409              	.LVL498:
 4410              		.loc 1 1340 8 view .LVU1283
 4411 00ac 3BB9     		cbnz	r3, .L328
1341:Middlewares/Third_Party/LwIP/src/apps/mqtt/mqtt.c ****     {
1342:Middlewares/Third_Party/LwIP/src/apps/mqtt/mqtt.c ****         len = strlen(client_info->will_msg);
 4412              		.loc 1 1342 9 is_stmt 1 view .LVU1284
 4413              		.loc 1 1342 15 is_stmt 0 view .LVU1285
 4414 00ae 4046     		mov	r0, r8
 4415              	.LVL499:
 4416              		.loc 1 1342 15 view .LVU1286
 4417 00b0 FFF7FEFF 		bl	strlen
 4418              	.LVL500:
1343:Middlewares/Third_Party/LwIP/src/apps/mqtt/mqtt.c ****         LWIP_ERROR("mqtt_client_connect: client_info->will_msg length overflow", len <= 0xFF, retur
 4419              		.loc 1 1343 9 is_stmt 1 view .LVU1287
 4420              		.loc 1 1343 9 view .LVU1288
 4421 00b4 FF28     		cmp	r0, #255
 4422 00b6 00F20281 		bhi	.L339
 4423              		.loc 1 1343 9 view .LVU1289
1344:Middlewares/Third_Party/LwIP/src/apps/mqtt/mqtt.c ****         will_msg_len = (u8_t)len;
 4424              		.loc 1 1344 9 view .LVU1290
 4425              		.loc 1 1344 22 is_stmt 0 view .LVU1291
 4426 00ba C3B2     		uxtb	r3, r0
 4427 00bc 0293     		str	r3, [sp, #8]
 4428              	.L328:
 4429              	.LVL501:
1345:Middlewares/Third_Party/LwIP/src/apps/mqtt/mqtt.c ****     }
1346:Middlewares/Third_Party/LwIP/src/apps/mqtt/mqtt.c ****     else
1347:Middlewares/Third_Party/LwIP/src/apps/mqtt/mqtt.c ****     {
1348:Middlewares/Third_Party/LwIP/src/apps/mqtt/mqtt.c ****         will_msg_len = client_info->will_msg_len;
1349:Middlewares/Third_Party/LwIP/src/apps/mqtt/mqtt.c ****     }
1350:Middlewares/Third_Party/LwIP/src/apps/mqtt/mqtt.c ****     len = remaining_length + 2 + will_topic_len + 2 + will_msg_len;
 4430              		.loc 1 1350 5 is_stmt 1 view .LVU1292
 4431              		.loc 1 1350 32 is_stmt 0 view .LVU1293
 4432 00be 5FFA87F8 		uxtb	r8, r7
 4433              		.loc 1 1350 49 view .LVU1294
 4434 00c2 08F10E08 		add	r8, r8, #14
 4435              		.loc 1 1350 53 view .LVU1295
 4436 00c6 029B     		ldr	r3, [sp, #8]
 4437 00c8 9844     		add	r8, r8, r3
 4438              	.LVL502:
1351:Middlewares/Third_Party/LwIP/src/apps/mqtt/mqtt.c ****     LWIP_ERROR("mqtt_client_connect: remaining_length overflow", len <= 0xFFFF, return ERR_VAL);
 4439              		.loc 1 1351 5 is_stmt 1 view .LVU1296
 4440              		.loc 1 1351 5 view .LVU1297
 4441 00ca B8F5803F 		cmp	r8, #65536
 4442 00ce 80F0FA80 		bcs	.L340
 4443              		.loc 1 1351 5 view .LVU1298
1352:Middlewares/Third_Party/LwIP/src/apps/mqtt/mqtt.c ****     remaining_length = (u16_t)len;
 4444              		.loc 1 1352 5 view .LVU1299
 4445              		.loc 1 1352 22 is_stmt 0 view .LVU1300
 4446 00d2 1FFA88F8 		uxth	r8, r8
 4447              	.LVL503:
 4448              	.L326:
1353:Middlewares/Third_Party/LwIP/src/apps/mqtt/mqtt.c ****   }
1354:Middlewares/Third_Party/LwIP/src/apps/mqtt/mqtt.c ****   if (client_info->client_user != NULL) {
 4449              		.loc 1 1354 3 is_stmt 1 view .LVU1301
 4450              		.loc 1 1354 18 is_stmt 0 view .LVU1302
 4451 00d6 6868     		ldr	r0, [r5, #4]
ARM GAS  C:\Users\hh\AppData\Local\Temp\cc3qgJrr.s 			page 120


 4452              		.loc 1 1354 6 view .LVU1303
 4453 00d8 0028     		cmp	r0, #0
 4454 00da 00F09280 		beq	.L341
1355:Middlewares/Third_Party/LwIP/src/apps/mqtt/mqtt.c ****     flags |= MQTT_CONNECT_FLAG_USERNAME;
 4455              		.loc 1 1355 5 is_stmt 1 view .LVU1304
 4456              		.loc 1 1355 11 is_stmt 0 view .LVU1305
 4457 00de 46F08006 		orr	r6, r6, #128
 4458              	.LVL504:
1356:Middlewares/Third_Party/LwIP/src/apps/mqtt/mqtt.c ****     len = strlen(client_info->client_user);
 4459              		.loc 1 1356 5 is_stmt 1 view .LVU1306
 4460              		.loc 1 1356 11 is_stmt 0 view .LVU1307
 4461 00e2 FFF7FEFF 		bl	strlen
 4462              	.LVL505:
1357:Middlewares/Third_Party/LwIP/src/apps/mqtt/mqtt.c ****     LWIP_ERROR("mqtt_client_connect: client_info->client_user length overflow", len <= 0xFFFF, retu
 4463              		.loc 1 1357 5 is_stmt 1 view .LVU1308
 4464              		.loc 1 1357 5 view .LVU1309
 4465 00e6 B0F5803F 		cmp	r0, #65536
 4466 00ea 80F0F080 		bcs	.L342
 4467              		.loc 1 1357 5 view .LVU1310
1358:Middlewares/Third_Party/LwIP/src/apps/mqtt/mqtt.c ****     LWIP_ERROR("mqtt_client_connect: client_info->client_user length must be > 0", len > 0, return 
 4468              		.loc 1 1358 5 view .LVU1311
 4469              		.loc 1 1358 5 view .LVU1312
 4470 00ee 0028     		cmp	r0, #0
 4471 00f0 00F0F180 		beq	.L343
 4472              		.loc 1 1358 5 view .LVU1313
1359:Middlewares/Third_Party/LwIP/src/apps/mqtt/mqtt.c ****     client_user_len = (u16_t)len;
 4473              		.loc 1 1359 5 view .LVU1314
 4474              		.loc 1 1359 21 is_stmt 0 view .LVU1315
 4475 00f4 83B2     		uxth	r3, r0
 4476 00f6 0693     		str	r3, [sp, #24]
 4477              	.LVL506:
1360:Middlewares/Third_Party/LwIP/src/apps/mqtt/mqtt.c ****     len = remaining_length + 2 + client_user_len;
 4478              		.loc 1 1360 5 is_stmt 1 view .LVU1316
 4479              		.loc 1 1360 28 is_stmt 0 view .LVU1317
 4480 00f8 08F10208 		add	r8, r8, #2
 4481              	.LVL507:
 4482              		.loc 1 1360 32 view .LVU1318
 4483 00fc 9844     		add	r8, r8, r3
 4484              	.LVL508:
1361:Middlewares/Third_Party/LwIP/src/apps/mqtt/mqtt.c ****     LWIP_ERROR("mqtt_client_connect: remaining_length overflow", len <= 0xFFFF, return ERR_VAL);
 4485              		.loc 1 1361 5 is_stmt 1 view .LVU1319
 4486              		.loc 1 1361 5 view .LVU1320
 4487 00fe B8F5803F 		cmp	r8, #65536
 4488 0102 80F0EC80 		bcs	.L344
 4489              		.loc 1 1361 5 view .LVU1321
1362:Middlewares/Third_Party/LwIP/src/apps/mqtt/mqtt.c ****     remaining_length = (u16_t)len;
 4490              		.loc 1 1362 5 view .LVU1322
 4491              		.loc 1 1362 22 is_stmt 0 view .LVU1323
 4492 0106 1FFA88F8 		uxth	r8, r8
 4493              	.LVL509:
 4494              	.L329:
1363:Middlewares/Third_Party/LwIP/src/apps/mqtt/mqtt.c ****   }
1364:Middlewares/Third_Party/LwIP/src/apps/mqtt/mqtt.c ****   if (client_info->client_pass != NULL) {
 4495              		.loc 1 1364 3 is_stmt 1 view .LVU1324
 4496              		.loc 1 1364 18 is_stmt 0 view .LVU1325
 4497 010a A868     		ldr	r0, [r5, #8]
 4498              		.loc 1 1364 6 view .LVU1326
ARM GAS  C:\Users\hh\AppData\Local\Temp\cc3qgJrr.s 			page 121


 4499 010c 0028     		cmp	r0, #0
 4500 010e 7AD0     		beq	.L345
1365:Middlewares/Third_Party/LwIP/src/apps/mqtt/mqtt.c ****     flags |= MQTT_CONNECT_FLAG_PASSWORD;
 4501              		.loc 1 1365 5 is_stmt 1 view .LVU1327
 4502              		.loc 1 1365 11 is_stmt 0 view .LVU1328
 4503 0110 46F04006 		orr	r6, r6, #64
 4504              	.LVL510:
1366:Middlewares/Third_Party/LwIP/src/apps/mqtt/mqtt.c ****     len = strlen(client_info->client_pass);
 4505              		.loc 1 1366 5 is_stmt 1 view .LVU1329
 4506              		.loc 1 1366 11 is_stmt 0 view .LVU1330
 4507 0114 FFF7FEFF 		bl	strlen
 4508              	.LVL511:
1367:Middlewares/Third_Party/LwIP/src/apps/mqtt/mqtt.c ****     LWIP_ERROR("mqtt_client_connect: client_info->client_pass length overflow", len <= 0xFFFF, retu
 4509              		.loc 1 1367 5 is_stmt 1 view .LVU1331
 4510              		.loc 1 1367 5 view .LVU1332
 4511 0118 B0F5803F 		cmp	r0, #65536
 4512 011c 80F0E380 		bcs	.L346
 4513              		.loc 1 1367 5 view .LVU1333
1368:Middlewares/Third_Party/LwIP/src/apps/mqtt/mqtt.c ****     LWIP_ERROR("mqtt_client_connect: client_info->client_pass length must be > 0", len > 0, return 
 4514              		.loc 1 1368 5 view .LVU1334
 4515              		.loc 1 1368 5 view .LVU1335
 4516 0120 0028     		cmp	r0, #0
 4517 0122 00F0E480 		beq	.L347
 4518              		.loc 1 1368 5 view .LVU1336
1369:Middlewares/Third_Party/LwIP/src/apps/mqtt/mqtt.c ****     client_pass_len = (u16_t)len;
 4519              		.loc 1 1369 5 view .LVU1337
 4520              		.loc 1 1369 21 is_stmt 0 view .LVU1338
 4521 0126 83B2     		uxth	r3, r0
 4522 0128 0793     		str	r3, [sp, #28]
 4523              	.LVL512:
1370:Middlewares/Third_Party/LwIP/src/apps/mqtt/mqtt.c ****     len = remaining_length + 2 + client_pass_len;
 4524              		.loc 1 1370 5 is_stmt 1 view .LVU1339
 4525              		.loc 1 1370 28 is_stmt 0 view .LVU1340
 4526 012a 08F10208 		add	r8, r8, #2
 4527              	.LVL513:
 4528              		.loc 1 1370 32 view .LVU1341
 4529 012e 9844     		add	r8, r8, r3
 4530              	.LVL514:
1371:Middlewares/Third_Party/LwIP/src/apps/mqtt/mqtt.c ****     LWIP_ERROR("mqtt_client_connect: remaining_length overflow", len <= 0xFFFF, return ERR_VAL);
 4531              		.loc 1 1371 5 is_stmt 1 view .LVU1342
 4532              		.loc 1 1371 5 view .LVU1343
 4533 0130 B8F5803F 		cmp	r8, #65536
 4534 0134 80F0DF80 		bcs	.L348
 4535              		.loc 1 1371 5 view .LVU1344
1372:Middlewares/Third_Party/LwIP/src/apps/mqtt/mqtt.c ****     remaining_length = (u16_t)len;
 4536              		.loc 1 1372 5 view .LVU1345
 4537              		.loc 1 1372 22 is_stmt 0 view .LVU1346
 4538 0138 1FFA88F8 		uxth	r8, r8
 4539              	.LVL515:
 4540              	.L330:
1373:Middlewares/Third_Party/LwIP/src/apps/mqtt/mqtt.c ****   }
1374:Middlewares/Third_Party/LwIP/src/apps/mqtt/mqtt.c **** 
1375:Middlewares/Third_Party/LwIP/src/apps/mqtt/mqtt.c ****   /* Don't complicate things, always connect using clean session */
1376:Middlewares/Third_Party/LwIP/src/apps/mqtt/mqtt.c ****   flags |= MQTT_CONNECT_FLAG_CLEAN_SESSION;
 4541              		.loc 1 1376 3 is_stmt 1 view .LVU1347
 4542              		.loc 1 1376 9 is_stmt 0 view .LVU1348
 4543 013c 46F00203 		orr	r3, r6, #2
ARM GAS  C:\Users\hh\AppData\Local\Temp\cc3qgJrr.s 			page 122


 4544 0140 0493     		str	r3, [sp, #16]
 4545              	.LVL516:
1377:Middlewares/Third_Party/LwIP/src/apps/mqtt/mqtt.c **** 
1378:Middlewares/Third_Party/LwIP/src/apps/mqtt/mqtt.c ****   len = strlen(client_info->client_id);
 4546              		.loc 1 1378 3 is_stmt 1 view .LVU1349
 4547              		.loc 1 1378 9 is_stmt 0 view .LVU1350
 4548 0142 2868     		ldr	r0, [r5]
 4549 0144 FFF7FEFF 		bl	strlen
 4550              	.LVL517:
1379:Middlewares/Third_Party/LwIP/src/apps/mqtt/mqtt.c ****   LWIP_ERROR("mqtt_client_connect: client_info->client_id length overflow", len <= 0xFFFF, return E
 4551              		.loc 1 1379 3 is_stmt 1 view .LVU1351
 4552              		.loc 1 1379 3 view .LVU1352
 4553 0148 B0F5803F 		cmp	r0, #65536
 4554 014c 80F0D780 		bcs	.L349
 4555              		.loc 1 1379 3 view .LVU1353
1380:Middlewares/Third_Party/LwIP/src/apps/mqtt/mqtt.c ****   client_id_length = (u16_t)len;
 4556              		.loc 1 1380 3 view .LVU1354
 4557              		.loc 1 1380 20 is_stmt 0 view .LVU1355
 4558 0150 87B2     		uxth	r7, r0
 4559              	.LVL518:
1381:Middlewares/Third_Party/LwIP/src/apps/mqtt/mqtt.c ****   len = remaining_length + 2 + client_id_length;
 4560              		.loc 1 1381 3 is_stmt 1 view .LVU1356
 4561              		.loc 1 1381 26 is_stmt 0 view .LVU1357
 4562 0152 08F10208 		add	r8, r8, #2
 4563              	.LVL519:
 4564              		.loc 1 1381 30 view .LVU1358
 4565 0156 B844     		add	r8, r8, r7
 4566              	.LVL520:
1382:Middlewares/Third_Party/LwIP/src/apps/mqtt/mqtt.c ****   LWIP_ERROR("mqtt_client_connect: remaining_length overflow", len <= 0xFFFF, return ERR_VAL);
 4567              		.loc 1 1382 3 is_stmt 1 view .LVU1359
 4568              		.loc 1 1382 3 view .LVU1360
 4569 0158 B8F5803F 		cmp	r8, #65536
 4570 015c 80F0D380 		bcs	.L350
 4571              		.loc 1 1382 3 view .LVU1361
1383:Middlewares/Third_Party/LwIP/src/apps/mqtt/mqtt.c ****   remaining_length = (u16_t)len;
 4572              		.loc 1 1383 3 view .LVU1362
 4573              		.loc 1 1383 20 is_stmt 0 view .LVU1363
 4574 0160 1FFA88F2 		uxth	r2, r8
 4575              	.LVL521:
1384:Middlewares/Third_Party/LwIP/src/apps/mqtt/mqtt.c **** 
1385:Middlewares/Third_Party/LwIP/src/apps/mqtt/mqtt.c ****   if (mqtt_output_check_space(&client->output, remaining_length) == 0) {
 4576              		.loc 1 1385 3 is_stmt 1 view .LVU1364
 4577              		.loc 1 1385 7 is_stmt 0 view .LVU1365
 4578 0164 04F1EC08 		add	r8, r4, #236
 4579              	.LVL522:
 4580              		.loc 1 1385 7 view .LVU1366
 4581 0168 9146     		mov	r9, r2
 4582              	.LVL523:
 4583              		.loc 1 1385 7 view .LVU1367
 4584 016a 1146     		mov	r1, r2
 4585 016c 4046     		mov	r0, r8
 4586 016e FFF7FEFF 		bl	mqtt_output_check_space
 4587              	.LVL524:
 4588              		.loc 1 1385 6 discriminator 1 view .LVU1368
 4589 0172 0028     		cmp	r0, #0
 4590 0174 00F0CB80 		beq	.L351
1386:Middlewares/Third_Party/LwIP/src/apps/mqtt/mqtt.c ****     return ERR_MEM;
ARM GAS  C:\Users\hh\AppData\Local\Temp\cc3qgJrr.s 			page 123


1387:Middlewares/Third_Party/LwIP/src/apps/mqtt/mqtt.c ****   }
1388:Middlewares/Third_Party/LwIP/src/apps/mqtt/mqtt.c **** 
1389:Middlewares/Third_Party/LwIP/src/apps/mqtt/mqtt.c **** #if LWIP_ALTCP && LWIP_ALTCP_TLS
1390:Middlewares/Third_Party/LwIP/src/apps/mqtt/mqtt.c ****   if (client_info->tls_config) {
1391:Middlewares/Third_Party/LwIP/src/apps/mqtt/mqtt.c ****     client->conn = altcp_tls_new(client_info->tls_config, IP_GET_TYPE(ip_addr));
1392:Middlewares/Third_Party/LwIP/src/apps/mqtt/mqtt.c ****   } else
1393:Middlewares/Third_Party/LwIP/src/apps/mqtt/mqtt.c **** #endif
1394:Middlewares/Third_Party/LwIP/src/apps/mqtt/mqtt.c ****   {
1395:Middlewares/Third_Party/LwIP/src/apps/mqtt/mqtt.c ****     client->conn = altcp_tcp_new_ip_type(IP_GET_TYPE(ip_addr));
 4591              		.loc 1 1395 5 is_stmt 1 view .LVU1369
 4592              		.loc 1 1395 20 is_stmt 0 view .LVU1370
 4593 0178 0020     		movs	r0, #0
 4594 017a FFF7FEFF 		bl	tcp_new_ip_type
 4595              	.LVL525:
 4596              		.loc 1 1395 18 discriminator 1 view .LVU1371
 4597 017e E060     		str	r0, [r4, #12]
1396:Middlewares/Third_Party/LwIP/src/apps/mqtt/mqtt.c ****   }
1397:Middlewares/Third_Party/LwIP/src/apps/mqtt/mqtt.c ****   if (client->conn == NULL) {
 4598              		.loc 1 1397 3 is_stmt 1 view .LVU1372
 4599              		.loc 1 1397 6 is_stmt 0 view .LVU1373
 4600 0180 0028     		cmp	r0, #0
 4601 0182 00F0C880 		beq	.L352
1398:Middlewares/Third_Party/LwIP/src/apps/mqtt/mqtt.c ****     return ERR_MEM;
1399:Middlewares/Third_Party/LwIP/src/apps/mqtt/mqtt.c ****   }
1400:Middlewares/Third_Party/LwIP/src/apps/mqtt/mqtt.c **** 
1401:Middlewares/Third_Party/LwIP/src/apps/mqtt/mqtt.c ****   /* Set arg pointer for callbacks */
1402:Middlewares/Third_Party/LwIP/src/apps/mqtt/mqtt.c ****   altcp_arg(client->conn, client);
 4602              		.loc 1 1402 3 is_stmt 1 view .LVU1374
 4603 0186 2146     		mov	r1, r4
 4604 0188 FFF7FEFF 		bl	tcp_arg
 4605              	.LVL526:
1403:Middlewares/Third_Party/LwIP/src/apps/mqtt/mqtt.c ****   /* Any local address, pick random local port number */
1404:Middlewares/Third_Party/LwIP/src/apps/mqtt/mqtt.c ****   err = altcp_bind(client->conn, IP_ADDR_ANY, 0);
 4606              		.loc 1 1404 3 view .LVU1375
 4607              		.loc 1 1404 9 is_stmt 0 view .LVU1376
 4608 018c 0022     		movs	r2, #0
 4609 018e 6449     		ldr	r1, .L361
 4610 0190 E068     		ldr	r0, [r4, #12]
 4611 0192 FFF7FEFF 		bl	tcp_bind
 4612              	.LVL527:
1405:Middlewares/Third_Party/LwIP/src/apps/mqtt/mqtt.c ****   if (err != ERR_OK) {
 4613              		.loc 1 1405 3 is_stmt 1 view .LVU1377
 4614              		.loc 1 1405 6 is_stmt 0 view .LVU1378
 4615 0196 8346     		mov	fp, r0
 4616 0198 0028     		cmp	r0, #0
 4617 019a 36D0     		beq	.L358
 4618              	.L331:
 4619              	.LVL528:
1406:Middlewares/Third_Party/LwIP/src/apps/mqtt/mqtt.c ****     LWIP_DEBUGF(MQTT_DEBUG_WARN, ("mqtt_client_connect: Error binding to local ip/port, %d\n", err)
1407:Middlewares/Third_Party/LwIP/src/apps/mqtt/mqtt.c ****     goto tcp_fail;
1408:Middlewares/Third_Party/LwIP/src/apps/mqtt/mqtt.c ****   }
1409:Middlewares/Third_Party/LwIP/src/apps/mqtt/mqtt.c ****   LWIP_DEBUGF(MQTT_DEBUG_TRACE, ("mqtt_client_connect: Connecting to host: %s at port:%"U16_F"\n", 
1410:Middlewares/Third_Party/LwIP/src/apps/mqtt/mqtt.c **** 
1411:Middlewares/Third_Party/LwIP/src/apps/mqtt/mqtt.c ****   /* Connect to server */
1412:Middlewares/Third_Party/LwIP/src/apps/mqtt/mqtt.c ****   err = altcp_connect(client->conn, ip_addr, port, mqtt_tcp_connect_cb);
1413:Middlewares/Third_Party/LwIP/src/apps/mqtt/mqtt.c ****   if (err != ERR_OK) {
1414:Middlewares/Third_Party/LwIP/src/apps/mqtt/mqtt.c ****     LWIP_DEBUGF(MQTT_DEBUG_TRACE, ("mqtt_client_connect: Error connecting to remote ip/port, %d\n",
ARM GAS  C:\Users\hh\AppData\Local\Temp\cc3qgJrr.s 			page 124


1415:Middlewares/Third_Party/LwIP/src/apps/mqtt/mqtt.c ****     goto tcp_fail;
1416:Middlewares/Third_Party/LwIP/src/apps/mqtt/mqtt.c ****   }
1417:Middlewares/Third_Party/LwIP/src/apps/mqtt/mqtt.c ****   /* Set error callback */
1418:Middlewares/Third_Party/LwIP/src/apps/mqtt/mqtt.c ****   altcp_err(client->conn, mqtt_tcp_err_cb);
1419:Middlewares/Third_Party/LwIP/src/apps/mqtt/mqtt.c ****   client->conn_state = TCP_CONNECTING;
1420:Middlewares/Third_Party/LwIP/src/apps/mqtt/mqtt.c **** 
1421:Middlewares/Third_Party/LwIP/src/apps/mqtt/mqtt.c ****   /* Append fixed header */
1422:Middlewares/Third_Party/LwIP/src/apps/mqtt/mqtt.c ****   mqtt_output_append_fixed_header(&client->output, MQTT_MSG_TYPE_CONNECT, 0, 0, 0, remaining_length
1423:Middlewares/Third_Party/LwIP/src/apps/mqtt/mqtt.c ****   /* Append Protocol string */
1424:Middlewares/Third_Party/LwIP/src/apps/mqtt/mqtt.c ****   mqtt_output_append_string(&client->output, "MQTT", 4);
1425:Middlewares/Third_Party/LwIP/src/apps/mqtt/mqtt.c ****   /* Append Protocol level */
1426:Middlewares/Third_Party/LwIP/src/apps/mqtt/mqtt.c ****   mqtt_output_append_u8(&client->output, 4);
1427:Middlewares/Third_Party/LwIP/src/apps/mqtt/mqtt.c ****   /* Append connect flags */
1428:Middlewares/Third_Party/LwIP/src/apps/mqtt/mqtt.c ****   mqtt_output_append_u8(&client->output, flags);
1429:Middlewares/Third_Party/LwIP/src/apps/mqtt/mqtt.c ****   /* Append keep-alive */
1430:Middlewares/Third_Party/LwIP/src/apps/mqtt/mqtt.c ****   mqtt_output_append_u16(&client->output, client_info->keep_alive);
1431:Middlewares/Third_Party/LwIP/src/apps/mqtt/mqtt.c ****   /* Append client id */
1432:Middlewares/Third_Party/LwIP/src/apps/mqtt/mqtt.c ****   mqtt_output_append_string(&client->output, client_info->client_id, client_id_length);
1433:Middlewares/Third_Party/LwIP/src/apps/mqtt/mqtt.c ****   /* Append will message if used */
1434:Middlewares/Third_Party/LwIP/src/apps/mqtt/mqtt.c ****   if ((flags & MQTT_CONNECT_FLAG_WILL) != 0) {
1435:Middlewares/Third_Party/LwIP/src/apps/mqtt/mqtt.c ****     mqtt_output_append_string(&client->output, client_info->will_topic, will_topic_len);
1436:Middlewares/Third_Party/LwIP/src/apps/mqtt/mqtt.c ****     mqtt_output_append_string(&client->output, client_info->will_msg, will_msg_len);
1437:Middlewares/Third_Party/LwIP/src/apps/mqtt/mqtt.c ****   }
1438:Middlewares/Third_Party/LwIP/src/apps/mqtt/mqtt.c ****   /* Append user name if given */
1439:Middlewares/Third_Party/LwIP/src/apps/mqtt/mqtt.c ****   if ((flags & MQTT_CONNECT_FLAG_USERNAME) != 0) {
1440:Middlewares/Third_Party/LwIP/src/apps/mqtt/mqtt.c ****     mqtt_output_append_string(&client->output, client_info->client_user, client_user_len);
1441:Middlewares/Third_Party/LwIP/src/apps/mqtt/mqtt.c ****   }
1442:Middlewares/Third_Party/LwIP/src/apps/mqtt/mqtt.c ****   /* Append password if given */
1443:Middlewares/Third_Party/LwIP/src/apps/mqtt/mqtt.c ****   if ((flags & MQTT_CONNECT_FLAG_PASSWORD) != 0) {
1444:Middlewares/Third_Party/LwIP/src/apps/mqtt/mqtt.c ****     mqtt_output_append_string(&client->output, client_info->client_pass, client_pass_len);
1445:Middlewares/Third_Party/LwIP/src/apps/mqtt/mqtt.c ****   }
1446:Middlewares/Third_Party/LwIP/src/apps/mqtt/mqtt.c ****   return ERR_OK;
1447:Middlewares/Third_Party/LwIP/src/apps/mqtt/mqtt.c **** 
1448:Middlewares/Third_Party/LwIP/src/apps/mqtt/mqtt.c **** tcp_fail:
1449:Middlewares/Third_Party/LwIP/src/apps/mqtt/mqtt.c ****   altcp_abort(client->conn);
 4620              		.loc 1 1449 3 is_stmt 1 view .LVU1379
 4621 019c E068     		ldr	r0, [r4, #12]
 4622 019e FFF7FEFF 		bl	tcp_abort
 4623              	.LVL529:
1450:Middlewares/Third_Party/LwIP/src/apps/mqtt/mqtt.c ****   client->conn = NULL;
 4624              		.loc 1 1450 3 view .LVU1380
 4625              		.loc 1 1450 16 is_stmt 0 view .LVU1381
 4626 01a2 0023     		movs	r3, #0
 4627 01a4 E360     		str	r3, [r4, #12]
1451:Middlewares/Third_Party/LwIP/src/apps/mqtt/mqtt.c ****   return err;
 4628              		.loc 1 1451 3 is_stmt 1 view .LVU1382
 4629              	.LVL530:
 4630              	.L325:
1452:Middlewares/Third_Party/LwIP/src/apps/mqtt/mqtt.c **** }
 4631              		.loc 1 1452 1 is_stmt 0 view .LVU1383
 4632 01a6 5846     		mov	r0, fp
 4633 01a8 09B0     		add	sp, sp, #36
 4634              	.LCFI49:
 4635              		.cfi_remember_state
 4636              		.cfi_def_cfa_offset 36
 4637              		@ sp needed
 4638 01aa BDE8F08F 		pop	{r4, r5, r6, r7, r8, r9, r10, fp, pc}
ARM GAS  C:\Users\hh\AppData\Local\Temp\cc3qgJrr.s 			page 125


 4639              	.LVL531:
 4640              	.L354:
 4641              	.LCFI50:
 4642              		.cfi_restore_state
1305:Middlewares/Third_Party/LwIP/src/apps/mqtt/mqtt.c ****   LWIP_ASSERT("mqtt_client_connect: ip_addr != NULL", ip_addr != NULL);
 4643              		.loc 1 1305 3 is_stmt 1 discriminator 1 view .LVU1384
1305:Middlewares/Third_Party/LwIP/src/apps/mqtt/mqtt.c ****   LWIP_ASSERT("mqtt_client_connect: ip_addr != NULL", ip_addr != NULL);
 4644              		.loc 1 1305 3 discriminator 1 view .LVU1385
 4645 01ae 5D4B     		ldr	r3, .L361+4
 4646              	.LVL532:
1305:Middlewares/Third_Party/LwIP/src/apps/mqtt/mqtt.c ****   LWIP_ASSERT("mqtt_client_connect: ip_addr != NULL", ip_addr != NULL);
 4647              		.loc 1 1305 3 is_stmt 0 discriminator 1 view .LVU1386
 4648 01b0 40F21952 		movw	r2, #1305
 4649              	.LVL533:
1305:Middlewares/Third_Party/LwIP/src/apps/mqtt/mqtt.c ****   LWIP_ASSERT("mqtt_client_connect: ip_addr != NULL", ip_addr != NULL);
 4650              		.loc 1 1305 3 discriminator 1 view .LVU1387
 4651 01b4 5C49     		ldr	r1, .L361+8
 4652              	.LVL534:
1305:Middlewares/Third_Party/LwIP/src/apps/mqtt/mqtt.c ****   LWIP_ASSERT("mqtt_client_connect: ip_addr != NULL", ip_addr != NULL);
 4653              		.loc 1 1305 3 discriminator 1 view .LVU1388
 4654 01b6 5D48     		ldr	r0, .L361+12
 4655              	.LVL535:
1305:Middlewares/Third_Party/LwIP/src/apps/mqtt/mqtt.c ****   LWIP_ASSERT("mqtt_client_connect: ip_addr != NULL", ip_addr != NULL);
 4656              		.loc 1 1305 3 discriminator 1 view .LVU1389
 4657 01b8 FFF7FEFF 		bl	printf
 4658              	.LVL536:
 4659 01bc 2BE7     		b	.L321
 4660              	.LVL537:
 4661              	.L355:
1306:Middlewares/Third_Party/LwIP/src/apps/mqtt/mqtt.c ****   LWIP_ASSERT("mqtt_client_connect: client_info != NULL", client_info != NULL);
 4662              		.loc 1 1306 3 is_stmt 1 discriminator 1 view .LVU1390
1306:Middlewares/Third_Party/LwIP/src/apps/mqtt/mqtt.c ****   LWIP_ASSERT("mqtt_client_connect: client_info != NULL", client_info != NULL);
 4663              		.loc 1 1306 3 discriminator 1 view .LVU1391
 4664 01be 594B     		ldr	r3, .L361+4
 4665              	.LVL538:
1306:Middlewares/Third_Party/LwIP/src/apps/mqtt/mqtt.c ****   LWIP_ASSERT("mqtt_client_connect: client_info != NULL", client_info != NULL);
 4666              		.loc 1 1306 3 is_stmt 0 discriminator 1 view .LVU1392
 4667 01c0 40F21A52 		movw	r2, #1306
 4668 01c4 5A49     		ldr	r1, .L361+16
 4669 01c6 5948     		ldr	r0, .L361+12
 4670 01c8 FFF7FEFF 		bl	printf
 4671              	.LVL539:
 4672 01cc 27E7     		b	.L322
 4673              	.L356:
1307:Middlewares/Third_Party/LwIP/src/apps/mqtt/mqtt.c ****   LWIP_ASSERT("mqtt_client_connect: client_info->client_id != NULL", client_info->client_id != NULL
 4674              		.loc 1 1307 3 is_stmt 1 discriminator 1 view .LVU1393
1307:Middlewares/Third_Party/LwIP/src/apps/mqtt/mqtt.c ****   LWIP_ASSERT("mqtt_client_connect: client_info->client_id != NULL", client_info->client_id != NULL
 4675              		.loc 1 1307 3 discriminator 1 view .LVU1394
 4676 01ce 554B     		ldr	r3, .L361+4
 4677 01d0 40F21B52 		movw	r2, #1307
 4678 01d4 5749     		ldr	r1, .L361+20
 4679 01d6 5548     		ldr	r0, .L361+12
 4680 01d8 FFF7FEFF 		bl	printf
 4681              	.LVL540:
 4682 01dc 22E7     		b	.L323
 4683              	.L357:
1308:Middlewares/Third_Party/LwIP/src/apps/mqtt/mqtt.c **** 
ARM GAS  C:\Users\hh\AppData\Local\Temp\cc3qgJrr.s 			page 126


 4684              		.loc 1 1308 3 discriminator 1 view .LVU1395
1308:Middlewares/Third_Party/LwIP/src/apps/mqtt/mqtt.c **** 
 4685              		.loc 1 1308 3 discriminator 1 view .LVU1396
 4686 01de 514B     		ldr	r3, .L361+4
 4687 01e0 40F21C52 		movw	r2, #1308
 4688 01e4 5449     		ldr	r1, .L361+24
 4689 01e6 5148     		ldr	r0, .L361+12
 4690 01e8 FFF7FEFF 		bl	printf
 4691              	.LVL541:
 4692 01ec 1EE7     		b	.L324
 4693              	.LVL542:
 4694              	.L335:
1298:Middlewares/Third_Party/LwIP/src/apps/mqtt/mqtt.c ****   u16_t client_user_len = 0, client_pass_len = 0;
 4695              		.loc 1 1298 39 is_stmt 0 view .LVU1397
 4696 01ee 0296     		str	r6, [sp, #8]
 4697              	.LVL543:
1298:Middlewares/Third_Party/LwIP/src/apps/mqtt/mqtt.c ****   u16_t client_user_len = 0, client_pass_len = 0;
 4698              		.loc 1 1298 19 view .LVU1398
 4699 01f0 0596     		str	r6, [sp, #20]
1297:Middlewares/Third_Party/LwIP/src/apps/mqtt/mqtt.c ****   u8_t flags = 0, will_topic_len = 0, will_msg_len = 0;
 4700              		.loc 1 1297 9 view .LVU1399
 4701 01f2 4FF00A08 		mov	r8, #10
 4702              	.LVL544:
1297:Middlewares/Third_Party/LwIP/src/apps/mqtt/mqtt.c ****   u8_t flags = 0, will_topic_len = 0, will_msg_len = 0;
 4703              		.loc 1 1297 9 view .LVU1400
 4704 01f6 6EE7     		b	.L326
 4705              	.LVL545:
 4706              	.L336:
1298:Middlewares/Third_Party/LwIP/src/apps/mqtt/mqtt.c ****   u16_t client_user_len = 0, client_pass_len = 0;
 4707              		.loc 1 1298 39 view .LVU1401
 4708 01f8 0296     		str	r6, [sp, #8]
 4709              	.LVL546:
1298:Middlewares/Third_Party/LwIP/src/apps/mqtt/mqtt.c ****   u16_t client_user_len = 0, client_pass_len = 0;
 4710              		.loc 1 1298 19 view .LVU1402
 4711 01fa 0596     		str	r6, [sp, #20]
1297:Middlewares/Third_Party/LwIP/src/apps/mqtt/mqtt.c ****   u8_t flags = 0, will_topic_len = 0, will_msg_len = 0;
 4712              		.loc 1 1297 9 view .LVU1403
 4713 01fc 4FF00A08 		mov	r8, #10
 4714 0200 69E7     		b	.L326
 4715              	.LVL547:
 4716              	.L341:
1299:Middlewares/Third_Party/LwIP/src/apps/mqtt/mqtt.c ****   mqtt_incoming_data_cb_t data_cb;
 4717              		.loc 1 1299 9 view .LVU1404
 4718 0202 0690     		str	r0, [sp, #24]
 4719 0204 81E7     		b	.L329
 4720              	.LVL548:
 4721              	.L345:
1299:Middlewares/Third_Party/LwIP/src/apps/mqtt/mqtt.c ****   mqtt_incoming_data_cb_t data_cb;
 4722              		.loc 1 1299 30 view .LVU1405
 4723 0206 0790     		str	r0, [sp, #28]
 4724 0208 98E7     		b	.L330
 4725              	.LVL549:
 4726              	.L358:
1409:Middlewares/Third_Party/LwIP/src/apps/mqtt/mqtt.c **** 
 4727              		.loc 1 1409 128 is_stmt 1 view .LVU1406
1412:Middlewares/Third_Party/LwIP/src/apps/mqtt/mqtt.c ****   if (err != ERR_OK) {
 4728              		.loc 1 1412 3 view .LVU1407
ARM GAS  C:\Users\hh\AppData\Local\Temp\cc3qgJrr.s 			page 127


1412:Middlewares/Third_Party/LwIP/src/apps/mqtt/mqtt.c ****   if (err != ERR_OK) {
 4729              		.loc 1 1412 9 is_stmt 0 view .LVU1408
 4730 020a 4C4B     		ldr	r3, .L361+28
 4731 020c 039A     		ldr	r2, [sp, #12]
 4732 020e 5146     		mov	r1, r10
 4733 0210 E068     		ldr	r0, [r4, #12]
 4734              	.LVL550:
1412:Middlewares/Third_Party/LwIP/src/apps/mqtt/mqtt.c ****   if (err != ERR_OK) {
 4735              		.loc 1 1412 9 view .LVU1409
 4736 0212 FFF7FEFF 		bl	tcp_connect
 4737              	.LVL551:
1413:Middlewares/Third_Party/LwIP/src/apps/mqtt/mqtt.c ****     LWIP_DEBUGF(MQTT_DEBUG_TRACE, ("mqtt_client_connect: Error connecting to remote ip/port, %d\n",
 4738              		.loc 1 1413 3 is_stmt 1 view .LVU1410
1413:Middlewares/Third_Party/LwIP/src/apps/mqtt/mqtt.c ****     LWIP_DEBUGF(MQTT_DEBUG_TRACE, ("mqtt_client_connect: Error connecting to remote ip/port, %d\n",
 4739              		.loc 1 1413 6 is_stmt 0 view .LVU1411
 4740 0216 8346     		mov	fp, r0
 4741 0218 0028     		cmp	r0, #0
 4742 021a BFD1     		bne	.L331
1418:Middlewares/Third_Party/LwIP/src/apps/mqtt/mqtt.c ****   client->conn_state = TCP_CONNECTING;
 4743              		.loc 1 1418 3 is_stmt 1 view .LVU1412
 4744 021c 4849     		ldr	r1, .L361+32
 4745 021e E068     		ldr	r0, [r4, #12]
 4746              	.LVL552:
1418:Middlewares/Third_Party/LwIP/src/apps/mqtt/mqtt.c ****   client->conn_state = TCP_CONNECTING;
 4747              		.loc 1 1418 3 is_stmt 0 view .LVU1413
 4748 0220 FFF7FEFF 		bl	tcp_err
 4749              	.LVL553:
1419:Middlewares/Third_Party/LwIP/src/apps/mqtt/mqtt.c **** 
 4750              		.loc 1 1419 3 is_stmt 1 view .LVU1414
1419:Middlewares/Third_Party/LwIP/src/apps/mqtt/mqtt.c **** 
 4751              		.loc 1 1419 22 is_stmt 0 view .LVU1415
 4752 0224 0121     		movs	r1, #1
 4753 0226 A172     		strb	r1, [r4, #10]
1422:Middlewares/Third_Party/LwIP/src/apps/mqtt/mqtt.c ****   /* Append Protocol string */
 4754              		.loc 1 1422 3 is_stmt 1 view .LVU1416
 4755 0228 CDF80490 		str	r9, [sp, #4]
 4756 022c 0022     		movs	r2, #0
 4757 022e 0092     		str	r2, [sp]
 4758 0230 1346     		mov	r3, r2
 4759 0232 4046     		mov	r0, r8
 4760 0234 FFF7FEFF 		bl	mqtt_output_append_fixed_header
 4761              	.LVL554:
1424:Middlewares/Third_Party/LwIP/src/apps/mqtt/mqtt.c ****   /* Append Protocol level */
 4762              		.loc 1 1424 3 view .LVU1417
 4763 0238 0422     		movs	r2, #4
 4764 023a 4249     		ldr	r1, .L361+36
 4765 023c 4046     		mov	r0, r8
 4766 023e FFF7FEFF 		bl	mqtt_output_append_string
 4767              	.LVL555:
1426:Middlewares/Third_Party/LwIP/src/apps/mqtt/mqtt.c ****   /* Append connect flags */
 4768              		.loc 1 1426 3 view .LVU1418
 4769 0242 0421     		movs	r1, #4
 4770 0244 4046     		mov	r0, r8
 4771 0246 FFF7FEFF 		bl	mqtt_output_append_u8
 4772              	.LVL556:
1428:Middlewares/Third_Party/LwIP/src/apps/mqtt/mqtt.c ****   /* Append keep-alive */
 4773              		.loc 1 1428 3 view .LVU1419
ARM GAS  C:\Users\hh\AppData\Local\Temp\cc3qgJrr.s 			page 128


 4774 024a 0499     		ldr	r1, [sp, #16]
 4775 024c 4046     		mov	r0, r8
 4776 024e FFF7FEFF 		bl	mqtt_output_append_u8
 4777              	.LVL557:
1430:Middlewares/Third_Party/LwIP/src/apps/mqtt/mqtt.c ****   /* Append client id */
 4778              		.loc 1 1430 3 view .LVU1420
 4779 0252 A989     		ldrh	r1, [r5, #12]
 4780 0254 4046     		mov	r0, r8
 4781 0256 FFF7FEFF 		bl	mqtt_output_append_u16
 4782              	.LVL558:
1432:Middlewares/Third_Party/LwIP/src/apps/mqtt/mqtt.c ****   /* Append will message if used */
 4783              		.loc 1 1432 3 view .LVU1421
 4784 025a 3A46     		mov	r2, r7
 4785 025c 2968     		ldr	r1, [r5]
 4786 025e 4046     		mov	r0, r8
 4787 0260 FFF7FEFF 		bl	mqtt_output_append_string
 4788              	.LVL559:
1434:Middlewares/Third_Party/LwIP/src/apps/mqtt/mqtt.c ****     mqtt_output_append_string(&client->output, client_info->will_topic, will_topic_len);
 4789              		.loc 1 1434 3 view .LVU1422
1434:Middlewares/Third_Party/LwIP/src/apps/mqtt/mqtt.c ****     mqtt_output_append_string(&client->output, client_info->will_topic, will_topic_len);
 4790              		.loc 1 1434 6 is_stmt 0 view .LVU1423
 4791 0264 16F0040F 		tst	r6, #4
 4792 0268 0CD1     		bne	.L359
 4793              	.L332:
1439:Middlewares/Third_Party/LwIP/src/apps/mqtt/mqtt.c ****     mqtt_output_append_string(&client->output, client_info->client_user, client_user_len);
 4794              		.loc 1 1439 3 is_stmt 1 view .LVU1424
1439:Middlewares/Third_Party/LwIP/src/apps/mqtt/mqtt.c ****     mqtt_output_append_string(&client->output, client_info->client_user, client_user_len);
 4795              		.loc 1 1439 6 is_stmt 0 view .LVU1425
 4796 026a 049B     		ldr	r3, [sp, #16]
 4797 026c 13F0800F 		tst	r3, #128
 4798 0270 13D1     		bne	.L360
 4799              	.L333:
1443:Middlewares/Third_Party/LwIP/src/apps/mqtt/mqtt.c ****     mqtt_output_append_string(&client->output, client_info->client_pass, client_pass_len);
 4800              		.loc 1 1443 3 is_stmt 1 view .LVU1426
1443:Middlewares/Third_Party/LwIP/src/apps/mqtt/mqtt.c ****     mqtt_output_append_string(&client->output, client_info->client_pass, client_pass_len);
 4801              		.loc 1 1443 6 is_stmt 0 view .LVU1427
 4802 0272 16F0400F 		tst	r6, #64
 4803 0276 96D0     		beq	.L325
1444:Middlewares/Third_Party/LwIP/src/apps/mqtt/mqtt.c ****   }
 4804              		.loc 1 1444 5 is_stmt 1 view .LVU1428
 4805 0278 079A     		ldr	r2, [sp, #28]
 4806 027a A968     		ldr	r1, [r5, #8]
 4807 027c 4046     		mov	r0, r8
 4808 027e FFF7FEFF 		bl	mqtt_output_append_string
 4809              	.LVL560:
 4810 0282 90E7     		b	.L325
 4811              	.L359:
1435:Middlewares/Third_Party/LwIP/src/apps/mqtt/mqtt.c ****     mqtt_output_append_string(&client->output, client_info->will_msg, will_msg_len);
 4812              		.loc 1 1435 5 view .LVU1429
 4813 0284 059A     		ldr	r2, [sp, #20]
 4814 0286 2969     		ldr	r1, [r5, #16]
 4815 0288 4046     		mov	r0, r8
 4816 028a FFF7FEFF 		bl	mqtt_output_append_string
 4817              	.LVL561:
1436:Middlewares/Third_Party/LwIP/src/apps/mqtt/mqtt.c ****   }
 4818              		.loc 1 1436 5 view .LVU1430
 4819 028e 029A     		ldr	r2, [sp, #8]
ARM GAS  C:\Users\hh\AppData\Local\Temp\cc3qgJrr.s 			page 129


 4820 0290 6969     		ldr	r1, [r5, #20]
 4821 0292 4046     		mov	r0, r8
 4822 0294 FFF7FEFF 		bl	mqtt_output_append_string
 4823              	.LVL562:
 4824 0298 E7E7     		b	.L332
 4825              	.L360:
1440:Middlewares/Third_Party/LwIP/src/apps/mqtt/mqtt.c ****   }
 4826              		.loc 1 1440 5 view .LVU1431
 4827 029a 069A     		ldr	r2, [sp, #24]
 4828 029c 6968     		ldr	r1, [r5, #4]
 4829 029e 4046     		mov	r0, r8
 4830 02a0 FFF7FEFF 		bl	mqtt_output_append_string
 4831              	.LVL563:
 4832 02a4 E5E7     		b	.L333
 4833              	.LVL564:
 4834              	.L334:
1312:Middlewares/Third_Party/LwIP/src/apps/mqtt/mqtt.c ****   }
 4835              		.loc 1 1312 12 is_stmt 0 view .LVU1432
 4836 02a6 6FF00903 		mvn	r3, #9
 4837 02aa 9B46     		mov	fp, r3
 4838 02ac 7BE7     		b	.L325
 4839              	.LVL565:
 4840              	.L337:
1337:Middlewares/Third_Party/LwIP/src/apps/mqtt/mqtt.c ****     LWIP_ERROR("mqtt_client_connect: client_info->will_topic length must be > 0", len > 0, return E
 4841              		.loc 1 1337 5 discriminator 1 view .LVU1433
 4842 02ae 6FF00503 		mvn	r3, #5
 4843 02b2 9B46     		mov	fp, r3
 4844 02b4 77E7     		b	.L325
 4845              	.L338:
1338:Middlewares/Third_Party/LwIP/src/apps/mqtt/mqtt.c ****     will_topic_len = (u8_t)len;
 4846              		.loc 1 1338 5 discriminator 1 view .LVU1434
 4847 02b6 6FF00503 		mvn	r3, #5
 4848 02ba 9B46     		mov	fp, r3
 4849 02bc 73E7     		b	.L325
 4850              	.LVL566:
 4851              	.L339:
1343:Middlewares/Third_Party/LwIP/src/apps/mqtt/mqtt.c ****         will_msg_len = (u8_t)len;
 4852              		.loc 1 1343 9 discriminator 1 view .LVU1435
 4853 02be 6FF00503 		mvn	r3, #5
 4854 02c2 9B46     		mov	fp, r3
 4855 02c4 6FE7     		b	.L325
 4856              	.LVL567:
 4857              	.L340:
1351:Middlewares/Third_Party/LwIP/src/apps/mqtt/mqtt.c ****     remaining_length = (u16_t)len;
 4858              		.loc 1 1351 5 discriminator 1 view .LVU1436
 4859 02c6 6FF00503 		mvn	r3, #5
 4860 02ca 9B46     		mov	fp, r3
 4861 02cc 6BE7     		b	.L325
 4862              	.LVL568:
 4863              	.L342:
1357:Middlewares/Third_Party/LwIP/src/apps/mqtt/mqtt.c ****     LWIP_ERROR("mqtt_client_connect: client_info->client_user length must be > 0", len > 0, return 
 4864              		.loc 1 1357 5 discriminator 1 view .LVU1437
 4865 02ce 6FF00503 		mvn	r3, #5
 4866 02d2 9B46     		mov	fp, r3
 4867 02d4 67E7     		b	.L325
 4868              	.L343:
1358:Middlewares/Third_Party/LwIP/src/apps/mqtt/mqtt.c ****     client_user_len = (u16_t)len;
ARM GAS  C:\Users\hh\AppData\Local\Temp\cc3qgJrr.s 			page 130


 4869              		.loc 1 1358 5 discriminator 1 view .LVU1438
 4870 02d6 6FF00503 		mvn	r3, #5
 4871 02da 9B46     		mov	fp, r3
 4872 02dc 63E7     		b	.L325
 4873              	.LVL569:
 4874              	.L344:
1361:Middlewares/Third_Party/LwIP/src/apps/mqtt/mqtt.c ****     remaining_length = (u16_t)len;
 4875              		.loc 1 1361 5 discriminator 1 view .LVU1439
 4876 02de 6FF00503 		mvn	r3, #5
 4877              	.LVL570:
1361:Middlewares/Third_Party/LwIP/src/apps/mqtt/mqtt.c ****     remaining_length = (u16_t)len;
 4878              		.loc 1 1361 5 discriminator 1 view .LVU1440
 4879 02e2 9B46     		mov	fp, r3
 4880 02e4 5FE7     		b	.L325
 4881              	.LVL571:
 4882              	.L346:
1367:Middlewares/Third_Party/LwIP/src/apps/mqtt/mqtt.c ****     LWIP_ERROR("mqtt_client_connect: client_info->client_pass length must be > 0", len > 0, return 
 4883              		.loc 1 1367 5 discriminator 1 view .LVU1441
 4884 02e6 6FF00503 		mvn	r3, #5
 4885 02ea 9B46     		mov	fp, r3
 4886 02ec 5BE7     		b	.L325
 4887              	.L347:
1368:Middlewares/Third_Party/LwIP/src/apps/mqtt/mqtt.c ****     client_pass_len = (u16_t)len;
 4888              		.loc 1 1368 5 discriminator 1 view .LVU1442
 4889 02ee 6FF00503 		mvn	r3, #5
 4890 02f2 9B46     		mov	fp, r3
 4891 02f4 57E7     		b	.L325
 4892              	.LVL572:
 4893              	.L348:
1371:Middlewares/Third_Party/LwIP/src/apps/mqtt/mqtt.c ****     remaining_length = (u16_t)len;
 4894              		.loc 1 1371 5 discriminator 1 view .LVU1443
 4895 02f6 6FF00503 		mvn	r3, #5
 4896              	.LVL573:
1371:Middlewares/Third_Party/LwIP/src/apps/mqtt/mqtt.c ****     remaining_length = (u16_t)len;
 4897              		.loc 1 1371 5 discriminator 1 view .LVU1444
 4898 02fa 9B46     		mov	fp, r3
 4899 02fc 53E7     		b	.L325
 4900              	.LVL574:
 4901              	.L349:
1379:Middlewares/Third_Party/LwIP/src/apps/mqtt/mqtt.c ****   client_id_length = (u16_t)len;
 4902              		.loc 1 1379 3 discriminator 1 view .LVU1445
 4903 02fe 6FF00503 		mvn	r3, #5
 4904 0302 9B46     		mov	fp, r3
 4905 0304 4FE7     		b	.L325
 4906              	.LVL575:
 4907              	.L350:
1382:Middlewares/Third_Party/LwIP/src/apps/mqtt/mqtt.c ****   remaining_length = (u16_t)len;
 4908              		.loc 1 1382 3 discriminator 1 view .LVU1446
 4909 0306 6FF00503 		mvn	r3, #5
 4910 030a 9B46     		mov	fp, r3
 4911 030c 4BE7     		b	.L325
 4912              	.LVL576:
 4913              	.L351:
1386:Middlewares/Third_Party/LwIP/src/apps/mqtt/mqtt.c ****   }
 4914              		.loc 1 1386 12 view .LVU1447
 4915 030e 4FF0FF33 		mov	r3, #-1
 4916 0312 9B46     		mov	fp, r3
ARM GAS  C:\Users\hh\AppData\Local\Temp\cc3qgJrr.s 			page 131


 4917 0314 47E7     		b	.L325
 4918              	.L352:
1398:Middlewares/Third_Party/LwIP/src/apps/mqtt/mqtt.c ****   }
 4919              		.loc 1 1398 12 view .LVU1448
 4920 0316 4FF0FF33 		mov	r3, #-1
 4921 031a 9B46     		mov	fp, r3
 4922 031c 43E7     		b	.L325
 4923              	.L362:
 4924 031e 00BF     		.align	2
 4925              	.L361:
 4926 0320 00000000 		.word	ip_addr_any
 4927 0324 00000000 		.word	.LC0
 4928 0328 00000000 		.word	.LC23
 4929 032c 58000000 		.word	.LC2
 4930 0330 24000000 		.word	.LC24
 4931 0334 4C000000 		.word	.LC25
 4932 0338 78000000 		.word	.LC26
 4933 033c 00000000 		.word	mqtt_tcp_connect_cb
 4934 0340 00000000 		.word	mqtt_tcp_err_cb
 4935 0344 AC000000 		.word	.LC27
 4936              		.cfi_endproc
 4937              	.LFE207:
 4939              		.section	.rodata.mqtt_disconnect.str1.4,"aMS",%progbits,1
 4940              		.align	2
 4941              	.LC28:
 4942 0000 6D717474 		.ascii	"mqtt_disconnect: client != NULL\000"
 4942      5F646973 
 4942      636F6E6E 
 4942      6563743A 
 4942      20636C69 
 4943              		.section	.text.mqtt_disconnect,"ax",%progbits
 4944              		.align	1
 4945              		.global	mqtt_disconnect
 4946              		.syntax unified
 4947              		.thumb
 4948              		.thumb_func
 4950              	mqtt_disconnect:
 4951              	.LVL577:
 4952              	.LFB208:
1453:Middlewares/Third_Party/LwIP/src/apps/mqtt/mqtt.c **** 
1454:Middlewares/Third_Party/LwIP/src/apps/mqtt/mqtt.c **** 
1455:Middlewares/Third_Party/LwIP/src/apps/mqtt/mqtt.c **** /**
1456:Middlewares/Third_Party/LwIP/src/apps/mqtt/mqtt.c ****  * @ingroup mqtt
1457:Middlewares/Third_Party/LwIP/src/apps/mqtt/mqtt.c ****  * Disconnect from MQTT server
1458:Middlewares/Third_Party/LwIP/src/apps/mqtt/mqtt.c ****  * @param client MQTT client
1459:Middlewares/Third_Party/LwIP/src/apps/mqtt/mqtt.c ****  */
1460:Middlewares/Third_Party/LwIP/src/apps/mqtt/mqtt.c **** void
1461:Middlewares/Third_Party/LwIP/src/apps/mqtt/mqtt.c **** mqtt_disconnect(mqtt_client_t *client)
1462:Middlewares/Third_Party/LwIP/src/apps/mqtt/mqtt.c **** {
 4953              		.loc 1 1462 1 is_stmt 1 view -0
 4954              		.cfi_startproc
 4955              		@ args = 0, pretend = 0, frame = 0
 4956              		@ frame_needed = 0, uses_anonymous_args = 0
 4957              		.loc 1 1462 1 is_stmt 0 view .LVU1450
 4958 0000 10B5     		push	{r4, lr}
 4959              	.LCFI51:
 4960              		.cfi_def_cfa_offset 8
ARM GAS  C:\Users\hh\AppData\Local\Temp\cc3qgJrr.s 			page 132


 4961              		.cfi_offset 4, -8
 4962              		.cfi_offset 14, -4
1463:Middlewares/Third_Party/LwIP/src/apps/mqtt/mqtt.c ****   LWIP_ASSERT_CORE_LOCKED();
 4963              		.loc 1 1463 28 is_stmt 1 view .LVU1451
1464:Middlewares/Third_Party/LwIP/src/apps/mqtt/mqtt.c ****   LWIP_ASSERT("mqtt_disconnect: client != NULL", client);
 4964              		.loc 1 1464 3 view .LVU1452
 4965              		.loc 1 1464 3 view .LVU1453
 4966 0002 0446     		mov	r4, r0
 4967 0004 10B1     		cbz	r0, .L367
 4968              	.LVL578:
 4969              	.L364:
 4970              		.loc 1 1464 3 view .LVU1454
 4971              		.loc 1 1464 3 view .LVU1455
1465:Middlewares/Third_Party/LwIP/src/apps/mqtt/mqtt.c ****   /* If connection in not already closed */
1466:Middlewares/Third_Party/LwIP/src/apps/mqtt/mqtt.c ****   if (client->conn_state != TCP_DISCONNECTED) {
 4972              		.loc 1 1466 3 view .LVU1456
 4973              		.loc 1 1466 13 is_stmt 0 view .LVU1457
 4974 0006 A37A     		ldrb	r3, [r4, #10]	@ zero_extendqisi2
 4975              		.loc 1 1466 6 view .LVU1458
 4976 0008 43B9     		cbnz	r3, .L368
 4977              	.L363:
1467:Middlewares/Third_Party/LwIP/src/apps/mqtt/mqtt.c ****     /* Set conn_state before calling mqtt_close to prevent callback from being called */
1468:Middlewares/Third_Party/LwIP/src/apps/mqtt/mqtt.c ****     client->conn_state = TCP_DISCONNECTED;
1469:Middlewares/Third_Party/LwIP/src/apps/mqtt/mqtt.c ****     mqtt_close(client, (mqtt_connection_status_t)0);
1470:Middlewares/Third_Party/LwIP/src/apps/mqtt/mqtt.c ****   }
1471:Middlewares/Third_Party/LwIP/src/apps/mqtt/mqtt.c **** }
 4978              		.loc 1 1471 1 view .LVU1459
 4979 000a 10BD     		pop	{r4, pc}
 4980              	.LVL579:
 4981              	.L367:
1464:Middlewares/Third_Party/LwIP/src/apps/mqtt/mqtt.c ****   /* If connection in not already closed */
 4982              		.loc 1 1464 3 is_stmt 1 discriminator 1 view .LVU1460
1464:Middlewares/Third_Party/LwIP/src/apps/mqtt/mqtt.c ****   /* If connection in not already closed */
 4983              		.loc 1 1464 3 discriminator 1 view .LVU1461
 4984 000c 064B     		ldr	r3, .L369
 4985 000e 4FF4B762 		mov	r2, #1464
 4986 0012 0649     		ldr	r1, .L369+4
 4987 0014 0648     		ldr	r0, .L369+8
 4988              	.LVL580:
1464:Middlewares/Third_Party/LwIP/src/apps/mqtt/mqtt.c ****   /* If connection in not already closed */
 4989              		.loc 1 1464 3 is_stmt 0 discriminator 1 view .LVU1462
 4990 0016 FFF7FEFF 		bl	printf
 4991              	.LVL581:
 4992 001a F4E7     		b	.L364
 4993              	.L368:
1468:Middlewares/Third_Party/LwIP/src/apps/mqtt/mqtt.c ****     mqtt_close(client, (mqtt_connection_status_t)0);
 4994              		.loc 1 1468 5 is_stmt 1 view .LVU1463
1468:Middlewares/Third_Party/LwIP/src/apps/mqtt/mqtt.c ****     mqtt_close(client, (mqtt_connection_status_t)0);
 4995              		.loc 1 1468 24 is_stmt 0 view .LVU1464
 4996 001c 0021     		movs	r1, #0
 4997 001e A172     		strb	r1, [r4, #10]
1469:Middlewares/Third_Party/LwIP/src/apps/mqtt/mqtt.c ****   }
 4998              		.loc 1 1469 5 is_stmt 1 view .LVU1465
 4999 0020 2046     		mov	r0, r4
 5000 0022 FFF7FEFF 		bl	mqtt_close
 5001              	.LVL582:
 5002              		.loc 1 1471 1 is_stmt 0 view .LVU1466
ARM GAS  C:\Users\hh\AppData\Local\Temp\cc3qgJrr.s 			page 133


 5003 0026 F0E7     		b	.L363
 5004              	.L370:
 5005              		.align	2
 5006              	.L369:
 5007 0028 00000000 		.word	.LC0
 5008 002c 00000000 		.word	.LC28
 5009 0030 58000000 		.word	.LC2
 5010              		.cfi_endproc
 5011              	.LFE208:
 5013              		.section	.rodata.mqtt_client_is_connected.str1.4,"aMS",%progbits,1
 5014              		.align	2
 5015              	.LC29:
 5016 0000 6D717474 		.ascii	"mqtt_client_is_connected: client != NULL\000"
 5016      5F636C69 
 5016      656E745F 
 5016      69735F63 
 5016      6F6E6E65 
 5017              		.section	.text.mqtt_client_is_connected,"ax",%progbits
 5018              		.align	1
 5019              		.global	mqtt_client_is_connected
 5020              		.syntax unified
 5021              		.thumb
 5022              		.thumb_func
 5024              	mqtt_client_is_connected:
 5025              	.LVL583:
 5026              	.LFB209:
1472:Middlewares/Third_Party/LwIP/src/apps/mqtt/mqtt.c **** 
1473:Middlewares/Third_Party/LwIP/src/apps/mqtt/mqtt.c **** /**
1474:Middlewares/Third_Party/LwIP/src/apps/mqtt/mqtt.c ****  * @ingroup mqtt
1475:Middlewares/Third_Party/LwIP/src/apps/mqtt/mqtt.c ****  * Check connection with server
1476:Middlewares/Third_Party/LwIP/src/apps/mqtt/mqtt.c ****  * @param client MQTT client
1477:Middlewares/Third_Party/LwIP/src/apps/mqtt/mqtt.c ****  * @return 1 if connected to server, 0 otherwise
1478:Middlewares/Third_Party/LwIP/src/apps/mqtt/mqtt.c ****  */
1479:Middlewares/Third_Party/LwIP/src/apps/mqtt/mqtt.c **** u8_t
1480:Middlewares/Third_Party/LwIP/src/apps/mqtt/mqtt.c **** mqtt_client_is_connected(mqtt_client_t *client)
1481:Middlewares/Third_Party/LwIP/src/apps/mqtt/mqtt.c **** {
 5027              		.loc 1 1481 1 is_stmt 1 view -0
 5028              		.cfi_startproc
 5029              		@ args = 0, pretend = 0, frame = 0
 5030              		@ frame_needed = 0, uses_anonymous_args = 0
 5031              		.loc 1 1481 1 is_stmt 0 view .LVU1468
 5032 0000 10B5     		push	{r4, lr}
 5033              	.LCFI52:
 5034              		.cfi_def_cfa_offset 8
 5035              		.cfi_offset 4, -8
 5036              		.cfi_offset 14, -4
1482:Middlewares/Third_Party/LwIP/src/apps/mqtt/mqtt.c ****   LWIP_ASSERT_CORE_LOCKED();
 5037              		.loc 1 1482 28 is_stmt 1 view .LVU1469
1483:Middlewares/Third_Party/LwIP/src/apps/mqtt/mqtt.c ****   LWIP_ASSERT("mqtt_client_is_connected: client != NULL", client);
 5038              		.loc 1 1483 3 view .LVU1470
 5039              		.loc 1 1483 3 view .LVU1471
 5040 0002 0446     		mov	r4, r0
 5041 0004 28B1     		cbz	r0, .L374
 5042              	.LVL584:
 5043              	.L372:
 5044              		.loc 1 1483 3 view .LVU1472
 5045              		.loc 1 1483 3 view .LVU1473
ARM GAS  C:\Users\hh\AppData\Local\Temp\cc3qgJrr.s 			page 134


1484:Middlewares/Third_Party/LwIP/src/apps/mqtt/mqtt.c ****   return client->conn_state == MQTT_CONNECTED;
 5046              		.loc 1 1484 3 view .LVU1474
 5047              		.loc 1 1484 16 is_stmt 0 view .LVU1475
 5048 0006 A07A     		ldrb	r0, [r4, #10]	@ zero_extendqisi2
1485:Middlewares/Third_Party/LwIP/src/apps/mqtt/mqtt.c **** }
 5049              		.loc 1 1485 1 view .LVU1476
 5050 0008 0328     		cmp	r0, #3
 5051 000a 14BF     		ite	ne
 5052 000c 0020     		movne	r0, #0
 5053 000e 0120     		moveq	r0, #1
 5054 0010 10BD     		pop	{r4, pc}
 5055              	.LVL585:
 5056              	.L374:
1483:Middlewares/Third_Party/LwIP/src/apps/mqtt/mqtt.c ****   LWIP_ASSERT("mqtt_client_is_connected: client != NULL", client);
 5057              		.loc 1 1483 3 is_stmt 1 discriminator 1 view .LVU1477
1483:Middlewares/Third_Party/LwIP/src/apps/mqtt/mqtt.c ****   LWIP_ASSERT("mqtt_client_is_connected: client != NULL", client);
 5058              		.loc 1 1483 3 discriminator 1 view .LVU1478
 5059 0012 044B     		ldr	r3, .L375
 5060 0014 40F2CB52 		movw	r2, #1483
 5061 0018 0349     		ldr	r1, .L375+4
 5062 001a 0448     		ldr	r0, .L375+8
 5063              	.LVL586:
1483:Middlewares/Third_Party/LwIP/src/apps/mqtt/mqtt.c ****   LWIP_ASSERT("mqtt_client_is_connected: client != NULL", client);
 5064              		.loc 1 1483 3 is_stmt 0 discriminator 1 view .LVU1479
 5065 001c FFF7FEFF 		bl	printf
 5066              	.LVL587:
 5067 0020 F1E7     		b	.L372
 5068              	.L376:
 5069 0022 00BF     		.align	2
 5070              	.L375:
 5071 0024 00000000 		.word	.LC0
 5072 0028 00000000 		.word	.LC29
 5073 002c 58000000 		.word	.LC2
 5074              		.cfi_endproc
 5075              	.LFE209:
 5077              		.text
 5078              	.Letext0:
 5079              		.file 2 "C:/Program Files (x86)/ARM/arm-gnu-toolchain-15.2.rel1-mingw-w64-i686-arm-none-eabi/arm-n
 5080              		.file 3 "C:/Program Files (x86)/ARM/arm-gnu-toolchain-15.2.rel1-mingw-w64-i686-arm-none-eabi/arm-n
 5081              		.file 4 "C:/Program Files (x86)/ARM/arm-gnu-toolchain-15.2.rel1-mingw-w64-i686-arm-none-eabi/lib/g
 5082              		.file 5 "Middlewares/Third_Party/LwIP/src/include/lwip/arch.h"
 5083              		.file 6 "Middlewares/Third_Party/LwIP/src/include/lwip/err.h"
 5084              		.file 7 "Middlewares/Third_Party/LwIP/src/include/lwip/ip4_addr.h"
 5085              		.file 8 "Middlewares/Third_Party/LwIP/src/include/lwip/ip_addr.h"
 5086              		.file 9 "Middlewares/Third_Party/LwIP/src/include/lwip/apps/mqtt.h"
 5087              		.file 10 "Middlewares/Third_Party/LwIP/src/include/lwip/apps/mqtt_priv.h"
 5088              		.file 11 "Middlewares/Third_Party/LwIP/src/include/lwip/tcpbase.h"
 5089              		.file 12 "Middlewares/Third_Party/LwIP/src/include/lwip/mem.h"
 5090              		.file 13 "Middlewares/Third_Party/LwIP/src/include/lwip/pbuf.h"
 5091              		.file 14 "Middlewares/Third_Party/LwIP/src/include/lwip/tcp.h"
 5092              		.file 15 "Middlewares/Third_Party/LwIP/src/include/lwip/timeouts.h"
 5093              		.file 16 "C:/Program Files (x86)/ARM/arm-gnu-toolchain-15.2.rel1-mingw-w64-i686-arm-none-eabi/arm-
 5094              		.file 17 "C:/Program Files (x86)/ARM/arm-gnu-toolchain-15.2.rel1-mingw-w64-i686-arm-none-eabi/arm-
 5095              		.file 18 "<built-in>"
ARM GAS  C:\Users\hh\AppData\Local\Temp\cc3qgJrr.s 			page 135


DEFINED SYMBOLS
                            *ABS*:00000000 mqtt.c
C:\Users\hh\AppData\Local\Temp\cc3qgJrr.s:20     .text.msg_generate_packet_id:00000000 $t
C:\Users\hh\AppData\Local\Temp\cc3qgJrr.s:25     .text.msg_generate_packet_id:00000000 msg_generate_packet_id
C:\Users\hh\AppData\Local\Temp\cc3qgJrr.s:58     .text.mqtt_ringbuf_put:00000000 $t
C:\Users\hh\AppData\Local\Temp\cc3qgJrr.s:63     .text.mqtt_ringbuf_put:00000000 mqtt_ringbuf_put
C:\Users\hh\AppData\Local\Temp\cc3qgJrr.s:97     .text.mqtt_ringbuf_get_ptr:00000000 $t
C:\Users\hh\AppData\Local\Temp\cc3qgJrr.s:102    .text.mqtt_ringbuf_get_ptr:00000000 mqtt_ringbuf_get_ptr
C:\Users\hh\AppData\Local\Temp\cc3qgJrr.s:123    .text.mqtt_ringbuf_len:00000000 $t
C:\Users\hh\AppData\Local\Temp\cc3qgJrr.s:128    .text.mqtt_ringbuf_len:00000000 mqtt_ringbuf_len
C:\Users\hh\AppData\Local\Temp\cc3qgJrr.s:163    .text.mqtt_delete_request:00000000 $t
C:\Users\hh\AppData\Local\Temp\cc3qgJrr.s:168    .text.mqtt_delete_request:00000000 mqtt_delete_request
C:\Users\hh\AppData\Local\Temp\cc3qgJrr.s:190    .text.mqtt_output_append_u8:00000000 $t
C:\Users\hh\AppData\Local\Temp\cc3qgJrr.s:195    .text.mqtt_output_append_u8:00000000 mqtt_output_append_u8
C:\Users\hh\AppData\Local\Temp\cc3qgJrr.s:217    .text.mqtt_output_append_u16:00000000 $t
C:\Users\hh\AppData\Local\Temp\cc3qgJrr.s:222    .text.mqtt_output_append_u16:00000000 mqtt_output_append_u16
C:\Users\hh\AppData\Local\Temp\cc3qgJrr.s:257    .text.mqtt_output_append_buf:00000000 $t
C:\Users\hh\AppData\Local\Temp\cc3qgJrr.s:262    .text.mqtt_output_append_buf:00000000 mqtt_output_append_buf
C:\Users\hh\AppData\Local\Temp\cc3qgJrr.s:313    .text.mqtt_output_append_string:00000000 $t
C:\Users\hh\AppData\Local\Temp\cc3qgJrr.s:318    .text.mqtt_output_append_string:00000000 mqtt_output_append_string
C:\Users\hh\AppData\Local\Temp\cc3qgJrr.s:379    .text.mqtt_output_append_fixed_header:00000000 $t
C:\Users\hh\AppData\Local\Temp\cc3qgJrr.s:384    .text.mqtt_output_append_fixed_header:00000000 mqtt_output_append_fixed_header
C:\Users\hh\AppData\Local\Temp\cc3qgJrr.s:467    .text.mqtt_incoming_suback:00000000 $t
C:\Users\hh\AppData\Local\Temp\cc3qgJrr.s:472    .text.mqtt_incoming_suback:00000000 mqtt_incoming_suback
C:\Users\hh\AppData\Local\Temp\cc3qgJrr.s:517    .rodata.mqtt_create_request.str1.4:00000000 $d
C:\Users\hh\AppData\Local\Temp\cc3qgJrr.s:527    .text.mqtt_create_request:00000000 $t
C:\Users\hh\AppData\Local\Temp\cc3qgJrr.s:532    .text.mqtt_create_request:00000000 mqtt_create_request
C:\Users\hh\AppData\Local\Temp\cc3qgJrr.s:640    .text.mqtt_create_request:00000054 $d
C:\Users\hh\AppData\Local\Temp\cc3qgJrr.s:647    .rodata.mqtt_output_check_space.str1.4:00000000 $d
C:\Users\hh\AppData\Local\Temp\cc3qgJrr.s:651    .text.mqtt_output_check_space:00000000 $t
C:\Users\hh\AppData\Local\Temp\cc3qgJrr.s:656    .text.mqtt_output_check_space:00000000 mqtt_output_check_space
C:\Users\hh\AppData\Local\Temp\cc3qgJrr.s:730    .text.mqtt_output_check_space:00000038 $d
C:\Users\hh\AppData\Local\Temp\cc3qgJrr.s:737    .rodata.mqtt_append_request.str1.4:00000000 $d
C:\Users\hh\AppData\Local\Temp\cc3qgJrr.s:745    .text.mqtt_append_request:00000000 $t
C:\Users\hh\AppData\Local\Temp\cc3qgJrr.s:750    .text.mqtt_append_request:00000000 mqtt_append_request
C:\Users\hh\AppData\Local\Temp\cc3qgJrr.s:872    .text.mqtt_append_request:00000054 $d
C:\Users\hh\AppData\Local\Temp\cc3qgJrr.s:880    .rodata.mqtt_ringbuf_advance_get_idx.str1.4:00000000 $d
C:\Users\hh\AppData\Local\Temp\cc3qgJrr.s:885    .text.mqtt_ringbuf_advance_get_idx:00000000 $t
C:\Users\hh\AppData\Local\Temp\cc3qgJrr.s:890    .text.mqtt_ringbuf_advance_get_idx:00000000 mqtt_ringbuf_advance_get_idx
C:\Users\hh\AppData\Local\Temp\cc3qgJrr.s:952    .text.mqtt_ringbuf_advance_get_idx:0000002c $d
C:\Users\hh\AppData\Local\Temp\cc3qgJrr.s:959    .rodata.mqtt_request_time_elapsed.str1.4:00000000 $d
C:\Users\hh\AppData\Local\Temp\cc3qgJrr.s:963    .text.mqtt_request_time_elapsed:00000000 $t
C:\Users\hh\AppData\Local\Temp\cc3qgJrr.s:968    .text.mqtt_request_time_elapsed:00000000 mqtt_request_time_elapsed
C:\Users\hh\AppData\Local\Temp\cc3qgJrr.s:1084   .text.mqtt_request_time_elapsed:00000058 $d
C:\Users\hh\AppData\Local\Temp\cc3qgJrr.s:1091   .rodata.mqtt_clear_requests.str1.4:00000000 $d
C:\Users\hh\AppData\Local\Temp\cc3qgJrr.s:1095   .text.mqtt_clear_requests:00000000 $t
C:\Users\hh\AppData\Local\Temp\cc3qgJrr.s:1100   .text.mqtt_clear_requests:00000000 mqtt_clear_requests
C:\Users\hh\AppData\Local\Temp\cc3qgJrr.s:1170   .text.mqtt_clear_requests:0000002c $d
C:\Users\hh\AppData\Local\Temp\cc3qgJrr.s:1177   .rodata.mqtt_take_request.str1.4:00000000 $d
C:\Users\hh\AppData\Local\Temp\cc3qgJrr.s:1181   .text.mqtt_take_request:00000000 $t
C:\Users\hh\AppData\Local\Temp\cc3qgJrr.s:1186   .text.mqtt_take_request:00000000 mqtt_take_request
C:\Users\hh\AppData\Local\Temp\cc3qgJrr.s:1300   .text.mqtt_take_request:0000004c $d
C:\Users\hh\AppData\Local\Temp\cc3qgJrr.s:1307   .rodata.mqtt_init_requests.str1.4:00000000 $d
C:\Users\hh\AppData\Local\Temp\cc3qgJrr.s:1311   .text.mqtt_init_requests:00000000 $t
C:\Users\hh\AppData\Local\Temp\cc3qgJrr.s:1316   .text.mqtt_init_requests:00000000 mqtt_init_requests
C:\Users\hh\AppData\Local\Temp\cc3qgJrr.s:1381   .text.mqtt_init_requests:0000002c $d
C:\Users\hh\AppData\Local\Temp\cc3qgJrr.s:1388   .text.mqtt_output_send:00000000 $t
ARM GAS  C:\Users\hh\AppData\Local\Temp\cc3qgJrr.s 			page 136


C:\Users\hh\AppData\Local\Temp\cc3qgJrr.s:1393   .text.mqtt_output_send:00000000 mqtt_output_send
C:\Users\hh\AppData\Local\Temp\cc3qgJrr.s:1602   .text.mqtt_tcp_poll_cb:00000000 $t
C:\Users\hh\AppData\Local\Temp\cc3qgJrr.s:1607   .text.mqtt_tcp_poll_cb:00000000 mqtt_tcp_poll_cb
C:\Users\hh\AppData\Local\Temp\cc3qgJrr.s:1648   .text.mqtt_tcp_sent_cb:00000000 $t
C:\Users\hh\AppData\Local\Temp\cc3qgJrr.s:1653   .text.mqtt_tcp_sent_cb:00000000 mqtt_tcp_sent_cb
C:\Users\hh\AppData\Local\Temp\cc3qgJrr.s:1746   .text.pub_ack_rec_rel_response:00000000 $t
C:\Users\hh\AppData\Local\Temp\cc3qgJrr.s:1751   .text.pub_ack_rec_rel_response:00000000 pub_ack_rec_rel_response
C:\Users\hh\AppData\Local\Temp\cc3qgJrr.s:1835   .rodata.mqtt_message_received.str1.4:00000000 $d
C:\Users\hh\AppData\Local\Temp\cc3qgJrr.s:1839   .text.mqtt_message_received:00000000 $t
C:\Users\hh\AppData\Local\Temp\cc3qgJrr.s:1844   .text.mqtt_message_received:00000000 mqtt_message_received
C:\Users\hh\AppData\Local\Temp\cc3qgJrr.s:2490   .text.mqtt_message_received:00000268 $d
C:\Users\hh\AppData\Local\Temp\cc3qgJrr.s:2497   .rodata.mqtt_close.str1.4:00000000 $d
C:\Users\hh\AppData\Local\Temp\cc3qgJrr.s:2501   .text.mqtt_close:00000000 $t
C:\Users\hh\AppData\Local\Temp\cc3qgJrr.s:2506   .text.mqtt_close:00000000 mqtt_close
C:\Users\hh\AppData\Local\Temp\cc3qgJrr.s:2630   .text.mqtt_close:0000006c $d
C:\Users\hh\AppData\Local\Temp\cc3qgJrr.s:2718   .text.mqtt_cyclic_timer:00000000 mqtt_cyclic_timer
C:\Users\hh\AppData\Local\Temp\cc3qgJrr.s:2639   .rodata.mqtt_tcp_err_cb.str1.4:00000000 $d
C:\Users\hh\AppData\Local\Temp\cc3qgJrr.s:2643   .text.mqtt_tcp_err_cb:00000000 $t
C:\Users\hh\AppData\Local\Temp\cc3qgJrr.s:2648   .text.mqtt_tcp_err_cb:00000000 mqtt_tcp_err_cb
C:\Users\hh\AppData\Local\Temp\cc3qgJrr.s:2702   .text.mqtt_tcp_err_cb:00000028 $d
C:\Users\hh\AppData\Local\Temp\cc3qgJrr.s:2709   .rodata.mqtt_cyclic_timer.str1.4:00000000 $d
C:\Users\hh\AppData\Local\Temp\cc3qgJrr.s:2713   .text.mqtt_cyclic_timer:00000000 $t
C:\Users\hh\AppData\Local\Temp\cc3qgJrr.s:2914   .text.mqtt_cyclic_timer:000000cc $d
C:\Users\hh\AppData\Local\Temp\cc3qgJrr.s:2922   .text.mqtt_tcp_connect_cb:00000000 $t
C:\Users\hh\AppData\Local\Temp\cc3qgJrr.s:2927   .text.mqtt_tcp_connect_cb:00000000 mqtt_tcp_connect_cb
C:\Users\hh\AppData\Local\Temp\cc3qgJrr.s:3007   .text.mqtt_tcp_connect_cb:0000004c $d
C:\Users\hh\AppData\Local\Temp\cc3qgJrr.s:3310   .text.mqtt_tcp_recv_cb:00000000 mqtt_tcp_recv_cb
C:\Users\hh\AppData\Local\Temp\cc3qgJrr.s:3015   .text.mqtt_parse_incoming:00000000 $t
C:\Users\hh\AppData\Local\Temp\cc3qgJrr.s:3020   .text.mqtt_parse_incoming:00000000 mqtt_parse_incoming
C:\Users\hh\AppData\Local\Temp\cc3qgJrr.s:3298   .rodata.mqtt_tcp_recv_cb.str1.4:00000000 $d
C:\Users\hh\AppData\Local\Temp\cc3qgJrr.s:3305   .text.mqtt_tcp_recv_cb:00000000 $t
C:\Users\hh\AppData\Local\Temp\cc3qgJrr.s:3454   .text.mqtt_tcp_recv_cb:0000007c $d
C:\Users\hh\AppData\Local\Temp\cc3qgJrr.s:3463   .rodata.mqtt_publish.str1.4:00000000 $d
C:\Users\hh\AppData\Local\Temp\cc3qgJrr.s:3470   .text.mqtt_publish:00000000 $t
C:\Users\hh\AppData\Local\Temp\cc3qgJrr.s:3476   .text.mqtt_publish:00000000 mqtt_publish
C:\Users\hh\AppData\Local\Temp\cc3qgJrr.s:3751   .text.mqtt_publish:00000120 $d
C:\Users\hh\AppData\Local\Temp\cc3qgJrr.s:3759   .rodata.mqtt_sub_unsub.str1.4:00000000 $d
C:\Users\hh\AppData\Local\Temp\cc3qgJrr.s:3769   .text.mqtt_sub_unsub:00000000 $t
C:\Users\hh\AppData\Local\Temp\cc3qgJrr.s:3775   .text.mqtt_sub_unsub:00000000 mqtt_sub_unsub
C:\Users\hh\AppData\Local\Temp\cc3qgJrr.s:4060   .text.mqtt_sub_unsub:0000012c $d
C:\Users\hh\AppData\Local\Temp\cc3qgJrr.s:4069   .rodata.mqtt_set_inpub_callback.str1.4:00000000 $d
C:\Users\hh\AppData\Local\Temp\cc3qgJrr.s:4073   .text.mqtt_set_inpub_callback:00000000 $t
C:\Users\hh\AppData\Local\Temp\cc3qgJrr.s:4079   .text.mqtt_set_inpub_callback:00000000 mqtt_set_inpub_callback
C:\Users\hh\AppData\Local\Temp\cc3qgJrr.s:4141   .text.mqtt_set_inpub_callback:00000024 $d
C:\Users\hh\AppData\Local\Temp\cc3qgJrr.s:4148   .text.mqtt_client_new:00000000 $t
C:\Users\hh\AppData\Local\Temp\cc3qgJrr.s:4154   .text.mqtt_client_new:00000000 mqtt_client_new
C:\Users\hh\AppData\Local\Temp\cc3qgJrr.s:4178   .text.mqtt_client_free:00000000 $t
C:\Users\hh\AppData\Local\Temp\cc3qgJrr.s:4184   .text.mqtt_client_free:00000000 mqtt_client_free
C:\Users\hh\AppData\Local\Temp\cc3qgJrr.s:4206   .rodata.mqtt_client_connect.str1.4:00000000 $d
C:\Users\hh\AppData\Local\Temp\cc3qgJrr.s:4223   .text.mqtt_client_connect:00000000 $t
C:\Users\hh\AppData\Local\Temp\cc3qgJrr.s:4229   .text.mqtt_client_connect:00000000 mqtt_client_connect
C:\Users\hh\AppData\Local\Temp\cc3qgJrr.s:4926   .text.mqtt_client_connect:00000320 $d
C:\Users\hh\AppData\Local\Temp\cc3qgJrr.s:4940   .rodata.mqtt_disconnect.str1.4:00000000 $d
C:\Users\hh\AppData\Local\Temp\cc3qgJrr.s:4944   .text.mqtt_disconnect:00000000 $t
C:\Users\hh\AppData\Local\Temp\cc3qgJrr.s:4950   .text.mqtt_disconnect:00000000 mqtt_disconnect
C:\Users\hh\AppData\Local\Temp\cc3qgJrr.s:5007   .text.mqtt_disconnect:00000028 $d
C:\Users\hh\AppData\Local\Temp\cc3qgJrr.s:5014   .rodata.mqtt_client_is_connected.str1.4:00000000 $d
ARM GAS  C:\Users\hh\AppData\Local\Temp\cc3qgJrr.s 			page 137


C:\Users\hh\AppData\Local\Temp\cc3qgJrr.s:5018   .text.mqtt_client_is_connected:00000000 $t
C:\Users\hh\AppData\Local\Temp\cc3qgJrr.s:5024   .text.mqtt_client_is_connected:00000000 mqtt_client_is_connected
C:\Users\hh\AppData\Local\Temp\cc3qgJrr.s:5071   .text.mqtt_client_is_connected:00000024 $d

UNDEFINED SYMBOLS
printf
tcp_write
tcp_output
tcp_recv
tcp_err
tcp_sent
tcp_close
sys_untimeout
tcp_abort
sys_timeout
tcp_poll
pbuf_get_at
pbuf_get_contiguous
tcp_recved
pbuf_free
strlen
mem_calloc
mem_free
memset
tcp_new_ip_type
tcp_arg
tcp_bind
tcp_connect
ip_addr_any
