ARM GAS  C:\Users\hh\AppData\Local\Temp\cc3qgJrr.s 			page 1


   1              		.cpu cortex-m7
   2              		.arch armv7e-m
   3              		.fpu fpv5-d16
   4              		.eabi_attribute 28, 1
   5              		.eabi_attribute 20, 1
   6              		.eabi_attribute 21, 1
   7              		.eabi_attribute 23, 3
   8              		.eabi_attribute 24, 1
   9              		.eabi_attribute 25, 1
  10              		.eabi_attribute 26, 1
  11              		.eabi_attribute 30, 1
  12              		.eabi_attribute 34, 1
  13              		.eabi_attribute 18, 4
  14              		.file	"mqtt.c"
  15              		.text
  16              	.Ltext0:
  17              		.cfi_sections	.debug_frame
  18              		.file 1 "Middlewares/Third_Party/LwIP/src/apps/mqtt/mqtt.c"
  19              		.section	.text.msg_generate_packet_id,"ax",%progbits
  20              		.align	1
  21              		.syntax unified
  22              		.thumb
  23              		.thumb_func
  25              	msg_generate_packet_id:
  26              	.LVL0:
  27              	.LFB172:
   1:Middlewares/Third_Party/LwIP/src/apps/mqtt/mqtt.c **** /**
   2:Middlewares/Third_Party/LwIP/src/apps/mqtt/mqtt.c ****  * @file
   3:Middlewares/Third_Party/LwIP/src/apps/mqtt/mqtt.c ****  * MQTT client
   4:Middlewares/Third_Party/LwIP/src/apps/mqtt/mqtt.c ****  *
   5:Middlewares/Third_Party/LwIP/src/apps/mqtt/mqtt.c ****  * @defgroup mqtt MQTT client
   6:Middlewares/Third_Party/LwIP/src/apps/mqtt/mqtt.c ****  * @ingroup apps
   7:Middlewares/Third_Party/LwIP/src/apps/mqtt/mqtt.c ****  * @verbinclude mqtt_client.txt
   8:Middlewares/Third_Party/LwIP/src/apps/mqtt/mqtt.c ****  */
   9:Middlewares/Third_Party/LwIP/src/apps/mqtt/mqtt.c **** 
  10:Middlewares/Third_Party/LwIP/src/apps/mqtt/mqtt.c **** /*
  11:Middlewares/Third_Party/LwIP/src/apps/mqtt/mqtt.c ****  * Copyright (c) 2016 Erik Andersson <erian747@gmail.com>
  12:Middlewares/Third_Party/LwIP/src/apps/mqtt/mqtt.c ****  * All rights reserved.
  13:Middlewares/Third_Party/LwIP/src/apps/mqtt/mqtt.c ****  *
  14:Middlewares/Third_Party/LwIP/src/apps/mqtt/mqtt.c ****  * Redistribution and use in source and binary forms, with or without modification,
  15:Middlewares/Third_Party/LwIP/src/apps/mqtt/mqtt.c ****  * are permitted provided that the following conditions are met:
  16:Middlewares/Third_Party/LwIP/src/apps/mqtt/mqtt.c ****  *
  17:Middlewares/Third_Party/LwIP/src/apps/mqtt/mqtt.c ****  * 1. Redistributions of source code must retain the above copyright notice,
  18:Middlewares/Third_Party/LwIP/src/apps/mqtt/mqtt.c ****  *    this list of conditions and the following disclaimer.
  19:Middlewares/Third_Party/LwIP/src/apps/mqtt/mqtt.c ****  * 2. Redistributions in binary form must reproduce the above copyright notice,
  20:Middlewares/Third_Party/LwIP/src/apps/mqtt/mqtt.c ****  *    this list of conditions and the following disclaimer in the documentation
  21:Middlewares/Third_Party/LwIP/src/apps/mqtt/mqtt.c ****  *    and/or other materials provided with the distribution.
  22:Middlewares/Third_Party/LwIP/src/apps/mqtt/mqtt.c ****  * 3. The name of the author may not be used to endorse or promote products
  23:Middlewares/Third_Party/LwIP/src/apps/mqtt/mqtt.c ****  *    derived from this software without specific prior written permission.
  24:Middlewares/Third_Party/LwIP/src/apps/mqtt/mqtt.c ****  *
  25:Middlewares/Third_Party/LwIP/src/apps/mqtt/mqtt.c ****  * THIS SOFTWARE IS PROVIDED BY THE AUTHOR ``AS IS'' AND ANY EXPRESS OR IMPLIED
  26:Middlewares/Third_Party/LwIP/src/apps/mqtt/mqtt.c ****  * WARRANTIES, INCLUDING, BUT NOT LIMITED TO, THE IMPLIED WARRANTIES OF
  27:Middlewares/Third_Party/LwIP/src/apps/mqtt/mqtt.c ****  * MERCHANTABILITY AND FITNESS FOR A PARTICULAR PURPOSE ARE DISCLAIMED. IN NO EVENT
  28:Middlewares/Third_Party/LwIP/src/apps/mqtt/mqtt.c ****  * SHALL THE AUTHOR BE LIABLE FOR ANY DIRECT, INDIRECT, INCIDENTAL, SPECIAL,
  29:Middlewares/Third_Party/LwIP/src/apps/mqtt/mqtt.c ****  * EXEMPLARY, OR CONSEQUENTIAL DAMAGES (INCLUDING, BUT NOT LIMITED TO, PROCUREMENT
  30:Middlewares/Third_Party/LwIP/src/apps/mqtt/mqtt.c ****  * OF SUBSTITUTE GOODS OR SERVICES; LOSS OF USE, DATA, OR PROFITS; OR BUSINESS
  31:Middlewares/Third_Party/LwIP/src/apps/mqtt/mqtt.c ****  * INTERRUPTION) HOWEVER CAUSED AND ON ANY THEORY OF LIABILITY, WHETHER IN
ARM GAS  C:\Users\hh\AppData\Local\Temp\cc3qgJrr.s 			page 2


  32:Middlewares/Third_Party/LwIP/src/apps/mqtt/mqtt.c ****  * CONTRACT, STRICT LIABILITY, OR TORT (INCLUDING NEGLIGENCE OR OTHERWISE) ARISING
  33:Middlewares/Third_Party/LwIP/src/apps/mqtt/mqtt.c ****  * IN ANY WAY OUT OF THE USE OF THIS SOFTWARE, EVEN IF ADVISED OF THE POSSIBILITY
  34:Middlewares/Third_Party/LwIP/src/apps/mqtt/mqtt.c ****  * OF SUCH DAMAGE.
  35:Middlewares/Third_Party/LwIP/src/apps/mqtt/mqtt.c ****  *
  36:Middlewares/Third_Party/LwIP/src/apps/mqtt/mqtt.c ****  * This file is part of the lwIP TCP/IP stack
  37:Middlewares/Third_Party/LwIP/src/apps/mqtt/mqtt.c ****  *
  38:Middlewares/Third_Party/LwIP/src/apps/mqtt/mqtt.c ****  * Author: Erik Andersson <erian747@gmail.com>
  39:Middlewares/Third_Party/LwIP/src/apps/mqtt/mqtt.c ****  *
  40:Middlewares/Third_Party/LwIP/src/apps/mqtt/mqtt.c ****  *
  41:Middlewares/Third_Party/LwIP/src/apps/mqtt/mqtt.c ****  * @todo:
  42:Middlewares/Third_Party/LwIP/src/apps/mqtt/mqtt.c ****  * - Handle large outgoing payloads for PUBLISH messages
  43:Middlewares/Third_Party/LwIP/src/apps/mqtt/mqtt.c ****  * - Fix restriction of a single topic in each (UN)SUBSCRIBE message (protocol has support for mult
  44:Middlewares/Third_Party/LwIP/src/apps/mqtt/mqtt.c ****  * - Add support for legacy MQTT protocol version
  45:Middlewares/Third_Party/LwIP/src/apps/mqtt/mqtt.c ****  *
  46:Middlewares/Third_Party/LwIP/src/apps/mqtt/mqtt.c ****  * Please coordinate changes and requests with Erik Andersson
  47:Middlewares/Third_Party/LwIP/src/apps/mqtt/mqtt.c ****  * Erik Andersson <erian747@gmail.com>
  48:Middlewares/Third_Party/LwIP/src/apps/mqtt/mqtt.c ****  *
  49:Middlewares/Third_Party/LwIP/src/apps/mqtt/mqtt.c ****  */
  50:Middlewares/Third_Party/LwIP/src/apps/mqtt/mqtt.c **** #include "lwip/apps/mqtt.h"
  51:Middlewares/Third_Party/LwIP/src/apps/mqtt/mqtt.c **** #include "lwip/apps/mqtt_priv.h"
  52:Middlewares/Third_Party/LwIP/src/apps/mqtt/mqtt.c **** #include "lwip/timeouts.h"
  53:Middlewares/Third_Party/LwIP/src/apps/mqtt/mqtt.c **** #include "lwip/ip_addr.h"
  54:Middlewares/Third_Party/LwIP/src/apps/mqtt/mqtt.c **** #include "lwip/mem.h"
  55:Middlewares/Third_Party/LwIP/src/apps/mqtt/mqtt.c **** #include "lwip/err.h"
  56:Middlewares/Third_Party/LwIP/src/apps/mqtt/mqtt.c **** #include "lwip/pbuf.h"
  57:Middlewares/Third_Party/LwIP/src/apps/mqtt/mqtt.c **** #include "lwip/altcp.h"
  58:Middlewares/Third_Party/LwIP/src/apps/mqtt/mqtt.c **** #include "lwip/altcp_tcp.h"
  59:Middlewares/Third_Party/LwIP/src/apps/mqtt/mqtt.c **** #include "lwip/altcp_tls.h"
  60:Middlewares/Third_Party/LwIP/src/apps/mqtt/mqtt.c **** #include <string.h>
  61:Middlewares/Third_Party/LwIP/src/apps/mqtt/mqtt.c **** 
  62:Middlewares/Third_Party/LwIP/src/apps/mqtt/mqtt.c **** #if LWIP_TCP && LWIP_CALLBACK_API
  63:Middlewares/Third_Party/LwIP/src/apps/mqtt/mqtt.c **** 
  64:Middlewares/Third_Party/LwIP/src/apps/mqtt/mqtt.c **** /**
  65:Middlewares/Third_Party/LwIP/src/apps/mqtt/mqtt.c ****  * MQTT_DEBUG: Default is off.
  66:Middlewares/Third_Party/LwIP/src/apps/mqtt/mqtt.c ****  */
  67:Middlewares/Third_Party/LwIP/src/apps/mqtt/mqtt.c **** #if !defined MQTT_DEBUG || defined __DOXYGEN__
  68:Middlewares/Third_Party/LwIP/src/apps/mqtt/mqtt.c **** #define MQTT_DEBUG                  LWIP_DBG_OFF
  69:Middlewares/Third_Party/LwIP/src/apps/mqtt/mqtt.c **** #endif
  70:Middlewares/Third_Party/LwIP/src/apps/mqtt/mqtt.c **** 
  71:Middlewares/Third_Party/LwIP/src/apps/mqtt/mqtt.c **** #define MQTT_DEBUG_TRACE        (MQTT_DEBUG | LWIP_DBG_TRACE)
  72:Middlewares/Third_Party/LwIP/src/apps/mqtt/mqtt.c **** #define MQTT_DEBUG_STATE        (MQTT_DEBUG | LWIP_DBG_STATE)
  73:Middlewares/Third_Party/LwIP/src/apps/mqtt/mqtt.c **** #define MQTT_DEBUG_WARN         (MQTT_DEBUG | LWIP_DBG_LEVEL_WARNING)
  74:Middlewares/Third_Party/LwIP/src/apps/mqtt/mqtt.c **** #define MQTT_DEBUG_WARN_STATE   (MQTT_DEBUG | LWIP_DBG_LEVEL_WARNING | LWIP_DBG_STATE)
  75:Middlewares/Third_Party/LwIP/src/apps/mqtt/mqtt.c **** #define MQTT_DEBUG_SERIOUS      (MQTT_DEBUG | LWIP_DBG_LEVEL_SERIOUS)
  76:Middlewares/Third_Party/LwIP/src/apps/mqtt/mqtt.c **** 
  77:Middlewares/Third_Party/LwIP/src/apps/mqtt/mqtt.c **** 
  78:Middlewares/Third_Party/LwIP/src/apps/mqtt/mqtt.c **** 
  79:Middlewares/Third_Party/LwIP/src/apps/mqtt/mqtt.c **** /**
  80:Middlewares/Third_Party/LwIP/src/apps/mqtt/mqtt.c ****  * MQTT client connection states
  81:Middlewares/Third_Party/LwIP/src/apps/mqtt/mqtt.c ****  */
  82:Middlewares/Third_Party/LwIP/src/apps/mqtt/mqtt.c **** enum {
  83:Middlewares/Third_Party/LwIP/src/apps/mqtt/mqtt.c ****   TCP_DISCONNECTED,
  84:Middlewares/Third_Party/LwIP/src/apps/mqtt/mqtt.c ****   TCP_CONNECTING,
  85:Middlewares/Third_Party/LwIP/src/apps/mqtt/mqtt.c ****   MQTT_CONNECTING,
  86:Middlewares/Third_Party/LwIP/src/apps/mqtt/mqtt.c ****   MQTT_CONNECTED
  87:Middlewares/Third_Party/LwIP/src/apps/mqtt/mqtt.c **** };
  88:Middlewares/Third_Party/LwIP/src/apps/mqtt/mqtt.c **** 
ARM GAS  C:\Users\hh\AppData\Local\Temp\cc3qgJrr.s 			page 3


  89:Middlewares/Third_Party/LwIP/src/apps/mqtt/mqtt.c **** /**
  90:Middlewares/Third_Party/LwIP/src/apps/mqtt/mqtt.c ****  * MQTT control message types
  91:Middlewares/Third_Party/LwIP/src/apps/mqtt/mqtt.c ****  */
  92:Middlewares/Third_Party/LwIP/src/apps/mqtt/mqtt.c **** enum mqtt_message_type {
  93:Middlewares/Third_Party/LwIP/src/apps/mqtt/mqtt.c ****   MQTT_MSG_TYPE_CONNECT = 1,
  94:Middlewares/Third_Party/LwIP/src/apps/mqtt/mqtt.c ****   MQTT_MSG_TYPE_CONNACK = 2,
  95:Middlewares/Third_Party/LwIP/src/apps/mqtt/mqtt.c ****   MQTT_MSG_TYPE_PUBLISH = 3,
  96:Middlewares/Third_Party/LwIP/src/apps/mqtt/mqtt.c ****   MQTT_MSG_TYPE_PUBACK = 4,
  97:Middlewares/Third_Party/LwIP/src/apps/mqtt/mqtt.c ****   MQTT_MSG_TYPE_PUBREC = 5,
  98:Middlewares/Third_Party/LwIP/src/apps/mqtt/mqtt.c ****   MQTT_MSG_TYPE_PUBREL = 6,
  99:Middlewares/Third_Party/LwIP/src/apps/mqtt/mqtt.c ****   MQTT_MSG_TYPE_PUBCOMP = 7,
 100:Middlewares/Third_Party/LwIP/src/apps/mqtt/mqtt.c ****   MQTT_MSG_TYPE_SUBSCRIBE = 8,
 101:Middlewares/Third_Party/LwIP/src/apps/mqtt/mqtt.c ****   MQTT_MSG_TYPE_SUBACK = 9,
 102:Middlewares/Third_Party/LwIP/src/apps/mqtt/mqtt.c ****   MQTT_MSG_TYPE_UNSUBSCRIBE = 10,
 103:Middlewares/Third_Party/LwIP/src/apps/mqtt/mqtt.c ****   MQTT_MSG_TYPE_UNSUBACK = 11,
 104:Middlewares/Third_Party/LwIP/src/apps/mqtt/mqtt.c ****   MQTT_MSG_TYPE_PINGREQ = 12,
 105:Middlewares/Third_Party/LwIP/src/apps/mqtt/mqtt.c ****   MQTT_MSG_TYPE_PINGRESP = 13,
 106:Middlewares/Third_Party/LwIP/src/apps/mqtt/mqtt.c ****   MQTT_MSG_TYPE_DISCONNECT = 14
 107:Middlewares/Third_Party/LwIP/src/apps/mqtt/mqtt.c **** };
 108:Middlewares/Third_Party/LwIP/src/apps/mqtt/mqtt.c **** 
 109:Middlewares/Third_Party/LwIP/src/apps/mqtt/mqtt.c **** /** Helpers to extract control packet type and qos from first byte in fixed header */
 110:Middlewares/Third_Party/LwIP/src/apps/mqtt/mqtt.c **** #define MQTT_CTL_PACKET_TYPE(fixed_hdr_byte0) ((fixed_hdr_byte0 & 0xf0) >> 4)
 111:Middlewares/Third_Party/LwIP/src/apps/mqtt/mqtt.c **** #define MQTT_CTL_PACKET_QOS(fixed_hdr_byte0) ((fixed_hdr_byte0 & 0x6) >> 1)
 112:Middlewares/Third_Party/LwIP/src/apps/mqtt/mqtt.c **** 
 113:Middlewares/Third_Party/LwIP/src/apps/mqtt/mqtt.c **** /**
 114:Middlewares/Third_Party/LwIP/src/apps/mqtt/mqtt.c ****  * MQTT connect flags, only used in CONNECT message
 115:Middlewares/Third_Party/LwIP/src/apps/mqtt/mqtt.c ****  */
 116:Middlewares/Third_Party/LwIP/src/apps/mqtt/mqtt.c **** enum mqtt_connect_flag {
 117:Middlewares/Third_Party/LwIP/src/apps/mqtt/mqtt.c ****   MQTT_CONNECT_FLAG_USERNAME = 1 << 7,
 118:Middlewares/Third_Party/LwIP/src/apps/mqtt/mqtt.c ****   MQTT_CONNECT_FLAG_PASSWORD = 1 << 6,
 119:Middlewares/Third_Party/LwIP/src/apps/mqtt/mqtt.c ****   MQTT_CONNECT_FLAG_WILL_RETAIN = 1 << 5,
 120:Middlewares/Third_Party/LwIP/src/apps/mqtt/mqtt.c ****   MQTT_CONNECT_FLAG_WILL = 1 << 2,
 121:Middlewares/Third_Party/LwIP/src/apps/mqtt/mqtt.c ****   MQTT_CONNECT_FLAG_CLEAN_SESSION = 1 << 1
 122:Middlewares/Third_Party/LwIP/src/apps/mqtt/mqtt.c **** };
 123:Middlewares/Third_Party/LwIP/src/apps/mqtt/mqtt.c **** 
 124:Middlewares/Third_Party/LwIP/src/apps/mqtt/mqtt.c **** 
 125:Middlewares/Third_Party/LwIP/src/apps/mqtt/mqtt.c **** static void mqtt_cyclic_timer(void *arg);
 126:Middlewares/Third_Party/LwIP/src/apps/mqtt/mqtt.c **** 
 127:Middlewares/Third_Party/LwIP/src/apps/mqtt/mqtt.c **** #if defined(LWIP_DEBUG)
 128:Middlewares/Third_Party/LwIP/src/apps/mqtt/mqtt.c **** static const char *const mqtt_message_type_str[15] = {
 129:Middlewares/Third_Party/LwIP/src/apps/mqtt/mqtt.c ****   "UNDEFINED",
 130:Middlewares/Third_Party/LwIP/src/apps/mqtt/mqtt.c ****   "CONNECT",
 131:Middlewares/Third_Party/LwIP/src/apps/mqtt/mqtt.c ****   "CONNACK",
 132:Middlewares/Third_Party/LwIP/src/apps/mqtt/mqtt.c ****   "PUBLISH",
 133:Middlewares/Third_Party/LwIP/src/apps/mqtt/mqtt.c ****   "PUBACK",
 134:Middlewares/Third_Party/LwIP/src/apps/mqtt/mqtt.c ****   "PUBREC",
 135:Middlewares/Third_Party/LwIP/src/apps/mqtt/mqtt.c ****   "PUBREL",
 136:Middlewares/Third_Party/LwIP/src/apps/mqtt/mqtt.c ****   "PUBCOMP",
 137:Middlewares/Third_Party/LwIP/src/apps/mqtt/mqtt.c ****   "SUBSCRIBE",
 138:Middlewares/Third_Party/LwIP/src/apps/mqtt/mqtt.c ****   "SUBACK",
 139:Middlewares/Third_Party/LwIP/src/apps/mqtt/mqtt.c ****   "UNSUBSCRIBE",
 140:Middlewares/Third_Party/LwIP/src/apps/mqtt/mqtt.c ****   "UNSUBACK",
 141:Middlewares/Third_Party/LwIP/src/apps/mqtt/mqtt.c ****   "PINGREQ",
 142:Middlewares/Third_Party/LwIP/src/apps/mqtt/mqtt.c ****   "PINGRESP",
 143:Middlewares/Third_Party/LwIP/src/apps/mqtt/mqtt.c ****   "DISCONNECT"
 144:Middlewares/Third_Party/LwIP/src/apps/mqtt/mqtt.c **** };
 145:Middlewares/Third_Party/LwIP/src/apps/mqtt/mqtt.c **** 
ARM GAS  C:\Users\hh\AppData\Local\Temp\cc3qgJrr.s 			page 4


 146:Middlewares/Third_Party/LwIP/src/apps/mqtt/mqtt.c **** /**
 147:Middlewares/Third_Party/LwIP/src/apps/mqtt/mqtt.c ****  * Message type value to string
 148:Middlewares/Third_Party/LwIP/src/apps/mqtt/mqtt.c ****  * @param msg_type see enum mqtt_message_type
 149:Middlewares/Third_Party/LwIP/src/apps/mqtt/mqtt.c ****  *
 150:Middlewares/Third_Party/LwIP/src/apps/mqtt/mqtt.c ****  * @return Control message type text string
 151:Middlewares/Third_Party/LwIP/src/apps/mqtt/mqtt.c ****  */
 152:Middlewares/Third_Party/LwIP/src/apps/mqtt/mqtt.c **** static const char *
 153:Middlewares/Third_Party/LwIP/src/apps/mqtt/mqtt.c **** mqtt_msg_type_to_str(u8_t msg_type)
 154:Middlewares/Third_Party/LwIP/src/apps/mqtt/mqtt.c **** {
 155:Middlewares/Third_Party/LwIP/src/apps/mqtt/mqtt.c ****   if (msg_type >= LWIP_ARRAYSIZE(mqtt_message_type_str)) {
 156:Middlewares/Third_Party/LwIP/src/apps/mqtt/mqtt.c ****     msg_type = 0;
 157:Middlewares/Third_Party/LwIP/src/apps/mqtt/mqtt.c ****   }
 158:Middlewares/Third_Party/LwIP/src/apps/mqtt/mqtt.c ****   return mqtt_message_type_str[msg_type];
 159:Middlewares/Third_Party/LwIP/src/apps/mqtt/mqtt.c **** }
 160:Middlewares/Third_Party/LwIP/src/apps/mqtt/mqtt.c **** 
 161:Middlewares/Third_Party/LwIP/src/apps/mqtt/mqtt.c **** #endif
 162:Middlewares/Third_Party/LwIP/src/apps/mqtt/mqtt.c **** 
 163:Middlewares/Third_Party/LwIP/src/apps/mqtt/mqtt.c **** 
 164:Middlewares/Third_Party/LwIP/src/apps/mqtt/mqtt.c **** /**
 165:Middlewares/Third_Party/LwIP/src/apps/mqtt/mqtt.c ****  * Generate MQTT packet identifier
 166:Middlewares/Third_Party/LwIP/src/apps/mqtt/mqtt.c ****  * @param client MQTT client
 167:Middlewares/Third_Party/LwIP/src/apps/mqtt/mqtt.c ****  * @return New packet identifier, range 1 to 65535
 168:Middlewares/Third_Party/LwIP/src/apps/mqtt/mqtt.c ****  */
 169:Middlewares/Third_Party/LwIP/src/apps/mqtt/mqtt.c **** static u16_t
 170:Middlewares/Third_Party/LwIP/src/apps/mqtt/mqtt.c **** msg_generate_packet_id(mqtt_client_t *client)
 171:Middlewares/Third_Party/LwIP/src/apps/mqtt/mqtt.c **** {
  28              		.loc 1 171 1 view -0
  29              		.cfi_startproc
  30              		@ args = 0, pretend = 0, frame = 0
  31              		@ frame_needed = 0, uses_anonymous_args = 0
  32              		@ link register save eliminated.
 172:Middlewares/Third_Party/LwIP/src/apps/mqtt/mqtt.c ****   client->pkt_id_seq++;
  33              		.loc 1 172 3 view .LVU1
  34              		.loc 1 172 9 is_stmt 0 view .LVU2
  35 0000 C288     		ldrh	r2, [r0, #6]
  36              		.loc 1 172 21 view .LVU3
  37 0002 531C     		adds	r3, r2, #1
  38 0004 9BB2     		uxth	r3, r3
  39 0006 C380     		strh	r3, [r0, #6]	@ movhi
 173:Middlewares/Third_Party/LwIP/src/apps/mqtt/mqtt.c ****   if (client->pkt_id_seq == 0) {
  40              		.loc 1 173 3 is_stmt 1 view .LVU4
  41              		.loc 1 173 6 is_stmt 0 view .LVU5
  42 0008 0BB9     		cbnz	r3, .L2
 174:Middlewares/Third_Party/LwIP/src/apps/mqtt/mqtt.c ****     client->pkt_id_seq++;
  43              		.loc 1 174 5 is_stmt 1 view .LVU6
  44              		.loc 1 174 23 is_stmt 0 view .LVU7
  45 000a 0232     		adds	r2, r2, #2
  46 000c C280     		strh	r2, [r0, #6]	@ movhi
  47              	.L2:
 175:Middlewares/Third_Party/LwIP/src/apps/mqtt/mqtt.c ****   }
 176:Middlewares/Third_Party/LwIP/src/apps/mqtt/mqtt.c ****   return client->pkt_id_seq;
  48              		.loc 1 176 3 is_stmt 1 view .LVU8
 177:Middlewares/Third_Party/LwIP/src/apps/mqtt/mqtt.c **** }
  49              		.loc 1 177 1 is_stmt 0 view .LVU9
  50 000e C088     		ldrh	r0, [r0, #6]
  51              	.LVL1:
  52              		.loc 1 177 1 view .LVU10
ARM GAS  C:\Users\hh\AppData\Local\Temp\cc3qgJrr.s 			page 5


  53 0010 7047     		bx	lr
  54              		.cfi_endproc
  55              	.LFE172:
  57              		.section	.text.mqtt_ringbuf_put,"ax",%progbits
  58              		.align	1
  59              		.syntax unified
  60              		.thumb
  61              		.thumb_func
  63              	mqtt_ringbuf_put:
  64              	.LVL2:
  65              	.LFB173:
 178:Middlewares/Third_Party/LwIP/src/apps/mqtt/mqtt.c **** 
 179:Middlewares/Third_Party/LwIP/src/apps/mqtt/mqtt.c **** /*-------------------------------------------------------------------------------------------------
 180:Middlewares/Third_Party/LwIP/src/apps/mqtt/mqtt.c **** /* Output ring buffer */
 181:Middlewares/Third_Party/LwIP/src/apps/mqtt/mqtt.c **** 
 182:Middlewares/Third_Party/LwIP/src/apps/mqtt/mqtt.c **** /** Add single item to ring buffer */
 183:Middlewares/Third_Party/LwIP/src/apps/mqtt/mqtt.c **** static void
 184:Middlewares/Third_Party/LwIP/src/apps/mqtt/mqtt.c **** mqtt_ringbuf_put(struct mqtt_ringbuf_t *rb, u8_t item)
 185:Middlewares/Third_Party/LwIP/src/apps/mqtt/mqtt.c **** {
  66              		.loc 1 185 1 is_stmt 1 view -0
  67              		.cfi_startproc
  68              		@ args = 0, pretend = 0, frame = 0
  69              		@ frame_needed = 0, uses_anonymous_args = 0
  70              		@ link register save eliminated.
 186:Middlewares/Third_Party/LwIP/src/apps/mqtt/mqtt.c ****   rb->buf[rb->put] = item;
  71              		.loc 1 186 3 view .LVU12
  72              		.loc 1 186 13 is_stmt 0 view .LVU13
  73 0000 0388     		ldrh	r3, [r0]
  74              		.loc 1 186 20 view .LVU14
  75 0002 C218     		adds	r2, r0, r3
  76 0004 1171     		strb	r1, [r2, #4]
 187:Middlewares/Third_Party/LwIP/src/apps/mqtt/mqtt.c ****   rb->put++;
  77              		.loc 1 187 3 is_stmt 1 view .LVU15
  78              		.loc 1 187 10 is_stmt 0 view .LVU16
  79 0006 0133     		adds	r3, r3, #1
  80 0008 9BB2     		uxth	r3, r3
  81 000a 0380     		strh	r3, [r0]	@ movhi
 188:Middlewares/Third_Party/LwIP/src/apps/mqtt/mqtt.c ****   if (rb->put >= MQTT_OUTPUT_RINGBUF_SIZE) {
  82              		.loc 1 188 3 is_stmt 1 view .LVU17
  83              		.loc 1 188 6 is_stmt 0 view .LVU18
  84 000c FF2B     		cmp	r3, #255
  85 000e 01D9     		bls	.L3
 189:Middlewares/Third_Party/LwIP/src/apps/mqtt/mqtt.c ****     rb->put = 0;
  86              		.loc 1 189 5 is_stmt 1 view .LVU19
  87              		.loc 1 189 13 is_stmt 0 view .LVU20
  88 0010 0023     		movs	r3, #0
  89 0012 0380     		strh	r3, [r0]	@ movhi
  90              	.L3:
 190:Middlewares/Third_Party/LwIP/src/apps/mqtt/mqtt.c ****   }
 191:Middlewares/Third_Party/LwIP/src/apps/mqtt/mqtt.c **** }
  91              		.loc 1 191 1 view .LVU21
  92 0014 7047     		bx	lr
  93              		.cfi_endproc
  94              	.LFE173:
  96              		.section	.text.mqtt_ringbuf_get_ptr,"ax",%progbits
  97              		.align	1
  98              		.syntax unified
ARM GAS  C:\Users\hh\AppData\Local\Temp\cc3qgJrr.s 			page 6


  99              		.thumb
 100              		.thumb_func
 102              	mqtt_ringbuf_get_ptr:
 103              	.LVL3:
 104              	.LFB174:
 192:Middlewares/Third_Party/LwIP/src/apps/mqtt/mqtt.c **** 
 193:Middlewares/Third_Party/LwIP/src/apps/mqtt/mqtt.c **** /** Return pointer to ring buffer get position */
 194:Middlewares/Third_Party/LwIP/src/apps/mqtt/mqtt.c **** static u8_t *
 195:Middlewares/Third_Party/LwIP/src/apps/mqtt/mqtt.c **** mqtt_ringbuf_get_ptr(struct mqtt_ringbuf_t *rb)
 196:Middlewares/Third_Party/LwIP/src/apps/mqtt/mqtt.c **** {
 105              		.loc 1 196 1 is_stmt 1 view -0
 106              		.cfi_startproc
 107              		@ args = 0, pretend = 0, frame = 0
 108              		@ frame_needed = 0, uses_anonymous_args = 0
 109              		@ link register save eliminated.
 197:Middlewares/Third_Party/LwIP/src/apps/mqtt/mqtt.c ****   return &rb->buf[rb->get];
 110              		.loc 1 197 3 view .LVU23
 111              		.loc 1 197 21 is_stmt 0 view .LVU24
 112 0000 4388     		ldrh	r3, [r0, #2]
 113              		.loc 1 197 10 view .LVU25
 114 0002 1844     		add	r0, r0, r3
 115              	.LVL4:
 198:Middlewares/Third_Party/LwIP/src/apps/mqtt/mqtt.c **** }
 116              		.loc 1 198 1 view .LVU26
 117 0004 0430     		adds	r0, r0, #4
 118 0006 7047     		bx	lr
 119              		.cfi_endproc
 120              	.LFE174:
 122              		.section	.text.mqtt_ringbuf_len,"ax",%progbits
 123              		.align	1
 124              		.syntax unified
 125              		.thumb
 126              		.thumb_func
 128              	mqtt_ringbuf_len:
 129              	.LVL5:
 130              	.LFB176:
 199:Middlewares/Third_Party/LwIP/src/apps/mqtt/mqtt.c **** 
 200:Middlewares/Third_Party/LwIP/src/apps/mqtt/mqtt.c **** static void
 201:Middlewares/Third_Party/LwIP/src/apps/mqtt/mqtt.c **** mqtt_ringbuf_advance_get_idx(struct mqtt_ringbuf_t *rb, u16_t len)
 202:Middlewares/Third_Party/LwIP/src/apps/mqtt/mqtt.c **** {
 203:Middlewares/Third_Party/LwIP/src/apps/mqtt/mqtt.c ****   LWIP_ASSERT("mqtt_ringbuf_advance_get_idx: len < MQTT_OUTPUT_RINGBUF_SIZE", len < MQTT_OUTPUT_RIN
 204:Middlewares/Third_Party/LwIP/src/apps/mqtt/mqtt.c **** 
 205:Middlewares/Third_Party/LwIP/src/apps/mqtt/mqtt.c ****   rb->get += len;
 206:Middlewares/Third_Party/LwIP/src/apps/mqtt/mqtt.c ****   if (rb->get >= MQTT_OUTPUT_RINGBUF_SIZE) {
 207:Middlewares/Third_Party/LwIP/src/apps/mqtt/mqtt.c ****     rb->get = rb->get - MQTT_OUTPUT_RINGBUF_SIZE;
 208:Middlewares/Third_Party/LwIP/src/apps/mqtt/mqtt.c ****   }
 209:Middlewares/Third_Party/LwIP/src/apps/mqtt/mqtt.c **** }
 210:Middlewares/Third_Party/LwIP/src/apps/mqtt/mqtt.c **** 
 211:Middlewares/Third_Party/LwIP/src/apps/mqtt/mqtt.c **** /** Return number of bytes in ring buffer */
 212:Middlewares/Third_Party/LwIP/src/apps/mqtt/mqtt.c **** static u16_t
 213:Middlewares/Third_Party/LwIP/src/apps/mqtt/mqtt.c **** mqtt_ringbuf_len(struct mqtt_ringbuf_t *rb)
 214:Middlewares/Third_Party/LwIP/src/apps/mqtt/mqtt.c **** {
 131              		.loc 1 214 1 is_stmt 1 view -0
 132              		.cfi_startproc
 133              		@ args = 0, pretend = 0, frame = 0
 134              		@ frame_needed = 0, uses_anonymous_args = 0
 135              		@ link register save eliminated.
ARM GAS  C:\Users\hh\AppData\Local\Temp\cc3qgJrr.s 			page 7


 215:Middlewares/Third_Party/LwIP/src/apps/mqtt/mqtt.c ****   u32_t len = rb->put - rb->get;
 136              		.loc 1 215 3 view .LVU28
 137              		.loc 1 215 17 is_stmt 0 view .LVU29
 138 0000 0388     		ldrh	r3, [r0]
 139              		.loc 1 215 27 view .LVU30
 140 0002 4288     		ldrh	r2, [r0, #2]
 141              		.loc 1 215 23 view .LVU31
 142 0004 981A     		subs	r0, r3, r2
 143              	.LVL6:
 216:Middlewares/Third_Party/LwIP/src/apps/mqtt/mqtt.c ****   if (len > 0xFFFF) {
 144              		.loc 1 216 3 is_stmt 1 view .LVU32
 145              		.loc 1 216 6 is_stmt 0 view .LVU33
 146 0006 B0F5803F 		cmp	r0, #65536
 147 000a 01D3     		bcc	.L7
 217:Middlewares/Third_Party/LwIP/src/apps/mqtt/mqtt.c ****     len += MQTT_OUTPUT_RINGBUF_SIZE;
 148              		.loc 1 217 5 is_stmt 1 view .LVU34
 149              		.loc 1 217 9 is_stmt 0 view .LVU35
 150 000c 00F58070 		add	r0, r0, #256
 151              	.LVL7:
 152              	.L7:
 218:Middlewares/Third_Party/LwIP/src/apps/mqtt/mqtt.c ****   }
 219:Middlewares/Third_Party/LwIP/src/apps/mqtt/mqtt.c ****   return (u16_t)len;
 153              		.loc 1 219 3 is_stmt 1 view .LVU36
 220:Middlewares/Third_Party/LwIP/src/apps/mqtt/mqtt.c **** }
 154              		.loc 1 220 1 is_stmt 0 view .LVU37
 155 0010 80B2     		uxth	r0, r0
 156              	.LVL8:
 157              		.loc 1 220 1 view .LVU38
 158 0012 7047     		bx	lr
 159              		.cfi_endproc
 160              	.LFE176:
 162              		.section	.text.mqtt_delete_request,"ax",%progbits
 163              		.align	1
 164              		.syntax unified
 165              		.thumb
 166              		.thumb_func
 168              	mqtt_delete_request:
 169              	.LVL9:
 170              	.LFB180:
 221:Middlewares/Third_Party/LwIP/src/apps/mqtt/mqtt.c **** 
 222:Middlewares/Third_Party/LwIP/src/apps/mqtt/mqtt.c **** /** Return number of bytes free in ring buffer */
 223:Middlewares/Third_Party/LwIP/src/apps/mqtt/mqtt.c **** #define mqtt_ringbuf_free(rb) (MQTT_OUTPUT_RINGBUF_SIZE - mqtt_ringbuf_len(rb))
 224:Middlewares/Third_Party/LwIP/src/apps/mqtt/mqtt.c **** 
 225:Middlewares/Third_Party/LwIP/src/apps/mqtt/mqtt.c **** /** Return number of bytes possible to read without wrapping around */
 226:Middlewares/Third_Party/LwIP/src/apps/mqtt/mqtt.c **** #define mqtt_ringbuf_linear_read_length(rb) LWIP_MIN(mqtt_ringbuf_len(rb), (MQTT_OUTPUT_RINGBUF_SIZ
 227:Middlewares/Third_Party/LwIP/src/apps/mqtt/mqtt.c **** 
 228:Middlewares/Third_Party/LwIP/src/apps/mqtt/mqtt.c **** /**
 229:Middlewares/Third_Party/LwIP/src/apps/mqtt/mqtt.c ****  * Try send as many bytes as possible from output ring buffer
 230:Middlewares/Third_Party/LwIP/src/apps/mqtt/mqtt.c ****  * @param rb Output ring buffer
 231:Middlewares/Third_Party/LwIP/src/apps/mqtt/mqtt.c ****  * @param tpcb TCP connection handle
 232:Middlewares/Third_Party/LwIP/src/apps/mqtt/mqtt.c ****  */
 233:Middlewares/Third_Party/LwIP/src/apps/mqtt/mqtt.c **** static void
 234:Middlewares/Third_Party/LwIP/src/apps/mqtt/mqtt.c **** mqtt_output_send(struct mqtt_ringbuf_t *rb, struct altcp_pcb *tpcb)
 235:Middlewares/Third_Party/LwIP/src/apps/mqtt/mqtt.c **** {
 236:Middlewares/Third_Party/LwIP/src/apps/mqtt/mqtt.c ****   err_t err;
 237:Middlewares/Third_Party/LwIP/src/apps/mqtt/mqtt.c ****   u8_t wrap = 0;
 238:Middlewares/Third_Party/LwIP/src/apps/mqtt/mqtt.c ****   u16_t ringbuf_lin_len = mqtt_ringbuf_linear_read_length(rb);
ARM GAS  C:\Users\hh\AppData\Local\Temp\cc3qgJrr.s 			page 8


 239:Middlewares/Third_Party/LwIP/src/apps/mqtt/mqtt.c ****   u16_t send_len = altcp_sndbuf(tpcb);
 240:Middlewares/Third_Party/LwIP/src/apps/mqtt/mqtt.c ****   LWIP_ASSERT("mqtt_output_send: tpcb != NULL", tpcb != NULL);
 241:Middlewares/Third_Party/LwIP/src/apps/mqtt/mqtt.c **** 
 242:Middlewares/Third_Party/LwIP/src/apps/mqtt/mqtt.c ****   if (send_len == 0 || ringbuf_lin_len == 0) {
 243:Middlewares/Third_Party/LwIP/src/apps/mqtt/mqtt.c ****     return;
 244:Middlewares/Third_Party/LwIP/src/apps/mqtt/mqtt.c ****   }
 245:Middlewares/Third_Party/LwIP/src/apps/mqtt/mqtt.c **** 
 246:Middlewares/Third_Party/LwIP/src/apps/mqtt/mqtt.c ****   LWIP_DEBUGF(MQTT_DEBUG_TRACE, ("mqtt_output_send: tcp_sndbuf: %d bytes, ringbuf_linear_available:
 247:Middlewares/Third_Party/LwIP/src/apps/mqtt/mqtt.c ****                                  send_len, ringbuf_lin_len, rb->get, rb->put));
 248:Middlewares/Third_Party/LwIP/src/apps/mqtt/mqtt.c **** 
 249:Middlewares/Third_Party/LwIP/src/apps/mqtt/mqtt.c ****   if (send_len > ringbuf_lin_len) {
 250:Middlewares/Third_Party/LwIP/src/apps/mqtt/mqtt.c ****     /* Space in TCP output buffer is larger than available in ring buffer linear portion */
 251:Middlewares/Third_Party/LwIP/src/apps/mqtt/mqtt.c ****     send_len = ringbuf_lin_len;
 252:Middlewares/Third_Party/LwIP/src/apps/mqtt/mqtt.c ****     /* Wrap around if more data in ring buffer after linear portion */
 253:Middlewares/Third_Party/LwIP/src/apps/mqtt/mqtt.c ****     wrap = (mqtt_ringbuf_len(rb) > ringbuf_lin_len);
 254:Middlewares/Third_Party/LwIP/src/apps/mqtt/mqtt.c ****   }
 255:Middlewares/Third_Party/LwIP/src/apps/mqtt/mqtt.c ****   err = altcp_write(tpcb, mqtt_ringbuf_get_ptr(rb), send_len, TCP_WRITE_FLAG_COPY | (wrap ? TCP_WRI
 256:Middlewares/Third_Party/LwIP/src/apps/mqtt/mqtt.c ****   if ((err == ERR_OK) && wrap) {
 257:Middlewares/Third_Party/LwIP/src/apps/mqtt/mqtt.c ****     mqtt_ringbuf_advance_get_idx(rb, send_len);
 258:Middlewares/Third_Party/LwIP/src/apps/mqtt/mqtt.c ****     /* Use the lesser one of ring buffer linear length and TCP send buffer size */
 259:Middlewares/Third_Party/LwIP/src/apps/mqtt/mqtt.c ****     send_len = LWIP_MIN(altcp_sndbuf(tpcb), mqtt_ringbuf_linear_read_length(rb));
 260:Middlewares/Third_Party/LwIP/src/apps/mqtt/mqtt.c ****     err = altcp_write(tpcb, mqtt_ringbuf_get_ptr(rb), send_len, TCP_WRITE_FLAG_COPY);
 261:Middlewares/Third_Party/LwIP/src/apps/mqtt/mqtt.c ****   }
 262:Middlewares/Third_Party/LwIP/src/apps/mqtt/mqtt.c **** 
 263:Middlewares/Third_Party/LwIP/src/apps/mqtt/mqtt.c ****   if (err == ERR_OK) {
 264:Middlewares/Third_Party/LwIP/src/apps/mqtt/mqtt.c ****     mqtt_ringbuf_advance_get_idx(rb, send_len);
 265:Middlewares/Third_Party/LwIP/src/apps/mqtt/mqtt.c ****     /* Flush */
 266:Middlewares/Third_Party/LwIP/src/apps/mqtt/mqtt.c ****     altcp_output(tpcb);
 267:Middlewares/Third_Party/LwIP/src/apps/mqtt/mqtt.c ****   } else {
 268:Middlewares/Third_Party/LwIP/src/apps/mqtt/mqtt.c ****     LWIP_DEBUGF(MQTT_DEBUG_WARN, ("mqtt_output_send: Send failed with err %d (\"%s\")\n", err, lwip
 269:Middlewares/Third_Party/LwIP/src/apps/mqtt/mqtt.c ****   }
 270:Middlewares/Third_Party/LwIP/src/apps/mqtt/mqtt.c **** }
 271:Middlewares/Third_Party/LwIP/src/apps/mqtt/mqtt.c **** 
 272:Middlewares/Third_Party/LwIP/src/apps/mqtt/mqtt.c **** 
 273:Middlewares/Third_Party/LwIP/src/apps/mqtt/mqtt.c **** 
 274:Middlewares/Third_Party/LwIP/src/apps/mqtt/mqtt.c **** /*-------------------------------------------------------------------------------------------------
 275:Middlewares/Third_Party/LwIP/src/apps/mqtt/mqtt.c **** /* Request queue */
 276:Middlewares/Third_Party/LwIP/src/apps/mqtt/mqtt.c **** 
 277:Middlewares/Third_Party/LwIP/src/apps/mqtt/mqtt.c **** /**
 278:Middlewares/Third_Party/LwIP/src/apps/mqtt/mqtt.c ****  * Create request item
 279:Middlewares/Third_Party/LwIP/src/apps/mqtt/mqtt.c ****  * @param r_objs Pointer to request objects
 280:Middlewares/Third_Party/LwIP/src/apps/mqtt/mqtt.c ****  * @param r_objs_len Number of array entries
 281:Middlewares/Third_Party/LwIP/src/apps/mqtt/mqtt.c ****  * @param pkt_id Packet identifier of request
 282:Middlewares/Third_Party/LwIP/src/apps/mqtt/mqtt.c ****  * @param cb Packet callback to call when requests lifetime ends
 283:Middlewares/Third_Party/LwIP/src/apps/mqtt/mqtt.c ****  * @param arg Parameter following callback
 284:Middlewares/Third_Party/LwIP/src/apps/mqtt/mqtt.c ****  * @return Request or NULL if failed to create
 285:Middlewares/Third_Party/LwIP/src/apps/mqtt/mqtt.c ****  */
 286:Middlewares/Third_Party/LwIP/src/apps/mqtt/mqtt.c **** static struct mqtt_request_t *
 287:Middlewares/Third_Party/LwIP/src/apps/mqtt/mqtt.c **** mqtt_create_request(struct mqtt_request_t *r_objs, size_t r_objs_len, u16_t pkt_id, mqtt_request_cb
 288:Middlewares/Third_Party/LwIP/src/apps/mqtt/mqtt.c **** {
 289:Middlewares/Third_Party/LwIP/src/apps/mqtt/mqtt.c ****   struct mqtt_request_t *r = NULL;
 290:Middlewares/Third_Party/LwIP/src/apps/mqtt/mqtt.c ****   u8_t n;
 291:Middlewares/Third_Party/LwIP/src/apps/mqtt/mqtt.c ****   LWIP_ASSERT("mqtt_create_request: r_objs != NULL", r_objs != NULL);
 292:Middlewares/Third_Party/LwIP/src/apps/mqtt/mqtt.c ****   for (n = 0; n < r_objs_len; n++) {
 293:Middlewares/Third_Party/LwIP/src/apps/mqtt/mqtt.c ****     /* Item point to itself if not in use */
 294:Middlewares/Third_Party/LwIP/src/apps/mqtt/mqtt.c ****     if (r_objs[n].next == &r_objs[n]) {
 295:Middlewares/Third_Party/LwIP/src/apps/mqtt/mqtt.c ****       r = &r_objs[n];
ARM GAS  C:\Users\hh\AppData\Local\Temp\cc3qgJrr.s 			page 9


 296:Middlewares/Third_Party/LwIP/src/apps/mqtt/mqtt.c ****       r->next = NULL;
 297:Middlewares/Third_Party/LwIP/src/apps/mqtt/mqtt.c ****       r->cb = cb;
 298:Middlewares/Third_Party/LwIP/src/apps/mqtt/mqtt.c ****       r->arg = arg;
 299:Middlewares/Third_Party/LwIP/src/apps/mqtt/mqtt.c ****       r->pkt_id = pkt_id;
 300:Middlewares/Third_Party/LwIP/src/apps/mqtt/mqtt.c ****       break;
 301:Middlewares/Third_Party/LwIP/src/apps/mqtt/mqtt.c ****     }
 302:Middlewares/Third_Party/LwIP/src/apps/mqtt/mqtt.c ****   }
 303:Middlewares/Third_Party/LwIP/src/apps/mqtt/mqtt.c ****   return r;
 304:Middlewares/Third_Party/LwIP/src/apps/mqtt/mqtt.c **** }
 305:Middlewares/Third_Party/LwIP/src/apps/mqtt/mqtt.c **** 
 306:Middlewares/Third_Party/LwIP/src/apps/mqtt/mqtt.c **** 
 307:Middlewares/Third_Party/LwIP/src/apps/mqtt/mqtt.c **** /**
 308:Middlewares/Third_Party/LwIP/src/apps/mqtt/mqtt.c ****  * Append request to pending request queue
 309:Middlewares/Third_Party/LwIP/src/apps/mqtt/mqtt.c ****  * @param tail Pointer to request queue tail pointer
 310:Middlewares/Third_Party/LwIP/src/apps/mqtt/mqtt.c ****  * @param r Request to append
 311:Middlewares/Third_Party/LwIP/src/apps/mqtt/mqtt.c ****  */
 312:Middlewares/Third_Party/LwIP/src/apps/mqtt/mqtt.c **** static void
 313:Middlewares/Third_Party/LwIP/src/apps/mqtt/mqtt.c **** mqtt_append_request(struct mqtt_request_t **tail, struct mqtt_request_t *r)
 314:Middlewares/Third_Party/LwIP/src/apps/mqtt/mqtt.c **** {
 315:Middlewares/Third_Party/LwIP/src/apps/mqtt/mqtt.c ****   struct mqtt_request_t *head = NULL;
 316:Middlewares/Third_Party/LwIP/src/apps/mqtt/mqtt.c ****   s16_t time_before = 0;
 317:Middlewares/Third_Party/LwIP/src/apps/mqtt/mqtt.c ****   struct mqtt_request_t *iter;
 318:Middlewares/Third_Party/LwIP/src/apps/mqtt/mqtt.c **** 
 319:Middlewares/Third_Party/LwIP/src/apps/mqtt/mqtt.c ****   LWIP_ASSERT("mqtt_append_request: tail != NULL", tail != NULL);
 320:Middlewares/Third_Party/LwIP/src/apps/mqtt/mqtt.c **** 
 321:Middlewares/Third_Party/LwIP/src/apps/mqtt/mqtt.c ****   /* Iterate through queue to find head, and count total timeout time */
 322:Middlewares/Third_Party/LwIP/src/apps/mqtt/mqtt.c ****   for (iter = *tail; iter != NULL; iter = iter->next) {
 323:Middlewares/Third_Party/LwIP/src/apps/mqtt/mqtt.c ****     time_before += iter->timeout_diff;
 324:Middlewares/Third_Party/LwIP/src/apps/mqtt/mqtt.c ****     head = iter;
 325:Middlewares/Third_Party/LwIP/src/apps/mqtt/mqtt.c ****   }
 326:Middlewares/Third_Party/LwIP/src/apps/mqtt/mqtt.c **** 
 327:Middlewares/Third_Party/LwIP/src/apps/mqtt/mqtt.c ****   LWIP_ASSERT("mqtt_append_request: time_before <= MQTT_REQ_TIMEOUT", time_before <= MQTT_REQ_TIMEO
 328:Middlewares/Third_Party/LwIP/src/apps/mqtt/mqtt.c ****   r->timeout_diff = MQTT_REQ_TIMEOUT - time_before;
 329:Middlewares/Third_Party/LwIP/src/apps/mqtt/mqtt.c ****   if (head == NULL) {
 330:Middlewares/Third_Party/LwIP/src/apps/mqtt/mqtt.c ****     *tail = r;
 331:Middlewares/Third_Party/LwIP/src/apps/mqtt/mqtt.c ****   } else {
 332:Middlewares/Third_Party/LwIP/src/apps/mqtt/mqtt.c ****     head->next = r;
 333:Middlewares/Third_Party/LwIP/src/apps/mqtt/mqtt.c ****   }
 334:Middlewares/Third_Party/LwIP/src/apps/mqtt/mqtt.c **** }
 335:Middlewares/Third_Party/LwIP/src/apps/mqtt/mqtt.c **** 
 336:Middlewares/Third_Party/LwIP/src/apps/mqtt/mqtt.c **** 
 337:Middlewares/Third_Party/LwIP/src/apps/mqtt/mqtt.c **** /**
 338:Middlewares/Third_Party/LwIP/src/apps/mqtt/mqtt.c ****  * Delete request item
 339:Middlewares/Third_Party/LwIP/src/apps/mqtt/mqtt.c ****  * @param r Request item to delete
 340:Middlewares/Third_Party/LwIP/src/apps/mqtt/mqtt.c ****  */
 341:Middlewares/Third_Party/LwIP/src/apps/mqtt/mqtt.c **** static void
 342:Middlewares/Third_Party/LwIP/src/apps/mqtt/mqtt.c **** mqtt_delete_request(struct mqtt_request_t *r)
 343:Middlewares/Third_Party/LwIP/src/apps/mqtt/mqtt.c **** {
 171              		.loc 1 343 1 is_stmt 1 view -0
 172              		.cfi_startproc
 173              		@ args = 0, pretend = 0, frame = 0
 174              		@ frame_needed = 0, uses_anonymous_args = 0
 175              		@ link register save eliminated.
 344:Middlewares/Third_Party/LwIP/src/apps/mqtt/mqtt.c ****   if (r != NULL) {
 176              		.loc 1 344 3 view .LVU40
 177              		.loc 1 344 6 is_stmt 0 view .LVU41
 178 0000 0346     		mov	r3, r0
ARM GAS  C:\Users\hh\AppData\Local\Temp\cc3qgJrr.s 			page 10


 179 0002 00B1     		cbz	r0, .L8
 345:Middlewares/Third_Party/LwIP/src/apps/mqtt/mqtt.c ****     r->next = r;
 180              		.loc 1 345 5 is_stmt 1 view .LVU42
 181              		.loc 1 345 13 is_stmt 0 view .LVU43
 182 0004 1860     		str	r0, [r3]
 183              	.L8:
 346:Middlewares/Third_Party/LwIP/src/apps/mqtt/mqtt.c ****   }
 347:Middlewares/Third_Party/LwIP/src/apps/mqtt/mqtt.c **** }
 184              		.loc 1 347 1 view .LVU44
 185 0006 7047     		bx	lr
 186              		.cfi_endproc
 187              	.LFE180:
 189              		.section	.text.mqtt_output_append_u8,"ax",%progbits
 190              		.align	1
 191              		.syntax unified
 192              		.thumb
 193              		.thumb_func
 195              	mqtt_output_append_u8:
 196              	.LVL10:
 197              	.LFB185:
 348:Middlewares/Third_Party/LwIP/src/apps/mqtt/mqtt.c **** 
 349:Middlewares/Third_Party/LwIP/src/apps/mqtt/mqtt.c **** /**
 350:Middlewares/Third_Party/LwIP/src/apps/mqtt/mqtt.c ****  * Remove a request item with a specific packet identifier from request queue
 351:Middlewares/Third_Party/LwIP/src/apps/mqtt/mqtt.c ****  * @param tail Pointer to request queue tail pointer
 352:Middlewares/Third_Party/LwIP/src/apps/mqtt/mqtt.c ****  * @param pkt_id Packet identifier of request to take
 353:Middlewares/Third_Party/LwIP/src/apps/mqtt/mqtt.c ****  * @return Request item if found, NULL if not
 354:Middlewares/Third_Party/LwIP/src/apps/mqtt/mqtt.c ****  */
 355:Middlewares/Third_Party/LwIP/src/apps/mqtt/mqtt.c **** static struct mqtt_request_t *
 356:Middlewares/Third_Party/LwIP/src/apps/mqtt/mqtt.c **** mqtt_take_request(struct mqtt_request_t **tail, u16_t pkt_id)
 357:Middlewares/Third_Party/LwIP/src/apps/mqtt/mqtt.c **** {
 358:Middlewares/Third_Party/LwIP/src/apps/mqtt/mqtt.c ****   struct mqtt_request_t *iter = NULL, *prev = NULL;
 359:Middlewares/Third_Party/LwIP/src/apps/mqtt/mqtt.c ****   LWIP_ASSERT("mqtt_take_request: tail != NULL", tail != NULL);
 360:Middlewares/Third_Party/LwIP/src/apps/mqtt/mqtt.c ****   /* Search all request for pkt_id */
 361:Middlewares/Third_Party/LwIP/src/apps/mqtt/mqtt.c ****   for (iter = *tail; iter != NULL; iter = iter->next) {
 362:Middlewares/Third_Party/LwIP/src/apps/mqtt/mqtt.c ****     if (iter->pkt_id == pkt_id) {
 363:Middlewares/Third_Party/LwIP/src/apps/mqtt/mqtt.c ****       break;
 364:Middlewares/Third_Party/LwIP/src/apps/mqtt/mqtt.c ****     }
 365:Middlewares/Third_Party/LwIP/src/apps/mqtt/mqtt.c ****     prev = iter;
 366:Middlewares/Third_Party/LwIP/src/apps/mqtt/mqtt.c ****   }
 367:Middlewares/Third_Party/LwIP/src/apps/mqtt/mqtt.c **** 
 368:Middlewares/Third_Party/LwIP/src/apps/mqtt/mqtt.c ****   /* If request was found */
 369:Middlewares/Third_Party/LwIP/src/apps/mqtt/mqtt.c ****   if (iter != NULL) {
 370:Middlewares/Third_Party/LwIP/src/apps/mqtt/mqtt.c ****     /* unchain */
 371:Middlewares/Third_Party/LwIP/src/apps/mqtt/mqtt.c ****     if (prev == NULL) {
 372:Middlewares/Third_Party/LwIP/src/apps/mqtt/mqtt.c ****       *tail = iter->next;
 373:Middlewares/Third_Party/LwIP/src/apps/mqtt/mqtt.c ****     } else {
 374:Middlewares/Third_Party/LwIP/src/apps/mqtt/mqtt.c ****       prev->next = iter->next;
 375:Middlewares/Third_Party/LwIP/src/apps/mqtt/mqtt.c ****     }
 376:Middlewares/Third_Party/LwIP/src/apps/mqtt/mqtt.c ****     /* If exists, add remaining timeout time for the request to next */
 377:Middlewares/Third_Party/LwIP/src/apps/mqtt/mqtt.c ****     if (iter->next != NULL) {
 378:Middlewares/Third_Party/LwIP/src/apps/mqtt/mqtt.c ****       iter->next->timeout_diff += iter->timeout_diff;
 379:Middlewares/Third_Party/LwIP/src/apps/mqtt/mqtt.c ****     }
 380:Middlewares/Third_Party/LwIP/src/apps/mqtt/mqtt.c ****     iter->next = NULL;
 381:Middlewares/Third_Party/LwIP/src/apps/mqtt/mqtt.c ****   }
 382:Middlewares/Third_Party/LwIP/src/apps/mqtt/mqtt.c ****   return iter;
 383:Middlewares/Third_Party/LwIP/src/apps/mqtt/mqtt.c **** }
 384:Middlewares/Third_Party/LwIP/src/apps/mqtt/mqtt.c **** 
ARM GAS  C:\Users\hh\AppData\Local\Temp\cc3qgJrr.s 			page 11


 385:Middlewares/Third_Party/LwIP/src/apps/mqtt/mqtt.c **** /**
 386:Middlewares/Third_Party/LwIP/src/apps/mqtt/mqtt.c ****  * Handle requests timeout
 387:Middlewares/Third_Party/LwIP/src/apps/mqtt/mqtt.c ****  * @param tail Pointer to request queue tail pointer
 388:Middlewares/Third_Party/LwIP/src/apps/mqtt/mqtt.c ****  * @param t Time since last call in seconds
 389:Middlewares/Third_Party/LwIP/src/apps/mqtt/mqtt.c ****  */
 390:Middlewares/Third_Party/LwIP/src/apps/mqtt/mqtt.c **** static void
 391:Middlewares/Third_Party/LwIP/src/apps/mqtt/mqtt.c **** mqtt_request_time_elapsed(struct mqtt_request_t **tail, u8_t t)
 392:Middlewares/Third_Party/LwIP/src/apps/mqtt/mqtt.c **** {
 393:Middlewares/Third_Party/LwIP/src/apps/mqtt/mqtt.c ****   struct mqtt_request_t *r;
 394:Middlewares/Third_Party/LwIP/src/apps/mqtt/mqtt.c ****   LWIP_ASSERT("mqtt_request_time_elapsed: tail != NULL", tail != NULL);
 395:Middlewares/Third_Party/LwIP/src/apps/mqtt/mqtt.c ****   r = *tail;
 396:Middlewares/Third_Party/LwIP/src/apps/mqtt/mqtt.c ****   while (t > 0 && r != NULL) {
 397:Middlewares/Third_Party/LwIP/src/apps/mqtt/mqtt.c ****     if (t >= r->timeout_diff) {
 398:Middlewares/Third_Party/LwIP/src/apps/mqtt/mqtt.c ****       t -= (u8_t)r->timeout_diff;
 399:Middlewares/Third_Party/LwIP/src/apps/mqtt/mqtt.c ****       /* Unchain */
 400:Middlewares/Third_Party/LwIP/src/apps/mqtt/mqtt.c ****       *tail = r->next;
 401:Middlewares/Third_Party/LwIP/src/apps/mqtt/mqtt.c ****       /* Notify upper layer about timeout */
 402:Middlewares/Third_Party/LwIP/src/apps/mqtt/mqtt.c ****       if (r->cb != NULL) {
 403:Middlewares/Third_Party/LwIP/src/apps/mqtt/mqtt.c ****         r->cb(r->arg, ERR_TIMEOUT);
 404:Middlewares/Third_Party/LwIP/src/apps/mqtt/mqtt.c ****       }
 405:Middlewares/Third_Party/LwIP/src/apps/mqtt/mqtt.c ****       mqtt_delete_request(r);
 406:Middlewares/Third_Party/LwIP/src/apps/mqtt/mqtt.c ****       /* Tail might be be modified in callback, so re-read it in every iteration */
 407:Middlewares/Third_Party/LwIP/src/apps/mqtt/mqtt.c ****       r = *(struct mqtt_request_t *const volatile *)tail;
 408:Middlewares/Third_Party/LwIP/src/apps/mqtt/mqtt.c ****     } else {
 409:Middlewares/Third_Party/LwIP/src/apps/mqtt/mqtt.c ****       r->timeout_diff -= t;
 410:Middlewares/Third_Party/LwIP/src/apps/mqtt/mqtt.c ****       t = 0;
 411:Middlewares/Third_Party/LwIP/src/apps/mqtt/mqtt.c ****     }
 412:Middlewares/Third_Party/LwIP/src/apps/mqtt/mqtt.c ****   }
 413:Middlewares/Third_Party/LwIP/src/apps/mqtt/mqtt.c **** }
 414:Middlewares/Third_Party/LwIP/src/apps/mqtt/mqtt.c **** 
 415:Middlewares/Third_Party/LwIP/src/apps/mqtt/mqtt.c **** /**
 416:Middlewares/Third_Party/LwIP/src/apps/mqtt/mqtt.c ****  * Free all request items
 417:Middlewares/Third_Party/LwIP/src/apps/mqtt/mqtt.c ****  * @param tail Pointer to request queue tail pointer
 418:Middlewares/Third_Party/LwIP/src/apps/mqtt/mqtt.c ****  */
 419:Middlewares/Third_Party/LwIP/src/apps/mqtt/mqtt.c **** static void
 420:Middlewares/Third_Party/LwIP/src/apps/mqtt/mqtt.c **** mqtt_clear_requests(struct mqtt_request_t **tail)
 421:Middlewares/Third_Party/LwIP/src/apps/mqtt/mqtt.c **** {
 422:Middlewares/Third_Party/LwIP/src/apps/mqtt/mqtt.c ****   struct mqtt_request_t *iter, *next;
 423:Middlewares/Third_Party/LwIP/src/apps/mqtt/mqtt.c ****   LWIP_ASSERT("mqtt_clear_requests: tail != NULL", tail != NULL);
 424:Middlewares/Third_Party/LwIP/src/apps/mqtt/mqtt.c ****   for (iter = *tail; iter != NULL; iter = next) {
 425:Middlewares/Third_Party/LwIP/src/apps/mqtt/mqtt.c ****     next = iter->next;
 426:Middlewares/Third_Party/LwIP/src/apps/mqtt/mqtt.c ****     mqtt_delete_request(iter);
 427:Middlewares/Third_Party/LwIP/src/apps/mqtt/mqtt.c ****   }
 428:Middlewares/Third_Party/LwIP/src/apps/mqtt/mqtt.c ****   *tail = NULL;
 429:Middlewares/Third_Party/LwIP/src/apps/mqtt/mqtt.c **** }
 430:Middlewares/Third_Party/LwIP/src/apps/mqtt/mqtt.c **** /**
 431:Middlewares/Third_Party/LwIP/src/apps/mqtt/mqtt.c ****  * Initialize all request items
 432:Middlewares/Third_Party/LwIP/src/apps/mqtt/mqtt.c ****  * @param r_objs Pointer to request objects
 433:Middlewares/Third_Party/LwIP/src/apps/mqtt/mqtt.c ****  * @param r_objs_len Number of array entries
 434:Middlewares/Third_Party/LwIP/src/apps/mqtt/mqtt.c ****  */
 435:Middlewares/Third_Party/LwIP/src/apps/mqtt/mqtt.c **** static void
 436:Middlewares/Third_Party/LwIP/src/apps/mqtt/mqtt.c **** mqtt_init_requests(struct mqtt_request_t *r_objs, size_t r_objs_len)
 437:Middlewares/Third_Party/LwIP/src/apps/mqtt/mqtt.c **** {
 438:Middlewares/Third_Party/LwIP/src/apps/mqtt/mqtt.c ****   u8_t n;
 439:Middlewares/Third_Party/LwIP/src/apps/mqtt/mqtt.c ****   LWIP_ASSERT("mqtt_init_requests: r_objs != NULL", r_objs != NULL);
 440:Middlewares/Third_Party/LwIP/src/apps/mqtt/mqtt.c ****   for (n = 0; n < r_objs_len; n++) {
 441:Middlewares/Third_Party/LwIP/src/apps/mqtt/mqtt.c ****     /* Item pointing to itself indicates unused */
ARM GAS  C:\Users\hh\AppData\Local\Temp\cc3qgJrr.s 			page 12


 442:Middlewares/Third_Party/LwIP/src/apps/mqtt/mqtt.c ****     r_objs[n].next = &r_objs[n];
 443:Middlewares/Third_Party/LwIP/src/apps/mqtt/mqtt.c ****   }
 444:Middlewares/Third_Party/LwIP/src/apps/mqtt/mqtt.c **** }
 445:Middlewares/Third_Party/LwIP/src/apps/mqtt/mqtt.c **** 
 446:Middlewares/Third_Party/LwIP/src/apps/mqtt/mqtt.c **** /*-------------------------------------------------------------------------------------------------
 447:Middlewares/Third_Party/LwIP/src/apps/mqtt/mqtt.c **** /* Output message build helpers */
 448:Middlewares/Third_Party/LwIP/src/apps/mqtt/mqtt.c **** 
 449:Middlewares/Third_Party/LwIP/src/apps/mqtt/mqtt.c **** 
 450:Middlewares/Third_Party/LwIP/src/apps/mqtt/mqtt.c **** static void
 451:Middlewares/Third_Party/LwIP/src/apps/mqtt/mqtt.c **** mqtt_output_append_u8(struct mqtt_ringbuf_t *rb, u8_t value)
 452:Middlewares/Third_Party/LwIP/src/apps/mqtt/mqtt.c **** {
 198              		.loc 1 452 1 is_stmt 1 view -0
 199              		.cfi_startproc
 200              		@ args = 0, pretend = 0, frame = 0
 201              		@ frame_needed = 0, uses_anonymous_args = 0
 202              		.loc 1 452 1 is_stmt 0 view .LVU46
 203 0000 08B5     		push	{r3, lr}
 204              	.LCFI0:
 205              		.cfi_def_cfa_offset 8
 206              		.cfi_offset 3, -8
 207              		.cfi_offset 14, -4
 453:Middlewares/Third_Party/LwIP/src/apps/mqtt/mqtt.c ****   mqtt_ringbuf_put(rb, value);
 208              		.loc 1 453 3 is_stmt 1 view .LVU47
 209 0002 FFF7FEFF 		bl	mqtt_ringbuf_put
 210              	.LVL11:
 454:Middlewares/Third_Party/LwIP/src/apps/mqtt/mqtt.c **** }
 211              		.loc 1 454 1 is_stmt 0 view .LVU48
 212 0006 08BD     		pop	{r3, pc}
 213              		.cfi_endproc
 214              	.LFE185:
 216              		.section	.text.mqtt_output_append_u16,"ax",%progbits
 217              		.align	1
 218              		.syntax unified
 219              		.thumb
 220              		.thumb_func
 222              	mqtt_output_append_u16:
 223              	.LVL12:
 224              	.LFB186:
 455:Middlewares/Third_Party/LwIP/src/apps/mqtt/mqtt.c **** 
 456:Middlewares/Third_Party/LwIP/src/apps/mqtt/mqtt.c **** static
 457:Middlewares/Third_Party/LwIP/src/apps/mqtt/mqtt.c **** void mqtt_output_append_u16(struct mqtt_ringbuf_t *rb, u16_t value)
 458:Middlewares/Third_Party/LwIP/src/apps/mqtt/mqtt.c **** {
 225              		.loc 1 458 1 is_stmt 1 view -0
 226              		.cfi_startproc
 227              		@ args = 0, pretend = 0, frame = 0
 228              		@ frame_needed = 0, uses_anonymous_args = 0
 229              		.loc 1 458 1 is_stmt 0 view .LVU50
 230 0000 38B5     		push	{r3, r4, r5, lr}
 231              	.LCFI1:
 232              		.cfi_def_cfa_offset 16
 233              		.cfi_offset 3, -16
 234              		.cfi_offset 4, -12
 235              		.cfi_offset 5, -8
 236              		.cfi_offset 14, -4
 237 0002 0546     		mov	r5, r0
 238 0004 0C46     		mov	r4, r1
 459:Middlewares/Third_Party/LwIP/src/apps/mqtt/mqtt.c ****   mqtt_ringbuf_put(rb, value >> 8);
ARM GAS  C:\Users\hh\AppData\Local\Temp\cc3qgJrr.s 			page 13


 239              		.loc 1 459 3 is_stmt 1 view .LVU51
 240 0006 090A     		lsrs	r1, r1, #8
 241              	.LVL13:
 242              		.loc 1 459 3 is_stmt 0 view .LVU52
 243 0008 FFF7FEFF 		bl	mqtt_ringbuf_put
 244              	.LVL14:
 460:Middlewares/Third_Party/LwIP/src/apps/mqtt/mqtt.c ****   mqtt_ringbuf_put(rb, value & 0xff);
 245              		.loc 1 460 3 is_stmt 1 view .LVU53
 246 000c E1B2     		uxtb	r1, r4
 247 000e 2846     		mov	r0, r5
 248 0010 FFF7FEFF 		bl	mqtt_ringbuf_put
 249              	.LVL15:
 461:Middlewares/Third_Party/LwIP/src/apps/mqtt/mqtt.c **** }
 250              		.loc 1 461 1 is_stmt 0 view .LVU54
 251 0014 38BD     		pop	{r3, r4, r5, pc}
 252              		.loc 1 461 1 view .LVU55
 253              		.cfi_endproc
 254              	.LFE186:
 256              		.section	.text.mqtt_output_append_buf,"ax",%progbits
 257              		.align	1
 258              		.syntax unified
 259              		.thumb
 260              		.thumb_func
 262              	mqtt_output_append_buf:
 263              	.LVL16:
 264              	.LFB187:
 462:Middlewares/Third_Party/LwIP/src/apps/mqtt/mqtt.c **** 
 463:Middlewares/Third_Party/LwIP/src/apps/mqtt/mqtt.c **** static void
 464:Middlewares/Third_Party/LwIP/src/apps/mqtt/mqtt.c **** mqtt_output_append_buf(struct mqtt_ringbuf_t *rb, const void *data, u16_t length)
 465:Middlewares/Third_Party/LwIP/src/apps/mqtt/mqtt.c **** {
 265              		.loc 1 465 1 is_stmt 1 view -0
 266              		.cfi_startproc
 267              		@ args = 0, pretend = 0, frame = 0
 268              		@ frame_needed = 0, uses_anonymous_args = 0
 269              		.loc 1 465 1 is_stmt 0 view .LVU57
 270 0000 F8B5     		push	{r3, r4, r5, r6, r7, lr}
 271              	.LCFI2:
 272              		.cfi_def_cfa_offset 24
 273              		.cfi_offset 3, -24
 274              		.cfi_offset 4, -20
 275              		.cfi_offset 5, -16
 276              		.cfi_offset 6, -12
 277              		.cfi_offset 7, -8
 278              		.cfi_offset 14, -4
 279 0002 0746     		mov	r7, r0
 280 0004 0E46     		mov	r6, r1
 281 0006 1546     		mov	r5, r2
 466:Middlewares/Third_Party/LwIP/src/apps/mqtt/mqtt.c ****   u16_t n;
 282              		.loc 1 466 3 is_stmt 1 view .LVU58
 467:Middlewares/Third_Party/LwIP/src/apps/mqtt/mqtt.c ****   for (n = 0; n < length; n++) {
 283              		.loc 1 467 3 view .LVU59
 284              	.LVL17:
 285              		.loc 1 467 10 is_stmt 0 view .LVU60
 286 0008 0024     		movs	r4, #0
 287              		.loc 1 467 3 view .LVU61
 288 000a 05E0     		b	.L15
 289              	.LVL18:
ARM GAS  C:\Users\hh\AppData\Local\Temp\cc3qgJrr.s 			page 14


 290              	.L16:
 468:Middlewares/Third_Party/LwIP/src/apps/mqtt/mqtt.c ****     mqtt_ringbuf_put(rb, ((const u8_t *)data)[n]);
 291              		.loc 1 468 5 is_stmt 1 view .LVU62
 292 000c 315D     		ldrb	r1, [r6, r4]	@ zero_extendqisi2
 293 000e 3846     		mov	r0, r7
 294 0010 FFF7FEFF 		bl	mqtt_ringbuf_put
 295              	.LVL19:
 467:Middlewares/Third_Party/LwIP/src/apps/mqtt/mqtt.c ****   for (n = 0; n < length; n++) {
 296              		.loc 1 467 28 discriminator 3 view .LVU63
 297 0014 0134     		adds	r4, r4, #1
 298              	.LVL20:
 467:Middlewares/Third_Party/LwIP/src/apps/mqtt/mqtt.c ****   for (n = 0; n < length; n++) {
 299              		.loc 1 467 28 is_stmt 0 discriminator 3 view .LVU64
 300 0016 A4B2     		uxth	r4, r4
 301              	.LVL21:
 302              	.L15:
 467:Middlewares/Third_Party/LwIP/src/apps/mqtt/mqtt.c ****   for (n = 0; n < length; n++) {
 303              		.loc 1 467 17 is_stmt 1 discriminator 1 view .LVU65
 304 0018 AC42     		cmp	r4, r5
 305 001a F7D3     		bcc	.L16
 469:Middlewares/Third_Party/LwIP/src/apps/mqtt/mqtt.c ****   }
 470:Middlewares/Third_Party/LwIP/src/apps/mqtt/mqtt.c **** }
 306              		.loc 1 470 1 is_stmt 0 view .LVU66
 307 001c F8BD     		pop	{r3, r4, r5, r6, r7, pc}
 308              		.loc 1 470 1 view .LVU67
 309              		.cfi_endproc
 310              	.LFE187:
 312              		.section	.text.mqtt_output_append_string,"ax",%progbits
 313              		.align	1
 314              		.syntax unified
 315              		.thumb
 316              		.thumb_func
 318              	mqtt_output_append_string:
 319              	.LVL22:
 320              	.LFB188:
 471:Middlewares/Third_Party/LwIP/src/apps/mqtt/mqtt.c **** 
 472:Middlewares/Third_Party/LwIP/src/apps/mqtt/mqtt.c **** static void
 473:Middlewares/Third_Party/LwIP/src/apps/mqtt/mqtt.c **** mqtt_output_append_string(struct mqtt_ringbuf_t *rb, const char *str, u16_t length)
 474:Middlewares/Third_Party/LwIP/src/apps/mqtt/mqtt.c **** {
 321              		.loc 1 474 1 is_stmt 1 view -0
 322              		.cfi_startproc
 323              		@ args = 0, pretend = 0, frame = 0
 324              		@ frame_needed = 0, uses_anonymous_args = 0
 325              		.loc 1 474 1 is_stmt 0 view .LVU69
 326 0000 F8B5     		push	{r3, r4, r5, r6, r7, lr}
 327              	.LCFI3:
 328              		.cfi_def_cfa_offset 24
 329              		.cfi_offset 3, -24
 330              		.cfi_offset 4, -20
 331              		.cfi_offset 5, -16
 332              		.cfi_offset 6, -12
 333              		.cfi_offset 7, -8
 334              		.cfi_offset 14, -4
 335 0002 0646     		mov	r6, r0
 336 0004 0F46     		mov	r7, r1
 337 0006 1546     		mov	r5, r2
 475:Middlewares/Third_Party/LwIP/src/apps/mqtt/mqtt.c ****   u16_t n;
ARM GAS  C:\Users\hh\AppData\Local\Temp\cc3qgJrr.s 			page 15


 338              		.loc 1 475 3 is_stmt 1 view .LVU70
 476:Middlewares/Third_Party/LwIP/src/apps/mqtt/mqtt.c ****   mqtt_ringbuf_put(rb, length >> 8);
 339              		.loc 1 476 3 view .LVU71
 340 0008 110A     		lsrs	r1, r2, #8
 341              	.LVL23:
 342              		.loc 1 476 3 is_stmt 0 view .LVU72
 343 000a FFF7FEFF 		bl	mqtt_ringbuf_put
 344              	.LVL24:
 477:Middlewares/Third_Party/LwIP/src/apps/mqtt/mqtt.c ****   mqtt_ringbuf_put(rb, length & 0xff);
 345              		.loc 1 477 3 is_stmt 1 view .LVU73
 346 000e E9B2     		uxtb	r1, r5
 347 0010 3046     		mov	r0, r6
 348 0012 FFF7FEFF 		bl	mqtt_ringbuf_put
 349              	.LVL25:
 478:Middlewares/Third_Party/LwIP/src/apps/mqtt/mqtt.c ****   for (n = 0; n < length; n++) {
 350              		.loc 1 478 3 view .LVU74
 351              		.loc 1 478 10 is_stmt 0 view .LVU75
 352 0016 0024     		movs	r4, #0
 353              		.loc 1 478 3 view .LVU76
 354 0018 05E0     		b	.L19
 355              	.LVL26:
 356              	.L20:
 479:Middlewares/Third_Party/LwIP/src/apps/mqtt/mqtt.c ****     mqtt_ringbuf_put(rb, str[n]);
 357              		.loc 1 479 5 is_stmt 1 view .LVU77
 358 001a 395D     		ldrb	r1, [r7, r4]	@ zero_extendqisi2
 359 001c 3046     		mov	r0, r6
 360 001e FFF7FEFF 		bl	mqtt_ringbuf_put
 361              	.LVL27:
 478:Middlewares/Third_Party/LwIP/src/apps/mqtt/mqtt.c ****   for (n = 0; n < length; n++) {
 362              		.loc 1 478 28 discriminator 3 view .LVU78
 363 0022 0134     		adds	r4, r4, #1
 364              	.LVL28:
 478:Middlewares/Third_Party/LwIP/src/apps/mqtt/mqtt.c ****   for (n = 0; n < length; n++) {
 365              		.loc 1 478 28 is_stmt 0 discriminator 3 view .LVU79
 366 0024 A4B2     		uxth	r4, r4
 367              	.LVL29:
 368              	.L19:
 478:Middlewares/Third_Party/LwIP/src/apps/mqtt/mqtt.c ****   for (n = 0; n < length; n++) {
 369              		.loc 1 478 17 is_stmt 1 discriminator 1 view .LVU80
 370 0026 AC42     		cmp	r4, r5
 371 0028 F7D3     		bcc	.L20
 480:Middlewares/Third_Party/LwIP/src/apps/mqtt/mqtt.c ****   }
 481:Middlewares/Third_Party/LwIP/src/apps/mqtt/mqtt.c **** }
 372              		.loc 1 481 1 is_stmt 0 view .LVU81
 373 002a F8BD     		pop	{r3, r4, r5, r6, r7, pc}
 374              		.loc 1 481 1 view .LVU82
 375              		.cfi_endproc
 376              	.LFE188:
 378              		.section	.text.mqtt_output_append_fixed_header,"ax",%progbits
 379              		.align	1
 380              		.syntax unified
 381              		.thumb
 382              		.thumb_func
 384              	mqtt_output_append_fixed_header:
 385              	.LVL30:
 386              	.LFB189:
 482:Middlewares/Third_Party/LwIP/src/apps/mqtt/mqtt.c **** 
ARM GAS  C:\Users\hh\AppData\Local\Temp\cc3qgJrr.s 			page 16


 483:Middlewares/Third_Party/LwIP/src/apps/mqtt/mqtt.c **** /**
 484:Middlewares/Third_Party/LwIP/src/apps/mqtt/mqtt.c ****  * Append fixed header
 485:Middlewares/Third_Party/LwIP/src/apps/mqtt/mqtt.c ****  * @param rb Output ring buffer
 486:Middlewares/Third_Party/LwIP/src/apps/mqtt/mqtt.c ****  * @param msg_type see enum mqtt_message_type
 487:Middlewares/Third_Party/LwIP/src/apps/mqtt/mqtt.c ****  * @param fdup MQTT DUP flag
 488:Middlewares/Third_Party/LwIP/src/apps/mqtt/mqtt.c ****  * @param fqos MQTT QoS field
 489:Middlewares/Third_Party/LwIP/src/apps/mqtt/mqtt.c ****  * @param fretain MQTT retain flag
 490:Middlewares/Third_Party/LwIP/src/apps/mqtt/mqtt.c ****  * @param r_length Remaining length after fixed header
 491:Middlewares/Third_Party/LwIP/src/apps/mqtt/mqtt.c ****  */
 492:Middlewares/Third_Party/LwIP/src/apps/mqtt/mqtt.c **** 
 493:Middlewares/Third_Party/LwIP/src/apps/mqtt/mqtt.c **** static void
 494:Middlewares/Third_Party/LwIP/src/apps/mqtt/mqtt.c **** mqtt_output_append_fixed_header(struct mqtt_ringbuf_t *rb, u8_t msg_type, u8_t fdup,
 495:Middlewares/Third_Party/LwIP/src/apps/mqtt/mqtt.c ****                                 u8_t fqos, u8_t fretain, u16_t r_length)
 496:Middlewares/Third_Party/LwIP/src/apps/mqtt/mqtt.c **** {
 387              		.loc 1 496 1 is_stmt 1 view -0
 388              		.cfi_startproc
 389              		@ args = 8, pretend = 0, frame = 0
 390              		@ frame_needed = 0, uses_anonymous_args = 0
 391              		.loc 1 496 1 is_stmt 0 view .LVU84
 392 0000 38B5     		push	{r3, r4, r5, lr}
 393              	.LCFI4:
 394              		.cfi_def_cfa_offset 16
 395              		.cfi_offset 3, -16
 396              		.cfi_offset 4, -12
 397              		.cfi_offset 5, -8
 398              		.cfi_offset 14, -4
 399 0002 0546     		mov	r5, r0
 400 0004 BDF81440 		ldrh	r4, [sp, #20]
 497:Middlewares/Third_Party/LwIP/src/apps/mqtt/mqtt.c ****   /* Start with control byte */
 498:Middlewares/Third_Party/LwIP/src/apps/mqtt/mqtt.c ****   mqtt_output_append_u8(rb, (((msg_type & 0x0f) << 4) | ((fdup & 1) << 3) | ((fqos & 3) << 1) | (fr
 401              		.loc 1 498 3 is_stmt 1 view .LVU85
 402              		.loc 1 498 69 is_stmt 0 view .LVU86
 403 0008 D200     		lsls	r2, r2, #3
 404              	.LVL31:
 405              		.loc 1 498 69 view .LVU87
 406 000a 02F00802 		and	r2, r2, #8
 407              		.loc 1 498 55 view .LVU88
 408 000e 42EA0112 		orr	r2, r2, r1, lsl #4
 409 0012 52B2     		sxtb	r2, r2
 410              		.loc 1 498 89 view .LVU89
 411 0014 5B00     		lsls	r3, r3, #1
 412              	.LVL32:
 413              		.loc 1 498 89 view .LVU90
 414 0016 03F00603 		and	r3, r3, #6
 415              		.loc 1 498 75 view .LVU91
 416 001a 1A43     		orrs	r2, r2, r3
 417              		.loc 1 498 3 view .LVU92
 418 001c 9DF81010 		ldrb	r1, [sp, #16]	@ zero_extendqisi2
 419              	.LVL33:
 420              		.loc 1 498 3 view .LVU93
 421 0020 01F00101 		and	r1, r1, #1
 422 0024 1143     		orrs	r1, r1, r2
 423 0026 C9B2     		uxtb	r1, r1
 424 0028 FFF7FEFF 		bl	mqtt_output_append_u8
 425              	.LVL34:
 426              		.loc 1 498 3 view .LVU94
 427 002c 07E0     		b	.L24
ARM GAS  C:\Users\hh\AppData\Local\Temp\cc3qgJrr.s 			page 17


 428              	.LVL35:
 429              	.L25:
 499:Middlewares/Third_Party/LwIP/src/apps/mqtt/mqtt.c ****   /* Encode remaining length field */
 500:Middlewares/Third_Party/LwIP/src/apps/mqtt/mqtt.c ****   do {
 501:Middlewares/Third_Party/LwIP/src/apps/mqtt/mqtt.c ****     mqtt_output_append_u8(rb, (r_length & 0x7f) | (r_length >= 128 ? 0x80 : 0));
 430              		.loc 1 501 49 discriminator 2 view .LVU95
 431 002e 0023     		movs	r3, #0
 432              	.L23:
 433              		.loc 1 501 49 discriminator 4 view .LVU96
 434 0030 1943     		orrs	r1, r1, r3
 435              		.loc 1 501 5 discriminator 4 view .LVU97
 436 0032 C9B2     		uxtb	r1, r1
 437 0034 2846     		mov	r0, r5
 438 0036 FFF7FEFF 		bl	mqtt_output_append_u8
 439              	.LVL36:
 502:Middlewares/Third_Party/LwIP/src/apps/mqtt/mqtt.c ****     r_length >>= 7;
 440              		.loc 1 502 5 is_stmt 1 view .LVU98
 503:Middlewares/Third_Party/LwIP/src/apps/mqtt/mqtt.c ****   } while (r_length > 0);
 441              		.loc 1 503 21 view .LVU99
 442 003a E409     		lsrs	r4, r4, #7
 443              	.LVL37:
 444              		.loc 1 503 21 is_stmt 0 view .LVU100
 445 003c 06D0     		beq	.L27
 446              	.LVL38:
 447              	.L24:
 500:Middlewares/Third_Party/LwIP/src/apps/mqtt/mqtt.c ****     mqtt_output_append_u8(rb, (r_length & 0x7f) | (r_length >= 128 ? 0x80 : 0));
 448              		.loc 1 500 3 is_stmt 1 view .LVU101
 501:Middlewares/Third_Party/LwIP/src/apps/mqtt/mqtt.c ****     r_length >>= 7;
 449              		.loc 1 501 5 view .LVU102
 501:Middlewares/Third_Party/LwIP/src/apps/mqtt/mqtt.c ****     r_length >>= 7;
 450              		.loc 1 501 41 is_stmt 0 view .LVU103
 451 003e 04F07F01 		and	r1, r4, #127
 501:Middlewares/Third_Party/LwIP/src/apps/mqtt/mqtt.c ****     r_length >>= 7;
 452              		.loc 1 501 49 view .LVU104
 453 0042 7F2C     		cmp	r4, #127
 454 0044 F3D9     		bls	.L25
 501:Middlewares/Third_Party/LwIP/src/apps/mqtt/mqtt.c ****     r_length >>= 7;
 455              		.loc 1 501 49 discriminator 1 view .LVU105
 456 0046 6FF07F03 		mvn	r3, #127
 457 004a F1E7     		b	.L23
 458              	.LVL39:
 459              	.L27:
 504:Middlewares/Third_Party/LwIP/src/apps/mqtt/mqtt.c **** }
 460              		.loc 1 504 1 view .LVU106
 461 004c 38BD     		pop	{r3, r4, r5, pc}
 462              		.loc 1 504 1 view .LVU107
 463              		.cfi_endproc
 464              	.LFE189:
 466              		.section	.text.mqtt_incoming_suback,"ax",%progbits
 467              		.align	1
 468              		.syntax unified
 469              		.thumb
 470              		.thumb_func
 472              	mqtt_incoming_suback:
 473              	.LVL40:
 474              	.LFB194:
 505:Middlewares/Third_Party/LwIP/src/apps/mqtt/mqtt.c **** 
ARM GAS  C:\Users\hh\AppData\Local\Temp\cc3qgJrr.s 			page 18


 506:Middlewares/Third_Party/LwIP/src/apps/mqtt/mqtt.c **** 
 507:Middlewares/Third_Party/LwIP/src/apps/mqtt/mqtt.c **** /**
 508:Middlewares/Third_Party/LwIP/src/apps/mqtt/mqtt.c ****  * Check output buffer space
 509:Middlewares/Third_Party/LwIP/src/apps/mqtt/mqtt.c ****  * @param rb Output ring buffer
 510:Middlewares/Third_Party/LwIP/src/apps/mqtt/mqtt.c ****  * @param r_length Remaining length after fixed header
 511:Middlewares/Third_Party/LwIP/src/apps/mqtt/mqtt.c ****  * @return 1 if message will fit, 0 if not enough buffer space
 512:Middlewares/Third_Party/LwIP/src/apps/mqtt/mqtt.c ****  */
 513:Middlewares/Third_Party/LwIP/src/apps/mqtt/mqtt.c **** static u8_t
 514:Middlewares/Third_Party/LwIP/src/apps/mqtt/mqtt.c **** mqtt_output_check_space(struct mqtt_ringbuf_t *rb, u16_t r_length)
 515:Middlewares/Third_Party/LwIP/src/apps/mqtt/mqtt.c **** {
 516:Middlewares/Third_Party/LwIP/src/apps/mqtt/mqtt.c ****   /* Start with length of type byte + remaining length */
 517:Middlewares/Third_Party/LwIP/src/apps/mqtt/mqtt.c ****   u16_t total_len = 1 + r_length;
 518:Middlewares/Third_Party/LwIP/src/apps/mqtt/mqtt.c **** 
 519:Middlewares/Third_Party/LwIP/src/apps/mqtt/mqtt.c ****   LWIP_ASSERT("mqtt_output_check_space: rb != NULL", rb != NULL);
 520:Middlewares/Third_Party/LwIP/src/apps/mqtt/mqtt.c **** 
 521:Middlewares/Third_Party/LwIP/src/apps/mqtt/mqtt.c ****   /* Calculate number of required bytes to contain the remaining bytes field and add to total*/
 522:Middlewares/Third_Party/LwIP/src/apps/mqtt/mqtt.c ****   do {
 523:Middlewares/Third_Party/LwIP/src/apps/mqtt/mqtt.c ****     total_len++;
 524:Middlewares/Third_Party/LwIP/src/apps/mqtt/mqtt.c ****     r_length >>= 7;
 525:Middlewares/Third_Party/LwIP/src/apps/mqtt/mqtt.c ****   } while (r_length > 0);
 526:Middlewares/Third_Party/LwIP/src/apps/mqtt/mqtt.c **** 
 527:Middlewares/Third_Party/LwIP/src/apps/mqtt/mqtt.c ****   return (total_len <= mqtt_ringbuf_free(rb));
 528:Middlewares/Third_Party/LwIP/src/apps/mqtt/mqtt.c **** }
 529:Middlewares/Third_Party/LwIP/src/apps/mqtt/mqtt.c **** 
 530:Middlewares/Third_Party/LwIP/src/apps/mqtt/mqtt.c **** 
 531:Middlewares/Third_Party/LwIP/src/apps/mqtt/mqtt.c **** /**
 532:Middlewares/Third_Party/LwIP/src/apps/mqtt/mqtt.c ****  * Close connection to server
 533:Middlewares/Third_Party/LwIP/src/apps/mqtt/mqtt.c ****  * @param client MQTT client
 534:Middlewares/Third_Party/LwIP/src/apps/mqtt/mqtt.c ****  * @param reason Reason for disconnection
 535:Middlewares/Third_Party/LwIP/src/apps/mqtt/mqtt.c ****  */
 536:Middlewares/Third_Party/LwIP/src/apps/mqtt/mqtt.c **** static void
 537:Middlewares/Third_Party/LwIP/src/apps/mqtt/mqtt.c **** mqtt_close(mqtt_client_t *client, mqtt_connection_status_t reason)
 538:Middlewares/Third_Party/LwIP/src/apps/mqtt/mqtt.c **** {
 539:Middlewares/Third_Party/LwIP/src/apps/mqtt/mqtt.c ****   LWIP_ASSERT("mqtt_close: client != NULL", client != NULL);
 540:Middlewares/Third_Party/LwIP/src/apps/mqtt/mqtt.c **** 
 541:Middlewares/Third_Party/LwIP/src/apps/mqtt/mqtt.c ****   /* Bring down TCP connection if not already done */
 542:Middlewares/Third_Party/LwIP/src/apps/mqtt/mqtt.c ****   if (client->conn != NULL) {
 543:Middlewares/Third_Party/LwIP/src/apps/mqtt/mqtt.c ****     err_t res;
 544:Middlewares/Third_Party/LwIP/src/apps/mqtt/mqtt.c ****     altcp_recv(client->conn, NULL);
 545:Middlewares/Third_Party/LwIP/src/apps/mqtt/mqtt.c ****     altcp_err(client->conn,  NULL);
 546:Middlewares/Third_Party/LwIP/src/apps/mqtt/mqtt.c ****     altcp_sent(client->conn, NULL);
 547:Middlewares/Third_Party/LwIP/src/apps/mqtt/mqtt.c ****     res = altcp_close(client->conn);
 548:Middlewares/Third_Party/LwIP/src/apps/mqtt/mqtt.c ****     if (res != ERR_OK) {
 549:Middlewares/Third_Party/LwIP/src/apps/mqtt/mqtt.c ****       altcp_abort(client->conn);
 550:Middlewares/Third_Party/LwIP/src/apps/mqtt/mqtt.c ****       LWIP_DEBUGF(MQTT_DEBUG_TRACE, ("mqtt_close: Close err=%s\n", lwip_strerr(res)));
 551:Middlewares/Third_Party/LwIP/src/apps/mqtt/mqtt.c ****     }
 552:Middlewares/Third_Party/LwIP/src/apps/mqtt/mqtt.c ****     client->conn = NULL;
 553:Middlewares/Third_Party/LwIP/src/apps/mqtt/mqtt.c ****   }
 554:Middlewares/Third_Party/LwIP/src/apps/mqtt/mqtt.c **** 
 555:Middlewares/Third_Party/LwIP/src/apps/mqtt/mqtt.c ****   /* Remove all pending requests */
 556:Middlewares/Third_Party/LwIP/src/apps/mqtt/mqtt.c ****   mqtt_clear_requests(&client->pend_req_queue);
 557:Middlewares/Third_Party/LwIP/src/apps/mqtt/mqtt.c ****   /* Stop cyclic timer */
 558:Middlewares/Third_Party/LwIP/src/apps/mqtt/mqtt.c ****   sys_untimeout(mqtt_cyclic_timer, client);
 559:Middlewares/Third_Party/LwIP/src/apps/mqtt/mqtt.c **** 
 560:Middlewares/Third_Party/LwIP/src/apps/mqtt/mqtt.c ****   /* Notify upper layer of disconnection if changed state */
 561:Middlewares/Third_Party/LwIP/src/apps/mqtt/mqtt.c ****   if (client->conn_state != TCP_DISCONNECTED) {
 562:Middlewares/Third_Party/LwIP/src/apps/mqtt/mqtt.c **** 
ARM GAS  C:\Users\hh\AppData\Local\Temp\cc3qgJrr.s 			page 19


 563:Middlewares/Third_Party/LwIP/src/apps/mqtt/mqtt.c ****     client->conn_state = TCP_DISCONNECTED;
 564:Middlewares/Third_Party/LwIP/src/apps/mqtt/mqtt.c ****     if (client->connect_cb != NULL) {
 565:Middlewares/Third_Party/LwIP/src/apps/mqtt/mqtt.c ****       client->connect_cb(client, client->connect_arg, reason);
 566:Middlewares/Third_Party/LwIP/src/apps/mqtt/mqtt.c ****     }
 567:Middlewares/Third_Party/LwIP/src/apps/mqtt/mqtt.c ****   }
 568:Middlewares/Third_Party/LwIP/src/apps/mqtt/mqtt.c **** }
 569:Middlewares/Third_Party/LwIP/src/apps/mqtt/mqtt.c **** 
 570:Middlewares/Third_Party/LwIP/src/apps/mqtt/mqtt.c **** 
 571:Middlewares/Third_Party/LwIP/src/apps/mqtt/mqtt.c **** /**
 572:Middlewares/Third_Party/LwIP/src/apps/mqtt/mqtt.c ****  * Interval timer, called every MQTT_CYCLIC_TIMER_INTERVAL seconds in MQTT_CONNECTING and MQTT_CONN
 573:Middlewares/Third_Party/LwIP/src/apps/mqtt/mqtt.c ****  * @param arg MQTT client
 574:Middlewares/Third_Party/LwIP/src/apps/mqtt/mqtt.c ****  */
 575:Middlewares/Third_Party/LwIP/src/apps/mqtt/mqtt.c **** static void
 576:Middlewares/Third_Party/LwIP/src/apps/mqtt/mqtt.c **** mqtt_cyclic_timer(void *arg)
 577:Middlewares/Third_Party/LwIP/src/apps/mqtt/mqtt.c **** {
 578:Middlewares/Third_Party/LwIP/src/apps/mqtt/mqtt.c ****   u8_t restart_timer = 1;
 579:Middlewares/Third_Party/LwIP/src/apps/mqtt/mqtt.c ****   mqtt_client_t *client = (mqtt_client_t *)arg;
 580:Middlewares/Third_Party/LwIP/src/apps/mqtt/mqtt.c ****   LWIP_ASSERT("mqtt_cyclic_timer: client != NULL", client != NULL);
 581:Middlewares/Third_Party/LwIP/src/apps/mqtt/mqtt.c **** 
 582:Middlewares/Third_Party/LwIP/src/apps/mqtt/mqtt.c ****   if (client->conn_state == MQTT_CONNECTING) {
 583:Middlewares/Third_Party/LwIP/src/apps/mqtt/mqtt.c ****     client->cyclic_tick++;
 584:Middlewares/Third_Party/LwIP/src/apps/mqtt/mqtt.c ****     if ((client->cyclic_tick * MQTT_CYCLIC_TIMER_INTERVAL) >= MQTT_CONNECT_TIMOUT) {
 585:Middlewares/Third_Party/LwIP/src/apps/mqtt/mqtt.c ****       LWIP_DEBUGF(MQTT_DEBUG_TRACE, ("mqtt_cyclic_timer: CONNECT attempt to server timed out\n"));
 586:Middlewares/Third_Party/LwIP/src/apps/mqtt/mqtt.c ****       /* Disconnect TCP */
 587:Middlewares/Third_Party/LwIP/src/apps/mqtt/mqtt.c ****       mqtt_close(client, MQTT_CONNECT_TIMEOUT);
 588:Middlewares/Third_Party/LwIP/src/apps/mqtt/mqtt.c ****       restart_timer = 0;
 589:Middlewares/Third_Party/LwIP/src/apps/mqtt/mqtt.c ****     }
 590:Middlewares/Third_Party/LwIP/src/apps/mqtt/mqtt.c ****   } else if (client->conn_state == MQTT_CONNECTED) {
 591:Middlewares/Third_Party/LwIP/src/apps/mqtt/mqtt.c ****     /* Handle timeout for pending requests */
 592:Middlewares/Third_Party/LwIP/src/apps/mqtt/mqtt.c ****     mqtt_request_time_elapsed(&client->pend_req_queue, MQTT_CYCLIC_TIMER_INTERVAL);
 593:Middlewares/Third_Party/LwIP/src/apps/mqtt/mqtt.c **** 
 594:Middlewares/Third_Party/LwIP/src/apps/mqtt/mqtt.c ****     /* keep_alive > 0 means keep alive functionality shall be used */
 595:Middlewares/Third_Party/LwIP/src/apps/mqtt/mqtt.c ****     if (client->keep_alive > 0) {
 596:Middlewares/Third_Party/LwIP/src/apps/mqtt/mqtt.c **** 
 597:Middlewares/Third_Party/LwIP/src/apps/mqtt/mqtt.c ****       client->server_watchdog++;
 598:Middlewares/Third_Party/LwIP/src/apps/mqtt/mqtt.c ****       /* If reception from server has been idle for 1.5*keep_alive time, server is considered unres
 599:Middlewares/Third_Party/LwIP/src/apps/mqtt/mqtt.c ****       if ((client->server_watchdog * MQTT_CYCLIC_TIMER_INTERVAL) > (client->keep_alive + client->ke
 600:Middlewares/Third_Party/LwIP/src/apps/mqtt/mqtt.c ****         LWIP_DEBUGF(MQTT_DEBUG_WARN, ("mqtt_cyclic_timer: Server incoming keep-alive timeout\n"));
 601:Middlewares/Third_Party/LwIP/src/apps/mqtt/mqtt.c ****         mqtt_close(client, MQTT_CONNECT_TIMEOUT);
 602:Middlewares/Third_Party/LwIP/src/apps/mqtt/mqtt.c ****         restart_timer = 0;
 603:Middlewares/Third_Party/LwIP/src/apps/mqtt/mqtt.c ****       }
 604:Middlewares/Third_Party/LwIP/src/apps/mqtt/mqtt.c **** 
 605:Middlewares/Third_Party/LwIP/src/apps/mqtt/mqtt.c ****       /* If time for a keep alive message to be sent, transmission has been idle for keep_alive tim
 606:Middlewares/Third_Party/LwIP/src/apps/mqtt/mqtt.c ****       client->cyclic_tick++;
 607:Middlewares/Third_Party/LwIP/src/apps/mqtt/mqtt.c ****       if ((client->cyclic_tick * MQTT_CYCLIC_TIMER_INTERVAL) >= client->keep_alive) {
 608:Middlewares/Third_Party/LwIP/src/apps/mqtt/mqtt.c ****         LWIP_DEBUGF(MQTT_DEBUG_TRACE, ("mqtt_cyclic_timer: Sending keep-alive message to server\n")
 609:Middlewares/Third_Party/LwIP/src/apps/mqtt/mqtt.c ****         if (mqtt_output_check_space(&client->output, 0) != 0) {
 610:Middlewares/Third_Party/LwIP/src/apps/mqtt/mqtt.c ****           mqtt_output_append_fixed_header(&client->output, MQTT_MSG_TYPE_PINGREQ, 0, 0, 0, 0);
 611:Middlewares/Third_Party/LwIP/src/apps/mqtt/mqtt.c ****           client->cyclic_tick = 0;
 612:Middlewares/Third_Party/LwIP/src/apps/mqtt/mqtt.c ****         }
 613:Middlewares/Third_Party/LwIP/src/apps/mqtt/mqtt.c ****       }
 614:Middlewares/Third_Party/LwIP/src/apps/mqtt/mqtt.c ****     }
 615:Middlewares/Third_Party/LwIP/src/apps/mqtt/mqtt.c ****   } else {
 616:Middlewares/Third_Party/LwIP/src/apps/mqtt/mqtt.c ****     LWIP_DEBUGF(MQTT_DEBUG_WARN, ("mqtt_cyclic_timer: Timer should not be running in state %d\n", c
 617:Middlewares/Third_Party/LwIP/src/apps/mqtt/mqtt.c ****     restart_timer = 0;
 618:Middlewares/Third_Party/LwIP/src/apps/mqtt/mqtt.c ****   }
 619:Middlewares/Third_Party/LwIP/src/apps/mqtt/mqtt.c ****   if (restart_timer) {
ARM GAS  C:\Users\hh\AppData\Local\Temp\cc3qgJrr.s 			page 20


 620:Middlewares/Third_Party/LwIP/src/apps/mqtt/mqtt.c ****     sys_timeout(MQTT_CYCLIC_TIMER_INTERVAL * 1000, mqtt_cyclic_timer, arg);
 621:Middlewares/Third_Party/LwIP/src/apps/mqtt/mqtt.c ****   }
 622:Middlewares/Third_Party/LwIP/src/apps/mqtt/mqtt.c **** }
 623:Middlewares/Third_Party/LwIP/src/apps/mqtt/mqtt.c **** 
 624:Middlewares/Third_Party/LwIP/src/apps/mqtt/mqtt.c **** 
 625:Middlewares/Third_Party/LwIP/src/apps/mqtt/mqtt.c **** /**
 626:Middlewares/Third_Party/LwIP/src/apps/mqtt/mqtt.c ****  * Send PUBACK, PUBREC or PUBREL response message
 627:Middlewares/Third_Party/LwIP/src/apps/mqtt/mqtt.c ****  * @param client MQTT client
 628:Middlewares/Third_Party/LwIP/src/apps/mqtt/mqtt.c ****  * @param msg PUBACK, PUBREC or PUBREL
 629:Middlewares/Third_Party/LwIP/src/apps/mqtt/mqtt.c ****  * @param pkt_id Packet identifier
 630:Middlewares/Third_Party/LwIP/src/apps/mqtt/mqtt.c ****  * @param qos QoS value
 631:Middlewares/Third_Party/LwIP/src/apps/mqtt/mqtt.c ****  * @return ERR_OK if successful, ERR_MEM if out of memory
 632:Middlewares/Third_Party/LwIP/src/apps/mqtt/mqtt.c ****  */
 633:Middlewares/Third_Party/LwIP/src/apps/mqtt/mqtt.c **** static err_t
 634:Middlewares/Third_Party/LwIP/src/apps/mqtt/mqtt.c **** pub_ack_rec_rel_response(mqtt_client_t *client, u8_t msg, u16_t pkt_id, u8_t qos)
 635:Middlewares/Third_Party/LwIP/src/apps/mqtt/mqtt.c **** {
 636:Middlewares/Third_Party/LwIP/src/apps/mqtt/mqtt.c ****   err_t err = ERR_OK;
 637:Middlewares/Third_Party/LwIP/src/apps/mqtt/mqtt.c ****   if (mqtt_output_check_space(&client->output, 2)) {
 638:Middlewares/Third_Party/LwIP/src/apps/mqtt/mqtt.c ****     mqtt_output_append_fixed_header(&client->output, msg, 0, qos, 0, 2);
 639:Middlewares/Third_Party/LwIP/src/apps/mqtt/mqtt.c ****     mqtt_output_append_u16(&client->output, pkt_id);
 640:Middlewares/Third_Party/LwIP/src/apps/mqtt/mqtt.c ****     mqtt_output_send(&client->output, client->conn);
 641:Middlewares/Third_Party/LwIP/src/apps/mqtt/mqtt.c ****   } else {
 642:Middlewares/Third_Party/LwIP/src/apps/mqtt/mqtt.c ****     LWIP_DEBUGF(MQTT_DEBUG_TRACE, ("pub_ack_rec_rel_response: OOM creating response: %s with pkt_id
 643:Middlewares/Third_Party/LwIP/src/apps/mqtt/mqtt.c ****                                    mqtt_msg_type_to_str(msg), pkt_id));
 644:Middlewares/Third_Party/LwIP/src/apps/mqtt/mqtt.c ****     err = ERR_MEM;
 645:Middlewares/Third_Party/LwIP/src/apps/mqtt/mqtt.c ****   }
 646:Middlewares/Third_Party/LwIP/src/apps/mqtt/mqtt.c ****   return err;
 647:Middlewares/Third_Party/LwIP/src/apps/mqtt/mqtt.c **** }
 648:Middlewares/Third_Party/LwIP/src/apps/mqtt/mqtt.c **** 
 649:Middlewares/Third_Party/LwIP/src/apps/mqtt/mqtt.c **** /**
 650:Middlewares/Third_Party/LwIP/src/apps/mqtt/mqtt.c ****  * Subscribe response from server
 651:Middlewares/Third_Party/LwIP/src/apps/mqtt/mqtt.c ****  * @param r Matching request
 652:Middlewares/Third_Party/LwIP/src/apps/mqtt/mqtt.c ****  * @param result Result code from server
 653:Middlewares/Third_Party/LwIP/src/apps/mqtt/mqtt.c ****  */
 654:Middlewares/Third_Party/LwIP/src/apps/mqtt/mqtt.c **** static void
 655:Middlewares/Third_Party/LwIP/src/apps/mqtt/mqtt.c **** mqtt_incoming_suback(struct mqtt_request_t *r, u8_t result)
 656:Middlewares/Third_Party/LwIP/src/apps/mqtt/mqtt.c **** {
 475              		.loc 1 656 1 is_stmt 1 view -0
 476              		.cfi_startproc
 477              		@ args = 0, pretend = 0, frame = 0
 478              		@ frame_needed = 0, uses_anonymous_args = 0
 479              		.loc 1 656 1 is_stmt 0 view .LVU109
 480 0000 08B5     		push	{r3, lr}
 481              	.LCFI5:
 482              		.cfi_def_cfa_offset 8
 483              		.cfi_offset 3, -8
 484              		.cfi_offset 14, -4
 657:Middlewares/Third_Party/LwIP/src/apps/mqtt/mqtt.c ****   if (r->cb != NULL) {
 485              		.loc 1 657 3 is_stmt 1 view .LVU110
 486              		.loc 1 657 8 is_stmt 0 view .LVU111
 487 0002 4368     		ldr	r3, [r0, #4]
 488              		.loc 1 657 6 view .LVU112
 489 0004 23B1     		cbz	r3, .L28
 658:Middlewares/Third_Party/LwIP/src/apps/mqtt/mqtt.c ****     r->cb(r->arg, result < 3 ? ERR_OK : ERR_ABRT);
 490              		.loc 1 658 5 is_stmt 1 view .LVU113
 491 0006 8068     		ldr	r0, [r0, #8]
 492              	.LVL41:
ARM GAS  C:\Users\hh\AppData\Local\Temp\cc3qgJrr.s 			page 21


 493              		.loc 1 658 5 is_stmt 0 view .LVU114
 494 0008 0229     		cmp	r1, #2
 495 000a 02D8     		bhi	.L31
 496              		.loc 1 658 5 discriminator 1 view .LVU115
 497 000c 0021     		movs	r1, #0
 498              	.LVL42:
 499              	.L30:
 500              		.loc 1 658 5 discriminator 4 view .LVU116
 501 000e 9847     		blx	r3
 502              	.LVL43:
 503              	.L28:
 659:Middlewares/Third_Party/LwIP/src/apps/mqtt/mqtt.c ****   }
 660:Middlewares/Third_Party/LwIP/src/apps/mqtt/mqtt.c **** }
 504              		.loc 1 660 1 view .LVU117
 505 0010 08BD     		pop	{r3, pc}
 506              	.LVL44:
 507              	.L31:
 658:Middlewares/Third_Party/LwIP/src/apps/mqtt/mqtt.c ****     r->cb(r->arg, result < 3 ? ERR_OK : ERR_ABRT);
 508              		.loc 1 658 5 discriminator 2 view .LVU118
 509 0012 6FF00C01 		mvn	r1, #12
 510              	.LVL45:
 658:Middlewares/Third_Party/LwIP/src/apps/mqtt/mqtt.c ****     r->cb(r->arg, result < 3 ? ERR_OK : ERR_ABRT);
 511              		.loc 1 658 5 discriminator 2 view .LVU119
 512 0016 FAE7     		b	.L30
 513              		.cfi_endproc
 514              	.LFE194:
 516              		.section	.rodata.mqtt_create_request.str1.4,"aMS",%progbits,1
 517              		.align	2
 518              	.LC0:
 519 0000 4D696464 		.ascii	"Middlewares/Third_Party/LwIP/src/apps/mqtt/mqtt.c\000"
 519      6C657761 
 519      7265732F 
 519      54686972 
 519      645F5061 
 520 0032 0000     		.align	2
 521              	.LC1:
 522 0034 6D717474 		.ascii	"mqtt_create_request: r_objs != NULL\000"
 522      5F637265 
 522      6174655F 
 522      72657175 
 522      6573743A 
 523              		.align	2
 524              	.LC2:
 525 0058 41737365 		.ascii	"Assertion \"%s\" failed at line %d in %s\012\000"
 525      7274696F 
 525      6E202225 
 525      73222066 
 525      61696C65 
 526              		.section	.text.mqtt_create_request,"ax",%progbits
 527              		.align	1
 528              		.syntax unified
 529              		.thumb
 530              		.thumb_func
 532              	mqtt_create_request:
 533              	.LVL46:
 534              	.LFB178:
 288:Middlewares/Third_Party/LwIP/src/apps/mqtt/mqtt.c ****   struct mqtt_request_t *r = NULL;
ARM GAS  C:\Users\hh\AppData\Local\Temp\cc3qgJrr.s 			page 22


 535              		.loc 1 288 1 is_stmt 1 view -0
 536              		.cfi_startproc
 537              		@ args = 4, pretend = 0, frame = 0
 538              		@ frame_needed = 0, uses_anonymous_args = 0
 288:Middlewares/Third_Party/LwIP/src/apps/mqtt/mqtt.c ****   struct mqtt_request_t *r = NULL;
 539              		.loc 1 288 1 is_stmt 0 view .LVU121
 540 0000 F8B5     		push	{r3, r4, r5, r6, r7, lr}
 541              	.LCFI6:
 542              		.cfi_def_cfa_offset 24
 543              		.cfi_offset 3, -24
 544              		.cfi_offset 4, -20
 545              		.cfi_offset 5, -16
 546              		.cfi_offset 6, -12
 547              		.cfi_offset 7, -8
 548              		.cfi_offset 14, -4
 549 0002 0D46     		mov	r5, r1
 550 0004 1646     		mov	r6, r2
 551 0006 1F46     		mov	r7, r3
 289:Middlewares/Third_Party/LwIP/src/apps/mqtt/mqtt.c ****   u8_t n;
 552              		.loc 1 289 3 is_stmt 1 view .LVU122
 553              	.LVL47:
 290:Middlewares/Third_Party/LwIP/src/apps/mqtt/mqtt.c ****   LWIP_ASSERT("mqtt_create_request: r_objs != NULL", r_objs != NULL);
 554              		.loc 1 290 3 view .LVU123
 291:Middlewares/Third_Party/LwIP/src/apps/mqtt/mqtt.c ****   for (n = 0; n < r_objs_len; n++) {
 555              		.loc 1 291 3 view .LVU124
 291:Middlewares/Third_Party/LwIP/src/apps/mqtt/mqtt.c ****   for (n = 0; n < r_objs_len; n++) {
 556              		.loc 1 291 3 view .LVU125
 557 0008 0446     		mov	r4, r0
 558 000a 10B1     		cbz	r0, .L40
 559              	.LVL48:
 560              	.L34:
 291:Middlewares/Third_Party/LwIP/src/apps/mqtt/mqtt.c ****   for (n = 0; n < r_objs_len; n++) {
 561              		.loc 1 291 3 view .LVU126
 291:Middlewares/Third_Party/LwIP/src/apps/mqtt/mqtt.c ****   for (n = 0; n < r_objs_len; n++) {
 562              		.loc 1 291 3 view .LVU127
 292:Middlewares/Third_Party/LwIP/src/apps/mqtt/mqtt.c ****     /* Item point to itself if not in use */
 563              		.loc 1 292 3 view .LVU128
 292:Middlewares/Third_Party/LwIP/src/apps/mqtt/mqtt.c ****     /* Item point to itself if not in use */
 564              		.loc 1 292 10 is_stmt 0 view .LVU129
 565 000c 4FF0000C 		mov	ip, #0
 292:Middlewares/Third_Party/LwIP/src/apps/mqtt/mqtt.c ****     /* Item point to itself if not in use */
 566              		.loc 1 292 3 view .LVU130
 567 0010 0BE0     		b	.L35
 568              	.LVL49:
 569              	.L40:
 291:Middlewares/Third_Party/LwIP/src/apps/mqtt/mqtt.c ****   for (n = 0; n < r_objs_len; n++) {
 570              		.loc 1 291 3 is_stmt 1 discriminator 1 view .LVU131
 291:Middlewares/Third_Party/LwIP/src/apps/mqtt/mqtt.c ****   for (n = 0; n < r_objs_len; n++) {
 571              		.loc 1 291 3 discriminator 1 view .LVU132
 572 0012 104B     		ldr	r3, .L42
 573              	.LVL50:
 291:Middlewares/Third_Party/LwIP/src/apps/mqtt/mqtt.c ****   for (n = 0; n < r_objs_len; n++) {
 574              		.loc 1 291 3 is_stmt 0 discriminator 1 view .LVU133
 575 0014 40F22312 		movw	r2, #291
 576              	.LVL51:
 291:Middlewares/Third_Party/LwIP/src/apps/mqtt/mqtt.c ****   for (n = 0; n < r_objs_len; n++) {
 577              		.loc 1 291 3 discriminator 1 view .LVU134
ARM GAS  C:\Users\hh\AppData\Local\Temp\cc3qgJrr.s 			page 23


 578 0018 0F49     		ldr	r1, .L42+4
 579              	.LVL52:
 291:Middlewares/Third_Party/LwIP/src/apps/mqtt/mqtt.c ****   for (n = 0; n < r_objs_len; n++) {
 580              		.loc 1 291 3 discriminator 1 view .LVU135
 581 001a 1048     		ldr	r0, .L42+8
 582              	.LVL53:
 291:Middlewares/Third_Party/LwIP/src/apps/mqtt/mqtt.c ****   for (n = 0; n < r_objs_len; n++) {
 583              		.loc 1 291 3 discriminator 1 view .LVU136
 584 001c FFF7FEFF 		bl	printf
 585              	.LVL54:
 586 0020 F4E7     		b	.L34
 587              	.LVL55:
 588              	.L36:
 292:Middlewares/Third_Party/LwIP/src/apps/mqtt/mqtt.c ****     /* Item point to itself if not in use */
 589              		.loc 1 292 32 is_stmt 1 discriminator 2 view .LVU137
 590 0022 0CF1010C 		add	ip, ip, #1
 591              	.LVL56:
 292:Middlewares/Third_Party/LwIP/src/apps/mqtt/mqtt.c ****     /* Item point to itself if not in use */
 592              		.loc 1 292 32 is_stmt 0 discriminator 2 view .LVU138
 593 0026 5FFA8CFC 		uxtb	ip, ip
 594              	.LVL57:
 595              	.L35:
 292:Middlewares/Third_Party/LwIP/src/apps/mqtt/mqtt.c ****     /* Item point to itself if not in use */
 596              		.loc 1 292 17 is_stmt 1 discriminator 1 view .LVU139
 597 002a AC45     		cmp	ip, r5
 598 002c 0FD2     		bcs	.L41
 294:Middlewares/Third_Party/LwIP/src/apps/mqtt/mqtt.c ****       r = &r_objs[n];
 599              		.loc 1 294 5 view .LVU140
 294:Middlewares/Third_Party/LwIP/src/apps/mqtt/mqtt.c ****       r = &r_objs[n];
 600              		.loc 1 294 15 is_stmt 0 view .LVU141
 601 002e 4FEA0C1E 		lsl	lr, ip, #4
 602 0032 04EB0C10 		add	r0, r4, ip, lsl #4
 294:Middlewares/Third_Party/LwIP/src/apps/mqtt/mqtt.c ****       r = &r_objs[n];
 603              		.loc 1 294 18 view .LVU142
 604 0036 54F80E30 		ldr	r3, [r4, lr]
 294:Middlewares/Third_Party/LwIP/src/apps/mqtt/mqtt.c ****       r = &r_objs[n];
 605              		.loc 1 294 8 view .LVU143
 606 003a 9842     		cmp	r0, r3
 607 003c F1D1     		bne	.L36
 295:Middlewares/Third_Party/LwIP/src/apps/mqtt/mqtt.c ****       r->next = NULL;
 608              		.loc 1 295 7 is_stmt 1 view .LVU144
 609              	.LVL58:
 296:Middlewares/Third_Party/LwIP/src/apps/mqtt/mqtt.c ****       r->cb = cb;
 610              		.loc 1 296 7 view .LVU145
 296:Middlewares/Third_Party/LwIP/src/apps/mqtt/mqtt.c ****       r->cb = cb;
 611              		.loc 1 296 15 is_stmt 0 view .LVU146
 612 003e 0023     		movs	r3, #0
 613 0040 44F80E30 		str	r3, [r4, lr]
 297:Middlewares/Third_Party/LwIP/src/apps/mqtt/mqtt.c ****       r->arg = arg;
 614              		.loc 1 297 7 is_stmt 1 view .LVU147
 297:Middlewares/Third_Party/LwIP/src/apps/mqtt/mqtt.c ****       r->arg = arg;
 615              		.loc 1 297 13 is_stmt 0 view .LVU148
 616 0044 4760     		str	r7, [r0, #4]
 298:Middlewares/Third_Party/LwIP/src/apps/mqtt/mqtt.c ****       r->pkt_id = pkt_id;
 617              		.loc 1 298 7 is_stmt 1 view .LVU149
 298:Middlewares/Third_Party/LwIP/src/apps/mqtt/mqtt.c ****       r->pkt_id = pkt_id;
 618              		.loc 1 298 14 is_stmt 0 view .LVU150
ARM GAS  C:\Users\hh\AppData\Local\Temp\cc3qgJrr.s 			page 24


 619 0046 069B     		ldr	r3, [sp, #24]
 620 0048 8360     		str	r3, [r0, #8]
 299:Middlewares/Third_Party/LwIP/src/apps/mqtt/mqtt.c ****       break;
 621              		.loc 1 299 7 is_stmt 1 view .LVU151
 299:Middlewares/Third_Party/LwIP/src/apps/mqtt/mqtt.c ****       break;
 622              		.loc 1 299 17 is_stmt 0 view .LVU152
 623 004a 8681     		strh	r6, [r0, #12]	@ movhi
 300:Middlewares/Third_Party/LwIP/src/apps/mqtt/mqtt.c ****     }
 624              		.loc 1 300 7 is_stmt 1 view .LVU153
 625 004c 00E0     		b	.L33
 626              	.LVL59:
 627              	.L41:
 289:Middlewares/Third_Party/LwIP/src/apps/mqtt/mqtt.c ****   u8_t n;
 628              		.loc 1 289 26 is_stmt 0 view .LVU154
 629 004e 0020     		movs	r0, #0
 303:Middlewares/Third_Party/LwIP/src/apps/mqtt/mqtt.c **** }
 630              		.loc 1 303 3 is_stmt 1 view .LVU155
 631              	.LVL60:
 632              	.L33:
 304:Middlewares/Third_Party/LwIP/src/apps/mqtt/mqtt.c **** 
 633              		.loc 1 304 1 is_stmt 0 view .LVU156
 634 0050 F8BD     		pop	{r3, r4, r5, r6, r7, pc}
 635              	.LVL61:
 636              	.L43:
 304:Middlewares/Third_Party/LwIP/src/apps/mqtt/mqtt.c **** 
 637              		.loc 1 304 1 view .LVU157
 638 0052 00BF     		.align	2
 639              	.L42:
 640 0054 00000000 		.word	.LC0
 641 0058 34000000 		.word	.LC1
 642 005c 58000000 		.word	.LC2
 643              		.cfi_endproc
 644              	.LFE178:
 646              		.section	.rodata.mqtt_output_check_space.str1.4,"aMS",%progbits,1
 647              		.align	2
 648              	.LC3:
 649 0000 6D717474 		.ascii	"mqtt_output_check_space: rb != NULL\000"
 649      5F6F7574 
 649      7075745F 
 649      63686563 
 649      6B5F7370 
 650              		.section	.text.mqtt_output_check_space,"ax",%progbits
 651              		.align	1
 652              		.syntax unified
 653              		.thumb
 654              		.thumb_func
 656              	mqtt_output_check_space:
 657              	.LVL62:
 658              	.LFB190:
 515:Middlewares/Third_Party/LwIP/src/apps/mqtt/mqtt.c ****   /* Start with length of type byte + remaining length */
 659              		.loc 1 515 1 is_stmt 1 view -0
 660              		.cfi_startproc
 661              		@ args = 0, pretend = 0, frame = 0
 662              		@ frame_needed = 0, uses_anonymous_args = 0
 515:Middlewares/Third_Party/LwIP/src/apps/mqtt/mqtt.c ****   /* Start with length of type byte + remaining length */
 663              		.loc 1 515 1 is_stmt 0 view .LVU159
 664 0000 70B5     		push	{r4, r5, r6, lr}
ARM GAS  C:\Users\hh\AppData\Local\Temp\cc3qgJrr.s 			page 25


 665              	.LCFI7:
 666              		.cfi_def_cfa_offset 16
 667              		.cfi_offset 4, -16
 668              		.cfi_offset 5, -12
 669              		.cfi_offset 6, -8
 670              		.cfi_offset 14, -4
 671 0002 0D46     		mov	r5, r1
 517:Middlewares/Third_Party/LwIP/src/apps/mqtt/mqtt.c **** 
 672              		.loc 1 517 3 is_stmt 1 view .LVU160
 517:Middlewares/Third_Party/LwIP/src/apps/mqtt/mqtt.c **** 
 673              		.loc 1 517 9 is_stmt 0 view .LVU161
 674 0004 4C1C     		adds	r4, r1, #1
 675 0006 A4B2     		uxth	r4, r4
 676              	.LVL63:
 519:Middlewares/Third_Party/LwIP/src/apps/mqtt/mqtt.c **** 
 677              		.loc 1 519 3 is_stmt 1 view .LVU162
 519:Middlewares/Third_Party/LwIP/src/apps/mqtt/mqtt.c **** 
 678              		.loc 1 519 3 view .LVU163
 679 0008 0646     		mov	r6, r0
 680 000a 68B1     		cbz	r0, .L48
 681              	.LVL64:
 682              	.L46:
 519:Middlewares/Third_Party/LwIP/src/apps/mqtt/mqtt.c **** 
 683              		.loc 1 519 3 view .LVU164
 519:Middlewares/Third_Party/LwIP/src/apps/mqtt/mqtt.c **** 
 684              		.loc 1 519 3 view .LVU165
 522:Middlewares/Third_Party/LwIP/src/apps/mqtt/mqtt.c ****     total_len++;
 685              		.loc 1 522 3 view .LVU166
 523:Middlewares/Third_Party/LwIP/src/apps/mqtt/mqtt.c ****     r_length >>= 7;
 686              		.loc 1 523 5 view .LVU167
 523:Middlewares/Third_Party/LwIP/src/apps/mqtt/mqtt.c ****     r_length >>= 7;
 687              		.loc 1 523 14 is_stmt 0 view .LVU168
 688 000c 0134     		adds	r4, r4, #1
 689              	.LVL65:
 523:Middlewares/Third_Party/LwIP/src/apps/mqtt/mqtt.c ****     r_length >>= 7;
 690              		.loc 1 523 14 view .LVU169
 691 000e A4B2     		uxth	r4, r4
 692              	.LVL66:
 524:Middlewares/Third_Party/LwIP/src/apps/mqtt/mqtt.c ****   } while (r_length > 0);
 693              		.loc 1 524 5 is_stmt 1 view .LVU170
 525:Middlewares/Third_Party/LwIP/src/apps/mqtt/mqtt.c **** 
 694              		.loc 1 525 21 discriminator 1 view .LVU171
 695 0010 ED09     		lsrs	r5, r5, #7
 696              	.LVL67:
 525:Middlewares/Third_Party/LwIP/src/apps/mqtt/mqtt.c **** 
 697              		.loc 1 525 21 is_stmt 0 discriminator 1 view .LVU172
 698 0012 FBD1     		bne	.L46
 527:Middlewares/Third_Party/LwIP/src/apps/mqtt/mqtt.c **** }
 699              		.loc 1 527 3 is_stmt 1 view .LVU173
 527:Middlewares/Third_Party/LwIP/src/apps/mqtt/mqtt.c **** }
 700              		.loc 1 527 24 is_stmt 0 view .LVU174
 701 0014 3046     		mov	r0, r6
 702 0016 FFF7FEFF 		bl	mqtt_ringbuf_len
 703              	.LVL68:
 527:Middlewares/Third_Party/LwIP/src/apps/mqtt/mqtt.c **** }
 704              		.loc 1 527 24 discriminator 1 view .LVU175
 705 001a C0F58070 		rsb	r0, r0, #256
ARM GAS  C:\Users\hh\AppData\Local\Temp\cc3qgJrr.s 			page 26


 528:Middlewares/Third_Party/LwIP/src/apps/mqtt/mqtt.c **** 
 706              		.loc 1 528 1 view .LVU176
 707 001e 8442     		cmp	r4, r0
 708 0020 CCBF     		ite	gt
 709 0022 0020     		movgt	r0, #0
 710 0024 0120     		movle	r0, #1
 711 0026 70BD     		pop	{r4, r5, r6, pc}
 712              	.LVL69:
 713              	.L48:
 519:Middlewares/Third_Party/LwIP/src/apps/mqtt/mqtt.c **** 
 714              		.loc 1 519 3 is_stmt 1 discriminator 1 view .LVU177
 519:Middlewares/Third_Party/LwIP/src/apps/mqtt/mqtt.c **** 
 715              		.loc 1 519 3 discriminator 1 view .LVU178
 716 0028 034B     		ldr	r3, .L49
 717 002a 40F20722 		movw	r2, #519
 718 002e 0349     		ldr	r1, .L49+4
 719              	.LVL70:
 519:Middlewares/Third_Party/LwIP/src/apps/mqtt/mqtt.c **** 
 720              		.loc 1 519 3 is_stmt 0 discriminator 1 view .LVU179
 721 0030 0348     		ldr	r0, .L49+8
 722              	.LVL71:
 519:Middlewares/Third_Party/LwIP/src/apps/mqtt/mqtt.c **** 
 723              		.loc 1 519 3 discriminator 1 view .LVU180
 724 0032 FFF7FEFF 		bl	printf
 725              	.LVL72:
 726 0036 E9E7     		b	.L46
 727              	.L50:
 728              		.align	2
 729              	.L49:
 730 0038 00000000 		.word	.LC0
 731 003c 00000000 		.word	.LC3
 732 0040 58000000 		.word	.LC2
 733              		.cfi_endproc
 734              	.LFE190:
 736              		.section	.rodata.mqtt_append_request.str1.4,"aMS",%progbits,1
 737              		.align	2
 738              	.LC4:
 739 0000 6D717474 		.ascii	"mqtt_append_request: tail != NULL\000"
 739      5F617070 
 739      656E645F 
 739      72657175 
 739      6573743A 
 740 0022 0000     		.align	2
 741              	.LC5:
 742 0024 6D717474 		.ascii	"mqtt_append_request: time_before <= MQTT_REQ_TIMEOU"
 742      5F617070 
 742      656E645F 
 742      72657175 
 742      6573743A 
 743 0057 5400     		.ascii	"T\000"
 744              		.section	.text.mqtt_append_request,"ax",%progbits
 745              		.align	1
 746              		.syntax unified
 747              		.thumb
 748              		.thumb_func
 750              	mqtt_append_request:
 751              	.LVL73:
ARM GAS  C:\Users\hh\AppData\Local\Temp\cc3qgJrr.s 			page 27


 752              	.LFB179:
 314:Middlewares/Third_Party/LwIP/src/apps/mqtt/mqtt.c ****   struct mqtt_request_t *head = NULL;
 753              		.loc 1 314 1 is_stmt 1 view -0
 754              		.cfi_startproc
 755              		@ args = 0, pretend = 0, frame = 0
 756              		@ frame_needed = 0, uses_anonymous_args = 0
 314:Middlewares/Third_Party/LwIP/src/apps/mqtt/mqtt.c ****   struct mqtt_request_t *head = NULL;
 757              		.loc 1 314 1 is_stmt 0 view .LVU182
 758 0000 F8B5     		push	{r3, r4, r5, r6, r7, lr}
 759              	.LCFI8:
 760              		.cfi_def_cfa_offset 24
 761              		.cfi_offset 3, -24
 762              		.cfi_offset 4, -20
 763              		.cfi_offset 5, -16
 764              		.cfi_offset 6, -12
 765              		.cfi_offset 7, -8
 766              		.cfi_offset 14, -4
 767 0002 0E46     		mov	r6, r1
 315:Middlewares/Third_Party/LwIP/src/apps/mqtt/mqtt.c ****   s16_t time_before = 0;
 768              		.loc 1 315 3 is_stmt 1 view .LVU183
 769              	.LVL74:
 316:Middlewares/Third_Party/LwIP/src/apps/mqtt/mqtt.c ****   struct mqtt_request_t *iter;
 770              		.loc 1 316 3 view .LVU184
 317:Middlewares/Third_Party/LwIP/src/apps/mqtt/mqtt.c **** 
 771              		.loc 1 317 3 view .LVU185
 319:Middlewares/Third_Party/LwIP/src/apps/mqtt/mqtt.c **** 
 772              		.loc 1 319 3 view .LVU186
 319:Middlewares/Third_Party/LwIP/src/apps/mqtt/mqtt.c **** 
 773              		.loc 1 319 3 view .LVU187
 774 0004 0746     		mov	r7, r0
 775 0006 18B1     		cbz	r0, .L59
 776              	.LVL75:
 777              	.L52:
 319:Middlewares/Third_Party/LwIP/src/apps/mqtt/mqtt.c **** 
 778              		.loc 1 319 3 view .LVU188
 319:Middlewares/Third_Party/LwIP/src/apps/mqtt/mqtt.c **** 
 779              		.loc 1 319 3 view .LVU189
 322:Middlewares/Third_Party/LwIP/src/apps/mqtt/mqtt.c ****     time_before += iter->timeout_diff;
 780              		.loc 1 322 3 view .LVU190
 322:Middlewares/Third_Party/LwIP/src/apps/mqtt/mqtt.c ****     time_before += iter->timeout_diff;
 781              		.loc 1 322 13 is_stmt 0 view .LVU191
 782 0008 3B68     		ldr	r3, [r7]
 783              	.LVL76:
 316:Middlewares/Third_Party/LwIP/src/apps/mqtt/mqtt.c ****   struct mqtt_request_t *iter;
 784              		.loc 1 316 9 view .LVU192
 785 000a 0024     		movs	r4, #0
 315:Middlewares/Third_Party/LwIP/src/apps/mqtt/mqtt.c ****   s16_t time_before = 0;
 786              		.loc 1 315 26 view .LVU193
 787 000c 2546     		mov	r5, r4
 322:Middlewares/Third_Party/LwIP/src/apps/mqtt/mqtt.c ****     time_before += iter->timeout_diff;
 788              		.loc 1 322 3 view .LVU194
 789 000e 0CE0     		b	.L53
 790              	.LVL77:
 791              	.L59:
 319:Middlewares/Third_Party/LwIP/src/apps/mqtt/mqtt.c **** 
 792              		.loc 1 319 3 is_stmt 1 discriminator 1 view .LVU195
 319:Middlewares/Third_Party/LwIP/src/apps/mqtt/mqtt.c **** 
ARM GAS  C:\Users\hh\AppData\Local\Temp\cc3qgJrr.s 			page 28


 793              		.loc 1 319 3 discriminator 1 view .LVU196
 794 0010 104B     		ldr	r3, .L62
 795 0012 40F23F12 		movw	r2, #319
 796 0016 1049     		ldr	r1, .L62+4
 797              	.LVL78:
 319:Middlewares/Third_Party/LwIP/src/apps/mqtt/mqtt.c **** 
 798              		.loc 1 319 3 is_stmt 0 discriminator 1 view .LVU197
 799 0018 1048     		ldr	r0, .L62+8
 800              	.LVL79:
 319:Middlewares/Third_Party/LwIP/src/apps/mqtt/mqtt.c **** 
 801              		.loc 1 319 3 discriminator 1 view .LVU198
 802 001a FFF7FEFF 		bl	printf
 803              	.LVL80:
 804 001e F3E7     		b	.L52
 805              	.LVL81:
 806              	.L54:
 323:Middlewares/Third_Party/LwIP/src/apps/mqtt/mqtt.c ****     head = iter;
 807              		.loc 1 323 5 is_stmt 1 view .LVU199
 323:Middlewares/Third_Party/LwIP/src/apps/mqtt/mqtt.c ****     head = iter;
 808              		.loc 1 323 24 is_stmt 0 view .LVU200
 809 0020 DA89     		ldrh	r2, [r3, #14]
 323:Middlewares/Third_Party/LwIP/src/apps/mqtt/mqtt.c ****     head = iter;
 810              		.loc 1 323 17 view .LVU201
 811 0022 1444     		add	r4, r4, r2
 812              	.LVL82:
 323:Middlewares/Third_Party/LwIP/src/apps/mqtt/mqtt.c ****     head = iter;
 813              		.loc 1 323 17 view .LVU202
 814 0024 24B2     		sxth	r4, r4
 815              	.LVL83:
 324:Middlewares/Third_Party/LwIP/src/apps/mqtt/mqtt.c ****   }
 816              		.loc 1 324 5 is_stmt 1 view .LVU203
 322:Middlewares/Third_Party/LwIP/src/apps/mqtt/mqtt.c ****     time_before += iter->timeout_diff;
 817              		.loc 1 322 41 discriminator 3 view .LVU204
 324:Middlewares/Third_Party/LwIP/src/apps/mqtt/mqtt.c ****   }
 818              		.loc 1 324 10 is_stmt 0 view .LVU205
 819 0026 1D46     		mov	r5, r3
 322:Middlewares/Third_Party/LwIP/src/apps/mqtt/mqtt.c ****     time_before += iter->timeout_diff;
 820              		.loc 1 322 41 discriminator 3 view .LVU206
 821 0028 1B68     		ldr	r3, [r3]
 822              	.LVL84:
 823              	.L53:
 322:Middlewares/Third_Party/LwIP/src/apps/mqtt/mqtt.c ****     time_before += iter->timeout_diff;
 824              		.loc 1 322 27 is_stmt 1 discriminator 1 view .LVU207
 825 002a 002B     		cmp	r3, #0
 826 002c F8D1     		bne	.L54
 327:Middlewares/Third_Party/LwIP/src/apps/mqtt/mqtt.c ****   r->timeout_diff = MQTT_REQ_TIMEOUT - time_before;
 827              		.loc 1 327 3 view .LVU208
 327:Middlewares/Third_Party/LwIP/src/apps/mqtt/mqtt.c ****   r->timeout_diff = MQTT_REQ_TIMEOUT - time_before;
 828              		.loc 1 327 3 view .LVU209
 829 002e 1E2C     		cmp	r4, #30
 830 0030 05DC     		bgt	.L60
 831              	.LVL85:
 832              	.L55:
 327:Middlewares/Third_Party/LwIP/src/apps/mqtt/mqtt.c ****   r->timeout_diff = MQTT_REQ_TIMEOUT - time_before;
 833              		.loc 1 327 3 view .LVU210
 327:Middlewares/Third_Party/LwIP/src/apps/mqtt/mqtt.c ****   r->timeout_diff = MQTT_REQ_TIMEOUT - time_before;
 834              		.loc 1 327 3 view .LVU211
ARM GAS  C:\Users\hh\AppData\Local\Temp\cc3qgJrr.s 			page 29


 328:Middlewares/Third_Party/LwIP/src/apps/mqtt/mqtt.c ****   if (head == NULL) {
 835              		.loc 1 328 3 view .LVU212
 328:Middlewares/Third_Party/LwIP/src/apps/mqtt/mqtt.c ****   if (head == NULL) {
 836              		.loc 1 328 38 is_stmt 0 view .LVU213
 837 0032 C4F11E04 		rsb	r4, r4, #30
 838              	.LVL86:
 328:Middlewares/Third_Party/LwIP/src/apps/mqtt/mqtt.c ****   if (head == NULL) {
 839              		.loc 1 328 19 view .LVU214
 840 0036 F481     		strh	r4, [r6, #14]	@ movhi
 329:Middlewares/Third_Party/LwIP/src/apps/mqtt/mqtt.c ****     *tail = r;
 841              		.loc 1 329 3 is_stmt 1 view .LVU215
 329:Middlewares/Third_Party/LwIP/src/apps/mqtt/mqtt.c ****     *tail = r;
 842              		.loc 1 329 6 is_stmt 0 view .LVU216
 843 0038 4DB1     		cbz	r5, .L61
 332:Middlewares/Third_Party/LwIP/src/apps/mqtt/mqtt.c ****   }
 844              		.loc 1 332 5 is_stmt 1 view .LVU217
 332:Middlewares/Third_Party/LwIP/src/apps/mqtt/mqtt.c ****   }
 845              		.loc 1 332 16 is_stmt 0 view .LVU218
 846 003a 2E60     		str	r6, [r5]
 847              	.L51:
 334:Middlewares/Third_Party/LwIP/src/apps/mqtt/mqtt.c **** 
 848              		.loc 1 334 1 view .LVU219
 849 003c F8BD     		pop	{r3, r4, r5, r6, r7, pc}
 850              	.LVL87:
 851              	.L60:
 327:Middlewares/Third_Party/LwIP/src/apps/mqtt/mqtt.c ****   r->timeout_diff = MQTT_REQ_TIMEOUT - time_before;
 852              		.loc 1 327 3 is_stmt 1 discriminator 1 view .LVU220
 327:Middlewares/Third_Party/LwIP/src/apps/mqtt/mqtt.c ****   r->timeout_diff = MQTT_REQ_TIMEOUT - time_before;
 853              		.loc 1 327 3 discriminator 1 view .LVU221
 854 003e 054B     		ldr	r3, .L62
 855              	.LVL88:
 327:Middlewares/Third_Party/LwIP/src/apps/mqtt/mqtt.c ****   r->timeout_diff = MQTT_REQ_TIMEOUT - time_before;
 856              		.loc 1 327 3 is_stmt 0 discriminator 1 view .LVU222
 857 0040 40F24712 		movw	r2, #327
 858 0044 0649     		ldr	r1, .L62+12
 859 0046 0548     		ldr	r0, .L62+8
 860 0048 FFF7FEFF 		bl	printf
 861              	.LVL89:
 862 004c F1E7     		b	.L55
 863              	.LVL90:
 864              	.L61:
 330:Middlewares/Third_Party/LwIP/src/apps/mqtt/mqtt.c ****   } else {
 865              		.loc 1 330 5 is_stmt 1 view .LVU223
 330:Middlewares/Third_Party/LwIP/src/apps/mqtt/mqtt.c ****   } else {
 866              		.loc 1 330 11 is_stmt 0 view .LVU224
 867 004e 3E60     		str	r6, [r7]
 868 0050 F4E7     		b	.L51
 869              	.L63:
 870 0052 00BF     		.align	2
 871              	.L62:
 872 0054 00000000 		.word	.LC0
 873 0058 00000000 		.word	.LC4
 874 005c 58000000 		.word	.LC2
 875 0060 24000000 		.word	.LC5
 876              		.cfi_endproc
 877              	.LFE179:
 879              		.section	.rodata.mqtt_ringbuf_advance_get_idx.str1.4,"aMS",%progbits,1
ARM GAS  C:\Users\hh\AppData\Local\Temp\cc3qgJrr.s 			page 30


 880              		.align	2
 881              	.LC6:
 882 0000 6D717474 		.ascii	"mqtt_ringbuf_advance_get_idx: len < MQTT_OUTPUT_RIN"
 882      5F72696E 
 882      67627566 
 882      5F616476 
 882      616E6365 
 883 0033 47425546 		.ascii	"GBUF_SIZE\000"
 883      5F53495A 
 883      4500
 884              		.section	.text.mqtt_ringbuf_advance_get_idx,"ax",%progbits
 885              		.align	1
 886              		.syntax unified
 887              		.thumb
 888              		.thumb_func
 890              	mqtt_ringbuf_advance_get_idx:
 891              	.LVL91:
 892              	.LFB175:
 202:Middlewares/Third_Party/LwIP/src/apps/mqtt/mqtt.c ****   LWIP_ASSERT("mqtt_ringbuf_advance_get_idx: len < MQTT_OUTPUT_RINGBUF_SIZE", len < MQTT_OUTPUT_RIN
 893              		.loc 1 202 1 is_stmt 1 view -0
 894              		.cfi_startproc
 895              		@ args = 0, pretend = 0, frame = 0
 896              		@ frame_needed = 0, uses_anonymous_args = 0
 202:Middlewares/Third_Party/LwIP/src/apps/mqtt/mqtt.c ****   LWIP_ASSERT("mqtt_ringbuf_advance_get_idx: len < MQTT_OUTPUT_RINGBUF_SIZE", len < MQTT_OUTPUT_RIN
 897              		.loc 1 202 1 is_stmt 0 view .LVU226
 898 0000 38B5     		push	{r3, r4, r5, lr}
 899              	.LCFI9:
 900              		.cfi_def_cfa_offset 16
 901              		.cfi_offset 3, -16
 902              		.cfi_offset 4, -12
 903              		.cfi_offset 5, -8
 904              		.cfi_offset 14, -4
 905 0002 0446     		mov	r4, r0
 906 0004 0D46     		mov	r5, r1
 203:Middlewares/Third_Party/LwIP/src/apps/mqtt/mqtt.c **** 
 907              		.loc 1 203 3 is_stmt 1 view .LVU227
 203:Middlewares/Third_Party/LwIP/src/apps/mqtt/mqtt.c **** 
 908              		.loc 1 203 3 view .LVU228
 909 0006 FF29     		cmp	r1, #255
 910 0008 09D8     		bhi	.L68
 911              	.LVL92:
 912              	.L65:
 203:Middlewares/Third_Party/LwIP/src/apps/mqtt/mqtt.c **** 
 913              		.loc 1 203 3 view .LVU229
 203:Middlewares/Third_Party/LwIP/src/apps/mqtt/mqtt.c **** 
 914              		.loc 1 203 3 view .LVU230
 205:Middlewares/Third_Party/LwIP/src/apps/mqtt/mqtt.c ****   if (rb->get >= MQTT_OUTPUT_RINGBUF_SIZE) {
 915              		.loc 1 205 3 view .LVU231
 205:Middlewares/Third_Party/LwIP/src/apps/mqtt/mqtt.c ****   if (rb->get >= MQTT_OUTPUT_RINGBUF_SIZE) {
 916              		.loc 1 205 5 is_stmt 0 view .LVU232
 917 000a 6188     		ldrh	r1, [r4, #2]
 205:Middlewares/Third_Party/LwIP/src/apps/mqtt/mqtt.c ****   if (rb->get >= MQTT_OUTPUT_RINGBUF_SIZE) {
 918              		.loc 1 205 11 view .LVU233
 919 000c 2944     		add	r1, r1, r5
 920 000e 89B2     		uxth	r1, r1
 921 0010 6180     		strh	r1, [r4, #2]	@ movhi
 206:Middlewares/Third_Party/LwIP/src/apps/mqtt/mqtt.c ****     rb->get = rb->get - MQTT_OUTPUT_RINGBUF_SIZE;
ARM GAS  C:\Users\hh\AppData\Local\Temp\cc3qgJrr.s 			page 31


 922              		.loc 1 206 3 is_stmt 1 view .LVU234
 206:Middlewares/Third_Party/LwIP/src/apps/mqtt/mqtt.c ****     rb->get = rb->get - MQTT_OUTPUT_RINGBUF_SIZE;
 923              		.loc 1 206 6 is_stmt 0 view .LVU235
 924 0012 FF29     		cmp	r1, #255
 925 0014 02D9     		bls	.L64
 207:Middlewares/Third_Party/LwIP/src/apps/mqtt/mqtt.c ****   }
 926              		.loc 1 207 5 is_stmt 1 view .LVU236
 207:Middlewares/Third_Party/LwIP/src/apps/mqtt/mqtt.c ****   }
 927              		.loc 1 207 23 is_stmt 0 view .LVU237
 928 0016 A1F58071 		sub	r1, r1, #256
 207:Middlewares/Third_Party/LwIP/src/apps/mqtt/mqtt.c ****   }
 929              		.loc 1 207 13 view .LVU238
 930 001a 6180     		strh	r1, [r4, #2]	@ movhi
 931              	.L64:
 209:Middlewares/Third_Party/LwIP/src/apps/mqtt/mqtt.c **** 
 932              		.loc 1 209 1 view .LVU239
 933 001c 38BD     		pop	{r3, r4, r5, pc}
 934              	.LVL93:
 935              	.L68:
 203:Middlewares/Third_Party/LwIP/src/apps/mqtt/mqtt.c **** 
 936              		.loc 1 203 3 is_stmt 1 discriminator 1 view .LVU240
 203:Middlewares/Third_Party/LwIP/src/apps/mqtt/mqtt.c **** 
 937              		.loc 1 203 3 discriminator 1 view .LVU241
 938 001e 034B     		ldr	r3, .L69
 939 0020 CB22     		movs	r2, #203
 940 0022 0349     		ldr	r1, .L69+4
 941              	.LVL94:
 203:Middlewares/Third_Party/LwIP/src/apps/mqtt/mqtt.c **** 
 942              		.loc 1 203 3 is_stmt 0 discriminator 1 view .LVU242
 943 0024 0348     		ldr	r0, .L69+8
 944              	.LVL95:
 203:Middlewares/Third_Party/LwIP/src/apps/mqtt/mqtt.c **** 
 945              		.loc 1 203 3 discriminator 1 view .LVU243
 946 0026 FFF7FEFF 		bl	printf
 947              	.LVL96:
 948 002a EEE7     		b	.L65
 949              	.L70:
 950              		.align	2
 951              	.L69:
 952 002c 00000000 		.word	.LC0
 953 0030 00000000 		.word	.LC6
 954 0034 58000000 		.word	.LC2
 955              		.cfi_endproc
 956              	.LFE175:
 958              		.section	.rodata.mqtt_request_time_elapsed.str1.4,"aMS",%progbits,1
 959              		.align	2
 960              	.LC7:
 961 0000 6D717474 		.ascii	"mqtt_request_time_elapsed: tail != NULL\000"
 961      5F726571 
 961      75657374 
 961      5F74696D 
 961      655F656C 
 962              		.section	.text.mqtt_request_time_elapsed,"ax",%progbits
 963              		.align	1
 964              		.syntax unified
 965              		.thumb
 966              		.thumb_func
ARM GAS  C:\Users\hh\AppData\Local\Temp\cc3qgJrr.s 			page 32


 968              	mqtt_request_time_elapsed:
 969              	.LVL97:
 970              	.LFB182:
 392:Middlewares/Third_Party/LwIP/src/apps/mqtt/mqtt.c ****   struct mqtt_request_t *r;
 971              		.loc 1 392 1 is_stmt 1 view -0
 972              		.cfi_startproc
 973              		@ args = 0, pretend = 0, frame = 0
 974              		@ frame_needed = 0, uses_anonymous_args = 0
 392:Middlewares/Third_Party/LwIP/src/apps/mqtt/mqtt.c ****   struct mqtt_request_t *r;
 975              		.loc 1 392 1 is_stmt 0 view .LVU245
 976 0000 70B5     		push	{r4, r5, r6, lr}
 977              	.LCFI10:
 978              		.cfi_def_cfa_offset 16
 979              		.cfi_offset 4, -16
 980              		.cfi_offset 5, -12
 981              		.cfi_offset 6, -8
 982              		.cfi_offset 14, -4
 983 0002 0D46     		mov	r5, r1
 393:Middlewares/Third_Party/LwIP/src/apps/mqtt/mqtt.c ****   LWIP_ASSERT("mqtt_request_time_elapsed: tail != NULL", tail != NULL);
 984              		.loc 1 393 3 is_stmt 1 view .LVU246
 394:Middlewares/Third_Party/LwIP/src/apps/mqtt/mqtt.c ****   r = *tail;
 985              		.loc 1 394 3 view .LVU247
 394:Middlewares/Third_Party/LwIP/src/apps/mqtt/mqtt.c ****   r = *tail;
 986              		.loc 1 394 3 view .LVU248
 987 0004 0646     		mov	r6, r0
 988 0006 08B1     		cbz	r0, .L80
 989              	.LVL98:
 990              	.L72:
 394:Middlewares/Third_Party/LwIP/src/apps/mqtt/mqtt.c ****   r = *tail;
 991              		.loc 1 394 3 view .LVU249
 394:Middlewares/Third_Party/LwIP/src/apps/mqtt/mqtt.c ****   r = *tail;
 992              		.loc 1 394 3 view .LVU250
 395:Middlewares/Third_Party/LwIP/src/apps/mqtt/mqtt.c ****   while (t > 0 && r != NULL) {
 993              		.loc 1 395 3 view .LVU251
 395:Middlewares/Third_Party/LwIP/src/apps/mqtt/mqtt.c ****   while (t > 0 && r != NULL) {
 994              		.loc 1 395 5 is_stmt 0 view .LVU252
 995 0008 3468     		ldr	r4, [r6]
 996              	.LVL99:
 396:Middlewares/Third_Party/LwIP/src/apps/mqtt/mqtt.c ****     if (t >= r->timeout_diff) {
 997              		.loc 1 396 3 is_stmt 1 view .LVU253
 396:Middlewares/Third_Party/LwIP/src/apps/mqtt/mqtt.c ****     if (t >= r->timeout_diff) {
 998              		.loc 1 396 9 is_stmt 0 view .LVU254
 999 000a 0BE0     		b	.L73
 1000              	.LVL100:
 1001              	.L80:
 394:Middlewares/Third_Party/LwIP/src/apps/mqtt/mqtt.c ****   r = *tail;
 1002              		.loc 1 394 3 is_stmt 1 discriminator 1 view .LVU255
 394:Middlewares/Third_Party/LwIP/src/apps/mqtt/mqtt.c ****   r = *tail;
 1003              		.loc 1 394 3 discriminator 1 view .LVU256
 1004 000c 124B     		ldr	r3, .L81
 1005 000e 4FF4C572 		mov	r2, #394
 1006 0012 1249     		ldr	r1, .L81+4
 1007              	.LVL101:
 394:Middlewares/Third_Party/LwIP/src/apps/mqtt/mqtt.c ****   r = *tail;
 1008              		.loc 1 394 3 is_stmt 0 discriminator 1 view .LVU257
 1009 0014 1248     		ldr	r0, .L81+8
 1010              	.LVL102:
ARM GAS  C:\Users\hh\AppData\Local\Temp\cc3qgJrr.s 			page 33


 394:Middlewares/Third_Party/LwIP/src/apps/mqtt/mqtt.c ****   r = *tail;
 1011              		.loc 1 394 3 discriminator 1 view .LVU258
 1012 0016 FFF7FEFF 		bl	printf
 1013              	.LVL103:
 1014 001a F5E7     		b	.L72
 1015              	.LVL104:
 1016              	.L75:
 405:Middlewares/Third_Party/LwIP/src/apps/mqtt/mqtt.c ****       /* Tail might be be modified in callback, so re-read it in every iteration */
 1017              		.loc 1 405 7 is_stmt 1 view .LVU259
 1018 001c 2046     		mov	r0, r4
 1019 001e FFF7FEFF 		bl	mqtt_delete_request
 1020              	.LVL105:
 407:Middlewares/Third_Party/LwIP/src/apps/mqtt/mqtt.c ****     } else {
 1021              		.loc 1 407 7 view .LVU260
 407:Middlewares/Third_Party/LwIP/src/apps/mqtt/mqtt.c ****     } else {
 1022              		.loc 1 407 9 is_stmt 0 view .LVU261
 1023 0022 3468     		ldr	r4, [r6]
 1024              	.LVL106:
 1025              	.L73:
 396:Middlewares/Third_Party/LwIP/src/apps/mqtt/mqtt.c ****     if (t >= r->timeout_diff) {
 1026              		.loc 1 396 16 is_stmt 1 view .LVU262
 396:Middlewares/Third_Party/LwIP/src/apps/mqtt/mqtt.c ****     if (t >= r->timeout_diff) {
 1027              		.loc 1 396 21 is_stmt 0 view .LVU263
 1028 0024 231E     		subs	r3, r4, #0
 1029 0026 18BF     		it	ne
 1030 0028 0123     		movne	r3, #1
 396:Middlewares/Third_Party/LwIP/src/apps/mqtt/mqtt.c ****     if (t >= r->timeout_diff) {
 1031              		.loc 1 396 16 view .LVU264
 1032 002a A5B1     		cbz	r5, .L71
 396:Middlewares/Third_Party/LwIP/src/apps/mqtt/mqtt.c ****     if (t >= r->timeout_diff) {
 1033              		.loc 1 396 16 view .LVU265
 1034 002c 9BB1     		cbz	r3, .L71
 397:Middlewares/Third_Party/LwIP/src/apps/mqtt/mqtt.c ****       t -= (u8_t)r->timeout_diff;
 1035              		.loc 1 397 5 is_stmt 1 view .LVU266
 397:Middlewares/Third_Party/LwIP/src/apps/mqtt/mqtt.c ****       t -= (u8_t)r->timeout_diff;
 1036              		.loc 1 397 15 is_stmt 0 view .LVU267
 1037 002e E389     		ldrh	r3, [r4, #14]
 397:Middlewares/Third_Party/LwIP/src/apps/mqtt/mqtt.c ****       t -= (u8_t)r->timeout_diff;
 1038              		.loc 1 397 8 view .LVU268
 1039 0030 9D42     		cmp	r5, r3
 1040 0032 0CD3     		bcc	.L74
 398:Middlewares/Third_Party/LwIP/src/apps/mqtt/mqtt.c ****       /* Unchain */
 1041              		.loc 1 398 7 is_stmt 1 view .LVU269
 398:Middlewares/Third_Party/LwIP/src/apps/mqtt/mqtt.c ****       /* Unchain */
 1042              		.loc 1 398 12 is_stmt 0 view .LVU270
 1043 0034 DBB2     		uxtb	r3, r3
 398:Middlewares/Third_Party/LwIP/src/apps/mqtt/mqtt.c ****       /* Unchain */
 1044              		.loc 1 398 9 view .LVU271
 1045 0036 EB1A     		subs	r3, r5, r3
 1046 0038 DDB2     		uxtb	r5, r3
 1047              	.LVL107:
 400:Middlewares/Third_Party/LwIP/src/apps/mqtt/mqtt.c ****       /* Notify upper layer about timeout */
 1048              		.loc 1 400 7 is_stmt 1 view .LVU272
 400:Middlewares/Third_Party/LwIP/src/apps/mqtt/mqtt.c ****       /* Notify upper layer about timeout */
 1049              		.loc 1 400 16 is_stmt 0 view .LVU273
 1050 003a 2368     		ldr	r3, [r4]
 400:Middlewares/Third_Party/LwIP/src/apps/mqtt/mqtt.c ****       /* Notify upper layer about timeout */
ARM GAS  C:\Users\hh\AppData\Local\Temp\cc3qgJrr.s 			page 34


 1051              		.loc 1 400 13 view .LVU274
 1052 003c 3360     		str	r3, [r6]
 402:Middlewares/Third_Party/LwIP/src/apps/mqtt/mqtt.c ****         r->cb(r->arg, ERR_TIMEOUT);
 1053              		.loc 1 402 7 is_stmt 1 view .LVU275
 402:Middlewares/Third_Party/LwIP/src/apps/mqtt/mqtt.c ****         r->cb(r->arg, ERR_TIMEOUT);
 1054              		.loc 1 402 12 is_stmt 0 view .LVU276
 1055 003e 6368     		ldr	r3, [r4, #4]
 402:Middlewares/Third_Party/LwIP/src/apps/mqtt/mqtt.c ****         r->cb(r->arg, ERR_TIMEOUT);
 1056              		.loc 1 402 10 view .LVU277
 1057 0040 002B     		cmp	r3, #0
 1058 0042 EBD0     		beq	.L75
 403:Middlewares/Third_Party/LwIP/src/apps/mqtt/mqtt.c ****       }
 1059              		.loc 1 403 9 is_stmt 1 view .LVU278
 1060 0044 6FF00201 		mvn	r1, #2
 1061 0048 A068     		ldr	r0, [r4, #8]
 1062 004a 9847     		blx	r3
 1063              	.LVL108:
 1064 004c E6E7     		b	.L75
 1065              	.L74:
 409:Middlewares/Third_Party/LwIP/src/apps/mqtt/mqtt.c ****       t = 0;
 1066              		.loc 1 409 7 view .LVU279
 409:Middlewares/Third_Party/LwIP/src/apps/mqtt/mqtt.c ****       t = 0;
 1067              		.loc 1 409 23 is_stmt 0 view .LVU280
 1068 004e 5B1B     		subs	r3, r3, r5
 1069 0050 E381     		strh	r3, [r4, #14]	@ movhi
 410:Middlewares/Third_Party/LwIP/src/apps/mqtt/mqtt.c ****     }
 1070              		.loc 1 410 7 is_stmt 1 view .LVU281
 1071              	.LVL109:
 410:Middlewares/Third_Party/LwIP/src/apps/mqtt/mqtt.c ****     }
 1072              		.loc 1 410 9 is_stmt 0 view .LVU282
 1073 0052 0025     		movs	r5, #0
 1074 0054 E6E7     		b	.L73
 1075              	.LVL110:
 1076              	.L71:
 413:Middlewares/Third_Party/LwIP/src/apps/mqtt/mqtt.c **** 
 1077              		.loc 1 413 1 view .LVU283
 1078 0056 70BD     		pop	{r4, r5, r6, pc}
 1079              	.LVL111:
 1080              	.L82:
 413:Middlewares/Third_Party/LwIP/src/apps/mqtt/mqtt.c **** 
 1081              		.loc 1 413 1 view .LVU284
 1082              		.align	2
 1083              	.L81:
 1084 0058 00000000 		.word	.LC0
 1085 005c 00000000 		.word	.LC7
 1086 0060 58000000 		.word	.LC2
 1087              		.cfi_endproc
 1088              	.LFE182:
 1090              		.section	.rodata.mqtt_clear_requests.str1.4,"aMS",%progbits,1
 1091              		.align	2
 1092              	.LC8:
 1093 0000 6D717474 		.ascii	"mqtt_clear_requests: tail != NULL\000"
 1093      5F636C65 
 1093      61725F72 
 1093      65717565 
 1093      7374733A 
 1094              		.section	.text.mqtt_clear_requests,"ax",%progbits
ARM GAS  C:\Users\hh\AppData\Local\Temp\cc3qgJrr.s 			page 35


 1095              		.align	1
 1096              		.syntax unified
 1097              		.thumb
 1098              		.thumb_func
 1100              	mqtt_clear_requests:
 1101              	.LVL112:
 1102              	.LFB183:
 421:Middlewares/Third_Party/LwIP/src/apps/mqtt/mqtt.c ****   struct mqtt_request_t *iter, *next;
 1103              		.loc 1 421 1 is_stmt 1 view -0
 1104              		.cfi_startproc
 1105              		@ args = 0, pretend = 0, frame = 0
 1106              		@ frame_needed = 0, uses_anonymous_args = 0
 421:Middlewares/Third_Party/LwIP/src/apps/mqtt/mqtt.c ****   struct mqtt_request_t *iter, *next;
 1107              		.loc 1 421 1 is_stmt 0 view .LVU286
 1108 0000 38B5     		push	{r3, r4, r5, lr}
 1109              	.LCFI11:
 1110              		.cfi_def_cfa_offset 16
 1111              		.cfi_offset 3, -16
 1112              		.cfi_offset 4, -12
 1113              		.cfi_offset 5, -8
 1114              		.cfi_offset 14, -4
 422:Middlewares/Third_Party/LwIP/src/apps/mqtt/mqtt.c ****   LWIP_ASSERT("mqtt_clear_requests: tail != NULL", tail != NULL);
 1115              		.loc 1 422 3 is_stmt 1 view .LVU287
 423:Middlewares/Third_Party/LwIP/src/apps/mqtt/mqtt.c ****   for (iter = *tail; iter != NULL; iter = next) {
 1116              		.loc 1 423 3 view .LVU288
 423:Middlewares/Third_Party/LwIP/src/apps/mqtt/mqtt.c ****   for (iter = *tail; iter != NULL; iter = next) {
 1117              		.loc 1 423 3 view .LVU289
 1118 0002 0546     		mov	r5, r0
 1119 0004 08B1     		cbz	r0, .L88
 1120              	.LVL113:
 1121              	.L84:
 423:Middlewares/Third_Party/LwIP/src/apps/mqtt/mqtt.c ****   for (iter = *tail; iter != NULL; iter = next) {
 1122              		.loc 1 423 3 view .LVU290
 423:Middlewares/Third_Party/LwIP/src/apps/mqtt/mqtt.c ****   for (iter = *tail; iter != NULL; iter = next) {
 1123              		.loc 1 423 3 view .LVU291
 424:Middlewares/Third_Party/LwIP/src/apps/mqtt/mqtt.c ****     next = iter->next;
 1124              		.loc 1 424 3 view .LVU292
 424:Middlewares/Third_Party/LwIP/src/apps/mqtt/mqtt.c ****     next = iter->next;
 1125              		.loc 1 424 13 is_stmt 0 view .LVU293
 1126 0006 2868     		ldr	r0, [r5]
 1127              	.LVL114:
 424:Middlewares/Third_Party/LwIP/src/apps/mqtt/mqtt.c ****     next = iter->next;
 1128              		.loc 1 424 3 view .LVU294
 1129 0008 0BE0     		b	.L85
 1130              	.LVL115:
 1131              	.L88:
 423:Middlewares/Third_Party/LwIP/src/apps/mqtt/mqtt.c ****   for (iter = *tail; iter != NULL; iter = next) {
 1132              		.loc 1 423 3 is_stmt 1 discriminator 1 view .LVU295
 423:Middlewares/Third_Party/LwIP/src/apps/mqtt/mqtt.c ****   for (iter = *tail; iter != NULL; iter = next) {
 1133              		.loc 1 423 3 discriminator 1 view .LVU296
 1134 000a 084B     		ldr	r3, .L89
 1135 000c 40F2A712 		movw	r2, #423
 1136 0010 0749     		ldr	r1, .L89+4
 1137 0012 0848     		ldr	r0, .L89+8
 1138              	.LVL116:
 423:Middlewares/Third_Party/LwIP/src/apps/mqtt/mqtt.c ****   for (iter = *tail; iter != NULL; iter = next) {
 1139              		.loc 1 423 3 is_stmt 0 discriminator 1 view .LVU297
ARM GAS  C:\Users\hh\AppData\Local\Temp\cc3qgJrr.s 			page 36


 1140 0014 FFF7FEFF 		bl	printf
 1141              	.LVL117:
 1142 0018 F5E7     		b	.L84
 1143              	.LVL118:
 1144              	.L86:
 425:Middlewares/Third_Party/LwIP/src/apps/mqtt/mqtt.c ****     mqtt_delete_request(iter);
 1145              		.loc 1 425 5 is_stmt 1 view .LVU298
 425:Middlewares/Third_Party/LwIP/src/apps/mqtt/mqtt.c ****     mqtt_delete_request(iter);
 1146              		.loc 1 425 10 is_stmt 0 view .LVU299
 1147 001a 0468     		ldr	r4, [r0]
 1148              	.LVL119:
 426:Middlewares/Third_Party/LwIP/src/apps/mqtt/mqtt.c ****   }
 1149              		.loc 1 426 5 is_stmt 1 view .LVU300
 1150 001c FFF7FEFF 		bl	mqtt_delete_request
 1151              	.LVL120:
 424:Middlewares/Third_Party/LwIP/src/apps/mqtt/mqtt.c ****     next = iter->next;
 1152              		.loc 1 424 41 discriminator 3 view .LVU301
 424:Middlewares/Third_Party/LwIP/src/apps/mqtt/mqtt.c ****     next = iter->next;
 1153              		.loc 1 424 41 is_stmt 0 discriminator 3 view .LVU302
 1154 0020 2046     		mov	r0, r4
 1155              	.LVL121:
 1156              	.L85:
 424:Middlewares/Third_Party/LwIP/src/apps/mqtt/mqtt.c ****     next = iter->next;
 1157              		.loc 1 424 27 is_stmt 1 discriminator 1 view .LVU303
 1158 0022 0028     		cmp	r0, #0
 1159 0024 F9D1     		bne	.L86
 428:Middlewares/Third_Party/LwIP/src/apps/mqtt/mqtt.c **** }
 1160              		.loc 1 428 3 view .LVU304
 428:Middlewares/Third_Party/LwIP/src/apps/mqtt/mqtt.c **** }
 1161              		.loc 1 428 9 is_stmt 0 view .LVU305
 1162 0026 2860     		str	r0, [r5]
 429:Middlewares/Third_Party/LwIP/src/apps/mqtt/mqtt.c **** /**
 1163              		.loc 1 429 1 view .LVU306
 1164 0028 38BD     		pop	{r3, r4, r5, pc}
 1165              	.LVL122:
 1166              	.L90:
 429:Middlewares/Third_Party/LwIP/src/apps/mqtt/mqtt.c **** /**
 1167              		.loc 1 429 1 view .LVU307
 1168 002a 00BF     		.align	2
 1169              	.L89:
 1170 002c 00000000 		.word	.LC0
 1171 0030 00000000 		.word	.LC8
 1172 0034 58000000 		.word	.LC2
 1173              		.cfi_endproc
 1174              	.LFE183:
 1176              		.section	.rodata.mqtt_take_request.str1.4,"aMS",%progbits,1
 1177              		.align	2
 1178              	.LC9:
 1179 0000 6D717474 		.ascii	"mqtt_take_request: tail != NULL\000"
 1179      5F74616B 
 1179      655F7265 
 1179      71756573 
 1179      743A2074 
 1180              		.section	.text.mqtt_take_request,"ax",%progbits
 1181              		.align	1
 1182              		.syntax unified
 1183              		.thumb
ARM GAS  C:\Users\hh\AppData\Local\Temp\cc3qgJrr.s 			page 37


 1184              		.thumb_func
 1186              	mqtt_take_request:
 1187              	.LVL123:
 1188              	.LFB181:
 357:Middlewares/Third_Party/LwIP/src/apps/mqtt/mqtt.c ****   struct mqtt_request_t *iter = NULL, *prev = NULL;
 1189              		.loc 1 357 1 is_stmt 1 view -0
 1190              		.cfi_startproc
 1191              		@ args = 0, pretend = 0, frame = 0
 1192              		@ frame_needed = 0, uses_anonymous_args = 0
 357:Middlewares/Third_Party/LwIP/src/apps/mqtt/mqtt.c ****   struct mqtt_request_t *iter = NULL, *prev = NULL;
 1193              		.loc 1 357 1 is_stmt 0 view .LVU309
 1194 0000 38B5     		push	{r3, r4, r5, lr}
 1195              	.LCFI12:
 1196              		.cfi_def_cfa_offset 16
 1197              		.cfi_offset 3, -16
 1198              		.cfi_offset 4, -12
 1199              		.cfi_offset 5, -8
 1200              		.cfi_offset 14, -4
 1201 0002 0C46     		mov	r4, r1
 358:Middlewares/Third_Party/LwIP/src/apps/mqtt/mqtt.c ****   LWIP_ASSERT("mqtt_take_request: tail != NULL", tail != NULL);
 1202              		.loc 1 358 3 is_stmt 1 view .LVU310
 1203              	.LVL124:
 359:Middlewares/Third_Party/LwIP/src/apps/mqtt/mqtt.c ****   /* Search all request for pkt_id */
 1204              		.loc 1 359 3 view .LVU311
 359:Middlewares/Third_Party/LwIP/src/apps/mqtt/mqtt.c ****   /* Search all request for pkt_id */
 1205              		.loc 1 359 3 view .LVU312
 1206 0004 0546     		mov	r5, r0
 1207 0006 10B1     		cbz	r0, .L101
 1208              	.LVL125:
 1209              	.L92:
 359:Middlewares/Third_Party/LwIP/src/apps/mqtt/mqtt.c ****   /* Search all request for pkt_id */
 1210              		.loc 1 359 3 view .LVU313
 359:Middlewares/Third_Party/LwIP/src/apps/mqtt/mqtt.c ****   /* Search all request for pkt_id */
 1211              		.loc 1 359 3 view .LVU314
 361:Middlewares/Third_Party/LwIP/src/apps/mqtt/mqtt.c ****     if (iter->pkt_id == pkt_id) {
 1212              		.loc 1 361 3 view .LVU315
 361:Middlewares/Third_Party/LwIP/src/apps/mqtt/mqtt.c ****     if (iter->pkt_id == pkt_id) {
 1213              		.loc 1 361 13 is_stmt 0 view .LVU316
 1214 0008 2868     		ldr	r0, [r5]
 1215              	.LVL126:
 358:Middlewares/Third_Party/LwIP/src/apps/mqtt/mqtt.c ****   LWIP_ASSERT("mqtt_take_request: tail != NULL", tail != NULL);
 1216              		.loc 1 358 40 view .LVU317
 1217 000a 0022     		movs	r2, #0
 361:Middlewares/Third_Party/LwIP/src/apps/mqtt/mqtt.c ****     if (iter->pkt_id == pkt_id) {
 1218              		.loc 1 361 3 view .LVU318
 1219 000c 09E0     		b	.L93
 1220              	.LVL127:
 1221              	.L101:
 359:Middlewares/Third_Party/LwIP/src/apps/mqtt/mqtt.c ****   /* Search all request for pkt_id */
 1222              		.loc 1 359 3 is_stmt 1 discriminator 1 view .LVU319
 359:Middlewares/Third_Party/LwIP/src/apps/mqtt/mqtt.c ****   /* Search all request for pkt_id */
 1223              		.loc 1 359 3 discriminator 1 view .LVU320
 1224 000e 0F4B     		ldr	r3, .L104
 1225 0010 40F26712 		movw	r2, #359
 1226 0014 0E49     		ldr	r1, .L104+4
 1227              	.LVL128:
 359:Middlewares/Third_Party/LwIP/src/apps/mqtt/mqtt.c ****   /* Search all request for pkt_id */
ARM GAS  C:\Users\hh\AppData\Local\Temp\cc3qgJrr.s 			page 38


 1228              		.loc 1 359 3 is_stmt 0 discriminator 1 view .LVU321
 1229 0016 0F48     		ldr	r0, .L104+8
 1230              	.LVL129:
 359:Middlewares/Third_Party/LwIP/src/apps/mqtt/mqtt.c ****   /* Search all request for pkt_id */
 1231              		.loc 1 359 3 discriminator 1 view .LVU322
 1232 0018 FFF7FEFF 		bl	printf
 1233              	.LVL130:
 1234 001c F4E7     		b	.L92
 1235              	.LVL131:
 1236              	.L102:
 365:Middlewares/Third_Party/LwIP/src/apps/mqtt/mqtt.c ****   }
 1237              		.loc 1 365 5 is_stmt 1 view .LVU323
 361:Middlewares/Third_Party/LwIP/src/apps/mqtt/mqtt.c ****     if (iter->pkt_id == pkt_id) {
 1238              		.loc 1 361 41 discriminator 2 view .LVU324
 365:Middlewares/Third_Party/LwIP/src/apps/mqtt/mqtt.c ****   }
 1239              		.loc 1 365 10 is_stmt 0 view .LVU325
 1240 001e 0246     		mov	r2, r0
 361:Middlewares/Third_Party/LwIP/src/apps/mqtt/mqtt.c ****     if (iter->pkt_id == pkt_id) {
 1241              		.loc 1 361 41 discriminator 2 view .LVU326
 1242 0020 0068     		ldr	r0, [r0]
 1243              	.LVL132:
 1244              	.L93:
 361:Middlewares/Third_Party/LwIP/src/apps/mqtt/mqtt.c ****     if (iter->pkt_id == pkt_id) {
 1245              		.loc 1 361 27 is_stmt 1 discriminator 1 view .LVU327
 1246 0022 10B1     		cbz	r0, .L94
 362:Middlewares/Third_Party/LwIP/src/apps/mqtt/mqtt.c ****       break;
 1247              		.loc 1 362 5 view .LVU328
 362:Middlewares/Third_Party/LwIP/src/apps/mqtt/mqtt.c ****       break;
 1248              		.loc 1 362 13 is_stmt 0 view .LVU329
 1249 0024 8389     		ldrh	r3, [r0, #12]
 362:Middlewares/Third_Party/LwIP/src/apps/mqtt/mqtt.c ****       break;
 1250              		.loc 1 362 8 view .LVU330
 1251 0026 A342     		cmp	r3, r4
 1252 0028 F9D1     		bne	.L102
 1253              	.L94:
 369:Middlewares/Third_Party/LwIP/src/apps/mqtt/mqtt.c ****     /* unchain */
 1254              		.loc 1 369 3 is_stmt 1 view .LVU331
 369:Middlewares/Third_Party/LwIP/src/apps/mqtt/mqtt.c ****     /* unchain */
 1255              		.loc 1 369 6 is_stmt 0 view .LVU332
 1256 002a 50B1     		cbz	r0, .L91
 371:Middlewares/Third_Party/LwIP/src/apps/mqtt/mqtt.c ****       *tail = iter->next;
 1257              		.loc 1 371 5 is_stmt 1 view .LVU333
 371:Middlewares/Third_Party/LwIP/src/apps/mqtt/mqtt.c ****       *tail = iter->next;
 1258              		.loc 1 371 8 is_stmt 0 view .LVU334
 1259 002c 52B1     		cbz	r2, .L103
 374:Middlewares/Third_Party/LwIP/src/apps/mqtt/mqtt.c ****     }
 1260              		.loc 1 374 7 is_stmt 1 view .LVU335
 374:Middlewares/Third_Party/LwIP/src/apps/mqtt/mqtt.c ****     }
 1261              		.loc 1 374 24 is_stmt 0 view .LVU336
 1262 002e 0368     		ldr	r3, [r0]
 374:Middlewares/Third_Party/LwIP/src/apps/mqtt/mqtt.c ****     }
 1263              		.loc 1 374 18 view .LVU337
 1264 0030 1360     		str	r3, [r2]
 1265              	.L98:
 377:Middlewares/Third_Party/LwIP/src/apps/mqtt/mqtt.c ****       iter->next->timeout_diff += iter->timeout_diff;
 1266              		.loc 1 377 5 is_stmt 1 view .LVU338
 377:Middlewares/Third_Party/LwIP/src/apps/mqtt/mqtt.c ****       iter->next->timeout_diff += iter->timeout_diff;
ARM GAS  C:\Users\hh\AppData\Local\Temp\cc3qgJrr.s 			page 39


 1267              		.loc 1 377 13 is_stmt 0 view .LVU339
 1268 0032 0368     		ldr	r3, [r0]
 377:Middlewares/Third_Party/LwIP/src/apps/mqtt/mqtt.c ****       iter->next->timeout_diff += iter->timeout_diff;
 1269              		.loc 1 377 8 view .LVU340
 1270 0034 1BB1     		cbz	r3, .L99
 378:Middlewares/Third_Party/LwIP/src/apps/mqtt/mqtt.c ****     }
 1271              		.loc 1 378 7 is_stmt 1 view .LVU341
 378:Middlewares/Third_Party/LwIP/src/apps/mqtt/mqtt.c ****     }
 1272              		.loc 1 378 17 is_stmt 0 view .LVU342
 1273 0036 DA89     		ldrh	r2, [r3, #14]
 1274              	.LVL133:
 378:Middlewares/Third_Party/LwIP/src/apps/mqtt/mqtt.c ****     }
 1275              		.loc 1 378 39 view .LVU343
 1276 0038 C189     		ldrh	r1, [r0, #14]
 378:Middlewares/Third_Party/LwIP/src/apps/mqtt/mqtt.c ****     }
 1277              		.loc 1 378 32 view .LVU344
 1278 003a 0A44     		add	r2, r2, r1
 1279 003c DA81     		strh	r2, [r3, #14]	@ movhi
 1280              	.L99:
 380:Middlewares/Third_Party/LwIP/src/apps/mqtt/mqtt.c ****   }
 1281              		.loc 1 380 5 is_stmt 1 view .LVU345
 380:Middlewares/Third_Party/LwIP/src/apps/mqtt/mqtt.c ****   }
 1282              		.loc 1 380 16 is_stmt 0 view .LVU346
 1283 003e 0023     		movs	r3, #0
 1284 0040 0360     		str	r3, [r0]
 382:Middlewares/Third_Party/LwIP/src/apps/mqtt/mqtt.c **** }
 1285              		.loc 1 382 3 is_stmt 1 view .LVU347
 1286              	.L91:
 383:Middlewares/Third_Party/LwIP/src/apps/mqtt/mqtt.c **** 
 1287              		.loc 1 383 1 is_stmt 0 view .LVU348
 1288 0042 38BD     		pop	{r3, r4, r5, pc}
 1289              	.LVL134:
 1290              	.L103:
 372:Middlewares/Third_Party/LwIP/src/apps/mqtt/mqtt.c ****     } else {
 1291              		.loc 1 372 7 is_stmt 1 view .LVU349
 372:Middlewares/Third_Party/LwIP/src/apps/mqtt/mqtt.c ****     } else {
 1292              		.loc 1 372 19 is_stmt 0 view .LVU350
 1293 0044 0368     		ldr	r3, [r0]
 372:Middlewares/Third_Party/LwIP/src/apps/mqtt/mqtt.c ****     } else {
 1294              		.loc 1 372 13 view .LVU351
 1295 0046 2B60     		str	r3, [r5]
 1296 0048 F3E7     		b	.L98
 1297              	.L105:
 1298 004a 00BF     		.align	2
 1299              	.L104:
 1300 004c 00000000 		.word	.LC0
 1301 0050 00000000 		.word	.LC9
 1302 0054 58000000 		.word	.LC2
 1303              		.cfi_endproc
 1304              	.LFE181:
 1306              		.section	.rodata.mqtt_init_requests.str1.4,"aMS",%progbits,1
 1307              		.align	2
 1308              	.LC10:
 1309 0000 6D717474 		.ascii	"mqtt_init_requests: r_objs != NULL\000"
 1309      5F696E69 
 1309      745F7265 
 1309      71756573 
ARM GAS  C:\Users\hh\AppData\Local\Temp\cc3qgJrr.s 			page 40


 1309      74733A20 
 1310              		.section	.text.mqtt_init_requests,"ax",%progbits
 1311              		.align	1
 1312              		.syntax unified
 1313              		.thumb
 1314              		.thumb_func
 1316              	mqtt_init_requests:
 1317              	.LVL135:
 1318              	.LFB184:
 437:Middlewares/Third_Party/LwIP/src/apps/mqtt/mqtt.c ****   u8_t n;
 1319              		.loc 1 437 1 is_stmt 1 view -0
 1320              		.cfi_startproc
 1321              		@ args = 0, pretend = 0, frame = 0
 1322              		@ frame_needed = 0, uses_anonymous_args = 0
 437:Middlewares/Third_Party/LwIP/src/apps/mqtt/mqtt.c ****   u8_t n;
 1323              		.loc 1 437 1 is_stmt 0 view .LVU353
 1324 0000 38B5     		push	{r3, r4, r5, lr}
 1325              	.LCFI13:
 1326              		.cfi_def_cfa_offset 16
 1327              		.cfi_offset 3, -16
 1328              		.cfi_offset 4, -12
 1329              		.cfi_offset 5, -8
 1330              		.cfi_offset 14, -4
 1331 0002 0C46     		mov	r4, r1
 438:Middlewares/Third_Party/LwIP/src/apps/mqtt/mqtt.c ****   LWIP_ASSERT("mqtt_init_requests: r_objs != NULL", r_objs != NULL);
 1332              		.loc 1 438 3 is_stmt 1 view .LVU354
 439:Middlewares/Third_Party/LwIP/src/apps/mqtt/mqtt.c ****   for (n = 0; n < r_objs_len; n++) {
 1333              		.loc 1 439 3 view .LVU355
 439:Middlewares/Third_Party/LwIP/src/apps/mqtt/mqtt.c ****   for (n = 0; n < r_objs_len; n++) {
 1334              		.loc 1 439 3 view .LVU356
 1335 0004 0546     		mov	r5, r0
 1336 0006 08B1     		cbz	r0, .L111
 1337              	.LVL136:
 1338              	.L107:
 437:Middlewares/Third_Party/LwIP/src/apps/mqtt/mqtt.c ****   u8_t n;
 1339              		.loc 1 437 1 is_stmt 0 view .LVU357
 1340 0008 0023     		movs	r3, #0
 1341 000a 0CE0     		b	.L108
 1342              	.LVL137:
 1343              	.L111:
 439:Middlewares/Third_Party/LwIP/src/apps/mqtt/mqtt.c ****   for (n = 0; n < r_objs_len; n++) {
 1344              		.loc 1 439 3 is_stmt 1 discriminator 1 view .LVU358
 439:Middlewares/Third_Party/LwIP/src/apps/mqtt/mqtt.c ****   for (n = 0; n < r_objs_len; n++) {
 1345              		.loc 1 439 3 discriminator 1 view .LVU359
 1346 000c 074B     		ldr	r3, .L112
 1347 000e 40F2B712 		movw	r2, #439
 1348 0012 0749     		ldr	r1, .L112+4
 1349              	.LVL138:
 439:Middlewares/Third_Party/LwIP/src/apps/mqtt/mqtt.c ****   for (n = 0; n < r_objs_len; n++) {
 1350              		.loc 1 439 3 is_stmt 0 discriminator 1 view .LVU360
 1351 0014 0748     		ldr	r0, .L112+8
 1352              	.LVL139:
 439:Middlewares/Third_Party/LwIP/src/apps/mqtt/mqtt.c ****   for (n = 0; n < r_objs_len; n++) {
 1353              		.loc 1 439 3 discriminator 1 view .LVU361
 1354 0016 FFF7FEFF 		bl	printf
 1355              	.LVL140:
 1356 001a F5E7     		b	.L107
ARM GAS  C:\Users\hh\AppData\Local\Temp\cc3qgJrr.s 			page 41


 1357              	.LVL141:
 1358              	.L109:
 442:Middlewares/Third_Party/LwIP/src/apps/mqtt/mqtt.c ****   }
 1359              		.loc 1 442 5 is_stmt 1 view .LVU362
 442:Middlewares/Third_Party/LwIP/src/apps/mqtt/mqtt.c ****   }
 1360              		.loc 1 442 11 is_stmt 0 view .LVU363
 1361 001c 05EB0312 		add	r2, r5, r3, lsl #4
 442:Middlewares/Third_Party/LwIP/src/apps/mqtt/mqtt.c ****   }
 1362              		.loc 1 442 20 view .LVU364
 1363 0020 1260     		str	r2, [r2]
 440:Middlewares/Third_Party/LwIP/src/apps/mqtt/mqtt.c ****     /* Item pointing to itself indicates unused */
 1364              		.loc 1 440 32 is_stmt 1 discriminator 3 view .LVU365
 1365 0022 0133     		adds	r3, r3, #1
 1366              	.LVL142:
 440:Middlewares/Third_Party/LwIP/src/apps/mqtt/mqtt.c ****     /* Item pointing to itself indicates unused */
 1367              		.loc 1 440 32 is_stmt 0 discriminator 3 view .LVU366
 1368 0024 DBB2     		uxtb	r3, r3
 1369              	.LVL143:
 1370              	.L108:
 440:Middlewares/Third_Party/LwIP/src/apps/mqtt/mqtt.c ****     /* Item pointing to itself indicates unused */
 1371              		.loc 1 440 17 is_stmt 1 discriminator 1 view .LVU367
 1372 0026 A342     		cmp	r3, r4
 1373 0028 F8D3     		bcc	.L109
 444:Middlewares/Third_Party/LwIP/src/apps/mqtt/mqtt.c **** 
 1374              		.loc 1 444 1 is_stmt 0 view .LVU368
 1375 002a 38BD     		pop	{r3, r4, r5, pc}
 1376              	.LVL144:
 1377              	.L113:
 444:Middlewares/Third_Party/LwIP/src/apps/mqtt/mqtt.c **** 
 1378              		.loc 1 444 1 view .LVU369
 1379              		.align	2
 1380              	.L112:
 1381 002c 00000000 		.word	.LC0
 1382 0030 00000000 		.word	.LC10
 1383 0034 58000000 		.word	.LC2
 1384              		.cfi_endproc
 1385              	.LFE184:
 1387              		.section	.text.mqtt_output_send,"ax",%progbits
 1388              		.align	1
 1389              		.syntax unified
 1390              		.thumb
 1391              		.thumb_func
 1393              	mqtt_output_send:
 1394              	.LVL145:
 1395              	.LFB177:
 235:Middlewares/Third_Party/LwIP/src/apps/mqtt/mqtt.c ****   err_t err;
 1396              		.loc 1 235 1 is_stmt 1 view -0
 1397              		.cfi_startproc
 1398              		@ args = 0, pretend = 0, frame = 0
 1399              		@ frame_needed = 0, uses_anonymous_args = 0
 235:Middlewares/Third_Party/LwIP/src/apps/mqtt/mqtt.c ****   err_t err;
 1400              		.loc 1 235 1 is_stmt 0 view .LVU371
 1401 0000 F8B5     		push	{r3, r4, r5, r6, r7, lr}
 1402              	.LCFI14:
 1403              		.cfi_def_cfa_offset 24
 1404              		.cfi_offset 3, -24
 1405              		.cfi_offset 4, -20
ARM GAS  C:\Users\hh\AppData\Local\Temp\cc3qgJrr.s 			page 42


 1406              		.cfi_offset 5, -16
 1407              		.cfi_offset 6, -12
 1408              		.cfi_offset 7, -8
 1409              		.cfi_offset 14, -4
 1410 0002 0446     		mov	r4, r0
 1411 0004 0D46     		mov	r5, r1
 236:Middlewares/Third_Party/LwIP/src/apps/mqtt/mqtt.c ****   u8_t wrap = 0;
 1412              		.loc 1 236 3 is_stmt 1 view .LVU372
 237:Middlewares/Third_Party/LwIP/src/apps/mqtt/mqtt.c ****   u16_t ringbuf_lin_len = mqtt_ringbuf_linear_read_length(rb);
 1413              		.loc 1 237 3 view .LVU373
 1414              	.LVL146:
 238:Middlewares/Third_Party/LwIP/src/apps/mqtt/mqtt.c ****   u16_t send_len = altcp_sndbuf(tpcb);
 1415              		.loc 1 238 3 view .LVU374
 238:Middlewares/Third_Party/LwIP/src/apps/mqtt/mqtt.c ****   u16_t send_len = altcp_sndbuf(tpcb);
 1416              		.loc 1 238 27 is_stmt 0 view .LVU375
 1417 0006 FFF7FEFF 		bl	mqtt_ringbuf_len
 1418              	.LVL147:
 238:Middlewares/Third_Party/LwIP/src/apps/mqtt/mqtt.c ****   u16_t send_len = altcp_sndbuf(tpcb);
 1419              		.loc 1 238 27 discriminator 1 view .LVU376
 1420 000a 6388     		ldrh	r3, [r4, #2]
 1421 000c C3F58072 		rsb	r2, r3, #256
 238:Middlewares/Third_Party/LwIP/src/apps/mqtt/mqtt.c ****   u16_t send_len = altcp_sndbuf(tpcb);
 1422              		.loc 1 238 9 discriminator 1 view .LVU377
 1423 0010 9042     		cmp	r0, r2
 1424 0012 22DA     		bge	.L115
 1425              	.LVL148:
 239:Middlewares/Third_Party/LwIP/src/apps/mqtt/mqtt.c ****   LWIP_ASSERT("mqtt_output_send: tpcb != NULL", tpcb != NULL);
 1426              		.loc 1 239 3 is_stmt 1 view .LVU378
 239:Middlewares/Third_Party/LwIP/src/apps/mqtt/mqtt.c ****   LWIP_ASSERT("mqtt_output_send: tpcb != NULL", tpcb != NULL);
 1427              		.loc 1 239 9 is_stmt 0 view .LVU379
 1428 0014 B5F86460 		ldrh	r6, [r5, #100]
 1429              	.LVL149:
 240:Middlewares/Third_Party/LwIP/src/apps/mqtt/mqtt.c **** 
 1430              		.loc 1 240 3 is_stmt 1 view .LVU380
 240:Middlewares/Third_Party/LwIP/src/apps/mqtt/mqtt.c **** 
 1431              		.loc 1 240 3 view .LVU381
 238:Middlewares/Third_Party/LwIP/src/apps/mqtt/mqtt.c ****   u16_t send_len = altcp_sndbuf(tpcb);
 1432              		.loc 1 238 27 is_stmt 0 discriminator 2 view .LVU382
 1433 0018 0346     		mov	r3, r0
 1434              	.LVL150:
 1435              	.L116:
 240:Middlewares/Third_Party/LwIP/src/apps/mqtt/mqtt.c **** 
 1436              		.loc 1 240 3 is_stmt 1 view .LVU383
 240:Middlewares/Third_Party/LwIP/src/apps/mqtt/mqtt.c **** 
 1437              		.loc 1 240 3 view .LVU384
 242:Middlewares/Third_Party/LwIP/src/apps/mqtt/mqtt.c ****     return;
 1438              		.loc 1 242 3 view .LVU385
 242:Middlewares/Third_Party/LwIP/src/apps/mqtt/mqtt.c ****     return;
 1439              		.loc 1 242 6 is_stmt 0 view .LVU386
 1440 001a 002B     		cmp	r3, #0
 1441 001c 18BF     		it	ne
 1442 001e 002E     		cmpne	r6, #0
 1443 0020 1AD0     		beq	.L114
 247:Middlewares/Third_Party/LwIP/src/apps/mqtt/mqtt.c **** 
 1444              		.loc 1 247 79 is_stmt 1 view .LVU387
 249:Middlewares/Third_Party/LwIP/src/apps/mqtt/mqtt.c ****     /* Space in TCP output buffer is larger than available in ring buffer linear portion */
 1445              		.loc 1 249 3 view .LVU388
ARM GAS  C:\Users\hh\AppData\Local\Temp\cc3qgJrr.s 			page 43


 249:Middlewares/Third_Party/LwIP/src/apps/mqtt/mqtt.c ****     /* Space in TCP output buffer is larger than available in ring buffer linear portion */
 1446              		.loc 1 249 6 is_stmt 0 view .LVU389
 1447 0022 B342     		cmp	r3, r6
 1448 0024 1FD2     		bcs	.L123
 251:Middlewares/Third_Party/LwIP/src/apps/mqtt/mqtt.c ****     /* Wrap around if more data in ring buffer after linear portion */
 1449              		.loc 1 251 5 is_stmt 1 view .LVU390
 1450              	.LVL151:
 253:Middlewares/Third_Party/LwIP/src/apps/mqtt/mqtt.c ****   }
 1451              		.loc 1 253 5 view .LVU391
 253:Middlewares/Third_Party/LwIP/src/apps/mqtt/mqtt.c ****   }
 1452              		.loc 1 253 34 is_stmt 0 discriminator 1 view .LVU392
 1453 0026 9842     		cmp	r0, r3
 1454 0028 94BF     		ite	ls
 1455 002a 0022     		movls	r2, #0
 1456 002c 0122     		movhi	r2, #1
 1457 002e 1746     		mov	r7, r2
 1458              	.LVL152:
 251:Middlewares/Third_Party/LwIP/src/apps/mqtt/mqtt.c ****     /* Wrap around if more data in ring buffer after linear portion */
 1459              		.loc 1 251 14 view .LVU393
 1460 0030 1E46     		mov	r6, r3
 1461              	.LVL153:
 1462              	.L118:
 255:Middlewares/Third_Party/LwIP/src/apps/mqtt/mqtt.c ****   if ((err == ERR_OK) && wrap) {
 1463              		.loc 1 255 3 is_stmt 1 view .LVU394
 255:Middlewares/Third_Party/LwIP/src/apps/mqtt/mqtt.c ****   if ((err == ERR_OK) && wrap) {
 1464              		.loc 1 255 27 is_stmt 0 view .LVU395
 1465 0032 2046     		mov	r0, r4
 1466 0034 FFF7FEFF 		bl	mqtt_ringbuf_get_ptr
 1467              	.LVL154:
 1468 0038 0146     		mov	r1, r0
 255:Middlewares/Third_Party/LwIP/src/apps/mqtt/mqtt.c ****   if ((err == ERR_OK) && wrap) {
 1469              		.loc 1 255 9 discriminator 1 view .LVU396
 1470 003a BFB1     		cbz	r7, .L124
 255:Middlewares/Third_Party/LwIP/src/apps/mqtt/mqtt.c ****   if ((err == ERR_OK) && wrap) {
 1471              		.loc 1 255 9 discriminator 2 view .LVU397
 1472 003c 0323     		movs	r3, #3
 1473              	.L119:
 255:Middlewares/Third_Party/LwIP/src/apps/mqtt/mqtt.c ****   if ((err == ERR_OK) && wrap) {
 1474              		.loc 1 255 9 discriminator 5 view .LVU398
 1475 003e 3246     		mov	r2, r6
 1476 0040 2846     		mov	r0, r5
 1477 0042 FFF7FEFF 		bl	tcp_write
 1478              	.LVL155:
 256:Middlewares/Third_Party/LwIP/src/apps/mqtt/mqtt.c ****     mqtt_ringbuf_advance_get_idx(rb, send_len);
 1479              		.loc 1 256 3 is_stmt 1 view .LVU399
 256:Middlewares/Third_Party/LwIP/src/apps/mqtt/mqtt.c ****     mqtt_ringbuf_advance_get_idx(rb, send_len);
 1480              		.loc 1 256 12 is_stmt 0 view .LVU400
 1481 0046 0246     		mov	r2, r0
 256:Middlewares/Third_Party/LwIP/src/apps/mqtt/mqtt.c ****     mqtt_ringbuf_advance_get_idx(rb, send_len);
 1482              		.loc 1 256 23 view .LVU401
 1483 0048 3B46     		mov	r3, r7
 1484 004a 0028     		cmp	r0, #0
 1485 004c 14BF     		ite	ne
 1486 004e 0023     		movne	r3, #0
 1487 0050 03F00103 		andeq	r3, r3, #1
 256:Middlewares/Third_Party/LwIP/src/apps/mqtt/mqtt.c ****     mqtt_ringbuf_advance_get_idx(rb, send_len);
 1488              		.loc 1 256 6 view .LVU402
ARM GAS  C:\Users\hh\AppData\Local\Temp\cc3qgJrr.s 			page 44


 1489 0054 63B9     		cbnz	r3, .L128
 1490              	.LVL156:
 1491              	.L120:
 263:Middlewares/Third_Party/LwIP/src/apps/mqtt/mqtt.c ****     mqtt_ringbuf_advance_get_idx(rb, send_len);
 1492              		.loc 1 263 3 is_stmt 1 view .LVU403
 263:Middlewares/Third_Party/LwIP/src/apps/mqtt/mqtt.c ****     mqtt_ringbuf_advance_get_idx(rb, send_len);
 1493              		.loc 1 263 6 is_stmt 0 view .LVU404
 1494 0056 8AB3     		cbz	r2, .L129
 1495              	.LVL157:
 1496              	.L114:
 270:Middlewares/Third_Party/LwIP/src/apps/mqtt/mqtt.c **** 
 1497              		.loc 1 270 1 view .LVU405
 1498 0058 F8BD     		pop	{r3, r4, r5, r6, r7, pc}
 1499              	.LVL158:
 1500              	.L115:
 238:Middlewares/Third_Party/LwIP/src/apps/mqtt/mqtt.c ****   u16_t send_len = altcp_sndbuf(tpcb);
 1501              		.loc 1 238 9 discriminator 3 view .LVU406
 1502 005a C3F58073 		rsb	r3, r3, #256
 1503 005e 9BB2     		uxth	r3, r3
 1504              	.LVL159:
 239:Middlewares/Third_Party/LwIP/src/apps/mqtt/mqtt.c ****   LWIP_ASSERT("mqtt_output_send: tpcb != NULL", tpcb != NULL);
 1505              		.loc 1 239 3 is_stmt 1 view .LVU407
 239:Middlewares/Third_Party/LwIP/src/apps/mqtt/mqtt.c ****   LWIP_ASSERT("mqtt_output_send: tpcb != NULL", tpcb != NULL);
 1506              		.loc 1 239 9 is_stmt 0 view .LVU408
 1507 0060 B5F86460 		ldrh	r6, [r5, #100]
 1508              	.LVL160:
 240:Middlewares/Third_Party/LwIP/src/apps/mqtt/mqtt.c **** 
 1509              		.loc 1 240 3 is_stmt 1 view .LVU409
 240:Middlewares/Third_Party/LwIP/src/apps/mqtt/mqtt.c **** 
 1510              		.loc 1 240 3 view .LVU410
 1511 0064 D9E7     		b	.L116
 1512              	.LVL161:
 1513              	.L123:
 237:Middlewares/Third_Party/LwIP/src/apps/mqtt/mqtt.c ****   u16_t ringbuf_lin_len = mqtt_ringbuf_linear_read_length(rb);
 1514              		.loc 1 237 8 is_stmt 0 view .LVU411
 1515 0066 0023     		movs	r3, #0
 1516 0068 1F46     		mov	r7, r3
 1517 006a E2E7     		b	.L118
 1518              	.LVL162:
 1519              	.L124:
 255:Middlewares/Third_Party/LwIP/src/apps/mqtt/mqtt.c ****   if ((err == ERR_OK) && wrap) {
 1520              		.loc 1 255 9 discriminator 3 view .LVU412
 1521 006c 0123     		movs	r3, #1
 1522 006e E6E7     		b	.L119
 1523              	.LVL163:
 1524              	.L128:
 257:Middlewares/Third_Party/LwIP/src/apps/mqtt/mqtt.c ****     /* Use the lesser one of ring buffer linear length and TCP send buffer size */
 1525              		.loc 1 257 5 is_stmt 1 view .LVU413
 1526 0070 3146     		mov	r1, r6
 1527 0072 2046     		mov	r0, r4
 1528              	.LVL164:
 257:Middlewares/Third_Party/LwIP/src/apps/mqtt/mqtt.c ****     /* Use the lesser one of ring buffer linear length and TCP send buffer size */
 1529              		.loc 1 257 5 is_stmt 0 view .LVU414
 1530 0074 FFF7FEFF 		bl	mqtt_ringbuf_advance_get_idx
 1531              	.LVL165:
 259:Middlewares/Third_Party/LwIP/src/apps/mqtt/mqtt.c ****     err = altcp_write(tpcb, mqtt_ringbuf_get_ptr(rb), send_len, TCP_WRITE_FLAG_COPY);
 1532              		.loc 1 259 5 is_stmt 1 view .LVU415
ARM GAS  C:\Users\hh\AppData\Local\Temp\cc3qgJrr.s 			page 45


 259:Middlewares/Third_Party/LwIP/src/apps/mqtt/mqtt.c ****     err = altcp_write(tpcb, mqtt_ringbuf_get_ptr(rb), send_len, TCP_WRITE_FLAG_COPY);
 1533              		.loc 1 259 16 is_stmt 0 view .LVU416
 1534 0078 B5F86460 		ldrh	r6, [r5, #100]
 1535              	.LVL166:
 259:Middlewares/Third_Party/LwIP/src/apps/mqtt/mqtt.c ****     err = altcp_write(tpcb, mqtt_ringbuf_get_ptr(rb), send_len, TCP_WRITE_FLAG_COPY);
 1536              		.loc 1 259 16 view .LVU417
 1537 007c 3746     		mov	r7, r6
 1538              	.LVL167:
 259:Middlewares/Third_Party/LwIP/src/apps/mqtt/mqtt.c ****     err = altcp_write(tpcb, mqtt_ringbuf_get_ptr(rb), send_len, TCP_WRITE_FLAG_COPY);
 1539              		.loc 1 259 16 view .LVU418
 1540 007e 2046     		mov	r0, r4
 1541 0080 FFF7FEFF 		bl	mqtt_ringbuf_len
 1542              	.LVL168:
 259:Middlewares/Third_Party/LwIP/src/apps/mqtt/mqtt.c ****     err = altcp_write(tpcb, mqtt_ringbuf_get_ptr(rb), send_len, TCP_WRITE_FLAG_COPY);
 1543              		.loc 1 259 16 discriminator 1 view .LVU419
 1544 0084 6288     		ldrh	r2, [r4, #2]
 1545 0086 C2F58073 		rsb	r3, r2, #256
 1546 008a 9842     		cmp	r0, r3
 1547 008c 12DA     		bge	.L125
 259:Middlewares/Third_Party/LwIP/src/apps/mqtt/mqtt.c ****     err = altcp_write(tpcb, mqtt_ringbuf_get_ptr(rb), send_len, TCP_WRITE_FLAG_COPY);
 1548              		.loc 1 259 16 discriminator 4 view .LVU420
 1549 008e 0146     		mov	r1, r0
 1550              	.L121:
 259:Middlewares/Third_Party/LwIP/src/apps/mqtt/mqtt.c ****     err = altcp_write(tpcb, mqtt_ringbuf_get_ptr(rb), send_len, TCP_WRITE_FLAG_COPY);
 1551              		.loc 1 259 14 discriminator 6 view .LVU421
 1552 0090 8F42     		cmp	r7, r1
 1553 0092 04DB     		blt	.L122
 259:Middlewares/Third_Party/LwIP/src/apps/mqtt/mqtt.c ****     err = altcp_write(tpcb, mqtt_ringbuf_get_ptr(rb), send_len, TCP_WRITE_FLAG_COPY);
 1554              		.loc 1 259 14 discriminator 9 view .LVU422
 1555 0094 9842     		cmp	r0, r3
 1556 0096 0FDB     		blt	.L126
 259:Middlewares/Third_Party/LwIP/src/apps/mqtt/mqtt.c ****     err = altcp_write(tpcb, mqtt_ringbuf_get_ptr(rb), send_len, TCP_WRITE_FLAG_COPY);
 1557              		.loc 1 259 14 discriminator 11 view .LVU423
 1558 0098 C2F58072 		rsb	r2, r2, #256
 1559 009c 96B2     		uxth	r6, r2
 1560              	.LVL169:
 1561              	.L122:
 260:Middlewares/Third_Party/LwIP/src/apps/mqtt/mqtt.c ****   }
 1562              		.loc 1 260 5 is_stmt 1 view .LVU424
 260:Middlewares/Third_Party/LwIP/src/apps/mqtt/mqtt.c ****   }
 1563              		.loc 1 260 29 is_stmt 0 view .LVU425
 1564 009e 2046     		mov	r0, r4
 1565 00a0 FFF7FEFF 		bl	mqtt_ringbuf_get_ptr
 1566              	.LVL170:
 1567 00a4 0146     		mov	r1, r0
 260:Middlewares/Third_Party/LwIP/src/apps/mqtt/mqtt.c ****   }
 1568              		.loc 1 260 11 discriminator 1 view .LVU426
 1569 00a6 0123     		movs	r3, #1
 1570 00a8 3246     		mov	r2, r6
 1571 00aa 2846     		mov	r0, r5
 1572 00ac FFF7FEFF 		bl	tcp_write
 1573              	.LVL171:
 1574 00b0 0246     		mov	r2, r0
 1575 00b2 D0E7     		b	.L120
 1576              	.LVL172:
 1577              	.L125:
 259:Middlewares/Third_Party/LwIP/src/apps/mqtt/mqtt.c ****     err = altcp_write(tpcb, mqtt_ringbuf_get_ptr(rb), send_len, TCP_WRITE_FLAG_COPY);
ARM GAS  C:\Users\hh\AppData\Local\Temp\cc3qgJrr.s 			page 46


 1578              		.loc 1 259 16 discriminator 3 view .LVU427
 1579 00b4 1946     		mov	r1, r3
 1580 00b6 EBE7     		b	.L121
 1581              	.L126:
 259:Middlewares/Third_Party/LwIP/src/apps/mqtt/mqtt.c ****     err = altcp_write(tpcb, mqtt_ringbuf_get_ptr(rb), send_len, TCP_WRITE_FLAG_COPY);
 1582              		.loc 1 259 16 discriminator 10 view .LVU428
 1583 00b8 0646     		mov	r6, r0
 1584 00ba F0E7     		b	.L122
 1585              	.LVL173:
 1586              	.L129:
 264:Middlewares/Third_Party/LwIP/src/apps/mqtt/mqtt.c ****     /* Flush */
 1587              		.loc 1 264 5 is_stmt 1 view .LVU429
 1588 00bc 3146     		mov	r1, r6
 1589 00be 2046     		mov	r0, r4
 1590 00c0 FFF7FEFF 		bl	mqtt_ringbuf_advance_get_idx
 1591              	.LVL174:
 266:Middlewares/Third_Party/LwIP/src/apps/mqtt/mqtt.c ****   } else {
 1592              		.loc 1 266 5 view .LVU430
 1593 00c4 2846     		mov	r0, r5
 1594 00c6 FFF7FEFF 		bl	tcp_output
 1595              	.LVL175:
 268:Middlewares/Third_Party/LwIP/src/apps/mqtt/mqtt.c ****   }
 1596              		.loc 1 268 114 view .LVU431
 1597 00ca C5E7     		b	.L114
 1598              		.cfi_endproc
 1599              	.LFE177:
 1601              		.section	.text.mqtt_tcp_poll_cb,"ax",%progbits
 1602              		.align	1
 1603              		.syntax unified
 1604              		.thumb
 1605              		.thumb_func
 1607              	mqtt_tcp_poll_cb:
 1608              	.LVL176:
 1609              	.LFB200:
 661:Middlewares/Third_Party/LwIP/src/apps/mqtt/mqtt.c **** 
 662:Middlewares/Third_Party/LwIP/src/apps/mqtt/mqtt.c **** 
 663:Middlewares/Third_Party/LwIP/src/apps/mqtt/mqtt.c **** /**
 664:Middlewares/Third_Party/LwIP/src/apps/mqtt/mqtt.c ****  * Complete MQTT message received or buffer full
 665:Middlewares/Third_Party/LwIP/src/apps/mqtt/mqtt.c ****  * @param client MQTT client
 666:Middlewares/Third_Party/LwIP/src/apps/mqtt/mqtt.c ****  * @param fixed_hdr_len length of fixed header
 667:Middlewares/Third_Party/LwIP/src/apps/mqtt/mqtt.c ****  * @param length length received part
 668:Middlewares/Third_Party/LwIP/src/apps/mqtt/mqtt.c ****  * @param remaining_length Remaining length of complete message
 669:Middlewares/Third_Party/LwIP/src/apps/mqtt/mqtt.c ****  */
 670:Middlewares/Third_Party/LwIP/src/apps/mqtt/mqtt.c **** static mqtt_connection_status_t
 671:Middlewares/Third_Party/LwIP/src/apps/mqtt/mqtt.c **** mqtt_message_received(mqtt_client_t *client, u8_t fixed_hdr_len, u16_t length, u32_t remaining_leng
 672:Middlewares/Third_Party/LwIP/src/apps/mqtt/mqtt.c ****                       u8_t *var_hdr_payload)
 673:Middlewares/Third_Party/LwIP/src/apps/mqtt/mqtt.c **** {
 674:Middlewares/Third_Party/LwIP/src/apps/mqtt/mqtt.c ****   mqtt_connection_status_t res = MQTT_CONNECT_ACCEPTED;
 675:Middlewares/Third_Party/LwIP/src/apps/mqtt/mqtt.c **** 
 676:Middlewares/Third_Party/LwIP/src/apps/mqtt/mqtt.c ****   /* Control packet type */
 677:Middlewares/Third_Party/LwIP/src/apps/mqtt/mqtt.c ****   u8_t pkt_type = MQTT_CTL_PACKET_TYPE(client->rx_buffer[0]);
 678:Middlewares/Third_Party/LwIP/src/apps/mqtt/mqtt.c ****   u16_t pkt_id = 0;
 679:Middlewares/Third_Party/LwIP/src/apps/mqtt/mqtt.c **** 
 680:Middlewares/Third_Party/LwIP/src/apps/mqtt/mqtt.c ****   LWIP_ASSERT("fixed_hdr_len <= client->msg_idx", fixed_hdr_len <= client->msg_idx);
 681:Middlewares/Third_Party/LwIP/src/apps/mqtt/mqtt.c ****   LWIP_ERROR("buffer length mismatch", fixed_hdr_len + length <= MQTT_VAR_HEADER_BUFFER_LEN,
 682:Middlewares/Third_Party/LwIP/src/apps/mqtt/mqtt.c ****              return MQTT_CONNECT_DISCONNECTED);
 683:Middlewares/Third_Party/LwIP/src/apps/mqtt/mqtt.c **** 
ARM GAS  C:\Users\hh\AppData\Local\Temp\cc3qgJrr.s 			page 47


 684:Middlewares/Third_Party/LwIP/src/apps/mqtt/mqtt.c ****   if (pkt_type == MQTT_MSG_TYPE_CONNACK) {
 685:Middlewares/Third_Party/LwIP/src/apps/mqtt/mqtt.c ****     if (client->conn_state == MQTT_CONNECTING) {
 686:Middlewares/Third_Party/LwIP/src/apps/mqtt/mqtt.c ****       if (length < 2) {
 687:Middlewares/Third_Party/LwIP/src/apps/mqtt/mqtt.c ****         LWIP_DEBUGF(MQTT_DEBUG_WARN,( "mqtt_message_received: Received short CONNACK message\n"));
 688:Middlewares/Third_Party/LwIP/src/apps/mqtt/mqtt.c ****         goto out_disconnect;
 689:Middlewares/Third_Party/LwIP/src/apps/mqtt/mqtt.c ****       }
 690:Middlewares/Third_Party/LwIP/src/apps/mqtt/mqtt.c ****       /* Get result code from CONNACK */
 691:Middlewares/Third_Party/LwIP/src/apps/mqtt/mqtt.c ****       res = (mqtt_connection_status_t)var_hdr_payload[1];
 692:Middlewares/Third_Party/LwIP/src/apps/mqtt/mqtt.c ****       LWIP_DEBUGF(MQTT_DEBUG_TRACE, ("mqtt_message_received: Connect response code %d\n", res));
 693:Middlewares/Third_Party/LwIP/src/apps/mqtt/mqtt.c ****       if (res == MQTT_CONNECT_ACCEPTED) {
 694:Middlewares/Third_Party/LwIP/src/apps/mqtt/mqtt.c ****         /* Reset cyclic_tick when changing to connected state */
 695:Middlewares/Third_Party/LwIP/src/apps/mqtt/mqtt.c ****         client->cyclic_tick = 0;
 696:Middlewares/Third_Party/LwIP/src/apps/mqtt/mqtt.c ****         client->conn_state = MQTT_CONNECTED;
 697:Middlewares/Third_Party/LwIP/src/apps/mqtt/mqtt.c ****         /* Notify upper layer */
 698:Middlewares/Third_Party/LwIP/src/apps/mqtt/mqtt.c ****         if (client->connect_cb != NULL) {
 699:Middlewares/Third_Party/LwIP/src/apps/mqtt/mqtt.c ****           client->connect_cb(client, client->connect_arg, res);
 700:Middlewares/Third_Party/LwIP/src/apps/mqtt/mqtt.c ****         }
 701:Middlewares/Third_Party/LwIP/src/apps/mqtt/mqtt.c ****       }
 702:Middlewares/Third_Party/LwIP/src/apps/mqtt/mqtt.c ****     } else {
 703:Middlewares/Third_Party/LwIP/src/apps/mqtt/mqtt.c ****       LWIP_DEBUGF(MQTT_DEBUG_WARN, ("mqtt_message_received: Received CONNACK in connected state\n")
 704:Middlewares/Third_Party/LwIP/src/apps/mqtt/mqtt.c ****     }
 705:Middlewares/Third_Party/LwIP/src/apps/mqtt/mqtt.c ****   } else if (pkt_type == MQTT_MSG_TYPE_PINGRESP) {
 706:Middlewares/Third_Party/LwIP/src/apps/mqtt/mqtt.c ****     LWIP_DEBUGF(MQTT_DEBUG_TRACE, ( "mqtt_message_received: Received PINGRESP from server\n"));
 707:Middlewares/Third_Party/LwIP/src/apps/mqtt/mqtt.c **** 
 708:Middlewares/Third_Party/LwIP/src/apps/mqtt/mqtt.c ****   } else if (pkt_type == MQTT_MSG_TYPE_PUBLISH) {
 709:Middlewares/Third_Party/LwIP/src/apps/mqtt/mqtt.c ****     u16_t payload_offset = 0;
 710:Middlewares/Third_Party/LwIP/src/apps/mqtt/mqtt.c ****     u16_t payload_length = length;
 711:Middlewares/Third_Party/LwIP/src/apps/mqtt/mqtt.c ****     u8_t qos = MQTT_CTL_PACKET_QOS(client->rx_buffer[0]);
 712:Middlewares/Third_Party/LwIP/src/apps/mqtt/mqtt.c **** 
 713:Middlewares/Third_Party/LwIP/src/apps/mqtt/mqtt.c ****     if (client->msg_idx == (u32_t)(fixed_hdr_len + length)) {
 714:Middlewares/Third_Party/LwIP/src/apps/mqtt/mqtt.c ****       /* First publish message frame. Should have topic and pkt id*/
 715:Middlewares/Third_Party/LwIP/src/apps/mqtt/mqtt.c ****       size_t var_hdr_payload_bufsize = sizeof(client->rx_buffer) - fixed_hdr_len;
 716:Middlewares/Third_Party/LwIP/src/apps/mqtt/mqtt.c ****       u8_t *topic;
 717:Middlewares/Third_Party/LwIP/src/apps/mqtt/mqtt.c ****       u16_t after_topic;
 718:Middlewares/Third_Party/LwIP/src/apps/mqtt/mqtt.c ****       u8_t bkp;
 719:Middlewares/Third_Party/LwIP/src/apps/mqtt/mqtt.c ****       u16_t topic_len;
 720:Middlewares/Third_Party/LwIP/src/apps/mqtt/mqtt.c ****       u16_t qos_len = (qos ? 2U : 0U);
 721:Middlewares/Third_Party/LwIP/src/apps/mqtt/mqtt.c ****       if (length < 2 + qos_len) {
 722:Middlewares/Third_Party/LwIP/src/apps/mqtt/mqtt.c ****         LWIP_DEBUGF(MQTT_DEBUG_WARN,( "mqtt_message_received: Received short PUBLISH packet\n"));
 723:Middlewares/Third_Party/LwIP/src/apps/mqtt/mqtt.c ****         goto out_disconnect;
 724:Middlewares/Third_Party/LwIP/src/apps/mqtt/mqtt.c ****       }
 725:Middlewares/Third_Party/LwIP/src/apps/mqtt/mqtt.c ****       topic_len = var_hdr_payload[0];
 726:Middlewares/Third_Party/LwIP/src/apps/mqtt/mqtt.c ****       topic_len = (topic_len << 8) + (u16_t)(var_hdr_payload[1]);
 727:Middlewares/Third_Party/LwIP/src/apps/mqtt/mqtt.c ****       if ((topic_len > length - (2 + qos_len)) ||
 728:Middlewares/Third_Party/LwIP/src/apps/mqtt/mqtt.c ****           (topic_len > var_hdr_payload_bufsize - (2 + qos_len))) {
 729:Middlewares/Third_Party/LwIP/src/apps/mqtt/mqtt.c ****         LWIP_DEBUGF(MQTT_DEBUG_WARN,( "mqtt_message_received: Received short PUBLISH packet (topic)
 730:Middlewares/Third_Party/LwIP/src/apps/mqtt/mqtt.c ****         goto out_disconnect;
 731:Middlewares/Third_Party/LwIP/src/apps/mqtt/mqtt.c ****       }
 732:Middlewares/Third_Party/LwIP/src/apps/mqtt/mqtt.c **** 
 733:Middlewares/Third_Party/LwIP/src/apps/mqtt/mqtt.c ****       topic = var_hdr_payload + 2;
 734:Middlewares/Third_Party/LwIP/src/apps/mqtt/mqtt.c ****       after_topic = 2 + topic_len;
 735:Middlewares/Third_Party/LwIP/src/apps/mqtt/mqtt.c ****       /* Check buffer length, add one byte even for QoS 0 so that zero termination will fit */
 736:Middlewares/Third_Party/LwIP/src/apps/mqtt/mqtt.c ****       if ((after_topic + (qos ? 2U : 1U)) > var_hdr_payload_bufsize) {
 737:Middlewares/Third_Party/LwIP/src/apps/mqtt/mqtt.c ****         LWIP_DEBUGF(MQTT_DEBUG_WARN, ("mqtt_message_received: Receive buffer can not fit topic + pk
 738:Middlewares/Third_Party/LwIP/src/apps/mqtt/mqtt.c ****         goto out_disconnect;
 739:Middlewares/Third_Party/LwIP/src/apps/mqtt/mqtt.c ****       }
 740:Middlewares/Third_Party/LwIP/src/apps/mqtt/mqtt.c **** 
ARM GAS  C:\Users\hh\AppData\Local\Temp\cc3qgJrr.s 			page 48


 741:Middlewares/Third_Party/LwIP/src/apps/mqtt/mqtt.c ****       /* id for QoS 1 and 2 */
 742:Middlewares/Third_Party/LwIP/src/apps/mqtt/mqtt.c ****       if (qos > 0) {
 743:Middlewares/Third_Party/LwIP/src/apps/mqtt/mqtt.c ****         if (length < after_topic + 2U) {
 744:Middlewares/Third_Party/LwIP/src/apps/mqtt/mqtt.c ****           LWIP_DEBUGF(MQTT_DEBUG_WARN,( "mqtt_message_received: Received short PUBLISH packet (afte
 745:Middlewares/Third_Party/LwIP/src/apps/mqtt/mqtt.c ****           goto out_disconnect;
 746:Middlewares/Third_Party/LwIP/src/apps/mqtt/mqtt.c ****         }
 747:Middlewares/Third_Party/LwIP/src/apps/mqtt/mqtt.c ****         client->inpub_pkt_id = ((u16_t)var_hdr_payload[after_topic] << 8) + (u16_t)var_hdr_payload[
 748:Middlewares/Third_Party/LwIP/src/apps/mqtt/mqtt.c ****         after_topic += 2;
 749:Middlewares/Third_Party/LwIP/src/apps/mqtt/mqtt.c ****       } else {
 750:Middlewares/Third_Party/LwIP/src/apps/mqtt/mqtt.c ****         client->inpub_pkt_id = 0;
 751:Middlewares/Third_Party/LwIP/src/apps/mqtt/mqtt.c ****       }
 752:Middlewares/Third_Party/LwIP/src/apps/mqtt/mqtt.c ****       /* Take backup of byte after topic */
 753:Middlewares/Third_Party/LwIP/src/apps/mqtt/mqtt.c ****       bkp = topic[topic_len];
 754:Middlewares/Third_Party/LwIP/src/apps/mqtt/mqtt.c ****       /* Zero terminate string */
 755:Middlewares/Third_Party/LwIP/src/apps/mqtt/mqtt.c ****       topic[topic_len] = 0;
 756:Middlewares/Third_Party/LwIP/src/apps/mqtt/mqtt.c ****       /* Payload data remaining in receive buffer */
 757:Middlewares/Third_Party/LwIP/src/apps/mqtt/mqtt.c ****       payload_length = length - after_topic;
 758:Middlewares/Third_Party/LwIP/src/apps/mqtt/mqtt.c ****       payload_offset = after_topic;
 759:Middlewares/Third_Party/LwIP/src/apps/mqtt/mqtt.c **** 
 760:Middlewares/Third_Party/LwIP/src/apps/mqtt/mqtt.c ****       LWIP_DEBUGF(MQTT_DEBUG_TRACE, ("mqtt_incoming_publish: Received message with QoS %d at topic:
 761:Middlewares/Third_Party/LwIP/src/apps/mqtt/mqtt.c ****                                      qos, topic, remaining_length + payload_length));
 762:Middlewares/Third_Party/LwIP/src/apps/mqtt/mqtt.c ****       if (client->pub_cb != NULL) {
 763:Middlewares/Third_Party/LwIP/src/apps/mqtt/mqtt.c ****         client->pub_cb(client->inpub_arg, (const char *)topic, remaining_length + payload_length);
 764:Middlewares/Third_Party/LwIP/src/apps/mqtt/mqtt.c ****       }
 765:Middlewares/Third_Party/LwIP/src/apps/mqtt/mqtt.c ****       /* Restore byte after topic */
 766:Middlewares/Third_Party/LwIP/src/apps/mqtt/mqtt.c ****       topic[topic_len] = bkp;
 767:Middlewares/Third_Party/LwIP/src/apps/mqtt/mqtt.c ****     }
 768:Middlewares/Third_Party/LwIP/src/apps/mqtt/mqtt.c ****     if (payload_length > 0 || remaining_length == 0) {
 769:Middlewares/Third_Party/LwIP/src/apps/mqtt/mqtt.c ****       if (length < (size_t)(payload_offset + payload_length)) {
 770:Middlewares/Third_Party/LwIP/src/apps/mqtt/mqtt.c ****         LWIP_DEBUGF(MQTT_DEBUG_WARN,( "mqtt_message_received: Received short packet (payload)\n"));
 771:Middlewares/Third_Party/LwIP/src/apps/mqtt/mqtt.c ****         goto out_disconnect;
 772:Middlewares/Third_Party/LwIP/src/apps/mqtt/mqtt.c ****       }
 773:Middlewares/Third_Party/LwIP/src/apps/mqtt/mqtt.c ****       if (client->data_cb != NULL) {
 774:Middlewares/Third_Party/LwIP/src/apps/mqtt/mqtt.c ****         client->data_cb(client->inpub_arg, var_hdr_payload + payload_offset, payload_length, remain
 775:Middlewares/Third_Party/LwIP/src/apps/mqtt/mqtt.c ****       }
 776:Middlewares/Third_Party/LwIP/src/apps/mqtt/mqtt.c ****       /* Reply if QoS > 0 */
 777:Middlewares/Third_Party/LwIP/src/apps/mqtt/mqtt.c ****       if (remaining_length == 0 && qos > 0) {
 778:Middlewares/Third_Party/LwIP/src/apps/mqtt/mqtt.c ****         /* Send PUBACK for QoS 1 or PUBREC for QoS 2 */
 779:Middlewares/Third_Party/LwIP/src/apps/mqtt/mqtt.c ****         u8_t resp_msg = (qos == 1) ? MQTT_MSG_TYPE_PUBACK : MQTT_MSG_TYPE_PUBREC;
 780:Middlewares/Third_Party/LwIP/src/apps/mqtt/mqtt.c ****         LWIP_DEBUGF(MQTT_DEBUG_TRACE, ("mqtt_incoming_publish: Sending publish response: %s with pk
 781:Middlewares/Third_Party/LwIP/src/apps/mqtt/mqtt.c ****                                        mqtt_msg_type_to_str(resp_msg), client->inpub_pkt_id));
 782:Middlewares/Third_Party/LwIP/src/apps/mqtt/mqtt.c ****         pub_ack_rec_rel_response(client, resp_msg, client->inpub_pkt_id, 0);
 783:Middlewares/Third_Party/LwIP/src/apps/mqtt/mqtt.c ****       }
 784:Middlewares/Third_Party/LwIP/src/apps/mqtt/mqtt.c ****     }
 785:Middlewares/Third_Party/LwIP/src/apps/mqtt/mqtt.c ****   } else {
 786:Middlewares/Third_Party/LwIP/src/apps/mqtt/mqtt.c ****     if (length < 2) {
 787:Middlewares/Third_Party/LwIP/src/apps/mqtt/mqtt.c ****       LWIP_DEBUGF(MQTT_DEBUG_WARN,( "mqtt_message_received: Received short message\n"));
 788:Middlewares/Third_Party/LwIP/src/apps/mqtt/mqtt.c ****       goto out_disconnect;
 789:Middlewares/Third_Party/LwIP/src/apps/mqtt/mqtt.c ****     }
 790:Middlewares/Third_Party/LwIP/src/apps/mqtt/mqtt.c ****     /* Get packet identifier */
 791:Middlewares/Third_Party/LwIP/src/apps/mqtt/mqtt.c ****     pkt_id = (u16_t)var_hdr_payload[0] << 8;
 792:Middlewares/Third_Party/LwIP/src/apps/mqtt/mqtt.c ****     pkt_id |= (u16_t)var_hdr_payload[1];
 793:Middlewares/Third_Party/LwIP/src/apps/mqtt/mqtt.c ****     if (pkt_id == 0) {
 794:Middlewares/Third_Party/LwIP/src/apps/mqtt/mqtt.c ****       LWIP_DEBUGF(MQTT_DEBUG_WARN, ("mqtt_message_received: Got message with illegal packet identif
 795:Middlewares/Third_Party/LwIP/src/apps/mqtt/mqtt.c ****       goto out_disconnect;
 796:Middlewares/Third_Party/LwIP/src/apps/mqtt/mqtt.c ****     }
 797:Middlewares/Third_Party/LwIP/src/apps/mqtt/mqtt.c ****     if (pkt_type == MQTT_MSG_TYPE_PUBREC) {
ARM GAS  C:\Users\hh\AppData\Local\Temp\cc3qgJrr.s 			page 49


 798:Middlewares/Third_Party/LwIP/src/apps/mqtt/mqtt.c ****       LWIP_DEBUGF(MQTT_DEBUG_TRACE, ("mqtt_message_received: PUBREC, sending PUBREL with pkt_id: %d
 799:Middlewares/Third_Party/LwIP/src/apps/mqtt/mqtt.c ****       pub_ack_rec_rel_response(client, MQTT_MSG_TYPE_PUBREL, pkt_id, 1);
 800:Middlewares/Third_Party/LwIP/src/apps/mqtt/mqtt.c **** 
 801:Middlewares/Third_Party/LwIP/src/apps/mqtt/mqtt.c ****     } else if (pkt_type == MQTT_MSG_TYPE_PUBREL) {
 802:Middlewares/Third_Party/LwIP/src/apps/mqtt/mqtt.c ****       LWIP_DEBUGF(MQTT_DEBUG_TRACE, ("mqtt_message_received: PUBREL, sending PUBCOMP response with 
 803:Middlewares/Third_Party/LwIP/src/apps/mqtt/mqtt.c ****       pub_ack_rec_rel_response(client, MQTT_MSG_TYPE_PUBCOMP, pkt_id, 0);
 804:Middlewares/Third_Party/LwIP/src/apps/mqtt/mqtt.c **** 
 805:Middlewares/Third_Party/LwIP/src/apps/mqtt/mqtt.c ****     } else if (pkt_type == MQTT_MSG_TYPE_SUBACK || pkt_type == MQTT_MSG_TYPE_UNSUBACK ||
 806:Middlewares/Third_Party/LwIP/src/apps/mqtt/mqtt.c ****                pkt_type == MQTT_MSG_TYPE_PUBCOMP || pkt_type == MQTT_MSG_TYPE_PUBACK) {
 807:Middlewares/Third_Party/LwIP/src/apps/mqtt/mqtt.c ****       struct mqtt_request_t *r = mqtt_take_request(&client->pend_req_queue, pkt_id);
 808:Middlewares/Third_Party/LwIP/src/apps/mqtt/mqtt.c ****       if (r != NULL) {
 809:Middlewares/Third_Party/LwIP/src/apps/mqtt/mqtt.c ****         LWIP_DEBUGF(MQTT_DEBUG_TRACE, ("mqtt_message_received: %s response with id %d\n", mqtt_msg_
 810:Middlewares/Third_Party/LwIP/src/apps/mqtt/mqtt.c ****         if (pkt_type == MQTT_MSG_TYPE_SUBACK) {
 811:Middlewares/Third_Party/LwIP/src/apps/mqtt/mqtt.c ****           if (length < 3) {
 812:Middlewares/Third_Party/LwIP/src/apps/mqtt/mqtt.c ****             LWIP_DEBUGF(MQTT_DEBUG_WARN, ("mqtt_message_received: To small SUBACK packet\n"));
 813:Middlewares/Third_Party/LwIP/src/apps/mqtt/mqtt.c ****             goto out_disconnect;
 814:Middlewares/Third_Party/LwIP/src/apps/mqtt/mqtt.c ****           } else {
 815:Middlewares/Third_Party/LwIP/src/apps/mqtt/mqtt.c ****             mqtt_incoming_suback(r, var_hdr_payload[2]);
 816:Middlewares/Third_Party/LwIP/src/apps/mqtt/mqtt.c ****           }
 817:Middlewares/Third_Party/LwIP/src/apps/mqtt/mqtt.c ****         } else if (r->cb != NULL) {
 818:Middlewares/Third_Party/LwIP/src/apps/mqtt/mqtt.c ****           r->cb(r->arg, ERR_OK);
 819:Middlewares/Third_Party/LwIP/src/apps/mqtt/mqtt.c ****         }
 820:Middlewares/Third_Party/LwIP/src/apps/mqtt/mqtt.c ****         mqtt_delete_request(r);
 821:Middlewares/Third_Party/LwIP/src/apps/mqtt/mqtt.c ****       } else {
 822:Middlewares/Third_Party/LwIP/src/apps/mqtt/mqtt.c ****         LWIP_DEBUGF(MQTT_DEBUG_WARN, ( "mqtt_message_received: Received %s reply, with wrong pkt_id
 823:Middlewares/Third_Party/LwIP/src/apps/mqtt/mqtt.c ****       }
 824:Middlewares/Third_Party/LwIP/src/apps/mqtt/mqtt.c ****     } else {
 825:Middlewares/Third_Party/LwIP/src/apps/mqtt/mqtt.c ****       LWIP_DEBUGF(MQTT_DEBUG_WARN, ( "mqtt_message_received: Received unknown message type: %d\n", 
 826:Middlewares/Third_Party/LwIP/src/apps/mqtt/mqtt.c ****       goto out_disconnect;
 827:Middlewares/Third_Party/LwIP/src/apps/mqtt/mqtt.c ****     }
 828:Middlewares/Third_Party/LwIP/src/apps/mqtt/mqtt.c ****   }
 829:Middlewares/Third_Party/LwIP/src/apps/mqtt/mqtt.c ****   return res;
 830:Middlewares/Third_Party/LwIP/src/apps/mqtt/mqtt.c **** out_disconnect:
 831:Middlewares/Third_Party/LwIP/src/apps/mqtt/mqtt.c ****   return MQTT_CONNECT_DISCONNECTED;
 832:Middlewares/Third_Party/LwIP/src/apps/mqtt/mqtt.c **** }
 833:Middlewares/Third_Party/LwIP/src/apps/mqtt/mqtt.c **** 
 834:Middlewares/Third_Party/LwIP/src/apps/mqtt/mqtt.c **** 
 835:Middlewares/Third_Party/LwIP/src/apps/mqtt/mqtt.c **** /**
 836:Middlewares/Third_Party/LwIP/src/apps/mqtt/mqtt.c ****  * MQTT incoming message parser
 837:Middlewares/Third_Party/LwIP/src/apps/mqtt/mqtt.c ****  * @param client MQTT client
 838:Middlewares/Third_Party/LwIP/src/apps/mqtt/mqtt.c ****  * @param p PBUF chain of received data
 839:Middlewares/Third_Party/LwIP/src/apps/mqtt/mqtt.c ****  * @return Connection status
 840:Middlewares/Third_Party/LwIP/src/apps/mqtt/mqtt.c ****  */
 841:Middlewares/Third_Party/LwIP/src/apps/mqtt/mqtt.c **** static mqtt_connection_status_t
 842:Middlewares/Third_Party/LwIP/src/apps/mqtt/mqtt.c **** mqtt_parse_incoming(mqtt_client_t *client, struct pbuf *p)
 843:Middlewares/Third_Party/LwIP/src/apps/mqtt/mqtt.c **** {
 844:Middlewares/Third_Party/LwIP/src/apps/mqtt/mqtt.c ****   u16_t in_offset = 0;
 845:Middlewares/Third_Party/LwIP/src/apps/mqtt/mqtt.c ****   u32_t msg_rem_len = 0;
 846:Middlewares/Third_Party/LwIP/src/apps/mqtt/mqtt.c ****   u8_t fixed_hdr_len = 0;
 847:Middlewares/Third_Party/LwIP/src/apps/mqtt/mqtt.c ****   u8_t b = 0;
 848:Middlewares/Third_Party/LwIP/src/apps/mqtt/mqtt.c **** 
 849:Middlewares/Third_Party/LwIP/src/apps/mqtt/mqtt.c ****   while (p->tot_len > in_offset) {
 850:Middlewares/Third_Party/LwIP/src/apps/mqtt/mqtt.c ****     /* We ALWAYS parse the header here first. Even if the header was not
 851:Middlewares/Third_Party/LwIP/src/apps/mqtt/mqtt.c ****        included in this segment, we re-parse it here by buffering it in
 852:Middlewares/Third_Party/LwIP/src/apps/mqtt/mqtt.c ****        client->rx_buffer. client->msg_idx keeps track of this. */
 853:Middlewares/Third_Party/LwIP/src/apps/mqtt/mqtt.c ****     if ((fixed_hdr_len < 2) || ((b & 0x80) != 0)) {
 854:Middlewares/Third_Party/LwIP/src/apps/mqtt/mqtt.c **** 
ARM GAS  C:\Users\hh\AppData\Local\Temp\cc3qgJrr.s 			page 50


 855:Middlewares/Third_Party/LwIP/src/apps/mqtt/mqtt.c ****       if (fixed_hdr_len < client->msg_idx) {
 856:Middlewares/Third_Party/LwIP/src/apps/mqtt/mqtt.c ****         /* parse header from old pbuf (buffered in client->rx_buffer) */
 857:Middlewares/Third_Party/LwIP/src/apps/mqtt/mqtt.c ****         b = client->rx_buffer[fixed_hdr_len];
 858:Middlewares/Third_Party/LwIP/src/apps/mqtt/mqtt.c ****       } else {
 859:Middlewares/Third_Party/LwIP/src/apps/mqtt/mqtt.c ****         /* parse header from this pbuf and save it in client->rx_buffer in case
 860:Middlewares/Third_Party/LwIP/src/apps/mqtt/mqtt.c ****            it comes in segmented */
 861:Middlewares/Third_Party/LwIP/src/apps/mqtt/mqtt.c ****         b = pbuf_get_at(p, in_offset++);
 862:Middlewares/Third_Party/LwIP/src/apps/mqtt/mqtt.c ****         client->rx_buffer[client->msg_idx++] = b;
 863:Middlewares/Third_Party/LwIP/src/apps/mqtt/mqtt.c ****       }
 864:Middlewares/Third_Party/LwIP/src/apps/mqtt/mqtt.c ****       fixed_hdr_len++;
 865:Middlewares/Third_Party/LwIP/src/apps/mqtt/mqtt.c **** 
 866:Middlewares/Third_Party/LwIP/src/apps/mqtt/mqtt.c ****       if (fixed_hdr_len >= 2) {
 867:Middlewares/Third_Party/LwIP/src/apps/mqtt/mqtt.c ****         /* fixed header contains at least 2 bytes but can contain more, depending on
 868:Middlewares/Third_Party/LwIP/src/apps/mqtt/mqtt.c ****            'remaining length'. All bytes but the last of this have 0x80 set to
 869:Middlewares/Third_Party/LwIP/src/apps/mqtt/mqtt.c ****            indicate more bytes are coming. */
 870:Middlewares/Third_Party/LwIP/src/apps/mqtt/mqtt.c ****         msg_rem_len |= (u32_t)(b & 0x7f) << ((fixed_hdr_len - 2) * 7);
 871:Middlewares/Third_Party/LwIP/src/apps/mqtt/mqtt.c ****         if ((b & 0x80) == 0) {
 872:Middlewares/Third_Party/LwIP/src/apps/mqtt/mqtt.c ****           /* fixed header is done */
 873:Middlewares/Third_Party/LwIP/src/apps/mqtt/mqtt.c ****           LWIP_DEBUGF(MQTT_DEBUG_TRACE, ("mqtt_parse_incoming: Remaining length after fixed header:
 874:Middlewares/Third_Party/LwIP/src/apps/mqtt/mqtt.c ****           if (msg_rem_len == 0) {
 875:Middlewares/Third_Party/LwIP/src/apps/mqtt/mqtt.c ****             /* Complete message with no extra headers of payload received */
 876:Middlewares/Third_Party/LwIP/src/apps/mqtt/mqtt.c ****             mqtt_message_received(client, fixed_hdr_len, 0, 0, NULL);
 877:Middlewares/Third_Party/LwIP/src/apps/mqtt/mqtt.c ****             client->msg_idx = 0;
 878:Middlewares/Third_Party/LwIP/src/apps/mqtt/mqtt.c ****             fixed_hdr_len = 0;
 879:Middlewares/Third_Party/LwIP/src/apps/mqtt/mqtt.c ****           } else {
 880:Middlewares/Third_Party/LwIP/src/apps/mqtt/mqtt.c ****             /* Bytes remaining in message (changes remaining length if this is
 881:Middlewares/Third_Party/LwIP/src/apps/mqtt/mqtt.c ****                not the first segment of this message) */
 882:Middlewares/Third_Party/LwIP/src/apps/mqtt/mqtt.c ****             msg_rem_len = (msg_rem_len + fixed_hdr_len) - client->msg_idx;
 883:Middlewares/Third_Party/LwIP/src/apps/mqtt/mqtt.c ****           }
 884:Middlewares/Third_Party/LwIP/src/apps/mqtt/mqtt.c ****         }
 885:Middlewares/Third_Party/LwIP/src/apps/mqtt/mqtt.c ****       }
 886:Middlewares/Third_Party/LwIP/src/apps/mqtt/mqtt.c ****     } else {
 887:Middlewares/Third_Party/LwIP/src/apps/mqtt/mqtt.c ****       /* Fixed header has been parsed, parse variable header */
 888:Middlewares/Third_Party/LwIP/src/apps/mqtt/mqtt.c ****       u16_t cpy_len, buffer_space;
 889:Middlewares/Third_Party/LwIP/src/apps/mqtt/mqtt.c ****       u8_t *var_hdr_payload;
 890:Middlewares/Third_Party/LwIP/src/apps/mqtt/mqtt.c ****       mqtt_connection_status_t res;
 891:Middlewares/Third_Party/LwIP/src/apps/mqtt/mqtt.c **** 
 892:Middlewares/Third_Party/LwIP/src/apps/mqtt/mqtt.c ****       /* Allow to copy the lesser one of available length in input data or bytes remaining in messa
 893:Middlewares/Third_Party/LwIP/src/apps/mqtt/mqtt.c ****       cpy_len = (u16_t)LWIP_MIN((u16_t)(p->tot_len - in_offset), msg_rem_len);
 894:Middlewares/Third_Party/LwIP/src/apps/mqtt/mqtt.c **** 
 895:Middlewares/Third_Party/LwIP/src/apps/mqtt/mqtt.c ****       /* Limit to available space in buffer */
 896:Middlewares/Third_Party/LwIP/src/apps/mqtt/mqtt.c ****       buffer_space = MQTT_VAR_HEADER_BUFFER_LEN - fixed_hdr_len;
 897:Middlewares/Third_Party/LwIP/src/apps/mqtt/mqtt.c ****       if (cpy_len > buffer_space) {
 898:Middlewares/Third_Party/LwIP/src/apps/mqtt/mqtt.c ****         cpy_len = buffer_space;
 899:Middlewares/Third_Party/LwIP/src/apps/mqtt/mqtt.c ****       }
 900:Middlewares/Third_Party/LwIP/src/apps/mqtt/mqtt.c ****       /* Adjust cpy_len to ensure zero-copy operation for remaining parts of current message */
 901:Middlewares/Third_Party/LwIP/src/apps/mqtt/mqtt.c ****       if (client->msg_idx >= MQTT_VAR_HEADER_BUFFER_LEN) {
 902:Middlewares/Third_Party/LwIP/src/apps/mqtt/mqtt.c ****         if (cpy_len > (p->len - in_offset))
 903:Middlewares/Third_Party/LwIP/src/apps/mqtt/mqtt.c ****           cpy_len = p->len - in_offset;
 904:Middlewares/Third_Party/LwIP/src/apps/mqtt/mqtt.c ****       }
 905:Middlewares/Third_Party/LwIP/src/apps/mqtt/mqtt.c ****       var_hdr_payload = (u8_t*)pbuf_get_contiguous(p, client->rx_buffer + fixed_hdr_len,
 906:Middlewares/Third_Party/LwIP/src/apps/mqtt/mqtt.c ****                                                    buffer_space, cpy_len, in_offset);
 907:Middlewares/Third_Party/LwIP/src/apps/mqtt/mqtt.c **** 
 908:Middlewares/Third_Party/LwIP/src/apps/mqtt/mqtt.c ****       /* Advance get and put indexes  */
 909:Middlewares/Third_Party/LwIP/src/apps/mqtt/mqtt.c ****       client->msg_idx += cpy_len;
 910:Middlewares/Third_Party/LwIP/src/apps/mqtt/mqtt.c ****       in_offset += cpy_len;
 911:Middlewares/Third_Party/LwIP/src/apps/mqtt/mqtt.c ****       msg_rem_len -= cpy_len;
ARM GAS  C:\Users\hh\AppData\Local\Temp\cc3qgJrr.s 			page 51


 912:Middlewares/Third_Party/LwIP/src/apps/mqtt/mqtt.c **** 
 913:Middlewares/Third_Party/LwIP/src/apps/mqtt/mqtt.c ****       LWIP_DEBUGF(MQTT_DEBUG_TRACE, ("mqtt_parse_incoming: msg_idx: %"U32_F", cpy_len: %"U16_F", re
 914:Middlewares/Third_Party/LwIP/src/apps/mqtt/mqtt.c ****       /* Whole or partial message received */
 915:Middlewares/Third_Party/LwIP/src/apps/mqtt/mqtt.c ****       res = mqtt_message_received(client, fixed_hdr_len, cpy_len, msg_rem_len, var_hdr_payload);
 916:Middlewares/Third_Party/LwIP/src/apps/mqtt/mqtt.c ****       if (res != MQTT_CONNECT_ACCEPTED) {
 917:Middlewares/Third_Party/LwIP/src/apps/mqtt/mqtt.c ****         return res;
 918:Middlewares/Third_Party/LwIP/src/apps/mqtt/mqtt.c ****       }
 919:Middlewares/Third_Party/LwIP/src/apps/mqtt/mqtt.c ****       if (msg_rem_len == 0) {
 920:Middlewares/Third_Party/LwIP/src/apps/mqtt/mqtt.c ****         /* Reset parser state */
 921:Middlewares/Third_Party/LwIP/src/apps/mqtt/mqtt.c ****         client->msg_idx = 0;
 922:Middlewares/Third_Party/LwIP/src/apps/mqtt/mqtt.c ****         /* msg_tot_len = 0; */
 923:Middlewares/Third_Party/LwIP/src/apps/mqtt/mqtt.c ****         fixed_hdr_len = 0;
 924:Middlewares/Third_Party/LwIP/src/apps/mqtt/mqtt.c ****       }
 925:Middlewares/Third_Party/LwIP/src/apps/mqtt/mqtt.c ****     }
 926:Middlewares/Third_Party/LwIP/src/apps/mqtt/mqtt.c ****   }
 927:Middlewares/Third_Party/LwIP/src/apps/mqtt/mqtt.c ****   return MQTT_CONNECT_ACCEPTED;
 928:Middlewares/Third_Party/LwIP/src/apps/mqtt/mqtt.c **** }
 929:Middlewares/Third_Party/LwIP/src/apps/mqtt/mqtt.c **** 
 930:Middlewares/Third_Party/LwIP/src/apps/mqtt/mqtt.c **** 
 931:Middlewares/Third_Party/LwIP/src/apps/mqtt/mqtt.c **** /**
 932:Middlewares/Third_Party/LwIP/src/apps/mqtt/mqtt.c ****  * TCP received callback function. @see tcp_recv_fn
 933:Middlewares/Third_Party/LwIP/src/apps/mqtt/mqtt.c ****  * @param arg MQTT client
 934:Middlewares/Third_Party/LwIP/src/apps/mqtt/mqtt.c ****  * @param p PBUF chain of received data
 935:Middlewares/Third_Party/LwIP/src/apps/mqtt/mqtt.c ****  * @param err Passed as return value if not ERR_OK
 936:Middlewares/Third_Party/LwIP/src/apps/mqtt/mqtt.c ****  * @return ERR_OK or err passed into callback
 937:Middlewares/Third_Party/LwIP/src/apps/mqtt/mqtt.c ****  */
 938:Middlewares/Third_Party/LwIP/src/apps/mqtt/mqtt.c **** static err_t
 939:Middlewares/Third_Party/LwIP/src/apps/mqtt/mqtt.c **** mqtt_tcp_recv_cb(void *arg, struct altcp_pcb *pcb, struct pbuf *p, err_t err)
 940:Middlewares/Third_Party/LwIP/src/apps/mqtt/mqtt.c **** {
 941:Middlewares/Third_Party/LwIP/src/apps/mqtt/mqtt.c ****   mqtt_client_t *client = (mqtt_client_t *)arg;
 942:Middlewares/Third_Party/LwIP/src/apps/mqtt/mqtt.c ****   LWIP_ASSERT("mqtt_tcp_recv_cb: client != NULL", client != NULL);
 943:Middlewares/Third_Party/LwIP/src/apps/mqtt/mqtt.c ****   LWIP_ASSERT("mqtt_tcp_recv_cb: client->conn == pcb", client->conn == pcb);
 944:Middlewares/Third_Party/LwIP/src/apps/mqtt/mqtt.c **** 
 945:Middlewares/Third_Party/LwIP/src/apps/mqtt/mqtt.c ****   if (p == NULL) {
 946:Middlewares/Third_Party/LwIP/src/apps/mqtt/mqtt.c ****     LWIP_DEBUGF(MQTT_DEBUG_TRACE, ("mqtt_tcp_recv_cb: Recv pbuf=NULL, remote has closed connection\
 947:Middlewares/Third_Party/LwIP/src/apps/mqtt/mqtt.c ****     mqtt_close(client, MQTT_CONNECT_DISCONNECTED);
 948:Middlewares/Third_Party/LwIP/src/apps/mqtt/mqtt.c ****   } else {
 949:Middlewares/Third_Party/LwIP/src/apps/mqtt/mqtt.c ****     mqtt_connection_status_t res;
 950:Middlewares/Third_Party/LwIP/src/apps/mqtt/mqtt.c ****     if (err != ERR_OK) {
 951:Middlewares/Third_Party/LwIP/src/apps/mqtt/mqtt.c ****       LWIP_DEBUGF(MQTT_DEBUG_WARN, ("mqtt_tcp_recv_cb: Recv err=%d\n", err));
 952:Middlewares/Third_Party/LwIP/src/apps/mqtt/mqtt.c ****       pbuf_free(p);
 953:Middlewares/Third_Party/LwIP/src/apps/mqtt/mqtt.c ****       return err;
 954:Middlewares/Third_Party/LwIP/src/apps/mqtt/mqtt.c ****     }
 955:Middlewares/Third_Party/LwIP/src/apps/mqtt/mqtt.c **** 
 956:Middlewares/Third_Party/LwIP/src/apps/mqtt/mqtt.c ****     /* Tell remote that data has been received */
 957:Middlewares/Third_Party/LwIP/src/apps/mqtt/mqtt.c ****     altcp_recved(pcb, p->tot_len);
 958:Middlewares/Third_Party/LwIP/src/apps/mqtt/mqtt.c ****     res = mqtt_parse_incoming(client, p);
 959:Middlewares/Third_Party/LwIP/src/apps/mqtt/mqtt.c ****     pbuf_free(p);
 960:Middlewares/Third_Party/LwIP/src/apps/mqtt/mqtt.c **** 
 961:Middlewares/Third_Party/LwIP/src/apps/mqtt/mqtt.c ****     if (res != MQTT_CONNECT_ACCEPTED) {
 962:Middlewares/Third_Party/LwIP/src/apps/mqtt/mqtt.c ****       mqtt_close(client, res);
 963:Middlewares/Third_Party/LwIP/src/apps/mqtt/mqtt.c ****     }
 964:Middlewares/Third_Party/LwIP/src/apps/mqtt/mqtt.c ****     /* If keep alive functionality is used */
 965:Middlewares/Third_Party/LwIP/src/apps/mqtt/mqtt.c ****     if (client->keep_alive != 0) {
 966:Middlewares/Third_Party/LwIP/src/apps/mqtt/mqtt.c ****       /* Reset server alive watchdog */
 967:Middlewares/Third_Party/LwIP/src/apps/mqtt/mqtt.c ****       client->server_watchdog = 0;
 968:Middlewares/Third_Party/LwIP/src/apps/mqtt/mqtt.c ****     }
ARM GAS  C:\Users\hh\AppData\Local\Temp\cc3qgJrr.s 			page 52


 969:Middlewares/Third_Party/LwIP/src/apps/mqtt/mqtt.c **** 
 970:Middlewares/Third_Party/LwIP/src/apps/mqtt/mqtt.c ****   }
 971:Middlewares/Third_Party/LwIP/src/apps/mqtt/mqtt.c ****   return ERR_OK;
 972:Middlewares/Third_Party/LwIP/src/apps/mqtt/mqtt.c **** }
 973:Middlewares/Third_Party/LwIP/src/apps/mqtt/mqtt.c **** 
 974:Middlewares/Third_Party/LwIP/src/apps/mqtt/mqtt.c **** 
 975:Middlewares/Third_Party/LwIP/src/apps/mqtt/mqtt.c **** /**
 976:Middlewares/Third_Party/LwIP/src/apps/mqtt/mqtt.c ****  * TCP data sent callback function. @see tcp_sent_fn
 977:Middlewares/Third_Party/LwIP/src/apps/mqtt/mqtt.c ****  * @param arg MQTT client
 978:Middlewares/Third_Party/LwIP/src/apps/mqtt/mqtt.c ****  * @param tpcb TCP connection handle
 979:Middlewares/Third_Party/LwIP/src/apps/mqtt/mqtt.c ****  * @param len Number of bytes sent
 980:Middlewares/Third_Party/LwIP/src/apps/mqtt/mqtt.c ****  * @return ERR_OK
 981:Middlewares/Third_Party/LwIP/src/apps/mqtt/mqtt.c ****  */
 982:Middlewares/Third_Party/LwIP/src/apps/mqtt/mqtt.c **** static err_t
 983:Middlewares/Third_Party/LwIP/src/apps/mqtt/mqtt.c **** mqtt_tcp_sent_cb(void *arg, struct altcp_pcb *tpcb, u16_t len)
 984:Middlewares/Third_Party/LwIP/src/apps/mqtt/mqtt.c **** {
 985:Middlewares/Third_Party/LwIP/src/apps/mqtt/mqtt.c ****   mqtt_client_t *client = (mqtt_client_t *)arg;
 986:Middlewares/Third_Party/LwIP/src/apps/mqtt/mqtt.c **** 
 987:Middlewares/Third_Party/LwIP/src/apps/mqtt/mqtt.c ****   LWIP_UNUSED_ARG(tpcb);
 988:Middlewares/Third_Party/LwIP/src/apps/mqtt/mqtt.c ****   LWIP_UNUSED_ARG(len);
 989:Middlewares/Third_Party/LwIP/src/apps/mqtt/mqtt.c **** 
 990:Middlewares/Third_Party/LwIP/src/apps/mqtt/mqtt.c ****   if (client->conn_state == MQTT_CONNECTED) {
 991:Middlewares/Third_Party/LwIP/src/apps/mqtt/mqtt.c ****     struct mqtt_request_t *r;
 992:Middlewares/Third_Party/LwIP/src/apps/mqtt/mqtt.c **** 
 993:Middlewares/Third_Party/LwIP/src/apps/mqtt/mqtt.c ****     /* Reset keep-alive send timer and server watchdog */
 994:Middlewares/Third_Party/LwIP/src/apps/mqtt/mqtt.c ****     client->cyclic_tick = 0;
 995:Middlewares/Third_Party/LwIP/src/apps/mqtt/mqtt.c ****     client->server_watchdog = 0;
 996:Middlewares/Third_Party/LwIP/src/apps/mqtt/mqtt.c ****     /* QoS 0 publish has no response from server, so call its callbacks here */
 997:Middlewares/Third_Party/LwIP/src/apps/mqtt/mqtt.c ****     while ((r = mqtt_take_request(&client->pend_req_queue, 0)) != NULL) {
 998:Middlewares/Third_Party/LwIP/src/apps/mqtt/mqtt.c ****       LWIP_DEBUGF(MQTT_DEBUG_TRACE, ("mqtt_tcp_sent_cb: Calling QoS 0 publish complete callback\n")
 999:Middlewares/Third_Party/LwIP/src/apps/mqtt/mqtt.c ****       if (r->cb != NULL) {
1000:Middlewares/Third_Party/LwIP/src/apps/mqtt/mqtt.c ****         r->cb(r->arg, ERR_OK);
1001:Middlewares/Third_Party/LwIP/src/apps/mqtt/mqtt.c ****       }
1002:Middlewares/Third_Party/LwIP/src/apps/mqtt/mqtt.c ****       mqtt_delete_request(r);
1003:Middlewares/Third_Party/LwIP/src/apps/mqtt/mqtt.c ****     }
1004:Middlewares/Third_Party/LwIP/src/apps/mqtt/mqtt.c ****     /* Try send any remaining buffers from output queue */
1005:Middlewares/Third_Party/LwIP/src/apps/mqtt/mqtt.c ****     mqtt_output_send(&client->output, client->conn);
1006:Middlewares/Third_Party/LwIP/src/apps/mqtt/mqtt.c ****   }
1007:Middlewares/Third_Party/LwIP/src/apps/mqtt/mqtt.c ****   return ERR_OK;
1008:Middlewares/Third_Party/LwIP/src/apps/mqtt/mqtt.c **** }
1009:Middlewares/Third_Party/LwIP/src/apps/mqtt/mqtt.c **** 
1010:Middlewares/Third_Party/LwIP/src/apps/mqtt/mqtt.c **** /**
1011:Middlewares/Third_Party/LwIP/src/apps/mqtt/mqtt.c ****  * TCP error callback function. @see tcp_err_fn
1012:Middlewares/Third_Party/LwIP/src/apps/mqtt/mqtt.c ****  * @param arg MQTT client
1013:Middlewares/Third_Party/LwIP/src/apps/mqtt/mqtt.c ****  * @param err Error encountered
1014:Middlewares/Third_Party/LwIP/src/apps/mqtt/mqtt.c ****  */
1015:Middlewares/Third_Party/LwIP/src/apps/mqtt/mqtt.c **** static void
1016:Middlewares/Third_Party/LwIP/src/apps/mqtt/mqtt.c **** mqtt_tcp_err_cb(void *arg, err_t err)
1017:Middlewares/Third_Party/LwIP/src/apps/mqtt/mqtt.c **** {
1018:Middlewares/Third_Party/LwIP/src/apps/mqtt/mqtt.c ****   mqtt_client_t *client = (mqtt_client_t *)arg;
1019:Middlewares/Third_Party/LwIP/src/apps/mqtt/mqtt.c ****   LWIP_UNUSED_ARG(err); /* only used for debug output */
1020:Middlewares/Third_Party/LwIP/src/apps/mqtt/mqtt.c ****   LWIP_DEBUGF(MQTT_DEBUG_TRACE, ("mqtt_tcp_err_cb: TCP error callback: error %d, arg: %p\n", err, a
1021:Middlewares/Third_Party/LwIP/src/apps/mqtt/mqtt.c ****   LWIP_ASSERT("mqtt_tcp_err_cb: client != NULL", client != NULL);
1022:Middlewares/Third_Party/LwIP/src/apps/mqtt/mqtt.c ****   /* Set conn to null before calling close as pcb is already deallocated*/
1023:Middlewares/Third_Party/LwIP/src/apps/mqtt/mqtt.c ****   client->conn = NULL;
1024:Middlewares/Third_Party/LwIP/src/apps/mqtt/mqtt.c ****   mqtt_close(client, MQTT_CONNECT_DISCONNECTED);
1025:Middlewares/Third_Party/LwIP/src/apps/mqtt/mqtt.c **** }
ARM GAS  C:\Users\hh\AppData\Local\Temp\cc3qgJrr.s 			page 53


1026:Middlewares/Third_Party/LwIP/src/apps/mqtt/mqtt.c **** 
1027:Middlewares/Third_Party/LwIP/src/apps/mqtt/mqtt.c **** /**
1028:Middlewares/Third_Party/LwIP/src/apps/mqtt/mqtt.c ****  * TCP poll callback function. @see tcp_poll_fn
1029:Middlewares/Third_Party/LwIP/src/apps/mqtt/mqtt.c ****  * @param arg MQTT client
1030:Middlewares/Third_Party/LwIP/src/apps/mqtt/mqtt.c ****  * @param tpcb TCP connection handle
1031:Middlewares/Third_Party/LwIP/src/apps/mqtt/mqtt.c ****  * @return err ERR_OK
1032:Middlewares/Third_Party/LwIP/src/apps/mqtt/mqtt.c ****  */
1033:Middlewares/Third_Party/LwIP/src/apps/mqtt/mqtt.c **** static err_t
1034:Middlewares/Third_Party/LwIP/src/apps/mqtt/mqtt.c **** mqtt_tcp_poll_cb(void *arg, struct altcp_pcb *tpcb)
1035:Middlewares/Third_Party/LwIP/src/apps/mqtt/mqtt.c **** {
 1610              		.loc 1 1035 1 view -0
 1611              		.cfi_startproc
 1612              		@ args = 0, pretend = 0, frame = 0
 1613              		@ frame_needed = 0, uses_anonymous_args = 0
 1614              		.loc 1 1035 1 is_stmt 0 view .LVU433
 1615 0000 08B5     		push	{r3, lr}
 1616              	.LCFI15:
 1617              		.cfi_def_cfa_offset 8
 1618              		.cfi_offset 3, -8
 1619              		.cfi_offset 14, -4
1036:Middlewares/Third_Party/LwIP/src/apps/mqtt/mqtt.c ****   mqtt_client_t *client = (mqtt_client_t *)arg;
 1620              		.loc 1 1036 3 is_stmt 1 view .LVU434
 1621              	.LVL177:
1037:Middlewares/Third_Party/LwIP/src/apps/mqtt/mqtt.c ****   if (client->conn_state == MQTT_CONNECTED) {
 1622              		.loc 1 1037 3 view .LVU435
 1623              		.loc 1 1037 13 is_stmt 0 view .LVU436
 1624 0002 837A     		ldrb	r3, [r0, #10]	@ zero_extendqisi2
 1625              		.loc 1 1037 6 view .LVU437
 1626 0004 032B     		cmp	r3, #3
 1627 0006 01D0     		beq	.L133
 1628              	.LVL178:
 1629              	.L131:
1038:Middlewares/Third_Party/LwIP/src/apps/mqtt/mqtt.c ****     /* Try send any remaining buffers from output queue */
1039:Middlewares/Third_Party/LwIP/src/apps/mqtt/mqtt.c ****     mqtt_output_send(&client->output, tpcb);
1040:Middlewares/Third_Party/LwIP/src/apps/mqtt/mqtt.c ****   }
1041:Middlewares/Third_Party/LwIP/src/apps/mqtt/mqtt.c ****   return ERR_OK;
 1630              		.loc 1 1041 3 is_stmt 1 view .LVU438
1042:Middlewares/Third_Party/LwIP/src/apps/mqtt/mqtt.c **** }
 1631              		.loc 1 1042 1 is_stmt 0 view .LVU439
 1632 0008 0020     		movs	r0, #0
 1633 000a 08BD     		pop	{r3, pc}
 1634              	.LVL179:
 1635              	.L133:
1039:Middlewares/Third_Party/LwIP/src/apps/mqtt/mqtt.c ****   }
 1636              		.loc 1 1039 5 is_stmt 1 view .LVU440
 1637 000c EC30     		adds	r0, r0, #236
 1638              	.LVL180:
1039:Middlewares/Third_Party/LwIP/src/apps/mqtt/mqtt.c ****   }
 1639              		.loc 1 1039 5 is_stmt 0 view .LVU441
 1640 000e FFF7FEFF 		bl	mqtt_output_send
 1641              	.LVL181:
1039:Middlewares/Third_Party/LwIP/src/apps/mqtt/mqtt.c ****   }
 1642              		.loc 1 1039 5 view .LVU442
 1643 0012 F9E7     		b	.L131
 1644              		.cfi_endproc
 1645              	.LFE200:
 1647              		.section	.text.mqtt_tcp_sent_cb,"ax",%progbits
ARM GAS  C:\Users\hh\AppData\Local\Temp\cc3qgJrr.s 			page 54


 1648              		.align	1
 1649              		.syntax unified
 1650              		.thumb
 1651              		.thumb_func
 1653              	mqtt_tcp_sent_cb:
 1654              	.LVL182:
 1655              	.LFB198:
 984:Middlewares/Third_Party/LwIP/src/apps/mqtt/mqtt.c ****   mqtt_client_t *client = (mqtt_client_t *)arg;
 1656              		.loc 1 984 1 is_stmt 1 view -0
 1657              		.cfi_startproc
 1658              		@ args = 0, pretend = 0, frame = 0
 1659              		@ frame_needed = 0, uses_anonymous_args = 0
 984:Middlewares/Third_Party/LwIP/src/apps/mqtt/mqtt.c ****   mqtt_client_t *client = (mqtt_client_t *)arg;
 1660              		.loc 1 984 1 is_stmt 0 view .LVU444
 1661 0000 38B5     		push	{r3, r4, r5, lr}
 1662              	.LCFI16:
 1663              		.cfi_def_cfa_offset 16
 1664              		.cfi_offset 3, -16
 1665              		.cfi_offset 4, -12
 1666              		.cfi_offset 5, -8
 1667              		.cfi_offset 14, -4
 985:Middlewares/Third_Party/LwIP/src/apps/mqtt/mqtt.c **** 
 1668              		.loc 1 985 3 is_stmt 1 view .LVU445
 1669              	.LVL183:
 987:Middlewares/Third_Party/LwIP/src/apps/mqtt/mqtt.c ****   LWIP_UNUSED_ARG(len);
 1670              		.loc 1 987 3 view .LVU446
 988:Middlewares/Third_Party/LwIP/src/apps/mqtt/mqtt.c **** 
 1671              		.loc 1 988 3 view .LVU447
 990:Middlewares/Third_Party/LwIP/src/apps/mqtt/mqtt.c ****     struct mqtt_request_t *r;
 1672              		.loc 1 990 3 view .LVU448
 990:Middlewares/Third_Party/LwIP/src/apps/mqtt/mqtt.c ****     struct mqtt_request_t *r;
 1673              		.loc 1 990 13 is_stmt 0 view .LVU449
 1674 0002 837A     		ldrb	r3, [r0, #10]	@ zero_extendqisi2
 990:Middlewares/Third_Party/LwIP/src/apps/mqtt/mqtt.c ****     struct mqtt_request_t *r;
 1675              		.loc 1 990 6 view .LVU450
 1676 0004 032B     		cmp	r3, #3
 1677 0006 01D0     		beq	.L140
 1678              	.LVL184:
 1679              	.L135:
1007:Middlewares/Third_Party/LwIP/src/apps/mqtt/mqtt.c **** }
 1680              		.loc 1 1007 3 is_stmt 1 view .LVU451
1008:Middlewares/Third_Party/LwIP/src/apps/mqtt/mqtt.c **** 
 1681              		.loc 1 1008 1 is_stmt 0 view .LVU452
 1682 0008 0020     		movs	r0, #0
 1683 000a 38BD     		pop	{r3, r4, r5, pc}
 1684              	.LVL185:
 1685              	.L140:
1008:Middlewares/Third_Party/LwIP/src/apps/mqtt/mqtt.c **** 
 1686              		.loc 1 1008 1 view .LVU453
 1687 000c 0546     		mov	r5, r0
 1688              	.LBB2:
 991:Middlewares/Third_Party/LwIP/src/apps/mqtt/mqtt.c **** 
 1689              		.loc 1 991 5 is_stmt 1 view .LVU454
 994:Middlewares/Third_Party/LwIP/src/apps/mqtt/mqtt.c ****     client->server_watchdog = 0;
 1690              		.loc 1 994 5 view .LVU455
 994:Middlewares/Third_Party/LwIP/src/apps/mqtt/mqtt.c ****     client->server_watchdog = 0;
 1691              		.loc 1 994 25 is_stmt 0 view .LVU456
ARM GAS  C:\Users\hh\AppData\Local\Temp\cc3qgJrr.s 			page 55


 1692 000e 0023     		movs	r3, #0
 1693 0010 0380     		strh	r3, [r0]	@ movhi
 995:Middlewares/Third_Party/LwIP/src/apps/mqtt/mqtt.c ****     /* QoS 0 publish has no response from server, so call its callbacks here */
 1694              		.loc 1 995 5 is_stmt 1 view .LVU457
 995:Middlewares/Third_Party/LwIP/src/apps/mqtt/mqtt.c ****     /* QoS 0 publish has no response from server, so call its callbacks here */
 1695              		.loc 1 995 29 is_stmt 0 view .LVU458
 1696 0012 8380     		strh	r3, [r0, #4]	@ movhi
 997:Middlewares/Third_Party/LwIP/src/apps/mqtt/mqtt.c ****       LWIP_DEBUGF(MQTT_DEBUG_TRACE, ("mqtt_tcp_sent_cb: Calling QoS 0 publish complete callback\n")
 1697              		.loc 1 997 5 is_stmt 1 view .LVU459
 997:Middlewares/Third_Party/LwIP/src/apps/mqtt/mqtt.c ****       LWIP_DEBUGF(MQTT_DEBUG_TRACE, ("mqtt_tcp_sent_cb: Calling QoS 0 publish complete callback\n")
 1698              		.loc 1 997 11 is_stmt 0 view .LVU460
 1699 0014 02E0     		b	.L136
 1700              	.LVL186:
 1701              	.L137:
1002:Middlewares/Third_Party/LwIP/src/apps/mqtt/mqtt.c ****     }
 1702              		.loc 1 1002 7 is_stmt 1 view .LVU461
 1703 0016 2046     		mov	r0, r4
 1704 0018 FFF7FEFF 		bl	mqtt_delete_request
 1705              	.LVL187:
 1706              	.L136:
 997:Middlewares/Third_Party/LwIP/src/apps/mqtt/mqtt.c ****       LWIP_DEBUGF(MQTT_DEBUG_TRACE, ("mqtt_tcp_sent_cb: Calling QoS 0 publish complete callback\n")
 1707              		.loc 1 997 64 view .LVU462
 997:Middlewares/Third_Party/LwIP/src/apps/mqtt/mqtt.c ****       LWIP_DEBUGF(MQTT_DEBUG_TRACE, ("mqtt_tcp_sent_cb: Calling QoS 0 publish complete callback\n")
 1708              		.loc 1 997 17 is_stmt 0 view .LVU463
 1709 001c 0021     		movs	r1, #0
 1710 001e 05F11800 		add	r0, r5, #24
 1711 0022 FFF7FEFF 		bl	mqtt_take_request
 1712              	.LVL188:
 997:Middlewares/Third_Party/LwIP/src/apps/mqtt/mqtt.c ****       LWIP_DEBUGF(MQTT_DEBUG_TRACE, ("mqtt_tcp_sent_cb: Calling QoS 0 publish complete callback\n")
 1713              		.loc 1 997 64 discriminator 1 view .LVU464
 1714 0026 0446     		mov	r4, r0
 1715 0028 30B1     		cbz	r0, .L141
 998:Middlewares/Third_Party/LwIP/src/apps/mqtt/mqtt.c ****       if (r->cb != NULL) {
 1716              		.loc 1 998 101 is_stmt 1 view .LVU465
 999:Middlewares/Third_Party/LwIP/src/apps/mqtt/mqtt.c ****         r->cb(r->arg, ERR_OK);
 1717              		.loc 1 999 7 view .LVU466
 999:Middlewares/Third_Party/LwIP/src/apps/mqtt/mqtt.c ****         r->cb(r->arg, ERR_OK);
 1718              		.loc 1 999 12 is_stmt 0 view .LVU467
 1719 002a 6368     		ldr	r3, [r4, #4]
 999:Middlewares/Third_Party/LwIP/src/apps/mqtt/mqtt.c ****         r->cb(r->arg, ERR_OK);
 1720              		.loc 1 999 10 view .LVU468
 1721 002c 002B     		cmp	r3, #0
 1722 002e F2D0     		beq	.L137
1000:Middlewares/Third_Party/LwIP/src/apps/mqtt/mqtt.c ****       }
 1723              		.loc 1 1000 9 is_stmt 1 view .LVU469
 1724 0030 0021     		movs	r1, #0
 1725 0032 A068     		ldr	r0, [r4, #8]
 1726              	.LVL189:
1000:Middlewares/Third_Party/LwIP/src/apps/mqtt/mqtt.c ****       }
 1727              		.loc 1 1000 9 is_stmt 0 view .LVU470
 1728 0034 9847     		blx	r3
 1729              	.LVL190:
 1730 0036 EEE7     		b	.L137
 1731              	.LVL191:
 1732              	.L141:
1005:Middlewares/Third_Party/LwIP/src/apps/mqtt/mqtt.c ****   }
 1733              		.loc 1 1005 5 is_stmt 1 view .LVU471
ARM GAS  C:\Users\hh\AppData\Local\Temp\cc3qgJrr.s 			page 56


 1734 0038 E968     		ldr	r1, [r5, #12]
 1735 003a 05F1EC00 		add	r0, r5, #236
 1736              	.LVL192:
1005:Middlewares/Third_Party/LwIP/src/apps/mqtt/mqtt.c ****   }
 1737              		.loc 1 1005 5 is_stmt 0 view .LVU472
 1738 003e FFF7FEFF 		bl	mqtt_output_send
 1739              	.LVL193:
 1740 0042 E1E7     		b	.L135
 1741              	.LBE2:
 1742              		.cfi_endproc
 1743              	.LFE198:
 1745              		.section	.text.pub_ack_rec_rel_response,"ax",%progbits
 1746              		.align	1
 1747              		.syntax unified
 1748              		.thumb
 1749              		.thumb_func
 1751              	pub_ack_rec_rel_response:
 1752              	.LVL194:
 1753              	.LFB193:
 635:Middlewares/Third_Party/LwIP/src/apps/mqtt/mqtt.c ****   err_t err = ERR_OK;
 1754              		.loc 1 635 1 is_stmt 1 view -0
 1755              		.cfi_startproc
 1756              		@ args = 0, pretend = 0, frame = 0
 1757              		@ frame_needed = 0, uses_anonymous_args = 0
 635:Middlewares/Third_Party/LwIP/src/apps/mqtt/mqtt.c ****   err_t err = ERR_OK;
 1758              		.loc 1 635 1 is_stmt 0 view .LVU474
 1759 0000 2DE9F043 		push	{r4, r5, r6, r7, r8, r9, lr}
 1760              	.LCFI17:
 1761              		.cfi_def_cfa_offset 28
 1762              		.cfi_offset 4, -28
 1763              		.cfi_offset 5, -24
 1764              		.cfi_offset 6, -20
 1765              		.cfi_offset 7, -16
 1766              		.cfi_offset 8, -12
 1767              		.cfi_offset 9, -8
 1768              		.cfi_offset 14, -4
 1769 0004 83B0     		sub	sp, sp, #12
 1770              	.LCFI18:
 1771              		.cfi_def_cfa_offset 40
 1772 0006 0546     		mov	r5, r0
 1773 0008 8946     		mov	r9, r1
 1774 000a 9046     		mov	r8, r2
 1775 000c 1F46     		mov	r7, r3
 636:Middlewares/Third_Party/LwIP/src/apps/mqtt/mqtt.c ****   if (mqtt_output_check_space(&client->output, 2)) {
 1776              		.loc 1 636 3 is_stmt 1 view .LVU475
 1777              	.LVL195:
 637:Middlewares/Third_Party/LwIP/src/apps/mqtt/mqtt.c ****     mqtt_output_append_fixed_header(&client->output, msg, 0, qos, 0, 2);
 1778              		.loc 1 637 3 view .LVU476
 637:Middlewares/Third_Party/LwIP/src/apps/mqtt/mqtt.c ****     mqtt_output_append_fixed_header(&client->output, msg, 0, qos, 0, 2);
 1779              		.loc 1 637 7 is_stmt 0 view .LVU477
 1780 000e 00F1EC06 		add	r6, r0, #236
 1781 0012 0221     		movs	r1, #2
 1782              	.LVL196:
 637:Middlewares/Third_Party/LwIP/src/apps/mqtt/mqtt.c ****     mqtt_output_append_fixed_header(&client->output, msg, 0, qos, 0, 2);
 1783              		.loc 1 637 7 view .LVU478
 1784 0014 3046     		mov	r0, r6
 1785              	.LVL197:
ARM GAS  C:\Users\hh\AppData\Local\Temp\cc3qgJrr.s 			page 57


 637:Middlewares/Third_Party/LwIP/src/apps/mqtt/mqtt.c ****     mqtt_output_append_fixed_header(&client->output, msg, 0, qos, 0, 2);
 1786              		.loc 1 637 7 view .LVU479
 1787 0016 FFF7FEFF 		bl	mqtt_output_check_space
 1788              	.LVL198:
 637:Middlewares/Third_Party/LwIP/src/apps/mqtt/mqtt.c ****     mqtt_output_append_fixed_header(&client->output, msg, 0, qos, 0, 2);
 1789              		.loc 1 637 6 discriminator 1 view .LVU480
 1790 001a A8B1     		cbz	r0, .L144
 638:Middlewares/Third_Party/LwIP/src/apps/mqtt/mqtt.c ****     mqtt_output_append_u16(&client->output, pkt_id);
 1791              		.loc 1 638 5 is_stmt 1 view .LVU481
 1792 001c 0223     		movs	r3, #2
 1793 001e 0193     		str	r3, [sp, #4]
 1794 0020 0024     		movs	r4, #0
 1795 0022 0094     		str	r4, [sp]
 1796 0024 3B46     		mov	r3, r7
 1797 0026 2246     		mov	r2, r4
 1798 0028 4946     		mov	r1, r9
 1799 002a 3046     		mov	r0, r6
 1800 002c FFF7FEFF 		bl	mqtt_output_append_fixed_header
 1801              	.LVL199:
 639:Middlewares/Third_Party/LwIP/src/apps/mqtt/mqtt.c ****     mqtt_output_send(&client->output, client->conn);
 1802              		.loc 1 639 5 view .LVU482
 1803 0030 4146     		mov	r1, r8
 1804 0032 3046     		mov	r0, r6
 1805 0034 FFF7FEFF 		bl	mqtt_output_append_u16
 1806              	.LVL200:
 640:Middlewares/Third_Party/LwIP/src/apps/mqtt/mqtt.c ****   } else {
 1807              		.loc 1 640 5 view .LVU483
 1808 0038 E968     		ldr	r1, [r5, #12]
 1809 003a 3046     		mov	r0, r6
 1810 003c FFF7FEFF 		bl	mqtt_output_send
 1811              	.LVL201:
 636:Middlewares/Third_Party/LwIP/src/apps/mqtt/mqtt.c ****   if (mqtt_output_check_space(&client->output, 2)) {
 1812              		.loc 1 636 9 is_stmt 0 view .LVU484
 1813 0040 2046     		mov	r0, r4
 1814              	.L143:
 1815              	.LVL202:
 646:Middlewares/Third_Party/LwIP/src/apps/mqtt/mqtt.c **** }
 1816              		.loc 1 646 3 is_stmt 1 view .LVU485
 647:Middlewares/Third_Party/LwIP/src/apps/mqtt/mqtt.c **** 
 1817              		.loc 1 647 1 is_stmt 0 view .LVU486
 1818 0042 03B0     		add	sp, sp, #12
 1819              	.LCFI19:
 1820              		.cfi_remember_state
 1821              		.cfi_def_cfa_offset 28
 1822              		@ sp needed
 1823 0044 BDE8F083 		pop	{r4, r5, r6, r7, r8, r9, pc}
 1824              	.LVL203:
 1825              	.L144:
 1826              	.LCFI20:
 1827              		.cfi_restore_state
 644:Middlewares/Third_Party/LwIP/src/apps/mqtt/mqtt.c ****   }
 1828              		.loc 1 644 9 view .LVU487
 1829 0048 4FF0FF30 		mov	r0, #-1
 1830 004c F9E7     		b	.L143
 1831              		.cfi_endproc
 1832              	.LFE193:
 1834              		.section	.rodata.mqtt_message_received.str1.4,"aMS",%progbits,1
ARM GAS  C:\Users\hh\AppData\Local\Temp\cc3qgJrr.s 			page 58


 1835              		.align	2
 1836              	.LC11:
 1837 0000 66697865 		.ascii	"fixed_hdr_len <= client->msg_idx\000"
 1837      645F6864 
 1837      725F6C65 
 1837      6E203C3D 
 1837      20636C69 
 1838              		.section	.text.mqtt_message_received,"ax",%progbits
 1839              		.align	1
 1840              		.syntax unified
 1841              		.thumb
 1842              		.thumb_func
 1844              	mqtt_message_received:
 1845              	.LVL204:
 1846              	.LFB195:
 673:Middlewares/Third_Party/LwIP/src/apps/mqtt/mqtt.c ****   mqtt_connection_status_t res = MQTT_CONNECT_ACCEPTED;
 1847              		.loc 1 673 1 is_stmt 1 view -0
 1848              		.cfi_startproc
 1849              		@ args = 4, pretend = 0, frame = 8
 1850              		@ frame_needed = 0, uses_anonymous_args = 0
 673:Middlewares/Third_Party/LwIP/src/apps/mqtt/mqtt.c ****   mqtt_connection_status_t res = MQTT_CONNECT_ACCEPTED;
 1851              		.loc 1 673 1 is_stmt 0 view .LVU489
 1852 0000 2DE9F04F 		push	{r4, r5, r6, r7, r8, r9, r10, fp, lr}
 1853              	.LCFI21:
 1854              		.cfi_def_cfa_offset 36
 1855              		.cfi_offset 4, -36
 1856              		.cfi_offset 5, -32
 1857              		.cfi_offset 6, -28
 1858              		.cfi_offset 7, -24
 1859              		.cfi_offset 8, -20
 1860              		.cfi_offset 9, -16
 1861              		.cfi_offset 10, -12
 1862              		.cfi_offset 11, -8
 1863              		.cfi_offset 14, -4
 1864 0004 83B0     		sub	sp, sp, #12
 1865              	.LCFI22:
 1866              		.cfi_def_cfa_offset 48
 1867 0006 0446     		mov	r4, r0
 1868 0008 0E46     		mov	r6, r1
 1869 000a 1746     		mov	r7, r2
 1870 000c 9846     		mov	r8, r3
 674:Middlewares/Third_Party/LwIP/src/apps/mqtt/mqtt.c **** 
 1871              		.loc 1 674 3 is_stmt 1 view .LVU490
 1872              	.LVL205:
 677:Middlewares/Third_Party/LwIP/src/apps/mqtt/mqtt.c ****   u16_t pkt_id = 0;
 1873              		.loc 1 677 3 view .LVU491
 677:Middlewares/Third_Party/LwIP/src/apps/mqtt/mqtt.c ****   u16_t pkt_id = 0;
 1874              		.loc 1 677 19 is_stmt 0 view .LVU492
 1875 000e 90F86C50 		ldrb	r5, [r0, #108]	@ zero_extendqisi2
 677:Middlewares/Third_Party/LwIP/src/apps/mqtt/mqtt.c ****   u16_t pkt_id = 0;
 1876              		.loc 1 677 8 view .LVU493
 1877 0012 2D09     		lsrs	r5, r5, #4
 1878              	.LVL206:
 678:Middlewares/Third_Party/LwIP/src/apps/mqtt/mqtt.c **** 
 1879              		.loc 1 678 3 is_stmt 1 view .LVU494
 680:Middlewares/Third_Party/LwIP/src/apps/mqtt/mqtt.c ****   LWIP_ERROR("buffer length mismatch", fixed_hdr_len + length <= MQTT_VAR_HEADER_BUFFER_LEN,
 1880              		.loc 1 680 3 view .LVU495
ARM GAS  C:\Users\hh\AppData\Local\Temp\cc3qgJrr.s 			page 59


 680:Middlewares/Third_Party/LwIP/src/apps/mqtt/mqtt.c ****   LWIP_ERROR("buffer length mismatch", fixed_hdr_len + length <= MQTT_VAR_HEADER_BUFFER_LEN,
 1881              		.loc 1 680 3 view .LVU496
 1882 0014 836E     		ldr	r3, [r0, #104]
 1883              	.LVL207:
 680:Middlewares/Third_Party/LwIP/src/apps/mqtt/mqtt.c ****   LWIP_ERROR("buffer length mismatch", fixed_hdr_len + length <= MQTT_VAR_HEADER_BUFFER_LEN,
 1884              		.loc 1 680 3 is_stmt 0 view .LVU497
 1885 0016 9942     		cmp	r1, r3
 1886 0018 3DD8     		bhi	.L187
 1887              	.LVL208:
 1888              	.L147:
 680:Middlewares/Third_Party/LwIP/src/apps/mqtt/mqtt.c ****   LWIP_ERROR("buffer length mismatch", fixed_hdr_len + length <= MQTT_VAR_HEADER_BUFFER_LEN,
 1889              		.loc 1 680 3 is_stmt 1 view .LVU498
 680:Middlewares/Third_Party/LwIP/src/apps/mqtt/mqtt.c ****   LWIP_ERROR("buffer length mismatch", fixed_hdr_len + length <= MQTT_VAR_HEADER_BUFFER_LEN,
 1890              		.loc 1 680 3 view .LVU499
 681:Middlewares/Third_Party/LwIP/src/apps/mqtt/mqtt.c ****              return MQTT_CONNECT_DISCONNECTED);
 1891              		.loc 1 681 3 view .LVU500
 681:Middlewares/Third_Party/LwIP/src/apps/mqtt/mqtt.c ****              return MQTT_CONNECT_DISCONNECTED);
 1892              		.loc 1 681 3 view .LVU501
 1893 001a F319     		adds	r3, r6, r7
 1894 001c 802B     		cmp	r3, #128
 1895 001e 00F3F580 		bgt	.L165
 681:Middlewares/Third_Party/LwIP/src/apps/mqtt/mqtt.c ****              return MQTT_CONNECT_DISCONNECTED);
 1896              		.loc 1 681 3 view .LVU502
 684:Middlewares/Third_Party/LwIP/src/apps/mqtt/mqtt.c ****     if (client->conn_state == MQTT_CONNECTING) {
 1897              		.loc 1 684 3 view .LVU503
 684:Middlewares/Third_Party/LwIP/src/apps/mqtt/mqtt.c ****     if (client->conn_state == MQTT_CONNECTING) {
 1898              		.loc 1 684 6 is_stmt 0 view .LVU504
 1899 0022 022D     		cmp	r5, #2
 1900 0024 3FD0     		beq	.L188
 705:Middlewares/Third_Party/LwIP/src/apps/mqtt/mqtt.c ****     LWIP_DEBUGF(MQTT_DEBUG_TRACE, ( "mqtt_message_received: Received PINGRESP from server\n"));
 1901              		.loc 1 705 10 is_stmt 1 view .LVU505
 705:Middlewares/Third_Party/LwIP/src/apps/mqtt/mqtt.c ****     LWIP_DEBUGF(MQTT_DEBUG_TRACE, ( "mqtt_message_received: Received PINGRESP from server\n"));
 1902              		.loc 1 705 13 is_stmt 0 view .LVU506
 1903 0026 0D2D     		cmp	r5, #13
 1904 0028 00F0F980 		beq	.L168
 708:Middlewares/Third_Party/LwIP/src/apps/mqtt/mqtt.c ****     u16_t payload_offset = 0;
 1905              		.loc 1 708 10 is_stmt 1 view .LVU507
 708:Middlewares/Third_Party/LwIP/src/apps/mqtt/mqtt.c ****     u16_t payload_offset = 0;
 1906              		.loc 1 708 13 is_stmt 0 view .LVU508
 1907 002c 032D     		cmp	r5, #3
 1908 002e 53D0     		beq	.L189
 786:Middlewares/Third_Party/LwIP/src/apps/mqtt/mqtt.c ****       LWIP_DEBUGF(MQTT_DEBUG_WARN,( "mqtt_message_received: Received short message\n"));
 1909              		.loc 1 786 5 is_stmt 1 view .LVU509
 786:Middlewares/Third_Party/LwIP/src/apps/mqtt/mqtt.c ****       LWIP_DEBUGF(MQTT_DEBUG_WARN,( "mqtt_message_received: Received short message\n"));
 1910              		.loc 1 786 8 is_stmt 0 view .LVU510
 1911 0030 012F     		cmp	r7, #1
 1912 0032 40F20A81 		bls	.L181
 791:Middlewares/Third_Party/LwIP/src/apps/mqtt/mqtt.c ****     pkt_id |= (u16_t)var_hdr_payload[1];
 1913              		.loc 1 791 5 is_stmt 1 view .LVU511
 791:Middlewares/Third_Party/LwIP/src/apps/mqtt/mqtt.c ****     pkt_id |= (u16_t)var_hdr_payload[1];
 1914              		.loc 1 791 36 is_stmt 0 view .LVU512
 1915 0036 0C9B     		ldr	r3, [sp, #48]
 1916 0038 1B78     		ldrb	r3, [r3]	@ zero_extendqisi2
 1917              	.LVL209:
 792:Middlewares/Third_Party/LwIP/src/apps/mqtt/mqtt.c ****     if (pkt_id == 0) {
 1918              		.loc 1 792 5 is_stmt 1 view .LVU513
 792:Middlewares/Third_Party/LwIP/src/apps/mqtt/mqtt.c ****     if (pkt_id == 0) {
ARM GAS  C:\Users\hh\AppData\Local\Temp\cc3qgJrr.s 			page 60


 1919              		.loc 1 792 37 is_stmt 0 view .LVU514
 1920 003a 0C9A     		ldr	r2, [sp, #48]
 1921 003c 5278     		ldrb	r2, [r2, #1]	@ zero_extendqisi2
 1922              	.LVL210:
 793:Middlewares/Third_Party/LwIP/src/apps/mqtt/mqtt.c ****       LWIP_DEBUGF(MQTT_DEBUG_WARN, ("mqtt_message_received: Got message with illegal packet identif
 1923              		.loc 1 793 5 is_stmt 1 view .LVU515
 793:Middlewares/Third_Party/LwIP/src/apps/mqtt/mqtt.c ****       LWIP_DEBUGF(MQTT_DEBUG_WARN, ("mqtt_message_received: Got message with illegal packet identif
 1924              		.loc 1 793 8 is_stmt 0 view .LVU516
 1925 003e 52EA0321 		orrs	r1, r2, r3, lsl #8
 1926              	.LVL211:
 793:Middlewares/Third_Party/LwIP/src/apps/mqtt/mqtt.c ****       LWIP_DEBUGF(MQTT_DEBUG_WARN, ("mqtt_message_received: Got message with illegal packet identif
 1927              		.loc 1 793 8 view .LVU517
 1928 0042 00F00581 		beq	.L182
 797:Middlewares/Third_Party/LwIP/src/apps/mqtt/mqtt.c ****       LWIP_DEBUGF(MQTT_DEBUG_TRACE, ("mqtt_message_received: PUBREC, sending PUBREL with pkt_id: %d
 1929              		.loc 1 797 5 is_stmt 1 view .LVU518
 797:Middlewares/Third_Party/LwIP/src/apps/mqtt/mqtt.c ****       LWIP_DEBUGF(MQTT_DEBUG_TRACE, ("mqtt_message_received: PUBREC, sending PUBREL with pkt_id: %d
 1930              		.loc 1 797 8 is_stmt 0 view .LVU519
 1931 0046 052D     		cmp	r5, #5
 1932 0048 00F0C980 		beq	.L190
 801:Middlewares/Third_Party/LwIP/src/apps/mqtt/mqtt.c ****       LWIP_DEBUGF(MQTT_DEBUG_TRACE, ("mqtt_message_received: PUBREL, sending PUBCOMP response with 
 1933              		.loc 1 801 12 is_stmt 1 view .LVU520
 801:Middlewares/Third_Party/LwIP/src/apps/mqtt/mqtt.c ****       LWIP_DEBUGF(MQTT_DEBUG_TRACE, ("mqtt_message_received: PUBREL, sending PUBCOMP response with 
 1934              		.loc 1 801 15 is_stmt 0 view .LVU521
 1935 004c 062D     		cmp	r5, #6
 1936 004e 00F0CE80 		beq	.L191
 805:Middlewares/Third_Party/LwIP/src/apps/mqtt/mqtt.c ****                pkt_type == MQTT_MSG_TYPE_PUBCOMP || pkt_type == MQTT_MSG_TYPE_PUBACK) {
 1937              		.loc 1 805 12 is_stmt 1 view .LVU522
 805:Middlewares/Third_Party/LwIP/src/apps/mqtt/mqtt.c ****                pkt_type == MQTT_MSG_TYPE_PUBCOMP || pkt_type == MQTT_MSG_TYPE_PUBACK) {
 1938              		.loc 1 805 15 is_stmt 0 view .LVU523
 1939 0052 0B2D     		cmp	r5, #11
 1940 0054 18BF     		it	ne
 1941 0056 092D     		cmpne	r5, #9
 1942 0058 08D0     		beq	.L161
 806:Middlewares/Third_Party/LwIP/src/apps/mqtt/mqtt.c ****       struct mqtt_request_t *r = mqtt_take_request(&client->pend_req_queue, pkt_id);
 1943              		.loc 1 806 62 view .LVU524
 1944 005a 042D     		cmp	r5, #4
 1945 005c 14BF     		ite	ne
 1946 005e 0023     		movne	r3, #0
 1947 0060 0123     		moveq	r3, #1
 806:Middlewares/Third_Party/LwIP/src/apps/mqtt/mqtt.c ****       struct mqtt_request_t *r = mqtt_take_request(&client->pend_req_queue, pkt_id);
 1948              		.loc 1 806 50 view .LVU525
 1949 0062 072D     		cmp	r5, #7
 1950 0064 02D0     		beq	.L161
 1951 0066 002B     		cmp	r3, #0
 1952 0068 00F0F580 		beq	.L183
 1953              	.L161:
 1954              	.LBB3:
 807:Middlewares/Third_Party/LwIP/src/apps/mqtt/mqtt.c ****       if (r != NULL) {
 1955              		.loc 1 807 7 is_stmt 1 view .LVU526
 807:Middlewares/Third_Party/LwIP/src/apps/mqtt/mqtt.c ****       if (r != NULL) {
 1956              		.loc 1 807 34 is_stmt 0 view .LVU527
 1957 006c 04F11800 		add	r0, r4, #24
 1958 0070 FFF7FEFF 		bl	mqtt_take_request
 1959              	.LVL212:
 808:Middlewares/Third_Party/LwIP/src/apps/mqtt/mqtt.c ****         LWIP_DEBUGF(MQTT_DEBUG_TRACE, ("mqtt_message_received: %s response with id %d\n", mqtt_msg_
 1960              		.loc 1 808 7 is_stmt 1 view .LVU528
 808:Middlewares/Third_Party/LwIP/src/apps/mqtt/mqtt.c ****         LWIP_DEBUGF(MQTT_DEBUG_TRACE, ("mqtt_message_received: %s response with id %d\n", mqtt_msg_
ARM GAS  C:\Users\hh\AppData\Local\Temp\cc3qgJrr.s 			page 61


 1961              		.loc 1 808 10 is_stmt 0 view .LVU529
 1962 0074 0446     		mov	r4, r0
 1963              	.LVL213:
 808:Middlewares/Third_Party/LwIP/src/apps/mqtt/mqtt.c ****         LWIP_DEBUGF(MQTT_DEBUG_TRACE, ("mqtt_message_received: %s response with id %d\n", mqtt_msg_
 1964              		.loc 1 808 10 view .LVU530
 1965 0076 0028     		cmp	r0, #0
 1966 0078 00F0F080 		beq	.L184
 809:Middlewares/Third_Party/LwIP/src/apps/mqtt/mqtt.c ****         if (pkt_type == MQTT_MSG_TYPE_SUBACK) {
 1967              		.loc 1 809 131 is_stmt 1 view .LVU531
 810:Middlewares/Third_Party/LwIP/src/apps/mqtt/mqtt.c ****           if (length < 3) {
 1968              		.loc 1 810 9 view .LVU532
 810:Middlewares/Third_Party/LwIP/src/apps/mqtt/mqtt.c ****           if (length < 3) {
 1969              		.loc 1 810 12 is_stmt 0 view .LVU533
 1970 007c 092D     		cmp	r5, #9
 1971 007e 00F0BE80 		beq	.L192
 817:Middlewares/Third_Party/LwIP/src/apps/mqtt/mqtt.c ****           r->cb(r->arg, ERR_OK);
 1972              		.loc 1 817 16 is_stmt 1 view .LVU534
 817:Middlewares/Third_Party/LwIP/src/apps/mqtt/mqtt.c ****           r->cb(r->arg, ERR_OK);
 1973              		.loc 1 817 21 is_stmt 0 view .LVU535
 1974 0082 4368     		ldr	r3, [r0, #4]
 817:Middlewares/Third_Party/LwIP/src/apps/mqtt/mqtt.c ****           r->cb(r->arg, ERR_OK);
 1975              		.loc 1 817 19 view .LVU536
 1976 0084 13B1     		cbz	r3, .L164
 818:Middlewares/Third_Party/LwIP/src/apps/mqtt/mqtt.c ****         }
 1977              		.loc 1 818 11 is_stmt 1 view .LVU537
 1978 0086 0021     		movs	r1, #0
 1979 0088 8068     		ldr	r0, [r0, #8]
 1980              	.LVL214:
 818:Middlewares/Third_Party/LwIP/src/apps/mqtt/mqtt.c ****         }
 1981              		.loc 1 818 11 is_stmt 0 view .LVU538
 1982 008a 9847     		blx	r3
 1983              	.LVL215:
 1984              	.L164:
 820:Middlewares/Third_Party/LwIP/src/apps/mqtt/mqtt.c ****       } else {
 1985              		.loc 1 820 9 is_stmt 1 view .LVU539
 1986 008c 2046     		mov	r0, r4
 1987 008e FFF7FEFF 		bl	mqtt_delete_request
 1988              	.LVL216:
 1989              	.LBE3:
 674:Middlewares/Third_Party/LwIP/src/apps/mqtt/mqtt.c **** 
 1990              		.loc 1 674 28 is_stmt 0 view .LVU540
 1991 0092 0025     		movs	r5, #0
 1992              	.LVL217:
 1993              	.LBB4:
 674:Middlewares/Third_Party/LwIP/src/apps/mqtt/mqtt.c **** 
 1994              		.loc 1 674 28 view .LVU541
 1995 0094 BCE0     		b	.L148
 1996              	.LVL218:
 1997              	.L187:
 674:Middlewares/Third_Party/LwIP/src/apps/mqtt/mqtt.c **** 
 1998              		.loc 1 674 28 view .LVU542
 1999              	.LBE4:
 680:Middlewares/Third_Party/LwIP/src/apps/mqtt/mqtt.c ****   LWIP_ERROR("buffer length mismatch", fixed_hdr_len + length <= MQTT_VAR_HEADER_BUFFER_LEN,
 2000              		.loc 1 680 3 is_stmt 1 discriminator 1 view .LVU543
 680:Middlewares/Third_Party/LwIP/src/apps/mqtt/mqtt.c ****   LWIP_ERROR("buffer length mismatch", fixed_hdr_len + length <= MQTT_VAR_HEADER_BUFFER_LEN,
 2001              		.loc 1 680 3 discriminator 1 view .LVU544
 2002 0096 744B     		ldr	r3, .L196
ARM GAS  C:\Users\hh\AppData\Local\Temp\cc3qgJrr.s 			page 62


 2003 0098 4FF42A72 		mov	r2, #680
 2004              	.LVL219:
 680:Middlewares/Third_Party/LwIP/src/apps/mqtt/mqtt.c ****   LWIP_ERROR("buffer length mismatch", fixed_hdr_len + length <= MQTT_VAR_HEADER_BUFFER_LEN,
 2005              		.loc 1 680 3 is_stmt 0 discriminator 1 view .LVU545
 2006 009c 7349     		ldr	r1, .L196+4
 2007              	.LVL220:
 680:Middlewares/Third_Party/LwIP/src/apps/mqtt/mqtt.c ****   LWIP_ERROR("buffer length mismatch", fixed_hdr_len + length <= MQTT_VAR_HEADER_BUFFER_LEN,
 2008              		.loc 1 680 3 discriminator 1 view .LVU546
 2009 009e 7448     		ldr	r0, .L196+8
 2010              	.LVL221:
 680:Middlewares/Third_Party/LwIP/src/apps/mqtt/mqtt.c ****   LWIP_ERROR("buffer length mismatch", fixed_hdr_len + length <= MQTT_VAR_HEADER_BUFFER_LEN,
 2011              		.loc 1 680 3 discriminator 1 view .LVU547
 2012 00a0 FFF7FEFF 		bl	printf
 2013              	.LVL222:
 2014 00a4 B9E7     		b	.L147
 2015              	.L188:
 685:Middlewares/Third_Party/LwIP/src/apps/mqtt/mqtt.c ****       if (length < 2) {
 2016              		.loc 1 685 5 is_stmt 1 view .LVU548
 685:Middlewares/Third_Party/LwIP/src/apps/mqtt/mqtt.c ****       if (length < 2) {
 2017              		.loc 1 685 15 is_stmt 0 view .LVU549
 2018 00a6 A37A     		ldrb	r3, [r4, #10]	@ zero_extendqisi2
 685:Middlewares/Third_Party/LwIP/src/apps/mqtt/mqtt.c ****       if (length < 2) {
 2019              		.loc 1 685 8 view .LVU550
 2020 00a8 022B     		cmp	r3, #2
 2021 00aa 01D0     		beq	.L193
 674:Middlewares/Third_Party/LwIP/src/apps/mqtt/mqtt.c **** 
 2022              		.loc 1 674 28 view .LVU551
 2023 00ac 0025     		movs	r5, #0
 2024              	.LVL223:
 674:Middlewares/Third_Party/LwIP/src/apps/mqtt/mqtt.c **** 
 2025              		.loc 1 674 28 view .LVU552
 2026 00ae AFE0     		b	.L148
 2027              	.LVL224:
 2028              	.L193:
 686:Middlewares/Third_Party/LwIP/src/apps/mqtt/mqtt.c ****         LWIP_DEBUGF(MQTT_DEBUG_WARN,( "mqtt_message_received: Received short CONNACK message\n"));
 2029              		.loc 1 686 7 is_stmt 1 view .LVU553
 686:Middlewares/Third_Party/LwIP/src/apps/mqtt/mqtt.c ****         LWIP_DEBUGF(MQTT_DEBUG_WARN,( "mqtt_message_received: Received short CONNACK message\n"));
 2030              		.loc 1 686 10 is_stmt 0 view .LVU554
 2031 00b0 012F     		cmp	r7, #1
 2032 00b2 40F2B180 		bls	.L167
 691:Middlewares/Third_Party/LwIP/src/apps/mqtt/mqtt.c ****       LWIP_DEBUGF(MQTT_DEBUG_TRACE, ("mqtt_message_received: Connect response code %d\n", res));
 2033              		.loc 1 691 7 is_stmt 1 view .LVU555
 691:Middlewares/Third_Party/LwIP/src/apps/mqtt/mqtt.c ****       LWIP_DEBUGF(MQTT_DEBUG_TRACE, ("mqtt_message_received: Connect response code %d\n", res));
 2034              		.loc 1 691 54 is_stmt 0 view .LVU556
 2035 00b6 0C9B     		ldr	r3, [sp, #48]
 2036 00b8 5D78     		ldrb	r5, [r3, #1]	@ zero_extendqisi2
 2037              	.LVL225:
 692:Middlewares/Third_Party/LwIP/src/apps/mqtt/mqtt.c ****       if (res == MQTT_CONNECT_ACCEPTED) {
 2038              		.loc 1 692 96 is_stmt 1 view .LVU557
 693:Middlewares/Third_Party/LwIP/src/apps/mqtt/mqtt.c ****         /* Reset cyclic_tick when changing to connected state */
 2039              		.loc 1 693 7 view .LVU558
 693:Middlewares/Third_Party/LwIP/src/apps/mqtt/mqtt.c ****         /* Reset cyclic_tick when changing to connected state */
 2040              		.loc 1 693 10 is_stmt 0 view .LVU559
 2041 00ba 002D     		cmp	r5, #0
 2042 00bc 40F0A880 		bne	.L148
 695:Middlewares/Third_Party/LwIP/src/apps/mqtt/mqtt.c ****         client->conn_state = MQTT_CONNECTED;
 2043              		.loc 1 695 9 is_stmt 1 view .LVU560
ARM GAS  C:\Users\hh\AppData\Local\Temp\cc3qgJrr.s 			page 63


 695:Middlewares/Third_Party/LwIP/src/apps/mqtt/mqtt.c ****         client->conn_state = MQTT_CONNECTED;
 2044              		.loc 1 695 29 is_stmt 0 view .LVU561
 2045 00c0 2580     		strh	r5, [r4]	@ movhi
 696:Middlewares/Third_Party/LwIP/src/apps/mqtt/mqtt.c ****         /* Notify upper layer */
 2046              		.loc 1 696 9 is_stmt 1 view .LVU562
 696:Middlewares/Third_Party/LwIP/src/apps/mqtt/mqtt.c ****         /* Notify upper layer */
 2047              		.loc 1 696 28 is_stmt 0 view .LVU563
 2048 00c2 0323     		movs	r3, #3
 2049 00c4 A372     		strb	r3, [r4, #10]
 698:Middlewares/Third_Party/LwIP/src/apps/mqtt/mqtt.c ****           client->connect_cb(client, client->connect_arg, res);
 2050              		.loc 1 698 9 is_stmt 1 view .LVU564
 698:Middlewares/Third_Party/LwIP/src/apps/mqtt/mqtt.c ****           client->connect_cb(client, client->connect_arg, res);
 2051              		.loc 1 698 19 is_stmt 0 view .LVU565
 2052 00c6 6369     		ldr	r3, [r4, #20]
 698:Middlewares/Third_Party/LwIP/src/apps/mqtt/mqtt.c ****           client->connect_cb(client, client->connect_arg, res);
 2053              		.loc 1 698 12 view .LVU566
 2054 00c8 002B     		cmp	r3, #0
 2055 00ca 00F0A180 		beq	.L148
 699:Middlewares/Third_Party/LwIP/src/apps/mqtt/mqtt.c ****         }
 2056              		.loc 1 699 11 is_stmt 1 view .LVU567
 2057 00ce 2A46     		mov	r2, r5
 2058 00d0 2169     		ldr	r1, [r4, #16]
 2059 00d2 2046     		mov	r0, r4
 2060 00d4 9847     		blx	r3
 2061              	.LVL226:
 2062 00d6 9BE0     		b	.L148
 2063              	.LVL227:
 2064              	.L189:
 2065              	.LBB5:
 709:Middlewares/Third_Party/LwIP/src/apps/mqtt/mqtt.c ****     u16_t payload_length = length;
 2066              		.loc 1 709 5 view .LVU568
 710:Middlewares/Third_Party/LwIP/src/apps/mqtt/mqtt.c ****     u8_t qos = MQTT_CTL_PACKET_QOS(client->rx_buffer[0]);
 2067              		.loc 1 710 5 view .LVU569
 711:Middlewares/Third_Party/LwIP/src/apps/mqtt/mqtt.c **** 
 2068              		.loc 1 711 5 view .LVU570
 711:Middlewares/Third_Party/LwIP/src/apps/mqtt/mqtt.c **** 
 2069              		.loc 1 711 16 is_stmt 0 view .LVU571
 2070 00d8 94F86C20 		ldrb	r2, [r4, #108]	@ zero_extendqisi2
 711:Middlewares/Third_Party/LwIP/src/apps/mqtt/mqtt.c **** 
 2071              		.loc 1 711 10 view .LVU572
 2072 00dc C2F34102 		ubfx	r2, r2, #1, #2
 2073 00e0 9146     		mov	r9, r2
 2074              	.LVL228:
 713:Middlewares/Third_Party/LwIP/src/apps/mqtt/mqtt.c ****       /* First publish message frame. Should have topic and pkt id*/
 2075              		.loc 1 713 5 is_stmt 1 view .LVU573
 713:Middlewares/Third_Party/LwIP/src/apps/mqtt/mqtt.c ****       /* First publish message frame. Should have topic and pkt id*/
 2076              		.loc 1 713 15 is_stmt 0 view .LVU574
 2077 00e2 A26E     		ldr	r2, [r4, #104]
 713:Middlewares/Third_Party/LwIP/src/apps/mqtt/mqtt.c ****       /* First publish message frame. Should have topic and pkt id*/
 2078              		.loc 1 713 8 view .LVU575
 2079 00e4 9A42     		cmp	r2, r3
 2080 00e6 2DD0     		beq	.L194
 710:Middlewares/Third_Party/LwIP/src/apps/mqtt/mqtt.c ****     u8_t qos = MQTT_CTL_PACKET_QOS(client->rx_buffer[0]);
 2081              		.loc 1 710 11 view .LVU576
 2082 00e8 3E46     		mov	r6, r7
 2083              	.LVL229:
 709:Middlewares/Third_Party/LwIP/src/apps/mqtt/mqtt.c ****     u16_t payload_length = length;
ARM GAS  C:\Users\hh\AppData\Local\Temp\cc3qgJrr.s 			page 64


 2084              		.loc 1 709 11 view .LVU577
 2085 00ea 0023     		movs	r3, #0
 2086 00ec 9A46     		mov	r10, r3
 2087              	.LVL230:
 2088              	.L151:
 768:Middlewares/Third_Party/LwIP/src/apps/mqtt/mqtt.c ****       if (length < (size_t)(payload_offset + payload_length)) {
 2089              		.loc 1 768 5 is_stmt 1 view .LVU578
 768:Middlewares/Third_Party/LwIP/src/apps/mqtt/mqtt.c ****       if (length < (size_t)(payload_offset + payload_length)) {
 2090              		.loc 1 768 48 is_stmt 0 view .LVU579
 2091 00ee B8FA88F5 		clz	r5, r8
 2092 00f2 6D09     		lsrs	r5, r5, #5
 768:Middlewares/Third_Party/LwIP/src/apps/mqtt/mqtt.c ****       if (length < (size_t)(payload_offset + payload_length)) {
 2093              		.loc 1 768 28 view .LVU580
 2094 00f4 002E     		cmp	r6, #0
 2095 00f6 0CBF     		ite	eq
 2096 00f8 2B46     		moveq	r3, r5
 2097 00fa 45F00103 		orrne	r3, r5, #1
 768:Middlewares/Third_Party/LwIP/src/apps/mqtt/mqtt.c ****       if (length < (size_t)(payload_offset + payload_length)) {
 2098              		.loc 1 768 8 view .LVU581
 2099 00fe 002B     		cmp	r3, #0
 2100 0100 00F09E80 		beq	.L177
 769:Middlewares/Third_Party/LwIP/src/apps/mqtt/mqtt.c ****         LWIP_DEBUGF(MQTT_DEBUG_WARN,( "mqtt_message_received: Received short packet (payload)\n"));
 2101              		.loc 1 769 7 is_stmt 1 view .LVU582
 769:Middlewares/Third_Party/LwIP/src/apps/mqtt/mqtt.c ****         LWIP_DEBUGF(MQTT_DEBUG_WARN,( "mqtt_message_received: Received short packet (payload)\n"));
 2102              		.loc 1 769 44 is_stmt 0 view .LVU583
 2103 0104 5146     		mov	r1, r10
 2104 0106 8B19     		adds	r3, r1, r6
 769:Middlewares/Third_Party/LwIP/src/apps/mqtt/mqtt.c ****         LWIP_DEBUGF(MQTT_DEBUG_WARN,( "mqtt_message_received: Received short packet (payload)\n"));
 2105              		.loc 1 769 10 view .LVU584
 2106 0108 9F42     		cmp	r7, r3
 2107 010a C0F09B80 		bcc	.L178
 773:Middlewares/Third_Party/LwIP/src/apps/mqtt/mqtt.c ****         client->data_cb(client->inpub_arg, var_hdr_payload + payload_offset, payload_length, remain
 2108              		.loc 1 773 7 is_stmt 1 view .LVU585
 773:Middlewares/Third_Party/LwIP/src/apps/mqtt/mqtt.c ****         client->data_cb(client->inpub_arg, var_hdr_payload + payload_offset, payload_length, remain
 2109              		.loc 1 773 17 is_stmt 0 view .LVU586
 2110 010e 276E     		ldr	r7, [r4, #96]
 2111              	.LVL231:
 773:Middlewares/Third_Party/LwIP/src/apps/mqtt/mqtt.c ****         client->data_cb(client->inpub_arg, var_hdr_payload + payload_offset, payload_length, remain
 2112              		.loc 1 773 10 view .LVU587
 2113 0110 2FB1     		cbz	r7, .L157
 774:Middlewares/Third_Party/LwIP/src/apps/mqtt/mqtt.c ****       }
 2114              		.loc 1 774 9 is_stmt 1 view .LVU588
 2115 0112 2B46     		mov	r3, r5
 2116 0114 3246     		mov	r2, r6
 2117 0116 0C98     		ldr	r0, [sp, #48]
 2118 0118 0144     		add	r1, r1, r0
 2119 011a E06D     		ldr	r0, [r4, #92]
 2120 011c B847     		blx	r7
 2121              	.LVL232:
 2122              	.L157:
 777:Middlewares/Third_Party/LwIP/src/apps/mqtt/mqtt.c ****         /* Send PUBACK for QoS 1 or PUBREC for QoS 2 */
 2123              		.loc 1 777 7 view .LVU589
 777:Middlewares/Third_Party/LwIP/src/apps/mqtt/mqtt.c ****         /* Send PUBACK for QoS 1 or PUBREC for QoS 2 */
 2124              		.loc 1 777 33 is_stmt 0 view .LVU590
 2125 011e 4B46     		mov	r3, r9
 2126 0120 B9F1000F 		cmp	r9, #0
 2127 0124 0CBF     		ite	eq
ARM GAS  C:\Users\hh\AppData\Local\Temp\cc3qgJrr.s 			page 65


 2128 0126 0025     		moveq	r5, #0
 2129 0128 05F00105 		andne	r5, r5, #1
 777:Middlewares/Third_Party/LwIP/src/apps/mqtt/mqtt.c ****         /* Send PUBACK for QoS 1 or PUBREC for QoS 2 */
 2130              		.loc 1 777 10 view .LVU591
 2131 012c 002D     		cmp	r5, #0
 2132 012e 6FD0     		beq	.L148
 2133              	.LBB6:
 779:Middlewares/Third_Party/LwIP/src/apps/mqtt/mqtt.c ****         LWIP_DEBUGF(MQTT_DEBUG_TRACE, ("mqtt_incoming_publish: Sending publish response: %s with pk
 2134              		.loc 1 779 9 is_stmt 1 view .LVU592
 779:Middlewares/Third_Party/LwIP/src/apps/mqtt/mqtt.c ****         LWIP_DEBUGF(MQTT_DEBUG_TRACE, ("mqtt_incoming_publish: Sending publish response: %s with pk
 2135              		.loc 1 779 14 is_stmt 0 view .LVU593
 2136 0130 012B     		cmp	r3, #1
 2137 0132 52D0     		beq	.L195
 779:Middlewares/Third_Party/LwIP/src/apps/mqtt/mqtt.c ****         LWIP_DEBUGF(MQTT_DEBUG_TRACE, ("mqtt_incoming_publish: Sending publish response: %s with pk
 2138              		.loc 1 779 14 discriminator 2 view .LVU594
 2139 0134 0521     		movs	r1, #5
 2140              	.L158:
 2141              	.LVL233:
 781:Middlewares/Third_Party/LwIP/src/apps/mqtt/mqtt.c ****         pub_ack_rec_rel_response(client, resp_msg, client->inpub_pkt_id, 0);
 2142              		.loc 1 781 94 is_stmt 1 view .LVU595
 782:Middlewares/Third_Party/LwIP/src/apps/mqtt/mqtt.c ****       }
 2143              		.loc 1 782 9 view .LVU596
 2144 0136 0023     		movs	r3, #0
 2145 0138 2289     		ldrh	r2, [r4, #8]
 2146 013a 2046     		mov	r0, r4
 2147 013c FFF7FEFF 		bl	pub_ack_rec_rel_response
 2148              	.LVL234:
 782:Middlewares/Third_Party/LwIP/src/apps/mqtt/mqtt.c ****       }
 2149              		.loc 1 782 9 is_stmt 0 view .LVU597
 2150              	.LBE6:
 2151              	.LBE5:
 674:Middlewares/Third_Party/LwIP/src/apps/mqtt/mqtt.c **** 
 2152              		.loc 1 674 28 view .LVU598
 2153 0140 0025     		movs	r5, #0
 2154 0142 65E0     		b	.L148
 2155              	.LVL235:
 2156              	.L194:
 2157              	.LBB9:
 2158              	.LBB7:
 715:Middlewares/Third_Party/LwIP/src/apps/mqtt/mqtt.c ****       u8_t *topic;
 2159              		.loc 1 715 7 is_stmt 1 view .LVU599
 715:Middlewares/Third_Party/LwIP/src/apps/mqtt/mqtt.c ****       u8_t *topic;
 2160              		.loc 1 715 14 is_stmt 0 view .LVU600
 2161 0144 C6F18006 		rsb	r6, r6, #128
 2162              	.LVL236:
 716:Middlewares/Third_Party/LwIP/src/apps/mqtt/mqtt.c ****       u16_t after_topic;
 2163              		.loc 1 716 7 is_stmt 1 view .LVU601
 717:Middlewares/Third_Party/LwIP/src/apps/mqtt/mqtt.c ****       u8_t bkp;
 2164              		.loc 1 717 7 view .LVU602
 718:Middlewares/Third_Party/LwIP/src/apps/mqtt/mqtt.c ****       u16_t topic_len;
 2165              		.loc 1 718 7 view .LVU603
 719:Middlewares/Third_Party/LwIP/src/apps/mqtt/mqtt.c ****       u16_t qos_len = (qos ? 2U : 0U);
 2166              		.loc 1 719 7 view .LVU604
 720:Middlewares/Third_Party/LwIP/src/apps/mqtt/mqtt.c ****       if (length < 2 + qos_len) {
 2167              		.loc 1 720 7 view .LVU605
 720:Middlewares/Third_Party/LwIP/src/apps/mqtt/mqtt.c ****       if (length < 2 + qos_len) {
 2168              		.loc 1 720 13 is_stmt 0 view .LVU606
ARM GAS  C:\Users\hh\AppData\Local\Temp\cc3qgJrr.s 			page 66


 2169 0148 4B46     		mov	r3, r9
 2170 014a 03B1     		cbz	r3, .L152
 720:Middlewares/Third_Party/LwIP/src/apps/mqtt/mqtt.c ****       if (length < 2 + qos_len) {
 2171              		.loc 1 720 13 discriminator 1 view .LVU607
 2172 014c 0223     		movs	r3, #2
 2173              	.L152:
 2174              	.LVL237:
 721:Middlewares/Third_Party/LwIP/src/apps/mqtt/mqtt.c ****         LWIP_DEBUGF(MQTT_DEBUG_WARN,( "mqtt_message_received: Received short PUBLISH packet\n"));
 2175              		.loc 1 721 7 is_stmt 1 view .LVU608
 721:Middlewares/Third_Party/LwIP/src/apps/mqtt/mqtt.c ****         LWIP_DEBUGF(MQTT_DEBUG_WARN,( "mqtt_message_received: Received short PUBLISH packet\n"));
 2176              		.loc 1 721 18 is_stmt 0 view .LVU609
 2177 014e 5A1C     		adds	r2, r3, #1
 721:Middlewares/Third_Party/LwIP/src/apps/mqtt/mqtt.c ****         LWIP_DEBUGF(MQTT_DEBUG_WARN,( "mqtt_message_received: Received short PUBLISH packet\n"));
 2178              		.loc 1 721 10 view .LVU610
 2179 0150 9742     		cmp	r7, r2
 2180 0152 66DD     		ble	.L171
 725:Middlewares/Third_Party/LwIP/src/apps/mqtt/mqtt.c ****       topic_len = (topic_len << 8) + (u16_t)(var_hdr_payload[1]);
 2181              		.loc 1 725 7 is_stmt 1 view .LVU611
 725:Middlewares/Third_Party/LwIP/src/apps/mqtt/mqtt.c ****       topic_len = (topic_len << 8) + (u16_t)(var_hdr_payload[1]);
 2182              		.loc 1 725 34 is_stmt 0 view .LVU612
 2183 0154 0C9A     		ldr	r2, [sp, #48]
 2184 0156 1178     		ldrb	r1, [r2]	@ zero_extendqisi2
 2185              	.LVL238:
 726:Middlewares/Third_Party/LwIP/src/apps/mqtt/mqtt.c ****       if ((topic_len > length - (2 + qos_len)) ||
 2186              		.loc 1 726 7 is_stmt 1 view .LVU613
 726:Middlewares/Third_Party/LwIP/src/apps/mqtt/mqtt.c ****       if ((topic_len > length - (2 + qos_len)) ||
 2187              		.loc 1 726 61 is_stmt 0 view .LVU614
 2188 0158 5278     		ldrb	r2, [r2, #1]	@ zero_extendqisi2
 726:Middlewares/Third_Party/LwIP/src/apps/mqtt/mqtt.c ****       if ((topic_len > length - (2 + qos_len)) ||
 2189              		.loc 1 726 17 view .LVU615
 2190 015a 02EB0122 		add	r2, r2, r1, lsl #8
 2191 015e 95B2     		uxth	r5, r2
 2192              	.LVL239:
 727:Middlewares/Third_Party/LwIP/src/apps/mqtt/mqtt.c ****           (topic_len > var_hdr_payload_bufsize - (2 + qos_len))) {
 2193              		.loc 1 727 7 is_stmt 1 view .LVU616
 727:Middlewares/Third_Party/LwIP/src/apps/mqtt/mqtt.c ****           (topic_len > var_hdr_payload_bufsize - (2 + qos_len))) {
 2194              		.loc 1 727 36 is_stmt 0 view .LVU617
 2195 0160 9A1C     		adds	r2, r3, #2
 727:Middlewares/Third_Party/LwIP/src/apps/mqtt/mqtt.c ****           (topic_len > var_hdr_payload_bufsize - (2 + qos_len))) {
 2196              		.loc 1 727 31 view .LVU618
 2197 0162 BA1A     		subs	r2, r7, r2
 727:Middlewares/Third_Party/LwIP/src/apps/mqtt/mqtt.c ****           (topic_len > var_hdr_payload_bufsize - (2 + qos_len))) {
 2198              		.loc 1 727 10 view .LVU619
 2199 0164 9542     		cmp	r5, r2
 2200 0166 5FDC     		bgt	.L172
 728:Middlewares/Third_Party/LwIP/src/apps/mqtt/mqtt.c ****         LWIP_DEBUGF(MQTT_DEBUG_WARN,( "mqtt_message_received: Received short PUBLISH packet (topic)
 2201              		.loc 1 728 48 view .LVU620
 2202 0168 F31A     		subs	r3, r6, r3
 2203              	.LVL240:
 728:Middlewares/Third_Party/LwIP/src/apps/mqtt/mqtt.c ****         LWIP_DEBUGF(MQTT_DEBUG_WARN,( "mqtt_message_received: Received short PUBLISH packet (topic)
 2204              		.loc 1 728 48 view .LVU621
 2205 016a 023B     		subs	r3, r3, #2
 727:Middlewares/Third_Party/LwIP/src/apps/mqtt/mqtt.c ****           (topic_len > var_hdr_payload_bufsize - (2 + qos_len))) {
 2206              		.loc 1 727 48 discriminator 1 view .LVU622
 2207 016c 9D42     		cmp	r5, r3
 2208 016e 5ED8     		bhi	.L173
 733:Middlewares/Third_Party/LwIP/src/apps/mqtt/mqtt.c ****       after_topic = 2 + topic_len;
ARM GAS  C:\Users\hh\AppData\Local\Temp\cc3qgJrr.s 			page 67


 2209              		.loc 1 733 7 is_stmt 1 view .LVU623
 733:Middlewares/Third_Party/LwIP/src/apps/mqtt/mqtt.c ****       after_topic = 2 + topic_len;
 2210              		.loc 1 733 13 is_stmt 0 view .LVU624
 2211 0170 0C9B     		ldr	r3, [sp, #48]
 2212 0172 0233     		adds	r3, r3, #2
 2213 0174 9B46     		mov	fp, r3
 2214              	.LVL241:
 734:Middlewares/Third_Party/LwIP/src/apps/mqtt/mqtt.c ****       /* Check buffer length, add one byte even for QoS 0 so that zero termination will fit */
 2215              		.loc 1 734 7 is_stmt 1 view .LVU625
 734:Middlewares/Third_Party/LwIP/src/apps/mqtt/mqtt.c ****       /* Check buffer length, add one byte even for QoS 0 so that zero termination will fit */
 2216              		.loc 1 734 19 is_stmt 0 view .LVU626
 2217 0176 AB1C     		adds	r3, r5, #2
 2218              	.LVL242:
 734:Middlewares/Third_Party/LwIP/src/apps/mqtt/mqtt.c ****       /* Check buffer length, add one byte even for QoS 0 so that zero termination will fit */
 2219              		.loc 1 734 19 view .LVU627
 2220 0178 9BB2     		uxth	r3, r3
 2221 017a 9A46     		mov	r10, r3
 2222              	.LVL243:
 736:Middlewares/Third_Party/LwIP/src/apps/mqtt/mqtt.c ****         LWIP_DEBUGF(MQTT_DEBUG_WARN, ("mqtt_message_received: Receive buffer can not fit topic + pk
 2223              		.loc 1 736 7 is_stmt 1 view .LVU628
 736:Middlewares/Third_Party/LwIP/src/apps/mqtt/mqtt.c ****         LWIP_DEBUGF(MQTT_DEBUG_WARN, ("mqtt_message_received: Receive buffer can not fit topic + pk
 2224              		.loc 1 736 24 is_stmt 0 view .LVU629
 2225 017c 1A46     		mov	r2, r3
 736:Middlewares/Third_Party/LwIP/src/apps/mqtt/mqtt.c ****         LWIP_DEBUGF(MQTT_DEBUG_WARN, ("mqtt_message_received: Receive buffer can not fit topic + pk
 2226              		.loc 1 736 36 view .LVU630
 2227 017e 4B46     		mov	r3, r9
 2228              	.LVL244:
 736:Middlewares/Third_Party/LwIP/src/apps/mqtt/mqtt.c ****         LWIP_DEBUGF(MQTT_DEBUG_WARN, ("mqtt_message_received: Receive buffer can not fit topic + pk
 2229              		.loc 1 736 36 view .LVU631
 2230 0180 9BB1     		cbz	r3, .L174
 736:Middlewares/Third_Party/LwIP/src/apps/mqtt/mqtt.c ****         LWIP_DEBUGF(MQTT_DEBUG_WARN, ("mqtt_message_received: Receive buffer can not fit topic + pk
 2231              		.loc 1 736 36 discriminator 1 view .LVU632
 2232 0182 0223     		movs	r3, #2
 2233              	.L153:
 736:Middlewares/Third_Party/LwIP/src/apps/mqtt/mqtt.c ****         LWIP_DEBUGF(MQTT_DEBUG_WARN, ("mqtt_message_received: Receive buffer can not fit topic + pk
 2234              		.loc 1 736 24 discriminator 4 view .LVU633
 2235 0184 1344     		add	r3, r3, r2
 736:Middlewares/Third_Party/LwIP/src/apps/mqtt/mqtt.c ****         LWIP_DEBUGF(MQTT_DEBUG_WARN, ("mqtt_message_received: Receive buffer can not fit topic + pk
 2236              		.loc 1 736 10 discriminator 4 view .LVU634
 2237 0186 B342     		cmp	r3, r6
 2238 0188 54D8     		bhi	.L175
 742:Middlewares/Third_Party/LwIP/src/apps/mqtt/mqtt.c ****         if (length < after_topic + 2U) {
 2239              		.loc 1 742 7 is_stmt 1 view .LVU635
 742:Middlewares/Third_Party/LwIP/src/apps/mqtt/mqtt.c ****         if (length < after_topic + 2U) {
 2240              		.loc 1 742 10 is_stmt 0 view .LVU636
 2241 018a 4B46     		mov	r3, r9
 2242 018c 7BB1     		cbz	r3, .L154
 743:Middlewares/Third_Party/LwIP/src/apps/mqtt/mqtt.c ****           LWIP_DEBUGF(MQTT_DEBUG_WARN,( "mqtt_message_received: Received short PUBLISH packet (afte
 2243              		.loc 1 743 9 is_stmt 1 view .LVU637
 743:Middlewares/Third_Party/LwIP/src/apps/mqtt/mqtt.c ****           LWIP_DEBUGF(MQTT_DEBUG_WARN,( "mqtt_message_received: Received short PUBLISH packet (afte
 2244              		.loc 1 743 34 is_stmt 0 view .LVU638
 2245 018e 931C     		adds	r3, r2, #2
 743:Middlewares/Third_Party/LwIP/src/apps/mqtt/mqtt.c ****           LWIP_DEBUGF(MQTT_DEBUG_WARN,( "mqtt_message_received: Received short PUBLISH packet (afte
 2246              		.loc 1 743 12 view .LVU639
 2247 0190 9F42     		cmp	r7, r3
 2248 0192 52D3     		bcc	.L176
 747:Middlewares/Third_Party/LwIP/src/apps/mqtt/mqtt.c ****         after_topic += 2;
ARM GAS  C:\Users\hh\AppData\Local\Temp\cc3qgJrr.s 			page 68


 2249              		.loc 1 747 9 is_stmt 1 view .LVU640
 747:Middlewares/Third_Party/LwIP/src/apps/mqtt/mqtt.c ****         after_topic += 2;
 2250              		.loc 1 747 55 is_stmt 0 view .LVU641
 2251 0194 0C9B     		ldr	r3, [sp, #48]
 2252 0196 995C     		ldrb	r1, [r3, r2]	@ zero_extendqisi2
 747:Middlewares/Third_Party/LwIP/src/apps/mqtt/mqtt.c ****         after_topic += 2;
 2253              		.loc 1 747 112 view .LVU642
 2254 0198 0132     		adds	r2, r2, #1
 2255              	.LVL245:
 747:Middlewares/Third_Party/LwIP/src/apps/mqtt/mqtt.c ****         after_topic += 2;
 2256              		.loc 1 747 99 view .LVU643
 2257 019a 9B5C     		ldrb	r3, [r3, r2]	@ zero_extendqisi2
 747:Middlewares/Third_Party/LwIP/src/apps/mqtt/mqtt.c ****         after_topic += 2;
 2258              		.loc 1 747 75 view .LVU644
 2259 019c 03EB0123 		add	r3, r3, r1, lsl #8
 747:Middlewares/Third_Party/LwIP/src/apps/mqtt/mqtt.c ****         after_topic += 2;
 2260              		.loc 1 747 30 view .LVU645
 2261 01a0 2381     		strh	r3, [r4, #8]	@ movhi
 748:Middlewares/Third_Party/LwIP/src/apps/mqtt/mqtt.c ****       } else {
 2262              		.loc 1 748 9 is_stmt 1 view .LVU646
 748:Middlewares/Third_Party/LwIP/src/apps/mqtt/mqtt.c ****       } else {
 2263              		.loc 1 748 21 is_stmt 0 view .LVU647
 2264 01a2 2B1D     		adds	r3, r5, #4
 2265 01a4 9BB2     		uxth	r3, r3
 2266 01a6 9A46     		mov	r10, r3
 2267              	.LVL246:
 748:Middlewares/Third_Party/LwIP/src/apps/mqtt/mqtt.c ****       } else {
 2268              		.loc 1 748 21 view .LVU648
 2269 01a8 03E0     		b	.L155
 2270              	.LVL247:
 2271              	.L174:
 736:Middlewares/Third_Party/LwIP/src/apps/mqtt/mqtt.c ****         LWIP_DEBUGF(MQTT_DEBUG_WARN, ("mqtt_message_received: Receive buffer can not fit topic + pk
 2272              		.loc 1 736 36 discriminator 2 view .LVU649
 2273 01aa 0123     		movs	r3, #1
 2274 01ac EAE7     		b	.L153
 2275              	.L154:
 750:Middlewares/Third_Party/LwIP/src/apps/mqtt/mqtt.c ****       }
 2276              		.loc 1 750 9 is_stmt 1 view .LVU650
 750:Middlewares/Third_Party/LwIP/src/apps/mqtt/mqtt.c ****       }
 2277              		.loc 1 750 30 is_stmt 0 view .LVU651
 2278 01ae A4F80890 		strh	r9, [r4, #8]	@ movhi
 2279              	.LVL248:
 2280              	.L155:
 753:Middlewares/Third_Party/LwIP/src/apps/mqtt/mqtt.c ****       /* Zero terminate string */
 2281              		.loc 1 753 7 is_stmt 1 view .LVU652
 753:Middlewares/Third_Party/LwIP/src/apps/mqtt/mqtt.c ****       /* Zero terminate string */
 2282              		.loc 1 753 11 is_stmt 0 view .LVU653
 2283 01b2 5946     		mov	r1, fp
 2284 01b4 1BF80530 		ldrb	r3, [fp, r5]	@ zero_extendqisi2
 2285 01b8 0193     		str	r3, [sp, #4]
 2286              	.LVL249:
 755:Middlewares/Third_Party/LwIP/src/apps/mqtt/mqtt.c ****       /* Payload data remaining in receive buffer */
 2287              		.loc 1 755 7 is_stmt 1 view .LVU654
 755:Middlewares/Third_Party/LwIP/src/apps/mqtt/mqtt.c ****       /* Payload data remaining in receive buffer */
 2288              		.loc 1 755 24 is_stmt 0 view .LVU655
 2289 01ba 0023     		movs	r3, #0
 2290 01bc 0BF80530 		strb	r3, [fp, r5]
ARM GAS  C:\Users\hh\AppData\Local\Temp\cc3qgJrr.s 			page 69


 757:Middlewares/Third_Party/LwIP/src/apps/mqtt/mqtt.c ****       payload_offset = after_topic;
 2291              		.loc 1 757 7 is_stmt 1 view .LVU656
 757:Middlewares/Third_Party/LwIP/src/apps/mqtt/mqtt.c ****       payload_offset = after_topic;
 2292              		.loc 1 757 22 is_stmt 0 view .LVU657
 2293 01c0 5246     		mov	r2, r10
 2294 01c2 BB1A     		subs	r3, r7, r2
 2295 01c4 9EB2     		uxth	r6, r3
 2296              	.LVL250:
 758:Middlewares/Third_Party/LwIP/src/apps/mqtt/mqtt.c **** 
 2297              		.loc 1 758 7 is_stmt 1 view .LVU658
 761:Middlewares/Third_Party/LwIP/src/apps/mqtt/mqtt.c ****       if (client->pub_cb != NULL) {
 2298              		.loc 1 761 85 view .LVU659
 762:Middlewares/Third_Party/LwIP/src/apps/mqtt/mqtt.c ****         client->pub_cb(client->inpub_arg, (const char *)topic, remaining_length + payload_length);
 2299              		.loc 1 762 7 view .LVU660
 762:Middlewares/Third_Party/LwIP/src/apps/mqtt/mqtt.c ****         client->pub_cb(client->inpub_arg, (const char *)topic, remaining_length + payload_length);
 2300              		.loc 1 762 17 is_stmt 0 view .LVU661
 2301 01c6 636E     		ldr	r3, [r4, #100]
 762:Middlewares/Third_Party/LwIP/src/apps/mqtt/mqtt.c ****         client->pub_cb(client->inpub_arg, (const char *)topic, remaining_length + payload_length);
 2302              		.loc 1 762 10 view .LVU662
 2303 01c8 1BB1     		cbz	r3, .L156
 2304              	.LVL251:
 763:Middlewares/Third_Party/LwIP/src/apps/mqtt/mqtt.c ****       }
 2305              		.loc 1 763 9 is_stmt 1 view .LVU663
 2306 01ca 4246     		mov	r2, r8
 2307 01cc B218     		adds	r2, r6, r2
 2308 01ce E06D     		ldr	r0, [r4, #92]
 2309 01d0 9847     		blx	r3
 2310              	.LVL252:
 2311              	.L156:
 766:Middlewares/Third_Party/LwIP/src/apps/mqtt/mqtt.c ****     }
 2312              		.loc 1 766 7 view .LVU664
 766:Middlewares/Third_Party/LwIP/src/apps/mqtt/mqtt.c ****     }
 2313              		.loc 1 766 24 is_stmt 0 view .LVU665
 2314 01d2 019A     		ldr	r2, [sp, #4]
 2315 01d4 0BF80520 		strb	r2, [fp, r5]
 2316 01d8 89E7     		b	.L151
 2317              	.LVL253:
 2318              	.L195:
 766:Middlewares/Third_Party/LwIP/src/apps/mqtt/mqtt.c ****     }
 2319              		.loc 1 766 24 view .LVU666
 2320              	.LBE7:
 2321              	.LBB8:
 779:Middlewares/Third_Party/LwIP/src/apps/mqtt/mqtt.c ****         LWIP_DEBUGF(MQTT_DEBUG_TRACE, ("mqtt_incoming_publish: Sending publish response: %s with pk
 2322              		.loc 1 779 14 discriminator 1 view .LVU667
 2323 01da 0421     		movs	r1, #4
 2324 01dc ABE7     		b	.L158
 2325              	.LVL254:
 2326              	.L190:
 779:Middlewares/Third_Party/LwIP/src/apps/mqtt/mqtt.c ****         LWIP_DEBUGF(MQTT_DEBUG_TRACE, ("mqtt_incoming_publish: Sending publish response: %s with pk
 2327              		.loc 1 779 14 discriminator 1 view .LVU668
 2328              	.LBE8:
 2329              	.LBE9:
 798:Middlewares/Third_Party/LwIP/src/apps/mqtt/mqtt.c ****       pub_ack_rec_rel_response(client, MQTT_MSG_TYPE_PUBREL, pkt_id, 1);
 2330              		.loc 1 798 113 is_stmt 1 view .LVU669
 799:Middlewares/Third_Party/LwIP/src/apps/mqtt/mqtt.c **** 
 2331              		.loc 1 799 7 view .LVU670
 2332 01de 0123     		movs	r3, #1
ARM GAS  C:\Users\hh\AppData\Local\Temp\cc3qgJrr.s 			page 70


 2333 01e0 0A46     		mov	r2, r1
 2334 01e2 0621     		movs	r1, #6
 2335              	.LVL255:
