ARM GAS  C:\Users\hh\AppData\Local\Temp\cckcuEVD.s 			page 1


   1              		.cpu cortex-m7
   2              		.arch armv7e-m
   3              		.fpu fpv5-d16
   4              		.eabi_attribute 28, 1
   5              		.eabi_attribute 20, 1
   6              		.eabi_attribute 21, 1
   7              		.eabi_attribute 23, 3
   8              		.eabi_attribute 24, 1
   9              		.eabi_attribute 25, 1
  10              		.eabi_attribute 26, 1
  11              		.eabi_attribute 30, 1
  12              		.eabi_attribute 34, 1
  13              		.eabi_attribute 18, 4
  14              		.file	"netbuf.c"
  15              		.text
  16              	.Ltext0:
  17              		.cfi_sections	.debug_frame
  18              		.file 1 "Middlewares/Third_Party/LwIP/src/api/netbuf.c"
  19              		.section	.text.netbuf_new,"ax",%progbits
  20              		.align	1
  21              		.global	netbuf_new
  22              		.syntax unified
  23              		.thumb
  24              		.thumb_func
  26              	netbuf_new:
  27              	.LFB172:
   1:Middlewares/Third_Party/LwIP/src/api/netbuf.c **** /**
   2:Middlewares/Third_Party/LwIP/src/api/netbuf.c ****  * @file
   3:Middlewares/Third_Party/LwIP/src/api/netbuf.c ****  * Network buffer management
   4:Middlewares/Third_Party/LwIP/src/api/netbuf.c ****  *
   5:Middlewares/Third_Party/LwIP/src/api/netbuf.c ****  * @defgroup netbuf Network buffers
   6:Middlewares/Third_Party/LwIP/src/api/netbuf.c ****  * @ingroup netconn
   7:Middlewares/Third_Party/LwIP/src/api/netbuf.c ****  * Network buffer descriptor for @ref netconn. Based on @ref pbuf internally
   8:Middlewares/Third_Party/LwIP/src/api/netbuf.c ****  * to avoid copying data around.<br>
   9:Middlewares/Third_Party/LwIP/src/api/netbuf.c ****  * Buffers must not be shared across multiple threads, all functions except
  10:Middlewares/Third_Party/LwIP/src/api/netbuf.c ****  * netbuf_new() and netbuf_delete() are not thread-safe.
  11:Middlewares/Third_Party/LwIP/src/api/netbuf.c ****  */
  12:Middlewares/Third_Party/LwIP/src/api/netbuf.c **** 
  13:Middlewares/Third_Party/LwIP/src/api/netbuf.c **** /*
  14:Middlewares/Third_Party/LwIP/src/api/netbuf.c ****  * Copyright (c) 2001-2004 Swedish Institute of Computer Science.
  15:Middlewares/Third_Party/LwIP/src/api/netbuf.c ****  * All rights reserved.
  16:Middlewares/Third_Party/LwIP/src/api/netbuf.c ****  *
  17:Middlewares/Third_Party/LwIP/src/api/netbuf.c ****  * Redistribution and use in source and binary forms, with or without modification,
  18:Middlewares/Third_Party/LwIP/src/api/netbuf.c ****  * are permitted provided that the following conditions are met:
  19:Middlewares/Third_Party/LwIP/src/api/netbuf.c ****  *
  20:Middlewares/Third_Party/LwIP/src/api/netbuf.c ****  * 1. Redistributions of source code must retain the above copyright notice,
  21:Middlewares/Third_Party/LwIP/src/api/netbuf.c ****  *    this list of conditions and the following disclaimer.
  22:Middlewares/Third_Party/LwIP/src/api/netbuf.c ****  * 2. Redistributions in binary form must reproduce the above copyright notice,
  23:Middlewares/Third_Party/LwIP/src/api/netbuf.c ****  *    this list of conditions and the following disclaimer in the documentation
  24:Middlewares/Third_Party/LwIP/src/api/netbuf.c ****  *    and/or other materials provided with the distribution.
  25:Middlewares/Third_Party/LwIP/src/api/netbuf.c ****  * 3. The name of the author may not be used to endorse or promote products
  26:Middlewares/Third_Party/LwIP/src/api/netbuf.c ****  *    derived from this software without specific prior written permission.
  27:Middlewares/Third_Party/LwIP/src/api/netbuf.c ****  *
  28:Middlewares/Third_Party/LwIP/src/api/netbuf.c ****  * THIS SOFTWARE IS PROVIDED BY THE AUTHOR ``AS IS'' AND ANY EXPRESS OR IMPLIED
  29:Middlewares/Third_Party/LwIP/src/api/netbuf.c ****  * WARRANTIES, INCLUDING, BUT NOT LIMITED TO, THE IMPLIED WARRANTIES OF
  30:Middlewares/Third_Party/LwIP/src/api/netbuf.c ****  * MERCHANTABILITY AND FITNESS FOR A PARTICULAR PURPOSE ARE DISCLAIMED. IN NO EVENT
  31:Middlewares/Third_Party/LwIP/src/api/netbuf.c ****  * SHALL THE AUTHOR BE LIABLE FOR ANY DIRECT, INDIRECT, INCIDENTAL, SPECIAL,
ARM GAS  C:\Users\hh\AppData\Local\Temp\cckcuEVD.s 			page 2


  32:Middlewares/Third_Party/LwIP/src/api/netbuf.c ****  * EXEMPLARY, OR CONSEQUENTIAL DAMAGES (INCLUDING, BUT NOT LIMITED TO, PROCUREMENT
  33:Middlewares/Third_Party/LwIP/src/api/netbuf.c ****  * OF SUBSTITUTE GOODS OR SERVICES; LOSS OF USE, DATA, OR PROFITS; OR BUSINESS
  34:Middlewares/Third_Party/LwIP/src/api/netbuf.c ****  * INTERRUPTION) HOWEVER CAUSED AND ON ANY THEORY OF LIABILITY, WHETHER IN
  35:Middlewares/Third_Party/LwIP/src/api/netbuf.c ****  * CONTRACT, STRICT LIABILITY, OR TORT (INCLUDING NEGLIGENCE OR OTHERWISE) ARISING
  36:Middlewares/Third_Party/LwIP/src/api/netbuf.c ****  * IN ANY WAY OUT OF THE USE OF THIS SOFTWARE, EVEN IF ADVISED OF THE POSSIBILITY
  37:Middlewares/Third_Party/LwIP/src/api/netbuf.c ****  * OF SUCH DAMAGE.
  38:Middlewares/Third_Party/LwIP/src/api/netbuf.c ****  *
  39:Middlewares/Third_Party/LwIP/src/api/netbuf.c ****  * This file is part of the lwIP TCP/IP stack.
  40:Middlewares/Third_Party/LwIP/src/api/netbuf.c ****  *
  41:Middlewares/Third_Party/LwIP/src/api/netbuf.c ****  * Author: Adam Dunkels <adam@sics.se>
  42:Middlewares/Third_Party/LwIP/src/api/netbuf.c ****  *
  43:Middlewares/Third_Party/LwIP/src/api/netbuf.c ****  */
  44:Middlewares/Third_Party/LwIP/src/api/netbuf.c **** 
  45:Middlewares/Third_Party/LwIP/src/api/netbuf.c **** #include "lwip/opt.h"
  46:Middlewares/Third_Party/LwIP/src/api/netbuf.c **** 
  47:Middlewares/Third_Party/LwIP/src/api/netbuf.c **** #if LWIP_NETCONN /* don't build if not configured for use in lwipopts.h */
  48:Middlewares/Third_Party/LwIP/src/api/netbuf.c **** 
  49:Middlewares/Third_Party/LwIP/src/api/netbuf.c **** #include "lwip/netbuf.h"
  50:Middlewares/Third_Party/LwIP/src/api/netbuf.c **** #include "lwip/memp.h"
  51:Middlewares/Third_Party/LwIP/src/api/netbuf.c **** 
  52:Middlewares/Third_Party/LwIP/src/api/netbuf.c **** #include <string.h>
  53:Middlewares/Third_Party/LwIP/src/api/netbuf.c **** 
  54:Middlewares/Third_Party/LwIP/src/api/netbuf.c **** /**
  55:Middlewares/Third_Party/LwIP/src/api/netbuf.c ****  * @ingroup netbuf
  56:Middlewares/Third_Party/LwIP/src/api/netbuf.c ****  * Create (allocate) and initialize a new netbuf.
  57:Middlewares/Third_Party/LwIP/src/api/netbuf.c ****  * The netbuf doesn't yet contain a packet buffer!
  58:Middlewares/Third_Party/LwIP/src/api/netbuf.c ****  *
  59:Middlewares/Third_Party/LwIP/src/api/netbuf.c ****  * @return a pointer to a new netbuf
  60:Middlewares/Third_Party/LwIP/src/api/netbuf.c ****  *         NULL on lack of memory
  61:Middlewares/Third_Party/LwIP/src/api/netbuf.c ****  */
  62:Middlewares/Third_Party/LwIP/src/api/netbuf.c **** struct
  63:Middlewares/Third_Party/LwIP/src/api/netbuf.c **** netbuf *netbuf_new(void)
  64:Middlewares/Third_Party/LwIP/src/api/netbuf.c **** {
  28              		.loc 1 64 1 view -0
  29              		.cfi_startproc
  30              		@ args = 0, pretend = 0, frame = 0
  31              		@ frame_needed = 0, uses_anonymous_args = 0
  32 0000 08B5     		push	{r3, lr}
  33              	.LCFI0:
  34              		.cfi_def_cfa_offset 8
  35              		.cfi_offset 3, -8
  36              		.cfi_offset 14, -4
  65:Middlewares/Third_Party/LwIP/src/api/netbuf.c ****   struct netbuf *buf;
  37              		.loc 1 65 3 view .LVU1
  66:Middlewares/Third_Party/LwIP/src/api/netbuf.c **** 
  67:Middlewares/Third_Party/LwIP/src/api/netbuf.c ****   buf = (struct netbuf *)memp_malloc(MEMP_NETBUF);
  38              		.loc 1 67 3 view .LVU2
  39              		.loc 1 67 26 is_stmt 0 view .LVU3
  40 0002 0520     		movs	r0, #5
  41 0004 FFF7FEFF 		bl	memp_malloc
  42              	.LVL0:
  68:Middlewares/Third_Party/LwIP/src/api/netbuf.c ****   if (buf != NULL) {
  43              		.loc 1 68 3 is_stmt 1 view .LVU4
  44              		.loc 1 68 6 is_stmt 0 view .LVU5
  45 0008 0346     		mov	r3, r0
  46 000a 20B1     		cbz	r0, .L1
  69:Middlewares/Third_Party/LwIP/src/api/netbuf.c ****     memset(buf, 0, sizeof(struct netbuf));
ARM GAS  C:\Users\hh\AppData\Local\Temp\cckcuEVD.s 			page 3


  47              		.loc 1 69 5 is_stmt 1 view .LVU6
  48 000c 0022     		movs	r2, #0
  49 000e 0260     		str	r2, [r0]	@ unaligned
  50 0010 4260     		str	r2, [r0, #4]	@ unaligned
  51 0012 8260     		str	r2, [r0, #8]	@ unaligned
  52 0014 C260     		str	r2, [r0, #12]	@ unaligned
  70:Middlewares/Third_Party/LwIP/src/api/netbuf.c ****   }
  71:Middlewares/Third_Party/LwIP/src/api/netbuf.c ****   return buf;
  53              		.loc 1 71 3 view .LVU7
  54              	.L1:
  72:Middlewares/Third_Party/LwIP/src/api/netbuf.c **** }
  55              		.loc 1 72 1 is_stmt 0 view .LVU8
  56 0016 1846     		mov	r0, r3
  57              	.LVL1:
  58              		.loc 1 72 1 view .LVU9
  59 0018 08BD     		pop	{r3, pc}
  60              		.loc 1 72 1 view .LVU10
  61              		.cfi_endproc
  62              	.LFE172:
  64              		.section	.text.netbuf_delete,"ax",%progbits
  65              		.align	1
  66              		.global	netbuf_delete
  67              		.syntax unified
  68              		.thumb
  69              		.thumb_func
  71              	netbuf_delete:
  72              	.LVL2:
  73              	.LFB173:
  73:Middlewares/Third_Party/LwIP/src/api/netbuf.c **** 
  74:Middlewares/Third_Party/LwIP/src/api/netbuf.c **** /**
  75:Middlewares/Third_Party/LwIP/src/api/netbuf.c ****  * @ingroup netbuf
  76:Middlewares/Third_Party/LwIP/src/api/netbuf.c ****  * Deallocate a netbuf allocated by netbuf_new().
  77:Middlewares/Third_Party/LwIP/src/api/netbuf.c ****  *
  78:Middlewares/Third_Party/LwIP/src/api/netbuf.c ****  * @param buf pointer to a netbuf allocated by netbuf_new()
  79:Middlewares/Third_Party/LwIP/src/api/netbuf.c ****  */
  80:Middlewares/Third_Party/LwIP/src/api/netbuf.c **** void
  81:Middlewares/Third_Party/LwIP/src/api/netbuf.c **** netbuf_delete(struct netbuf *buf)
  82:Middlewares/Third_Party/LwIP/src/api/netbuf.c **** {
  74              		.loc 1 82 1 is_stmt 1 view -0
  75              		.cfi_startproc
  76              		@ args = 0, pretend = 0, frame = 0
  77              		@ frame_needed = 0, uses_anonymous_args = 0
  83:Middlewares/Third_Party/LwIP/src/api/netbuf.c ****   if (buf != NULL) {
  78              		.loc 1 83 3 view .LVU12
  79              		.loc 1 83 6 is_stmt 0 view .LVU13
  80 0000 68B1     		cbz	r0, .L8
  82:Middlewares/Third_Party/LwIP/src/api/netbuf.c ****   if (buf != NULL) {
  81              		.loc 1 82 1 view .LVU14
  82 0002 10B5     		push	{r4, lr}
  83              	.LCFI1:
  84              		.cfi_def_cfa_offset 8
  85              		.cfi_offset 4, -8
  86              		.cfi_offset 14, -4
  87 0004 0446     		mov	r4, r0
  84:Middlewares/Third_Party/LwIP/src/api/netbuf.c ****     if (buf->p != NULL) {
  88              		.loc 1 84 5 is_stmt 1 view .LVU15
  89              		.loc 1 84 12 is_stmt 0 view .LVU16
ARM GAS  C:\Users\hh\AppData\Local\Temp\cckcuEVD.s 			page 4


  90 0006 0068     		ldr	r0, [r0]
  91              	.LVL3:
  92              		.loc 1 84 8 view .LVU17
  93 0008 20B1     		cbz	r0, .L6
  85:Middlewares/Third_Party/LwIP/src/api/netbuf.c ****       pbuf_free(buf->p);
  94              		.loc 1 85 7 is_stmt 1 view .LVU18
  95 000a FFF7FEFF 		bl	pbuf_free
  96              	.LVL4:
  86:Middlewares/Third_Party/LwIP/src/api/netbuf.c ****       buf->p = buf->ptr = NULL;
  97              		.loc 1 86 7 view .LVU19
  98              		.loc 1 86 25 is_stmt 0 view .LVU20
  99 000e 0023     		movs	r3, #0
 100 0010 6360     		str	r3, [r4, #4]
 101              		.loc 1 86 14 view .LVU21
 102 0012 2360     		str	r3, [r4]
 103              	.L6:
  87:Middlewares/Third_Party/LwIP/src/api/netbuf.c ****     }
  88:Middlewares/Third_Party/LwIP/src/api/netbuf.c ****     memp_free(MEMP_NETBUF, buf);
 104              		.loc 1 88 5 is_stmt 1 view .LVU22
 105 0014 2146     		mov	r1, r4
 106 0016 0520     		movs	r0, #5
 107 0018 FFF7FEFF 		bl	memp_free
 108              	.LVL5:
  89:Middlewares/Third_Party/LwIP/src/api/netbuf.c ****   }
  90:Middlewares/Third_Party/LwIP/src/api/netbuf.c **** }
 109              		.loc 1 90 1 is_stmt 0 view .LVU23
 110 001c 10BD     		pop	{r4, pc}
 111              	.LVL6:
 112              	.L8:
 113              	.LCFI2:
 114              		.cfi_def_cfa_offset 0
 115              		.cfi_restore 4
 116              		.cfi_restore 14
 117              		.loc 1 90 1 view .LVU24
 118 001e 7047     		bx	lr
 119              		.cfi_endproc
 120              	.LFE173:
 122              		.section	.rodata.netbuf_alloc.str1.4,"aMS",%progbits,1
 123              		.align	2
 124              	.LC0:
 125 0000 4D696464 		.ascii	"Middlewares/Third_Party/LwIP/src/api/netbuf.c\000"
 125      6C657761 
 125      7265732F 
 125      54686972 
 125      645F5061 
 126 002e 0000     		.align	2
 127              	.LC1:
 128 0030 63686563 		.ascii	"check that first pbuf can hold size\000"
 128      6B207468 
 128      61742066 
 128      69727374 
 128      20706275 
 129              		.align	2
 130              	.LC2:
 131 0054 41737365 		.ascii	"Assertion \"%s\" failed at line %d in %s\012\000"
 131      7274696F 
 131      6E202225 
ARM GAS  C:\Users\hh\AppData\Local\Temp\cckcuEVD.s 			page 5


 131      73222066 
 131      61696C65 
 132              		.section	.text.netbuf_alloc,"ax",%progbits
 133              		.align	1
 134              		.global	netbuf_alloc
 135              		.syntax unified
 136              		.thumb
 137              		.thumb_func
 139              	netbuf_alloc:
 140              	.LVL7:
 141              	.LFB174:
  91:Middlewares/Third_Party/LwIP/src/api/netbuf.c **** 
  92:Middlewares/Third_Party/LwIP/src/api/netbuf.c **** /**
  93:Middlewares/Third_Party/LwIP/src/api/netbuf.c ****  * @ingroup netbuf
  94:Middlewares/Third_Party/LwIP/src/api/netbuf.c ****  * Allocate memory for a packet buffer for a given netbuf.
  95:Middlewares/Third_Party/LwIP/src/api/netbuf.c ****  *
  96:Middlewares/Third_Party/LwIP/src/api/netbuf.c ****  * @param buf the netbuf for which to allocate a packet buffer
  97:Middlewares/Third_Party/LwIP/src/api/netbuf.c ****  * @param size the size of the packet buffer to allocate
  98:Middlewares/Third_Party/LwIP/src/api/netbuf.c ****  * @return pointer to the allocated memory
  99:Middlewares/Third_Party/LwIP/src/api/netbuf.c ****  *         NULL if no memory could be allocated
 100:Middlewares/Third_Party/LwIP/src/api/netbuf.c ****  */
 101:Middlewares/Third_Party/LwIP/src/api/netbuf.c **** void *
 102:Middlewares/Third_Party/LwIP/src/api/netbuf.c **** netbuf_alloc(struct netbuf *buf, u16_t size)
 103:Middlewares/Third_Party/LwIP/src/api/netbuf.c **** {
 142              		.loc 1 103 1 is_stmt 1 view -0
 143              		.cfi_startproc
 144              		@ args = 0, pretend = 0, frame = 0
 145              		@ frame_needed = 0, uses_anonymous_args = 0
 146              		.loc 1 103 1 is_stmt 0 view .LVU26
 147 0000 38B5     		push	{r3, r4, r5, lr}
 148              	.LCFI3:
 149              		.cfi_def_cfa_offset 16
 150              		.cfi_offset 3, -16
 151              		.cfi_offset 4, -12
 152              		.cfi_offset 5, -8
 153              		.cfi_offset 14, -4
 104:Middlewares/Third_Party/LwIP/src/api/netbuf.c ****   LWIP_ERROR("netbuf_alloc: invalid buf", (buf != NULL), return NULL;);
 154              		.loc 1 104 3 is_stmt 1 view .LVU27
 155              		.loc 1 104 3 view .LVU28
 156 0002 0446     		mov	r4, r0
 157 0004 90B1     		cbz	r0, .L11
 158 0006 0D46     		mov	r5, r1
 159              		.loc 1 104 3 view .LVU29
 160              		.loc 1 104 3 view .LVU30
 105:Middlewares/Third_Party/LwIP/src/api/netbuf.c **** 
 106:Middlewares/Third_Party/LwIP/src/api/netbuf.c ****   /* Deallocate any previously allocated memory. */
 107:Middlewares/Third_Party/LwIP/src/api/netbuf.c ****   if (buf->p != NULL) {
 161              		.loc 1 107 3 view .LVU31
 162              		.loc 1 107 10 is_stmt 0 view .LVU32
 163 0008 0068     		ldr	r0, [r0]
 164              	.LVL8:
 165              		.loc 1 107 6 view .LVU33
 166 000a 08B1     		cbz	r0, .L13
 108:Middlewares/Third_Party/LwIP/src/api/netbuf.c ****     pbuf_free(buf->p);
 167              		.loc 1 108 5 is_stmt 1 view .LVU34
 168 000c FFF7FEFF 		bl	pbuf_free
 169              	.LVL9:
ARM GAS  C:\Users\hh\AppData\Local\Temp\cckcuEVD.s 			page 6


 170              	.L13:
 109:Middlewares/Third_Party/LwIP/src/api/netbuf.c ****   }
 110:Middlewares/Third_Party/LwIP/src/api/netbuf.c ****   buf->p = pbuf_alloc(PBUF_TRANSPORT, size, PBUF_RAM);
 171              		.loc 1 110 3 view .LVU35
 172              		.loc 1 110 12 is_stmt 0 view .LVU36
 173 0010 4FF42072 		mov	r2, #640
 174 0014 2946     		mov	r1, r5
 175 0016 3620     		movs	r0, #54
 176 0018 FFF7FEFF 		bl	pbuf_alloc
 177              	.LVL10:
 178              		.loc 1 110 10 discriminator 1 view .LVU37
 179 001c 2060     		str	r0, [r4]
 111:Middlewares/Third_Party/LwIP/src/api/netbuf.c ****   if (buf->p == NULL) {
 180              		.loc 1 111 3 is_stmt 1 view .LVU38
 181              		.loc 1 111 6 is_stmt 0 view .LVU39
 182 001e 28B1     		cbz	r0, .L11
 112:Middlewares/Third_Party/LwIP/src/api/netbuf.c ****     return NULL;
 113:Middlewares/Third_Party/LwIP/src/api/netbuf.c ****   }
 114:Middlewares/Third_Party/LwIP/src/api/netbuf.c ****   LWIP_ASSERT("check that first pbuf can hold size",
 183              		.loc 1 114 3 is_stmt 1 view .LVU40
 184              		.loc 1 114 3 view .LVU41
 185 0020 4389     		ldrh	r3, [r0, #10]
 186 0022 AB42     		cmp	r3, r5
 187 0024 03D3     		bcc	.L17
 188              	.L14:
 189              		.loc 1 114 3 view .LVU42
 190              		.loc 1 114 3 view .LVU43
 115:Middlewares/Third_Party/LwIP/src/api/netbuf.c ****               (buf->p->len >= size));
 116:Middlewares/Third_Party/LwIP/src/api/netbuf.c ****   buf->ptr = buf->p;
 191              		.loc 1 116 3 view .LVU44
 192              		.loc 1 116 17 is_stmt 0 view .LVU45
 193 0026 2368     		ldr	r3, [r4]
 194              		.loc 1 116 12 view .LVU46
 195 0028 6360     		str	r3, [r4, #4]
 117:Middlewares/Third_Party/LwIP/src/api/netbuf.c ****   return buf->p->payload;
 196              		.loc 1 117 3 is_stmt 1 view .LVU47
 197              		.loc 1 117 16 is_stmt 0 view .LVU48
 198 002a 5868     		ldr	r0, [r3, #4]
 199              	.LVL11:
 200              	.L11:
 118:Middlewares/Third_Party/LwIP/src/api/netbuf.c **** }
 201              		.loc 1 118 1 view .LVU49
 202 002c 38BD     		pop	{r3, r4, r5, pc}
 203              	.LVL12:
 204              	.L17:
 114:Middlewares/Third_Party/LwIP/src/api/netbuf.c ****               (buf->p->len >= size));
 205              		.loc 1 114 3 is_stmt 1 discriminator 1 view .LVU50
 114:Middlewares/Third_Party/LwIP/src/api/netbuf.c ****               (buf->p->len >= size));
 206              		.loc 1 114 3 discriminator 1 view .LVU51
 207 002e 034B     		ldr	r3, .L18
 208 0030 7222     		movs	r2, #114
 209 0032 0349     		ldr	r1, .L18+4
 210 0034 0348     		ldr	r0, .L18+8
 211 0036 FFF7FEFF 		bl	printf
 212              	.LVL13:
 213 003a F4E7     		b	.L14
 214              	.L19:
ARM GAS  C:\Users\hh\AppData\Local\Temp\cckcuEVD.s 			page 7


 215              		.align	2
 216              	.L18:
 217 003c 00000000 		.word	.LC0
 218 0040 30000000 		.word	.LC1
 219 0044 54000000 		.word	.LC2
 220              		.cfi_endproc
 221              	.LFE174:
 223              		.section	.text.netbuf_free,"ax",%progbits
 224              		.align	1
 225              		.global	netbuf_free
 226              		.syntax unified
 227              		.thumb
 228              		.thumb_func
 230              	netbuf_free:
 231              	.LVL14:
 232              	.LFB175:
 119:Middlewares/Third_Party/LwIP/src/api/netbuf.c **** 
 120:Middlewares/Third_Party/LwIP/src/api/netbuf.c **** /**
 121:Middlewares/Third_Party/LwIP/src/api/netbuf.c ****  * @ingroup netbuf
 122:Middlewares/Third_Party/LwIP/src/api/netbuf.c ****  * Free the packet buffer included in a netbuf
 123:Middlewares/Third_Party/LwIP/src/api/netbuf.c ****  *
 124:Middlewares/Third_Party/LwIP/src/api/netbuf.c ****  * @param buf pointer to the netbuf which contains the packet buffer to free
 125:Middlewares/Third_Party/LwIP/src/api/netbuf.c ****  */
 126:Middlewares/Third_Party/LwIP/src/api/netbuf.c **** void
 127:Middlewares/Third_Party/LwIP/src/api/netbuf.c **** netbuf_free(struct netbuf *buf)
 128:Middlewares/Third_Party/LwIP/src/api/netbuf.c **** {
 233              		.loc 1 128 1 view -0
 234              		.cfi_startproc
 235              		@ args = 0, pretend = 0, frame = 0
 236              		@ frame_needed = 0, uses_anonymous_args = 0
 129:Middlewares/Third_Party/LwIP/src/api/netbuf.c ****   LWIP_ERROR("netbuf_free: invalid buf", (buf != NULL), return;);
 237              		.loc 1 129 3 view .LVU53
 238              		.loc 1 129 3 view .LVU54
 239 0000 48B1     		cbz	r0, .L24
 128:Middlewares/Third_Party/LwIP/src/api/netbuf.c ****   LWIP_ERROR("netbuf_free: invalid buf", (buf != NULL), return;);
 240              		.loc 1 128 1 is_stmt 0 view .LVU55
 241 0002 10B5     		push	{r4, lr}
 242              	.LCFI4:
 243              		.cfi_def_cfa_offset 8
 244              		.cfi_offset 4, -8
 245              		.cfi_offset 14, -4
 246 0004 0446     		mov	r4, r0
 247              		.loc 1 129 3 is_stmt 1 view .LVU56
 248              		.loc 1 129 3 view .LVU57
 130:Middlewares/Third_Party/LwIP/src/api/netbuf.c ****   if (buf->p != NULL) {
 249              		.loc 1 130 3 view .LVU58
 250              		.loc 1 130 10 is_stmt 0 view .LVU59
 251 0006 0068     		ldr	r0, [r0]
 252              	.LVL15:
 253              		.loc 1 130 6 view .LVU60
 254 0008 08B1     		cbz	r0, .L22
 131:Middlewares/Third_Party/LwIP/src/api/netbuf.c ****     pbuf_free(buf->p);
 255              		.loc 1 131 5 is_stmt 1 view .LVU61
 256 000a FFF7FEFF 		bl	pbuf_free
 257              	.LVL16:
 258              	.L22:
 132:Middlewares/Third_Party/LwIP/src/api/netbuf.c ****   }
ARM GAS  C:\Users\hh\AppData\Local\Temp\cckcuEVD.s 			page 8


 133:Middlewares/Third_Party/LwIP/src/api/netbuf.c ****   buf->p = buf->ptr = NULL;
 259              		.loc 1 133 3 view .LVU62
 260              		.loc 1 133 21 is_stmt 0 view .LVU63
 261 000e 0023     		movs	r3, #0
 262 0010 6360     		str	r3, [r4, #4]
 263              		.loc 1 133 10 view .LVU64
 264 0012 2360     		str	r3, [r4]
 134:Middlewares/Third_Party/LwIP/src/api/netbuf.c **** #if LWIP_CHECKSUM_ON_COPY
 135:Middlewares/Third_Party/LwIP/src/api/netbuf.c ****   buf->flags = 0;
 136:Middlewares/Third_Party/LwIP/src/api/netbuf.c ****   buf->toport_chksum = 0;
 137:Middlewares/Third_Party/LwIP/src/api/netbuf.c **** #endif /* LWIP_CHECKSUM_ON_COPY */
 138:Middlewares/Third_Party/LwIP/src/api/netbuf.c **** }
 265              		.loc 1 138 1 view .LVU65
 266 0014 10BD     		pop	{r4, pc}
 267              	.LVL17:
 268              	.L24:
 269              	.LCFI5:
 270              		.cfi_def_cfa_offset 0
 271              		.cfi_restore 4
 272              		.cfi_restore 14
 273              		.loc 1 138 1 view .LVU66
 274 0016 7047     		bx	lr
 275              		.cfi_endproc
 276              	.LFE175:
 278              		.section	.text.netbuf_ref,"ax",%progbits
 279              		.align	1
 280              		.global	netbuf_ref
 281              		.syntax unified
 282              		.thumb
 283              		.thumb_func
 285              	netbuf_ref:
 286              	.LVL18:
 287              	.LFB176:
 139:Middlewares/Third_Party/LwIP/src/api/netbuf.c **** 
 140:Middlewares/Third_Party/LwIP/src/api/netbuf.c **** /**
 141:Middlewares/Third_Party/LwIP/src/api/netbuf.c ****  * @ingroup netbuf
 142:Middlewares/Third_Party/LwIP/src/api/netbuf.c ****  * Let a netbuf reference existing (non-volatile) data.
 143:Middlewares/Third_Party/LwIP/src/api/netbuf.c ****  *
 144:Middlewares/Third_Party/LwIP/src/api/netbuf.c ****  * @param buf netbuf which should reference the data
 145:Middlewares/Third_Party/LwIP/src/api/netbuf.c ****  * @param dataptr pointer to the data to reference
 146:Middlewares/Third_Party/LwIP/src/api/netbuf.c ****  * @param size size of the data
 147:Middlewares/Third_Party/LwIP/src/api/netbuf.c ****  * @return ERR_OK if data is referenced
 148:Middlewares/Third_Party/LwIP/src/api/netbuf.c ****  *         ERR_MEM if data couldn't be referenced due to lack of memory
 149:Middlewares/Third_Party/LwIP/src/api/netbuf.c ****  */
 150:Middlewares/Third_Party/LwIP/src/api/netbuf.c **** err_t
 151:Middlewares/Third_Party/LwIP/src/api/netbuf.c **** netbuf_ref(struct netbuf *buf, const void *dataptr, u16_t size)
 152:Middlewares/Third_Party/LwIP/src/api/netbuf.c **** {
 288              		.loc 1 152 1 is_stmt 1 view -0
 289              		.cfi_startproc
 290              		@ args = 0, pretend = 0, frame = 0
 291              		@ frame_needed = 0, uses_anonymous_args = 0
 153:Middlewares/Third_Party/LwIP/src/api/netbuf.c ****   LWIP_ERROR("netbuf_ref: invalid buf", (buf != NULL), return ERR_ARG;);
 292              		.loc 1 153 3 view .LVU68
 293              		.loc 1 153 3 view .LVU69
 294 0000 D8B1     		cbz	r0, .L31
 152:Middlewares/Third_Party/LwIP/src/api/netbuf.c ****   LWIP_ERROR("netbuf_ref: invalid buf", (buf != NULL), return ERR_ARG;);
 295              		.loc 1 152 1 is_stmt 0 view .LVU70
ARM GAS  C:\Users\hh\AppData\Local\Temp\cckcuEVD.s 			page 9


 296 0002 70B5     		push	{r4, r5, r6, lr}
 297              	.LCFI6:
 298              		.cfi_def_cfa_offset 16
 299              		.cfi_offset 4, -16
 300              		.cfi_offset 5, -12
 301              		.cfi_offset 6, -8
 302              		.cfi_offset 14, -4
 303 0004 0E46     		mov	r6, r1
 304 0006 1546     		mov	r5, r2
 305 0008 0446     		mov	r4, r0
 306              		.loc 1 153 3 is_stmt 1 view .LVU71
 307              		.loc 1 153 3 view .LVU72
 154:Middlewares/Third_Party/LwIP/src/api/netbuf.c ****   if (buf->p != NULL) {
 308              		.loc 1 154 3 view .LVU73
 309              		.loc 1 154 10 is_stmt 0 view .LVU74
 310 000a 0068     		ldr	r0, [r0]
 311              	.LVL19:
 312              		.loc 1 154 6 view .LVU75
 313 000c 08B1     		cbz	r0, .L29
 155:Middlewares/Third_Party/LwIP/src/api/netbuf.c ****     pbuf_free(buf->p);
 314              		.loc 1 155 5 is_stmt 1 view .LVU76
 315 000e FFF7FEFF 		bl	pbuf_free
 316              	.LVL20:
 317              	.L29:
 156:Middlewares/Third_Party/LwIP/src/api/netbuf.c ****   }
 157:Middlewares/Third_Party/LwIP/src/api/netbuf.c ****   buf->p = pbuf_alloc(PBUF_TRANSPORT, 0, PBUF_REF);
 318              		.loc 1 157 3 view .LVU77
 319              		.loc 1 157 12 is_stmt 0 view .LVU78
 320 0012 4122     		movs	r2, #65
 321 0014 0021     		movs	r1, #0
 322 0016 3620     		movs	r0, #54
 323 0018 FFF7FEFF 		bl	pbuf_alloc
 324              	.LVL21:
 325              		.loc 1 157 10 discriminator 1 view .LVU79
 326 001c 2060     		str	r0, [r4]
 158:Middlewares/Third_Party/LwIP/src/api/netbuf.c ****   if (buf->p == NULL) {
 327              		.loc 1 158 3 is_stmt 1 view .LVU80
 328              		.loc 1 158 6 is_stmt 0 view .LVU81
 329 001e 40B1     		cbz	r0, .L36
 159:Middlewares/Third_Party/LwIP/src/api/netbuf.c ****     buf->ptr = NULL;
 160:Middlewares/Third_Party/LwIP/src/api/netbuf.c ****     return ERR_MEM;
 161:Middlewares/Third_Party/LwIP/src/api/netbuf.c ****   }
 162:Middlewares/Third_Party/LwIP/src/api/netbuf.c ****   ((struct pbuf_rom *)buf->p)->payload = dataptr;
 330              		.loc 1 162 3 is_stmt 1 view .LVU82
 331              		.loc 1 162 40 is_stmt 0 view .LVU83
 332 0020 4660     		str	r6, [r0, #4]
 163:Middlewares/Third_Party/LwIP/src/api/netbuf.c ****   buf->p->len = buf->p->tot_len = size;
 333              		.loc 1 163 3 is_stmt 1 view .LVU84
 334              		.loc 1 163 20 is_stmt 0 view .LVU85
 335 0022 2368     		ldr	r3, [r4]
 336              		.loc 1 163 33 view .LVU86
 337 0024 1D81     		strh	r5, [r3, #8]	@ movhi
 338              		.loc 1 163 6 view .LVU87
 339 0026 2368     		ldr	r3, [r4]
 340              		.loc 1 163 15 view .LVU88
 341 0028 5D81     		strh	r5, [r3, #10]	@ movhi
 164:Middlewares/Third_Party/LwIP/src/api/netbuf.c ****   buf->ptr = buf->p;
ARM GAS  C:\Users\hh\AppData\Local\Temp\cckcuEVD.s 			page 10


 342              		.loc 1 164 3 is_stmt 1 view .LVU89
 343              		.loc 1 164 17 is_stmt 0 view .LVU90
 344 002a 2368     		ldr	r3, [r4]
 345              		.loc 1 164 12 view .LVU91
 346 002c 6360     		str	r3, [r4, #4]
 165:Middlewares/Third_Party/LwIP/src/api/netbuf.c ****   return ERR_OK;
 347              		.loc 1 165 3 is_stmt 1 view .LVU92
 348              		.loc 1 165 10 is_stmt 0 view .LVU93
 349 002e 0020     		movs	r0, #0
 350              	.L28:
 166:Middlewares/Third_Party/LwIP/src/api/netbuf.c **** }
 351              		.loc 1 166 1 view .LVU94
 352 0030 70BD     		pop	{r4, r5, r6, pc}
 353              	.LVL22:
 354              	.L36:
 159:Middlewares/Third_Party/LwIP/src/api/netbuf.c ****     return ERR_MEM;
 355              		.loc 1 159 5 is_stmt 1 view .LVU95
 159:Middlewares/Third_Party/LwIP/src/api/netbuf.c ****     return ERR_MEM;
 356              		.loc 1 159 14 is_stmt 0 view .LVU96
 357 0032 6060     		str	r0, [r4, #4]
 160:Middlewares/Third_Party/LwIP/src/api/netbuf.c ****   }
 358              		.loc 1 160 5 is_stmt 1 view .LVU97
 160:Middlewares/Third_Party/LwIP/src/api/netbuf.c ****   }
 359              		.loc 1 160 12 is_stmt 0 view .LVU98
 360 0034 4FF0FF30 		mov	r0, #-1
 361 0038 FAE7     		b	.L28
 362              	.LVL23:
 363              	.L31:
 364              	.LCFI7:
 365              		.cfi_def_cfa_offset 0
 366              		.cfi_restore 4
 367              		.cfi_restore 5
 368              		.cfi_restore 6
 369              		.cfi_restore 14
 153:Middlewares/Third_Party/LwIP/src/api/netbuf.c ****   if (buf->p != NULL) {
 370              		.loc 1 153 3 discriminator 1 view .LVU99
 371 003a 6FF00F00 		mvn	r0, #15
 372              	.LVL24:
 373              		.loc 1 166 1 view .LVU100
 374 003e 7047     		bx	lr
 375              		.cfi_endproc
 376              	.LFE176:
 378              		.section	.text.netbuf_chain,"ax",%progbits
 379              		.align	1
 380              		.global	netbuf_chain
 381              		.syntax unified
 382              		.thumb
 383              		.thumb_func
 385              	netbuf_chain:
 386              	.LVL25:
 387              	.LFB177:
 167:Middlewares/Third_Party/LwIP/src/api/netbuf.c **** 
 168:Middlewares/Third_Party/LwIP/src/api/netbuf.c **** /**
 169:Middlewares/Third_Party/LwIP/src/api/netbuf.c ****  * @ingroup netbuf
 170:Middlewares/Third_Party/LwIP/src/api/netbuf.c ****  * Chain one netbuf to another (@see pbuf_chain)
 171:Middlewares/Third_Party/LwIP/src/api/netbuf.c ****  *
 172:Middlewares/Third_Party/LwIP/src/api/netbuf.c ****  * @param head the first netbuf
ARM GAS  C:\Users\hh\AppData\Local\Temp\cckcuEVD.s 			page 11


 173:Middlewares/Third_Party/LwIP/src/api/netbuf.c ****  * @param tail netbuf to chain after head, freed by this function, may not be reference after retur
 174:Middlewares/Third_Party/LwIP/src/api/netbuf.c ****  */
 175:Middlewares/Third_Party/LwIP/src/api/netbuf.c **** void
 176:Middlewares/Third_Party/LwIP/src/api/netbuf.c **** netbuf_chain(struct netbuf *head, struct netbuf *tail)
 177:Middlewares/Third_Party/LwIP/src/api/netbuf.c **** {
 388              		.loc 1 177 1 is_stmt 1 view -0
 389              		.cfi_startproc
 390              		@ args = 0, pretend = 0, frame = 0
 391              		@ frame_needed = 0, uses_anonymous_args = 0
 178:Middlewares/Third_Party/LwIP/src/api/netbuf.c ****   LWIP_ERROR("netbuf_chain: invalid head", (head != NULL), return;);
 392              		.loc 1 178 3 view .LVU102
 393              		.loc 1 178 3 view .LVU103
 394 0000 70B1     		cbz	r0, .L40
 177:Middlewares/Third_Party/LwIP/src/api/netbuf.c ****   LWIP_ERROR("netbuf_chain: invalid head", (head != NULL), return;);
 395              		.loc 1 177 1 is_stmt 0 view .LVU104
 396 0002 38B5     		push	{r3, r4, r5, lr}
 397              	.LCFI8:
 398              		.cfi_def_cfa_offset 16
 399              		.cfi_offset 3, -16
 400              		.cfi_offset 4, -12
 401              		.cfi_offset 5, -8
 402              		.cfi_offset 14, -4
 403 0004 0C46     		mov	r4, r1
 404 0006 0546     		mov	r5, r0
 405              		.loc 1 178 3 is_stmt 1 view .LVU105
 406              		.loc 1 178 3 view .LVU106
 179:Middlewares/Third_Party/LwIP/src/api/netbuf.c ****   LWIP_ERROR("netbuf_chain: invalid tail", (tail != NULL), return;);
 407              		.loc 1 179 3 view .LVU107
 408              		.loc 1 179 3 view .LVU108
 409 0008 49B1     		cbz	r1, .L37
 410              		.loc 1 179 3 view .LVU109
 411              		.loc 1 179 3 view .LVU110
 180:Middlewares/Third_Party/LwIP/src/api/netbuf.c ****   pbuf_cat(head->p, tail->p);
 412              		.loc 1 180 3 view .LVU111
 413 000a 0968     		ldr	r1, [r1]
 414              	.LVL26:
 415              		.loc 1 180 3 is_stmt 0 view .LVU112
 416 000c 0068     		ldr	r0, [r0]
 417              	.LVL27:
 418              		.loc 1 180 3 view .LVU113
 419 000e FFF7FEFF 		bl	pbuf_cat
 420              	.LVL28:
 181:Middlewares/Third_Party/LwIP/src/api/netbuf.c ****   head->ptr = head->p;
 421              		.loc 1 181 3 is_stmt 1 view .LVU114
 422              		.loc 1 181 19 is_stmt 0 view .LVU115
 423 0012 2B68     		ldr	r3, [r5]
 424              		.loc 1 181 13 view .LVU116
 425 0014 6B60     		str	r3, [r5, #4]
 182:Middlewares/Third_Party/LwIP/src/api/netbuf.c ****   memp_free(MEMP_NETBUF, tail);
 426              		.loc 1 182 3 is_stmt 1 view .LVU117
 427 0016 2146     		mov	r1, r4
 428 0018 0520     		movs	r0, #5
 429 001a FFF7FEFF 		bl	memp_free
 430              	.LVL29:
 431              	.L37:
 183:Middlewares/Third_Party/LwIP/src/api/netbuf.c **** }
 432              		.loc 1 183 1 is_stmt 0 view .LVU118
ARM GAS  C:\Users\hh\AppData\Local\Temp\cckcuEVD.s 			page 12


 433 001e 38BD     		pop	{r3, r4, r5, pc}
 434              	.LVL30:
 435              	.L40:
 436              	.LCFI9:
 437              		.cfi_def_cfa_offset 0
 438              		.cfi_restore 3
 439              		.cfi_restore 4
 440              		.cfi_restore 5
 441              		.cfi_restore 14
 442              		.loc 1 183 1 view .LVU119
 443 0020 7047     		bx	lr
 444              		.cfi_endproc
 445              	.LFE177:
 447              		.section	.text.netbuf_data,"ax",%progbits
 448              		.align	1
 449              		.global	netbuf_data
 450              		.syntax unified
 451              		.thumb
 452              		.thumb_func
 454              	netbuf_data:
 455              	.LVL31:
 456              	.LFB178:
 184:Middlewares/Third_Party/LwIP/src/api/netbuf.c **** 
 185:Middlewares/Third_Party/LwIP/src/api/netbuf.c **** /**
 186:Middlewares/Third_Party/LwIP/src/api/netbuf.c ****  * @ingroup netbuf
 187:Middlewares/Third_Party/LwIP/src/api/netbuf.c ****  * Get the data pointer and length of the data inside a netbuf.
 188:Middlewares/Third_Party/LwIP/src/api/netbuf.c ****  *
 189:Middlewares/Third_Party/LwIP/src/api/netbuf.c ****  * @param buf netbuf to get the data from
 190:Middlewares/Third_Party/LwIP/src/api/netbuf.c ****  * @param dataptr pointer to a void pointer where to store the data pointer
 191:Middlewares/Third_Party/LwIP/src/api/netbuf.c ****  * @param len pointer to an u16_t where the length of the data is stored
 192:Middlewares/Third_Party/LwIP/src/api/netbuf.c ****  * @return ERR_OK if the information was retrieved,
 193:Middlewares/Third_Party/LwIP/src/api/netbuf.c ****  *         ERR_BUF on error.
 194:Middlewares/Third_Party/LwIP/src/api/netbuf.c ****  */
 195:Middlewares/Third_Party/LwIP/src/api/netbuf.c **** err_t
 196:Middlewares/Third_Party/LwIP/src/api/netbuf.c **** netbuf_data(struct netbuf *buf, void **dataptr, u16_t *len)
 197:Middlewares/Third_Party/LwIP/src/api/netbuf.c **** {
 457              		.loc 1 197 1 is_stmt 1 view -0
 458              		.cfi_startproc
 459              		@ args = 0, pretend = 0, frame = 0
 460              		@ frame_needed = 0, uses_anonymous_args = 0
 461              		@ link register save eliminated.
 198:Middlewares/Third_Party/LwIP/src/api/netbuf.c ****   LWIP_ERROR("netbuf_data: invalid buf", (buf != NULL), return ERR_ARG;);
 462              		.loc 1 198 3 view .LVU121
 463              		.loc 1 198 3 view .LVU122
 464 0000 0346     		mov	r3, r0
 465 0002 50B1     		cbz	r0, .L45
 466              		.loc 1 198 3 view .LVU123
 467              		.loc 1 198 3 view .LVU124
 199:Middlewares/Third_Party/LwIP/src/api/netbuf.c ****   LWIP_ERROR("netbuf_data: invalid dataptr", (dataptr != NULL), return ERR_ARG;);
 468              		.loc 1 199 3 view .LVU125
 469              		.loc 1 199 3 view .LVU126
 470 0004 61B1     		cbz	r1, .L46
 471              		.loc 1 199 3 view .LVU127
 472              		.loc 1 199 3 view .LVU128
 200:Middlewares/Third_Party/LwIP/src/api/netbuf.c ****   LWIP_ERROR("netbuf_data: invalid len", (len != NULL), return ERR_ARG;);
 473              		.loc 1 200 3 view .LVU129
 474              		.loc 1 200 3 view .LVU130
ARM GAS  C:\Users\hh\AppData\Local\Temp\cckcuEVD.s 			page 13


 475 0006 72B1     		cbz	r2, .L47
 476              		.loc 1 200 3 view .LVU131
 477              		.loc 1 200 3 view .LVU132
 201:Middlewares/Third_Party/LwIP/src/api/netbuf.c **** 
 202:Middlewares/Third_Party/LwIP/src/api/netbuf.c ****   if (buf->ptr == NULL) {
 478              		.loc 1 202 3 view .LVU133
 479              		.loc 1 202 10 is_stmt 0 view .LVU134
 480 0008 4068     		ldr	r0, [r0, #4]
 481              	.LVL32:
 482              		.loc 1 202 6 view .LVU135
 483 000a 78B1     		cbz	r0, .L48
 203:Middlewares/Third_Party/LwIP/src/api/netbuf.c ****     return ERR_BUF;
 204:Middlewares/Third_Party/LwIP/src/api/netbuf.c ****   }
 205:Middlewares/Third_Party/LwIP/src/api/netbuf.c ****   *dataptr = buf->ptr->payload;
 484              		.loc 1 205 3 is_stmt 1 view .LVU136
 485              		.loc 1 205 22 is_stmt 0 view .LVU137
 486 000c 4068     		ldr	r0, [r0, #4]
 487              		.loc 1 205 12 view .LVU138
 488 000e 0860     		str	r0, [r1]
 206:Middlewares/Third_Party/LwIP/src/api/netbuf.c ****   *len = buf->ptr->len;
 489              		.loc 1 206 3 is_stmt 1 view .LVU139
 490              		.loc 1 206 13 is_stmt 0 view .LVU140
 491 0010 5B68     		ldr	r3, [r3, #4]
 492              	.LVL33:
 493              		.loc 1 206 18 view .LVU141
 494 0012 5B89     		ldrh	r3, [r3, #10]
 495              		.loc 1 206 8 view .LVU142
 496 0014 1380     		strh	r3, [r2]	@ movhi
 207:Middlewares/Third_Party/LwIP/src/api/netbuf.c ****   return ERR_OK;
 497              		.loc 1 207 3 is_stmt 1 view .LVU143
 498              		.loc 1 207 10 is_stmt 0 view .LVU144
 499 0016 0020     		movs	r0, #0
 500 0018 7047     		bx	lr
 501              	.LVL34:
 502              	.L45:
 198:Middlewares/Third_Party/LwIP/src/api/netbuf.c ****   LWIP_ERROR("netbuf_data: invalid dataptr", (dataptr != NULL), return ERR_ARG;);
 503              		.loc 1 198 3 discriminator 1 view .LVU145
 504 001a 6FF00F00 		mvn	r0, #15
 505              	.LVL35:
 198:Middlewares/Third_Party/LwIP/src/api/netbuf.c ****   LWIP_ERROR("netbuf_data: invalid dataptr", (dataptr != NULL), return ERR_ARG;);
 506              		.loc 1 198 3 discriminator 1 view .LVU146
 507 001e 7047     		bx	lr
 508              	.LVL36:
 509              	.L46:
 199:Middlewares/Third_Party/LwIP/src/api/netbuf.c ****   LWIP_ERROR("netbuf_data: invalid len", (len != NULL), return ERR_ARG;);
 510              		.loc 1 199 3 discriminator 1 view .LVU147
 511 0020 6FF00F00 		mvn	r0, #15
 512              	.LVL37:
 199:Middlewares/Third_Party/LwIP/src/api/netbuf.c ****   LWIP_ERROR("netbuf_data: invalid len", (len != NULL), return ERR_ARG;);
 513              		.loc 1 199 3 discriminator 1 view .LVU148
 514 0024 7047     		bx	lr
 515              	.LVL38:
 516              	.L47:
 200:Middlewares/Third_Party/LwIP/src/api/netbuf.c **** 
 517              		.loc 1 200 3 discriminator 1 view .LVU149
 518 0026 6FF00F00 		mvn	r0, #15
 519              	.LVL39:
ARM GAS  C:\Users\hh\AppData\Local\Temp\cckcuEVD.s 			page 14


 200:Middlewares/Third_Party/LwIP/src/api/netbuf.c **** 
 520              		.loc 1 200 3 discriminator 1 view .LVU150
 521 002a 7047     		bx	lr
 522              	.L48:
 203:Middlewares/Third_Party/LwIP/src/api/netbuf.c ****   }
 523              		.loc 1 203 12 view .LVU151
 524 002c 6FF00100 		mvn	r0, #1
 208:Middlewares/Third_Party/LwIP/src/api/netbuf.c **** }
 525              		.loc 1 208 1 view .LVU152
 526 0030 7047     		bx	lr
 527              		.cfi_endproc
 528              	.LFE178:
 530              		.section	.text.netbuf_next,"ax",%progbits
 531              		.align	1
 532              		.global	netbuf_next
 533              		.syntax unified
 534              		.thumb
 535              		.thumb_func
 537              	netbuf_next:
 538              	.LVL40:
 539              	.LFB179:
 209:Middlewares/Third_Party/LwIP/src/api/netbuf.c **** 
 210:Middlewares/Third_Party/LwIP/src/api/netbuf.c **** /**
 211:Middlewares/Third_Party/LwIP/src/api/netbuf.c ****  * @ingroup netbuf
 212:Middlewares/Third_Party/LwIP/src/api/netbuf.c ****  * Move the current data pointer of a packet buffer contained in a netbuf
 213:Middlewares/Third_Party/LwIP/src/api/netbuf.c ****  * to the next part.
 214:Middlewares/Third_Party/LwIP/src/api/netbuf.c ****  * The packet buffer itself is not modified.
 215:Middlewares/Third_Party/LwIP/src/api/netbuf.c ****  *
 216:Middlewares/Third_Party/LwIP/src/api/netbuf.c ****  * @param buf the netbuf to modify
 217:Middlewares/Third_Party/LwIP/src/api/netbuf.c ****  * @return -1 if there is no next part
 218:Middlewares/Third_Party/LwIP/src/api/netbuf.c ****  *         1  if moved to the next part but now there is no next part
 219:Middlewares/Third_Party/LwIP/src/api/netbuf.c ****  *         0  if moved to the next part and there are still more parts
 220:Middlewares/Third_Party/LwIP/src/api/netbuf.c ****  */
 221:Middlewares/Third_Party/LwIP/src/api/netbuf.c **** s8_t
 222:Middlewares/Third_Party/LwIP/src/api/netbuf.c **** netbuf_next(struct netbuf *buf)
 223:Middlewares/Third_Party/LwIP/src/api/netbuf.c **** {
 540              		.loc 1 223 1 is_stmt 1 view -0
 541              		.cfi_startproc
 542              		@ args = 0, pretend = 0, frame = 0
 543              		@ frame_needed = 0, uses_anonymous_args = 0
 544              		@ link register save eliminated.
 224:Middlewares/Third_Party/LwIP/src/api/netbuf.c ****   LWIP_ERROR("netbuf_next: invalid buf", (buf != NULL), return -1;);
 545              		.loc 1 224 3 view .LVU154
 546              		.loc 1 224 3 view .LVU155
 547 0000 38B1     		cbz	r0, .L51
 548              		.loc 1 224 3 view .LVU156
 549              		.loc 1 224 3 view .LVU157
 225:Middlewares/Third_Party/LwIP/src/api/netbuf.c ****   if (buf->ptr->next == NULL) {
 550              		.loc 1 225 3 view .LVU158
 551              		.loc 1 225 10 is_stmt 0 view .LVU159
 552 0002 4368     		ldr	r3, [r0, #4]
 553              		.loc 1 225 15 view .LVU160
 554 0004 1B68     		ldr	r3, [r3]
 555              		.loc 1 225 6 view .LVU161
 556 0006 3BB1     		cbz	r3, .L52
 226:Middlewares/Third_Party/LwIP/src/api/netbuf.c ****     return -1;
 227:Middlewares/Third_Party/LwIP/src/api/netbuf.c ****   }
ARM GAS  C:\Users\hh\AppData\Local\Temp\cckcuEVD.s 			page 15


 228:Middlewares/Third_Party/LwIP/src/api/netbuf.c ****   buf->ptr = buf->ptr->next;
 557              		.loc 1 228 3 is_stmt 1 view .LVU162
 558              		.loc 1 228 12 is_stmt 0 view .LVU163
 559 0008 4360     		str	r3, [r0, #4]
 229:Middlewares/Third_Party/LwIP/src/api/netbuf.c ****   if (buf->ptr->next == NULL) {
 560              		.loc 1 229 3 is_stmt 1 view .LVU164
 561              		.loc 1 229 15 is_stmt 0 view .LVU165
 562 000a 1B68     		ldr	r3, [r3]
 563              		.loc 1 229 6 view .LVU166
 564 000c 3BB1     		cbz	r3, .L53
 230:Middlewares/Third_Party/LwIP/src/api/netbuf.c ****     return 1;
 231:Middlewares/Third_Party/LwIP/src/api/netbuf.c ****   }
 232:Middlewares/Third_Party/LwIP/src/api/netbuf.c ****   return 0;
 565              		.loc 1 232 10 view .LVU167
 566 000e 0020     		movs	r0, #0
 567              	.LVL41:
 568              		.loc 1 232 10 view .LVU168
 569 0010 7047     		bx	lr
 570              	.LVL42:
 571              	.L51:
 224:Middlewares/Third_Party/LwIP/src/api/netbuf.c ****   if (buf->ptr->next == NULL) {
 572              		.loc 1 224 3 discriminator 1 view .LVU169
 573 0012 4FF0FF30 		mov	r0, #-1
 574              	.LVL43:
 224:Middlewares/Third_Party/LwIP/src/api/netbuf.c ****   if (buf->ptr->next == NULL) {
 575              		.loc 1 224 3 discriminator 1 view .LVU170
 576 0016 7047     		bx	lr
 577              	.LVL44:
 578              	.L52:
 226:Middlewares/Third_Party/LwIP/src/api/netbuf.c ****   }
 579              		.loc 1 226 12 view .LVU171
 580 0018 4FF0FF30 		mov	r0, #-1
 581              	.LVL45:
 226:Middlewares/Third_Party/LwIP/src/api/netbuf.c ****   }
 582              		.loc 1 226 12 view .LVU172
 583 001c 7047     		bx	lr
 584              	.LVL46:
 585              	.L53:
 230:Middlewares/Third_Party/LwIP/src/api/netbuf.c ****     return 1;
 586              		.loc 1 230 12 view .LVU173
 587 001e 0120     		movs	r0, #1
 588              	.LVL47:
 233:Middlewares/Third_Party/LwIP/src/api/netbuf.c **** }
 589              		.loc 1 233 1 view .LVU174
 590 0020 7047     		bx	lr
 591              		.cfi_endproc
 592              	.LFE179:
 594              		.section	.text.netbuf_first,"ax",%progbits
 595              		.align	1
 596              		.global	netbuf_first
 597              		.syntax unified
 598              		.thumb
 599              		.thumb_func
 601              	netbuf_first:
 602              	.LVL48:
 603              	.LFB180:
 234:Middlewares/Third_Party/LwIP/src/api/netbuf.c **** 
ARM GAS  C:\Users\hh\AppData\Local\Temp\cckcuEVD.s 			page 16


 235:Middlewares/Third_Party/LwIP/src/api/netbuf.c **** /**
 236:Middlewares/Third_Party/LwIP/src/api/netbuf.c ****  * @ingroup netbuf
 237:Middlewares/Third_Party/LwIP/src/api/netbuf.c ****  * Move the current data pointer of a packet buffer contained in a netbuf
 238:Middlewares/Third_Party/LwIP/src/api/netbuf.c ****  * to the beginning of the packet.
 239:Middlewares/Third_Party/LwIP/src/api/netbuf.c ****  * The packet buffer itself is not modified.
 240:Middlewares/Third_Party/LwIP/src/api/netbuf.c ****  *
 241:Middlewares/Third_Party/LwIP/src/api/netbuf.c ****  * @param buf the netbuf to modify
 242:Middlewares/Third_Party/LwIP/src/api/netbuf.c ****  */
 243:Middlewares/Third_Party/LwIP/src/api/netbuf.c **** void
 244:Middlewares/Third_Party/LwIP/src/api/netbuf.c **** netbuf_first(struct netbuf *buf)
 245:Middlewares/Third_Party/LwIP/src/api/netbuf.c **** {
 604              		.loc 1 245 1 is_stmt 1 view -0
 605              		.cfi_startproc
 606              		@ args = 0, pretend = 0, frame = 0
 607              		@ frame_needed = 0, uses_anonymous_args = 0
 608              		@ link register save eliminated.
 246:Middlewares/Third_Party/LwIP/src/api/netbuf.c ****   LWIP_ERROR("netbuf_first: invalid buf", (buf != NULL), return;);
 609              		.loc 1 246 3 view .LVU176
 610              		.loc 1 246 3 view .LVU177
 611 0000 08B1     		cbz	r0, .L54
 612              		.loc 1 246 3 view .LVU178
 613              		.loc 1 246 3 view .LVU179
 247:Middlewares/Third_Party/LwIP/src/api/netbuf.c ****   buf->ptr = buf->p;
 614              		.loc 1 247 3 view .LVU180
 615              		.loc 1 247 17 is_stmt 0 view .LVU181
 616 0002 0268     		ldr	r2, [r0]
 617              		.loc 1 247 12 view .LVU182
 618 0004 4260     		str	r2, [r0, #4]
 619              	.L54:
 248:Middlewares/Third_Party/LwIP/src/api/netbuf.c **** }
 620              		.loc 1 248 1 view .LVU183
 621 0006 7047     		bx	lr
 622              		.cfi_endproc
 623              	.LFE180:
 625              		.text
 626              	.Letext0:
 627              		.file 2 "C:/Program Files (x86)/ARM/arm-gnu-toolchain-15.2.rel1-mingw-w64-i686-arm-none-eabi/arm-n
 628              		.file 3 "C:/Program Files (x86)/ARM/arm-gnu-toolchain-15.2.rel1-mingw-w64-i686-arm-none-eabi/arm-n
 629              		.file 4 "Middlewares/Third_Party/LwIP/src/include/lwip/arch.h"
 630              		.file 5 "Middlewares/Third_Party/LwIP/src/include/lwip/err.h"
 631              		.file 6 "Middlewares/Third_Party/LwIP/src/include/lwip/pbuf.h"
 632              		.file 7 "Middlewares/Third_Party/LwIP/src/include/lwip/ip4_addr.h"
 633              		.file 8 "Middlewares/Third_Party/LwIP/src/include/lwip/ip_addr.h"
 634              		.file 9 "Middlewares/Third_Party/LwIP/src/include/lwip/netbuf.h"
 635              		.file 10 "Middlewares/Third_Party/LwIP/src/include/lwip/memp.h"
 636              		.file 11 "C:/Program Files (x86)/ARM/arm-gnu-toolchain-15.2.rel1-mingw-w64-i686-arm-none-eabi/arm-
 637              		.file 12 "C:/Program Files (x86)/ARM/arm-gnu-toolchain-15.2.rel1-mingw-w64-i686-arm-none-eabi/arm-
ARM GAS  C:\Users\hh\AppData\Local\Temp\cckcuEVD.s 			page 17

