ARM GAS  C:\Users\hh\AppData\Local\Temp\cc4xdARK.s 			page 1


   1              		.cpu cortex-m7
   2              		.arch armv7e-m
   3              		.fpu fpv5-d16
   4              		.eabi_attribute 28, 1
   5              		.eabi_attribute 20, 1
   6              		.eabi_attribute 21, 1
   7              		.eabi_attribute 23, 3
   8              		.eabi_attribute 24, 1
   9              		.eabi_attribute 25, 1
  10              		.eabi_attribute 26, 1
  11              		.eabi_attribute 30, 1
  12              		.eabi_attribute 34, 1
  13              		.eabi_attribute 18, 4
  14              		.file	"spi.c"
  15              		.text
  16              	.Ltext0:
  17              		.cfi_sections	.debug_frame
  18              		.file 1 "Core/Src/spi.c"
  19              		.section	.text.MX_SPI1_Init,"ax",%progbits
  20              		.align	1
  21              		.global	MX_SPI1_Init
  22              		.syntax unified
  23              		.thumb
  24              		.thumb_func
  26              	MX_SPI1_Init:
  27              	.LFB146:
   1:Core/Src/spi.c **** /* USER CODE BEGIN Header */
   2:Core/Src/spi.c **** /**
   3:Core/Src/spi.c ****   ******************************************************************************
   4:Core/Src/spi.c ****   * @file    spi.c
   5:Core/Src/spi.c ****   * @brief   This file provides code for the configuration
   6:Core/Src/spi.c ****   *          of the SPI instances.
   7:Core/Src/spi.c ****   ******************************************************************************
   8:Core/Src/spi.c ****   * @attention
   9:Core/Src/spi.c ****   *
  10:Core/Src/spi.c ****   * Copyright (c) 2026 STMicroelectronics.
  11:Core/Src/spi.c ****   * All rights reserved.
  12:Core/Src/spi.c ****   *
  13:Core/Src/spi.c ****   * This software is licensed under terms that can be found in the LICENSE file
  14:Core/Src/spi.c ****   * in the root directory of this software component.
  15:Core/Src/spi.c ****   * If no LICENSE file comes with this software, it is provided AS-IS.
  16:Core/Src/spi.c ****   *
  17:Core/Src/spi.c ****   ******************************************************************************
  18:Core/Src/spi.c ****   */
  19:Core/Src/spi.c **** /* USER CODE END Header */
  20:Core/Src/spi.c **** /* Includes ------------------------------------------------------------------*/
  21:Core/Src/spi.c **** #include "spi.h"
  22:Core/Src/spi.c **** 
  23:Core/Src/spi.c **** /* USER CODE BEGIN 0 */
  24:Core/Src/spi.c **** 
  25:Core/Src/spi.c **** /* USER CODE END 0 */
  26:Core/Src/spi.c **** 
  27:Core/Src/spi.c **** SPI_HandleTypeDef hspi1;
  28:Core/Src/spi.c **** 
  29:Core/Src/spi.c **** /* SPI1 init function */
  30:Core/Src/spi.c **** void MX_SPI1_Init(void)
  31:Core/Src/spi.c **** {
ARM GAS  C:\Users\hh\AppData\Local\Temp\cc4xdARK.s 			page 2


  28              		.loc 1 31 1 view -0
  29              		.cfi_startproc
  30              		@ args = 0, pretend = 0, frame = 0
  31              		@ frame_needed = 0, uses_anonymous_args = 0
  32 0000 08B5     		push	{r3, lr}
  33              	.LCFI0:
  34              		.cfi_def_cfa_offset 8
  35              		.cfi_offset 3, -8
  36              		.cfi_offset 14, -4
  32:Core/Src/spi.c **** 
  33:Core/Src/spi.c ****   /* USER CODE BEGIN SPI1_Init 0 */
  34:Core/Src/spi.c **** 
  35:Core/Src/spi.c ****   /* USER CODE END SPI1_Init 0 */
  36:Core/Src/spi.c **** 
  37:Core/Src/spi.c ****   /* USER CODE BEGIN SPI1_Init 1 */
  38:Core/Src/spi.c **** 
  39:Core/Src/spi.c ****   /* USER CODE END SPI1_Init 1 */
  40:Core/Src/spi.c ****   hspi1.Instance = SPI1;
  37              		.loc 1 40 3 view .LVU1
  38              		.loc 1 40 18 is_stmt 0 view .LVU2
  39 0002 1348     		ldr	r0, .L5
  40 0004 134B     		ldr	r3, .L5+4
  41 0006 0360     		str	r3, [r0]
  41:Core/Src/spi.c ****   hspi1.Init.Mode = SPI_MODE_MASTER;
  42              		.loc 1 41 3 is_stmt 1 view .LVU3
  43              		.loc 1 41 19 is_stmt 0 view .LVU4
  44 0008 4FF48003 		mov	r3, #4194304
  45 000c 4360     		str	r3, [r0, #4]
  42:Core/Src/spi.c ****   hspi1.Init.Direction = SPI_DIRECTION_2LINES;
  46              		.loc 1 42 3 is_stmt 1 view .LVU5
  47              		.loc 1 42 24 is_stmt 0 view .LVU6
  48 000e 0023     		movs	r3, #0
  49 0010 8360     		str	r3, [r0, #8]
  43:Core/Src/spi.c ****   hspi1.Init.DataSize = SPI_DATASIZE_4BIT;
  50              		.loc 1 43 3 is_stmt 1 view .LVU7
  51              		.loc 1 43 23 is_stmt 0 view .LVU8
  52 0012 0322     		movs	r2, #3
  53 0014 C260     		str	r2, [r0, #12]
  44:Core/Src/spi.c ****   hspi1.Init.CLKPolarity = SPI_POLARITY_LOW;
  54              		.loc 1 44 3 is_stmt 1 view .LVU9
  55              		.loc 1 44 26 is_stmt 0 view .LVU10
  56 0016 0361     		str	r3, [r0, #16]
  45:Core/Src/spi.c ****   hspi1.Init.CLKPhase = SPI_PHASE_1EDGE;
  57              		.loc 1 45 3 is_stmt 1 view .LVU11
  58              		.loc 1 45 23 is_stmt 0 view .LVU12
  59 0018 4361     		str	r3, [r0, #20]
  46:Core/Src/spi.c ****   hspi1.Init.NSS = SPI_NSS_SOFT;
  60              		.loc 1 46 3 is_stmt 1 view .LVU13
  61              		.loc 1 46 18 is_stmt 0 view .LVU14
  62 001a 4FF08062 		mov	r2, #67108864
  63 001e 8261     		str	r2, [r0, #24]
  47:Core/Src/spi.c ****   hspi1.Init.BaudRatePrescaler = SPI_BAUDRATEPRESCALER_2;
  64              		.loc 1 47 3 is_stmt 1 view .LVU15
  65              		.loc 1 47 32 is_stmt 0 view .LVU16
  66 0020 C361     		str	r3, [r0, #28]
  48:Core/Src/spi.c ****   hspi1.Init.FirstBit = SPI_FIRSTBIT_MSB;
  67              		.loc 1 48 3 is_stmt 1 view .LVU17
ARM GAS  C:\Users\hh\AppData\Local\Temp\cc4xdARK.s 			page 3


  68              		.loc 1 48 23 is_stmt 0 view .LVU18
  69 0022 0362     		str	r3, [r0, #32]
  49:Core/Src/spi.c ****   hspi1.Init.TIMode = SPI_TIMODE_DISABLE;
  70              		.loc 1 49 3 is_stmt 1 view .LVU19
  71              		.loc 1 49 21 is_stmt 0 view .LVU20
  72 0024 4362     		str	r3, [r0, #36]
  50:Core/Src/spi.c ****   hspi1.Init.CRCCalculation = SPI_CRCCALCULATION_DISABLE;
  73              		.loc 1 50 3 is_stmt 1 view .LVU21
  74              		.loc 1 50 29 is_stmt 0 view .LVU22
  75 0026 8362     		str	r3, [r0, #40]
  51:Core/Src/spi.c ****   hspi1.Init.CRCPolynomial = 0x0;
  76              		.loc 1 51 3 is_stmt 1 view .LVU23
  77              		.loc 1 51 28 is_stmt 0 view .LVU24
  78 0028 C362     		str	r3, [r0, #44]
  52:Core/Src/spi.c ****   hspi1.Init.NSSPMode = SPI_NSS_PULSE_ENABLE;
  79              		.loc 1 52 3 is_stmt 1 view .LVU25
  80              		.loc 1 52 23 is_stmt 0 view .LVU26
  81 002a 4FF08042 		mov	r2, #1073741824
  82 002e 4263     		str	r2, [r0, #52]
  53:Core/Src/spi.c ****   hspi1.Init.NSSPolarity = SPI_NSS_POLARITY_LOW;
  83              		.loc 1 53 3 is_stmt 1 view .LVU27
  84              		.loc 1 53 26 is_stmt 0 view .LVU28
  85 0030 8363     		str	r3, [r0, #56]
  54:Core/Src/spi.c ****   hspi1.Init.FifoThreshold = SPI_FIFO_THRESHOLD_01DATA;
  86              		.loc 1 54 3 is_stmt 1 view .LVU29
  87              		.loc 1 54 28 is_stmt 0 view .LVU30
  88 0032 C363     		str	r3, [r0, #60]
  55:Core/Src/spi.c ****   hspi1.Init.TxCRCInitializationPattern = SPI_CRC_INITIALIZATION_ALL_ZERO_PATTERN;
  89              		.loc 1 55 3 is_stmt 1 view .LVU31
  90              		.loc 1 55 41 is_stmt 0 view .LVU32
  91 0034 0364     		str	r3, [r0, #64]
  56:Core/Src/spi.c ****   hspi1.Init.RxCRCInitializationPattern = SPI_CRC_INITIALIZATION_ALL_ZERO_PATTERN;
  92              		.loc 1 56 3 is_stmt 1 view .LVU33
  93              		.loc 1 56 41 is_stmt 0 view .LVU34
  94 0036 4364     		str	r3, [r0, #68]
  57:Core/Src/spi.c ****   hspi1.Init.MasterSSIdleness = SPI_MASTER_SS_IDLENESS_00CYCLE;
  95              		.loc 1 57 3 is_stmt 1 view .LVU35
  96              		.loc 1 57 31 is_stmt 0 view .LVU36
  97 0038 8364     		str	r3, [r0, #72]
  58:Core/Src/spi.c ****   hspi1.Init.MasterInterDataIdleness = SPI_MASTER_INTERDATA_IDLENESS_00CYCLE;
  98              		.loc 1 58 3 is_stmt 1 view .LVU37
  99              		.loc 1 58 38 is_stmt 0 view .LVU38
 100 003a C364     		str	r3, [r0, #76]
  59:Core/Src/spi.c ****   hspi1.Init.MasterReceiverAutoSusp = SPI_MASTER_RX_AUTOSUSP_DISABLE;
 101              		.loc 1 59 3 is_stmt 1 view .LVU39
 102              		.loc 1 59 37 is_stmt 0 view .LVU40
 103 003c 0365     		str	r3, [r0, #80]
  60:Core/Src/spi.c ****   hspi1.Init.MasterKeepIOState = SPI_MASTER_KEEP_IO_STATE_DISABLE;
 104              		.loc 1 60 3 is_stmt 1 view .LVU41
 105              		.loc 1 60 32 is_stmt 0 view .LVU42
 106 003e 4365     		str	r3, [r0, #84]
  61:Core/Src/spi.c ****   hspi1.Init.IOSwap = SPI_IO_SWAP_DISABLE;
 107              		.loc 1 61 3 is_stmt 1 view .LVU43
 108              		.loc 1 61 21 is_stmt 0 view .LVU44
 109 0040 8365     		str	r3, [r0, #88]
  62:Core/Src/spi.c ****   if (HAL_SPI_Init(&hspi1) != HAL_OK)
 110              		.loc 1 62 3 is_stmt 1 view .LVU45
ARM GAS  C:\Users\hh\AppData\Local\Temp\cc4xdARK.s 			page 4


 111              		.loc 1 62 7 is_stmt 0 view .LVU46
 112 0042 FFF7FEFF 		bl	HAL_SPI_Init
 113              	.LVL0:
 114              		.loc 1 62 6 discriminator 1 view .LVU47
 115 0046 00B9     		cbnz	r0, .L4
 116              	.L1:
  63:Core/Src/spi.c ****   {
  64:Core/Src/spi.c ****     Error_Handler();
  65:Core/Src/spi.c ****   }
  66:Core/Src/spi.c ****   /* USER CODE BEGIN SPI1_Init 2 */
  67:Core/Src/spi.c **** 
  68:Core/Src/spi.c ****   /* USER CODE END SPI1_Init 2 */
  69:Core/Src/spi.c **** 
  70:Core/Src/spi.c **** }
 117              		.loc 1 70 1 view .LVU48
 118 0048 08BD     		pop	{r3, pc}
 119              	.L4:
  64:Core/Src/spi.c ****   }
 120              		.loc 1 64 5 is_stmt 1 view .LVU49
 121 004a FFF7FEFF 		bl	Error_Handler
 122              	.LVL1:
 123              		.loc 1 70 1 is_stmt 0 view .LVU50
 124 004e FBE7     		b	.L1
 125              	.L6:
 126              		.align	2
 127              	.L5:
 128 0050 00000000 		.word	hspi1
 129 0054 00300140 		.word	1073819648
 130              		.cfi_endproc
 131              	.LFE146:
 133              		.section	.text.HAL_SPI_MspInit,"ax",%progbits
 134              		.align	1
 135              		.global	HAL_SPI_MspInit
 136              		.syntax unified
 137              		.thumb
 138              		.thumb_func
 140              	HAL_SPI_MspInit:
 141              	.LVL2:
 142              	.LFB147:
  71:Core/Src/spi.c **** 
  72:Core/Src/spi.c **** void HAL_SPI_MspInit(SPI_HandleTypeDef* spiHandle)
  73:Core/Src/spi.c **** {
 143              		.loc 1 73 1 is_stmt 1 view -0
 144              		.cfi_startproc
 145              		@ args = 0, pretend = 0, frame = 232
 146              		@ frame_needed = 0, uses_anonymous_args = 0
 147              		.loc 1 73 1 is_stmt 0 view .LVU52
 148 0000 70B5     		push	{r4, r5, r6, lr}
 149              	.LCFI1:
 150              		.cfi_def_cfa_offset 16
 151              		.cfi_offset 4, -16
 152              		.cfi_offset 5, -12
 153              		.cfi_offset 6, -8
 154              		.cfi_offset 14, -4
 155 0002 BAB0     		sub	sp, sp, #232
 156              	.LCFI2:
 157              		.cfi_def_cfa_offset 248
ARM GAS  C:\Users\hh\AppData\Local\Temp\cc4xdARK.s 			page 5


 158 0004 0446     		mov	r4, r0
  74:Core/Src/spi.c **** 
  75:Core/Src/spi.c ****   GPIO_InitTypeDef GPIO_InitStruct = {0};
 159              		.loc 1 75 3 is_stmt 1 view .LVU53
 160              		.loc 1 75 20 is_stmt 0 view .LVU54
 161 0006 0021     		movs	r1, #0
 162 0008 3591     		str	r1, [sp, #212]
 163 000a 3691     		str	r1, [sp, #216]
 164 000c 3791     		str	r1, [sp, #220]
 165 000e 3891     		str	r1, [sp, #224]
 166 0010 3991     		str	r1, [sp, #228]
  76:Core/Src/spi.c ****   RCC_PeriphCLKInitTypeDef PeriphClkInitStruct = {0};
 167              		.loc 1 76 3 is_stmt 1 view .LVU55
 168              		.loc 1 76 28 is_stmt 0 view .LVU56
 169 0012 C022     		movs	r2, #192
 170 0014 04A8     		add	r0, sp, #16
 171              	.LVL3:
 172              		.loc 1 76 28 view .LVU57
 173 0016 FFF7FEFF 		bl	memset
 174              	.LVL4:
  77:Core/Src/spi.c ****   if(spiHandle->Instance==SPI1)
 175              		.loc 1 77 3 is_stmt 1 view .LVU58
 176              		.loc 1 77 15 is_stmt 0 view .LVU59
 177 001a 2268     		ldr	r2, [r4]
 178              		.loc 1 77 5 view .LVU60
 179 001c 274B     		ldr	r3, .L13
 180 001e 9A42     		cmp	r2, r3
 181 0020 01D0     		beq	.L11
 182              	.LVL5:
 183              	.L7:
  78:Core/Src/spi.c ****   {
  79:Core/Src/spi.c ****   /* USER CODE BEGIN SPI1_MspInit 0 */
  80:Core/Src/spi.c **** 
  81:Core/Src/spi.c ****   /* USER CODE END SPI1_MspInit 0 */
  82:Core/Src/spi.c **** 
  83:Core/Src/spi.c ****   /** Initializes the peripherals clock
  84:Core/Src/spi.c ****   */
  85:Core/Src/spi.c ****     PeriphClkInitStruct.PeriphClockSelection = RCC_PERIPHCLK_SPI1;
  86:Core/Src/spi.c ****     PeriphClkInitStruct.Spi123ClockSelection = RCC_SPI123CLKSOURCE_PLL;
  87:Core/Src/spi.c ****     if (HAL_RCCEx_PeriphCLKConfig(&PeriphClkInitStruct) != HAL_OK)
  88:Core/Src/spi.c ****     {
  89:Core/Src/spi.c ****       Error_Handler();
  90:Core/Src/spi.c ****     }
  91:Core/Src/spi.c **** 
  92:Core/Src/spi.c ****     /* SPI1 clock enable */
  93:Core/Src/spi.c ****     __HAL_RCC_SPI1_CLK_ENABLE();
  94:Core/Src/spi.c **** 
  95:Core/Src/spi.c ****     __HAL_RCC_GPIOA_CLK_ENABLE();
  96:Core/Src/spi.c ****     __HAL_RCC_GPIOD_CLK_ENABLE();
  97:Core/Src/spi.c ****     /**SPI1 GPIO Configuration
  98:Core/Src/spi.c ****     PA4     ------> SPI1_NSS
  99:Core/Src/spi.c ****     PA5     ------> SPI1_SCK
 100:Core/Src/spi.c ****     PA6     ------> SPI1_MISO
 101:Core/Src/spi.c ****     PD7     ------> SPI1_MOSI
 102:Core/Src/spi.c ****     */
 103:Core/Src/spi.c ****     GPIO_InitStruct.Pin = GPIO_PIN_4|GPIO_PIN_5|GPIO_PIN_6;
 104:Core/Src/spi.c ****     GPIO_InitStruct.Mode = GPIO_MODE_AF_PP;
ARM GAS  C:\Users\hh\AppData\Local\Temp\cc4xdARK.s 			page 6


 105:Core/Src/spi.c ****     GPIO_InitStruct.Pull = GPIO_NOPULL;
 106:Core/Src/spi.c ****     GPIO_InitStruct.Speed = GPIO_SPEED_FREQ_LOW;
 107:Core/Src/spi.c ****     GPIO_InitStruct.Alternate = GPIO_AF5_SPI1;
 108:Core/Src/spi.c ****     HAL_GPIO_Init(GPIOA, &GPIO_InitStruct);
 109:Core/Src/spi.c **** 
 110:Core/Src/spi.c ****     GPIO_InitStruct.Pin = GPIO_PIN_7;
 111:Core/Src/spi.c ****     GPIO_InitStruct.Mode = GPIO_MODE_AF_PP;
 112:Core/Src/spi.c ****     GPIO_InitStruct.Pull = GPIO_NOPULL;
 113:Core/Src/spi.c ****     GPIO_InitStruct.Speed = GPIO_SPEED_FREQ_LOW;
 114:Core/Src/spi.c ****     GPIO_InitStruct.Alternate = GPIO_AF5_SPI1;
 115:Core/Src/spi.c ****     HAL_GPIO_Init(GPIOD, &GPIO_InitStruct);
 116:Core/Src/spi.c **** 
 117:Core/Src/spi.c ****   /* USER CODE BEGIN SPI1_MspInit 1 */
 118:Core/Src/spi.c **** 
 119:Core/Src/spi.c ****   /* USER CODE END SPI1_MspInit 1 */
 120:Core/Src/spi.c ****   }
 121:Core/Src/spi.c **** }
 184              		.loc 1 121 1 view .LVU61
 185 0022 3AB0     		add	sp, sp, #232
 186              	.LCFI3:
 187              		.cfi_remember_state
 188              		.cfi_def_cfa_offset 16
 189              		@ sp needed
 190 0024 70BD     		pop	{r4, r5, r6, pc}
 191              	.LVL6:
 192              	.L11:
 193              	.LCFI4:
 194              		.cfi_restore_state
  85:Core/Src/spi.c ****     PeriphClkInitStruct.Spi123ClockSelection = RCC_SPI123CLKSOURCE_PLL;
 195              		.loc 1 85 5 is_stmt 1 view .LVU62
  85:Core/Src/spi.c ****     PeriphClkInitStruct.Spi123ClockSelection = RCC_SPI123CLKSOURCE_PLL;
 196              		.loc 1 85 46 is_stmt 0 view .LVU63
 197 0026 4FF48052 		mov	r2, #4096
 198 002a 0023     		movs	r3, #0
 199 002c CDE90423 		strd	r2, [sp, #16]
  86:Core/Src/spi.c ****     if (HAL_RCCEx_PeriphCLKConfig(&PeriphClkInitStruct) != HAL_OK)
 200              		.loc 1 86 5 is_stmt 1 view .LVU64
  87:Core/Src/spi.c ****     {
 201              		.loc 1 87 5 view .LVU65
  87:Core/Src/spi.c ****     {
 202              		.loc 1 87 9 is_stmt 0 view .LVU66
 203 0030 04A8     		add	r0, sp, #16
 204 0032 FFF7FEFF 		bl	HAL_RCCEx_PeriphCLKConfig
 205              	.LVL7:
  87:Core/Src/spi.c ****     {
 206              		.loc 1 87 8 discriminator 1 view .LVU67
 207 0036 0028     		cmp	r0, #0
 208 0038 3CD1     		bne	.L12
 209              	.L9:
  93:Core/Src/spi.c **** 
 210              		.loc 1 93 5 is_stmt 1 view .LVU68
 211              	.LBB2:
  93:Core/Src/spi.c **** 
 212              		.loc 1 93 5 view .LVU69
  93:Core/Src/spi.c **** 
 213              		.loc 1 93 5 view .LVU70
 214 003a 214B     		ldr	r3, .L13+4
ARM GAS  C:\Users\hh\AppData\Local\Temp\cc4xdARK.s 			page 7


 215 003c D3F8F020 		ldr	r2, [r3, #240]
 216 0040 42F48052 		orr	r2, r2, #4096
 217 0044 C3F8F020 		str	r2, [r3, #240]
  93:Core/Src/spi.c **** 
 218              		.loc 1 93 5 view .LVU71
 219 0048 D3F8F020 		ldr	r2, [r3, #240]
 220 004c 02F48052 		and	r2, r2, #4096
 221 0050 0192     		str	r2, [sp, #4]
  93:Core/Src/spi.c **** 
 222              		.loc 1 93 5 view .LVU72
 223 0052 019A     		ldr	r2, [sp, #4]
 224              	.LBE2:
  93:Core/Src/spi.c **** 
 225              		.loc 1 93 5 view .LVU73
  95:Core/Src/spi.c ****     __HAL_RCC_GPIOD_CLK_ENABLE();
 226              		.loc 1 95 5 view .LVU74
 227              	.LBB3:
  95:Core/Src/spi.c ****     __HAL_RCC_GPIOD_CLK_ENABLE();
 228              		.loc 1 95 5 view .LVU75
  95:Core/Src/spi.c ****     __HAL_RCC_GPIOD_CLK_ENABLE();
 229              		.loc 1 95 5 view .LVU76
 230 0054 D3F8E020 		ldr	r2, [r3, #224]
 231 0058 42F00102 		orr	r2, r2, #1
 232 005c C3F8E020 		str	r2, [r3, #224]
  95:Core/Src/spi.c ****     __HAL_RCC_GPIOD_CLK_ENABLE();
 233              		.loc 1 95 5 view .LVU77
 234 0060 D3F8E020 		ldr	r2, [r3, #224]
 235 0064 02F00102 		and	r2, r2, #1
 236 0068 0292     		str	r2, [sp, #8]
  95:Core/Src/spi.c ****     __HAL_RCC_GPIOD_CLK_ENABLE();
 237              		.loc 1 95 5 view .LVU78
 238 006a 029A     		ldr	r2, [sp, #8]
 239              	.LBE3:
  95:Core/Src/spi.c ****     __HAL_RCC_GPIOD_CLK_ENABLE();
 240              		.loc 1 95 5 view .LVU79
  96:Core/Src/spi.c ****     /**SPI1 GPIO Configuration
 241              		.loc 1 96 5 view .LVU80
 242              	.LBB4:
  96:Core/Src/spi.c ****     /**SPI1 GPIO Configuration
 243              		.loc 1 96 5 view .LVU81
  96:Core/Src/spi.c ****     /**SPI1 GPIO Configuration
 244              		.loc 1 96 5 view .LVU82
 245 006c D3F8E020 		ldr	r2, [r3, #224]
 246 0070 42F00802 		orr	r2, r2, #8
 247 0074 C3F8E020 		str	r2, [r3, #224]
  96:Core/Src/spi.c ****     /**SPI1 GPIO Configuration
 248              		.loc 1 96 5 view .LVU83
 249 0078 D3F8E030 		ldr	r3, [r3, #224]
 250 007c 03F00803 		and	r3, r3, #8
 251 0080 0393     		str	r3, [sp, #12]
  96:Core/Src/spi.c ****     /**SPI1 GPIO Configuration
 252              		.loc 1 96 5 view .LVU84
 253 0082 039B     		ldr	r3, [sp, #12]
 254              	.LBE4:
  96:Core/Src/spi.c ****     /**SPI1 GPIO Configuration
 255              		.loc 1 96 5 view .LVU85
 103:Core/Src/spi.c ****     GPIO_InitStruct.Mode = GPIO_MODE_AF_PP;
ARM GAS  C:\Users\hh\AppData\Local\Temp\cc4xdARK.s 			page 8


 256              		.loc 1 103 5 view .LVU86
 103:Core/Src/spi.c ****     GPIO_InitStruct.Mode = GPIO_MODE_AF_PP;
 257              		.loc 1 103 25 is_stmt 0 view .LVU87
 258 0084 7023     		movs	r3, #112
 259 0086 3593     		str	r3, [sp, #212]
 104:Core/Src/spi.c ****     GPIO_InitStruct.Pull = GPIO_NOPULL;
 260              		.loc 1 104 5 is_stmt 1 view .LVU88
 104:Core/Src/spi.c ****     GPIO_InitStruct.Pull = GPIO_NOPULL;
 261              		.loc 1 104 26 is_stmt 0 view .LVU89
 262 0088 0225     		movs	r5, #2
 263 008a 3695     		str	r5, [sp, #216]
 105:Core/Src/spi.c ****     GPIO_InitStruct.Speed = GPIO_SPEED_FREQ_LOW;
 264              		.loc 1 105 5 is_stmt 1 view .LVU90
 105:Core/Src/spi.c ****     GPIO_InitStruct.Speed = GPIO_SPEED_FREQ_LOW;
 265              		.loc 1 105 26 is_stmt 0 view .LVU91
 266 008c 0024     		movs	r4, #0
 267              	.LVL8:
 105:Core/Src/spi.c ****     GPIO_InitStruct.Speed = GPIO_SPEED_FREQ_LOW;
 268              		.loc 1 105 26 view .LVU92
 269 008e 3794     		str	r4, [sp, #220]
 106:Core/Src/spi.c ****     GPIO_InitStruct.Alternate = GPIO_AF5_SPI1;
 270              		.loc 1 106 5 is_stmt 1 view .LVU93
 106:Core/Src/spi.c ****     GPIO_InitStruct.Alternate = GPIO_AF5_SPI1;
 271              		.loc 1 106 27 is_stmt 0 view .LVU94
 272 0090 3894     		str	r4, [sp, #224]
 107:Core/Src/spi.c ****     HAL_GPIO_Init(GPIOA, &GPIO_InitStruct);
 273              		.loc 1 107 5 is_stmt 1 view .LVU95
 107:Core/Src/spi.c ****     HAL_GPIO_Init(GPIOA, &GPIO_InitStruct);
 274              		.loc 1 107 31 is_stmt 0 view .LVU96
 275 0092 0526     		movs	r6, #5
 276 0094 3996     		str	r6, [sp, #228]
 108:Core/Src/spi.c **** 
 277              		.loc 1 108 5 is_stmt 1 view .LVU97
 278 0096 35A9     		add	r1, sp, #212
 279 0098 0A48     		ldr	r0, .L13+8
 280 009a FFF7FEFF 		bl	HAL_GPIO_Init
 281              	.LVL9:
 110:Core/Src/spi.c ****     GPIO_InitStruct.Mode = GPIO_MODE_AF_PP;
 282              		.loc 1 110 5 view .LVU98
 110:Core/Src/spi.c ****     GPIO_InitStruct.Mode = GPIO_MODE_AF_PP;
 283              		.loc 1 110 25 is_stmt 0 view .LVU99
 284 009e 8023     		movs	r3, #128
 285 00a0 3593     		str	r3, [sp, #212]
 111:Core/Src/spi.c ****     GPIO_InitStruct.Pull = GPIO_NOPULL;
 286              		.loc 1 111 5 is_stmt 1 view .LVU100
 111:Core/Src/spi.c ****     GPIO_InitStruct.Pull = GPIO_NOPULL;
 287              		.loc 1 111 26 is_stmt 0 view .LVU101
 288 00a2 3695     		str	r5, [sp, #216]
 112:Core/Src/spi.c ****     GPIO_InitStruct.Speed = GPIO_SPEED_FREQ_LOW;
 289              		.loc 1 112 5 is_stmt 1 view .LVU102
 112:Core/Src/spi.c ****     GPIO_InitStruct.Speed = GPIO_SPEED_FREQ_LOW;
 290              		.loc 1 112 26 is_stmt 0 view .LVU103
 291 00a4 3794     		str	r4, [sp, #220]
 113:Core/Src/spi.c ****     GPIO_InitStruct.Alternate = GPIO_AF5_SPI1;
 292              		.loc 1 113 5 is_stmt 1 view .LVU104
 113:Core/Src/spi.c ****     GPIO_InitStruct.Alternate = GPIO_AF5_SPI1;
 293              		.loc 1 113 27 is_stmt 0 view .LVU105
ARM GAS  C:\Users\hh\AppData\Local\Temp\cc4xdARK.s 			page 9


 294 00a6 3894     		str	r4, [sp, #224]
 114:Core/Src/spi.c ****     HAL_GPIO_Init(GPIOD, &GPIO_InitStruct);
 295              		.loc 1 114 5 is_stmt 1 view .LVU106
 114:Core/Src/spi.c ****     HAL_GPIO_Init(GPIOD, &GPIO_InitStruct);
 296              		.loc 1 114 31 is_stmt 0 view .LVU107
 297 00a8 3996     		str	r6, [sp, #228]
 115:Core/Src/spi.c **** 
 298              		.loc 1 115 5 is_stmt 1 view .LVU108
 299 00aa 35A9     		add	r1, sp, #212
 300 00ac 0648     		ldr	r0, .L13+12
 301 00ae FFF7FEFF 		bl	HAL_GPIO_Init
 302              	.LVL10:
 303              		.loc 1 121 1 is_stmt 0 view .LVU109
 304 00b2 B6E7     		b	.L7
 305              	.LVL11:
 306              	.L12:
  89:Core/Src/spi.c ****     }
 307              		.loc 1 89 7 is_stmt 1 view .LVU110
 308 00b4 FFF7FEFF 		bl	Error_Handler
 309              	.LVL12:
 310 00b8 BFE7     		b	.L9
 311              	.L14:
 312 00ba 00BF     		.align	2
 313              	.L13:
 314 00bc 00300140 		.word	1073819648
 315 00c0 00440258 		.word	1476543488
 316 00c4 00000258 		.word	1476526080
 317 00c8 000C0258 		.word	1476529152
 318              		.cfi_endproc
 319              	.LFE147:
 321              		.section	.text.HAL_SPI_MspDeInit,"ax",%progbits
 322              		.align	1
 323              		.global	HAL_SPI_MspDeInit
 324              		.syntax unified
 325              		.thumb
 326              		.thumb_func
 328              	HAL_SPI_MspDeInit:
 329              	.LVL13:
 330              	.LFB148:
 122:Core/Src/spi.c **** 
 123:Core/Src/spi.c **** void HAL_SPI_MspDeInit(SPI_HandleTypeDef* spiHandle)
 124:Core/Src/spi.c **** {
 331              		.loc 1 124 1 view -0
 332              		.cfi_startproc
 333              		@ args = 0, pretend = 0, frame = 0
 334              		@ frame_needed = 0, uses_anonymous_args = 0
 335              		.loc 1 124 1 is_stmt 0 view .LVU112
 336 0000 08B5     		push	{r3, lr}
 337              	.LCFI5:
 338              		.cfi_def_cfa_offset 8
 339              		.cfi_offset 3, -8
 340              		.cfi_offset 14, -4
 125:Core/Src/spi.c **** 
 126:Core/Src/spi.c ****   if(spiHandle->Instance==SPI1)
 341              		.loc 1 126 3 is_stmt 1 view .LVU113
 342              		.loc 1 126 15 is_stmt 0 view .LVU114
 343 0002 0268     		ldr	r2, [r0]
ARM GAS  C:\Users\hh\AppData\Local\Temp\cc4xdARK.s 			page 10


 344              		.loc 1 126 5 view .LVU115
 345 0004 094B     		ldr	r3, .L19
 346 0006 9A42     		cmp	r2, r3
 347 0008 00D0     		beq	.L18
 348              	.LVL14:
 349              	.L15:
 127:Core/Src/spi.c ****   {
 128:Core/Src/spi.c ****   /* USER CODE BEGIN SPI1_MspDeInit 0 */
 129:Core/Src/spi.c **** 
 130:Core/Src/spi.c ****   /* USER CODE END SPI1_MspDeInit 0 */
 131:Core/Src/spi.c ****     /* Peripheral clock disable */
 132:Core/Src/spi.c ****     __HAL_RCC_SPI1_CLK_DISABLE();
 133:Core/Src/spi.c **** 
 134:Core/Src/spi.c ****     /**SPI1 GPIO Configuration
 135:Core/Src/spi.c ****     PA4     ------> SPI1_NSS
 136:Core/Src/spi.c ****     PA5     ------> SPI1_SCK
 137:Core/Src/spi.c ****     PA6     ------> SPI1_MISO
 138:Core/Src/spi.c ****     PD7     ------> SPI1_MOSI
 139:Core/Src/spi.c ****     */
 140:Core/Src/spi.c ****     HAL_GPIO_DeInit(GPIOA, GPIO_PIN_4|GPIO_PIN_5|GPIO_PIN_6);
 141:Core/Src/spi.c **** 
 142:Core/Src/spi.c ****     HAL_GPIO_DeInit(GPIOD, GPIO_PIN_7);
 143:Core/Src/spi.c **** 
 144:Core/Src/spi.c ****   /* USER CODE BEGIN SPI1_MspDeInit 1 */
 145:Core/Src/spi.c **** 
 146:Core/Src/spi.c ****   /* USER CODE END SPI1_MspDeInit 1 */
 147:Core/Src/spi.c ****   }
 148:Core/Src/spi.c **** }
 350              		.loc 1 148 1 view .LVU116
 351 000a 08BD     		pop	{r3, pc}
 352              	.LVL15:
 353              	.L18:
 132:Core/Src/spi.c **** 
 354              		.loc 1 132 5 is_stmt 1 view .LVU117
 355 000c 084A     		ldr	r2, .L19+4
 356 000e D2F8F030 		ldr	r3, [r2, #240]
 357 0012 23F48053 		bic	r3, r3, #4096
 358 0016 C2F8F030 		str	r3, [r2, #240]
 140:Core/Src/spi.c **** 
 359              		.loc 1 140 5 view .LVU118
 360 001a 7021     		movs	r1, #112
 361 001c 0548     		ldr	r0, .L19+8
 362              	.LVL16:
 140:Core/Src/spi.c **** 
 363              		.loc 1 140 5 is_stmt 0 view .LVU119
 364 001e FFF7FEFF 		bl	HAL_GPIO_DeInit
 365              	.LVL17:
 142:Core/Src/spi.c **** 
 366              		.loc 1 142 5 is_stmt 1 view .LVU120
 367 0022 8021     		movs	r1, #128
 368 0024 0448     		ldr	r0, .L19+12
 369 0026 FFF7FEFF 		bl	HAL_GPIO_DeInit
 370              	.LVL18:
 371              		.loc 1 148 1 is_stmt 0 view .LVU121
 372 002a EEE7     		b	.L15
 373              	.L20:
 374              		.align	2
ARM GAS  C:\Users\hh\AppData\Local\Temp\cc4xdARK.s 			page 11


 375              	.L19:
 376 002c 00300140 		.word	1073819648
 377 0030 00440258 		.word	1476543488
 378 0034 00000258 		.word	1476526080
 379 0038 000C0258 		.word	1476529152
 380              		.cfi_endproc
 381              	.LFE148:
 383              		.global	hspi1
 384              		.section	.bss.hspi1,"aw",%nobits
 385              		.align	2
 388              	hspi1:
 389 0000 00000000 		.space	136
 389      00000000 
 389      00000000 
 389      00000000 
 389      00000000 
 390              		.text
 391              	.Letext0:
 392              		.file 2 "C:/Program Files (x86)/ARM/arm-gnu-toolchain-15.2.rel1-mingw-w64-i686-arm-none-eabi/arm-n
 393              		.file 3 "C:/Program Files (x86)/ARM/arm-gnu-toolchain-15.2.rel1-mingw-w64-i686-arm-none-eabi/arm-n
 394              		.file 4 "Drivers/CMSIS/Device/ST/STM32H7xx/Include/stm32h743xx.h"
 395              		.file 5 "Drivers/STM32H7xx_HAL_Driver/Inc/stm32h7xx_hal_def.h"
 396              		.file 6 "Drivers/STM32H7xx_HAL_Driver/Inc/stm32h7xx_hal_rcc_ex.h"
 397              		.file 7 "Drivers/STM32H7xx_HAL_Driver/Inc/stm32h7xx_hal_gpio.h"
 398              		.file 8 "Drivers/STM32H7xx_HAL_Driver/Inc/stm32h7xx_hal_dma.h"
 399              		.file 9 "Drivers/STM32H7xx_HAL_Driver/Inc/stm32h7xx_hal_spi.h"
 400              		.file 10 "Core/Inc/spi.h"
 401              		.file 11 "Core/Inc/main.h"
 402              		.file 12 "<built-in>"
ARM GAS  C:\Users\hh\AppData\Local\Temp\cc4xdARK.s 			page 12

