ARM GAS  C:\Users\hh\AppData\Local\Temp\ccAKXMUq.s 			page 1


   1              		.cpu cortex-m7
   2              		.arch armv7e-m
   3              		.fpu fpv5-d16
   4              		.eabi_attribute 28, 1
   5              		.eabi_attribute 20, 1
   6              		.eabi_attribute 21, 1
   7              		.eabi_attribute 23, 3
   8              		.eabi_attribute 24, 1
   9              		.eabi_attribute 25, 1
  10              		.eabi_attribute 26, 1
  11              		.eabi_attribute 30, 1
  12              		.eabi_attribute 34, 1
  13              		.eabi_attribute 18, 4
  14              		.file	"spi.c"
  15              		.text
  16              	.Ltext0:
  17              		.cfi_sections	.debug_frame
  18              		.file 1 "Core/Src/spi.c"
  19              		.section	.text.MX_SPI1_Init,"ax",%progbits
  20              		.align	1
  21              		.global	MX_SPI1_Init
  22              		.syntax unified
  23              		.thumb
  24              		.thumb_func
  26              	MX_SPI1_Init:
  27              	.LFB146:
   1:Core/Src/spi.c **** /* USER CODE BEGIN Header */
   2:Core/Src/spi.c **** /**
   3:Core/Src/spi.c ****   ******************************************************************************
   4:Core/Src/spi.c ****   * @file    spi.c
   5:Core/Src/spi.c ****   * @brief   This file provides code for the configuration
   6:Core/Src/spi.c ****   *          of the SPI instances.
   7:Core/Src/spi.c ****   ******************************************************************************
   8:Core/Src/spi.c ****   * @attention
   9:Core/Src/spi.c ****   *
  10:Core/Src/spi.c ****   * Copyright (c) 2026 STMicroelectronics.
  11:Core/Src/spi.c ****   * All rights reserved.
  12:Core/Src/spi.c ****   *
  13:Core/Src/spi.c ****   * This software is licensed under terms that can be found in the LICENSE file
  14:Core/Src/spi.c ****   * in the root directory of this software component.
  15:Core/Src/spi.c ****   * If no LICENSE file comes with this software, it is provided AS-IS.
  16:Core/Src/spi.c ****   *
  17:Core/Src/spi.c ****   ******************************************************************************
  18:Core/Src/spi.c ****   */
  19:Core/Src/spi.c **** /* USER CODE END Header */
  20:Core/Src/spi.c **** /* Includes ------------------------------------------------------------------*/
  21:Core/Src/spi.c **** #include "spi.h"
  22:Core/Src/spi.c **** 
  23:Core/Src/spi.c **** /* USER CODE BEGIN 0 */
  24:Core/Src/spi.c **** 
  25:Core/Src/spi.c **** /* USER CODE END 0 */
  26:Core/Src/spi.c **** 
  27:Core/Src/spi.c **** SPI_HandleTypeDef hspi1;
  28:Core/Src/spi.c **** DMA_HandleTypeDef hdma_spi1_tx;
  29:Core/Src/spi.c **** 
  30:Core/Src/spi.c **** /* SPI1 init function */
  31:Core/Src/spi.c **** void MX_SPI1_Init(void)
ARM GAS  C:\Users\hh\AppData\Local\Temp\ccAKXMUq.s 			page 2


  32:Core/Src/spi.c **** {
  28              		.loc 1 32 1 view -0
  29              		.cfi_startproc
  30              		@ args = 0, pretend = 0, frame = 0
  31              		@ frame_needed = 0, uses_anonymous_args = 0
  32 0000 08B5     		push	{r3, lr}
  33              	.LCFI0:
  34              		.cfi_def_cfa_offset 8
  35              		.cfi_offset 3, -8
  36              		.cfi_offset 14, -4
  33:Core/Src/spi.c **** 
  34:Core/Src/spi.c ****   /* USER CODE BEGIN SPI1_Init 0 */
  35:Core/Src/spi.c **** 
  36:Core/Src/spi.c ****   /* USER CODE END SPI1_Init 0 */
  37:Core/Src/spi.c **** 
  38:Core/Src/spi.c ****   /* USER CODE BEGIN SPI1_Init 1 */
  39:Core/Src/spi.c **** 
  40:Core/Src/spi.c ****   /* USER CODE END SPI1_Init 1 */
  41:Core/Src/spi.c ****   hspi1.Instance = SPI1;
  37              		.loc 1 41 3 view .LVU1
  38              		.loc 1 41 18 is_stmt 0 view .LVU2
  39 0002 1548     		ldr	r0, .L5
  40 0004 154B     		ldr	r3, .L5+4
  41 0006 0360     		str	r3, [r0]
  42:Core/Src/spi.c ****   hspi1.Init.Mode = SPI_MODE_MASTER;
  42              		.loc 1 42 3 is_stmt 1 view .LVU3
  43              		.loc 1 42 19 is_stmt 0 view .LVU4
  44 0008 4FF48003 		mov	r3, #4194304
  45 000c 4360     		str	r3, [r0, #4]
  43:Core/Src/spi.c ****   hspi1.Init.Direction = SPI_DIRECTION_2LINES;
  46              		.loc 1 43 3 is_stmt 1 view .LVU5
  47              		.loc 1 43 24 is_stmt 0 view .LVU6
  48 000e 0023     		movs	r3, #0
  49 0010 8360     		str	r3, [r0, #8]
  44:Core/Src/spi.c ****   hspi1.Init.DataSize = SPI_DATASIZE_24BIT;
  50              		.loc 1 44 3 is_stmt 1 view .LVU7
  51              		.loc 1 44 23 is_stmt 0 view .LVU8
  52 0012 1722     		movs	r2, #23
  53 0014 C260     		str	r2, [r0, #12]
  45:Core/Src/spi.c ****   hspi1.Init.CLKPolarity = SPI_POLARITY_LOW;
  54              		.loc 1 45 3 is_stmt 1 view .LVU9
  55              		.loc 1 45 26 is_stmt 0 view .LVU10
  56 0016 0361     		str	r3, [r0, #16]
  46:Core/Src/spi.c ****   hspi1.Init.CLKPhase = SPI_PHASE_2EDGE;
  57              		.loc 1 46 3 is_stmt 1 view .LVU11
  58              		.loc 1 46 23 is_stmt 0 view .LVU12
  59 0018 4FF08072 		mov	r2, #16777216
  60 001c 4261     		str	r2, [r0, #20]
  47:Core/Src/spi.c ****   hspi1.Init.NSS = SPI_NSS_SOFT;
  61              		.loc 1 47 3 is_stmt 1 view .LVU13
  62              		.loc 1 47 18 is_stmt 0 view .LVU14
  63 001e 4FF08062 		mov	r2, #67108864
  64 0022 8261     		str	r2, [r0, #24]
  48:Core/Src/spi.c ****   hspi1.Init.BaudRatePrescaler = SPI_BAUDRATEPRESCALER_4;
  65              		.loc 1 48 3 is_stmt 1 view .LVU15
  66              		.loc 1 48 32 is_stmt 0 view .LVU16
  67 0024 4FF08052 		mov	r2, #268435456
ARM GAS  C:\Users\hh\AppData\Local\Temp\ccAKXMUq.s 			page 3


  68 0028 C261     		str	r2, [r0, #28]
  49:Core/Src/spi.c ****   hspi1.Init.FirstBit = SPI_FIRSTBIT_MSB;
  69              		.loc 1 49 3 is_stmt 1 view .LVU17
  70              		.loc 1 49 23 is_stmt 0 view .LVU18
  71 002a 0362     		str	r3, [r0, #32]
  50:Core/Src/spi.c ****   hspi1.Init.TIMode = SPI_TIMODE_DISABLE;
  72              		.loc 1 50 3 is_stmt 1 view .LVU19
  73              		.loc 1 50 21 is_stmt 0 view .LVU20
  74 002c 4362     		str	r3, [r0, #36]
  51:Core/Src/spi.c ****   hspi1.Init.CRCCalculation = SPI_CRCCALCULATION_DISABLE;
  75              		.loc 1 51 3 is_stmt 1 view .LVU21
  76              		.loc 1 51 29 is_stmt 0 view .LVU22
  77 002e 8362     		str	r3, [r0, #40]
  52:Core/Src/spi.c ****   hspi1.Init.CRCPolynomial = 0x0;
  78              		.loc 1 52 3 is_stmt 1 view .LVU23
  79              		.loc 1 52 28 is_stmt 0 view .LVU24
  80 0030 C362     		str	r3, [r0, #44]
  53:Core/Src/spi.c ****   hspi1.Init.NSSPMode = SPI_NSS_PULSE_ENABLE;
  81              		.loc 1 53 3 is_stmt 1 view .LVU25
  82              		.loc 1 53 23 is_stmt 0 view .LVU26
  83 0032 4FF08042 		mov	r2, #1073741824
  84 0036 4263     		str	r2, [r0, #52]
  54:Core/Src/spi.c ****   hspi1.Init.NSSPolarity = SPI_NSS_POLARITY_LOW;
  85              		.loc 1 54 3 is_stmt 1 view .LVU27
  86              		.loc 1 54 26 is_stmt 0 view .LVU28
  87 0038 8363     		str	r3, [r0, #56]
  55:Core/Src/spi.c ****   hspi1.Init.FifoThreshold = SPI_FIFO_THRESHOLD_01DATA;
  88              		.loc 1 55 3 is_stmt 1 view .LVU29
  89              		.loc 1 55 28 is_stmt 0 view .LVU30
  90 003a C363     		str	r3, [r0, #60]
  56:Core/Src/spi.c ****   hspi1.Init.TxCRCInitializationPattern = SPI_CRC_INITIALIZATION_ALL_ZERO_PATTERN;
  91              		.loc 1 56 3 is_stmt 1 view .LVU31
  92              		.loc 1 56 41 is_stmt 0 view .LVU32
  93 003c 0364     		str	r3, [r0, #64]
  57:Core/Src/spi.c ****   hspi1.Init.RxCRCInitializationPattern = SPI_CRC_INITIALIZATION_ALL_ZERO_PATTERN;
  94              		.loc 1 57 3 is_stmt 1 view .LVU33
  95              		.loc 1 57 41 is_stmt 0 view .LVU34
  96 003e 4364     		str	r3, [r0, #68]
  58:Core/Src/spi.c ****   hspi1.Init.MasterSSIdleness = SPI_MASTER_SS_IDLENESS_00CYCLE;
  97              		.loc 1 58 3 is_stmt 1 view .LVU35
  98              		.loc 1 58 31 is_stmt 0 view .LVU36
  99 0040 8364     		str	r3, [r0, #72]
  59:Core/Src/spi.c ****   hspi1.Init.MasterInterDataIdleness = SPI_MASTER_INTERDATA_IDLENESS_00CYCLE;
 100              		.loc 1 59 3 is_stmt 1 view .LVU37
 101              		.loc 1 59 38 is_stmt 0 view .LVU38
 102 0042 C364     		str	r3, [r0, #76]
  60:Core/Src/spi.c ****   hspi1.Init.MasterReceiverAutoSusp = SPI_MASTER_RX_AUTOSUSP_DISABLE;
 103              		.loc 1 60 3 is_stmt 1 view .LVU39
 104              		.loc 1 60 37 is_stmt 0 view .LVU40
 105 0044 0365     		str	r3, [r0, #80]
  61:Core/Src/spi.c ****   hspi1.Init.MasterKeepIOState = SPI_MASTER_KEEP_IO_STATE_DISABLE;
 106              		.loc 1 61 3 is_stmt 1 view .LVU41
 107              		.loc 1 61 32 is_stmt 0 view .LVU42
 108 0046 4365     		str	r3, [r0, #84]
  62:Core/Src/spi.c ****   hspi1.Init.IOSwap = SPI_IO_SWAP_DISABLE;
 109              		.loc 1 62 3 is_stmt 1 view .LVU43
 110              		.loc 1 62 21 is_stmt 0 view .LVU44
ARM GAS  C:\Users\hh\AppData\Local\Temp\ccAKXMUq.s 			page 4


 111 0048 8365     		str	r3, [r0, #88]
  63:Core/Src/spi.c ****   if (HAL_SPI_Init(&hspi1) != HAL_OK)
 112              		.loc 1 63 3 is_stmt 1 view .LVU45
 113              		.loc 1 63 7 is_stmt 0 view .LVU46
 114 004a FFF7FEFF 		bl	HAL_SPI_Init
 115              	.LVL0:
 116              		.loc 1 63 6 discriminator 1 view .LVU47
 117 004e 00B9     		cbnz	r0, .L4
 118              	.L1:
  64:Core/Src/spi.c ****   {
  65:Core/Src/spi.c ****     Error_Handler();
  66:Core/Src/spi.c ****   }
  67:Core/Src/spi.c ****   /* USER CODE BEGIN SPI1_Init 2 */
  68:Core/Src/spi.c **** 
  69:Core/Src/spi.c ****   /* USER CODE END SPI1_Init 2 */
  70:Core/Src/spi.c **** 
  71:Core/Src/spi.c **** }
 119              		.loc 1 71 1 view .LVU48
 120 0050 08BD     		pop	{r3, pc}
 121              	.L4:
  65:Core/Src/spi.c ****   }
 122              		.loc 1 65 5 is_stmt 1 view .LVU49
 123 0052 FFF7FEFF 		bl	Error_Handler
 124              	.LVL1:
 125              		.loc 1 71 1 is_stmt 0 view .LVU50
 126 0056 FBE7     		b	.L1
 127              	.L6:
 128              		.align	2
 129              	.L5:
 130 0058 00000000 		.word	hspi1
 131 005c 00300140 		.word	1073819648
 132              		.cfi_endproc
 133              	.LFE146:
 135              		.section	.text.HAL_SPI_MspInit,"ax",%progbits
 136              		.align	1
 137              		.global	HAL_SPI_MspInit
 138              		.syntax unified
 139              		.thumb
 140              		.thumb_func
 142              	HAL_SPI_MspInit:
 143              	.LVL2:
 144              	.LFB147:
  72:Core/Src/spi.c **** 
  73:Core/Src/spi.c **** void HAL_SPI_MspInit(SPI_HandleTypeDef* spiHandle)
  74:Core/Src/spi.c **** {
 145              		.loc 1 74 1 is_stmt 1 view -0
 146              		.cfi_startproc
 147              		@ args = 0, pretend = 0, frame = 232
 148              		@ frame_needed = 0, uses_anonymous_args = 0
 149              		.loc 1 74 1 is_stmt 0 view .LVU52
 150 0000 F0B5     		push	{r4, r5, r6, r7, lr}
 151              	.LCFI1:
 152              		.cfi_def_cfa_offset 20
 153              		.cfi_offset 4, -20
 154              		.cfi_offset 5, -16
 155              		.cfi_offset 6, -12
 156              		.cfi_offset 7, -8
ARM GAS  C:\Users\hh\AppData\Local\Temp\ccAKXMUq.s 			page 5


 157              		.cfi_offset 14, -4
 158 0002 BBB0     		sub	sp, sp, #236
 159              	.LCFI2:
 160              		.cfi_def_cfa_offset 256
 161 0004 0446     		mov	r4, r0
  75:Core/Src/spi.c **** 
  76:Core/Src/spi.c ****   GPIO_InitTypeDef GPIO_InitStruct = {0};
 162              		.loc 1 76 3 is_stmt 1 view .LVU53
 163              		.loc 1 76 20 is_stmt 0 view .LVU54
 164 0006 0021     		movs	r1, #0
 165 0008 3591     		str	r1, [sp, #212]
 166 000a 3691     		str	r1, [sp, #216]
 167 000c 3791     		str	r1, [sp, #220]
 168 000e 3891     		str	r1, [sp, #224]
 169 0010 3991     		str	r1, [sp, #228]
  77:Core/Src/spi.c ****   RCC_PeriphCLKInitTypeDef PeriphClkInitStruct = {0};
 170              		.loc 1 77 3 is_stmt 1 view .LVU55
 171              		.loc 1 77 28 is_stmt 0 view .LVU56
 172 0012 C022     		movs	r2, #192
 173 0014 04A8     		add	r0, sp, #16
 174              	.LVL3:
 175              		.loc 1 77 28 view .LVU57
 176 0016 FFF7FEFF 		bl	memset
 177              	.LVL4:
  78:Core/Src/spi.c ****   if(spiHandle->Instance==SPI1)
 178              		.loc 1 78 3 is_stmt 1 view .LVU58
 179              		.loc 1 78 15 is_stmt 0 view .LVU59
 180 001a 2268     		ldr	r2, [r4]
 181              		.loc 1 78 5 view .LVU60
 182 001c 374B     		ldr	r3, .L15
 183 001e 9A42     		cmp	r2, r3
 184 0020 01D0     		beq	.L12
 185              	.L7:
  79:Core/Src/spi.c ****   {
  80:Core/Src/spi.c ****   /* USER CODE BEGIN SPI1_MspInit 0 */
  81:Core/Src/spi.c **** 
  82:Core/Src/spi.c ****   /* USER CODE END SPI1_MspInit 0 */
  83:Core/Src/spi.c **** 
  84:Core/Src/spi.c ****   /** Initializes the peripherals clock
  85:Core/Src/spi.c ****   */
  86:Core/Src/spi.c ****     PeriphClkInitStruct.PeriphClockSelection = RCC_PERIPHCLK_SPI1;
  87:Core/Src/spi.c ****     PeriphClkInitStruct.Spi123ClockSelection = RCC_SPI123CLKSOURCE_PLL;
  88:Core/Src/spi.c ****     if (HAL_RCCEx_PeriphCLKConfig(&PeriphClkInitStruct) != HAL_OK)
  89:Core/Src/spi.c ****     {
  90:Core/Src/spi.c ****       Error_Handler();
  91:Core/Src/spi.c ****     }
  92:Core/Src/spi.c **** 
  93:Core/Src/spi.c ****     /* SPI1 clock enable */
  94:Core/Src/spi.c ****     __HAL_RCC_SPI1_CLK_ENABLE();
  95:Core/Src/spi.c **** 
  96:Core/Src/spi.c ****     __HAL_RCC_GPIOA_CLK_ENABLE();
  97:Core/Src/spi.c ****     __HAL_RCC_GPIOD_CLK_ENABLE();
  98:Core/Src/spi.c ****     /**SPI1 GPIO Configuration
  99:Core/Src/spi.c ****     PA5     ------> SPI1_SCK
 100:Core/Src/spi.c ****     PA6     ------> SPI1_MISO
 101:Core/Src/spi.c ****     PD7     ------> SPI1_MOSI
 102:Core/Src/spi.c ****     */
ARM GAS  C:\Users\hh\AppData\Local\Temp\ccAKXMUq.s 			page 6


 103:Core/Src/spi.c ****     GPIO_InitStruct.Pin = GPIO_PIN_5|GPIO_PIN_6;
 104:Core/Src/spi.c ****     GPIO_InitStruct.Mode = GPIO_MODE_AF_PP;
 105:Core/Src/spi.c ****     GPIO_InitStruct.Pull = GPIO_NOPULL;
 106:Core/Src/spi.c ****     GPIO_InitStruct.Speed = GPIO_SPEED_FREQ_LOW;
 107:Core/Src/spi.c ****     GPIO_InitStruct.Alternate = GPIO_AF5_SPI1;
 108:Core/Src/spi.c ****     HAL_GPIO_Init(GPIOA, &GPIO_InitStruct);
 109:Core/Src/spi.c **** 
 110:Core/Src/spi.c ****     GPIO_InitStruct.Pin = GPIO_PIN_7;
 111:Core/Src/spi.c ****     GPIO_InitStruct.Mode = GPIO_MODE_AF_PP;
 112:Core/Src/spi.c ****     GPIO_InitStruct.Pull = GPIO_NOPULL;
 113:Core/Src/spi.c ****     GPIO_InitStruct.Speed = GPIO_SPEED_FREQ_LOW;
 114:Core/Src/spi.c ****     GPIO_InitStruct.Alternate = GPIO_AF5_SPI1;
 115:Core/Src/spi.c ****     HAL_GPIO_Init(GPIOD, &GPIO_InitStruct);
 116:Core/Src/spi.c **** 
 117:Core/Src/spi.c ****     /* SPI1 DMA Init */
 118:Core/Src/spi.c ****     /* SPI1_TX Init */
 119:Core/Src/spi.c ****     hdma_spi1_tx.Instance = DMA1_Stream3;
 120:Core/Src/spi.c ****     hdma_spi1_tx.Init.Request = DMA_REQUEST_SPI1_TX;
 121:Core/Src/spi.c ****     hdma_spi1_tx.Init.Direction = DMA_MEMORY_TO_PERIPH;
 122:Core/Src/spi.c ****     hdma_spi1_tx.Init.PeriphInc = DMA_PINC_DISABLE;
 123:Core/Src/spi.c ****     hdma_spi1_tx.Init.MemInc = DMA_MINC_ENABLE;
 124:Core/Src/spi.c ****     hdma_spi1_tx.Init.PeriphDataAlignment = DMA_PDATAALIGN_BYTE;
 125:Core/Src/spi.c ****     hdma_spi1_tx.Init.MemDataAlignment = DMA_MDATAALIGN_BYTE;
 126:Core/Src/spi.c ****     hdma_spi1_tx.Init.Mode = DMA_NORMAL;
 127:Core/Src/spi.c ****     hdma_spi1_tx.Init.Priority = DMA_PRIORITY_LOW;
 128:Core/Src/spi.c ****     hdma_spi1_tx.Init.FIFOMode = DMA_FIFOMODE_DISABLE;
 129:Core/Src/spi.c ****     if (HAL_DMA_Init(&hdma_spi1_tx) != HAL_OK)
 130:Core/Src/spi.c ****     {
 131:Core/Src/spi.c ****       Error_Handler();
 132:Core/Src/spi.c ****     }
 133:Core/Src/spi.c **** 
 134:Core/Src/spi.c ****     __HAL_LINKDMA(spiHandle,hdmatx,hdma_spi1_tx);
 135:Core/Src/spi.c **** 
 136:Core/Src/spi.c ****     /* SPI1 interrupt Init */
 137:Core/Src/spi.c ****     HAL_NVIC_SetPriority(SPI1_IRQn, 5, 0);
 138:Core/Src/spi.c ****     HAL_NVIC_EnableIRQ(SPI1_IRQn);
 139:Core/Src/spi.c ****   /* USER CODE BEGIN SPI1_MspInit 1 */
 140:Core/Src/spi.c **** 
 141:Core/Src/spi.c ****   /* USER CODE END SPI1_MspInit 1 */
 142:Core/Src/spi.c ****   }
 143:Core/Src/spi.c **** }
 186              		.loc 1 143 1 view .LVU61
 187 0022 3BB0     		add	sp, sp, #236
 188              	.LCFI3:
 189              		.cfi_remember_state
 190              		.cfi_def_cfa_offset 20
 191              		@ sp needed
 192 0024 F0BD     		pop	{r4, r5, r6, r7, pc}
 193              	.LVL5:
 194              	.L12:
 195              	.LCFI4:
 196              		.cfi_restore_state
  86:Core/Src/spi.c ****     PeriphClkInitStruct.Spi123ClockSelection = RCC_SPI123CLKSOURCE_PLL;
 197              		.loc 1 86 5 is_stmt 1 view .LVU62
  86:Core/Src/spi.c ****     PeriphClkInitStruct.Spi123ClockSelection = RCC_SPI123CLKSOURCE_PLL;
 198              		.loc 1 86 46 is_stmt 0 view .LVU63
 199 0026 4FF48052 		mov	r2, #4096
ARM GAS  C:\Users\hh\AppData\Local\Temp\ccAKXMUq.s 			page 7


 200 002a 0023     		movs	r3, #0
 201 002c CDE90423 		strd	r2, [sp, #16]
  87:Core/Src/spi.c ****     if (HAL_RCCEx_PeriphCLKConfig(&PeriphClkInitStruct) != HAL_OK)
 202              		.loc 1 87 5 is_stmt 1 view .LVU64
  88:Core/Src/spi.c ****     {
 203              		.loc 1 88 5 view .LVU65
  88:Core/Src/spi.c ****     {
 204              		.loc 1 88 9 is_stmt 0 view .LVU66
 205 0030 04A8     		add	r0, sp, #16
 206 0032 FFF7FEFF 		bl	HAL_RCCEx_PeriphCLKConfig
 207              	.LVL6:
  88:Core/Src/spi.c ****     {
 208              		.loc 1 88 8 discriminator 1 view .LVU67
 209 0036 0028     		cmp	r0, #0
 210 0038 5AD1     		bne	.L13
 211              	.L9:
  94:Core/Src/spi.c **** 
 212              		.loc 1 94 5 is_stmt 1 view .LVU68
 213              	.LBB2:
  94:Core/Src/spi.c **** 
 214              		.loc 1 94 5 view .LVU69
  94:Core/Src/spi.c **** 
 215              		.loc 1 94 5 view .LVU70
 216 003a 314B     		ldr	r3, .L15+4
 217 003c D3F8F020 		ldr	r2, [r3, #240]
 218 0040 42F48052 		orr	r2, r2, #4096
 219 0044 C3F8F020 		str	r2, [r3, #240]
  94:Core/Src/spi.c **** 
 220              		.loc 1 94 5 view .LVU71
 221 0048 D3F8F020 		ldr	r2, [r3, #240]
 222 004c 02F48052 		and	r2, r2, #4096
 223 0050 0192     		str	r2, [sp, #4]
  94:Core/Src/spi.c **** 
 224              		.loc 1 94 5 view .LVU72
 225 0052 019A     		ldr	r2, [sp, #4]
 226              	.LBE2:
  94:Core/Src/spi.c **** 
 227              		.loc 1 94 5 view .LVU73
  96:Core/Src/spi.c ****     __HAL_RCC_GPIOD_CLK_ENABLE();
 228              		.loc 1 96 5 view .LVU74
 229              	.LBB3:
  96:Core/Src/spi.c ****     __HAL_RCC_GPIOD_CLK_ENABLE();
 230              		.loc 1 96 5 view .LVU75
  96:Core/Src/spi.c ****     __HAL_RCC_GPIOD_CLK_ENABLE();
 231              		.loc 1 96 5 view .LVU76
 232 0054 D3F8E020 		ldr	r2, [r3, #224]
 233 0058 42F00102 		orr	r2, r2, #1
 234 005c C3F8E020 		str	r2, [r3, #224]
  96:Core/Src/spi.c ****     __HAL_RCC_GPIOD_CLK_ENABLE();
 235              		.loc 1 96 5 view .LVU77
 236 0060 D3F8E020 		ldr	r2, [r3, #224]
 237 0064 02F00102 		and	r2, r2, #1
 238 0068 0292     		str	r2, [sp, #8]
  96:Core/Src/spi.c ****     __HAL_RCC_GPIOD_CLK_ENABLE();
 239              		.loc 1 96 5 view .LVU78
 240 006a 029A     		ldr	r2, [sp, #8]
 241              	.LBE3:
ARM GAS  C:\Users\hh\AppData\Local\Temp\ccAKXMUq.s 			page 8


  96:Core/Src/spi.c ****     __HAL_RCC_GPIOD_CLK_ENABLE();
 242              		.loc 1 96 5 view .LVU79
  97:Core/Src/spi.c ****     /**SPI1 GPIO Configuration
 243              		.loc 1 97 5 view .LVU80
 244              	.LBB4:
  97:Core/Src/spi.c ****     /**SPI1 GPIO Configuration
 245              		.loc 1 97 5 view .LVU81
  97:Core/Src/spi.c ****     /**SPI1 GPIO Configuration
 246              		.loc 1 97 5 view .LVU82
 247 006c D3F8E020 		ldr	r2, [r3, #224]
 248 0070 42F00802 		orr	r2, r2, #8
 249 0074 C3F8E020 		str	r2, [r3, #224]
  97:Core/Src/spi.c ****     /**SPI1 GPIO Configuration
 250              		.loc 1 97 5 view .LVU83
 251 0078 D3F8E030 		ldr	r3, [r3, #224]
 252 007c 03F00803 		and	r3, r3, #8
 253 0080 0393     		str	r3, [sp, #12]
  97:Core/Src/spi.c ****     /**SPI1 GPIO Configuration
 254              		.loc 1 97 5 view .LVU84
 255 0082 039B     		ldr	r3, [sp, #12]
 256              	.LBE4:
  97:Core/Src/spi.c ****     /**SPI1 GPIO Configuration
 257              		.loc 1 97 5 view .LVU85
 103:Core/Src/spi.c ****     GPIO_InitStruct.Mode = GPIO_MODE_AF_PP;
 258              		.loc 1 103 5 view .LVU86
 103:Core/Src/spi.c ****     GPIO_InitStruct.Mode = GPIO_MODE_AF_PP;
 259              		.loc 1 103 25 is_stmt 0 view .LVU87
 260 0084 6023     		movs	r3, #96
 261 0086 3593     		str	r3, [sp, #212]
 104:Core/Src/spi.c ****     GPIO_InitStruct.Pull = GPIO_NOPULL;
 262              		.loc 1 104 5 is_stmt 1 view .LVU88
 104:Core/Src/spi.c ****     GPIO_InitStruct.Pull = GPIO_NOPULL;
 263              		.loc 1 104 26 is_stmt 0 view .LVU89
 264 0088 0226     		movs	r6, #2
 265 008a 3696     		str	r6, [sp, #216]
 105:Core/Src/spi.c ****     GPIO_InitStruct.Speed = GPIO_SPEED_FREQ_LOW;
 266              		.loc 1 105 5 is_stmt 1 view .LVU90
 105:Core/Src/spi.c ****     GPIO_InitStruct.Speed = GPIO_SPEED_FREQ_LOW;
 267              		.loc 1 105 26 is_stmt 0 view .LVU91
 268 008c 0025     		movs	r5, #0
 269 008e 3795     		str	r5, [sp, #220]
 106:Core/Src/spi.c ****     GPIO_InitStruct.Alternate = GPIO_AF5_SPI1;
 270              		.loc 1 106 5 is_stmt 1 view .LVU92
 106:Core/Src/spi.c ****     GPIO_InitStruct.Alternate = GPIO_AF5_SPI1;
 271              		.loc 1 106 27 is_stmt 0 view .LVU93
 272 0090 3895     		str	r5, [sp, #224]
 107:Core/Src/spi.c ****     HAL_GPIO_Init(GPIOA, &GPIO_InitStruct);
 273              		.loc 1 107 5 is_stmt 1 view .LVU94
 107:Core/Src/spi.c ****     HAL_GPIO_Init(GPIOA, &GPIO_InitStruct);
 274              		.loc 1 107 31 is_stmt 0 view .LVU95
 275 0092 0527     		movs	r7, #5
 276 0094 3997     		str	r7, [sp, #228]
 108:Core/Src/spi.c **** 
 277              		.loc 1 108 5 is_stmt 1 view .LVU96
 278 0096 35A9     		add	r1, sp, #212
 279 0098 1A48     		ldr	r0, .L15+8
 280 009a FFF7FEFF 		bl	HAL_GPIO_Init
ARM GAS  C:\Users\hh\AppData\Local\Temp\ccAKXMUq.s 			page 9


 281              	.LVL7:
 110:Core/Src/spi.c ****     GPIO_InitStruct.Mode = GPIO_MODE_AF_PP;
 282              		.loc 1 110 5 view .LVU97
 110:Core/Src/spi.c ****     GPIO_InitStruct.Mode = GPIO_MODE_AF_PP;
 283              		.loc 1 110 25 is_stmt 0 view .LVU98
 284 009e 8023     		movs	r3, #128
 285 00a0 3593     		str	r3, [sp, #212]
 111:Core/Src/spi.c ****     GPIO_InitStruct.Pull = GPIO_NOPULL;
 286              		.loc 1 111 5 is_stmt 1 view .LVU99
 111:Core/Src/spi.c ****     GPIO_InitStruct.Pull = GPIO_NOPULL;
 287              		.loc 1 111 26 is_stmt 0 view .LVU100
 288 00a2 3696     		str	r6, [sp, #216]
 112:Core/Src/spi.c ****     GPIO_InitStruct.Speed = GPIO_SPEED_FREQ_LOW;
 289              		.loc 1 112 5 is_stmt 1 view .LVU101
 112:Core/Src/spi.c ****     GPIO_InitStruct.Speed = GPIO_SPEED_FREQ_LOW;
 290              		.loc 1 112 26 is_stmt 0 view .LVU102
 291 00a4 3795     		str	r5, [sp, #220]
 113:Core/Src/spi.c ****     GPIO_InitStruct.Alternate = GPIO_AF5_SPI1;
 292              		.loc 1 113 5 is_stmt 1 view .LVU103
 113:Core/Src/spi.c ****     GPIO_InitStruct.Alternate = GPIO_AF5_SPI1;
 293              		.loc 1 113 27 is_stmt 0 view .LVU104
 294 00a6 3895     		str	r5, [sp, #224]
 114:Core/Src/spi.c ****     HAL_GPIO_Init(GPIOD, &GPIO_InitStruct);
 295              		.loc 1 114 5 is_stmt 1 view .LVU105
 114:Core/Src/spi.c ****     HAL_GPIO_Init(GPIOD, &GPIO_InitStruct);
 296              		.loc 1 114 31 is_stmt 0 view .LVU106
 297 00a8 3997     		str	r7, [sp, #228]
 115:Core/Src/spi.c **** 
 298              		.loc 1 115 5 is_stmt 1 view .LVU107
 299 00aa 35A9     		add	r1, sp, #212
 300 00ac 1648     		ldr	r0, .L15+12
 301 00ae FFF7FEFF 		bl	HAL_GPIO_Init
 302              	.LVL8:
 119:Core/Src/spi.c ****     hdma_spi1_tx.Init.Request = DMA_REQUEST_SPI1_TX;
 303              		.loc 1 119 5 view .LVU108
 119:Core/Src/spi.c ****     hdma_spi1_tx.Init.Request = DMA_REQUEST_SPI1_TX;
 304              		.loc 1 119 27 is_stmt 0 view .LVU109
 305 00b2 1648     		ldr	r0, .L15+16
 306 00b4 164B     		ldr	r3, .L15+20
 307 00b6 0360     		str	r3, [r0]
 120:Core/Src/spi.c ****     hdma_spi1_tx.Init.Direction = DMA_MEMORY_TO_PERIPH;
 308              		.loc 1 120 5 is_stmt 1 view .LVU110
 120:Core/Src/spi.c ****     hdma_spi1_tx.Init.Direction = DMA_MEMORY_TO_PERIPH;
 309              		.loc 1 120 31 is_stmt 0 view .LVU111
 310 00b8 2623     		movs	r3, #38
 311 00ba 4360     		str	r3, [r0, #4]
 121:Core/Src/spi.c ****     hdma_spi1_tx.Init.PeriphInc = DMA_PINC_DISABLE;
 312              		.loc 1 121 5 is_stmt 1 view .LVU112
 121:Core/Src/spi.c ****     hdma_spi1_tx.Init.PeriphInc = DMA_PINC_DISABLE;
 313              		.loc 1 121 33 is_stmt 0 view .LVU113
 314 00bc 4023     		movs	r3, #64
 315 00be 8360     		str	r3, [r0, #8]
 122:Core/Src/spi.c ****     hdma_spi1_tx.Init.MemInc = DMA_MINC_ENABLE;
 316              		.loc 1 122 5 is_stmt 1 view .LVU114
 122:Core/Src/spi.c ****     hdma_spi1_tx.Init.MemInc = DMA_MINC_ENABLE;
 317              		.loc 1 122 33 is_stmt 0 view .LVU115
 318 00c0 C560     		str	r5, [r0, #12]
ARM GAS  C:\Users\hh\AppData\Local\Temp\ccAKXMUq.s 			page 10


 123:Core/Src/spi.c ****     hdma_spi1_tx.Init.PeriphDataAlignment = DMA_PDATAALIGN_BYTE;
 319              		.loc 1 123 5 is_stmt 1 view .LVU116
 123:Core/Src/spi.c ****     hdma_spi1_tx.Init.PeriphDataAlignment = DMA_PDATAALIGN_BYTE;
 320              		.loc 1 123 30 is_stmt 0 view .LVU117
 321 00c2 4FF48063 		mov	r3, #1024
 322 00c6 0361     		str	r3, [r0, #16]
 124:Core/Src/spi.c ****     hdma_spi1_tx.Init.MemDataAlignment = DMA_MDATAALIGN_BYTE;
 323              		.loc 1 124 5 is_stmt 1 view .LVU118
 124:Core/Src/spi.c ****     hdma_spi1_tx.Init.MemDataAlignment = DMA_MDATAALIGN_BYTE;
 324              		.loc 1 124 43 is_stmt 0 view .LVU119
 325 00c8 4561     		str	r5, [r0, #20]
 125:Core/Src/spi.c ****     hdma_spi1_tx.Init.Mode = DMA_NORMAL;
 326              		.loc 1 125 5 is_stmt 1 view .LVU120
 125:Core/Src/spi.c ****     hdma_spi1_tx.Init.Mode = DMA_NORMAL;
 327              		.loc 1 125 40 is_stmt 0 view .LVU121
 328 00ca 8561     		str	r5, [r0, #24]
 126:Core/Src/spi.c ****     hdma_spi1_tx.Init.Priority = DMA_PRIORITY_LOW;
 329              		.loc 1 126 5 is_stmt 1 view .LVU122
 126:Core/Src/spi.c ****     hdma_spi1_tx.Init.Priority = DMA_PRIORITY_LOW;
 330              		.loc 1 126 28 is_stmt 0 view .LVU123
 331 00cc C561     		str	r5, [r0, #28]
 127:Core/Src/spi.c ****     hdma_spi1_tx.Init.FIFOMode = DMA_FIFOMODE_DISABLE;
 332              		.loc 1 127 5 is_stmt 1 view .LVU124
 127:Core/Src/spi.c ****     hdma_spi1_tx.Init.FIFOMode = DMA_FIFOMODE_DISABLE;
 333              		.loc 1 127 32 is_stmt 0 view .LVU125
 334 00ce 0562     		str	r5, [r0, #32]
 128:Core/Src/spi.c ****     if (HAL_DMA_Init(&hdma_spi1_tx) != HAL_OK)
 335              		.loc 1 128 5 is_stmt 1 view .LVU126
 128:Core/Src/spi.c ****     if (HAL_DMA_Init(&hdma_spi1_tx) != HAL_OK)
 336              		.loc 1 128 32 is_stmt 0 view .LVU127
 337 00d0 4562     		str	r5, [r0, #36]
 129:Core/Src/spi.c ****     {
 338              		.loc 1 129 5 is_stmt 1 view .LVU128
 129:Core/Src/spi.c ****     {
 339              		.loc 1 129 9 is_stmt 0 view .LVU129
 340 00d2 FFF7FEFF 		bl	HAL_DMA_Init
 341              	.LVL9:
 129:Core/Src/spi.c ****     {
 342              		.loc 1 129 8 discriminator 1 view .LVU130
 343 00d6 70B9     		cbnz	r0, .L14
 344              	.L10:
 134:Core/Src/spi.c **** 
 345              		.loc 1 134 5 is_stmt 1 view .LVU131
 134:Core/Src/spi.c **** 
 346              		.loc 1 134 5 view .LVU132
 347 00d8 0C4B     		ldr	r3, .L15+16
 348 00da A367     		str	r3, [r4, #120]
 134:Core/Src/spi.c **** 
 349              		.loc 1 134 5 view .LVU133
 350 00dc 9C63     		str	r4, [r3, #56]
 134:Core/Src/spi.c **** 
 351              		.loc 1 134 5 view .LVU134
 137:Core/Src/spi.c ****     HAL_NVIC_EnableIRQ(SPI1_IRQn);
 352              		.loc 1 137 5 view .LVU135
 353 00de 0022     		movs	r2, #0
 354 00e0 0521     		movs	r1, #5
 355 00e2 2320     		movs	r0, #35
ARM GAS  C:\Users\hh\AppData\Local\Temp\ccAKXMUq.s 			page 11


 356 00e4 FFF7FEFF 		bl	HAL_NVIC_SetPriority
 357              	.LVL10:
 138:Core/Src/spi.c ****   /* USER CODE BEGIN SPI1_MspInit 1 */
 358              		.loc 1 138 5 view .LVU136
 359 00e8 2320     		movs	r0, #35
 360 00ea FFF7FEFF 		bl	HAL_NVIC_EnableIRQ
 361              	.LVL11:
 362              		.loc 1 143 1 is_stmt 0 view .LVU137
 363 00ee 98E7     		b	.L7
 364              	.L13:
  90:Core/Src/spi.c ****     }
 365              		.loc 1 90 7 is_stmt 1 view .LVU138
 366 00f0 FFF7FEFF 		bl	Error_Handler
 367              	.LVL12:
 368 00f4 A1E7     		b	.L9
 369              	.L14:
 131:Core/Src/spi.c ****     }
 370              		.loc 1 131 7 view .LVU139
 371 00f6 FFF7FEFF 		bl	Error_Handler
 372              	.LVL13:
 373 00fa EDE7     		b	.L10
 374              	.L16:
 375              		.align	2
 376              	.L15:
 377 00fc 00300140 		.word	1073819648
 378 0100 00440258 		.word	1476543488
 379 0104 00000258 		.word	1476526080
 380 0108 000C0258 		.word	1476529152
 381 010c 00000000 		.word	hdma_spi1_tx
 382 0110 58000240 		.word	1073872984
 383              		.cfi_endproc
 384              	.LFE147:
 386              		.section	.text.HAL_SPI_MspDeInit,"ax",%progbits
 387              		.align	1
 388              		.global	HAL_SPI_MspDeInit
 389              		.syntax unified
 390              		.thumb
 391              		.thumb_func
 393              	HAL_SPI_MspDeInit:
 394              	.LVL14:
 395              	.LFB148:
 144:Core/Src/spi.c **** 
 145:Core/Src/spi.c **** void HAL_SPI_MspDeInit(SPI_HandleTypeDef* spiHandle)
 146:Core/Src/spi.c **** {
 396              		.loc 1 146 1 view -0
 397              		.cfi_startproc
 398              		@ args = 0, pretend = 0, frame = 0
 399              		@ frame_needed = 0, uses_anonymous_args = 0
 147:Core/Src/spi.c **** 
 148:Core/Src/spi.c ****   if(spiHandle->Instance==SPI1)
 400              		.loc 1 148 3 view .LVU141
 401              		.loc 1 148 15 is_stmt 0 view .LVU142
 402 0000 0268     		ldr	r2, [r0]
 403              		.loc 1 148 5 view .LVU143
 404 0002 0E4B     		ldr	r3, .L24
 405 0004 9A42     		cmp	r2, r3
 406 0006 00D0     		beq	.L23
ARM GAS  C:\Users\hh\AppData\Local\Temp\ccAKXMUq.s 			page 12


 407 0008 7047     		bx	lr
 408              	.L23:
 146:Core/Src/spi.c **** 
 409              		.loc 1 146 1 view .LVU144
 410 000a 10B5     		push	{r4, lr}
 411              	.LCFI5:
 412              		.cfi_def_cfa_offset 8
 413              		.cfi_offset 4, -8
 414              		.cfi_offset 14, -4
 415 000c 0446     		mov	r4, r0
 149:Core/Src/spi.c ****   {
 150:Core/Src/spi.c ****   /* USER CODE BEGIN SPI1_MspDeInit 0 */
 151:Core/Src/spi.c **** 
 152:Core/Src/spi.c ****   /* USER CODE END SPI1_MspDeInit 0 */
 153:Core/Src/spi.c ****     /* Peripheral clock disable */
 154:Core/Src/spi.c ****     __HAL_RCC_SPI1_CLK_DISABLE();
 416              		.loc 1 154 5 is_stmt 1 view .LVU145
 417 000e 0C4A     		ldr	r2, .L24+4
 418 0010 D2F8F030 		ldr	r3, [r2, #240]
 419 0014 23F48053 		bic	r3, r3, #4096
 420 0018 C2F8F030 		str	r3, [r2, #240]
 155:Core/Src/spi.c **** 
 156:Core/Src/spi.c ****     /**SPI1 GPIO Configuration
 157:Core/Src/spi.c ****     PA5     ------> SPI1_SCK
 158:Core/Src/spi.c ****     PA6     ------> SPI1_MISO
 159:Core/Src/spi.c ****     PD7     ------> SPI1_MOSI
 160:Core/Src/spi.c ****     */
 161:Core/Src/spi.c ****     HAL_GPIO_DeInit(GPIOA, GPIO_PIN_5|GPIO_PIN_6);
 421              		.loc 1 161 5 view .LVU146
 422 001c 6021     		movs	r1, #96
 423 001e 0948     		ldr	r0, .L24+8
 424              	.LVL15:
 425              		.loc 1 161 5 is_stmt 0 view .LVU147
 426 0020 FFF7FEFF 		bl	HAL_GPIO_DeInit
 427              	.LVL16:
 162:Core/Src/spi.c **** 
 163:Core/Src/spi.c ****     HAL_GPIO_DeInit(GPIOD, GPIO_PIN_7);
 428              		.loc 1 163 5 is_stmt 1 view .LVU148
 429 0024 8021     		movs	r1, #128
 430 0026 0848     		ldr	r0, .L24+12
 431 0028 FFF7FEFF 		bl	HAL_GPIO_DeInit
 432              	.LVL17:
 164:Core/Src/spi.c **** 
 165:Core/Src/spi.c ****     /* SPI1 DMA DeInit */
 166:Core/Src/spi.c ****     HAL_DMA_DeInit(spiHandle->hdmatx);
 433              		.loc 1 166 5 view .LVU149
 434 002c A06F     		ldr	r0, [r4, #120]
 435 002e FFF7FEFF 		bl	HAL_DMA_DeInit
 436              	.LVL18:
 167:Core/Src/spi.c **** 
 168:Core/Src/spi.c ****     /* SPI1 interrupt Deinit */
 169:Core/Src/spi.c ****     HAL_NVIC_DisableIRQ(SPI1_IRQn);
 437              		.loc 1 169 5 view .LVU150
 438 0032 2320     		movs	r0, #35
 439 0034 FFF7FEFF 		bl	HAL_NVIC_DisableIRQ
 440              	.LVL19:
 170:Core/Src/spi.c ****   /* USER CODE BEGIN SPI1_MspDeInit 1 */
ARM GAS  C:\Users\hh\AppData\Local\Temp\ccAKXMUq.s 			page 13


 171:Core/Src/spi.c **** 
 172:Core/Src/spi.c ****   /* USER CODE END SPI1_MspDeInit 1 */
 173:Core/Src/spi.c ****   }
 174:Core/Src/spi.c **** }
 441              		.loc 1 174 1 is_stmt 0 view .LVU151
 442 0038 10BD     		pop	{r4, pc}
 443              	.LVL20:
 444              	.L25:
 445              		.loc 1 174 1 view .LVU152
 446 003a 00BF     		.align	2
 447              	.L24:
 448 003c 00300140 		.word	1073819648
 449 0040 00440258 		.word	1476543488
 450 0044 00000258 		.word	1476526080
 451 0048 000C0258 		.word	1476529152
 452              		.cfi_endproc
 453              	.LFE148:
 455              		.global	hdma_spi1_tx
 456              		.section	.bss.hdma_spi1_tx,"aw",%nobits
 457              		.align	2
 460              	hdma_spi1_tx:
 461 0000 00000000 		.space	120
 461      00000000 
 461      00000000 
 461      00000000 
 461      00000000 
 462              		.global	hspi1
 463              		.section	.bss.hspi1,"aw",%nobits
 464              		.align	2
 467              	hspi1:
 468 0000 00000000 		.space	136
 468      00000000 
 468      00000000 
 468      00000000 
 468      00000000 
 469              		.text
 470              	.Letext0:
 471              		.file 2 "Drivers/CMSIS/Device/ST/STM32H7xx/Include/stm32h743xx.h"
 472              		.file 3 "C:/Program Files (x86)/ARM/arm-gnu-toolchain-15.2.rel1-mingw-w64-i686-arm-none-eabi/arm-n
 473              		.file 4 "C:/Program Files (x86)/ARM/arm-gnu-toolchain-15.2.rel1-mingw-w64-i686-arm-none-eabi/arm-n
 474              		.file 5 "Drivers/STM32H7xx_HAL_Driver/Inc/stm32h7xx_hal_def.h"
 475              		.file 6 "Drivers/STM32H7xx_HAL_Driver/Inc/stm32h7xx_hal_rcc_ex.h"
 476              		.file 7 "Drivers/STM32H7xx_HAL_Driver/Inc/stm32h7xx_hal_gpio.h"
 477              		.file 8 "Drivers/STM32H7xx_HAL_Driver/Inc/stm32h7xx_hal_dma.h"
 478              		.file 9 "Drivers/STM32H7xx_HAL_Driver/Inc/stm32h7xx_hal_spi.h"
 479              		.file 10 "Core/Inc/spi.h"
 480              		.file 11 "Drivers/STM32H7xx_HAL_Driver/Inc/stm32h7xx_hal_cortex.h"
 481              		.file 12 "Core/Inc/main.h"
 482              		.file 13 "<built-in>"
ARM GAS  C:\Users\hh\AppData\Local\Temp\ccAKXMUq.s 			page 14


DEFINED SYMBOLS
                            *ABS*:00000000 spi.c
C:\Users\hh\AppData\Local\Temp\ccAKXMUq.s:20     .text.MX_SPI1_Init:00000000 $t
C:\Users\hh\AppData\Local\Temp\ccAKXMUq.s:26     .text.MX_SPI1_Init:00000000 MX_SPI1_Init
C:\Users\hh\AppData\Local\Temp\ccAKXMUq.s:130    .text.MX_SPI1_Init:00000058 $d
C:\Users\hh\AppData\Local\Temp\ccAKXMUq.s:467    .bss.hspi1:00000000 hspi1
C:\Users\hh\AppData\Local\Temp\ccAKXMUq.s:136    .text.HAL_SPI_MspInit:00000000 $t
C:\Users\hh\AppData\Local\Temp\ccAKXMUq.s:142    .text.HAL_SPI_MspInit:00000000 HAL_SPI_MspInit
C:\Users\hh\AppData\Local\Temp\ccAKXMUq.s:377    .text.HAL_SPI_MspInit:000000fc $d
C:\Users\hh\AppData\Local\Temp\ccAKXMUq.s:460    .bss.hdma_spi1_tx:00000000 hdma_spi1_tx
C:\Users\hh\AppData\Local\Temp\ccAKXMUq.s:387    .text.HAL_SPI_MspDeInit:00000000 $t
C:\Users\hh\AppData\Local\Temp\ccAKXMUq.s:393    .text.HAL_SPI_MspDeInit:00000000 HAL_SPI_MspDeInit
C:\Users\hh\AppData\Local\Temp\ccAKXMUq.s:448    .text.HAL_SPI_MspDeInit:0000003c $d
C:\Users\hh\AppData\Local\Temp\ccAKXMUq.s:457    .bss.hdma_spi1_tx:00000000 $d
C:\Users\hh\AppData\Local\Temp\ccAKXMUq.s:464    .bss.hspi1:00000000 $d

UNDEFINED SYMBOLS
HAL_SPI_Init
Error_Handler
memset
HAL_RCCEx_PeriphCLKConfig
HAL_GPIO_Init
HAL_DMA_Init
HAL_NVIC_SetPriority
HAL_NVIC_EnableIRQ
HAL_GPIO_DeInit
HAL_DMA_DeInit
HAL_NVIC_DisableIRQ
