ARM GAS  C:\Users\hh\AppData\Local\Temp\ccbNirFa.s 			page 1


   1              		.cpu cortex-m7
   2              		.arch armv7e-m
   3              		.fpu fpv5-d16
   4              		.eabi_attribute 28, 1
   5              		.eabi_attribute 20, 1
   6              		.eabi_attribute 21, 1
   7              		.eabi_attribute 23, 3
   8              		.eabi_attribute 24, 1
   9              		.eabi_attribute 25, 1
  10              		.eabi_attribute 26, 1
  11              		.eabi_attribute 30, 1
  12              		.eabi_attribute 34, 1
  13              		.eabi_attribute 18, 4
  14              		.file	"stm32h7xx_ll_fmc.c"
  15              		.text
  16              	.Ltext0:
  17              		.cfi_sections	.debug_frame
  18              		.file 1 "Drivers/STM32H7xx_HAL_Driver/Src/stm32h7xx_ll_fmc.c"
  19              		.section	.text.FMC_NORSRAM_Init,"ax",%progbits
  20              		.align	1
  21              		.global	FMC_NORSRAM_Init
  22              		.syntax unified
  23              		.thumb
  24              		.thumb_func
  26              	FMC_NORSRAM_Init:
  27              	.LVL0:
  28              	.LFB146:
   1:Drivers/STM32H7xx_HAL_Driver/Src/stm32h7xx_ll_fmc.c **** /**
   2:Drivers/STM32H7xx_HAL_Driver/Src/stm32h7xx_ll_fmc.c ****   ******************************************************************************
   3:Drivers/STM32H7xx_HAL_Driver/Src/stm32h7xx_ll_fmc.c ****   * @file    stm32h7xx_ll_fmc.c
   4:Drivers/STM32H7xx_HAL_Driver/Src/stm32h7xx_ll_fmc.c ****   * @author  MCD Application Team
   5:Drivers/STM32H7xx_HAL_Driver/Src/stm32h7xx_ll_fmc.c ****   * @brief   FMC Low Layer HAL module driver.
   6:Drivers/STM32H7xx_HAL_Driver/Src/stm32h7xx_ll_fmc.c ****   *
   7:Drivers/STM32H7xx_HAL_Driver/Src/stm32h7xx_ll_fmc.c ****   *          This file provides firmware functions to manage the following
   8:Drivers/STM32H7xx_HAL_Driver/Src/stm32h7xx_ll_fmc.c ****   *          functionalities of the Flexible Memory Controller (FMC) peripheral memories:
   9:Drivers/STM32H7xx_HAL_Driver/Src/stm32h7xx_ll_fmc.c ****   *           + Initialization/de-initialization functions
  10:Drivers/STM32H7xx_HAL_Driver/Src/stm32h7xx_ll_fmc.c ****   *           + Peripheral Control functions
  11:Drivers/STM32H7xx_HAL_Driver/Src/stm32h7xx_ll_fmc.c ****   *           + Peripheral State functions
  12:Drivers/STM32H7xx_HAL_Driver/Src/stm32h7xx_ll_fmc.c ****   *
  13:Drivers/STM32H7xx_HAL_Driver/Src/stm32h7xx_ll_fmc.c ****   ******************************************************************************
  14:Drivers/STM32H7xx_HAL_Driver/Src/stm32h7xx_ll_fmc.c ****   * @attention
  15:Drivers/STM32H7xx_HAL_Driver/Src/stm32h7xx_ll_fmc.c ****   *
  16:Drivers/STM32H7xx_HAL_Driver/Src/stm32h7xx_ll_fmc.c ****   * Copyright (c) 2017 STMicroelectronics.
  17:Drivers/STM32H7xx_HAL_Driver/Src/stm32h7xx_ll_fmc.c ****   * All rights reserved.
  18:Drivers/STM32H7xx_HAL_Driver/Src/stm32h7xx_ll_fmc.c ****   *
  19:Drivers/STM32H7xx_HAL_Driver/Src/stm32h7xx_ll_fmc.c ****   * This software is licensed under terms that can be found in the LICENSE file
  20:Drivers/STM32H7xx_HAL_Driver/Src/stm32h7xx_ll_fmc.c ****   * in the root directory of this software component.
  21:Drivers/STM32H7xx_HAL_Driver/Src/stm32h7xx_ll_fmc.c ****   * If no LICENSE file comes with this software, it is provided AS-IS.
  22:Drivers/STM32H7xx_HAL_Driver/Src/stm32h7xx_ll_fmc.c ****   *
  23:Drivers/STM32H7xx_HAL_Driver/Src/stm32h7xx_ll_fmc.c ****   ******************************************************************************
  24:Drivers/STM32H7xx_HAL_Driver/Src/stm32h7xx_ll_fmc.c ****   @verbatim
  25:Drivers/STM32H7xx_HAL_Driver/Src/stm32h7xx_ll_fmc.c ****   ==============================================================================
  26:Drivers/STM32H7xx_HAL_Driver/Src/stm32h7xx_ll_fmc.c ****                         ##### FMC peripheral features #####
  27:Drivers/STM32H7xx_HAL_Driver/Src/stm32h7xx_ll_fmc.c ****   ==============================================================================
  28:Drivers/STM32H7xx_HAL_Driver/Src/stm32h7xx_ll_fmc.c ****   [..] The Flexible memory controller (FMC) includes following memory controllers:
  29:Drivers/STM32H7xx_HAL_Driver/Src/stm32h7xx_ll_fmc.c ****        (+) The NOR/PSRAM memory controller
  30:Drivers/STM32H7xx_HAL_Driver/Src/stm32h7xx_ll_fmc.c ****      (+) The NAND memory controller
ARM GAS  C:\Users\hh\AppData\Local\Temp\ccbNirFa.s 			page 2


  31:Drivers/STM32H7xx_HAL_Driver/Src/stm32h7xx_ll_fmc.c ****        (+) The Synchronous DRAM (SDRAM) controller
  32:Drivers/STM32H7xx_HAL_Driver/Src/stm32h7xx_ll_fmc.c **** 
  33:Drivers/STM32H7xx_HAL_Driver/Src/stm32h7xx_ll_fmc.c ****   [..] The FMC functional block makes the interface with synchronous and asynchronous static
  34:Drivers/STM32H7xx_HAL_Driver/Src/stm32h7xx_ll_fmc.c ****        memories and SDRAM memories. Its main purposes are:
  35:Drivers/STM32H7xx_HAL_Driver/Src/stm32h7xx_ll_fmc.c ****        (+) to translate AHB transactions into the appropriate external device protocol
  36:Drivers/STM32H7xx_HAL_Driver/Src/stm32h7xx_ll_fmc.c ****        (+) to meet the access time requirements of the external memory devices
  37:Drivers/STM32H7xx_HAL_Driver/Src/stm32h7xx_ll_fmc.c **** 
  38:Drivers/STM32H7xx_HAL_Driver/Src/stm32h7xx_ll_fmc.c ****   [..] All external memories share the addresses, data and control signals with the controller.
  39:Drivers/STM32H7xx_HAL_Driver/Src/stm32h7xx_ll_fmc.c ****        Each external device is accessed by means of a unique Chip Select. The FMC performs
  40:Drivers/STM32H7xx_HAL_Driver/Src/stm32h7xx_ll_fmc.c ****        only one access at a time to an external device.
  41:Drivers/STM32H7xx_HAL_Driver/Src/stm32h7xx_ll_fmc.c ****        The main features of the FMC controller are the following:
  42:Drivers/STM32H7xx_HAL_Driver/Src/stm32h7xx_ll_fmc.c ****         (+) Interface with static-memory mapped devices including:
  43:Drivers/STM32H7xx_HAL_Driver/Src/stm32h7xx_ll_fmc.c ****            (++) Static random access memory (SRAM)
  44:Drivers/STM32H7xx_HAL_Driver/Src/stm32h7xx_ll_fmc.c ****            (++) Read-only memory (ROM)
  45:Drivers/STM32H7xx_HAL_Driver/Src/stm32h7xx_ll_fmc.c ****            (++) NOR Flash memory/OneNAND Flash memory
  46:Drivers/STM32H7xx_HAL_Driver/Src/stm32h7xx_ll_fmc.c ****            (++) PSRAM (4 memory banks)
  47:Drivers/STM32H7xx_HAL_Driver/Src/stm32h7xx_ll_fmc.c ****            (++) Two banks of NAND Flash memory with ECC hardware to check up to 8 Kbytes of
  48:Drivers/STM32H7xx_HAL_Driver/Src/stm32h7xx_ll_fmc.c ****                 data
  49:Drivers/STM32H7xx_HAL_Driver/Src/stm32h7xx_ll_fmc.c ****         (+) Interface with synchronous DRAM (SDRAM) memories
  50:Drivers/STM32H7xx_HAL_Driver/Src/stm32h7xx_ll_fmc.c ****         (+) Independent Chip Select control for each memory bank
  51:Drivers/STM32H7xx_HAL_Driver/Src/stm32h7xx_ll_fmc.c ****         (+) Independent configuration for each memory bank
  52:Drivers/STM32H7xx_HAL_Driver/Src/stm32h7xx_ll_fmc.c **** 
  53:Drivers/STM32H7xx_HAL_Driver/Src/stm32h7xx_ll_fmc.c ****   @endverbatim
  54:Drivers/STM32H7xx_HAL_Driver/Src/stm32h7xx_ll_fmc.c ****   ******************************************************************************
  55:Drivers/STM32H7xx_HAL_Driver/Src/stm32h7xx_ll_fmc.c ****   */
  56:Drivers/STM32H7xx_HAL_Driver/Src/stm32h7xx_ll_fmc.c **** 
  57:Drivers/STM32H7xx_HAL_Driver/Src/stm32h7xx_ll_fmc.c **** /* Includes ------------------------------------------------------------------*/
  58:Drivers/STM32H7xx_HAL_Driver/Src/stm32h7xx_ll_fmc.c **** #include "stm32h7xx_hal.h"
  59:Drivers/STM32H7xx_HAL_Driver/Src/stm32h7xx_ll_fmc.c **** 
  60:Drivers/STM32H7xx_HAL_Driver/Src/stm32h7xx_ll_fmc.c **** /** @addtogroup STM32H7xx_HAL_Driver
  61:Drivers/STM32H7xx_HAL_Driver/Src/stm32h7xx_ll_fmc.c ****   * @{
  62:Drivers/STM32H7xx_HAL_Driver/Src/stm32h7xx_ll_fmc.c ****   */
  63:Drivers/STM32H7xx_HAL_Driver/Src/stm32h7xx_ll_fmc.c **** #if defined(HAL_NOR_MODULE_ENABLED) || defined(HAL_NAND_MODULE_ENABLED) || defined(HAL_SDRAM_MODULE
  64:Drivers/STM32H7xx_HAL_Driver/Src/stm32h7xx_ll_fmc.c ****     || defined(HAL_SRAM_MODULE_ENABLED)
  65:Drivers/STM32H7xx_HAL_Driver/Src/stm32h7xx_ll_fmc.c **** 
  66:Drivers/STM32H7xx_HAL_Driver/Src/stm32h7xx_ll_fmc.c **** /** @defgroup FMC_LL  FMC Low Layer
  67:Drivers/STM32H7xx_HAL_Driver/Src/stm32h7xx_ll_fmc.c ****   * @brief FMC driver modules
  68:Drivers/STM32H7xx_HAL_Driver/Src/stm32h7xx_ll_fmc.c ****   * @{
  69:Drivers/STM32H7xx_HAL_Driver/Src/stm32h7xx_ll_fmc.c ****   */
  70:Drivers/STM32H7xx_HAL_Driver/Src/stm32h7xx_ll_fmc.c **** 
  71:Drivers/STM32H7xx_HAL_Driver/Src/stm32h7xx_ll_fmc.c **** /* Private typedef -----------------------------------------------------------*/
  72:Drivers/STM32H7xx_HAL_Driver/Src/stm32h7xx_ll_fmc.c **** /* Private define ------------------------------------------------------------*/
  73:Drivers/STM32H7xx_HAL_Driver/Src/stm32h7xx_ll_fmc.c **** 
  74:Drivers/STM32H7xx_HAL_Driver/Src/stm32h7xx_ll_fmc.c **** /** @defgroup FMC_LL_Private_Constants FMC Low Layer Private Constants
  75:Drivers/STM32H7xx_HAL_Driver/Src/stm32h7xx_ll_fmc.c ****   * @{
  76:Drivers/STM32H7xx_HAL_Driver/Src/stm32h7xx_ll_fmc.c ****   */
  77:Drivers/STM32H7xx_HAL_Driver/Src/stm32h7xx_ll_fmc.c **** 
  78:Drivers/STM32H7xx_HAL_Driver/Src/stm32h7xx_ll_fmc.c **** /* ----------------------- FMC registers bit mask --------------------------- */
  79:Drivers/STM32H7xx_HAL_Driver/Src/stm32h7xx_ll_fmc.c **** 
  80:Drivers/STM32H7xx_HAL_Driver/Src/stm32h7xx_ll_fmc.c **** /* --- BCR Register ---*/
  81:Drivers/STM32H7xx_HAL_Driver/Src/stm32h7xx_ll_fmc.c **** /* BCR register clear mask */
  82:Drivers/STM32H7xx_HAL_Driver/Src/stm32h7xx_ll_fmc.c **** 
  83:Drivers/STM32H7xx_HAL_Driver/Src/stm32h7xx_ll_fmc.c **** /* --- BTR Register ---*/
  84:Drivers/STM32H7xx_HAL_Driver/Src/stm32h7xx_ll_fmc.c **** /* BTR register clear mask */
  85:Drivers/STM32H7xx_HAL_Driver/Src/stm32h7xx_ll_fmc.c **** #define BTR_CLEAR_MASK    ((uint32_t)(FMC_BTRx_ADDSET | FMC_BTRx_ADDHLD  |\
  86:Drivers/STM32H7xx_HAL_Driver/Src/stm32h7xx_ll_fmc.c ****                                       FMC_BTRx_DATAST | FMC_BTRx_BUSTURN |\
  87:Drivers/STM32H7xx_HAL_Driver/Src/stm32h7xx_ll_fmc.c ****                                       FMC_BTRx_CLKDIV | FMC_BTRx_DATLAT  |\
ARM GAS  C:\Users\hh\AppData\Local\Temp\ccbNirFa.s 			page 3


  88:Drivers/STM32H7xx_HAL_Driver/Src/stm32h7xx_ll_fmc.c ****                                       FMC_BTRx_ACCMOD))
  89:Drivers/STM32H7xx_HAL_Driver/Src/stm32h7xx_ll_fmc.c **** 
  90:Drivers/STM32H7xx_HAL_Driver/Src/stm32h7xx_ll_fmc.c **** /* --- BWTR Register ---*/
  91:Drivers/STM32H7xx_HAL_Driver/Src/stm32h7xx_ll_fmc.c **** /* BWTR register clear mask */
  92:Drivers/STM32H7xx_HAL_Driver/Src/stm32h7xx_ll_fmc.c **** #define BWTR_CLEAR_MASK   ((uint32_t)(FMC_BWTRx_ADDSET | FMC_BWTRx_ADDHLD  |\
  93:Drivers/STM32H7xx_HAL_Driver/Src/stm32h7xx_ll_fmc.c ****                                       FMC_BWTRx_DATAST | FMC_BWTRx_BUSTURN |\
  94:Drivers/STM32H7xx_HAL_Driver/Src/stm32h7xx_ll_fmc.c ****                                       FMC_BWTRx_ACCMOD))
  95:Drivers/STM32H7xx_HAL_Driver/Src/stm32h7xx_ll_fmc.c **** 
  96:Drivers/STM32H7xx_HAL_Driver/Src/stm32h7xx_ll_fmc.c **** /* --- PCR Register ---*/
  97:Drivers/STM32H7xx_HAL_Driver/Src/stm32h7xx_ll_fmc.c **** /* PCR register clear mask */
  98:Drivers/STM32H7xx_HAL_Driver/Src/stm32h7xx_ll_fmc.c **** #define PCR_CLEAR_MASK    ((uint32_t)(FMC_PCR_PWAITEN | FMC_PCR_PBKEN  | \
  99:Drivers/STM32H7xx_HAL_Driver/Src/stm32h7xx_ll_fmc.c ****                                       FMC_PCR_PWID    | FMC_PCR_ECCEN  | \
 100:Drivers/STM32H7xx_HAL_Driver/Src/stm32h7xx_ll_fmc.c ****                                       FMC_PCR_TCLR    | FMC_PCR_TAR    | \
 101:Drivers/STM32H7xx_HAL_Driver/Src/stm32h7xx_ll_fmc.c ****                                       FMC_PCR_ECCPS))
 102:Drivers/STM32H7xx_HAL_Driver/Src/stm32h7xx_ll_fmc.c **** /* --- PMEM Register ---*/
 103:Drivers/STM32H7xx_HAL_Driver/Src/stm32h7xx_ll_fmc.c **** /* PMEM register clear mask */
 104:Drivers/STM32H7xx_HAL_Driver/Src/stm32h7xx_ll_fmc.c **** #define PMEM_CLEAR_MASK   ((uint32_t)(FMC_PMEM_MEMSET  | FMC_PMEM_MEMWAIT |\
 105:Drivers/STM32H7xx_HAL_Driver/Src/stm32h7xx_ll_fmc.c ****                                       FMC_PMEM_MEMHOLD | FMC_PMEM_MEMHIZ))
 106:Drivers/STM32H7xx_HAL_Driver/Src/stm32h7xx_ll_fmc.c **** 
 107:Drivers/STM32H7xx_HAL_Driver/Src/stm32h7xx_ll_fmc.c **** /* --- PATT Register ---*/
 108:Drivers/STM32H7xx_HAL_Driver/Src/stm32h7xx_ll_fmc.c **** /* PATT register clear mask */
 109:Drivers/STM32H7xx_HAL_Driver/Src/stm32h7xx_ll_fmc.c **** #define PATT_CLEAR_MASK   ((uint32_t)(FMC_PATT_ATTSET  | FMC_PATT_ATTWAIT |\
 110:Drivers/STM32H7xx_HAL_Driver/Src/stm32h7xx_ll_fmc.c ****                                       FMC_PATT_ATTHOLD | FMC_PATT_ATTHIZ))
 111:Drivers/STM32H7xx_HAL_Driver/Src/stm32h7xx_ll_fmc.c **** 
 112:Drivers/STM32H7xx_HAL_Driver/Src/stm32h7xx_ll_fmc.c **** 
 113:Drivers/STM32H7xx_HAL_Driver/Src/stm32h7xx_ll_fmc.c **** /* --- SDCR Register ---*/
 114:Drivers/STM32H7xx_HAL_Driver/Src/stm32h7xx_ll_fmc.c **** /* SDCR register clear mask */
 115:Drivers/STM32H7xx_HAL_Driver/Src/stm32h7xx_ll_fmc.c **** #define SDCR_CLEAR_MASK   ((uint32_t)(FMC_SDCRx_NC    | FMC_SDCRx_NR     | \
 116:Drivers/STM32H7xx_HAL_Driver/Src/stm32h7xx_ll_fmc.c ****                                       FMC_SDCRx_MWID  | FMC_SDCRx_NB     | \
 117:Drivers/STM32H7xx_HAL_Driver/Src/stm32h7xx_ll_fmc.c ****                                       FMC_SDCRx_CAS   | FMC_SDCRx_WP     | \
 118:Drivers/STM32H7xx_HAL_Driver/Src/stm32h7xx_ll_fmc.c ****                                       FMC_SDCRx_SDCLK | FMC_SDCRx_RBURST | \
 119:Drivers/STM32H7xx_HAL_Driver/Src/stm32h7xx_ll_fmc.c ****                                       FMC_SDCRx_RPIPE))
 120:Drivers/STM32H7xx_HAL_Driver/Src/stm32h7xx_ll_fmc.c **** 
 121:Drivers/STM32H7xx_HAL_Driver/Src/stm32h7xx_ll_fmc.c **** /* --- SDTR Register ---*/
 122:Drivers/STM32H7xx_HAL_Driver/Src/stm32h7xx_ll_fmc.c **** /* SDTR register clear mask */
 123:Drivers/STM32H7xx_HAL_Driver/Src/stm32h7xx_ll_fmc.c **** #define SDTR_CLEAR_MASK   ((uint32_t)(FMC_SDTRx_TMRD  | FMC_SDTRx_TXSR   | \
 124:Drivers/STM32H7xx_HAL_Driver/Src/stm32h7xx_ll_fmc.c ****                                       FMC_SDTRx_TRAS  | FMC_SDTRx_TRC    | \
 125:Drivers/STM32H7xx_HAL_Driver/Src/stm32h7xx_ll_fmc.c ****                                       FMC_SDTRx_TWR   | FMC_SDTRx_TRP    | \
 126:Drivers/STM32H7xx_HAL_Driver/Src/stm32h7xx_ll_fmc.c ****                                       FMC_SDTRx_TRCD))
 127:Drivers/STM32H7xx_HAL_Driver/Src/stm32h7xx_ll_fmc.c **** 
 128:Drivers/STM32H7xx_HAL_Driver/Src/stm32h7xx_ll_fmc.c **** /**
 129:Drivers/STM32H7xx_HAL_Driver/Src/stm32h7xx_ll_fmc.c ****   * @}
 130:Drivers/STM32H7xx_HAL_Driver/Src/stm32h7xx_ll_fmc.c ****   */
 131:Drivers/STM32H7xx_HAL_Driver/Src/stm32h7xx_ll_fmc.c **** 
 132:Drivers/STM32H7xx_HAL_Driver/Src/stm32h7xx_ll_fmc.c **** /* Private macro -------------------------------------------------------------*/
 133:Drivers/STM32H7xx_HAL_Driver/Src/stm32h7xx_ll_fmc.c **** /* Private variables ---------------------------------------------------------*/
 134:Drivers/STM32H7xx_HAL_Driver/Src/stm32h7xx_ll_fmc.c **** /* Private function prototypes -----------------------------------------------*/
 135:Drivers/STM32H7xx_HAL_Driver/Src/stm32h7xx_ll_fmc.c **** /* Exported functions --------------------------------------------------------*/
 136:Drivers/STM32H7xx_HAL_Driver/Src/stm32h7xx_ll_fmc.c **** 
 137:Drivers/STM32H7xx_HAL_Driver/Src/stm32h7xx_ll_fmc.c **** /** @defgroup FMC_LL_Exported_Functions FMC Low Layer Exported Functions
 138:Drivers/STM32H7xx_HAL_Driver/Src/stm32h7xx_ll_fmc.c ****   * @{
 139:Drivers/STM32H7xx_HAL_Driver/Src/stm32h7xx_ll_fmc.c ****   */
 140:Drivers/STM32H7xx_HAL_Driver/Src/stm32h7xx_ll_fmc.c **** 
 141:Drivers/STM32H7xx_HAL_Driver/Src/stm32h7xx_ll_fmc.c **** 
 142:Drivers/STM32H7xx_HAL_Driver/Src/stm32h7xx_ll_fmc.c **** /** @defgroup FMC_LL_Exported_Functions_NORSRAM FMC Low Layer NOR SRAM Exported Functions
 143:Drivers/STM32H7xx_HAL_Driver/Src/stm32h7xx_ll_fmc.c ****   * @brief  NORSRAM Controller functions
 144:Drivers/STM32H7xx_HAL_Driver/Src/stm32h7xx_ll_fmc.c ****   *
ARM GAS  C:\Users\hh\AppData\Local\Temp\ccbNirFa.s 			page 4


 145:Drivers/STM32H7xx_HAL_Driver/Src/stm32h7xx_ll_fmc.c ****   @verbatim
 146:Drivers/STM32H7xx_HAL_Driver/Src/stm32h7xx_ll_fmc.c ****   ==============================================================================
 147:Drivers/STM32H7xx_HAL_Driver/Src/stm32h7xx_ll_fmc.c ****                    ##### How to use NORSRAM device driver #####
 148:Drivers/STM32H7xx_HAL_Driver/Src/stm32h7xx_ll_fmc.c ****   ==============================================================================
 149:Drivers/STM32H7xx_HAL_Driver/Src/stm32h7xx_ll_fmc.c **** 
 150:Drivers/STM32H7xx_HAL_Driver/Src/stm32h7xx_ll_fmc.c ****   [..]
 151:Drivers/STM32H7xx_HAL_Driver/Src/stm32h7xx_ll_fmc.c ****     This driver contains a set of APIs to interface with the FMC NORSRAM banks in order
 152:Drivers/STM32H7xx_HAL_Driver/Src/stm32h7xx_ll_fmc.c ****     to run the NORSRAM external devices.
 153:Drivers/STM32H7xx_HAL_Driver/Src/stm32h7xx_ll_fmc.c **** 
 154:Drivers/STM32H7xx_HAL_Driver/Src/stm32h7xx_ll_fmc.c ****     (+) FMC NORSRAM bank reset using the function FMC_NORSRAM_DeInit()
 155:Drivers/STM32H7xx_HAL_Driver/Src/stm32h7xx_ll_fmc.c ****     (+) FMC NORSRAM bank control configuration using the function FMC_NORSRAM_Init()
 156:Drivers/STM32H7xx_HAL_Driver/Src/stm32h7xx_ll_fmc.c ****     (+) FMC NORSRAM bank timing configuration using the function FMC_NORSRAM_Timing_Init()
 157:Drivers/STM32H7xx_HAL_Driver/Src/stm32h7xx_ll_fmc.c ****     (+) FMC NORSRAM bank extended timing configuration using the function
 158:Drivers/STM32H7xx_HAL_Driver/Src/stm32h7xx_ll_fmc.c ****         FMC_NORSRAM_Extended_Timing_Init()
 159:Drivers/STM32H7xx_HAL_Driver/Src/stm32h7xx_ll_fmc.c ****     (+) FMC NORSRAM bank enable/disable write operation using the functions
 160:Drivers/STM32H7xx_HAL_Driver/Src/stm32h7xx_ll_fmc.c ****         FMC_NORSRAM_WriteOperation_Enable()/FMC_NORSRAM_WriteOperation_Disable()
 161:Drivers/STM32H7xx_HAL_Driver/Src/stm32h7xx_ll_fmc.c **** 
 162:Drivers/STM32H7xx_HAL_Driver/Src/stm32h7xx_ll_fmc.c **** @endverbatim
 163:Drivers/STM32H7xx_HAL_Driver/Src/stm32h7xx_ll_fmc.c ****   * @{
 164:Drivers/STM32H7xx_HAL_Driver/Src/stm32h7xx_ll_fmc.c ****   */
 165:Drivers/STM32H7xx_HAL_Driver/Src/stm32h7xx_ll_fmc.c **** 
 166:Drivers/STM32H7xx_HAL_Driver/Src/stm32h7xx_ll_fmc.c **** /** @defgroup FMC_LL_NORSRAM_Exported_Functions_Group1 Initialization and de-initialization functio
 167:Drivers/STM32H7xx_HAL_Driver/Src/stm32h7xx_ll_fmc.c ****   * @brief    Initialization and Configuration functions
 168:Drivers/STM32H7xx_HAL_Driver/Src/stm32h7xx_ll_fmc.c ****   *
 169:Drivers/STM32H7xx_HAL_Driver/Src/stm32h7xx_ll_fmc.c ****   @verbatim
 170:Drivers/STM32H7xx_HAL_Driver/Src/stm32h7xx_ll_fmc.c ****   ==============================================================================
 171:Drivers/STM32H7xx_HAL_Driver/Src/stm32h7xx_ll_fmc.c ****               ##### Initialization and de_initialization functions #####
 172:Drivers/STM32H7xx_HAL_Driver/Src/stm32h7xx_ll_fmc.c ****   ==============================================================================
 173:Drivers/STM32H7xx_HAL_Driver/Src/stm32h7xx_ll_fmc.c ****   [..]
 174:Drivers/STM32H7xx_HAL_Driver/Src/stm32h7xx_ll_fmc.c ****     This section provides functions allowing to:
 175:Drivers/STM32H7xx_HAL_Driver/Src/stm32h7xx_ll_fmc.c ****     (+) Initialize and configure the FMC NORSRAM interface
 176:Drivers/STM32H7xx_HAL_Driver/Src/stm32h7xx_ll_fmc.c ****     (+) De-initialize the FMC NORSRAM interface
 177:Drivers/STM32H7xx_HAL_Driver/Src/stm32h7xx_ll_fmc.c ****     (+) Configure the FMC clock and associated GPIOs
 178:Drivers/STM32H7xx_HAL_Driver/Src/stm32h7xx_ll_fmc.c **** 
 179:Drivers/STM32H7xx_HAL_Driver/Src/stm32h7xx_ll_fmc.c **** @endverbatim
 180:Drivers/STM32H7xx_HAL_Driver/Src/stm32h7xx_ll_fmc.c ****   * @{
 181:Drivers/STM32H7xx_HAL_Driver/Src/stm32h7xx_ll_fmc.c ****   */
 182:Drivers/STM32H7xx_HAL_Driver/Src/stm32h7xx_ll_fmc.c **** 
 183:Drivers/STM32H7xx_HAL_Driver/Src/stm32h7xx_ll_fmc.c **** /**
 184:Drivers/STM32H7xx_HAL_Driver/Src/stm32h7xx_ll_fmc.c ****   * @brief  Initialize the FMC_NORSRAM device according to the specified
 185:Drivers/STM32H7xx_HAL_Driver/Src/stm32h7xx_ll_fmc.c ****   *         control parameters in the FMC_NORSRAM_InitTypeDef
 186:Drivers/STM32H7xx_HAL_Driver/Src/stm32h7xx_ll_fmc.c ****   * @param  Device Pointer to NORSRAM device instance
 187:Drivers/STM32H7xx_HAL_Driver/Src/stm32h7xx_ll_fmc.c ****   * @param  Init Pointer to NORSRAM Initialization structure
 188:Drivers/STM32H7xx_HAL_Driver/Src/stm32h7xx_ll_fmc.c ****   * @retval HAL status
 189:Drivers/STM32H7xx_HAL_Driver/Src/stm32h7xx_ll_fmc.c ****   */
 190:Drivers/STM32H7xx_HAL_Driver/Src/stm32h7xx_ll_fmc.c **** HAL_StatusTypeDef  FMC_NORSRAM_Init(FMC_NORSRAM_TypeDef *Device,
 191:Drivers/STM32H7xx_HAL_Driver/Src/stm32h7xx_ll_fmc.c ****                                     const FMC_NORSRAM_InitTypeDef *Init)
 192:Drivers/STM32H7xx_HAL_Driver/Src/stm32h7xx_ll_fmc.c **** {
  29              		.loc 1 192 1 view -0
  30              		.cfi_startproc
  31              		@ args = 0, pretend = 0, frame = 0
  32              		@ frame_needed = 0, uses_anonymous_args = 0
  33              		.loc 1 192 1 is_stmt 0 view .LVU1
  34 0000 00B5     		push	{lr}
  35              	.LCFI0:
  36              		.cfi_def_cfa_offset 4
  37              		.cfi_offset 14, -4
ARM GAS  C:\Users\hh\AppData\Local\Temp\ccbNirFa.s 			page 5


 193:Drivers/STM32H7xx_HAL_Driver/Src/stm32h7xx_ll_fmc.c ****   uint32_t flashaccess;
  38              		.loc 1 193 3 is_stmt 1 view .LVU2
 194:Drivers/STM32H7xx_HAL_Driver/Src/stm32h7xx_ll_fmc.c ****   uint32_t btcr_reg;
  39              		.loc 1 194 3 view .LVU3
 195:Drivers/STM32H7xx_HAL_Driver/Src/stm32h7xx_ll_fmc.c ****   uint32_t mask;
  40              		.loc 1 195 3 view .LVU4
 196:Drivers/STM32H7xx_HAL_Driver/Src/stm32h7xx_ll_fmc.c **** 
 197:Drivers/STM32H7xx_HAL_Driver/Src/stm32h7xx_ll_fmc.c ****   /* Check the parameters */
 198:Drivers/STM32H7xx_HAL_Driver/Src/stm32h7xx_ll_fmc.c ****   assert_param(IS_FMC_NORSRAM_DEVICE(Device));
  41              		.loc 1 198 3 view .LVU5
 199:Drivers/STM32H7xx_HAL_Driver/Src/stm32h7xx_ll_fmc.c ****   assert_param(IS_FMC_NORSRAM_BANK(Init->NSBank));
  42              		.loc 1 199 3 view .LVU6
 200:Drivers/STM32H7xx_HAL_Driver/Src/stm32h7xx_ll_fmc.c ****   assert_param(IS_FMC_MUX(Init->DataAddressMux));
  43              		.loc 1 200 3 view .LVU7
 201:Drivers/STM32H7xx_HAL_Driver/Src/stm32h7xx_ll_fmc.c ****   assert_param(IS_FMC_MEMORY(Init->MemoryType));
  44              		.loc 1 201 3 view .LVU8
 202:Drivers/STM32H7xx_HAL_Driver/Src/stm32h7xx_ll_fmc.c ****   assert_param(IS_FMC_NORSRAM_MEMORY_WIDTH(Init->MemoryDataWidth));
  45              		.loc 1 202 3 view .LVU9
 203:Drivers/STM32H7xx_HAL_Driver/Src/stm32h7xx_ll_fmc.c ****   assert_param(IS_FMC_BURSTMODE(Init->BurstAccessMode));
  46              		.loc 1 203 3 view .LVU10
 204:Drivers/STM32H7xx_HAL_Driver/Src/stm32h7xx_ll_fmc.c ****   assert_param(IS_FMC_WAIT_POLARITY(Init->WaitSignalPolarity));
  47              		.loc 1 204 3 view .LVU11
 205:Drivers/STM32H7xx_HAL_Driver/Src/stm32h7xx_ll_fmc.c ****   assert_param(IS_FMC_WAIT_SIGNAL_ACTIVE(Init->WaitSignalActive));
  48              		.loc 1 205 3 view .LVU12
 206:Drivers/STM32H7xx_HAL_Driver/Src/stm32h7xx_ll_fmc.c ****   assert_param(IS_FMC_WRITE_OPERATION(Init->WriteOperation));
  49              		.loc 1 206 3 view .LVU13
 207:Drivers/STM32H7xx_HAL_Driver/Src/stm32h7xx_ll_fmc.c ****   assert_param(IS_FMC_WAITE_SIGNAL(Init->WaitSignal));
  50              		.loc 1 207 3 view .LVU14
 208:Drivers/STM32H7xx_HAL_Driver/Src/stm32h7xx_ll_fmc.c ****   assert_param(IS_FMC_EXTENDED_MODE(Init->ExtendedMode));
  51              		.loc 1 208 3 view .LVU15
 209:Drivers/STM32H7xx_HAL_Driver/Src/stm32h7xx_ll_fmc.c ****   assert_param(IS_FMC_ASYNWAIT(Init->AsynchronousWait));
  52              		.loc 1 209 3 view .LVU16
 210:Drivers/STM32H7xx_HAL_Driver/Src/stm32h7xx_ll_fmc.c ****   assert_param(IS_FMC_WRITE_BURST(Init->WriteBurst));
  53              		.loc 1 210 3 view .LVU17
 211:Drivers/STM32H7xx_HAL_Driver/Src/stm32h7xx_ll_fmc.c ****   assert_param(IS_FMC_CONTINOUS_CLOCK(Init->ContinuousClock));
  54              		.loc 1 211 3 view .LVU18
 212:Drivers/STM32H7xx_HAL_Driver/Src/stm32h7xx_ll_fmc.c ****   assert_param(IS_FMC_WRITE_FIFO(Init->WriteFifo));
  55              		.loc 1 212 3 view .LVU19
 213:Drivers/STM32H7xx_HAL_Driver/Src/stm32h7xx_ll_fmc.c ****   assert_param(IS_FMC_PAGESIZE(Init->PageSize));
  56              		.loc 1 213 3 view .LVU20
 214:Drivers/STM32H7xx_HAL_Driver/Src/stm32h7xx_ll_fmc.c **** 
 215:Drivers/STM32H7xx_HAL_Driver/Src/stm32h7xx_ll_fmc.c ****   /* Disable NORSRAM Device */
 216:Drivers/STM32H7xx_HAL_Driver/Src/stm32h7xx_ll_fmc.c ****   __FMC_NORSRAM_DISABLE(Device, Init->NSBank);
  57              		.loc 1 216 3 view .LVU21
  58 0002 0A68     		ldr	r2, [r1]
  59 0004 50F82230 		ldr	r3, [r0, r2, lsl #2]
  60 0008 23F00103 		bic	r3, r3, #1
  61 000c 40F82230 		str	r3, [r0, r2, lsl #2]
 217:Drivers/STM32H7xx_HAL_Driver/Src/stm32h7xx_ll_fmc.c **** 
 218:Drivers/STM32H7xx_HAL_Driver/Src/stm32h7xx_ll_fmc.c ****   /* Set NORSRAM device control parameters */
 219:Drivers/STM32H7xx_HAL_Driver/Src/stm32h7xx_ll_fmc.c ****   if (Init->MemoryType == FMC_MEMORY_TYPE_NOR)
  62              		.loc 1 219 3 view .LVU22
  63              		.loc 1 219 11 is_stmt 0 view .LVU23
  64 0010 8B68     		ldr	r3, [r1, #8]
  65              		.loc 1 219 6 view .LVU24
  66 0012 082B     		cmp	r3, #8
  67 0014 33D0     		beq	.L7
ARM GAS  C:\Users\hh\AppData\Local\Temp\ccbNirFa.s 			page 6


 220:Drivers/STM32H7xx_HAL_Driver/Src/stm32h7xx_ll_fmc.c ****   {
 221:Drivers/STM32H7xx_HAL_Driver/Src/stm32h7xx_ll_fmc.c ****     flashaccess = FMC_NORSRAM_FLASH_ACCESS_ENABLE;
 222:Drivers/STM32H7xx_HAL_Driver/Src/stm32h7xx_ll_fmc.c ****   }
 223:Drivers/STM32H7xx_HAL_Driver/Src/stm32h7xx_ll_fmc.c ****   else
 224:Drivers/STM32H7xx_HAL_Driver/Src/stm32h7xx_ll_fmc.c ****   {
 225:Drivers/STM32H7xx_HAL_Driver/Src/stm32h7xx_ll_fmc.c ****     flashaccess = FMC_NORSRAM_FLASH_ACCESS_DISABLE;
  68              		.loc 1 225 17 view .LVU25
  69 0016 4FF0000C 		mov	ip, #0
  70              	.L2:
  71              	.LVL1:
 226:Drivers/STM32H7xx_HAL_Driver/Src/stm32h7xx_ll_fmc.c ****   }
 227:Drivers/STM32H7xx_HAL_Driver/Src/stm32h7xx_ll_fmc.c **** 
 228:Drivers/STM32H7xx_HAL_Driver/Src/stm32h7xx_ll_fmc.c ****   btcr_reg = (flashaccess                   | \
  72              		.loc 1 228 3 is_stmt 1 view .LVU26
 229:Drivers/STM32H7xx_HAL_Driver/Src/stm32h7xx_ll_fmc.c ****               Init->DataAddressMux          | \
  73              		.loc 1 229 19 is_stmt 0 view .LVU27
  74 001a 4A68     		ldr	r2, [r1, #4]
 228:Drivers/STM32H7xx_HAL_Driver/Src/stm32h7xx_ll_fmc.c ****               Init->DataAddressMux          | \
  75              		.loc 1 228 45 view .LVU28
  76 001c 42EA0C02 		orr	r2, r2, ip
  77              		.loc 1 229 45 view .LVU29
  78 0020 1343     		orrs	r3, r3, r2
 230:Drivers/STM32H7xx_HAL_Driver/Src/stm32h7xx_ll_fmc.c ****               Init->MemoryType              | \
 231:Drivers/STM32H7xx_HAL_Driver/Src/stm32h7xx_ll_fmc.c ****               Init->MemoryDataWidth         | \
  79              		.loc 1 231 19 view .LVU30
  80 0022 CA68     		ldr	r2, [r1, #12]
 230:Drivers/STM32H7xx_HAL_Driver/Src/stm32h7xx_ll_fmc.c ****               Init->MemoryType              | \
  81              		.loc 1 230 45 view .LVU31
  82 0024 1343     		orrs	r3, r3, r2
 232:Drivers/STM32H7xx_HAL_Driver/Src/stm32h7xx_ll_fmc.c ****               Init->BurstAccessMode         | \
  83              		.loc 1 232 19 view .LVU32
  84 0026 0A69     		ldr	r2, [r1, #16]
 231:Drivers/STM32H7xx_HAL_Driver/Src/stm32h7xx_ll_fmc.c ****               Init->BurstAccessMode         | \
  85              		.loc 1 231 45 view .LVU33
  86 0028 1343     		orrs	r3, r3, r2
 233:Drivers/STM32H7xx_HAL_Driver/Src/stm32h7xx_ll_fmc.c ****               Init->WaitSignalPolarity      | \
  87              		.loc 1 233 19 view .LVU34
  88 002a 4A69     		ldr	r2, [r1, #20]
 232:Drivers/STM32H7xx_HAL_Driver/Src/stm32h7xx_ll_fmc.c ****               Init->BurstAccessMode         | \
  89              		.loc 1 232 45 view .LVU35
  90 002c 1343     		orrs	r3, r3, r2
 234:Drivers/STM32H7xx_HAL_Driver/Src/stm32h7xx_ll_fmc.c ****               Init->WaitSignalActive        | \
  91              		.loc 1 234 19 view .LVU36
  92 002e 8A69     		ldr	r2, [r1, #24]
 233:Drivers/STM32H7xx_HAL_Driver/Src/stm32h7xx_ll_fmc.c ****               Init->WaitSignalPolarity      | \
  93              		.loc 1 233 45 view .LVU37
  94 0030 1343     		orrs	r3, r3, r2
 235:Drivers/STM32H7xx_HAL_Driver/Src/stm32h7xx_ll_fmc.c ****               Init->WriteOperation          | \
  95              		.loc 1 235 19 view .LVU38
  96 0032 CA69     		ldr	r2, [r1, #28]
 234:Drivers/STM32H7xx_HAL_Driver/Src/stm32h7xx_ll_fmc.c ****               Init->WaitSignalActive        | \
  97              		.loc 1 234 45 view .LVU39
  98 0034 1343     		orrs	r3, r3, r2
 236:Drivers/STM32H7xx_HAL_Driver/Src/stm32h7xx_ll_fmc.c ****               Init->WaitSignal              | \
  99              		.loc 1 236 19 view .LVU40
 100 0036 0A6A     		ldr	r2, [r1, #32]
 235:Drivers/STM32H7xx_HAL_Driver/Src/stm32h7xx_ll_fmc.c ****               Init->WriteOperation          | \
ARM GAS  C:\Users\hh\AppData\Local\Temp\ccbNirFa.s 			page 7


 101              		.loc 1 235 45 view .LVU41
 102 0038 1343     		orrs	r3, r3, r2
 237:Drivers/STM32H7xx_HAL_Driver/Src/stm32h7xx_ll_fmc.c ****               Init->ExtendedMode            | \
 103              		.loc 1 237 19 view .LVU42
 104 003a 4A6A     		ldr	r2, [r1, #36]
 236:Drivers/STM32H7xx_HAL_Driver/Src/stm32h7xx_ll_fmc.c ****               Init->WaitSignal              | \
 105              		.loc 1 236 45 view .LVU43
 106 003c 1343     		orrs	r3, r3, r2
 238:Drivers/STM32H7xx_HAL_Driver/Src/stm32h7xx_ll_fmc.c ****               Init->AsynchronousWait        | \
 107              		.loc 1 238 19 view .LVU44
 108 003e 8A6A     		ldr	r2, [r1, #40]
 237:Drivers/STM32H7xx_HAL_Driver/Src/stm32h7xx_ll_fmc.c ****               Init->ExtendedMode            | \
 109              		.loc 1 237 45 view .LVU45
 110 0040 1343     		orrs	r3, r3, r2
 239:Drivers/STM32H7xx_HAL_Driver/Src/stm32h7xx_ll_fmc.c ****               Init->WriteBurst);
 111              		.loc 1 239 19 view .LVU46
 112 0042 CA6A     		ldr	r2, [r1, #44]
 228:Drivers/STM32H7xx_HAL_Driver/Src/stm32h7xx_ll_fmc.c ****               Init->DataAddressMux          | \
 113              		.loc 1 228 12 view .LVU47
 114 0044 1343     		orrs	r3, r3, r2
 115              	.LVL2:
 240:Drivers/STM32H7xx_HAL_Driver/Src/stm32h7xx_ll_fmc.c **** 
 241:Drivers/STM32H7xx_HAL_Driver/Src/stm32h7xx_ll_fmc.c ****   btcr_reg |= Init->ContinuousClock;
 116              		.loc 1 241 3 is_stmt 1 view .LVU48
 117              		.loc 1 241 19 is_stmt 0 view .LVU49
 118 0046 0A6B     		ldr	r2, [r1, #48]
 119              		.loc 1 241 12 view .LVU50
 120 0048 1A43     		orrs	r2, r2, r3
 121              	.LVL3:
 242:Drivers/STM32H7xx_HAL_Driver/Src/stm32h7xx_ll_fmc.c ****   btcr_reg |= Init->WriteFifo;
 122              		.loc 1 242 3 is_stmt 1 view .LVU51
 123              		.loc 1 242 19 is_stmt 0 view .LVU52
 124 004a 4B6B     		ldr	r3, [r1, #52]
 125              		.loc 1 242 12 view .LVU53
 126 004c 1A43     		orrs	r2, r2, r3
 127              	.LVL4:
 243:Drivers/STM32H7xx_HAL_Driver/Src/stm32h7xx_ll_fmc.c ****   btcr_reg |= Init->PageSize;
 128              		.loc 1 243 3 is_stmt 1 view .LVU54
 129              		.loc 1 243 19 is_stmt 0 view .LVU55
 130 004e 8B6B     		ldr	r3, [r1, #56]
 131              		.loc 1 243 12 view .LVU56
 132 0050 1A43     		orrs	r2, r2, r3
 133              	.LVL5:
 244:Drivers/STM32H7xx_HAL_Driver/Src/stm32h7xx_ll_fmc.c **** 
 245:Drivers/STM32H7xx_HAL_Driver/Src/stm32h7xx_ll_fmc.c ****   mask = (FMC_BCRx_MBKEN                |
 134              		.loc 1 245 3 is_stmt 1 view .LVU57
 246:Drivers/STM32H7xx_HAL_Driver/Src/stm32h7xx_ll_fmc.c ****           FMC_BCRx_MUXEN                |
 247:Drivers/STM32H7xx_HAL_Driver/Src/stm32h7xx_ll_fmc.c ****           FMC_BCRx_MTYP                 |
 248:Drivers/STM32H7xx_HAL_Driver/Src/stm32h7xx_ll_fmc.c ****           FMC_BCRx_MWID                 |
 249:Drivers/STM32H7xx_HAL_Driver/Src/stm32h7xx_ll_fmc.c ****           FMC_BCRx_FACCEN               |
 250:Drivers/STM32H7xx_HAL_Driver/Src/stm32h7xx_ll_fmc.c ****           FMC_BCRx_BURSTEN              |
 251:Drivers/STM32H7xx_HAL_Driver/Src/stm32h7xx_ll_fmc.c ****           FMC_BCRx_WAITPOL              |
 252:Drivers/STM32H7xx_HAL_Driver/Src/stm32h7xx_ll_fmc.c ****           FMC_BCRx_WAITCFG              |
 253:Drivers/STM32H7xx_HAL_Driver/Src/stm32h7xx_ll_fmc.c ****           FMC_BCRx_WREN                 |
 254:Drivers/STM32H7xx_HAL_Driver/Src/stm32h7xx_ll_fmc.c ****           FMC_BCRx_WAITEN               |
 255:Drivers/STM32H7xx_HAL_Driver/Src/stm32h7xx_ll_fmc.c ****           FMC_BCRx_EXTMOD               |
 256:Drivers/STM32H7xx_HAL_Driver/Src/stm32h7xx_ll_fmc.c ****           FMC_BCRx_ASYNCWAIT            |
ARM GAS  C:\Users\hh\AppData\Local\Temp\ccbNirFa.s 			page 8


 257:Drivers/STM32H7xx_HAL_Driver/Src/stm32h7xx_ll_fmc.c ****           FMC_BCRx_CBURSTRW);
 258:Drivers/STM32H7xx_HAL_Driver/Src/stm32h7xx_ll_fmc.c **** 
 259:Drivers/STM32H7xx_HAL_Driver/Src/stm32h7xx_ll_fmc.c ****   mask |= FMC_BCR1_CCLKEN;
 135              		.loc 1 259 3 view .LVU58
 260:Drivers/STM32H7xx_HAL_Driver/Src/stm32h7xx_ll_fmc.c ****   mask |= FMC_BCR1_WFDIS;
 136              		.loc 1 260 3 view .LVU59
 261:Drivers/STM32H7xx_HAL_Driver/Src/stm32h7xx_ll_fmc.c ****   mask |= FMC_BCRx_CPSIZE;
 137              		.loc 1 261 3 view .LVU60
 262:Drivers/STM32H7xx_HAL_Driver/Src/stm32h7xx_ll_fmc.c **** 
 263:Drivers/STM32H7xx_HAL_Driver/Src/stm32h7xx_ll_fmc.c ****   MODIFY_REG(Device->BTCR[Init->NSBank], mask, btcr_reg);
 138              		.loc 1 263 3 view .LVU61
 139 0052 D1F800C0 		ldr	ip, [r1]
 140              	.LVL6:
 141              		.loc 1 263 3 is_stmt 0 view .LVU62
 142 0056 50F82CE0 		ldr	lr, [r0, ip, lsl #2]
 143 005a 0F4B     		ldr	r3, .L9
 144 005c 0EEA0303 		and	r3, lr, r3
 145 0060 1343     		orrs	r3, r3, r2
 146 0062 40F82C30 		str	r3, [r0, ip, lsl #2]
 264:Drivers/STM32H7xx_HAL_Driver/Src/stm32h7xx_ll_fmc.c **** 
 265:Drivers/STM32H7xx_HAL_Driver/Src/stm32h7xx_ll_fmc.c ****   /* Configure synchronous mode when Continuous clock is enabled for bank2..4 */
 266:Drivers/STM32H7xx_HAL_Driver/Src/stm32h7xx_ll_fmc.c ****   if ((Init->ContinuousClock == FMC_CONTINUOUS_CLOCK_SYNC_ASYNC) && (Init->NSBank != FMC_NORSRAM_BA
 147              		.loc 1 266 3 is_stmt 1 view .LVU63
 148              		.loc 1 266 12 is_stmt 0 view .LVU64
 149 0066 0B6B     		ldr	r3, [r1, #48]
 150              		.loc 1 266 6 view .LVU65
 151 0068 B3F5801F 		cmp	r3, #1048576
 152 006c 0AD0     		beq	.L8
 153              	.LVL7:
 154              	.L3:
 267:Drivers/STM32H7xx_HAL_Driver/Src/stm32h7xx_ll_fmc.c ****   {
 268:Drivers/STM32H7xx_HAL_Driver/Src/stm32h7xx_ll_fmc.c ****     MODIFY_REG(Device->BTCR[FMC_NORSRAM_BANK1], FMC_BCR1_CCLKEN, Init->ContinuousClock);
 269:Drivers/STM32H7xx_HAL_Driver/Src/stm32h7xx_ll_fmc.c ****   }
 270:Drivers/STM32H7xx_HAL_Driver/Src/stm32h7xx_ll_fmc.c **** 
 271:Drivers/STM32H7xx_HAL_Driver/Src/stm32h7xx_ll_fmc.c ****   if (Init->NSBank != FMC_NORSRAM_BANK1)
 155              		.loc 1 271 3 is_stmt 1 view .LVU66
 156              		.loc 1 271 11 is_stmt 0 view .LVU67
 157 006e 0B68     		ldr	r3, [r1]
 158              		.loc 1 271 6 view .LVU68
 159 0070 1BB1     		cbz	r3, .L4
 272:Drivers/STM32H7xx_HAL_Driver/Src/stm32h7xx_ll_fmc.c ****   {
 273:Drivers/STM32H7xx_HAL_Driver/Src/stm32h7xx_ll_fmc.c ****     /* Configure Write FIFO mode when Write Fifo is enabled for bank2..4 */
 274:Drivers/STM32H7xx_HAL_Driver/Src/stm32h7xx_ll_fmc.c ****     SET_BIT(Device->BTCR[FMC_NORSRAM_BANK1], (uint32_t)(Init->WriteFifo));
 160              		.loc 1 274 5 is_stmt 1 view .LVU69
 161 0072 0368     		ldr	r3, [r0]
 162 0074 4A6B     		ldr	r2, [r1, #52]
 163 0076 1343     		orrs	r3, r3, r2
 164 0078 0360     		str	r3, [r0]
 165              	.L4:
 275:Drivers/STM32H7xx_HAL_Driver/Src/stm32h7xx_ll_fmc.c ****   }
 276:Drivers/STM32H7xx_HAL_Driver/Src/stm32h7xx_ll_fmc.c **** 
 277:Drivers/STM32H7xx_HAL_Driver/Src/stm32h7xx_ll_fmc.c ****   return HAL_OK;
 166              		.loc 1 277 3 view .LVU70
 278:Drivers/STM32H7xx_HAL_Driver/Src/stm32h7xx_ll_fmc.c **** }
 167              		.loc 1 278 1 is_stmt 0 view .LVU71
 168 007a 0020     		movs	r0, #0
 169              	.LVL8:
ARM GAS  C:\Users\hh\AppData\Local\Temp\ccbNirFa.s 			page 9


 170              		.loc 1 278 1 view .LVU72
 171 007c 00BD     		pop	{pc}
 172              	.LVL9:
 173              	.L7:
 221:Drivers/STM32H7xx_HAL_Driver/Src/stm32h7xx_ll_fmc.c ****   }
 174              		.loc 1 221 17 view .LVU73
 175 007e 4FF0400C 		mov	ip, #64
 176 0082 CAE7     		b	.L2
 177              	.LVL10:
 178              	.L8:
 266:Drivers/STM32H7xx_HAL_Driver/Src/stm32h7xx_ll_fmc.c ****   {
 179              		.loc 1 266 74 discriminator 1 view .LVU74
 180 0084 0A68     		ldr	r2, [r1]
 181              	.LVL11:
 266:Drivers/STM32H7xx_HAL_Driver/Src/stm32h7xx_ll_fmc.c ****   {
 182              		.loc 1 266 66 discriminator 1 view .LVU75
 183 0086 002A     		cmp	r2, #0
 184 0088 F1D0     		beq	.L3
 268:Drivers/STM32H7xx_HAL_Driver/Src/stm32h7xx_ll_fmc.c ****   }
 185              		.loc 1 268 5 is_stmt 1 view .LVU76
 186 008a 0268     		ldr	r2, [r0]
 187 008c 22F48012 		bic	r2, r2, #1048576
 188 0090 1343     		orrs	r3, r3, r2
 189 0092 0360     		str	r3, [r0]
 190 0094 EBE7     		b	.L3
 191              	.L10:
 192 0096 00BF     		.align	2
 193              	.L9:
 194 0098 8004C0FF 		.word	-4193152
 195              		.cfi_endproc
 196              	.LFE146:
 198              		.section	.text.FMC_NORSRAM_DeInit,"ax",%progbits
 199              		.align	1
 200              		.global	FMC_NORSRAM_DeInit
 201              		.syntax unified
 202              		.thumb
 203              		.thumb_func
 205              	FMC_NORSRAM_DeInit:
 206              	.LVL12:
 207              	.LFB147:
 279:Drivers/STM32H7xx_HAL_Driver/Src/stm32h7xx_ll_fmc.c **** 
 280:Drivers/STM32H7xx_HAL_Driver/Src/stm32h7xx_ll_fmc.c **** /**
 281:Drivers/STM32H7xx_HAL_Driver/Src/stm32h7xx_ll_fmc.c ****   * @brief  DeInitialize the FMC_NORSRAM peripheral
 282:Drivers/STM32H7xx_HAL_Driver/Src/stm32h7xx_ll_fmc.c ****   * @param  Device Pointer to NORSRAM device instance
 283:Drivers/STM32H7xx_HAL_Driver/Src/stm32h7xx_ll_fmc.c ****   * @param  ExDevice Pointer to NORSRAM extended mode device instance
 284:Drivers/STM32H7xx_HAL_Driver/Src/stm32h7xx_ll_fmc.c ****   * @param  Bank NORSRAM bank number
 285:Drivers/STM32H7xx_HAL_Driver/Src/stm32h7xx_ll_fmc.c ****   * @retval HAL status
 286:Drivers/STM32H7xx_HAL_Driver/Src/stm32h7xx_ll_fmc.c ****   */
 287:Drivers/STM32H7xx_HAL_Driver/Src/stm32h7xx_ll_fmc.c **** HAL_StatusTypeDef FMC_NORSRAM_DeInit(FMC_NORSRAM_TypeDef *Device,
 288:Drivers/STM32H7xx_HAL_Driver/Src/stm32h7xx_ll_fmc.c ****                                      FMC_NORSRAM_EXTENDED_TypeDef *ExDevice, uint32_t Bank)
 289:Drivers/STM32H7xx_HAL_Driver/Src/stm32h7xx_ll_fmc.c **** {
 208              		.loc 1 289 1 view -0
 209              		.cfi_startproc
 210              		@ args = 0, pretend = 0, frame = 0
 211              		@ frame_needed = 0, uses_anonymous_args = 0
 212              		@ link register save eliminated.
 290:Drivers/STM32H7xx_HAL_Driver/Src/stm32h7xx_ll_fmc.c ****   /* Check the parameters */
ARM GAS  C:\Users\hh\AppData\Local\Temp\ccbNirFa.s 			page 10


 291:Drivers/STM32H7xx_HAL_Driver/Src/stm32h7xx_ll_fmc.c ****   assert_param(IS_FMC_NORSRAM_DEVICE(Device));
 213              		.loc 1 291 3 view .LVU78
 292:Drivers/STM32H7xx_HAL_Driver/Src/stm32h7xx_ll_fmc.c ****   assert_param(IS_FMC_NORSRAM_EXTENDED_DEVICE(ExDevice));
 214              		.loc 1 292 3 view .LVU79
 293:Drivers/STM32H7xx_HAL_Driver/Src/stm32h7xx_ll_fmc.c ****   assert_param(IS_FMC_NORSRAM_BANK(Bank));
 215              		.loc 1 293 3 view .LVU80
 294:Drivers/STM32H7xx_HAL_Driver/Src/stm32h7xx_ll_fmc.c **** 
 295:Drivers/STM32H7xx_HAL_Driver/Src/stm32h7xx_ll_fmc.c ****   /* Disable the FMC_NORSRAM device */
 296:Drivers/STM32H7xx_HAL_Driver/Src/stm32h7xx_ll_fmc.c ****   __FMC_NORSRAM_DISABLE(Device, Bank);
 216              		.loc 1 296 3 view .LVU81
 217 0000 50F82230 		ldr	r3, [r0, r2, lsl #2]
 218 0004 23F00103 		bic	r3, r3, #1
 219 0008 40F82230 		str	r3, [r0, r2, lsl #2]
 297:Drivers/STM32H7xx_HAL_Driver/Src/stm32h7xx_ll_fmc.c **** 
 298:Drivers/STM32H7xx_HAL_Driver/Src/stm32h7xx_ll_fmc.c ****   /* De-initialize the FMC_NORSRAM device */
 299:Drivers/STM32H7xx_HAL_Driver/Src/stm32h7xx_ll_fmc.c ****   /* FMC_NORSRAM_BANK1 */
 300:Drivers/STM32H7xx_HAL_Driver/Src/stm32h7xx_ll_fmc.c ****   if (Bank == FMC_NORSRAM_BANK1)
 220              		.loc 1 300 3 view .LVU82
 221              		.loc 1 300 6 is_stmt 0 view .LVU83
 222 000c 6AB9     		cbnz	r2, .L12
 301:Drivers/STM32H7xx_HAL_Driver/Src/stm32h7xx_ll_fmc.c ****   {
 302:Drivers/STM32H7xx_HAL_Driver/Src/stm32h7xx_ll_fmc.c ****     Device->BTCR[Bank] = 0x000030DBU;
 223              		.loc 1 302 5 is_stmt 1 view .LVU84
 224              		.loc 1 302 24 is_stmt 0 view .LVU85
 225 000e 43F2DB03 		movw	r3, #12507
 226 0012 40F82230 		str	r3, [r0, r2, lsl #2]
 227              	.L13:
 303:Drivers/STM32H7xx_HAL_Driver/Src/stm32h7xx_ll_fmc.c ****   }
 304:Drivers/STM32H7xx_HAL_Driver/Src/stm32h7xx_ll_fmc.c ****   /* FMC_NORSRAM_BANK2, FMC_NORSRAM_BANK3 or FMC_NORSRAM_BANK4 */
 305:Drivers/STM32H7xx_HAL_Driver/Src/stm32h7xx_ll_fmc.c ****   else
 306:Drivers/STM32H7xx_HAL_Driver/Src/stm32h7xx_ll_fmc.c ****   {
 307:Drivers/STM32H7xx_HAL_Driver/Src/stm32h7xx_ll_fmc.c ****     Device->BTCR[Bank] = 0x000030D2U;
 308:Drivers/STM32H7xx_HAL_Driver/Src/stm32h7xx_ll_fmc.c ****   }
 309:Drivers/STM32H7xx_HAL_Driver/Src/stm32h7xx_ll_fmc.c **** 
 310:Drivers/STM32H7xx_HAL_Driver/Src/stm32h7xx_ll_fmc.c ****   Device->BTCR[Bank + 1U] = 0x0FFFFFFFU;
 228              		.loc 1 310 3 is_stmt 1 view .LVU86
 229              		.loc 1 310 21 is_stmt 0 view .LVU87
 230 0016 02F1010C 		add	ip, r2, #1
 231              		.loc 1 310 27 view .LVU88
 232 001a 6FF07043 		mvn	r3, #-268435456
 233 001e 40F82C30 		str	r3, [r0, ip, lsl #2]
 311:Drivers/STM32H7xx_HAL_Driver/Src/stm32h7xx_ll_fmc.c ****   ExDevice->BWTR[Bank]   = 0x0FFFFFFFU;
 234              		.loc 1 311 3 is_stmt 1 view .LVU89
 235              		.loc 1 311 26 is_stmt 0 view .LVU90
 236 0022 41F82230 		str	r3, [r1, r2, lsl #2]
 312:Drivers/STM32H7xx_HAL_Driver/Src/stm32h7xx_ll_fmc.c **** 
 313:Drivers/STM32H7xx_HAL_Driver/Src/stm32h7xx_ll_fmc.c ****   return HAL_OK;
 237              		.loc 1 313 3 is_stmt 1 view .LVU91
 314:Drivers/STM32H7xx_HAL_Driver/Src/stm32h7xx_ll_fmc.c **** }
 238              		.loc 1 314 1 is_stmt 0 view .LVU92
 239 0026 0020     		movs	r0, #0
 240              	.LVL13:
 241              		.loc 1 314 1 view .LVU93
 242 0028 7047     		bx	lr
 243              	.LVL14:
 244              	.L12:
 307:Drivers/STM32H7xx_HAL_Driver/Src/stm32h7xx_ll_fmc.c ****   }
ARM GAS  C:\Users\hh\AppData\Local\Temp\ccbNirFa.s 			page 11


 245              		.loc 1 307 5 is_stmt 1 view .LVU94
 307:Drivers/STM32H7xx_HAL_Driver/Src/stm32h7xx_ll_fmc.c ****   }
 246              		.loc 1 307 24 is_stmt 0 view .LVU95
 247 002a 43F2D203 		movw	r3, #12498
 248 002e 40F82230 		str	r3, [r0, r2, lsl #2]
 249 0032 F0E7     		b	.L13
 250              		.cfi_endproc
 251              	.LFE147:
 253              		.section	.text.FMC_NORSRAM_Timing_Init,"ax",%progbits
 254              		.align	1
 255              		.global	FMC_NORSRAM_Timing_Init
 256              		.syntax unified
 257              		.thumb
 258              		.thumb_func
 260              	FMC_NORSRAM_Timing_Init:
 261              	.LVL15:
 262              	.LFB148:
 315:Drivers/STM32H7xx_HAL_Driver/Src/stm32h7xx_ll_fmc.c **** 
 316:Drivers/STM32H7xx_HAL_Driver/Src/stm32h7xx_ll_fmc.c **** /**
 317:Drivers/STM32H7xx_HAL_Driver/Src/stm32h7xx_ll_fmc.c ****   * @brief  Initialize the FMC_NORSRAM Timing according to the specified
 318:Drivers/STM32H7xx_HAL_Driver/Src/stm32h7xx_ll_fmc.c ****   *         parameters in the FMC_NORSRAM_TimingTypeDef
 319:Drivers/STM32H7xx_HAL_Driver/Src/stm32h7xx_ll_fmc.c ****   * @param  Device Pointer to NORSRAM device instance
 320:Drivers/STM32H7xx_HAL_Driver/Src/stm32h7xx_ll_fmc.c ****   * @param  Timing Pointer to NORSRAM Timing structure
 321:Drivers/STM32H7xx_HAL_Driver/Src/stm32h7xx_ll_fmc.c ****   * @param  Bank NORSRAM bank number
 322:Drivers/STM32H7xx_HAL_Driver/Src/stm32h7xx_ll_fmc.c ****   * @retval HAL status
 323:Drivers/STM32H7xx_HAL_Driver/Src/stm32h7xx_ll_fmc.c ****   */
 324:Drivers/STM32H7xx_HAL_Driver/Src/stm32h7xx_ll_fmc.c **** HAL_StatusTypeDef FMC_NORSRAM_Timing_Init(FMC_NORSRAM_TypeDef *Device,
 325:Drivers/STM32H7xx_HAL_Driver/Src/stm32h7xx_ll_fmc.c ****                                           const FMC_NORSRAM_TimingTypeDef *Timing, uint32_t Bank)
 326:Drivers/STM32H7xx_HAL_Driver/Src/stm32h7xx_ll_fmc.c **** {
 263              		.loc 1 326 1 is_stmt 1 view -0
 264              		.cfi_startproc
 265              		@ args = 0, pretend = 0, frame = 0
 266              		@ frame_needed = 0, uses_anonymous_args = 0
 267              		@ link register save eliminated.
 268              		.loc 1 326 1 is_stmt 0 view .LVU97
 269 0000 10B4     		push	{r4}
 270              	.LCFI1:
 271              		.cfi_def_cfa_offset 4
 272              		.cfi_offset 4, -4
 327:Drivers/STM32H7xx_HAL_Driver/Src/stm32h7xx_ll_fmc.c ****   uint32_t tmpr;
 273              		.loc 1 327 3 is_stmt 1 view .LVU98
 328:Drivers/STM32H7xx_HAL_Driver/Src/stm32h7xx_ll_fmc.c **** 
 329:Drivers/STM32H7xx_HAL_Driver/Src/stm32h7xx_ll_fmc.c ****   /* Check the parameters */
 330:Drivers/STM32H7xx_HAL_Driver/Src/stm32h7xx_ll_fmc.c ****   assert_param(IS_FMC_NORSRAM_DEVICE(Device));
 274              		.loc 1 330 3 view .LVU99
 331:Drivers/STM32H7xx_HAL_Driver/Src/stm32h7xx_ll_fmc.c ****   assert_param(IS_FMC_ADDRESS_SETUP_TIME(Timing->AddressSetupTime));
 275              		.loc 1 331 3 view .LVU100
 332:Drivers/STM32H7xx_HAL_Driver/Src/stm32h7xx_ll_fmc.c ****   assert_param(IS_FMC_ADDRESS_HOLD_TIME(Timing->AddressHoldTime));
 276              		.loc 1 332 3 view .LVU101
 333:Drivers/STM32H7xx_HAL_Driver/Src/stm32h7xx_ll_fmc.c ****   assert_param(IS_FMC_DATASETUP_TIME(Timing->DataSetupTime));
 277              		.loc 1 333 3 view .LVU102
 334:Drivers/STM32H7xx_HAL_Driver/Src/stm32h7xx_ll_fmc.c ****   assert_param(IS_FMC_TURNAROUND_TIME(Timing->BusTurnAroundDuration));
 278              		.loc 1 334 3 view .LVU103
 335:Drivers/STM32H7xx_HAL_Driver/Src/stm32h7xx_ll_fmc.c ****   assert_param(IS_FMC_CLK_DIV(Timing->CLKDivision));
 279              		.loc 1 335 3 view .LVU104
 336:Drivers/STM32H7xx_HAL_Driver/Src/stm32h7xx_ll_fmc.c ****   assert_param(IS_FMC_DATA_LATENCY(Timing->DataLatency));
 280              		.loc 1 336 3 view .LVU105
ARM GAS  C:\Users\hh\AppData\Local\Temp\ccbNirFa.s 			page 12


 337:Drivers/STM32H7xx_HAL_Driver/Src/stm32h7xx_ll_fmc.c ****   assert_param(IS_FMC_ACCESS_MODE(Timing->AccessMode));
 281              		.loc 1 337 3 view .LVU106
 338:Drivers/STM32H7xx_HAL_Driver/Src/stm32h7xx_ll_fmc.c ****   assert_param(IS_FMC_NORSRAM_BANK(Bank));
 282              		.loc 1 338 3 view .LVU107
 339:Drivers/STM32H7xx_HAL_Driver/Src/stm32h7xx_ll_fmc.c **** 
 340:Drivers/STM32H7xx_HAL_Driver/Src/stm32h7xx_ll_fmc.c ****   /* Set FMC_NORSRAM device timing parameters */
 341:Drivers/STM32H7xx_HAL_Driver/Src/stm32h7xx_ll_fmc.c ****   Device->BTCR[Bank + 1U] =
 283              		.loc 1 341 3 view .LVU108
 342:Drivers/STM32H7xx_HAL_Driver/Src/stm32h7xx_ll_fmc.c ****     (Timing->AddressSetupTime << FMC_BTRx_ADDSET_Pos) |
 284              		.loc 1 342 12 is_stmt 0 view .LVU109
 285 0002 0B68     		ldr	r3, [r1]
 286              		.loc 1 342 55 view .LVU110
 287 0004 4C68     		ldr	r4, [r1, #4]
 288 0006 43EA0413 		orr	r3, r3, r4, lsl #4
 343:Drivers/STM32H7xx_HAL_Driver/Src/stm32h7xx_ll_fmc.c ****     (Timing->AddressHoldTime << FMC_BTRx_ADDHLD_Pos) |
 289              		.loc 1 343 54 view .LVU111
 290 000a 8C68     		ldr	r4, [r1, #8]
 291 000c 43EA0423 		orr	r3, r3, r4, lsl #8
 344:Drivers/STM32H7xx_HAL_Driver/Src/stm32h7xx_ll_fmc.c ****     (Timing->DataSetupTime << FMC_BTRx_DATAST_Pos) |
 292              		.loc 1 344 52 view .LVU112
 293 0010 CC68     		ldr	r4, [r1, #12]
 294 0012 43EA0443 		orr	r3, r3, r4, lsl #16
 345:Drivers/STM32H7xx_HAL_Driver/Src/stm32h7xx_ll_fmc.c ****     (Timing->BusTurnAroundDuration << FMC_BTRx_BUSTURN_Pos) |
 346:Drivers/STM32H7xx_HAL_Driver/Src/stm32h7xx_ll_fmc.c ****     ((Timing->CLKDivision - 1U) << FMC_BTRx_CLKDIV_Pos) |
 295              		.loc 1 346 27 view .LVU113
 296 0016 0C69     		ldr	r4, [r1, #16]
 297 0018 04F1FF3C 		add	ip, r4, #-1
 345:Drivers/STM32H7xx_HAL_Driver/Src/stm32h7xx_ll_fmc.c ****     (Timing->BusTurnAroundDuration << FMC_BTRx_BUSTURN_Pos) |
 298              		.loc 1 345 61 view .LVU114
 299 001c 43EA0C53 		orr	r3, r3, ip, lsl #20
 347:Drivers/STM32H7xx_HAL_Driver/Src/stm32h7xx_ll_fmc.c ****     ((Timing->DataLatency - 2U) << FMC_BTRx_DATLAT_Pos) |
 300              		.loc 1 347 27 view .LVU115
 301 0020 4C69     		ldr	r4, [r1, #20]
 302 0022 A4F1020C 		sub	ip, r4, #2
 346:Drivers/STM32H7xx_HAL_Driver/Src/stm32h7xx_ll_fmc.c ****     ((Timing->DataLatency - 2U) << FMC_BTRx_DATLAT_Pos) |
 303              		.loc 1 346 57 view .LVU116
 304 0026 43EA0C63 		orr	r3, r3, ip, lsl #24
 341:Drivers/STM32H7xx_HAL_Driver/Src/stm32h7xx_ll_fmc.c ****     (Timing->AddressSetupTime << FMC_BTRx_ADDSET_Pos) |
 305              		.loc 1 341 21 view .LVU117
 306 002a 0132     		adds	r2, r2, #1
 307              	.LVL16:
 308              		.loc 1 347 57 view .LVU118
 309 002c 8C69     		ldr	r4, [r1, #24]
 310 002e 2343     		orrs	r3, r3, r4
 341:Drivers/STM32H7xx_HAL_Driver/Src/stm32h7xx_ll_fmc.c ****     (Timing->AddressSetupTime << FMC_BTRx_ADDSET_Pos) |
 311              		.loc 1 341 27 view .LVU119
 312 0030 40F82230 		str	r3, [r0, r2, lsl #2]
 348:Drivers/STM32H7xx_HAL_Driver/Src/stm32h7xx_ll_fmc.c ****     Timing->AccessMode;
 349:Drivers/STM32H7xx_HAL_Driver/Src/stm32h7xx_ll_fmc.c **** 
 350:Drivers/STM32H7xx_HAL_Driver/Src/stm32h7xx_ll_fmc.c ****   /* Configure Clock division value (in NORSRAM bank 1) when continuous clock is enabled */
 351:Drivers/STM32H7xx_HAL_Driver/Src/stm32h7xx_ll_fmc.c ****   if (HAL_IS_BIT_SET(Device->BTCR[FMC_NORSRAM_BANK1], FMC_BCR1_CCLKEN))
 313              		.loc 1 351 3 is_stmt 1 view .LVU120
 314              		.loc 1 351 7 is_stmt 0 view .LVU121
 315 0034 0368     		ldr	r3, [r0]
 316              		.loc 1 351 6 view .LVU122
 317 0036 13F4801F 		tst	r3, #1048576
 318 003a 0BD0     		beq	.L15
ARM GAS  C:\Users\hh\AppData\Local\Temp\ccbNirFa.s 			page 13


 352:Drivers/STM32H7xx_HAL_Driver/Src/stm32h7xx_ll_fmc.c ****   {
 353:Drivers/STM32H7xx_HAL_Driver/Src/stm32h7xx_ll_fmc.c ****     tmpr = (uint32_t)(Device->BTCR[FMC_NORSRAM_BANK1 + 1U] & ~((0x0FUL) << FMC_BTRx_CLKDIV_Pos));
 319              		.loc 1 353 5 is_stmt 1 view .LVU123
 320              		.loc 1 353 35 is_stmt 0 view .LVU124
 321 003c 4268     		ldr	r2, [r0, #4]
 322              	.LVL17:
 323              		.loc 1 353 10 view .LVU125
 324 003e 22F47002 		bic	r2, r2, #15728640
 325              	.LVL18:
 354:Drivers/STM32H7xx_HAL_Driver/Src/stm32h7xx_ll_fmc.c ****     tmpr |= (uint32_t)(((Timing->CLKDivision) - 1U) << FMC_BTRx_CLKDIV_Pos);
 326              		.loc 1 354 5 is_stmt 1 view .LVU126
 327              		.loc 1 354 32 is_stmt 0 view .LVU127
 328 0042 0B69     		ldr	r3, [r1, #16]
 329              		.loc 1 354 47 view .LVU128
 330 0044 013B     		subs	r3, r3, #1
 331              		.loc 1 354 10 view .LVU129
 332 0046 42EA0352 		orr	r2, r2, r3, lsl #20
 333              	.LVL19:
 355:Drivers/STM32H7xx_HAL_Driver/Src/stm32h7xx_ll_fmc.c ****     MODIFY_REG(Device->BTCR[FMC_NORSRAM_BANK1 + 1U], FMC_BTRx_CLKDIV, tmpr);
 334              		.loc 1 355 5 is_stmt 1 view .LVU130
 335 004a 4368     		ldr	r3, [r0, #4]
 336 004c 23F47003 		bic	r3, r3, #15728640
 337 0050 1343     		orrs	r3, r3, r2
 338 0052 4360     		str	r3, [r0, #4]
 339              	.LVL20:
 340              	.L15:
 356:Drivers/STM32H7xx_HAL_Driver/Src/stm32h7xx_ll_fmc.c ****   }
 357:Drivers/STM32H7xx_HAL_Driver/Src/stm32h7xx_ll_fmc.c **** 
 358:Drivers/STM32H7xx_HAL_Driver/Src/stm32h7xx_ll_fmc.c ****   return HAL_OK;
 341              		.loc 1 358 3 view .LVU131
 359:Drivers/STM32H7xx_HAL_Driver/Src/stm32h7xx_ll_fmc.c **** }
 342              		.loc 1 359 1 is_stmt 0 view .LVU132
 343 0054 0020     		movs	r0, #0
 344              	.LVL21:
 345              		.loc 1 359 1 view .LVU133
 346 0056 10BC     		pop	{r4}
 347              	.LCFI2:
 348              		.cfi_restore 4
 349              		.cfi_def_cfa_offset 0
 350 0058 7047     		bx	lr
 351              		.cfi_endproc
 352              	.LFE148:
 354              		.section	.text.FMC_NORSRAM_Extended_Timing_Init,"ax",%progbits
 355              		.align	1
 356              		.global	FMC_NORSRAM_Extended_Timing_Init
 357              		.syntax unified
 358              		.thumb
 359              		.thumb_func
 361              	FMC_NORSRAM_Extended_Timing_Init:
 362              	.LVL22:
 363              	.LFB149:
 360:Drivers/STM32H7xx_HAL_Driver/Src/stm32h7xx_ll_fmc.c **** 
 361:Drivers/STM32H7xx_HAL_Driver/Src/stm32h7xx_ll_fmc.c **** /**
 362:Drivers/STM32H7xx_HAL_Driver/Src/stm32h7xx_ll_fmc.c ****   * @brief  Initialize the FMC_NORSRAM Extended mode Timing according to the specified
 363:Drivers/STM32H7xx_HAL_Driver/Src/stm32h7xx_ll_fmc.c ****   *         parameters in the FMC_NORSRAM_TimingTypeDef
 364:Drivers/STM32H7xx_HAL_Driver/Src/stm32h7xx_ll_fmc.c ****   * @param  Device Pointer to NORSRAM device instance
 365:Drivers/STM32H7xx_HAL_Driver/Src/stm32h7xx_ll_fmc.c ****   * @param  Timing Pointer to NORSRAM Timing structure
ARM GAS  C:\Users\hh\AppData\Local\Temp\ccbNirFa.s 			page 14


 366:Drivers/STM32H7xx_HAL_Driver/Src/stm32h7xx_ll_fmc.c ****   * @param  Bank NORSRAM bank number
 367:Drivers/STM32H7xx_HAL_Driver/Src/stm32h7xx_ll_fmc.c ****   * @param  ExtendedMode FMC Extended Mode
 368:Drivers/STM32H7xx_HAL_Driver/Src/stm32h7xx_ll_fmc.c ****   *          This parameter can be one of the following values:
 369:Drivers/STM32H7xx_HAL_Driver/Src/stm32h7xx_ll_fmc.c ****   *            @arg FMC_EXTENDED_MODE_DISABLE
 370:Drivers/STM32H7xx_HAL_Driver/Src/stm32h7xx_ll_fmc.c ****   *            @arg FMC_EXTENDED_MODE_ENABLE
 371:Drivers/STM32H7xx_HAL_Driver/Src/stm32h7xx_ll_fmc.c ****   * @retval HAL status
 372:Drivers/STM32H7xx_HAL_Driver/Src/stm32h7xx_ll_fmc.c ****   */
 373:Drivers/STM32H7xx_HAL_Driver/Src/stm32h7xx_ll_fmc.c **** HAL_StatusTypeDef FMC_NORSRAM_Extended_Timing_Init(FMC_NORSRAM_EXTENDED_TypeDef *Device,
 374:Drivers/STM32H7xx_HAL_Driver/Src/stm32h7xx_ll_fmc.c ****                                                    const FMC_NORSRAM_TimingTypeDef *Timing, uint32_
 375:Drivers/STM32H7xx_HAL_Driver/Src/stm32h7xx_ll_fmc.c ****                                                    uint32_t ExtendedMode)
 376:Drivers/STM32H7xx_HAL_Driver/Src/stm32h7xx_ll_fmc.c **** {
 364              		.loc 1 376 1 is_stmt 1 view -0
 365              		.cfi_startproc
 366              		@ args = 0, pretend = 0, frame = 0
 367              		@ frame_needed = 0, uses_anonymous_args = 0
 368              		@ link register save eliminated.
 369              		.loc 1 376 1 is_stmt 0 view .LVU135
 370 0000 9446     		mov	ip, r2
 377:Drivers/STM32H7xx_HAL_Driver/Src/stm32h7xx_ll_fmc.c ****   /* Check the parameters */
 378:Drivers/STM32H7xx_HAL_Driver/Src/stm32h7xx_ll_fmc.c ****   assert_param(IS_FMC_EXTENDED_MODE(ExtendedMode));
 371              		.loc 1 378 3 is_stmt 1 view .LVU136
 379:Drivers/STM32H7xx_HAL_Driver/Src/stm32h7xx_ll_fmc.c **** 
 380:Drivers/STM32H7xx_HAL_Driver/Src/stm32h7xx_ll_fmc.c ****   /* Set NORSRAM device timing register for write configuration, if extended mode is used */
 381:Drivers/STM32H7xx_HAL_Driver/Src/stm32h7xx_ll_fmc.c ****   if (ExtendedMode == FMC_EXTENDED_MODE_ENABLE)
 372              		.loc 1 381 3 view .LVU137
 373              		.loc 1 381 6 is_stmt 0 view .LVU138
 374 0002 B3F5804F 		cmp	r3, #16384
 375 0006 05D0     		beq	.L24
 382:Drivers/STM32H7xx_HAL_Driver/Src/stm32h7xx_ll_fmc.c ****   {
 383:Drivers/STM32H7xx_HAL_Driver/Src/stm32h7xx_ll_fmc.c ****     /* Check the parameters */
 384:Drivers/STM32H7xx_HAL_Driver/Src/stm32h7xx_ll_fmc.c ****     assert_param(IS_FMC_NORSRAM_EXTENDED_DEVICE(Device));
 385:Drivers/STM32H7xx_HAL_Driver/Src/stm32h7xx_ll_fmc.c ****     assert_param(IS_FMC_ADDRESS_SETUP_TIME(Timing->AddressSetupTime));
 386:Drivers/STM32H7xx_HAL_Driver/Src/stm32h7xx_ll_fmc.c ****     assert_param(IS_FMC_ADDRESS_HOLD_TIME(Timing->AddressHoldTime));
 387:Drivers/STM32H7xx_HAL_Driver/Src/stm32h7xx_ll_fmc.c ****     assert_param(IS_FMC_DATASETUP_TIME(Timing->DataSetupTime));
 388:Drivers/STM32H7xx_HAL_Driver/Src/stm32h7xx_ll_fmc.c ****     assert_param(IS_FMC_TURNAROUND_TIME(Timing->BusTurnAroundDuration));
 389:Drivers/STM32H7xx_HAL_Driver/Src/stm32h7xx_ll_fmc.c ****     assert_param(IS_FMC_ACCESS_MODE(Timing->AccessMode));
 390:Drivers/STM32H7xx_HAL_Driver/Src/stm32h7xx_ll_fmc.c ****     assert_param(IS_FMC_NORSRAM_BANK(Bank));
 391:Drivers/STM32H7xx_HAL_Driver/Src/stm32h7xx_ll_fmc.c **** 
 392:Drivers/STM32H7xx_HAL_Driver/Src/stm32h7xx_ll_fmc.c ****     /* Set NORSRAM device timing register for write configuration, if extended mode is used */
 393:Drivers/STM32H7xx_HAL_Driver/Src/stm32h7xx_ll_fmc.c ****     MODIFY_REG(Device->BWTR[Bank], BWTR_CLEAR_MASK, (Timing->AddressSetupTime                      
 394:Drivers/STM32H7xx_HAL_Driver/Src/stm32h7xx_ll_fmc.c ****                                                      ((Timing->AddressHoldTime)        << FMC_BWTRx
 395:Drivers/STM32H7xx_HAL_Driver/Src/stm32h7xx_ll_fmc.c ****                                                      ((Timing->DataSetupTime)          << FMC_BWTRx
 396:Drivers/STM32H7xx_HAL_Driver/Src/stm32h7xx_ll_fmc.c ****                                                      Timing->AccessMode                            
 397:Drivers/STM32H7xx_HAL_Driver/Src/stm32h7xx_ll_fmc.c ****                                                      ((Timing->BusTurnAroundDuration)  << FMC_BWTRx
 398:Drivers/STM32H7xx_HAL_Driver/Src/stm32h7xx_ll_fmc.c ****   }
 399:Drivers/STM32H7xx_HAL_Driver/Src/stm32h7xx_ll_fmc.c ****   else
 400:Drivers/STM32H7xx_HAL_Driver/Src/stm32h7xx_ll_fmc.c ****   {
 401:Drivers/STM32H7xx_HAL_Driver/Src/stm32h7xx_ll_fmc.c ****     Device->BWTR[Bank] = 0x0FFFFFFFU;
 376              		.loc 1 401 5 is_stmt 1 view .LVU139
 377              		.loc 1 401 24 is_stmt 0 view .LVU140
 378 0008 6FF07043 		mvn	r3, #-268435456
 379              	.LVL23:
 380              		.loc 1 401 24 view .LVU141
 381 000c 40F82230 		str	r3, [r0, r2, lsl #2]
 402:Drivers/STM32H7xx_HAL_Driver/Src/stm32h7xx_ll_fmc.c ****   }
 403:Drivers/STM32H7xx_HAL_Driver/Src/stm32h7xx_ll_fmc.c **** 
 404:Drivers/STM32H7xx_HAL_Driver/Src/stm32h7xx_ll_fmc.c ****   return HAL_OK;
ARM GAS  C:\Users\hh\AppData\Local\Temp\ccbNirFa.s 			page 15


 382              		.loc 1 404 3 is_stmt 1 view .LVU142
 405:Drivers/STM32H7xx_HAL_Driver/Src/stm32h7xx_ll_fmc.c **** }
 383              		.loc 1 405 1 is_stmt 0 view .LVU143
 384 0010 0020     		movs	r0, #0
 385              	.LVL24:
 386              		.loc 1 405 1 view .LVU144
 387 0012 7047     		bx	lr
 388              	.LVL25:
 389              	.L24:
 376:Drivers/STM32H7xx_HAL_Driver/Src/stm32h7xx_ll_fmc.c ****   /* Check the parameters */
 390              		.loc 1 376 1 view .LVU145
 391 0014 10B4     		push	{r4}
 392              	.LCFI3:
 393              		.cfi_def_cfa_offset 4
 394              		.cfi_offset 4, -4
 384:Drivers/STM32H7xx_HAL_Driver/Src/stm32h7xx_ll_fmc.c ****     assert_param(IS_FMC_ADDRESS_SETUP_TIME(Timing->AddressSetupTime));
 395              		.loc 1 384 5 is_stmt 1 view .LVU146
 385:Drivers/STM32H7xx_HAL_Driver/Src/stm32h7xx_ll_fmc.c ****     assert_param(IS_FMC_ADDRESS_HOLD_TIME(Timing->AddressHoldTime));
 396              		.loc 1 385 5 view .LVU147
 386:Drivers/STM32H7xx_HAL_Driver/Src/stm32h7xx_ll_fmc.c ****     assert_param(IS_FMC_DATASETUP_TIME(Timing->DataSetupTime));
 397              		.loc 1 386 5 view .LVU148
 387:Drivers/STM32H7xx_HAL_Driver/Src/stm32h7xx_ll_fmc.c ****     assert_param(IS_FMC_TURNAROUND_TIME(Timing->BusTurnAroundDuration));
 398              		.loc 1 387 5 view .LVU149
 388:Drivers/STM32H7xx_HAL_Driver/Src/stm32h7xx_ll_fmc.c ****     assert_param(IS_FMC_ACCESS_MODE(Timing->AccessMode));
 399              		.loc 1 388 5 view .LVU150
 389:Drivers/STM32H7xx_HAL_Driver/Src/stm32h7xx_ll_fmc.c ****     assert_param(IS_FMC_NORSRAM_BANK(Bank));
 400              		.loc 1 389 5 view .LVU151
 390:Drivers/STM32H7xx_HAL_Driver/Src/stm32h7xx_ll_fmc.c **** 
 401              		.loc 1 390 5 view .LVU152
 393:Drivers/STM32H7xx_HAL_Driver/Src/stm32h7xx_ll_fmc.c ****                                                      ((Timing->AddressHoldTime)        << FMC_BWTRx
 402              		.loc 1 393 5 view .LVU153
 403 0016 50F82230 		ldr	r3, [r0, r2, lsl #2]
 404              	.LVL26:
 393:Drivers/STM32H7xx_HAL_Driver/Src/stm32h7xx_ll_fmc.c ****                                                      ((Timing->AddressHoldTime)        << FMC_BWTRx
 405              		.loc 1 393 5 is_stmt 0 view .LVU154
 406 001a 0A4A     		ldr	r2, .L25
 407              	.LVL27:
 393:Drivers/STM32H7xx_HAL_Driver/Src/stm32h7xx_ll_fmc.c ****                                                      ((Timing->AddressHoldTime)        << FMC_BWTRx
 408              		.loc 1 393 5 view .LVU155
 409 001c 1A40     		ands	r2, r2, r3
 410 001e 0B68     		ldr	r3, [r1]
 411 0020 4C68     		ldr	r4, [r1, #4]
 412 0022 43EA0413 		orr	r3, r3, r4, lsl #4
 413 0026 8C68     		ldr	r4, [r1, #8]
 414 0028 43EA0423 		orr	r3, r3, r4, lsl #8
 415 002c 8C69     		ldr	r4, [r1, #24]
 416 002e 2343     		orrs	r3, r3, r4
 417 0030 C968     		ldr	r1, [r1, #12]
 418              	.LVL28:
 393:Drivers/STM32H7xx_HAL_Driver/Src/stm32h7xx_ll_fmc.c ****                                                      ((Timing->AddressHoldTime)        << FMC_BWTRx
 419              		.loc 1 393 5 view .LVU156
 420 0032 43EA0143 		orr	r3, r3, r1, lsl #16
 421 0036 1343     		orrs	r3, r3, r2
 422 0038 40F82C30 		str	r3, [r0, ip, lsl #2]
 404:Drivers/STM32H7xx_HAL_Driver/Src/stm32h7xx_ll_fmc.c **** }
 423              		.loc 1 404 3 is_stmt 1 view .LVU157
 424              		.loc 1 405 1 is_stmt 0 view .LVU158
ARM GAS  C:\Users\hh\AppData\Local\Temp\ccbNirFa.s 			page 16


 425 003c 0020     		movs	r0, #0
 426              	.LVL29:
 427              		.loc 1 405 1 view .LVU159
 428 003e 10BC     		pop	{r4}
 429              	.LCFI4:
 430              		.cfi_restore 4
 431              		.cfi_def_cfa_offset 0
 432 0040 7047     		bx	lr
 433              	.L26:
 434 0042 00BF     		.align	2
 435              	.L25:
 436 0044 0000F0CF 		.word	-806354944
 437              		.cfi_endproc
 438              	.LFE149:
 440              		.section	.text.FMC_NORSRAM_WriteOperation_Enable,"ax",%progbits
 441              		.align	1
 442              		.global	FMC_NORSRAM_WriteOperation_Enable
 443              		.syntax unified
 444              		.thumb
 445              		.thumb_func
 447              	FMC_NORSRAM_WriteOperation_Enable:
 448              	.LVL30:
 449              	.LFB150:
 406:Drivers/STM32H7xx_HAL_Driver/Src/stm32h7xx_ll_fmc.c **** /**
 407:Drivers/STM32H7xx_HAL_Driver/Src/stm32h7xx_ll_fmc.c ****   * @}
 408:Drivers/STM32H7xx_HAL_Driver/Src/stm32h7xx_ll_fmc.c ****   */
 409:Drivers/STM32H7xx_HAL_Driver/Src/stm32h7xx_ll_fmc.c **** 
 410:Drivers/STM32H7xx_HAL_Driver/Src/stm32h7xx_ll_fmc.c **** /** @addtogroup FMC_LL_NORSRAM_Private_Functions_Group2
 411:Drivers/STM32H7xx_HAL_Driver/Src/stm32h7xx_ll_fmc.c ****   *  @brief   management functions
 412:Drivers/STM32H7xx_HAL_Driver/Src/stm32h7xx_ll_fmc.c ****   *
 413:Drivers/STM32H7xx_HAL_Driver/Src/stm32h7xx_ll_fmc.c **** @verbatim
 414:Drivers/STM32H7xx_HAL_Driver/Src/stm32h7xx_ll_fmc.c ****   ==============================================================================
 415:Drivers/STM32H7xx_HAL_Driver/Src/stm32h7xx_ll_fmc.c ****                       ##### FMC_NORSRAM Control functions #####
 416:Drivers/STM32H7xx_HAL_Driver/Src/stm32h7xx_ll_fmc.c ****   ==============================================================================
 417:Drivers/STM32H7xx_HAL_Driver/Src/stm32h7xx_ll_fmc.c ****   [..]
 418:Drivers/STM32H7xx_HAL_Driver/Src/stm32h7xx_ll_fmc.c ****     This subsection provides a set of functions allowing to control dynamically
 419:Drivers/STM32H7xx_HAL_Driver/Src/stm32h7xx_ll_fmc.c ****     the FMC NORSRAM interface.
 420:Drivers/STM32H7xx_HAL_Driver/Src/stm32h7xx_ll_fmc.c **** 
 421:Drivers/STM32H7xx_HAL_Driver/Src/stm32h7xx_ll_fmc.c **** @endverbatim
 422:Drivers/STM32H7xx_HAL_Driver/Src/stm32h7xx_ll_fmc.c ****   * @{
 423:Drivers/STM32H7xx_HAL_Driver/Src/stm32h7xx_ll_fmc.c ****   */
 424:Drivers/STM32H7xx_HAL_Driver/Src/stm32h7xx_ll_fmc.c **** 
 425:Drivers/STM32H7xx_HAL_Driver/Src/stm32h7xx_ll_fmc.c **** /**
 426:Drivers/STM32H7xx_HAL_Driver/Src/stm32h7xx_ll_fmc.c ****   * @brief  Enables dynamically FMC_NORSRAM write operation.
 427:Drivers/STM32H7xx_HAL_Driver/Src/stm32h7xx_ll_fmc.c ****   * @param  Device Pointer to NORSRAM device instance
 428:Drivers/STM32H7xx_HAL_Driver/Src/stm32h7xx_ll_fmc.c ****   * @param  Bank NORSRAM bank number
 429:Drivers/STM32H7xx_HAL_Driver/Src/stm32h7xx_ll_fmc.c ****   * @retval HAL status
 430:Drivers/STM32H7xx_HAL_Driver/Src/stm32h7xx_ll_fmc.c ****   */
 431:Drivers/STM32H7xx_HAL_Driver/Src/stm32h7xx_ll_fmc.c **** HAL_StatusTypeDef FMC_NORSRAM_WriteOperation_Enable(FMC_NORSRAM_TypeDef *Device, uint32_t Bank)
 432:Drivers/STM32H7xx_HAL_Driver/Src/stm32h7xx_ll_fmc.c **** {
 450              		.loc 1 432 1 is_stmt 1 view -0
 451              		.cfi_startproc
 452              		@ args = 0, pretend = 0, frame = 0
 453              		@ frame_needed = 0, uses_anonymous_args = 0
 454              		@ link register save eliminated.
 433:Drivers/STM32H7xx_HAL_Driver/Src/stm32h7xx_ll_fmc.c ****   /* Check the parameters */
 434:Drivers/STM32H7xx_HAL_Driver/Src/stm32h7xx_ll_fmc.c ****   assert_param(IS_FMC_NORSRAM_DEVICE(Device));
ARM GAS  C:\Users\hh\AppData\Local\Temp\ccbNirFa.s 			page 17


 455              		.loc 1 434 3 view .LVU161
 435:Drivers/STM32H7xx_HAL_Driver/Src/stm32h7xx_ll_fmc.c ****   assert_param(IS_FMC_NORSRAM_BANK(Bank));
 456              		.loc 1 435 3 view .LVU162
 436:Drivers/STM32H7xx_HAL_Driver/Src/stm32h7xx_ll_fmc.c **** 
 437:Drivers/STM32H7xx_HAL_Driver/Src/stm32h7xx_ll_fmc.c ****   /* Enable write operation */
 438:Drivers/STM32H7xx_HAL_Driver/Src/stm32h7xx_ll_fmc.c ****   SET_BIT(Device->BTCR[Bank], FMC_WRITE_OPERATION_ENABLE);
 457              		.loc 1 438 3 view .LVU163
 458 0000 50F82130 		ldr	r3, [r0, r1, lsl #2]
 459 0004 43F48053 		orr	r3, r3, #4096
 460 0008 40F82130 		str	r3, [r0, r1, lsl #2]
 439:Drivers/STM32H7xx_HAL_Driver/Src/stm32h7xx_ll_fmc.c **** 
 440:Drivers/STM32H7xx_HAL_Driver/Src/stm32h7xx_ll_fmc.c ****   return HAL_OK;
 461              		.loc 1 440 3 view .LVU164
 441:Drivers/STM32H7xx_HAL_Driver/Src/stm32h7xx_ll_fmc.c **** }
 462              		.loc 1 441 1 is_stmt 0 view .LVU165
 463 000c 0020     		movs	r0, #0
 464              	.LVL31:
 465              		.loc 1 441 1 view .LVU166
 466 000e 7047     		bx	lr
 467              		.cfi_endproc
 468              	.LFE150:
 470              		.section	.text.FMC_NORSRAM_WriteOperation_Disable,"ax",%progbits
 471              		.align	1
 472              		.global	FMC_NORSRAM_WriteOperation_Disable
 473              		.syntax unified
 474              		.thumb
 475              		.thumb_func
 477              	FMC_NORSRAM_WriteOperation_Disable:
 478              	.LVL32:
 479              	.LFB151:
 442:Drivers/STM32H7xx_HAL_Driver/Src/stm32h7xx_ll_fmc.c **** 
 443:Drivers/STM32H7xx_HAL_Driver/Src/stm32h7xx_ll_fmc.c **** /**
 444:Drivers/STM32H7xx_HAL_Driver/Src/stm32h7xx_ll_fmc.c ****   * @brief  Disables dynamically FMC_NORSRAM write operation.
 445:Drivers/STM32H7xx_HAL_Driver/Src/stm32h7xx_ll_fmc.c ****   * @param  Device Pointer to NORSRAM device instance
 446:Drivers/STM32H7xx_HAL_Driver/Src/stm32h7xx_ll_fmc.c ****   * @param  Bank NORSRAM bank number
 447:Drivers/STM32H7xx_HAL_Driver/Src/stm32h7xx_ll_fmc.c ****   * @retval HAL status
 448:Drivers/STM32H7xx_HAL_Driver/Src/stm32h7xx_ll_fmc.c ****   */
 449:Drivers/STM32H7xx_HAL_Driver/Src/stm32h7xx_ll_fmc.c **** HAL_StatusTypeDef FMC_NORSRAM_WriteOperation_Disable(FMC_NORSRAM_TypeDef *Device, uint32_t Bank)
 450:Drivers/STM32H7xx_HAL_Driver/Src/stm32h7xx_ll_fmc.c **** {
 480              		.loc 1 450 1 is_stmt 1 view -0
 481              		.cfi_startproc
 482              		@ args = 0, pretend = 0, frame = 0
 483              		@ frame_needed = 0, uses_anonymous_args = 0
 484              		@ link register save eliminated.
 451:Drivers/STM32H7xx_HAL_Driver/Src/stm32h7xx_ll_fmc.c ****   /* Check the parameters */
 452:Drivers/STM32H7xx_HAL_Driver/Src/stm32h7xx_ll_fmc.c ****   assert_param(IS_FMC_NORSRAM_DEVICE(Device));
 485              		.loc 1 452 3 view .LVU168
 453:Drivers/STM32H7xx_HAL_Driver/Src/stm32h7xx_ll_fmc.c ****   assert_param(IS_FMC_NORSRAM_BANK(Bank));
 486              		.loc 1 453 3 view .LVU169
 454:Drivers/STM32H7xx_HAL_Driver/Src/stm32h7xx_ll_fmc.c **** 
 455:Drivers/STM32H7xx_HAL_Driver/Src/stm32h7xx_ll_fmc.c ****   /* Disable write operation */
 456:Drivers/STM32H7xx_HAL_Driver/Src/stm32h7xx_ll_fmc.c ****   CLEAR_BIT(Device->BTCR[Bank], FMC_WRITE_OPERATION_ENABLE);
 487              		.loc 1 456 3 view .LVU170
 488 0000 50F82130 		ldr	r3, [r0, r1, lsl #2]
 489 0004 23F48053 		bic	r3, r3, #4096
 490 0008 40F82130 		str	r3, [r0, r1, lsl #2]
 457:Drivers/STM32H7xx_HAL_Driver/Src/stm32h7xx_ll_fmc.c **** 
ARM GAS  C:\Users\hh\AppData\Local\Temp\ccbNirFa.s 			page 18


 458:Drivers/STM32H7xx_HAL_Driver/Src/stm32h7xx_ll_fmc.c ****   return HAL_OK;
 491              		.loc 1 458 3 view .LVU171
 459:Drivers/STM32H7xx_HAL_Driver/Src/stm32h7xx_ll_fmc.c **** }
 492              		.loc 1 459 1 is_stmt 0 view .LVU172
 493 000c 0020     		movs	r0, #0
 494              	.LVL33:
 495              		.loc 1 459 1 view .LVU173
 496 000e 7047     		bx	lr
 497              		.cfi_endproc
 498              	.LFE151:
 500              		.section	.text.FMC_NAND_Init,"ax",%progbits
 501              		.align	1
 502              		.global	FMC_NAND_Init
 503              		.syntax unified
 504              		.thumb
 505              		.thumb_func
 507              	FMC_NAND_Init:
 508              	.LVL34:
 509              	.LFB152:
 460:Drivers/STM32H7xx_HAL_Driver/Src/stm32h7xx_ll_fmc.c **** 
 461:Drivers/STM32H7xx_HAL_Driver/Src/stm32h7xx_ll_fmc.c **** /**
 462:Drivers/STM32H7xx_HAL_Driver/Src/stm32h7xx_ll_fmc.c ****   * @}
 463:Drivers/STM32H7xx_HAL_Driver/Src/stm32h7xx_ll_fmc.c ****   */
 464:Drivers/STM32H7xx_HAL_Driver/Src/stm32h7xx_ll_fmc.c **** 
 465:Drivers/STM32H7xx_HAL_Driver/Src/stm32h7xx_ll_fmc.c **** /**
 466:Drivers/STM32H7xx_HAL_Driver/Src/stm32h7xx_ll_fmc.c ****   * @}
 467:Drivers/STM32H7xx_HAL_Driver/Src/stm32h7xx_ll_fmc.c ****   */
 468:Drivers/STM32H7xx_HAL_Driver/Src/stm32h7xx_ll_fmc.c **** 
 469:Drivers/STM32H7xx_HAL_Driver/Src/stm32h7xx_ll_fmc.c **** /** @defgroup FMC_LL_Exported_Functions_NAND FMC Low Layer NAND Exported Functions
 470:Drivers/STM32H7xx_HAL_Driver/Src/stm32h7xx_ll_fmc.c ****   * @brief    NAND Controller functions
 471:Drivers/STM32H7xx_HAL_Driver/Src/stm32h7xx_ll_fmc.c ****   *
 472:Drivers/STM32H7xx_HAL_Driver/Src/stm32h7xx_ll_fmc.c ****   @verbatim
 473:Drivers/STM32H7xx_HAL_Driver/Src/stm32h7xx_ll_fmc.c ****   ==============================================================================
 474:Drivers/STM32H7xx_HAL_Driver/Src/stm32h7xx_ll_fmc.c ****                     ##### How to use NAND device driver #####
 475:Drivers/STM32H7xx_HAL_Driver/Src/stm32h7xx_ll_fmc.c ****   ==============================================================================
 476:Drivers/STM32H7xx_HAL_Driver/Src/stm32h7xx_ll_fmc.c ****   [..]
 477:Drivers/STM32H7xx_HAL_Driver/Src/stm32h7xx_ll_fmc.c ****     This driver contains a set of APIs to interface with the FMC NAND banks in order
 478:Drivers/STM32H7xx_HAL_Driver/Src/stm32h7xx_ll_fmc.c ****     to run the NAND external devices.
 479:Drivers/STM32H7xx_HAL_Driver/Src/stm32h7xx_ll_fmc.c **** 
 480:Drivers/STM32H7xx_HAL_Driver/Src/stm32h7xx_ll_fmc.c ****     (+) FMC NAND bank reset using the function FMC_NAND_DeInit()
 481:Drivers/STM32H7xx_HAL_Driver/Src/stm32h7xx_ll_fmc.c ****     (+) FMC NAND bank control configuration using the function FMC_NAND_Init()
 482:Drivers/STM32H7xx_HAL_Driver/Src/stm32h7xx_ll_fmc.c ****     (+) FMC NAND bank common space timing configuration using the function
 483:Drivers/STM32H7xx_HAL_Driver/Src/stm32h7xx_ll_fmc.c ****         FMC_NAND_CommonSpace_Timing_Init()
 484:Drivers/STM32H7xx_HAL_Driver/Src/stm32h7xx_ll_fmc.c ****     (+) FMC NAND bank attribute space timing configuration using the function
 485:Drivers/STM32H7xx_HAL_Driver/Src/stm32h7xx_ll_fmc.c ****         FMC_NAND_AttributeSpace_Timing_Init()
 486:Drivers/STM32H7xx_HAL_Driver/Src/stm32h7xx_ll_fmc.c ****     (+) FMC NAND bank enable/disable ECC correction feature using the functions
 487:Drivers/STM32H7xx_HAL_Driver/Src/stm32h7xx_ll_fmc.c ****         FMC_NAND_ECC_Enable()/FMC_NAND_ECC_Disable()
 488:Drivers/STM32H7xx_HAL_Driver/Src/stm32h7xx_ll_fmc.c ****     (+) FMC NAND bank get ECC correction code using the function FMC_NAND_GetECC()
 489:Drivers/STM32H7xx_HAL_Driver/Src/stm32h7xx_ll_fmc.c **** 
 490:Drivers/STM32H7xx_HAL_Driver/Src/stm32h7xx_ll_fmc.c **** @endverbatim
 491:Drivers/STM32H7xx_HAL_Driver/Src/stm32h7xx_ll_fmc.c ****   * @{
 492:Drivers/STM32H7xx_HAL_Driver/Src/stm32h7xx_ll_fmc.c ****   */
 493:Drivers/STM32H7xx_HAL_Driver/Src/stm32h7xx_ll_fmc.c **** 
 494:Drivers/STM32H7xx_HAL_Driver/Src/stm32h7xx_ll_fmc.c **** /** @defgroup FMC_LL_NAND_Exported_Functions_Group1 Initialization and de-initialization functions
 495:Drivers/STM32H7xx_HAL_Driver/Src/stm32h7xx_ll_fmc.c ****   *  @brief    Initialization and Configuration functions
 496:Drivers/STM32H7xx_HAL_Driver/Src/stm32h7xx_ll_fmc.c ****   *
 497:Drivers/STM32H7xx_HAL_Driver/Src/stm32h7xx_ll_fmc.c **** @verbatim
ARM GAS  C:\Users\hh\AppData\Local\Temp\ccbNirFa.s 			page 19


 498:Drivers/STM32H7xx_HAL_Driver/Src/stm32h7xx_ll_fmc.c ****   ==============================================================================
 499:Drivers/STM32H7xx_HAL_Driver/Src/stm32h7xx_ll_fmc.c ****               ##### Initialization and de_initialization functions #####
 500:Drivers/STM32H7xx_HAL_Driver/Src/stm32h7xx_ll_fmc.c ****   ==============================================================================
 501:Drivers/STM32H7xx_HAL_Driver/Src/stm32h7xx_ll_fmc.c ****   [..]
 502:Drivers/STM32H7xx_HAL_Driver/Src/stm32h7xx_ll_fmc.c ****     This section provides functions allowing to:
 503:Drivers/STM32H7xx_HAL_Driver/Src/stm32h7xx_ll_fmc.c ****     (+) Initialize and configure the FMC NAND interface
 504:Drivers/STM32H7xx_HAL_Driver/Src/stm32h7xx_ll_fmc.c ****     (+) De-initialize the FMC NAND interface
 505:Drivers/STM32H7xx_HAL_Driver/Src/stm32h7xx_ll_fmc.c ****     (+) Configure the FMC clock and associated GPIOs
 506:Drivers/STM32H7xx_HAL_Driver/Src/stm32h7xx_ll_fmc.c **** 
 507:Drivers/STM32H7xx_HAL_Driver/Src/stm32h7xx_ll_fmc.c **** @endverbatim
 508:Drivers/STM32H7xx_HAL_Driver/Src/stm32h7xx_ll_fmc.c ****   * @{
 509:Drivers/STM32H7xx_HAL_Driver/Src/stm32h7xx_ll_fmc.c ****   */
 510:Drivers/STM32H7xx_HAL_Driver/Src/stm32h7xx_ll_fmc.c **** 
 511:Drivers/STM32H7xx_HAL_Driver/Src/stm32h7xx_ll_fmc.c **** /**
 512:Drivers/STM32H7xx_HAL_Driver/Src/stm32h7xx_ll_fmc.c ****   * @brief  Initializes the FMC_NAND device according to the specified
 513:Drivers/STM32H7xx_HAL_Driver/Src/stm32h7xx_ll_fmc.c ****   *         control parameters in the FMC_NAND_HandleTypeDef
 514:Drivers/STM32H7xx_HAL_Driver/Src/stm32h7xx_ll_fmc.c ****   * @param  Device Pointer to NAND device instance
 515:Drivers/STM32H7xx_HAL_Driver/Src/stm32h7xx_ll_fmc.c ****   * @param  Init Pointer to NAND Initialization structure
 516:Drivers/STM32H7xx_HAL_Driver/Src/stm32h7xx_ll_fmc.c ****   * @retval HAL status
 517:Drivers/STM32H7xx_HAL_Driver/Src/stm32h7xx_ll_fmc.c ****   */
 518:Drivers/STM32H7xx_HAL_Driver/Src/stm32h7xx_ll_fmc.c **** HAL_StatusTypeDef FMC_NAND_Init(FMC_NAND_TypeDef *Device, const FMC_NAND_InitTypeDef *Init)
 519:Drivers/STM32H7xx_HAL_Driver/Src/stm32h7xx_ll_fmc.c **** {
 510              		.loc 1 519 1 is_stmt 1 view -0
 511              		.cfi_startproc
 512              		@ args = 0, pretend = 0, frame = 0
 513              		@ frame_needed = 0, uses_anonymous_args = 0
 514              		@ link register save eliminated.
 515              		.loc 1 519 1 is_stmt 0 view .LVU175
 516 0000 10B4     		push	{r4}
 517              	.LCFI5:
 518              		.cfi_def_cfa_offset 4
 519              		.cfi_offset 4, -4
 520:Drivers/STM32H7xx_HAL_Driver/Src/stm32h7xx_ll_fmc.c ****   /* Check the parameters */
 521:Drivers/STM32H7xx_HAL_Driver/Src/stm32h7xx_ll_fmc.c ****   assert_param(IS_FMC_NAND_DEVICE(Device));
 520              		.loc 1 521 3 is_stmt 1 view .LVU176
 522:Drivers/STM32H7xx_HAL_Driver/Src/stm32h7xx_ll_fmc.c ****   assert_param(IS_FMC_NAND_BANK(Init->NandBank));
 521              		.loc 1 522 3 view .LVU177
 523:Drivers/STM32H7xx_HAL_Driver/Src/stm32h7xx_ll_fmc.c ****   assert_param(IS_FMC_WAIT_FEATURE(Init->Waitfeature));
 522              		.loc 1 523 3 view .LVU178
 524:Drivers/STM32H7xx_HAL_Driver/Src/stm32h7xx_ll_fmc.c ****   assert_param(IS_FMC_NAND_MEMORY_WIDTH(Init->MemoryDataWidth));
 523              		.loc 1 524 3 view .LVU179
 525:Drivers/STM32H7xx_HAL_Driver/Src/stm32h7xx_ll_fmc.c ****   assert_param(IS_FMC_ECC_STATE(Init->EccComputation));
 524              		.loc 1 525 3 view .LVU180
 526:Drivers/STM32H7xx_HAL_Driver/Src/stm32h7xx_ll_fmc.c ****   assert_param(IS_FMC_ECCPAGE_SIZE(Init->ECCPageSize));
 525              		.loc 1 526 3 view .LVU181
 527:Drivers/STM32H7xx_HAL_Driver/Src/stm32h7xx_ll_fmc.c ****   assert_param(IS_FMC_TCLR_TIME(Init->TCLRSetupTime));
 526              		.loc 1 527 3 view .LVU182
 528:Drivers/STM32H7xx_HAL_Driver/Src/stm32h7xx_ll_fmc.c ****   assert_param(IS_FMC_TAR_TIME(Init->TARSetupTime));
 527              		.loc 1 528 3 view .LVU183
 529:Drivers/STM32H7xx_HAL_Driver/Src/stm32h7xx_ll_fmc.c **** 
 530:Drivers/STM32H7xx_HAL_Driver/Src/stm32h7xx_ll_fmc.c ****   /* NAND bank 3 registers configuration */
 531:Drivers/STM32H7xx_HAL_Driver/Src/stm32h7xx_ll_fmc.c ****   MODIFY_REG(Device->PCR, PCR_CLEAR_MASK, (Init->Waitfeature                            |
 528              		.loc 1 531 3 view .LVU184
 529 0002 0368     		ldr	r3, [r0]
 530 0004 0A4A     		ldr	r2, .L31
 531 0006 1A40     		ands	r2, r2, r3
 532 0008 4B68     		ldr	r3, [r1, #4]
ARM GAS  C:\Users\hh\AppData\Local\Temp\ccbNirFa.s 			page 20


 533 000a 8C68     		ldr	r4, [r1, #8]
 534 000c 2343     		orrs	r3, r3, r4
 535 000e CC68     		ldr	r4, [r1, #12]
 536 0010 2343     		orrs	r3, r3, r4
 537 0012 0C69     		ldr	r4, [r1, #16]
 538 0014 2343     		orrs	r3, r3, r4
 539 0016 4C69     		ldr	r4, [r1, #20]
 540 0018 43EA4423 		orr	r3, r3, r4, lsl #9
 541 001c 8969     		ldr	r1, [r1, #24]
 542              	.LVL35:
 543              		.loc 1 531 3 is_stmt 0 view .LVU185
 544 001e 43EA4133 		orr	r3, r3, r1, lsl #13
 545 0022 1A43     		orrs	r2, r2, r3
 546 0024 42F00802 		orr	r2, r2, #8
 547 0028 0260     		str	r2, [r0]
 532:Drivers/STM32H7xx_HAL_Driver/Src/stm32h7xx_ll_fmc.c ****                                            FMC_PCR_MEMORY_TYPE_NAND                     |
 533:Drivers/STM32H7xx_HAL_Driver/Src/stm32h7xx_ll_fmc.c ****                                            Init->MemoryDataWidth                        |
 534:Drivers/STM32H7xx_HAL_Driver/Src/stm32h7xx_ll_fmc.c ****                                            Init->EccComputation                         |
 535:Drivers/STM32H7xx_HAL_Driver/Src/stm32h7xx_ll_fmc.c ****                                            Init->ECCPageSize                            |
 536:Drivers/STM32H7xx_HAL_Driver/Src/stm32h7xx_ll_fmc.c ****                                            ((Init->TCLRSetupTime) << FMC_PCR_TCLR_Pos)  |
 537:Drivers/STM32H7xx_HAL_Driver/Src/stm32h7xx_ll_fmc.c ****                                            ((Init->TARSetupTime)  << FMC_PCR_TAR_Pos)));
 538:Drivers/STM32H7xx_HAL_Driver/Src/stm32h7xx_ll_fmc.c **** 
 539:Drivers/STM32H7xx_HAL_Driver/Src/stm32h7xx_ll_fmc.c ****   return HAL_OK;
 548              		.loc 1 539 3 is_stmt 1 view .LVU186
 540:Drivers/STM32H7xx_HAL_Driver/Src/stm32h7xx_ll_fmc.c **** }
 549              		.loc 1 540 1 is_stmt 0 view .LVU187
 550 002a 0020     		movs	r0, #0
 551              	.LVL36:
 552              		.loc 1 540 1 view .LVU188
 553 002c 10BC     		pop	{r4}
 554              	.LCFI6:
 555              		.cfi_restore 4
 556              		.cfi_def_cfa_offset 0
 557 002e 7047     		bx	lr
 558              	.L32:
 559              		.align	2
 560              	.L31:
 561 0030 8901F0FF 		.word	-1048183
 562              		.cfi_endproc
 563              	.LFE152:
 565              		.section	.text.FMC_NAND_CommonSpace_Timing_Init,"ax",%progbits
 566              		.align	1
 567              		.global	FMC_NAND_CommonSpace_Timing_Init
 568              		.syntax unified
 569              		.thumb
 570              		.thumb_func
 572              	FMC_NAND_CommonSpace_Timing_Init:
 573              	.LVL37:
 574              	.LFB153:
 541:Drivers/STM32H7xx_HAL_Driver/Src/stm32h7xx_ll_fmc.c **** 
 542:Drivers/STM32H7xx_HAL_Driver/Src/stm32h7xx_ll_fmc.c **** /**
 543:Drivers/STM32H7xx_HAL_Driver/Src/stm32h7xx_ll_fmc.c ****   * @brief  Initializes the FMC_NAND Common space Timing according to the specified
 544:Drivers/STM32H7xx_HAL_Driver/Src/stm32h7xx_ll_fmc.c ****   *         parameters in the FMC_NAND_PCC_TimingTypeDef
 545:Drivers/STM32H7xx_HAL_Driver/Src/stm32h7xx_ll_fmc.c ****   * @param  Device Pointer to NAND device instance
 546:Drivers/STM32H7xx_HAL_Driver/Src/stm32h7xx_ll_fmc.c ****   * @param  Timing Pointer to NAND timing structure
 547:Drivers/STM32H7xx_HAL_Driver/Src/stm32h7xx_ll_fmc.c ****   * @param  Bank NAND bank number
 548:Drivers/STM32H7xx_HAL_Driver/Src/stm32h7xx_ll_fmc.c ****   * @retval HAL status
ARM GAS  C:\Users\hh\AppData\Local\Temp\ccbNirFa.s 			page 21


 549:Drivers/STM32H7xx_HAL_Driver/Src/stm32h7xx_ll_fmc.c ****   */
 550:Drivers/STM32H7xx_HAL_Driver/Src/stm32h7xx_ll_fmc.c **** HAL_StatusTypeDef FMC_NAND_CommonSpace_Timing_Init(FMC_NAND_TypeDef *Device,
 551:Drivers/STM32H7xx_HAL_Driver/Src/stm32h7xx_ll_fmc.c ****                                                    const FMC_NAND_PCC_TimingTypeDef *Timing, uint32
 552:Drivers/STM32H7xx_HAL_Driver/Src/stm32h7xx_ll_fmc.c **** {
 575              		.loc 1 552 1 is_stmt 1 view -0
 576              		.cfi_startproc
 577              		@ args = 0, pretend = 0, frame = 0
 578              		@ frame_needed = 0, uses_anonymous_args = 0
 579              		@ link register save eliminated.
 553:Drivers/STM32H7xx_HAL_Driver/Src/stm32h7xx_ll_fmc.c ****   /* Check the parameters */
 554:Drivers/STM32H7xx_HAL_Driver/Src/stm32h7xx_ll_fmc.c ****   assert_param(IS_FMC_NAND_DEVICE(Device));
 580              		.loc 1 554 3 view .LVU190
 555:Drivers/STM32H7xx_HAL_Driver/Src/stm32h7xx_ll_fmc.c ****   assert_param(IS_FMC_SETUP_TIME(Timing->SetupTime));
 581              		.loc 1 555 3 view .LVU191
 556:Drivers/STM32H7xx_HAL_Driver/Src/stm32h7xx_ll_fmc.c ****   assert_param(IS_FMC_WAIT_TIME(Timing->WaitSetupTime));
 582              		.loc 1 556 3 view .LVU192
 557:Drivers/STM32H7xx_HAL_Driver/Src/stm32h7xx_ll_fmc.c ****   assert_param(IS_FMC_HOLD_TIME(Timing->HoldSetupTime));
 583              		.loc 1 557 3 view .LVU193
 558:Drivers/STM32H7xx_HAL_Driver/Src/stm32h7xx_ll_fmc.c ****   assert_param(IS_FMC_HIZ_TIME(Timing->HiZSetupTime));
 584              		.loc 1 558 3 view .LVU194
 559:Drivers/STM32H7xx_HAL_Driver/Src/stm32h7xx_ll_fmc.c ****   assert_param(IS_FMC_NAND_BANK(Bank));
 585              		.loc 1 559 3 view .LVU195
 560:Drivers/STM32H7xx_HAL_Driver/Src/stm32h7xx_ll_fmc.c **** 
 561:Drivers/STM32H7xx_HAL_Driver/Src/stm32h7xx_ll_fmc.c ****   /* Prevent unused argument(s) compilation warning if no assert_param check */
 562:Drivers/STM32H7xx_HAL_Driver/Src/stm32h7xx_ll_fmc.c ****   UNUSED(Bank);
 586              		.loc 1 562 3 view .LVU196
 563:Drivers/STM32H7xx_HAL_Driver/Src/stm32h7xx_ll_fmc.c **** 
 564:Drivers/STM32H7xx_HAL_Driver/Src/stm32h7xx_ll_fmc.c ****   /* NAND bank 3 registers configuration */
 565:Drivers/STM32H7xx_HAL_Driver/Src/stm32h7xx_ll_fmc.c ****   Device->PMEM = (Timing->SetupTime |
 587              		.loc 1 565 3 view .LVU197
 588              		.loc 1 565 25 is_stmt 0 view .LVU198
 589 0000 0B68     		ldr	r3, [r1]
 566:Drivers/STM32H7xx_HAL_Driver/Src/stm32h7xx_ll_fmc.c ****                   ((Timing->WaitSetupTime) << FMC_PMEM_MEMWAIT_Pos) |
 590              		.loc 1 566 27 view .LVU199
 591 0002 4A68     		ldr	r2, [r1, #4]
 592              	.LVL38:
 565:Drivers/STM32H7xx_HAL_Driver/Src/stm32h7xx_ll_fmc.c ****                   ((Timing->WaitSetupTime) << FMC_PMEM_MEMWAIT_Pos) |
 593              		.loc 1 565 37 view .LVU200
 594 0004 43EA0223 		orr	r3, r3, r2, lsl #8
 567:Drivers/STM32H7xx_HAL_Driver/Src/stm32h7xx_ll_fmc.c ****                   ((Timing->HoldSetupTime) << FMC_PMEM_MEMHOLD_Pos) |
 595              		.loc 1 567 27 view .LVU201
 596 0008 8A68     		ldr	r2, [r1, #8]
 566:Drivers/STM32H7xx_HAL_Driver/Src/stm32h7xx_ll_fmc.c ****                   ((Timing->WaitSetupTime) << FMC_PMEM_MEMWAIT_Pos) |
 597              		.loc 1 566 69 view .LVU202
 598 000a 43EA0243 		orr	r3, r3, r2, lsl #16
 568:Drivers/STM32H7xx_HAL_Driver/Src/stm32h7xx_ll_fmc.c ****                   ((Timing->HiZSetupTime) << FMC_PMEM_MEMHIZ_Pos));
 599              		.loc 1 568 27 view .LVU203
 600 000e CA68     		ldr	r2, [r1, #12]
 567:Drivers/STM32H7xx_HAL_Driver/Src/stm32h7xx_ll_fmc.c ****                   ((Timing->HoldSetupTime) << FMC_PMEM_MEMHOLD_Pos) |
 601              		.loc 1 567 69 view .LVU204
 602 0010 43EA0263 		orr	r3, r3, r2, lsl #24
 565:Drivers/STM32H7xx_HAL_Driver/Src/stm32h7xx_ll_fmc.c ****                   ((Timing->WaitSetupTime) << FMC_PMEM_MEMWAIT_Pos) |
 603              		.loc 1 565 16 view .LVU205
 604 0014 8360     		str	r3, [r0, #8]
 569:Drivers/STM32H7xx_HAL_Driver/Src/stm32h7xx_ll_fmc.c **** 
 570:Drivers/STM32H7xx_HAL_Driver/Src/stm32h7xx_ll_fmc.c ****   return HAL_OK;
 605              		.loc 1 570 3 is_stmt 1 view .LVU206
ARM GAS  C:\Users\hh\AppData\Local\Temp\ccbNirFa.s 			page 22


 571:Drivers/STM32H7xx_HAL_Driver/Src/stm32h7xx_ll_fmc.c **** }
 606              		.loc 1 571 1 is_stmt 0 view .LVU207
 607 0016 0020     		movs	r0, #0
 608              	.LVL39:
 609              		.loc 1 571 1 view .LVU208
 610 0018 7047     		bx	lr
 611              		.cfi_endproc
 612              	.LFE153:
 614              		.section	.text.FMC_NAND_AttributeSpace_Timing_Init,"ax",%progbits
 615              		.align	1
 616              		.global	FMC_NAND_AttributeSpace_Timing_Init
 617              		.syntax unified
 618              		.thumb
 619              		.thumb_func
 621              	FMC_NAND_AttributeSpace_Timing_Init:
 622              	.LVL40:
 623              	.LFB154:
 572:Drivers/STM32H7xx_HAL_Driver/Src/stm32h7xx_ll_fmc.c **** 
 573:Drivers/STM32H7xx_HAL_Driver/Src/stm32h7xx_ll_fmc.c **** /**
 574:Drivers/STM32H7xx_HAL_Driver/Src/stm32h7xx_ll_fmc.c ****   * @brief  Initializes the FMC_NAND Attribute space Timing according to the specified
 575:Drivers/STM32H7xx_HAL_Driver/Src/stm32h7xx_ll_fmc.c ****   *         parameters in the FMC_NAND_PCC_TimingTypeDef
 576:Drivers/STM32H7xx_HAL_Driver/Src/stm32h7xx_ll_fmc.c ****   * @param  Device Pointer to NAND device instance
 577:Drivers/STM32H7xx_HAL_Driver/Src/stm32h7xx_ll_fmc.c ****   * @param  Timing Pointer to NAND timing structure
 578:Drivers/STM32H7xx_HAL_Driver/Src/stm32h7xx_ll_fmc.c ****   * @param  Bank NAND bank number
 579:Drivers/STM32H7xx_HAL_Driver/Src/stm32h7xx_ll_fmc.c ****   * @retval HAL status
 580:Drivers/STM32H7xx_HAL_Driver/Src/stm32h7xx_ll_fmc.c ****   */
 581:Drivers/STM32H7xx_HAL_Driver/Src/stm32h7xx_ll_fmc.c **** HAL_StatusTypeDef FMC_NAND_AttributeSpace_Timing_Init(FMC_NAND_TypeDef *Device,
 582:Drivers/STM32H7xx_HAL_Driver/Src/stm32h7xx_ll_fmc.c ****                                                       const FMC_NAND_PCC_TimingTypeDef *Timing, uin
 583:Drivers/STM32H7xx_HAL_Driver/Src/stm32h7xx_ll_fmc.c **** {
 624              		.loc 1 583 1 is_stmt 1 view -0
 625              		.cfi_startproc
 626              		@ args = 0, pretend = 0, frame = 0
 627              		@ frame_needed = 0, uses_anonymous_args = 0
 628              		@ link register save eliminated.
 584:Drivers/STM32H7xx_HAL_Driver/Src/stm32h7xx_ll_fmc.c ****   /* Check the parameters */
 585:Drivers/STM32H7xx_HAL_Driver/Src/stm32h7xx_ll_fmc.c ****   assert_param(IS_FMC_NAND_DEVICE(Device));
 629              		.loc 1 585 3 view .LVU210
 586:Drivers/STM32H7xx_HAL_Driver/Src/stm32h7xx_ll_fmc.c ****   assert_param(IS_FMC_SETUP_TIME(Timing->SetupTime));
 630              		.loc 1 586 3 view .LVU211
 587:Drivers/STM32H7xx_HAL_Driver/Src/stm32h7xx_ll_fmc.c ****   assert_param(IS_FMC_WAIT_TIME(Timing->WaitSetupTime));
 631              		.loc 1 587 3 view .LVU212
 588:Drivers/STM32H7xx_HAL_Driver/Src/stm32h7xx_ll_fmc.c ****   assert_param(IS_FMC_HOLD_TIME(Timing->HoldSetupTime));
 632              		.loc 1 588 3 view .LVU213
 589:Drivers/STM32H7xx_HAL_Driver/Src/stm32h7xx_ll_fmc.c ****   assert_param(IS_FMC_HIZ_TIME(Timing->HiZSetupTime));
 633              		.loc 1 589 3 view .LVU214
 590:Drivers/STM32H7xx_HAL_Driver/Src/stm32h7xx_ll_fmc.c ****   assert_param(IS_FMC_NAND_BANK(Bank));
 634              		.loc 1 590 3 view .LVU215
 591:Drivers/STM32H7xx_HAL_Driver/Src/stm32h7xx_ll_fmc.c **** 
 592:Drivers/STM32H7xx_HAL_Driver/Src/stm32h7xx_ll_fmc.c ****   /* Prevent unused argument(s) compilation warning if no assert_param check */
 593:Drivers/STM32H7xx_HAL_Driver/Src/stm32h7xx_ll_fmc.c ****   UNUSED(Bank);
 635              		.loc 1 593 3 view .LVU216
 594:Drivers/STM32H7xx_HAL_Driver/Src/stm32h7xx_ll_fmc.c **** 
 595:Drivers/STM32H7xx_HAL_Driver/Src/stm32h7xx_ll_fmc.c ****   /* NAND bank 3 registers configuration */
 596:Drivers/STM32H7xx_HAL_Driver/Src/stm32h7xx_ll_fmc.c ****   Device->PATT = (Timing->SetupTime |
 636              		.loc 1 596 3 view .LVU217
 637              		.loc 1 596 25 is_stmt 0 view .LVU218
 638 0000 0B68     		ldr	r3, [r1]
ARM GAS  C:\Users\hh\AppData\Local\Temp\ccbNirFa.s 			page 23


 597:Drivers/STM32H7xx_HAL_Driver/Src/stm32h7xx_ll_fmc.c ****                   ((Timing->WaitSetupTime) << FMC_PATT_ATTWAIT_Pos) |
 639              		.loc 1 597 27 view .LVU219
 640 0002 4A68     		ldr	r2, [r1, #4]
 641              	.LVL41:
 596:Drivers/STM32H7xx_HAL_Driver/Src/stm32h7xx_ll_fmc.c ****                   ((Timing->WaitSetupTime) << FMC_PATT_ATTWAIT_Pos) |
 642              		.loc 1 596 37 view .LVU220
 643 0004 43EA0223 		orr	r3, r3, r2, lsl #8
 598:Drivers/STM32H7xx_HAL_Driver/Src/stm32h7xx_ll_fmc.c ****                   ((Timing->HoldSetupTime) << FMC_PATT_ATTHOLD_Pos) |
 644              		.loc 1 598 27 view .LVU221
 645 0008 8A68     		ldr	r2, [r1, #8]
 597:Drivers/STM32H7xx_HAL_Driver/Src/stm32h7xx_ll_fmc.c ****                   ((Timing->WaitSetupTime) << FMC_PATT_ATTWAIT_Pos) |
 646              		.loc 1 597 69 view .LVU222
 647 000a 43EA0243 		orr	r3, r3, r2, lsl #16
 599:Drivers/STM32H7xx_HAL_Driver/Src/stm32h7xx_ll_fmc.c ****                   ((Timing->HiZSetupTime)  << FMC_PATT_ATTHIZ_Pos));
 648              		.loc 1 599 27 view .LVU223
 649 000e CA68     		ldr	r2, [r1, #12]
 598:Drivers/STM32H7xx_HAL_Driver/Src/stm32h7xx_ll_fmc.c ****                   ((Timing->HoldSetupTime) << FMC_PATT_ATTHOLD_Pos) |
 650              		.loc 1 598 69 view .LVU224
 651 0010 43EA0263 		orr	r3, r3, r2, lsl #24
 596:Drivers/STM32H7xx_HAL_Driver/Src/stm32h7xx_ll_fmc.c ****                   ((Timing->WaitSetupTime) << FMC_PATT_ATTWAIT_Pos) |
 652              		.loc 1 596 16 view .LVU225
 653 0014 C360     		str	r3, [r0, #12]
 600:Drivers/STM32H7xx_HAL_Driver/Src/stm32h7xx_ll_fmc.c **** 
 601:Drivers/STM32H7xx_HAL_Driver/Src/stm32h7xx_ll_fmc.c ****   return HAL_OK;
 654              		.loc 1 601 3 is_stmt 1 view .LVU226
 602:Drivers/STM32H7xx_HAL_Driver/Src/stm32h7xx_ll_fmc.c **** }
 655              		.loc 1 602 1 is_stmt 0 view .LVU227
 656 0016 0020     		movs	r0, #0
 657              	.LVL42:
 658              		.loc 1 602 1 view .LVU228
 659 0018 7047     		bx	lr
 660              		.cfi_endproc
 661              	.LFE154:
 663              		.section	.text.FMC_NAND_DeInit,"ax",%progbits
 664              		.align	1
 665              		.global	FMC_NAND_DeInit
 666              		.syntax unified
 667              		.thumb
 668              		.thumb_func
 670              	FMC_NAND_DeInit:
 671              	.LVL43:
 672              	.LFB155:
 603:Drivers/STM32H7xx_HAL_Driver/Src/stm32h7xx_ll_fmc.c **** 
 604:Drivers/STM32H7xx_HAL_Driver/Src/stm32h7xx_ll_fmc.c **** /**
 605:Drivers/STM32H7xx_HAL_Driver/Src/stm32h7xx_ll_fmc.c ****   * @brief  DeInitializes the FMC_NAND device
 606:Drivers/STM32H7xx_HAL_Driver/Src/stm32h7xx_ll_fmc.c ****   * @param  Device Pointer to NAND device instance
 607:Drivers/STM32H7xx_HAL_Driver/Src/stm32h7xx_ll_fmc.c ****   * @param  Bank NAND bank number
 608:Drivers/STM32H7xx_HAL_Driver/Src/stm32h7xx_ll_fmc.c ****   * @retval HAL status
 609:Drivers/STM32H7xx_HAL_Driver/Src/stm32h7xx_ll_fmc.c ****   */
 610:Drivers/STM32H7xx_HAL_Driver/Src/stm32h7xx_ll_fmc.c **** HAL_StatusTypeDef FMC_NAND_DeInit(FMC_NAND_TypeDef *Device, uint32_t Bank)
 611:Drivers/STM32H7xx_HAL_Driver/Src/stm32h7xx_ll_fmc.c **** {
 673              		.loc 1 611 1 is_stmt 1 view -0
 674              		.cfi_startproc
 675              		@ args = 0, pretend = 0, frame = 0
 676              		@ frame_needed = 0, uses_anonymous_args = 0
 677              		@ link register save eliminated.
 612:Drivers/STM32H7xx_HAL_Driver/Src/stm32h7xx_ll_fmc.c ****   /* Check the parameters */
ARM GAS  C:\Users\hh\AppData\Local\Temp\ccbNirFa.s 			page 24


 613:Drivers/STM32H7xx_HAL_Driver/Src/stm32h7xx_ll_fmc.c ****   assert_param(IS_FMC_NAND_DEVICE(Device));
 678              		.loc 1 613 3 view .LVU230
 614:Drivers/STM32H7xx_HAL_Driver/Src/stm32h7xx_ll_fmc.c ****   assert_param(IS_FMC_NAND_BANK(Bank));
 679              		.loc 1 614 3 view .LVU231
 615:Drivers/STM32H7xx_HAL_Driver/Src/stm32h7xx_ll_fmc.c **** 
 616:Drivers/STM32H7xx_HAL_Driver/Src/stm32h7xx_ll_fmc.c ****   /* Disable the NAND Bank */
 617:Drivers/STM32H7xx_HAL_Driver/Src/stm32h7xx_ll_fmc.c ****   __FMC_NAND_DISABLE(Device, Bank);
 680              		.loc 1 617 3 view .LVU232
 681 0000 0368     		ldr	r3, [r0]
 682 0002 23F00403 		bic	r3, r3, #4
 683 0006 0360     		str	r3, [r0]
 618:Drivers/STM32H7xx_HAL_Driver/Src/stm32h7xx_ll_fmc.c **** 
 619:Drivers/STM32H7xx_HAL_Driver/Src/stm32h7xx_ll_fmc.c ****   /* De-initialize the NAND Bank */
 620:Drivers/STM32H7xx_HAL_Driver/Src/stm32h7xx_ll_fmc.c ****   /* Prevent unused argument(s) compilation warning if no assert_param check */
 621:Drivers/STM32H7xx_HAL_Driver/Src/stm32h7xx_ll_fmc.c ****   UNUSED(Bank);
 684              		.loc 1 621 3 view .LVU233
 622:Drivers/STM32H7xx_HAL_Driver/Src/stm32h7xx_ll_fmc.c **** 
 623:Drivers/STM32H7xx_HAL_Driver/Src/stm32h7xx_ll_fmc.c ****   /* Set the FMC_NAND_BANK3 registers to their reset values */
 624:Drivers/STM32H7xx_HAL_Driver/Src/stm32h7xx_ll_fmc.c ****   WRITE_REG(Device->PCR,  0x00000018U);
 685              		.loc 1 624 3 view .LVU234
 686 0008 1823     		movs	r3, #24
 687 000a 0360     		str	r3, [r0]
 625:Drivers/STM32H7xx_HAL_Driver/Src/stm32h7xx_ll_fmc.c ****   WRITE_REG(Device->SR,   0x00000040U);
 688              		.loc 1 625 3 view .LVU235
 689 000c 4023     		movs	r3, #64
 690 000e 4360     		str	r3, [r0, #4]
 626:Drivers/STM32H7xx_HAL_Driver/Src/stm32h7xx_ll_fmc.c ****   WRITE_REG(Device->PMEM, 0xFCFCFCFCU);
 691              		.loc 1 626 3 view .LVU236
 692 0010 4FF0FC33 		mov	r3, #-50529028
 693 0014 8360     		str	r3, [r0, #8]
 627:Drivers/STM32H7xx_HAL_Driver/Src/stm32h7xx_ll_fmc.c ****   WRITE_REG(Device->PATT, 0xFCFCFCFCU);
 694              		.loc 1 627 3 view .LVU237
 695 0016 C360     		str	r3, [r0, #12]
 628:Drivers/STM32H7xx_HAL_Driver/Src/stm32h7xx_ll_fmc.c **** 
 629:Drivers/STM32H7xx_HAL_Driver/Src/stm32h7xx_ll_fmc.c ****   return HAL_OK;
 696              		.loc 1 629 3 view .LVU238
 630:Drivers/STM32H7xx_HAL_Driver/Src/stm32h7xx_ll_fmc.c **** }
 697              		.loc 1 630 1 is_stmt 0 view .LVU239
 698 0018 0020     		movs	r0, #0
 699              	.LVL44:
 700              		.loc 1 630 1 view .LVU240
 701 001a 7047     		bx	lr
 702              		.cfi_endproc
 703              	.LFE155:
 705              		.section	.text.FMC_NAND_ECC_Enable,"ax",%progbits
 706              		.align	1
 707              		.global	FMC_NAND_ECC_Enable
 708              		.syntax unified
 709              		.thumb
 710              		.thumb_func
 712              	FMC_NAND_ECC_Enable:
 713              	.LVL45:
 714              	.LFB156:
 631:Drivers/STM32H7xx_HAL_Driver/Src/stm32h7xx_ll_fmc.c **** 
 632:Drivers/STM32H7xx_HAL_Driver/Src/stm32h7xx_ll_fmc.c **** /**
 633:Drivers/STM32H7xx_HAL_Driver/Src/stm32h7xx_ll_fmc.c ****   * @}
 634:Drivers/STM32H7xx_HAL_Driver/Src/stm32h7xx_ll_fmc.c ****   */
ARM GAS  C:\Users\hh\AppData\Local\Temp\ccbNirFa.s 			page 25


 635:Drivers/STM32H7xx_HAL_Driver/Src/stm32h7xx_ll_fmc.c **** 
 636:Drivers/STM32H7xx_HAL_Driver/Src/stm32h7xx_ll_fmc.c **** /** @defgroup HAL_FMC_NAND_Group2 Peripheral Control functions
 637:Drivers/STM32H7xx_HAL_Driver/Src/stm32h7xx_ll_fmc.c ****   *  @brief   management functions
 638:Drivers/STM32H7xx_HAL_Driver/Src/stm32h7xx_ll_fmc.c ****   *
 639:Drivers/STM32H7xx_HAL_Driver/Src/stm32h7xx_ll_fmc.c **** @verbatim
 640:Drivers/STM32H7xx_HAL_Driver/Src/stm32h7xx_ll_fmc.c ****   ==============================================================================
 641:Drivers/STM32H7xx_HAL_Driver/Src/stm32h7xx_ll_fmc.c ****                        ##### FMC_NAND Control functions #####
 642:Drivers/STM32H7xx_HAL_Driver/Src/stm32h7xx_ll_fmc.c ****   ==============================================================================
 643:Drivers/STM32H7xx_HAL_Driver/Src/stm32h7xx_ll_fmc.c ****   [..]
 644:Drivers/STM32H7xx_HAL_Driver/Src/stm32h7xx_ll_fmc.c ****     This subsection provides a set of functions allowing to control dynamically
 645:Drivers/STM32H7xx_HAL_Driver/Src/stm32h7xx_ll_fmc.c ****     the FMC NAND interface.
 646:Drivers/STM32H7xx_HAL_Driver/Src/stm32h7xx_ll_fmc.c **** 
 647:Drivers/STM32H7xx_HAL_Driver/Src/stm32h7xx_ll_fmc.c **** @endverbatim
 648:Drivers/STM32H7xx_HAL_Driver/Src/stm32h7xx_ll_fmc.c ****   * @{
 649:Drivers/STM32H7xx_HAL_Driver/Src/stm32h7xx_ll_fmc.c ****   */
 650:Drivers/STM32H7xx_HAL_Driver/Src/stm32h7xx_ll_fmc.c **** 
 651:Drivers/STM32H7xx_HAL_Driver/Src/stm32h7xx_ll_fmc.c **** 
 652:Drivers/STM32H7xx_HAL_Driver/Src/stm32h7xx_ll_fmc.c **** /**
 653:Drivers/STM32H7xx_HAL_Driver/Src/stm32h7xx_ll_fmc.c ****   * @brief  Enables dynamically FMC_NAND ECC feature.
 654:Drivers/STM32H7xx_HAL_Driver/Src/stm32h7xx_ll_fmc.c ****   * @param  Device Pointer to NAND device instance
 655:Drivers/STM32H7xx_HAL_Driver/Src/stm32h7xx_ll_fmc.c ****   * @param  Bank NAND bank number
 656:Drivers/STM32H7xx_HAL_Driver/Src/stm32h7xx_ll_fmc.c ****   * @retval HAL status
 657:Drivers/STM32H7xx_HAL_Driver/Src/stm32h7xx_ll_fmc.c ****   */
 658:Drivers/STM32H7xx_HAL_Driver/Src/stm32h7xx_ll_fmc.c **** HAL_StatusTypeDef FMC_NAND_ECC_Enable(FMC_NAND_TypeDef *Device, uint32_t Bank)
 659:Drivers/STM32H7xx_HAL_Driver/Src/stm32h7xx_ll_fmc.c **** {
 715              		.loc 1 659 1 is_stmt 1 view -0
 716              		.cfi_startproc
 717              		@ args = 0, pretend = 0, frame = 0
 718              		@ frame_needed = 0, uses_anonymous_args = 0
 719              		@ link register save eliminated.
 660:Drivers/STM32H7xx_HAL_Driver/Src/stm32h7xx_ll_fmc.c ****   /* Check the parameters */
 661:Drivers/STM32H7xx_HAL_Driver/Src/stm32h7xx_ll_fmc.c ****   assert_param(IS_FMC_NAND_DEVICE(Device));
 720              		.loc 1 661 3 view .LVU242
 662:Drivers/STM32H7xx_HAL_Driver/Src/stm32h7xx_ll_fmc.c ****   assert_param(IS_FMC_NAND_BANK(Bank));
 721              		.loc 1 662 3 view .LVU243
 663:Drivers/STM32H7xx_HAL_Driver/Src/stm32h7xx_ll_fmc.c **** 
 664:Drivers/STM32H7xx_HAL_Driver/Src/stm32h7xx_ll_fmc.c ****   /* Enable ECC feature */
 665:Drivers/STM32H7xx_HAL_Driver/Src/stm32h7xx_ll_fmc.c ****   /* Prevent unused argument(s) compilation warning if no assert_param check */
 666:Drivers/STM32H7xx_HAL_Driver/Src/stm32h7xx_ll_fmc.c ****   UNUSED(Bank);
 722              		.loc 1 666 3 view .LVU244
 667:Drivers/STM32H7xx_HAL_Driver/Src/stm32h7xx_ll_fmc.c **** 
 668:Drivers/STM32H7xx_HAL_Driver/Src/stm32h7xx_ll_fmc.c ****   SET_BIT(Device->PCR, FMC_PCR_ECCEN);
 723              		.loc 1 668 3 view .LVU245
 724 0000 0368     		ldr	r3, [r0]
 725 0002 43F04003 		orr	r3, r3, #64
 726 0006 0360     		str	r3, [r0]
 669:Drivers/STM32H7xx_HAL_Driver/Src/stm32h7xx_ll_fmc.c **** 
 670:Drivers/STM32H7xx_HAL_Driver/Src/stm32h7xx_ll_fmc.c ****   return HAL_OK;
 727              		.loc 1 670 3 view .LVU246
 671:Drivers/STM32H7xx_HAL_Driver/Src/stm32h7xx_ll_fmc.c **** }
 728              		.loc 1 671 1 is_stmt 0 view .LVU247
 729 0008 0020     		movs	r0, #0
 730              	.LVL46:
 731              		.loc 1 671 1 view .LVU248
 732 000a 7047     		bx	lr
 733              		.cfi_endproc
 734              	.LFE156:
ARM GAS  C:\Users\hh\AppData\Local\Temp\ccbNirFa.s 			page 26


 736              		.section	.text.FMC_NAND_ECC_Disable,"ax",%progbits
 737              		.align	1
 738              		.global	FMC_NAND_ECC_Disable
 739              		.syntax unified
 740              		.thumb
 741              		.thumb_func
 743              	FMC_NAND_ECC_Disable:
 744              	.LVL47:
 745              	.LFB157:
 672:Drivers/STM32H7xx_HAL_Driver/Src/stm32h7xx_ll_fmc.c **** 
 673:Drivers/STM32H7xx_HAL_Driver/Src/stm32h7xx_ll_fmc.c **** 
 674:Drivers/STM32H7xx_HAL_Driver/Src/stm32h7xx_ll_fmc.c **** /**
 675:Drivers/STM32H7xx_HAL_Driver/Src/stm32h7xx_ll_fmc.c ****   * @brief  Disables dynamically FMC_NAND ECC feature.
 676:Drivers/STM32H7xx_HAL_Driver/Src/stm32h7xx_ll_fmc.c ****   * @param  Device Pointer to NAND device instance
 677:Drivers/STM32H7xx_HAL_Driver/Src/stm32h7xx_ll_fmc.c ****   * @param  Bank NAND bank number
 678:Drivers/STM32H7xx_HAL_Driver/Src/stm32h7xx_ll_fmc.c ****   * @retval HAL status
 679:Drivers/STM32H7xx_HAL_Driver/Src/stm32h7xx_ll_fmc.c ****   */
 680:Drivers/STM32H7xx_HAL_Driver/Src/stm32h7xx_ll_fmc.c **** HAL_StatusTypeDef FMC_NAND_ECC_Disable(FMC_NAND_TypeDef *Device, uint32_t Bank)
 681:Drivers/STM32H7xx_HAL_Driver/Src/stm32h7xx_ll_fmc.c **** {
 746              		.loc 1 681 1 is_stmt 1 view -0
 747              		.cfi_startproc
 748              		@ args = 0, pretend = 0, frame = 0
 749              		@ frame_needed = 0, uses_anonymous_args = 0
 750              		@ link register save eliminated.
 682:Drivers/STM32H7xx_HAL_Driver/Src/stm32h7xx_ll_fmc.c ****   /* Check the parameters */
 683:Drivers/STM32H7xx_HAL_Driver/Src/stm32h7xx_ll_fmc.c ****   assert_param(IS_FMC_NAND_DEVICE(Device));
 751              		.loc 1 683 3 view .LVU250
 684:Drivers/STM32H7xx_HAL_Driver/Src/stm32h7xx_ll_fmc.c ****   assert_param(IS_FMC_NAND_BANK(Bank));
 752              		.loc 1 684 3 view .LVU251
 685:Drivers/STM32H7xx_HAL_Driver/Src/stm32h7xx_ll_fmc.c **** 
 686:Drivers/STM32H7xx_HAL_Driver/Src/stm32h7xx_ll_fmc.c ****   /* Disable ECC feature */
 687:Drivers/STM32H7xx_HAL_Driver/Src/stm32h7xx_ll_fmc.c ****   /* Prevent unused argument(s) compilation warning if no assert_param check */
 688:Drivers/STM32H7xx_HAL_Driver/Src/stm32h7xx_ll_fmc.c ****   UNUSED(Bank);
 753              		.loc 1 688 3 view .LVU252
 689:Drivers/STM32H7xx_HAL_Driver/Src/stm32h7xx_ll_fmc.c **** 
 690:Drivers/STM32H7xx_HAL_Driver/Src/stm32h7xx_ll_fmc.c ****   CLEAR_BIT(Device->PCR, FMC_PCR_ECCEN);
 754              		.loc 1 690 3 view .LVU253
 755 0000 0368     		ldr	r3, [r0]
 756 0002 23F04003 		bic	r3, r3, #64
 757 0006 0360     		str	r3, [r0]
 691:Drivers/STM32H7xx_HAL_Driver/Src/stm32h7xx_ll_fmc.c **** 
 692:Drivers/STM32H7xx_HAL_Driver/Src/stm32h7xx_ll_fmc.c ****   return HAL_OK;
 758              		.loc 1 692 3 view .LVU254
 693:Drivers/STM32H7xx_HAL_Driver/Src/stm32h7xx_ll_fmc.c **** }
 759              		.loc 1 693 1 is_stmt 0 view .LVU255
 760 0008 0020     		movs	r0, #0
 761              	.LVL48:
 762              		.loc 1 693 1 view .LVU256
 763 000a 7047     		bx	lr
 764              		.cfi_endproc
 765              	.LFE157:
 767              		.section	.text.FMC_NAND_GetECC,"ax",%progbits
 768              		.align	1
 769              		.global	FMC_NAND_GetECC
 770              		.syntax unified
 771              		.thumb
 772              		.thumb_func
ARM GAS  C:\Users\hh\AppData\Local\Temp\ccbNirFa.s 			page 27


 774              	FMC_NAND_GetECC:
 775              	.LVL49:
 776              	.LFB158:
 694:Drivers/STM32H7xx_HAL_Driver/Src/stm32h7xx_ll_fmc.c **** 
 695:Drivers/STM32H7xx_HAL_Driver/Src/stm32h7xx_ll_fmc.c **** /**
 696:Drivers/STM32H7xx_HAL_Driver/Src/stm32h7xx_ll_fmc.c ****   * @brief  Disables dynamically FMC_NAND ECC feature.
 697:Drivers/STM32H7xx_HAL_Driver/Src/stm32h7xx_ll_fmc.c ****   * @param  Device Pointer to NAND device instance
 698:Drivers/STM32H7xx_HAL_Driver/Src/stm32h7xx_ll_fmc.c ****   * @param  ECCval Pointer to ECC value
 699:Drivers/STM32H7xx_HAL_Driver/Src/stm32h7xx_ll_fmc.c ****   * @param  Bank NAND bank number
 700:Drivers/STM32H7xx_HAL_Driver/Src/stm32h7xx_ll_fmc.c ****   * @param  Timeout Timeout wait value
 701:Drivers/STM32H7xx_HAL_Driver/Src/stm32h7xx_ll_fmc.c ****   * @retval HAL status
 702:Drivers/STM32H7xx_HAL_Driver/Src/stm32h7xx_ll_fmc.c ****   */
 703:Drivers/STM32H7xx_HAL_Driver/Src/stm32h7xx_ll_fmc.c **** HAL_StatusTypeDef FMC_NAND_GetECC(const FMC_NAND_TypeDef *Device, uint32_t *ECCval, uint32_t Bank,
 704:Drivers/STM32H7xx_HAL_Driver/Src/stm32h7xx_ll_fmc.c ****                                   uint32_t Timeout)
 705:Drivers/STM32H7xx_HAL_Driver/Src/stm32h7xx_ll_fmc.c **** {
 777              		.loc 1 705 1 is_stmt 1 view -0
 778              		.cfi_startproc
 779              		@ args = 0, pretend = 0, frame = 0
 780              		@ frame_needed = 0, uses_anonymous_args = 0
 781              		.loc 1 705 1 is_stmt 0 view .LVU258
 782 0000 F8B5     		push	{r3, r4, r5, r6, r7, lr}
 783              	.LCFI7:
 784              		.cfi_def_cfa_offset 24
 785              		.cfi_offset 3, -24
 786              		.cfi_offset 4, -20
 787              		.cfi_offset 5, -16
 788              		.cfi_offset 6, -12
 789              		.cfi_offset 7, -8
 790              		.cfi_offset 14, -4
 791 0002 0446     		mov	r4, r0
 792 0004 0E46     		mov	r6, r1
 793 0006 1D46     		mov	r5, r3
 706:Drivers/STM32H7xx_HAL_Driver/Src/stm32h7xx_ll_fmc.c ****   uint32_t tickstart;
 794              		.loc 1 706 3 is_stmt 1 view .LVU259
 707:Drivers/STM32H7xx_HAL_Driver/Src/stm32h7xx_ll_fmc.c **** 
 708:Drivers/STM32H7xx_HAL_Driver/Src/stm32h7xx_ll_fmc.c ****   /* Check the parameters */
 709:Drivers/STM32H7xx_HAL_Driver/Src/stm32h7xx_ll_fmc.c ****   assert_param(IS_FMC_NAND_DEVICE(Device));
 795              		.loc 1 709 3 view .LVU260
 710:Drivers/STM32H7xx_HAL_Driver/Src/stm32h7xx_ll_fmc.c ****   assert_param(IS_FMC_NAND_BANK(Bank));
 796              		.loc 1 710 3 view .LVU261
 711:Drivers/STM32H7xx_HAL_Driver/Src/stm32h7xx_ll_fmc.c **** 
 712:Drivers/STM32H7xx_HAL_Driver/Src/stm32h7xx_ll_fmc.c ****   /* Get tick */
 713:Drivers/STM32H7xx_HAL_Driver/Src/stm32h7xx_ll_fmc.c ****   tickstart = HAL_GetTick();
 797              		.loc 1 713 3 view .LVU262
 798              		.loc 1 713 15 is_stmt 0 view .LVU263
 799 0008 FFF7FEFF 		bl	HAL_GetTick
 800              	.LVL50:
 801              		.loc 1 713 15 view .LVU264
 802 000c 0746     		mov	r7, r0
 803              	.LVL51:
 714:Drivers/STM32H7xx_HAL_Driver/Src/stm32h7xx_ll_fmc.c **** 
 715:Drivers/STM32H7xx_HAL_Driver/Src/stm32h7xx_ll_fmc.c ****   /* Wait until FIFO is empty */
 716:Drivers/STM32H7xx_HAL_Driver/Src/stm32h7xx_ll_fmc.c ****   while (__FMC_NAND_GET_FLAG(Device, Bank, FMC_FLAG_FEMPT) == RESET)
 804              		.loc 1 716 3 is_stmt 1 view .LVU265
 805              	.L40:
 806              		.loc 1 716 60 view .LVU266
 807              		.loc 1 716 10 is_stmt 0 view .LVU267
ARM GAS  C:\Users\hh\AppData\Local\Temp\ccbNirFa.s 			page 28


 808 000e 6268     		ldr	r2, [r4, #4]
 809              		.loc 1 716 60 view .LVU268
 810 0010 12F0400F 		tst	r2, #64
 811 0014 0BD1     		bne	.L46
 717:Drivers/STM32H7xx_HAL_Driver/Src/stm32h7xx_ll_fmc.c ****   {
 718:Drivers/STM32H7xx_HAL_Driver/Src/stm32h7xx_ll_fmc.c ****     /* Check for the Timeout */
 719:Drivers/STM32H7xx_HAL_Driver/Src/stm32h7xx_ll_fmc.c ****     if (Timeout != HAL_MAX_DELAY)
 812              		.loc 1 719 5 is_stmt 1 view .LVU269
 813              		.loc 1 719 8 is_stmt 0 view .LVU270
 814 0016 B5F1FF3F 		cmp	r5, #-1
 815 001a F8D0     		beq	.L40
 720:Drivers/STM32H7xx_HAL_Driver/Src/stm32h7xx_ll_fmc.c ****     {
 721:Drivers/STM32H7xx_HAL_Driver/Src/stm32h7xx_ll_fmc.c ****       if (((HAL_GetTick() - tickstart) > Timeout) || (Timeout == 0U))
 816              		.loc 1 721 7 is_stmt 1 view .LVU271
 817              		.loc 1 721 13 is_stmt 0 view .LVU272
 818 001c FFF7FEFF 		bl	HAL_GetTick
 819              	.LVL52:
 820              		.loc 1 721 27 discriminator 1 view .LVU273
 821 0020 C01B     		subs	r0, r0, r7
 822              		.loc 1 721 10 discriminator 1 view .LVU274
 823 0022 A842     		cmp	r0, r5
 824 0024 07D8     		bhi	.L43
 825              		.loc 1 721 51 discriminator 2 view .LVU275
 826 0026 002D     		cmp	r5, #0
 827 0028 F1D1     		bne	.L40
 722:Drivers/STM32H7xx_HAL_Driver/Src/stm32h7xx_ll_fmc.c ****       {
 723:Drivers/STM32H7xx_HAL_Driver/Src/stm32h7xx_ll_fmc.c ****         return HAL_TIMEOUT;
 828              		.loc 1 723 16 view .LVU276
 829 002a 0320     		movs	r0, #3
 830 002c 02E0     		b	.L41
 831              	.L46:
 724:Drivers/STM32H7xx_HAL_Driver/Src/stm32h7xx_ll_fmc.c ****       }
 725:Drivers/STM32H7xx_HAL_Driver/Src/stm32h7xx_ll_fmc.c ****     }
 726:Drivers/STM32H7xx_HAL_Driver/Src/stm32h7xx_ll_fmc.c ****   }
 727:Drivers/STM32H7xx_HAL_Driver/Src/stm32h7xx_ll_fmc.c **** 
 728:Drivers/STM32H7xx_HAL_Driver/Src/stm32h7xx_ll_fmc.c ****   /* Prevent unused argument(s) compilation warning if no assert_param check */
 729:Drivers/STM32H7xx_HAL_Driver/Src/stm32h7xx_ll_fmc.c ****   UNUSED(Bank);
 832              		.loc 1 729 3 is_stmt 1 view .LVU277
 730:Drivers/STM32H7xx_HAL_Driver/Src/stm32h7xx_ll_fmc.c **** 
 731:Drivers/STM32H7xx_HAL_Driver/Src/stm32h7xx_ll_fmc.c ****   /* Get the ECCR register value */
 732:Drivers/STM32H7xx_HAL_Driver/Src/stm32h7xx_ll_fmc.c ****   *ECCval = (uint32_t)Device->ECCR;
 833              		.loc 1 732 3 view .LVU278
 834              		.loc 1 732 29 is_stmt 0 view .LVU279
 835 002e 6369     		ldr	r3, [r4, #20]
 836              		.loc 1 732 11 view .LVU280
 837 0030 3360     		str	r3, [r6]
 733:Drivers/STM32H7xx_HAL_Driver/Src/stm32h7xx_ll_fmc.c **** 
 734:Drivers/STM32H7xx_HAL_Driver/Src/stm32h7xx_ll_fmc.c ****   return HAL_OK;
 838              		.loc 1 734 3 is_stmt 1 view .LVU281
 839              		.loc 1 734 10 is_stmt 0 view .LVU282
 840 0032 0020     		movs	r0, #0
 841              	.L41:
 735:Drivers/STM32H7xx_HAL_Driver/Src/stm32h7xx_ll_fmc.c **** }
 842              		.loc 1 735 1 view .LVU283
 843 0034 F8BD     		pop	{r3, r4, r5, r6, r7, pc}
 844              	.LVL53:
 845              	.L43:
ARM GAS  C:\Users\hh\AppData\Local\Temp\ccbNirFa.s 			page 29


 723:Drivers/STM32H7xx_HAL_Driver/Src/stm32h7xx_ll_fmc.c ****       }
 846              		.loc 1 723 16 view .LVU284
 847 0036 0320     		movs	r0, #3
 848 0038 FCE7     		b	.L41
 849              		.cfi_endproc
 850              	.LFE158:
 852              		.section	.text.FMC_SDRAM_Init,"ax",%progbits
 853              		.align	1
 854              		.global	FMC_SDRAM_Init
 855              		.syntax unified
 856              		.thumb
 857              		.thumb_func
 859              	FMC_SDRAM_Init:
 860              	.LVL54:
 861              	.LFB159:
 736:Drivers/STM32H7xx_HAL_Driver/Src/stm32h7xx_ll_fmc.c **** 
 737:Drivers/STM32H7xx_HAL_Driver/Src/stm32h7xx_ll_fmc.c **** /**
 738:Drivers/STM32H7xx_HAL_Driver/Src/stm32h7xx_ll_fmc.c ****   * @}
 739:Drivers/STM32H7xx_HAL_Driver/Src/stm32h7xx_ll_fmc.c ****   */
 740:Drivers/STM32H7xx_HAL_Driver/Src/stm32h7xx_ll_fmc.c **** 
 741:Drivers/STM32H7xx_HAL_Driver/Src/stm32h7xx_ll_fmc.c **** /** @defgroup FMC_LL_SDRAM
 742:Drivers/STM32H7xx_HAL_Driver/Src/stm32h7xx_ll_fmc.c ****   * @brief    SDRAM Controller functions
 743:Drivers/STM32H7xx_HAL_Driver/Src/stm32h7xx_ll_fmc.c ****   *
 744:Drivers/STM32H7xx_HAL_Driver/Src/stm32h7xx_ll_fmc.c ****   @verbatim
 745:Drivers/STM32H7xx_HAL_Driver/Src/stm32h7xx_ll_fmc.c ****   ==============================================================================
 746:Drivers/STM32H7xx_HAL_Driver/Src/stm32h7xx_ll_fmc.c ****                      ##### How to use SDRAM device driver #####
 747:Drivers/STM32H7xx_HAL_Driver/Src/stm32h7xx_ll_fmc.c ****   ==============================================================================
 748:Drivers/STM32H7xx_HAL_Driver/Src/stm32h7xx_ll_fmc.c ****   [..]
 749:Drivers/STM32H7xx_HAL_Driver/Src/stm32h7xx_ll_fmc.c ****     This driver contains a set of APIs to interface with the FMC SDRAM banks in order
 750:Drivers/STM32H7xx_HAL_Driver/Src/stm32h7xx_ll_fmc.c ****     to run the SDRAM external devices.
 751:Drivers/STM32H7xx_HAL_Driver/Src/stm32h7xx_ll_fmc.c **** 
 752:Drivers/STM32H7xx_HAL_Driver/Src/stm32h7xx_ll_fmc.c ****     (+) FMC SDRAM bank reset using the function FMC_SDRAM_DeInit()
 753:Drivers/STM32H7xx_HAL_Driver/Src/stm32h7xx_ll_fmc.c ****     (+) FMC SDRAM bank control configuration using the function FMC_SDRAM_Init()
 754:Drivers/STM32H7xx_HAL_Driver/Src/stm32h7xx_ll_fmc.c ****     (+) FMC SDRAM bank timing configuration using the function FMC_SDRAM_Timing_Init()
 755:Drivers/STM32H7xx_HAL_Driver/Src/stm32h7xx_ll_fmc.c ****     (+) FMC SDRAM bank enable/disable write operation using the functions
 756:Drivers/STM32H7xx_HAL_Driver/Src/stm32h7xx_ll_fmc.c ****         FMC_SDRAM_WriteOperation_Enable()/FMC_SDRAM_WriteOperation_Disable()
 757:Drivers/STM32H7xx_HAL_Driver/Src/stm32h7xx_ll_fmc.c ****     (+) FMC SDRAM bank send command using the function FMC_SDRAM_SendCommand()
 758:Drivers/STM32H7xx_HAL_Driver/Src/stm32h7xx_ll_fmc.c **** 
 759:Drivers/STM32H7xx_HAL_Driver/Src/stm32h7xx_ll_fmc.c **** @endverbatim
 760:Drivers/STM32H7xx_HAL_Driver/Src/stm32h7xx_ll_fmc.c ****   * @{
 761:Drivers/STM32H7xx_HAL_Driver/Src/stm32h7xx_ll_fmc.c ****   */
 762:Drivers/STM32H7xx_HAL_Driver/Src/stm32h7xx_ll_fmc.c **** 
 763:Drivers/STM32H7xx_HAL_Driver/Src/stm32h7xx_ll_fmc.c **** /** @addtogroup FMC_LL_SDRAM_Private_Functions_Group1
 764:Drivers/STM32H7xx_HAL_Driver/Src/stm32h7xx_ll_fmc.c ****   *  @brief    Initialization and Configuration functions
 765:Drivers/STM32H7xx_HAL_Driver/Src/stm32h7xx_ll_fmc.c ****   *
 766:Drivers/STM32H7xx_HAL_Driver/Src/stm32h7xx_ll_fmc.c **** @verbatim
 767:Drivers/STM32H7xx_HAL_Driver/Src/stm32h7xx_ll_fmc.c ****   ==============================================================================
 768:Drivers/STM32H7xx_HAL_Driver/Src/stm32h7xx_ll_fmc.c ****               ##### Initialization and de_initialization functions #####
 769:Drivers/STM32H7xx_HAL_Driver/Src/stm32h7xx_ll_fmc.c ****   ==============================================================================
 770:Drivers/STM32H7xx_HAL_Driver/Src/stm32h7xx_ll_fmc.c ****   [..]
 771:Drivers/STM32H7xx_HAL_Driver/Src/stm32h7xx_ll_fmc.c ****     This section provides functions allowing to:
 772:Drivers/STM32H7xx_HAL_Driver/Src/stm32h7xx_ll_fmc.c ****     (+) Initialize and configure the FMC SDRAM interface
 773:Drivers/STM32H7xx_HAL_Driver/Src/stm32h7xx_ll_fmc.c ****     (+) De-initialize the FMC SDRAM interface
 774:Drivers/STM32H7xx_HAL_Driver/Src/stm32h7xx_ll_fmc.c ****     (+) Configure the FMC clock and associated GPIOs
 775:Drivers/STM32H7xx_HAL_Driver/Src/stm32h7xx_ll_fmc.c **** 
 776:Drivers/STM32H7xx_HAL_Driver/Src/stm32h7xx_ll_fmc.c **** @endverbatim
 777:Drivers/STM32H7xx_HAL_Driver/Src/stm32h7xx_ll_fmc.c ****   * @{
ARM GAS  C:\Users\hh\AppData\Local\Temp\ccbNirFa.s 			page 30


 778:Drivers/STM32H7xx_HAL_Driver/Src/stm32h7xx_ll_fmc.c ****   */
 779:Drivers/STM32H7xx_HAL_Driver/Src/stm32h7xx_ll_fmc.c **** 
 780:Drivers/STM32H7xx_HAL_Driver/Src/stm32h7xx_ll_fmc.c **** /**
 781:Drivers/STM32H7xx_HAL_Driver/Src/stm32h7xx_ll_fmc.c ****   * @brief  Initializes the FMC_SDRAM device according to the specified
 782:Drivers/STM32H7xx_HAL_Driver/Src/stm32h7xx_ll_fmc.c ****   *         control parameters in the FMC_SDRAM_InitTypeDef
 783:Drivers/STM32H7xx_HAL_Driver/Src/stm32h7xx_ll_fmc.c ****   * @param  Device Pointer to SDRAM device instance
 784:Drivers/STM32H7xx_HAL_Driver/Src/stm32h7xx_ll_fmc.c ****   * @param  Init Pointer to SDRAM Initialization structure
 785:Drivers/STM32H7xx_HAL_Driver/Src/stm32h7xx_ll_fmc.c ****   * @retval HAL status
 786:Drivers/STM32H7xx_HAL_Driver/Src/stm32h7xx_ll_fmc.c ****   */
 787:Drivers/STM32H7xx_HAL_Driver/Src/stm32h7xx_ll_fmc.c **** HAL_StatusTypeDef FMC_SDRAM_Init(FMC_SDRAM_TypeDef *Device, const FMC_SDRAM_InitTypeDef *Init)
 788:Drivers/STM32H7xx_HAL_Driver/Src/stm32h7xx_ll_fmc.c **** {
 862              		.loc 1 788 1 is_stmt 1 view -0
 863              		.cfi_startproc
 864              		@ args = 0, pretend = 0, frame = 0
 865              		@ frame_needed = 0, uses_anonymous_args = 0
 866              		@ link register save eliminated.
 867              		.loc 1 788 1 is_stmt 0 view .LVU286
 868 0000 10B4     		push	{r4}
 869              	.LCFI8:
 870              		.cfi_def_cfa_offset 4
 871              		.cfi_offset 4, -4
 789:Drivers/STM32H7xx_HAL_Driver/Src/stm32h7xx_ll_fmc.c ****   /* Check the parameters */
 790:Drivers/STM32H7xx_HAL_Driver/Src/stm32h7xx_ll_fmc.c ****   assert_param(IS_FMC_SDRAM_DEVICE(Device));
 872              		.loc 1 790 3 is_stmt 1 view .LVU287
 791:Drivers/STM32H7xx_HAL_Driver/Src/stm32h7xx_ll_fmc.c ****   assert_param(IS_FMC_SDRAM_BANK(Init->SDBank));
 873              		.loc 1 791 3 view .LVU288
 792:Drivers/STM32H7xx_HAL_Driver/Src/stm32h7xx_ll_fmc.c ****   assert_param(IS_FMC_COLUMNBITS_NUMBER(Init->ColumnBitsNumber));
 874              		.loc 1 792 3 view .LVU289
 793:Drivers/STM32H7xx_HAL_Driver/Src/stm32h7xx_ll_fmc.c ****   assert_param(IS_FMC_ROWBITS_NUMBER(Init->RowBitsNumber));
 875              		.loc 1 793 3 view .LVU290
 794:Drivers/STM32H7xx_HAL_Driver/Src/stm32h7xx_ll_fmc.c ****   assert_param(IS_FMC_SDMEMORY_WIDTH(Init->MemoryDataWidth));
 876              		.loc 1 794 3 view .LVU291
 795:Drivers/STM32H7xx_HAL_Driver/Src/stm32h7xx_ll_fmc.c ****   assert_param(IS_FMC_INTERNALBANK_NUMBER(Init->InternalBankNumber));
 877              		.loc 1 795 3 view .LVU292
 796:Drivers/STM32H7xx_HAL_Driver/Src/stm32h7xx_ll_fmc.c ****   assert_param(IS_FMC_CAS_LATENCY(Init->CASLatency));
 878              		.loc 1 796 3 view .LVU293
 797:Drivers/STM32H7xx_HAL_Driver/Src/stm32h7xx_ll_fmc.c ****   assert_param(IS_FMC_WRITE_PROTECTION(Init->WriteProtection));
 879              		.loc 1 797 3 view .LVU294
 798:Drivers/STM32H7xx_HAL_Driver/Src/stm32h7xx_ll_fmc.c ****   assert_param(IS_FMC_SDCLOCK_PERIOD(Init->SDClockPeriod));
 880              		.loc 1 798 3 view .LVU295
 799:Drivers/STM32H7xx_HAL_Driver/Src/stm32h7xx_ll_fmc.c ****   assert_param(IS_FMC_READ_BURST(Init->ReadBurst));
 881              		.loc 1 799 3 view .LVU296
 800:Drivers/STM32H7xx_HAL_Driver/Src/stm32h7xx_ll_fmc.c ****   assert_param(IS_FMC_READPIPE_DELAY(Init->ReadPipeDelay));
 882              		.loc 1 800 3 view .LVU297
 801:Drivers/STM32H7xx_HAL_Driver/Src/stm32h7xx_ll_fmc.c **** 
 802:Drivers/STM32H7xx_HAL_Driver/Src/stm32h7xx_ll_fmc.c ****   /* Set SDRAM bank configuration parameters */
 803:Drivers/STM32H7xx_HAL_Driver/Src/stm32h7xx_ll_fmc.c ****   if (Init->SDBank == FMC_SDRAM_BANK1)
 883              		.loc 1 803 3 view .LVU298
 884              		.loc 1 803 11 is_stmt 0 view .LVU299
 885 0002 0B68     		ldr	r3, [r1]
 886              		.loc 1 803 6 view .LVU300
 887 0004 C3B9     		cbnz	r3, .L48
 804:Drivers/STM32H7xx_HAL_Driver/Src/stm32h7xx_ll_fmc.c ****   {
 805:Drivers/STM32H7xx_HAL_Driver/Src/stm32h7xx_ll_fmc.c ****     MODIFY_REG(Device->SDCR[FMC_SDRAM_BANK1],
 888              		.loc 1 805 5 is_stmt 1 view .LVU301
 889 0006 0268     		ldr	r2, [r0]
 890 0008 6FF30E02 		bfc	r2, #0, #15
ARM GAS  C:\Users\hh\AppData\Local\Temp\ccbNirFa.s 			page 31


 891 000c 4B68     		ldr	r3, [r1, #4]
 892 000e 8C68     		ldr	r4, [r1, #8]
 893 0010 2343     		orrs	r3, r3, r4
 894 0012 CC68     		ldr	r4, [r1, #12]
 895 0014 2343     		orrs	r3, r3, r4
 896 0016 0C69     		ldr	r4, [r1, #16]
 897 0018 2343     		orrs	r3, r3, r4
 898 001a 4C69     		ldr	r4, [r1, #20]
 899 001c 2343     		orrs	r3, r3, r4
 900 001e 8C69     		ldr	r4, [r1, #24]
 901 0020 2343     		orrs	r3, r3, r4
 902 0022 CC69     		ldr	r4, [r1, #28]
 903 0024 2343     		orrs	r3, r3, r4
 904 0026 0C6A     		ldr	r4, [r1, #32]
 905 0028 2343     		orrs	r3, r3, r4
 906 002a 496A     		ldr	r1, [r1, #36]
 907              	.LVL55:
 908              		.loc 1 805 5 is_stmt 0 view .LVU302
 909 002c 0B43     		orrs	r3, r3, r1
 910 002e 1343     		orrs	r3, r3, r2
 911 0030 0360     		str	r3, [r0]
 912              	.L49:
 806:Drivers/STM32H7xx_HAL_Driver/Src/stm32h7xx_ll_fmc.c ****                SDCR_CLEAR_MASK,
 807:Drivers/STM32H7xx_HAL_Driver/Src/stm32h7xx_ll_fmc.c ****                (Init->ColumnBitsNumber   |
 808:Drivers/STM32H7xx_HAL_Driver/Src/stm32h7xx_ll_fmc.c ****                 Init->RowBitsNumber      |
 809:Drivers/STM32H7xx_HAL_Driver/Src/stm32h7xx_ll_fmc.c ****                 Init->MemoryDataWidth    |
 810:Drivers/STM32H7xx_HAL_Driver/Src/stm32h7xx_ll_fmc.c ****                 Init->InternalBankNumber |
 811:Drivers/STM32H7xx_HAL_Driver/Src/stm32h7xx_ll_fmc.c ****                 Init->CASLatency         |
 812:Drivers/STM32H7xx_HAL_Driver/Src/stm32h7xx_ll_fmc.c ****                 Init->WriteProtection    |
 813:Drivers/STM32H7xx_HAL_Driver/Src/stm32h7xx_ll_fmc.c ****                 Init->SDClockPeriod      |
 814:Drivers/STM32H7xx_HAL_Driver/Src/stm32h7xx_ll_fmc.c ****                 Init->ReadBurst          |
 815:Drivers/STM32H7xx_HAL_Driver/Src/stm32h7xx_ll_fmc.c ****                 Init->ReadPipeDelay));
 816:Drivers/STM32H7xx_HAL_Driver/Src/stm32h7xx_ll_fmc.c ****   }
 817:Drivers/STM32H7xx_HAL_Driver/Src/stm32h7xx_ll_fmc.c ****   else /* FMC_Bank2_SDRAM */
 818:Drivers/STM32H7xx_HAL_Driver/Src/stm32h7xx_ll_fmc.c ****   {
 819:Drivers/STM32H7xx_HAL_Driver/Src/stm32h7xx_ll_fmc.c ****     MODIFY_REG(Device->SDCR[FMC_SDRAM_BANK1],
 820:Drivers/STM32H7xx_HAL_Driver/Src/stm32h7xx_ll_fmc.c ****                FMC_SDCRx_SDCLK           |
 821:Drivers/STM32H7xx_HAL_Driver/Src/stm32h7xx_ll_fmc.c ****                FMC_SDCRx_RBURST          |
 822:Drivers/STM32H7xx_HAL_Driver/Src/stm32h7xx_ll_fmc.c ****                FMC_SDCRx_RPIPE,
 823:Drivers/STM32H7xx_HAL_Driver/Src/stm32h7xx_ll_fmc.c ****                (Init->SDClockPeriod      |
 824:Drivers/STM32H7xx_HAL_Driver/Src/stm32h7xx_ll_fmc.c ****                 Init->ReadBurst          |
 825:Drivers/STM32H7xx_HAL_Driver/Src/stm32h7xx_ll_fmc.c ****                 Init->ReadPipeDelay));
 826:Drivers/STM32H7xx_HAL_Driver/Src/stm32h7xx_ll_fmc.c **** 
 827:Drivers/STM32H7xx_HAL_Driver/Src/stm32h7xx_ll_fmc.c ****     MODIFY_REG(Device->SDCR[FMC_SDRAM_BANK2],
 828:Drivers/STM32H7xx_HAL_Driver/Src/stm32h7xx_ll_fmc.c ****                SDCR_CLEAR_MASK,
 829:Drivers/STM32H7xx_HAL_Driver/Src/stm32h7xx_ll_fmc.c ****                (Init->ColumnBitsNumber   |
 830:Drivers/STM32H7xx_HAL_Driver/Src/stm32h7xx_ll_fmc.c ****                 Init->RowBitsNumber      |
 831:Drivers/STM32H7xx_HAL_Driver/Src/stm32h7xx_ll_fmc.c ****                 Init->MemoryDataWidth    |
 832:Drivers/STM32H7xx_HAL_Driver/Src/stm32h7xx_ll_fmc.c ****                 Init->InternalBankNumber |
 833:Drivers/STM32H7xx_HAL_Driver/Src/stm32h7xx_ll_fmc.c ****                 Init->CASLatency         |
 834:Drivers/STM32H7xx_HAL_Driver/Src/stm32h7xx_ll_fmc.c ****                 Init->WriteProtection));
 835:Drivers/STM32H7xx_HAL_Driver/Src/stm32h7xx_ll_fmc.c ****   }
 836:Drivers/STM32H7xx_HAL_Driver/Src/stm32h7xx_ll_fmc.c **** 
 837:Drivers/STM32H7xx_HAL_Driver/Src/stm32h7xx_ll_fmc.c ****   return HAL_OK;
 913              		.loc 1 837 3 is_stmt 1 view .LVU303
 838:Drivers/STM32H7xx_HAL_Driver/Src/stm32h7xx_ll_fmc.c **** }
 914              		.loc 1 838 1 is_stmt 0 view .LVU304
ARM GAS  C:\Users\hh\AppData\Local\Temp\ccbNirFa.s 			page 32


 915 0032 0020     		movs	r0, #0
 916              	.LVL56:
 917              		.loc 1 838 1 view .LVU305
 918 0034 10BC     		pop	{r4}
 919              	.LCFI9:
 920              		.cfi_remember_state
 921              		.cfi_restore 4
 922              		.cfi_def_cfa_offset 0
 923 0036 7047     		bx	lr
 924              	.LVL57:
 925              	.L48:
 926              	.LCFI10:
 927              		.cfi_restore_state
 819:Drivers/STM32H7xx_HAL_Driver/Src/stm32h7xx_ll_fmc.c ****                FMC_SDCRx_SDCLK           |
 928              		.loc 1 819 5 is_stmt 1 view .LVU306
 929 0038 0368     		ldr	r3, [r0]
 930 003a 23F4F843 		bic	r3, r3, #31744
 931 003e CA69     		ldr	r2, [r1, #28]
 932 0040 0C6A     		ldr	r4, [r1, #32]
 933 0042 2243     		orrs	r2, r2, r4
 934 0044 4C6A     		ldr	r4, [r1, #36]
 935 0046 2243     		orrs	r2, r2, r4
 936 0048 1343     		orrs	r3, r3, r2
 937 004a 0360     		str	r3, [r0]
 827:Drivers/STM32H7xx_HAL_Driver/Src/stm32h7xx_ll_fmc.c ****                SDCR_CLEAR_MASK,
 938              		.loc 1 827 5 view .LVU307
 939 004c 4268     		ldr	r2, [r0, #4]
 940 004e 6FF30E02 		bfc	r2, #0, #15
 941 0052 4B68     		ldr	r3, [r1, #4]
 942 0054 8C68     		ldr	r4, [r1, #8]
 943 0056 2343     		orrs	r3, r3, r4
 944 0058 CC68     		ldr	r4, [r1, #12]
 945 005a 2343     		orrs	r3, r3, r4
 946 005c 0C69     		ldr	r4, [r1, #16]
 947 005e 2343     		orrs	r3, r3, r4
 948 0060 4C69     		ldr	r4, [r1, #20]
 949 0062 2343     		orrs	r3, r3, r4
 950 0064 8969     		ldr	r1, [r1, #24]
 951              	.LVL58:
 827:Drivers/STM32H7xx_HAL_Driver/Src/stm32h7xx_ll_fmc.c ****                SDCR_CLEAR_MASK,
 952              		.loc 1 827 5 is_stmt 0 view .LVU308
 953 0066 0B43     		orrs	r3, r3, r1
 954 0068 1343     		orrs	r3, r3, r2
 955 006a 4360     		str	r3, [r0, #4]
 956 006c E1E7     		b	.L49
 957              		.cfi_endproc
 958              	.LFE159:
 960              		.section	.text.FMC_SDRAM_Timing_Init,"ax",%progbits
 961              		.align	1
 962              		.global	FMC_SDRAM_Timing_Init
 963              		.syntax unified
 964              		.thumb
 965              		.thumb_func
 967              	FMC_SDRAM_Timing_Init:
 968              	.LVL59:
 969              	.LFB160:
 839:Drivers/STM32H7xx_HAL_Driver/Src/stm32h7xx_ll_fmc.c **** 
ARM GAS  C:\Users\hh\AppData\Local\Temp\ccbNirFa.s 			page 33


 840:Drivers/STM32H7xx_HAL_Driver/Src/stm32h7xx_ll_fmc.c **** 
 841:Drivers/STM32H7xx_HAL_Driver/Src/stm32h7xx_ll_fmc.c **** /**
 842:Drivers/STM32H7xx_HAL_Driver/Src/stm32h7xx_ll_fmc.c ****   * @brief  Initializes the FMC_SDRAM device timing according to the specified
 843:Drivers/STM32H7xx_HAL_Driver/Src/stm32h7xx_ll_fmc.c ****   *         parameters in the FMC_SDRAM_TimingTypeDef
 844:Drivers/STM32H7xx_HAL_Driver/Src/stm32h7xx_ll_fmc.c ****   * @param  Device Pointer to SDRAM device instance
 845:Drivers/STM32H7xx_HAL_Driver/Src/stm32h7xx_ll_fmc.c ****   * @param  Timing Pointer to SDRAM Timing structure
 846:Drivers/STM32H7xx_HAL_Driver/Src/stm32h7xx_ll_fmc.c ****   * @param  Bank SDRAM bank number
 847:Drivers/STM32H7xx_HAL_Driver/Src/stm32h7xx_ll_fmc.c ****   * @retval HAL status
 848:Drivers/STM32H7xx_HAL_Driver/Src/stm32h7xx_ll_fmc.c ****   */
 849:Drivers/STM32H7xx_HAL_Driver/Src/stm32h7xx_ll_fmc.c **** HAL_StatusTypeDef FMC_SDRAM_Timing_Init(FMC_SDRAM_TypeDef *Device,
 850:Drivers/STM32H7xx_HAL_Driver/Src/stm32h7xx_ll_fmc.c ****                                         const FMC_SDRAM_TimingTypeDef *Timing, uint32_t Bank)
 851:Drivers/STM32H7xx_HAL_Driver/Src/stm32h7xx_ll_fmc.c **** {
 970              		.loc 1 851 1 is_stmt 1 view -0
 971              		.cfi_startproc
 972              		@ args = 0, pretend = 0, frame = 0
 973              		@ frame_needed = 0, uses_anonymous_args = 0
 974              		@ link register save eliminated.
 975              		.loc 1 851 1 is_stmt 0 view .LVU310
 976 0000 10B4     		push	{r4}
 977              	.LCFI11:
 978              		.cfi_def_cfa_offset 4
 979              		.cfi_offset 4, -4
 852:Drivers/STM32H7xx_HAL_Driver/Src/stm32h7xx_ll_fmc.c ****   /* Check the parameters */
 853:Drivers/STM32H7xx_HAL_Driver/Src/stm32h7xx_ll_fmc.c ****   assert_param(IS_FMC_SDRAM_DEVICE(Device));
 980              		.loc 1 853 3 is_stmt 1 view .LVU311
 854:Drivers/STM32H7xx_HAL_Driver/Src/stm32h7xx_ll_fmc.c ****   assert_param(IS_FMC_LOADTOACTIVE_DELAY(Timing->LoadToActiveDelay));
 981              		.loc 1 854 3 view .LVU312
 855:Drivers/STM32H7xx_HAL_Driver/Src/stm32h7xx_ll_fmc.c ****   assert_param(IS_FMC_EXITSELFREFRESH_DELAY(Timing->ExitSelfRefreshDelay));
 982              		.loc 1 855 3 view .LVU313
 856:Drivers/STM32H7xx_HAL_Driver/Src/stm32h7xx_ll_fmc.c ****   assert_param(IS_FMC_SELFREFRESH_TIME(Timing->SelfRefreshTime));
 983              		.loc 1 856 3 view .LVU314
 857:Drivers/STM32H7xx_HAL_Driver/Src/stm32h7xx_ll_fmc.c ****   assert_param(IS_FMC_ROWCYCLE_DELAY(Timing->RowCycleDelay));
 984              		.loc 1 857 3 view .LVU315
 858:Drivers/STM32H7xx_HAL_Driver/Src/stm32h7xx_ll_fmc.c ****   assert_param(IS_FMC_WRITE_RECOVERY_TIME(Timing->WriteRecoveryTime));
 985              		.loc 1 858 3 view .LVU316
 859:Drivers/STM32H7xx_HAL_Driver/Src/stm32h7xx_ll_fmc.c ****   assert_param(IS_FMC_RP_DELAY(Timing->RPDelay));
 986              		.loc 1 859 3 view .LVU317
 860:Drivers/STM32H7xx_HAL_Driver/Src/stm32h7xx_ll_fmc.c ****   assert_param(IS_FMC_RCD_DELAY(Timing->RCDDelay));
 987              		.loc 1 860 3 view .LVU318
 861:Drivers/STM32H7xx_HAL_Driver/Src/stm32h7xx_ll_fmc.c ****   assert_param(IS_FMC_SDRAM_BANK(Bank));
 988              		.loc 1 861 3 view .LVU319
 862:Drivers/STM32H7xx_HAL_Driver/Src/stm32h7xx_ll_fmc.c **** 
 863:Drivers/STM32H7xx_HAL_Driver/Src/stm32h7xx_ll_fmc.c ****   /* Set SDRAM device timing parameters */
 864:Drivers/STM32H7xx_HAL_Driver/Src/stm32h7xx_ll_fmc.c ****   if (Bank == FMC_SDRAM_BANK1)
 989              		.loc 1 864 3 view .LVU320
 990              		.loc 1 864 6 is_stmt 0 view .LVU321
 991 0002 32BB     		cbnz	r2, .L52
 865:Drivers/STM32H7xx_HAL_Driver/Src/stm32h7xx_ll_fmc.c ****   {
 866:Drivers/STM32H7xx_HAL_Driver/Src/stm32h7xx_ll_fmc.c ****     MODIFY_REG(Device->SDTR[FMC_SDRAM_BANK1],
 992              		.loc 1 866 5 is_stmt 1 view .LVU322
 993 0004 8268     		ldr	r2, [r0, #8]
 994              	.LVL60:
 995              		.loc 1 866 5 is_stmt 0 view .LVU323
 996 0006 02F07042 		and	r2, r2, #-268435456
 997 000a 0B68     		ldr	r3, [r1]
 998 000c 013B     		subs	r3, r3, #1
 999 000e 4C68     		ldr	r4, [r1, #4]
ARM GAS  C:\Users\hh\AppData\Local\Temp\ccbNirFa.s 			page 34


 1000 0010 04F1FF3C 		add	ip, r4, #-1
 1001 0014 43EA0C13 		orr	r3, r3, ip, lsl #4
 1002 0018 8C68     		ldr	r4, [r1, #8]
 1003 001a 04F1FF3C 		add	ip, r4, #-1
 1004 001e 43EA0C23 		orr	r3, r3, ip, lsl #8
 1005 0022 CC68     		ldr	r4, [r1, #12]
 1006 0024 04F1FF3C 		add	ip, r4, #-1
 1007 0028 43EA0C33 		orr	r3, r3, ip, lsl #12
 1008 002c 0C69     		ldr	r4, [r1, #16]
 1009 002e 04F1FF3C 		add	ip, r4, #-1
 1010 0032 43EA0C43 		orr	r3, r3, ip, lsl #16
 1011 0036 4C69     		ldr	r4, [r1, #20]
 1012 0038 04F1FF3C 		add	ip, r4, #-1
 1013 003c 43EA0C53 		orr	r3, r3, ip, lsl #20
 1014 0040 8969     		ldr	r1, [r1, #24]
 1015              	.LVL61:
 1016              		.loc 1 866 5 view .LVU324
 1017 0042 0139     		subs	r1, r1, #1
 1018 0044 43EA0163 		orr	r3, r3, r1, lsl #24
 1019 0048 1343     		orrs	r3, r3, r2
 1020 004a 8360     		str	r3, [r0, #8]
 1021              	.L53:
 867:Drivers/STM32H7xx_HAL_Driver/Src/stm32h7xx_ll_fmc.c ****                SDTR_CLEAR_MASK,
 868:Drivers/STM32H7xx_HAL_Driver/Src/stm32h7xx_ll_fmc.c ****                (((Timing->LoadToActiveDelay) - 1U)                                      |
 869:Drivers/STM32H7xx_HAL_Driver/Src/stm32h7xx_ll_fmc.c ****                 (((Timing->ExitSelfRefreshDelay) - 1U) << FMC_SDTRx_TXSR_Pos) |
 870:Drivers/STM32H7xx_HAL_Driver/Src/stm32h7xx_ll_fmc.c ****                 (((Timing->SelfRefreshTime) - 1U)      << FMC_SDTRx_TRAS_Pos) |
 871:Drivers/STM32H7xx_HAL_Driver/Src/stm32h7xx_ll_fmc.c ****                 (((Timing->RowCycleDelay) - 1U)        << FMC_SDTRx_TRC_Pos)  |
 872:Drivers/STM32H7xx_HAL_Driver/Src/stm32h7xx_ll_fmc.c ****                 (((Timing->WriteRecoveryTime) - 1U)    << FMC_SDTRx_TWR_Pos)  |
 873:Drivers/STM32H7xx_HAL_Driver/Src/stm32h7xx_ll_fmc.c ****                 (((Timing->RPDelay) - 1U)              << FMC_SDTRx_TRP_Pos)  |
 874:Drivers/STM32H7xx_HAL_Driver/Src/stm32h7xx_ll_fmc.c ****                 (((Timing->RCDDelay) - 1U)             << FMC_SDTRx_TRCD_Pos)));
 875:Drivers/STM32H7xx_HAL_Driver/Src/stm32h7xx_ll_fmc.c ****   }
 876:Drivers/STM32H7xx_HAL_Driver/Src/stm32h7xx_ll_fmc.c ****   else /* FMC_Bank2_SDRAM */
 877:Drivers/STM32H7xx_HAL_Driver/Src/stm32h7xx_ll_fmc.c ****   {
 878:Drivers/STM32H7xx_HAL_Driver/Src/stm32h7xx_ll_fmc.c ****     MODIFY_REG(Device->SDTR[FMC_SDRAM_BANK1],
 879:Drivers/STM32H7xx_HAL_Driver/Src/stm32h7xx_ll_fmc.c ****                FMC_SDTRx_TRC |
 880:Drivers/STM32H7xx_HAL_Driver/Src/stm32h7xx_ll_fmc.c ****                FMC_SDTRx_TRP,
 881:Drivers/STM32H7xx_HAL_Driver/Src/stm32h7xx_ll_fmc.c ****                (((Timing->RowCycleDelay) - 1U)         << FMC_SDTRx_TRC_Pos)  |
 882:Drivers/STM32H7xx_HAL_Driver/Src/stm32h7xx_ll_fmc.c ****                (((Timing->RPDelay) - 1U)               << FMC_SDTRx_TRP_Pos));
 883:Drivers/STM32H7xx_HAL_Driver/Src/stm32h7xx_ll_fmc.c **** 
 884:Drivers/STM32H7xx_HAL_Driver/Src/stm32h7xx_ll_fmc.c ****     MODIFY_REG(Device->SDTR[FMC_SDRAM_BANK2],
 885:Drivers/STM32H7xx_HAL_Driver/Src/stm32h7xx_ll_fmc.c ****                SDTR_CLEAR_MASK,
 886:Drivers/STM32H7xx_HAL_Driver/Src/stm32h7xx_ll_fmc.c ****                (((Timing->LoadToActiveDelay) - 1U)                                      |
 887:Drivers/STM32H7xx_HAL_Driver/Src/stm32h7xx_ll_fmc.c ****                 (((Timing->ExitSelfRefreshDelay) - 1U) << FMC_SDTRx_TXSR_Pos) |
 888:Drivers/STM32H7xx_HAL_Driver/Src/stm32h7xx_ll_fmc.c ****                 (((Timing->SelfRefreshTime) - 1U)      << FMC_SDTRx_TRAS_Pos) |
 889:Drivers/STM32H7xx_HAL_Driver/Src/stm32h7xx_ll_fmc.c ****                 (((Timing->WriteRecoveryTime) - 1U)    << FMC_SDTRx_TWR_Pos)  |
 890:Drivers/STM32H7xx_HAL_Driver/Src/stm32h7xx_ll_fmc.c ****                 (((Timing->RCDDelay) - 1U)             << FMC_SDTRx_TRCD_Pos)));
 891:Drivers/STM32H7xx_HAL_Driver/Src/stm32h7xx_ll_fmc.c ****   }
 892:Drivers/STM32H7xx_HAL_Driver/Src/stm32h7xx_ll_fmc.c **** 
 893:Drivers/STM32H7xx_HAL_Driver/Src/stm32h7xx_ll_fmc.c ****   return HAL_OK;
 1022              		.loc 1 893 3 is_stmt 1 view .LVU325
 894:Drivers/STM32H7xx_HAL_Driver/Src/stm32h7xx_ll_fmc.c **** }
 1023              		.loc 1 894 1 is_stmt 0 view .LVU326
 1024 004c 0020     		movs	r0, #0
 1025              	.LVL62:
 1026              		.loc 1 894 1 view .LVU327
 1027 004e 10BC     		pop	{r4}
 1028              	.LCFI12:
ARM GAS  C:\Users\hh\AppData\Local\Temp\ccbNirFa.s 			page 35


 1029              		.cfi_remember_state
 1030              		.cfi_restore 4
 1031              		.cfi_def_cfa_offset 0
 1032 0050 7047     		bx	lr
 1033              	.LVL63:
 1034              	.L52:
 1035              	.LCFI13:
 1036              		.cfi_restore_state
 878:Drivers/STM32H7xx_HAL_Driver/Src/stm32h7xx_ll_fmc.c ****                FMC_SDTRx_TRC |
 1037              		.loc 1 878 5 is_stmt 1 view .LVU328
 1038 0052 8368     		ldr	r3, [r0, #8]
 1039 0054 134A     		ldr	r2, .L55
 1040              	.LVL64:
 878:Drivers/STM32H7xx_HAL_Driver/Src/stm32h7xx_ll_fmc.c ****                FMC_SDTRx_TRC |
 1041              		.loc 1 878 5 is_stmt 0 view .LVU329
 1042 0056 1A40     		ands	r2, r2, r3
 1043 0058 CB68     		ldr	r3, [r1, #12]
 1044 005a 03F1FF3C 		add	ip, r3, #-1
 1045 005e 4B69     		ldr	r3, [r1, #20]
 1046 0060 013B     		subs	r3, r3, #1
 1047 0062 1B05     		lsls	r3, r3, #20
 1048 0064 43EA0C33 		orr	r3, r3, ip, lsl #12
 1049 0068 1A43     		orrs	r2, r2, r3
 1050 006a 8260     		str	r2, [r0, #8]
 884:Drivers/STM32H7xx_HAL_Driver/Src/stm32h7xx_ll_fmc.c ****                SDTR_CLEAR_MASK,
 1051              		.loc 1 884 5 is_stmt 1 view .LVU330
 1052 006c C268     		ldr	r2, [r0, #12]
 1053 006e 02F07042 		and	r2, r2, #-268435456
 1054 0072 0B68     		ldr	r3, [r1]
 1055 0074 013B     		subs	r3, r3, #1
 1056 0076 4C68     		ldr	r4, [r1, #4]
 1057 0078 04F1FF3C 		add	ip, r4, #-1
 1058 007c 43EA0C13 		orr	r3, r3, ip, lsl #4
 1059 0080 8C68     		ldr	r4, [r1, #8]
 1060 0082 04F1FF3C 		add	ip, r4, #-1
 1061 0086 43EA0C23 		orr	r3, r3, ip, lsl #8
 1062 008a 0C69     		ldr	r4, [r1, #16]
 1063 008c 04F1FF3C 		add	ip, r4, #-1
 1064 0090 43EA0C43 		orr	r3, r3, ip, lsl #16
 1065 0094 8969     		ldr	r1, [r1, #24]
 1066              	.LVL65:
 884:Drivers/STM32H7xx_HAL_Driver/Src/stm32h7xx_ll_fmc.c ****                SDTR_CLEAR_MASK,
 1067              		.loc 1 884 5 is_stmt 0 view .LVU331
 1068 0096 0139     		subs	r1, r1, #1
 1069 0098 43EA0163 		orr	r3, r3, r1, lsl #24
 1070 009c 1343     		orrs	r3, r3, r2
 1071 009e C360     		str	r3, [r0, #12]
 1072 00a0 D4E7     		b	.L53
 1073              	.L56:
 1074 00a2 00BF     		.align	2
 1075              	.L55:
 1076 00a4 FF0F0FFF 		.word	-15790081
 1077              		.cfi_endproc
 1078              	.LFE160:
 1080              		.section	.text.FMC_SDRAM_DeInit,"ax",%progbits
 1081              		.align	1
 1082              		.global	FMC_SDRAM_DeInit
ARM GAS  C:\Users\hh\AppData\Local\Temp\ccbNirFa.s 			page 36


 1083              		.syntax unified
 1084              		.thumb
 1085              		.thumb_func
 1087              	FMC_SDRAM_DeInit:
 1088              	.LVL66:
 1089              	.LFB161:
 895:Drivers/STM32H7xx_HAL_Driver/Src/stm32h7xx_ll_fmc.c **** 
 896:Drivers/STM32H7xx_HAL_Driver/Src/stm32h7xx_ll_fmc.c **** /**
 897:Drivers/STM32H7xx_HAL_Driver/Src/stm32h7xx_ll_fmc.c ****   * @brief  DeInitializes the FMC_SDRAM peripheral
 898:Drivers/STM32H7xx_HAL_Driver/Src/stm32h7xx_ll_fmc.c ****   * @param  Device Pointer to SDRAM device instance
 899:Drivers/STM32H7xx_HAL_Driver/Src/stm32h7xx_ll_fmc.c ****   * @retval HAL status
 900:Drivers/STM32H7xx_HAL_Driver/Src/stm32h7xx_ll_fmc.c ****   */
 901:Drivers/STM32H7xx_HAL_Driver/Src/stm32h7xx_ll_fmc.c **** HAL_StatusTypeDef FMC_SDRAM_DeInit(FMC_SDRAM_TypeDef *Device, uint32_t Bank)
 902:Drivers/STM32H7xx_HAL_Driver/Src/stm32h7xx_ll_fmc.c **** {
 1090              		.loc 1 902 1 is_stmt 1 view -0
 1091              		.cfi_startproc
 1092              		@ args = 0, pretend = 0, frame = 0
 1093              		@ frame_needed = 0, uses_anonymous_args = 0
 1094              		@ link register save eliminated.
 1095              		.loc 1 902 1 is_stmt 0 view .LVU333
 1096 0000 0346     		mov	r3, r0
 903:Drivers/STM32H7xx_HAL_Driver/Src/stm32h7xx_ll_fmc.c ****   /* Check the parameters */
 904:Drivers/STM32H7xx_HAL_Driver/Src/stm32h7xx_ll_fmc.c ****   assert_param(IS_FMC_SDRAM_DEVICE(Device));
 1097              		.loc 1 904 3 is_stmt 1 view .LVU334
 905:Drivers/STM32H7xx_HAL_Driver/Src/stm32h7xx_ll_fmc.c ****   assert_param(IS_FMC_SDRAM_BANK(Bank));
 1098              		.loc 1 905 3 view .LVU335
 906:Drivers/STM32H7xx_HAL_Driver/Src/stm32h7xx_ll_fmc.c **** 
 907:Drivers/STM32H7xx_HAL_Driver/Src/stm32h7xx_ll_fmc.c ****   /* De-initialize the SDRAM device */
 908:Drivers/STM32H7xx_HAL_Driver/Src/stm32h7xx_ll_fmc.c ****   Device->SDCR[Bank] = 0x000002D0U;
 1099              		.loc 1 908 3 view .LVU336
 1100              		.loc 1 908 22 is_stmt 0 view .LVU337
 1101 0002 4FF43472 		mov	r2, #720
 1102 0006 40F82120 		str	r2, [r0, r1, lsl #2]
 909:Drivers/STM32H7xx_HAL_Driver/Src/stm32h7xx_ll_fmc.c ****   Device->SDTR[Bank] = 0x0FFFFFFFU;
 1103              		.loc 1 909 3 is_stmt 1 view .LVU338
 1104              		.loc 1 909 22 is_stmt 0 view .LVU339
 1105 000a 0231     		adds	r1, r1, #2
 1106              	.LVL67:
 1107              		.loc 1 909 22 view .LVU340
 1108 000c 6FF07042 		mvn	r2, #-268435456
 1109 0010 40F82120 		str	r2, [r0, r1, lsl #2]
 910:Drivers/STM32H7xx_HAL_Driver/Src/stm32h7xx_ll_fmc.c ****   Device->SDCMR      = 0x00000000U;
 1110              		.loc 1 910 3 is_stmt 1 view .LVU341
 1111              		.loc 1 910 22 is_stmt 0 view .LVU342
 1112 0014 0020     		movs	r0, #0
 1113              	.LVL68:
 1114              		.loc 1 910 22 view .LVU343
 1115 0016 1861     		str	r0, [r3, #16]
 911:Drivers/STM32H7xx_HAL_Driver/Src/stm32h7xx_ll_fmc.c ****   Device->SDRTR      = 0x00000000U;
 1116              		.loc 1 911 3 is_stmt 1 view .LVU344
 1117              		.loc 1 911 22 is_stmt 0 view .LVU345
 1118 0018 5861     		str	r0, [r3, #20]
 912:Drivers/STM32H7xx_HAL_Driver/Src/stm32h7xx_ll_fmc.c ****   Device->SDSR       = 0x00000000U;
 1119              		.loc 1 912 3 is_stmt 1 view .LVU346
 1120              		.loc 1 912 22 is_stmt 0 view .LVU347
 1121 001a 9861     		str	r0, [r3, #24]
 913:Drivers/STM32H7xx_HAL_Driver/Src/stm32h7xx_ll_fmc.c **** 
ARM GAS  C:\Users\hh\AppData\Local\Temp\ccbNirFa.s 			page 37


 914:Drivers/STM32H7xx_HAL_Driver/Src/stm32h7xx_ll_fmc.c ****   return HAL_OK;
 1122              		.loc 1 914 3 is_stmt 1 view .LVU348
 915:Drivers/STM32H7xx_HAL_Driver/Src/stm32h7xx_ll_fmc.c **** }
 1123              		.loc 1 915 1 is_stmt 0 view .LVU349
 1124 001c 7047     		bx	lr
 1125              		.cfi_endproc
 1126              	.LFE161:
 1128              		.section	.text.FMC_SDRAM_WriteProtection_Enable,"ax",%progbits
 1129              		.align	1
 1130              		.global	FMC_SDRAM_WriteProtection_Enable
 1131              		.syntax unified
 1132              		.thumb
 1133              		.thumb_func
 1135              	FMC_SDRAM_WriteProtection_Enable:
 1136              	.LVL69:
 1137              	.LFB162:
 916:Drivers/STM32H7xx_HAL_Driver/Src/stm32h7xx_ll_fmc.c **** 
 917:Drivers/STM32H7xx_HAL_Driver/Src/stm32h7xx_ll_fmc.c **** /**
 918:Drivers/STM32H7xx_HAL_Driver/Src/stm32h7xx_ll_fmc.c ****   * @}
 919:Drivers/STM32H7xx_HAL_Driver/Src/stm32h7xx_ll_fmc.c ****   */
 920:Drivers/STM32H7xx_HAL_Driver/Src/stm32h7xx_ll_fmc.c **** 
 921:Drivers/STM32H7xx_HAL_Driver/Src/stm32h7xx_ll_fmc.c **** /** @addtogroup FMC_LL_SDRAMPrivate_Functions_Group2
 922:Drivers/STM32H7xx_HAL_Driver/Src/stm32h7xx_ll_fmc.c ****   *  @brief   management functions
 923:Drivers/STM32H7xx_HAL_Driver/Src/stm32h7xx_ll_fmc.c ****   *
 924:Drivers/STM32H7xx_HAL_Driver/Src/stm32h7xx_ll_fmc.c **** @verbatim
 925:Drivers/STM32H7xx_HAL_Driver/Src/stm32h7xx_ll_fmc.c ****   ==============================================================================
 926:Drivers/STM32H7xx_HAL_Driver/Src/stm32h7xx_ll_fmc.c ****                       ##### FMC_SDRAM Control functions #####
 927:Drivers/STM32H7xx_HAL_Driver/Src/stm32h7xx_ll_fmc.c ****   ==============================================================================
 928:Drivers/STM32H7xx_HAL_Driver/Src/stm32h7xx_ll_fmc.c ****   [..]
 929:Drivers/STM32H7xx_HAL_Driver/Src/stm32h7xx_ll_fmc.c ****     This subsection provides a set of functions allowing to control dynamically
 930:Drivers/STM32H7xx_HAL_Driver/Src/stm32h7xx_ll_fmc.c ****     the FMC SDRAM interface.
 931:Drivers/STM32H7xx_HAL_Driver/Src/stm32h7xx_ll_fmc.c **** 
 932:Drivers/STM32H7xx_HAL_Driver/Src/stm32h7xx_ll_fmc.c **** @endverbatim
 933:Drivers/STM32H7xx_HAL_Driver/Src/stm32h7xx_ll_fmc.c ****   * @{
 934:Drivers/STM32H7xx_HAL_Driver/Src/stm32h7xx_ll_fmc.c ****   */
 935:Drivers/STM32H7xx_HAL_Driver/Src/stm32h7xx_ll_fmc.c **** 
 936:Drivers/STM32H7xx_HAL_Driver/Src/stm32h7xx_ll_fmc.c **** /**
 937:Drivers/STM32H7xx_HAL_Driver/Src/stm32h7xx_ll_fmc.c ****   * @brief  Enables dynamically FMC_SDRAM write protection.
 938:Drivers/STM32H7xx_HAL_Driver/Src/stm32h7xx_ll_fmc.c ****   * @param  Device Pointer to SDRAM device instance
 939:Drivers/STM32H7xx_HAL_Driver/Src/stm32h7xx_ll_fmc.c ****   * @param  Bank SDRAM bank number
 940:Drivers/STM32H7xx_HAL_Driver/Src/stm32h7xx_ll_fmc.c ****   * @retval HAL status
 941:Drivers/STM32H7xx_HAL_Driver/Src/stm32h7xx_ll_fmc.c ****   */
 942:Drivers/STM32H7xx_HAL_Driver/Src/stm32h7xx_ll_fmc.c **** HAL_StatusTypeDef FMC_SDRAM_WriteProtection_Enable(FMC_SDRAM_TypeDef *Device, uint32_t Bank)
 943:Drivers/STM32H7xx_HAL_Driver/Src/stm32h7xx_ll_fmc.c **** {
 1138              		.loc 1 943 1 is_stmt 1 view -0
 1139              		.cfi_startproc
 1140              		@ args = 0, pretend = 0, frame = 0
 1141              		@ frame_needed = 0, uses_anonymous_args = 0
 1142              		@ link register save eliminated.
 944:Drivers/STM32H7xx_HAL_Driver/Src/stm32h7xx_ll_fmc.c ****   /* Check the parameters */
 945:Drivers/STM32H7xx_HAL_Driver/Src/stm32h7xx_ll_fmc.c ****   assert_param(IS_FMC_SDRAM_DEVICE(Device));
 1143              		.loc 1 945 3 view .LVU351
 946:Drivers/STM32H7xx_HAL_Driver/Src/stm32h7xx_ll_fmc.c ****   assert_param(IS_FMC_SDRAM_BANK(Bank));
 1144              		.loc 1 946 3 view .LVU352
 947:Drivers/STM32H7xx_HAL_Driver/Src/stm32h7xx_ll_fmc.c **** 
 948:Drivers/STM32H7xx_HAL_Driver/Src/stm32h7xx_ll_fmc.c ****   /* Enable write protection */
 949:Drivers/STM32H7xx_HAL_Driver/Src/stm32h7xx_ll_fmc.c ****   SET_BIT(Device->SDCR[Bank], FMC_SDRAM_WRITE_PROTECTION_ENABLE);
ARM GAS  C:\Users\hh\AppData\Local\Temp\ccbNirFa.s 			page 38


 1145              		.loc 1 949 3 view .LVU353
 1146 0000 50F82130 		ldr	r3, [r0, r1, lsl #2]
 1147 0004 43F40073 		orr	r3, r3, #512
 1148 0008 40F82130 		str	r3, [r0, r1, lsl #2]
 950:Drivers/STM32H7xx_HAL_Driver/Src/stm32h7xx_ll_fmc.c **** 
 951:Drivers/STM32H7xx_HAL_Driver/Src/stm32h7xx_ll_fmc.c ****   return HAL_OK;
 1149              		.loc 1 951 3 view .LVU354
 952:Drivers/STM32H7xx_HAL_Driver/Src/stm32h7xx_ll_fmc.c **** }
 1150              		.loc 1 952 1 is_stmt 0 view .LVU355
 1151 000c 0020     		movs	r0, #0
 1152              	.LVL70:
 1153              		.loc 1 952 1 view .LVU356
 1154 000e 7047     		bx	lr
 1155              		.cfi_endproc
 1156              	.LFE162:
 1158              		.section	.text.FMC_SDRAM_WriteProtection_Disable,"ax",%progbits
 1159              		.align	1
 1160              		.global	FMC_SDRAM_WriteProtection_Disable
 1161              		.syntax unified
 1162              		.thumb
 1163              		.thumb_func
 1165              	FMC_SDRAM_WriteProtection_Disable:
 1166              	.LVL71:
 1167              	.LFB163:
 953:Drivers/STM32H7xx_HAL_Driver/Src/stm32h7xx_ll_fmc.c **** 
 954:Drivers/STM32H7xx_HAL_Driver/Src/stm32h7xx_ll_fmc.c **** /**
 955:Drivers/STM32H7xx_HAL_Driver/Src/stm32h7xx_ll_fmc.c ****   * @brief  Disables dynamically FMC_SDRAM write protection.
 956:Drivers/STM32H7xx_HAL_Driver/Src/stm32h7xx_ll_fmc.c ****   * @param  hsdram FMC_SDRAM handle
 957:Drivers/STM32H7xx_HAL_Driver/Src/stm32h7xx_ll_fmc.c ****   * @retval HAL status
 958:Drivers/STM32H7xx_HAL_Driver/Src/stm32h7xx_ll_fmc.c ****   */
 959:Drivers/STM32H7xx_HAL_Driver/Src/stm32h7xx_ll_fmc.c **** HAL_StatusTypeDef FMC_SDRAM_WriteProtection_Disable(FMC_SDRAM_TypeDef *Device, uint32_t Bank)
 960:Drivers/STM32H7xx_HAL_Driver/Src/stm32h7xx_ll_fmc.c **** {
 1168              		.loc 1 960 1 is_stmt 1 view -0
 1169              		.cfi_startproc
 1170              		@ args = 0, pretend = 0, frame = 0
 1171              		@ frame_needed = 0, uses_anonymous_args = 0
 1172              		@ link register save eliminated.
 961:Drivers/STM32H7xx_HAL_Driver/Src/stm32h7xx_ll_fmc.c ****   /* Check the parameters */
 962:Drivers/STM32H7xx_HAL_Driver/Src/stm32h7xx_ll_fmc.c ****   assert_param(IS_FMC_SDRAM_DEVICE(Device));
 1173              		.loc 1 962 3 view .LVU358
 963:Drivers/STM32H7xx_HAL_Driver/Src/stm32h7xx_ll_fmc.c ****   assert_param(IS_FMC_SDRAM_BANK(Bank));
 1174              		.loc 1 963 3 view .LVU359
 964:Drivers/STM32H7xx_HAL_Driver/Src/stm32h7xx_ll_fmc.c **** 
 965:Drivers/STM32H7xx_HAL_Driver/Src/stm32h7xx_ll_fmc.c ****   /* Disable write protection */
 966:Drivers/STM32H7xx_HAL_Driver/Src/stm32h7xx_ll_fmc.c ****   CLEAR_BIT(Device->SDCR[Bank], FMC_SDRAM_WRITE_PROTECTION_ENABLE);
 1175              		.loc 1 966 3 view .LVU360
 1176 0000 50F82130 		ldr	r3, [r0, r1, lsl #2]
 1177 0004 23F40073 		bic	r3, r3, #512
 1178 0008 40F82130 		str	r3, [r0, r1, lsl #2]
 967:Drivers/STM32H7xx_HAL_Driver/Src/stm32h7xx_ll_fmc.c **** 
 968:Drivers/STM32H7xx_HAL_Driver/Src/stm32h7xx_ll_fmc.c ****   return HAL_OK;
 1179              		.loc 1 968 3 view .LVU361
 969:Drivers/STM32H7xx_HAL_Driver/Src/stm32h7xx_ll_fmc.c **** }
 1180              		.loc 1 969 1 is_stmt 0 view .LVU362
 1181 000c 0020     		movs	r0, #0
 1182              	.LVL72:
 1183              		.loc 1 969 1 view .LVU363
ARM GAS  C:\Users\hh\AppData\Local\Temp\ccbNirFa.s 			page 39


 1184 000e 7047     		bx	lr
 1185              		.cfi_endproc
 1186              	.LFE163:
 1188              		.section	.text.FMC_SDRAM_SendCommand,"ax",%progbits
 1189              		.align	1
 1190              		.global	FMC_SDRAM_SendCommand
 1191              		.syntax unified
 1192              		.thumb
 1193              		.thumb_func
 1195              	FMC_SDRAM_SendCommand:
 1196              	.LVL73:
 1197              	.LFB164:
 970:Drivers/STM32H7xx_HAL_Driver/Src/stm32h7xx_ll_fmc.c **** 
 971:Drivers/STM32H7xx_HAL_Driver/Src/stm32h7xx_ll_fmc.c **** /**
 972:Drivers/STM32H7xx_HAL_Driver/Src/stm32h7xx_ll_fmc.c ****   * @brief  Send Command to the FMC SDRAM bank
 973:Drivers/STM32H7xx_HAL_Driver/Src/stm32h7xx_ll_fmc.c ****   * @param  Device Pointer to SDRAM device instance
 974:Drivers/STM32H7xx_HAL_Driver/Src/stm32h7xx_ll_fmc.c ****   * @param  Command Pointer to SDRAM command structure
 975:Drivers/STM32H7xx_HAL_Driver/Src/stm32h7xx_ll_fmc.c ****   * @param  Timing Pointer to SDRAM Timing structure
 976:Drivers/STM32H7xx_HAL_Driver/Src/stm32h7xx_ll_fmc.c ****   * @param  Timeout Timeout wait value
 977:Drivers/STM32H7xx_HAL_Driver/Src/stm32h7xx_ll_fmc.c ****   * @retval HAL state
 978:Drivers/STM32H7xx_HAL_Driver/Src/stm32h7xx_ll_fmc.c ****   */
 979:Drivers/STM32H7xx_HAL_Driver/Src/stm32h7xx_ll_fmc.c **** HAL_StatusTypeDef FMC_SDRAM_SendCommand(FMC_SDRAM_TypeDef *Device,
 980:Drivers/STM32H7xx_HAL_Driver/Src/stm32h7xx_ll_fmc.c ****                                         const FMC_SDRAM_CommandTypeDef *Command, uint32_t Timeout)
 981:Drivers/STM32H7xx_HAL_Driver/Src/stm32h7xx_ll_fmc.c **** {
 1198              		.loc 1 981 1 is_stmt 1 view -0
 1199              		.cfi_startproc
 1200              		@ args = 0, pretend = 0, frame = 0
 1201              		@ frame_needed = 0, uses_anonymous_args = 0
 1202              		@ link register save eliminated.
 1203              		.loc 1 981 1 is_stmt 0 view .LVU365
 1204 0000 10B4     		push	{r4}
 1205              	.LCFI14:
 1206              		.cfi_def_cfa_offset 4
 1207              		.cfi_offset 4, -4
 982:Drivers/STM32H7xx_HAL_Driver/Src/stm32h7xx_ll_fmc.c ****   /* Check the parameters */
 983:Drivers/STM32H7xx_HAL_Driver/Src/stm32h7xx_ll_fmc.c ****   assert_param(IS_FMC_SDRAM_DEVICE(Device));
 1208              		.loc 1 983 3 is_stmt 1 view .LVU366
 984:Drivers/STM32H7xx_HAL_Driver/Src/stm32h7xx_ll_fmc.c ****   assert_param(IS_FMC_COMMAND_MODE(Command->CommandMode));
 1209              		.loc 1 984 3 view .LVU367
 985:Drivers/STM32H7xx_HAL_Driver/Src/stm32h7xx_ll_fmc.c ****   assert_param(IS_FMC_COMMAND_TARGET(Command->CommandTarget));
 1210              		.loc 1 985 3 view .LVU368
 986:Drivers/STM32H7xx_HAL_Driver/Src/stm32h7xx_ll_fmc.c ****   assert_param(IS_FMC_AUTOREFRESH_NUMBER(Command->AutoRefreshNumber));
 1211              		.loc 1 986 3 view .LVU369
 987:Drivers/STM32H7xx_HAL_Driver/Src/stm32h7xx_ll_fmc.c ****   assert_param(IS_FMC_MODE_REGISTER(Command->ModeRegisterDefinition));
 1212              		.loc 1 987 3 view .LVU370
 988:Drivers/STM32H7xx_HAL_Driver/Src/stm32h7xx_ll_fmc.c **** 
 989:Drivers/STM32H7xx_HAL_Driver/Src/stm32h7xx_ll_fmc.c ****   /* Set command register */
 990:Drivers/STM32H7xx_HAL_Driver/Src/stm32h7xx_ll_fmc.c ****   MODIFY_REG(Device->SDCMR, (FMC_SDCMR_MODE | FMC_SDCMR_CTB2 | FMC_SDCMR_CTB1 | FMC_SDCMR_NRFS | FM
 1213              		.loc 1 990 3 view .LVU371
 1214 0002 0269     		ldr	r2, [r0, #16]
 1215              	.LVL74:
 1216              		.loc 1 990 3 is_stmt 0 view .LVU372
 1217 0004 6FF31502 		bfc	r2, #0, #22
 1218 0008 0B68     		ldr	r3, [r1]
 1219 000a 4C68     		ldr	r4, [r1, #4]
 1220 000c 2343     		orrs	r3, r3, r4
 1221 000e 8C68     		ldr	r4, [r1, #8]
ARM GAS  C:\Users\hh\AppData\Local\Temp\ccbNirFa.s 			page 40


 1222 0010 04F1FF3C 		add	ip, r4, #-1
 1223 0014 43EA4C13 		orr	r3, r3, ip, lsl #5
 1224 0018 C968     		ldr	r1, [r1, #12]
 1225              	.LVL75:
 1226              		.loc 1 990 3 view .LVU373
 1227 001a 43EA4123 		orr	r3, r3, r1, lsl #9
 1228 001e 1343     		orrs	r3, r3, r2
 1229 0020 0361     		str	r3, [r0, #16]
 991:Drivers/STM32H7xx_HAL_Driver/Src/stm32h7xx_ll_fmc.c ****              ((Command->CommandMode) | (Command->CommandTarget) |
 992:Drivers/STM32H7xx_HAL_Driver/Src/stm32h7xx_ll_fmc.c ****               (((Command->AutoRefreshNumber) - 1U) << FMC_SDCMR_NRFS_Pos) |
 993:Drivers/STM32H7xx_HAL_Driver/Src/stm32h7xx_ll_fmc.c ****               ((Command->ModeRegisterDefinition) << FMC_SDCMR_MRD_Pos)));
 994:Drivers/STM32H7xx_HAL_Driver/Src/stm32h7xx_ll_fmc.c ****   /* Prevent unused argument(s) compilation warning */
 995:Drivers/STM32H7xx_HAL_Driver/Src/stm32h7xx_ll_fmc.c ****   UNUSED(Timeout);
 1230              		.loc 1 995 3 is_stmt 1 view .LVU374
 996:Drivers/STM32H7xx_HAL_Driver/Src/stm32h7xx_ll_fmc.c ****   return HAL_OK;
 1231              		.loc 1 996 3 view .LVU375
 997:Drivers/STM32H7xx_HAL_Driver/Src/stm32h7xx_ll_fmc.c **** }
 1232              		.loc 1 997 1 is_stmt 0 view .LVU376
 1233 0022 0020     		movs	r0, #0
 1234              	.LVL76:
 1235              		.loc 1 997 1 view .LVU377
 1236 0024 10BC     		pop	{r4}
 1237              	.LCFI15:
 1238              		.cfi_restore 4
 1239              		.cfi_def_cfa_offset 0
 1240 0026 7047     		bx	lr
 1241              		.cfi_endproc
 1242              	.LFE164:
 1244              		.section	.text.FMC_SDRAM_ProgramRefreshRate,"ax",%progbits
 1245              		.align	1
 1246              		.global	FMC_SDRAM_ProgramRefreshRate
 1247              		.syntax unified
 1248              		.thumb
 1249              		.thumb_func
 1251              	FMC_SDRAM_ProgramRefreshRate:
 1252              	.LVL77:
 1253              	.LFB165:
 998:Drivers/STM32H7xx_HAL_Driver/Src/stm32h7xx_ll_fmc.c **** 
 999:Drivers/STM32H7xx_HAL_Driver/Src/stm32h7xx_ll_fmc.c **** /**
1000:Drivers/STM32H7xx_HAL_Driver/Src/stm32h7xx_ll_fmc.c ****   * @brief  Program the SDRAM Memory Refresh rate.
1001:Drivers/STM32H7xx_HAL_Driver/Src/stm32h7xx_ll_fmc.c ****   * @param  Device Pointer to SDRAM device instance
1002:Drivers/STM32H7xx_HAL_Driver/Src/stm32h7xx_ll_fmc.c ****   * @param  RefreshRate The SDRAM refresh rate value.
1003:Drivers/STM32H7xx_HAL_Driver/Src/stm32h7xx_ll_fmc.c ****   * @retval HAL state
1004:Drivers/STM32H7xx_HAL_Driver/Src/stm32h7xx_ll_fmc.c ****   */
1005:Drivers/STM32H7xx_HAL_Driver/Src/stm32h7xx_ll_fmc.c **** HAL_StatusTypeDef FMC_SDRAM_ProgramRefreshRate(FMC_SDRAM_TypeDef *Device, uint32_t RefreshRate)
1006:Drivers/STM32H7xx_HAL_Driver/Src/stm32h7xx_ll_fmc.c **** {
 1254              		.loc 1 1006 1 is_stmt 1 view -0
 1255              		.cfi_startproc
 1256              		@ args = 0, pretend = 0, frame = 0
 1257              		@ frame_needed = 0, uses_anonymous_args = 0
 1258              		@ link register save eliminated.
1007:Drivers/STM32H7xx_HAL_Driver/Src/stm32h7xx_ll_fmc.c ****   /* Check the parameters */
1008:Drivers/STM32H7xx_HAL_Driver/Src/stm32h7xx_ll_fmc.c ****   assert_param(IS_FMC_SDRAM_DEVICE(Device));
 1259              		.loc 1 1008 3 view .LVU379
1009:Drivers/STM32H7xx_HAL_Driver/Src/stm32h7xx_ll_fmc.c ****   assert_param(IS_FMC_REFRESH_RATE(RefreshRate));
 1260              		.loc 1 1009 3 view .LVU380
1010:Drivers/STM32H7xx_HAL_Driver/Src/stm32h7xx_ll_fmc.c **** 
ARM GAS  C:\Users\hh\AppData\Local\Temp\ccbNirFa.s 			page 41


1011:Drivers/STM32H7xx_HAL_Driver/Src/stm32h7xx_ll_fmc.c ****   /* Set the refresh rate in command register */
1012:Drivers/STM32H7xx_HAL_Driver/Src/stm32h7xx_ll_fmc.c ****   MODIFY_REG(Device->SDRTR, FMC_SDRTR_COUNT, (RefreshRate << FMC_SDRTR_COUNT_Pos));
 1261              		.loc 1 1012 3 view .LVU381
 1262 0000 4369     		ldr	r3, [r0, #20]
 1263 0002 6FF34D03 		bfc	r3, #1, #13
 1264 0006 43EA4103 		orr	r3, r3, r1, lsl #1
 1265 000a 4361     		str	r3, [r0, #20]
1013:Drivers/STM32H7xx_HAL_Driver/Src/stm32h7xx_ll_fmc.c **** 
1014:Drivers/STM32H7xx_HAL_Driver/Src/stm32h7xx_ll_fmc.c ****   return HAL_OK;
 1266              		.loc 1 1014 3 view .LVU382
1015:Drivers/STM32H7xx_HAL_Driver/Src/stm32h7xx_ll_fmc.c **** }
 1267              		.loc 1 1015 1 is_stmt 0 view .LVU383
 1268 000c 0020     		movs	r0, #0
 1269              	.LVL78:
 1270              		.loc 1 1015 1 view .LVU384
 1271 000e 7047     		bx	lr
 1272              		.cfi_endproc
 1273              	.LFE165:
 1275              		.section	.text.FMC_SDRAM_SetAutoRefreshNumber,"ax",%progbits
 1276              		.align	1
 1277              		.global	FMC_SDRAM_SetAutoRefreshNumber
 1278              		.syntax unified
 1279              		.thumb
 1280              		.thumb_func
 1282              	FMC_SDRAM_SetAutoRefreshNumber:
 1283              	.LVL79:
 1284              	.LFB166:
1016:Drivers/STM32H7xx_HAL_Driver/Src/stm32h7xx_ll_fmc.c **** 
1017:Drivers/STM32H7xx_HAL_Driver/Src/stm32h7xx_ll_fmc.c **** /**
1018:Drivers/STM32H7xx_HAL_Driver/Src/stm32h7xx_ll_fmc.c ****   * @brief  Set the Number of consecutive SDRAM Memory auto Refresh commands.
1019:Drivers/STM32H7xx_HAL_Driver/Src/stm32h7xx_ll_fmc.c ****   * @param  Device Pointer to SDRAM device instance
1020:Drivers/STM32H7xx_HAL_Driver/Src/stm32h7xx_ll_fmc.c ****   * @param  AutoRefreshNumber Specifies the auto Refresh number.
1021:Drivers/STM32H7xx_HAL_Driver/Src/stm32h7xx_ll_fmc.c ****   * @retval None
1022:Drivers/STM32H7xx_HAL_Driver/Src/stm32h7xx_ll_fmc.c ****   */
1023:Drivers/STM32H7xx_HAL_Driver/Src/stm32h7xx_ll_fmc.c **** HAL_StatusTypeDef FMC_SDRAM_SetAutoRefreshNumber(FMC_SDRAM_TypeDef *Device,
1024:Drivers/STM32H7xx_HAL_Driver/Src/stm32h7xx_ll_fmc.c ****                                                  uint32_t AutoRefreshNumber)
1025:Drivers/STM32H7xx_HAL_Driver/Src/stm32h7xx_ll_fmc.c **** {
 1285              		.loc 1 1025 1 is_stmt 1 view -0
 1286              		.cfi_startproc
 1287              		@ args = 0, pretend = 0, frame = 0
 1288              		@ frame_needed = 0, uses_anonymous_args = 0
 1289              		@ link register save eliminated.
1026:Drivers/STM32H7xx_HAL_Driver/Src/stm32h7xx_ll_fmc.c ****   /* Check the parameters */
1027:Drivers/STM32H7xx_HAL_Driver/Src/stm32h7xx_ll_fmc.c ****   assert_param(IS_FMC_SDRAM_DEVICE(Device));
 1290              		.loc 1 1027 3 view .LVU386
1028:Drivers/STM32H7xx_HAL_Driver/Src/stm32h7xx_ll_fmc.c ****   assert_param(IS_FMC_AUTOREFRESH_NUMBER(AutoRefreshNumber));
 1291              		.loc 1 1028 3 view .LVU387
1029:Drivers/STM32H7xx_HAL_Driver/Src/stm32h7xx_ll_fmc.c **** 
1030:Drivers/STM32H7xx_HAL_Driver/Src/stm32h7xx_ll_fmc.c ****   /* Set the Auto-refresh number in command register */
1031:Drivers/STM32H7xx_HAL_Driver/Src/stm32h7xx_ll_fmc.c ****   MODIFY_REG(Device->SDCMR, FMC_SDCMR_NRFS, ((AutoRefreshNumber - 1U) << FMC_SDCMR_NRFS_Pos));
 1292              		.loc 1 1031 3 view .LVU388
 1293 0000 0369     		ldr	r3, [r0, #16]
 1294 0002 23F4F073 		bic	r3, r3, #480
 1295 0006 0139     		subs	r1, r1, #1
 1296              	.LVL80:
 1297              		.loc 1 1031 3 is_stmt 0 view .LVU389
 1298 0008 43EA4113 		orr	r3, r3, r1, lsl #5
ARM GAS  C:\Users\hh\AppData\Local\Temp\ccbNirFa.s 			page 42


 1299 000c 0361     		str	r3, [r0, #16]
1032:Drivers/STM32H7xx_HAL_Driver/Src/stm32h7xx_ll_fmc.c **** 
1033:Drivers/STM32H7xx_HAL_Driver/Src/stm32h7xx_ll_fmc.c ****   return HAL_OK;
 1300              		.loc 1 1033 3 is_stmt 1 view .LVU390
1034:Drivers/STM32H7xx_HAL_Driver/Src/stm32h7xx_ll_fmc.c **** }
 1301              		.loc 1 1034 1 is_stmt 0 view .LVU391
 1302 000e 0020     		movs	r0, #0
 1303              	.LVL81:
 1304              		.loc 1 1034 1 view .LVU392
 1305 0010 7047     		bx	lr
 1306              		.cfi_endproc
 1307              	.LFE166:
 1309              		.section	.text.FMC_SDRAM_GetModeStatus,"ax",%progbits
 1310              		.align	1
 1311              		.global	FMC_SDRAM_GetModeStatus
 1312              		.syntax unified
 1313              		.thumb
 1314              		.thumb_func
 1316              	FMC_SDRAM_GetModeStatus:
 1317              	.LVL82:
 1318              	.LFB167:
1035:Drivers/STM32H7xx_HAL_Driver/Src/stm32h7xx_ll_fmc.c **** 
1036:Drivers/STM32H7xx_HAL_Driver/Src/stm32h7xx_ll_fmc.c **** /**
1037:Drivers/STM32H7xx_HAL_Driver/Src/stm32h7xx_ll_fmc.c ****   * @brief  Returns the indicated FMC SDRAM bank mode status.
1038:Drivers/STM32H7xx_HAL_Driver/Src/stm32h7xx_ll_fmc.c ****   * @param  Device Pointer to SDRAM device instance
1039:Drivers/STM32H7xx_HAL_Driver/Src/stm32h7xx_ll_fmc.c ****   * @param  Bank Defines the FMC SDRAM bank. This parameter can be
1040:Drivers/STM32H7xx_HAL_Driver/Src/stm32h7xx_ll_fmc.c ****   *                     FMC_Bank1_SDRAM or FMC_Bank2_SDRAM.
1041:Drivers/STM32H7xx_HAL_Driver/Src/stm32h7xx_ll_fmc.c ****   * @retval The FMC SDRAM bank mode status, could be on of the following values:
1042:Drivers/STM32H7xx_HAL_Driver/Src/stm32h7xx_ll_fmc.c ****   *         FMC_SDRAM_NORMAL_MODE, FMC_SDRAM_SELF_REFRESH_MODE or
1043:Drivers/STM32H7xx_HAL_Driver/Src/stm32h7xx_ll_fmc.c ****   *         FMC_SDRAM_POWER_DOWN_MODE.
1044:Drivers/STM32H7xx_HAL_Driver/Src/stm32h7xx_ll_fmc.c ****   */
1045:Drivers/STM32H7xx_HAL_Driver/Src/stm32h7xx_ll_fmc.c **** uint32_t FMC_SDRAM_GetModeStatus(const FMC_SDRAM_TypeDef *Device, uint32_t Bank)
1046:Drivers/STM32H7xx_HAL_Driver/Src/stm32h7xx_ll_fmc.c **** {
 1319              		.loc 1 1046 1 is_stmt 1 view -0
 1320              		.cfi_startproc
 1321              		@ args = 0, pretend = 0, frame = 0
 1322              		@ frame_needed = 0, uses_anonymous_args = 0
 1323              		@ link register save eliminated.
1047:Drivers/STM32H7xx_HAL_Driver/Src/stm32h7xx_ll_fmc.c ****   uint32_t tmpreg;
 1324              		.loc 1 1047 3 view .LVU394
1048:Drivers/STM32H7xx_HAL_Driver/Src/stm32h7xx_ll_fmc.c **** 
1049:Drivers/STM32H7xx_HAL_Driver/Src/stm32h7xx_ll_fmc.c ****   /* Check the parameters */
1050:Drivers/STM32H7xx_HAL_Driver/Src/stm32h7xx_ll_fmc.c ****   assert_param(IS_FMC_SDRAM_DEVICE(Device));
 1325              		.loc 1 1050 3 view .LVU395
1051:Drivers/STM32H7xx_HAL_Driver/Src/stm32h7xx_ll_fmc.c ****   assert_param(IS_FMC_SDRAM_BANK(Bank));
 1326              		.loc 1 1051 3 view .LVU396
1052:Drivers/STM32H7xx_HAL_Driver/Src/stm32h7xx_ll_fmc.c **** 
1053:Drivers/STM32H7xx_HAL_Driver/Src/stm32h7xx_ll_fmc.c ****   /* Get the corresponding bank mode */
1054:Drivers/STM32H7xx_HAL_Driver/Src/stm32h7xx_ll_fmc.c ****   if (Bank == FMC_SDRAM_BANK1)
 1327              		.loc 1 1054 3 view .LVU397
 1328              		.loc 1 1054 6 is_stmt 0 view .LVU398
 1329 0000 19B9     		cbnz	r1, .L65
1055:Drivers/STM32H7xx_HAL_Driver/Src/stm32h7xx_ll_fmc.c ****   {
1056:Drivers/STM32H7xx_HAL_Driver/Src/stm32h7xx_ll_fmc.c ****     tmpreg = (uint32_t)(Device->SDSR & FMC_SDSR_MODES1);
 1330              		.loc 1 1056 5 is_stmt 1 view .LVU399
 1331              		.loc 1 1056 31 is_stmt 0 view .LVU400
 1332 0002 8069     		ldr	r0, [r0, #24]
ARM GAS  C:\Users\hh\AppData\Local\Temp\ccbNirFa.s 			page 43


 1333              	.LVL83:
 1334              		.loc 1 1056 12 view .LVU401
 1335 0004 00F00600 		and	r0, r0, #6
 1336              	.LVL84:
 1337              		.loc 1 1056 12 view .LVU402
 1338 0008 7047     		bx	lr
 1339              	.LVL85:
 1340              	.L65:
1057:Drivers/STM32H7xx_HAL_Driver/Src/stm32h7xx_ll_fmc.c ****   }
1058:Drivers/STM32H7xx_HAL_Driver/Src/stm32h7xx_ll_fmc.c ****   else
1059:Drivers/STM32H7xx_HAL_Driver/Src/stm32h7xx_ll_fmc.c ****   {
1060:Drivers/STM32H7xx_HAL_Driver/Src/stm32h7xx_ll_fmc.c ****     tmpreg = ((uint32_t)(Device->SDSR & FMC_SDSR_MODES2) >> 2U);
 1341              		.loc 1 1060 5 is_stmt 1 view .LVU403
 1342              		.loc 1 1060 32 is_stmt 0 view .LVU404
 1343 000a 8069     		ldr	r0, [r0, #24]
 1344              	.LVL86:
 1345              		.loc 1 1060 58 view .LVU405
 1346 000c 8008     		lsrs	r0, r0, #2
 1347              		.loc 1 1060 12 view .LVU406
 1348 000e 00F00600 		and	r0, r0, #6
 1349              	.LVL87:
1061:Drivers/STM32H7xx_HAL_Driver/Src/stm32h7xx_ll_fmc.c ****   }
1062:Drivers/STM32H7xx_HAL_Driver/Src/stm32h7xx_ll_fmc.c **** 
1063:Drivers/STM32H7xx_HAL_Driver/Src/stm32h7xx_ll_fmc.c ****   /* Return the mode status */
1064:Drivers/STM32H7xx_HAL_Driver/Src/stm32h7xx_ll_fmc.c ****   return tmpreg;
 1350              		.loc 1 1064 3 is_stmt 1 view .LVU407
1065:Drivers/STM32H7xx_HAL_Driver/Src/stm32h7xx_ll_fmc.c **** }
 1351              		.loc 1 1065 1 is_stmt 0 view .LVU408
 1352 0012 7047     		bx	lr
 1353              		.cfi_endproc
 1354              	.LFE167:
 1356              		.text
 1357              	.Letext0:
 1358              		.file 2 "C:/Program Files (x86)/ARM/arm-gnu-toolchain-15.2.rel1-mingw-w64-i686-arm-none-eabi/arm-n
 1359              		.file 3 "C:/Program Files (x86)/ARM/arm-gnu-toolchain-15.2.rel1-mingw-w64-i686-arm-none-eabi/arm-n
 1360              		.file 4 "Drivers/CMSIS/Device/ST/STM32H7xx/Include/stm32h743xx.h"
 1361              		.file 5 "Drivers/CMSIS/Device/ST/STM32H7xx/Include/stm32h7xx.h"
 1362              		.file 6 "Drivers/STM32H7xx_HAL_Driver/Inc/stm32h7xx_hal_def.h"
 1363              		.file 7 "Drivers/STM32H7xx_HAL_Driver/Inc/stm32h7xx_ll_fmc.h"
 1364              		.file 8 "Drivers/STM32H7xx_HAL_Driver/Inc/stm32h7xx_hal.h"
ARM GAS  C:\Users\hh\AppData\Local\Temp\ccbNirFa.s 			page 44

