ARM GAS  C:\Users\hh\AppData\Local\Temp\cc9fkUwJ.s 			page 1


   1              		.cpu cortex-m7
   2              		.arch armv7e-m
   3              		.fpu fpv5-d16
   4              		.eabi_attribute 28, 1
   5              		.eabi_attribute 20, 1
   6              		.eabi_attribute 21, 1
   7              		.eabi_attribute 23, 3
   8              		.eabi_attribute 24, 1
   9              		.eabi_attribute 25, 1
  10              		.eabi_attribute 26, 1
  11              		.eabi_attribute 30, 1
  12              		.eabi_attribute 34, 1
  13              		.eabi_attribute 18, 4
  14              		.file	"stm32h7xx_hal_msp.c"
  15              		.text
  16              	.Ltext0:
  17              		.cfi_sections	.debug_frame
  18              		.file 1 "Core/Src/stm32h7xx_hal_msp.c"
  19              		.section	.text.HAL_MspInit,"ax",%progbits
  20              		.align	1
  21              		.global	HAL_MspInit
  22              		.syntax unified
  23              		.thumb
  24              		.thumb_func
  26              	HAL_MspInit:
  27              	.LFB146:
   1:Core/Src/stm32h7xx_hal_msp.c **** /* USER CODE BEGIN Header */
   2:Core/Src/stm32h7xx_hal_msp.c **** /**
   3:Core/Src/stm32h7xx_hal_msp.c ****   ******************************************************************************
   4:Core/Src/stm32h7xx_hal_msp.c ****   * @file         stm32h7xx_hal_msp.c
   5:Core/Src/stm32h7xx_hal_msp.c ****   * @brief        This file provides code for the MSP Initialization
   6:Core/Src/stm32h7xx_hal_msp.c ****   *               and de-Initialization codes.
   7:Core/Src/stm32h7xx_hal_msp.c ****   ******************************************************************************
   8:Core/Src/stm32h7xx_hal_msp.c ****   * @attention
   9:Core/Src/stm32h7xx_hal_msp.c ****   *
  10:Core/Src/stm32h7xx_hal_msp.c ****   * Copyright (c) 2026 STMicroelectronics.
  11:Core/Src/stm32h7xx_hal_msp.c ****   * All rights reserved.
  12:Core/Src/stm32h7xx_hal_msp.c ****   *
  13:Core/Src/stm32h7xx_hal_msp.c ****   * This software is licensed under terms that can be found in the LICENSE file
  14:Core/Src/stm32h7xx_hal_msp.c ****   * in the root directory of this software component.
  15:Core/Src/stm32h7xx_hal_msp.c ****   * If no LICENSE file comes with this software, it is provided AS-IS.
  16:Core/Src/stm32h7xx_hal_msp.c ****   *
  17:Core/Src/stm32h7xx_hal_msp.c ****   ******************************************************************************
  18:Core/Src/stm32h7xx_hal_msp.c ****   */
  19:Core/Src/stm32h7xx_hal_msp.c **** /* USER CODE END Header */
  20:Core/Src/stm32h7xx_hal_msp.c **** /* Includes ------------------------------------------------------------------*/
  21:Core/Src/stm32h7xx_hal_msp.c **** #include "main.h"
  22:Core/Src/stm32h7xx_hal_msp.c **** /* USER CODE BEGIN Includes */
  23:Core/Src/stm32h7xx_hal_msp.c **** 
  24:Core/Src/stm32h7xx_hal_msp.c **** /* USER CODE END Includes */
  25:Core/Src/stm32h7xx_hal_msp.c **** 
  26:Core/Src/stm32h7xx_hal_msp.c **** /* Private typedef -----------------------------------------------------------*/
  27:Core/Src/stm32h7xx_hal_msp.c **** /* USER CODE BEGIN TD */
  28:Core/Src/stm32h7xx_hal_msp.c **** 
  29:Core/Src/stm32h7xx_hal_msp.c **** /* USER CODE END TD */
  30:Core/Src/stm32h7xx_hal_msp.c **** 
  31:Core/Src/stm32h7xx_hal_msp.c **** /* Private define ------------------------------------------------------------*/
ARM GAS  C:\Users\hh\AppData\Local\Temp\cc9fkUwJ.s 			page 2


  32:Core/Src/stm32h7xx_hal_msp.c **** /* USER CODE BEGIN Define */
  33:Core/Src/stm32h7xx_hal_msp.c **** 
  34:Core/Src/stm32h7xx_hal_msp.c **** /* USER CODE END Define */
  35:Core/Src/stm32h7xx_hal_msp.c **** 
  36:Core/Src/stm32h7xx_hal_msp.c **** /* Private macro -------------------------------------------------------------*/
  37:Core/Src/stm32h7xx_hal_msp.c **** /* USER CODE BEGIN Macro */
  38:Core/Src/stm32h7xx_hal_msp.c **** 
  39:Core/Src/stm32h7xx_hal_msp.c **** /* USER CODE END Macro */
  40:Core/Src/stm32h7xx_hal_msp.c **** 
  41:Core/Src/stm32h7xx_hal_msp.c **** /* Private variables ---------------------------------------------------------*/
  42:Core/Src/stm32h7xx_hal_msp.c **** /* USER CODE BEGIN PV */
  43:Core/Src/stm32h7xx_hal_msp.c **** 
  44:Core/Src/stm32h7xx_hal_msp.c **** /* USER CODE END PV */
  45:Core/Src/stm32h7xx_hal_msp.c **** 
  46:Core/Src/stm32h7xx_hal_msp.c **** /* Private function prototypes -----------------------------------------------*/
  47:Core/Src/stm32h7xx_hal_msp.c **** /* USER CODE BEGIN PFP */
  48:Core/Src/stm32h7xx_hal_msp.c **** 
  49:Core/Src/stm32h7xx_hal_msp.c **** /* USER CODE END PFP */
  50:Core/Src/stm32h7xx_hal_msp.c **** 
  51:Core/Src/stm32h7xx_hal_msp.c **** /* External functions --------------------------------------------------------*/
  52:Core/Src/stm32h7xx_hal_msp.c **** /* USER CODE BEGIN ExternalFunctions */
  53:Core/Src/stm32h7xx_hal_msp.c **** 
  54:Core/Src/stm32h7xx_hal_msp.c **** /* USER CODE END ExternalFunctions */
  55:Core/Src/stm32h7xx_hal_msp.c **** 
  56:Core/Src/stm32h7xx_hal_msp.c **** /* USER CODE BEGIN 0 */
  57:Core/Src/stm32h7xx_hal_msp.c **** 
  58:Core/Src/stm32h7xx_hal_msp.c **** /* USER CODE END 0 */
  59:Core/Src/stm32h7xx_hal_msp.c **** /**
  60:Core/Src/stm32h7xx_hal_msp.c ****   * Initializes the Global MSP.
  61:Core/Src/stm32h7xx_hal_msp.c ****   */
  62:Core/Src/stm32h7xx_hal_msp.c **** void HAL_MspInit(void)
  63:Core/Src/stm32h7xx_hal_msp.c **** {
  28              		.loc 1 63 1 view -0
  29              		.cfi_startproc
  30              		@ args = 0, pretend = 0, frame = 8
  31              		@ frame_needed = 0, uses_anonymous_args = 0
  32 0000 00B5     		push	{lr}
  33              	.LCFI0:
  34              		.cfi_def_cfa_offset 4
  35              		.cfi_offset 14, -4
  36 0002 83B0     		sub	sp, sp, #12
  37              	.LCFI1:
  38              		.cfi_def_cfa_offset 16
  64:Core/Src/stm32h7xx_hal_msp.c **** 
  65:Core/Src/stm32h7xx_hal_msp.c ****   /* USER CODE BEGIN MspInit 0 */
  66:Core/Src/stm32h7xx_hal_msp.c **** 
  67:Core/Src/stm32h7xx_hal_msp.c ****   /* USER CODE END MspInit 0 */
  68:Core/Src/stm32h7xx_hal_msp.c **** 
  69:Core/Src/stm32h7xx_hal_msp.c ****   __HAL_RCC_SYSCFG_CLK_ENABLE();
  39              		.loc 1 69 3 view .LVU1
  40              	.LBB2:
  41              		.loc 1 69 3 view .LVU2
  42              		.loc 1 69 3 view .LVU3
  43 0004 0A4B     		ldr	r3, .L3
  44 0006 D3F8F420 		ldr	r2, [r3, #244]
  45 000a 42F00202 		orr	r2, r2, #2
  46 000e C3F8F420 		str	r2, [r3, #244]
ARM GAS  C:\Users\hh\AppData\Local\Temp\cc9fkUwJ.s 			page 3


  47              		.loc 1 69 3 view .LVU4
  48 0012 D3F8F430 		ldr	r3, [r3, #244]
  49 0016 03F00203 		and	r3, r3, #2
  50 001a 0193     		str	r3, [sp, #4]
  51              		.loc 1 69 3 view .LVU5
  52 001c 019B     		ldr	r3, [sp, #4]
  53              	.LBE2:
  54              		.loc 1 69 3 view .LVU6
  70:Core/Src/stm32h7xx_hal_msp.c **** 
  71:Core/Src/stm32h7xx_hal_msp.c ****   /* System interrupt init*/
  72:Core/Src/stm32h7xx_hal_msp.c ****   /* PendSV_IRQn interrupt configuration */
  73:Core/Src/stm32h7xx_hal_msp.c ****   HAL_NVIC_SetPriority(PendSV_IRQn, 15, 0);
  55              		.loc 1 73 3 view .LVU7
  56 001e 0022     		movs	r2, #0
  57 0020 0F21     		movs	r1, #15
  58 0022 6FF00100 		mvn	r0, #1
  59 0026 FFF7FEFF 		bl	HAL_NVIC_SetPriority
  60              	.LVL0:
  74:Core/Src/stm32h7xx_hal_msp.c **** 
  75:Core/Src/stm32h7xx_hal_msp.c ****   /* USER CODE BEGIN MspInit 1 */
  76:Core/Src/stm32h7xx_hal_msp.c **** 
  77:Core/Src/stm32h7xx_hal_msp.c ****   /* USER CODE END MspInit 1 */
  78:Core/Src/stm32h7xx_hal_msp.c **** }
  61              		.loc 1 78 1 is_stmt 0 view .LVU8
  62 002a 03B0     		add	sp, sp, #12
  63              	.LCFI2:
  64              		.cfi_def_cfa_offset 4
  65              		@ sp needed
  66 002c 00BD     		pop	{pc}
  67              	.L4:
  68 002e 00BF     		.align	2
  69              	.L3:
  70 0030 00440258 		.word	1476543488
  71              		.cfi_endproc
  72              	.LFE146:
  74              		.section	.text.HAL_ETH_MspInit,"ax",%progbits
  75              		.align	1
  76              		.global	HAL_ETH_MspInit
  77              		.syntax unified
  78              		.thumb
  79              		.thumb_func
  81              	HAL_ETH_MspInit:
  82              	.LVL1:
  83              	.LFB147:
  79:Core/Src/stm32h7xx_hal_msp.c **** 
  80:Core/Src/stm32h7xx_hal_msp.c **** /* USER CODE BEGIN 1 */
  81:Core/Src/stm32h7xx_hal_msp.c **** 
  82:Core/Src/stm32h7xx_hal_msp.c **** void HAL_ETH_MspInit(ETH_HandleTypeDef* heth)
  83:Core/Src/stm32h7xx_hal_msp.c **** {
  84              		.loc 1 83 1 is_stmt 1 view -0
  85              		.cfi_startproc
  86              		@ args = 0, pretend = 0, frame = 48
  87              		@ frame_needed = 0, uses_anonymous_args = 0
  88              		.loc 1 83 1 is_stmt 0 view .LVU10
  89 0000 00B5     		push	{lr}
  90              	.LCFI3:
  91              		.cfi_def_cfa_offset 4
ARM GAS  C:\Users\hh\AppData\Local\Temp\cc9fkUwJ.s 			page 4


  92              		.cfi_offset 14, -4
  93 0002 8DB0     		sub	sp, sp, #52
  94              	.LCFI4:
  95              		.cfi_def_cfa_offset 56
  84:Core/Src/stm32h7xx_hal_msp.c ****   GPIO_InitTypeDef GPIO_InitStruct = {0};
  96              		.loc 1 84 3 is_stmt 1 view .LVU11
  97              		.loc 1 84 20 is_stmt 0 view .LVU12
  98 0004 0023     		movs	r3, #0
  99 0006 0793     		str	r3, [sp, #28]
 100 0008 0893     		str	r3, [sp, #32]
 101 000a 0993     		str	r3, [sp, #36]
 102 000c 0A93     		str	r3, [sp, #40]
 103 000e 0B93     		str	r3, [sp, #44]
  85:Core/Src/stm32h7xx_hal_msp.c **** 
  86:Core/Src/stm32h7xx_hal_msp.c ****   if (heth->Instance != ETH)
 104              		.loc 1 86 3 is_stmt 1 view .LVU13
 105              		.loc 1 86 11 is_stmt 0 view .LVU14
 106 0010 0268     		ldr	r2, [r0]
 107              		.loc 1 86 6 view .LVU15
 108 0012 384B     		ldr	r3, .L10
 109 0014 9A42     		cmp	r2, r3
 110 0016 01D0     		beq	.L9
 111              	.LVL2:
 112              	.L5:
  87:Core/Src/stm32h7xx_hal_msp.c ****   {
  88:Core/Src/stm32h7xx_hal_msp.c ****     return;
  89:Core/Src/stm32h7xx_hal_msp.c ****   }
  90:Core/Src/stm32h7xx_hal_msp.c **** 
  91:Core/Src/stm32h7xx_hal_msp.c ****   __HAL_RCC_ETH1MAC_CLK_ENABLE();
  92:Core/Src/stm32h7xx_hal_msp.c ****   __HAL_RCC_ETH1TX_CLK_ENABLE();
  93:Core/Src/stm32h7xx_hal_msp.c ****   __HAL_RCC_ETH1RX_CLK_ENABLE();
  94:Core/Src/stm32h7xx_hal_msp.c **** 
  95:Core/Src/stm32h7xx_hal_msp.c ****   __HAL_RCC_GPIOA_CLK_ENABLE();
  96:Core/Src/stm32h7xx_hal_msp.c ****   __HAL_RCC_GPIOB_CLK_ENABLE();
  97:Core/Src/stm32h7xx_hal_msp.c ****   __HAL_RCC_GPIOC_CLK_ENABLE();
  98:Core/Src/stm32h7xx_hal_msp.c **** 
  99:Core/Src/stm32h7xx_hal_msp.c ****   /*
 100:Core/Src/stm32h7xx_hal_msp.c ****    * LAN8720A RMII:
 101:Core/Src/stm32h7xx_hal_msp.c ****    * PA1  ETH_REF_CLK, PA2 ETH_MDIO, PA7 ETH_CRS_DV
 102:Core/Src/stm32h7xx_hal_msp.c ****    * PC1  ETH_MDC,     PC4 ETH_RXD0, PC5 ETH_RXD1
 103:Core/Src/stm32h7xx_hal_msp.c ****    * PB11 ETH_TX_EN,   PB12 ETH_TXD0, PB13 ETH_TXD1
 104:Core/Src/stm32h7xx_hal_msp.c ****    */
 105:Core/Src/stm32h7xx_hal_msp.c ****   GPIO_InitStruct.Pin = GPIO_PIN_1 | GPIO_PIN_2 | GPIO_PIN_7;
 106:Core/Src/stm32h7xx_hal_msp.c ****   GPIO_InitStruct.Mode = GPIO_MODE_AF_PP;
 107:Core/Src/stm32h7xx_hal_msp.c ****   GPIO_InitStruct.Pull = GPIO_NOPULL;
 108:Core/Src/stm32h7xx_hal_msp.c ****   GPIO_InitStruct.Speed = GPIO_SPEED_FREQ_VERY_HIGH;
 109:Core/Src/stm32h7xx_hal_msp.c ****   GPIO_InitStruct.Alternate = GPIO_AF11_ETH;
 110:Core/Src/stm32h7xx_hal_msp.c ****   HAL_GPIO_Init(GPIOA, &GPIO_InitStruct);
 111:Core/Src/stm32h7xx_hal_msp.c **** 
 112:Core/Src/stm32h7xx_hal_msp.c ****   GPIO_InitStruct.Pin = GPIO_PIN_1 | GPIO_PIN_4 | GPIO_PIN_5;
 113:Core/Src/stm32h7xx_hal_msp.c ****   HAL_GPIO_Init(GPIOC, &GPIO_InitStruct);
 114:Core/Src/stm32h7xx_hal_msp.c **** 
 115:Core/Src/stm32h7xx_hal_msp.c ****   GPIO_InitStruct.Pin = GPIO_PIN_11 | GPIO_PIN_12 | GPIO_PIN_13;
 116:Core/Src/stm32h7xx_hal_msp.c ****   HAL_GPIO_Init(GPIOB, &GPIO_InitStruct);
 117:Core/Src/stm32h7xx_hal_msp.c **** 
 118:Core/Src/stm32h7xx_hal_msp.c ****   HAL_NVIC_SetPriority(ETH_IRQn, 5, 0);
 119:Core/Src/stm32h7xx_hal_msp.c ****   HAL_NVIC_EnableIRQ(ETH_IRQn);
ARM GAS  C:\Users\hh\AppData\Local\Temp\cc9fkUwJ.s 			page 5


 120:Core/Src/stm32h7xx_hal_msp.c **** }
 113              		.loc 1 120 1 view .LVU16
 114 0018 0DB0     		add	sp, sp, #52
 115              	.LCFI5:
 116              		.cfi_remember_state
 117              		.cfi_def_cfa_offset 4
 118              		@ sp needed
 119 001a 00BD     		pop	{pc}
 120              	.LVL3:
 121              	.L9:
 122              	.LCFI6:
 123              		.cfi_restore_state
  91:Core/Src/stm32h7xx_hal_msp.c ****   __HAL_RCC_ETH1TX_CLK_ENABLE();
 124              		.loc 1 91 3 is_stmt 1 view .LVU17
 125              	.LBB3:
  91:Core/Src/stm32h7xx_hal_msp.c ****   __HAL_RCC_ETH1TX_CLK_ENABLE();
 126              		.loc 1 91 3 view .LVU18
  91:Core/Src/stm32h7xx_hal_msp.c ****   __HAL_RCC_ETH1TX_CLK_ENABLE();
 127              		.loc 1 91 3 view .LVU19
 128 001c 364B     		ldr	r3, .L10+4
 129 001e D3F8D820 		ldr	r2, [r3, #216]
 130 0022 42F40042 		orr	r2, r2, #32768
 131 0026 C3F8D820 		str	r2, [r3, #216]
  91:Core/Src/stm32h7xx_hal_msp.c ****   __HAL_RCC_ETH1TX_CLK_ENABLE();
 132              		.loc 1 91 3 view .LVU20
 133 002a D3F8D820 		ldr	r2, [r3, #216]
 134 002e 02F40042 		and	r2, r2, #32768
 135 0032 0192     		str	r2, [sp, #4]
  91:Core/Src/stm32h7xx_hal_msp.c ****   __HAL_RCC_ETH1TX_CLK_ENABLE();
 136              		.loc 1 91 3 view .LVU21
 137 0034 019A     		ldr	r2, [sp, #4]
 138              	.LBE3:
  91:Core/Src/stm32h7xx_hal_msp.c ****   __HAL_RCC_ETH1TX_CLK_ENABLE();
 139              		.loc 1 91 3 view .LVU22
  92:Core/Src/stm32h7xx_hal_msp.c ****   __HAL_RCC_ETH1RX_CLK_ENABLE();
 140              		.loc 1 92 3 view .LVU23
 141              	.LBB4:
  92:Core/Src/stm32h7xx_hal_msp.c ****   __HAL_RCC_ETH1RX_CLK_ENABLE();
 142              		.loc 1 92 3 view .LVU24
  92:Core/Src/stm32h7xx_hal_msp.c ****   __HAL_RCC_ETH1RX_CLK_ENABLE();
 143              		.loc 1 92 3 view .LVU25
 144 0036 D3F8D820 		ldr	r2, [r3, #216]
 145 003a 42F48032 		orr	r2, r2, #65536
 146 003e C3F8D820 		str	r2, [r3, #216]
  92:Core/Src/stm32h7xx_hal_msp.c ****   __HAL_RCC_ETH1RX_CLK_ENABLE();
 147              		.loc 1 92 3 view .LVU26
 148 0042 D3F8D820 		ldr	r2, [r3, #216]
 149 0046 02F48032 		and	r2, r2, #65536
 150 004a 0292     		str	r2, [sp, #8]
  92:Core/Src/stm32h7xx_hal_msp.c ****   __HAL_RCC_ETH1RX_CLK_ENABLE();
 151              		.loc 1 92 3 view .LVU27
 152 004c 029A     		ldr	r2, [sp, #8]
 153              	.LBE4:
  92:Core/Src/stm32h7xx_hal_msp.c ****   __HAL_RCC_ETH1RX_CLK_ENABLE();
 154              		.loc 1 92 3 view .LVU28
  93:Core/Src/stm32h7xx_hal_msp.c **** 
 155              		.loc 1 93 3 view .LVU29
ARM GAS  C:\Users\hh\AppData\Local\Temp\cc9fkUwJ.s 			page 6


 156              	.LBB5:
  93:Core/Src/stm32h7xx_hal_msp.c **** 
 157              		.loc 1 93 3 view .LVU30
  93:Core/Src/stm32h7xx_hal_msp.c **** 
 158              		.loc 1 93 3 view .LVU31
 159 004e D3F8D820 		ldr	r2, [r3, #216]
 160 0052 42F40032 		orr	r2, r2, #131072
 161 0056 C3F8D820 		str	r2, [r3, #216]
  93:Core/Src/stm32h7xx_hal_msp.c **** 
 162              		.loc 1 93 3 view .LVU32
 163 005a D3F8D820 		ldr	r2, [r3, #216]
 164 005e 02F40032 		and	r2, r2, #131072
 165 0062 0392     		str	r2, [sp, #12]
  93:Core/Src/stm32h7xx_hal_msp.c **** 
 166              		.loc 1 93 3 view .LVU33
 167 0064 039A     		ldr	r2, [sp, #12]
 168              	.LBE5:
  93:Core/Src/stm32h7xx_hal_msp.c **** 
 169              		.loc 1 93 3 view .LVU34
  95:Core/Src/stm32h7xx_hal_msp.c ****   __HAL_RCC_GPIOB_CLK_ENABLE();
 170              		.loc 1 95 3 view .LVU35
 171              	.LBB6:
  95:Core/Src/stm32h7xx_hal_msp.c ****   __HAL_RCC_GPIOB_CLK_ENABLE();
 172              		.loc 1 95 3 view .LVU36
  95:Core/Src/stm32h7xx_hal_msp.c ****   __HAL_RCC_GPIOB_CLK_ENABLE();
 173              		.loc 1 95 3 view .LVU37
 174 0066 D3F8E020 		ldr	r2, [r3, #224]
 175 006a 42F00102 		orr	r2, r2, #1
 176 006e C3F8E020 		str	r2, [r3, #224]
  95:Core/Src/stm32h7xx_hal_msp.c ****   __HAL_RCC_GPIOB_CLK_ENABLE();
 177              		.loc 1 95 3 view .LVU38
 178 0072 D3F8E020 		ldr	r2, [r3, #224]
 179 0076 02F00102 		and	r2, r2, #1
 180 007a 0492     		str	r2, [sp, #16]
  95:Core/Src/stm32h7xx_hal_msp.c ****   __HAL_RCC_GPIOB_CLK_ENABLE();
 181              		.loc 1 95 3 view .LVU39
 182 007c 049A     		ldr	r2, [sp, #16]
 183              	.LBE6:
  95:Core/Src/stm32h7xx_hal_msp.c ****   __HAL_RCC_GPIOB_CLK_ENABLE();
 184              		.loc 1 95 3 view .LVU40
  96:Core/Src/stm32h7xx_hal_msp.c ****   __HAL_RCC_GPIOC_CLK_ENABLE();
 185              		.loc 1 96 3 view .LVU41
 186              	.LBB7:
  96:Core/Src/stm32h7xx_hal_msp.c ****   __HAL_RCC_GPIOC_CLK_ENABLE();
 187              		.loc 1 96 3 view .LVU42
  96:Core/Src/stm32h7xx_hal_msp.c ****   __HAL_RCC_GPIOC_CLK_ENABLE();
 188              		.loc 1 96 3 view .LVU43
 189 007e D3F8E020 		ldr	r2, [r3, #224]
 190 0082 42F00202 		orr	r2, r2, #2
 191 0086 C3F8E020 		str	r2, [r3, #224]
  96:Core/Src/stm32h7xx_hal_msp.c ****   __HAL_RCC_GPIOC_CLK_ENABLE();
 192              		.loc 1 96 3 view .LVU44
 193 008a D3F8E020 		ldr	r2, [r3, #224]
 194 008e 02F00202 		and	r2, r2, #2
 195 0092 0592     		str	r2, [sp, #20]
  96:Core/Src/stm32h7xx_hal_msp.c ****   __HAL_RCC_GPIOC_CLK_ENABLE();
 196              		.loc 1 96 3 view .LVU45
ARM GAS  C:\Users\hh\AppData\Local\Temp\cc9fkUwJ.s 			page 7


 197 0094 059A     		ldr	r2, [sp, #20]
 198              	.LBE7:
  96:Core/Src/stm32h7xx_hal_msp.c ****   __HAL_RCC_GPIOC_CLK_ENABLE();
 199              		.loc 1 96 3 view .LVU46
  97:Core/Src/stm32h7xx_hal_msp.c **** 
 200              		.loc 1 97 3 view .LVU47
 201              	.LBB8:
  97:Core/Src/stm32h7xx_hal_msp.c **** 
 202              		.loc 1 97 3 view .LVU48
  97:Core/Src/stm32h7xx_hal_msp.c **** 
 203              		.loc 1 97 3 view .LVU49
 204 0096 D3F8E020 		ldr	r2, [r3, #224]
 205 009a 42F00402 		orr	r2, r2, #4
 206 009e C3F8E020 		str	r2, [r3, #224]
  97:Core/Src/stm32h7xx_hal_msp.c **** 
 207              		.loc 1 97 3 view .LVU50
 208 00a2 D3F8E030 		ldr	r3, [r3, #224]
 209 00a6 03F00403 		and	r3, r3, #4
 210 00aa 0693     		str	r3, [sp, #24]
  97:Core/Src/stm32h7xx_hal_msp.c **** 
 211              		.loc 1 97 3 view .LVU51
 212 00ac 069B     		ldr	r3, [sp, #24]
 213              	.LBE8:
  97:Core/Src/stm32h7xx_hal_msp.c **** 
 214              		.loc 1 97 3 view .LVU52
 105:Core/Src/stm32h7xx_hal_msp.c ****   GPIO_InitStruct.Mode = GPIO_MODE_AF_PP;
 215              		.loc 1 105 3 view .LVU53
 105:Core/Src/stm32h7xx_hal_msp.c ****   GPIO_InitStruct.Mode = GPIO_MODE_AF_PP;
 216              		.loc 1 105 23 is_stmt 0 view .LVU54
 217 00ae 8623     		movs	r3, #134
 218 00b0 0793     		str	r3, [sp, #28]
 106:Core/Src/stm32h7xx_hal_msp.c ****   GPIO_InitStruct.Pull = GPIO_NOPULL;
 219              		.loc 1 106 3 is_stmt 1 view .LVU55
 106:Core/Src/stm32h7xx_hal_msp.c ****   GPIO_InitStruct.Pull = GPIO_NOPULL;
 220              		.loc 1 106 24 is_stmt 0 view .LVU56
 221 00b2 0223     		movs	r3, #2
 222 00b4 0893     		str	r3, [sp, #32]
 107:Core/Src/stm32h7xx_hal_msp.c ****   GPIO_InitStruct.Speed = GPIO_SPEED_FREQ_VERY_HIGH;
 223              		.loc 1 107 3 is_stmt 1 view .LVU57
 108:Core/Src/stm32h7xx_hal_msp.c ****   GPIO_InitStruct.Alternate = GPIO_AF11_ETH;
 224              		.loc 1 108 3 view .LVU58
 108:Core/Src/stm32h7xx_hal_msp.c ****   GPIO_InitStruct.Alternate = GPIO_AF11_ETH;
 225              		.loc 1 108 25 is_stmt 0 view .LVU59
 226 00b6 0323     		movs	r3, #3
 227 00b8 0A93     		str	r3, [sp, #40]
 109:Core/Src/stm32h7xx_hal_msp.c ****   HAL_GPIO_Init(GPIOA, &GPIO_InitStruct);
 228              		.loc 1 109 3 is_stmt 1 view .LVU60
 109:Core/Src/stm32h7xx_hal_msp.c ****   HAL_GPIO_Init(GPIOA, &GPIO_InitStruct);
 229              		.loc 1 109 29 is_stmt 0 view .LVU61
 230 00ba 0B23     		movs	r3, #11
 231 00bc 0B93     		str	r3, [sp, #44]
 110:Core/Src/stm32h7xx_hal_msp.c **** 
 232              		.loc 1 110 3 is_stmt 1 view .LVU62
 233 00be 07A9     		add	r1, sp, #28
 234 00c0 0E48     		ldr	r0, .L10+8
 235              	.LVL4:
 110:Core/Src/stm32h7xx_hal_msp.c **** 
ARM GAS  C:\Users\hh\AppData\Local\Temp\cc9fkUwJ.s 			page 8


 236              		.loc 1 110 3 is_stmt 0 view .LVU63
 237 00c2 FFF7FEFF 		bl	HAL_GPIO_Init
 238              	.LVL5:
 112:Core/Src/stm32h7xx_hal_msp.c ****   HAL_GPIO_Init(GPIOC, &GPIO_InitStruct);
 239              		.loc 1 112 3 is_stmt 1 view .LVU64
 112:Core/Src/stm32h7xx_hal_msp.c ****   HAL_GPIO_Init(GPIOC, &GPIO_InitStruct);
 240              		.loc 1 112 23 is_stmt 0 view .LVU65
 241 00c6 3223     		movs	r3, #50
 242 00c8 0793     		str	r3, [sp, #28]
 113:Core/Src/stm32h7xx_hal_msp.c **** 
 243              		.loc 1 113 3 is_stmt 1 view .LVU66
 244 00ca 07A9     		add	r1, sp, #28
 245 00cc 0C48     		ldr	r0, .L10+12
 246 00ce FFF7FEFF 		bl	HAL_GPIO_Init
 247              	.LVL6:
 115:Core/Src/stm32h7xx_hal_msp.c ****   HAL_GPIO_Init(GPIOB, &GPIO_InitStruct);
 248              		.loc 1 115 3 view .LVU67
 115:Core/Src/stm32h7xx_hal_msp.c ****   HAL_GPIO_Init(GPIOB, &GPIO_InitStruct);
 249              		.loc 1 115 23 is_stmt 0 view .LVU68
 250 00d2 4FF46053 		mov	r3, #14336
 251 00d6 0793     		str	r3, [sp, #28]
 116:Core/Src/stm32h7xx_hal_msp.c **** 
 252              		.loc 1 116 3 is_stmt 1 view .LVU69
 253 00d8 07A9     		add	r1, sp, #28
 254 00da 0A48     		ldr	r0, .L10+16
 255 00dc FFF7FEFF 		bl	HAL_GPIO_Init
 256              	.LVL7:
 118:Core/Src/stm32h7xx_hal_msp.c ****   HAL_NVIC_EnableIRQ(ETH_IRQn);
 257              		.loc 1 118 3 view .LVU70
 258 00e0 0022     		movs	r2, #0
 259 00e2 0521     		movs	r1, #5
 260 00e4 3D20     		movs	r0, #61
 261 00e6 FFF7FEFF 		bl	HAL_NVIC_SetPriority
 262              	.LVL8:
 119:Core/Src/stm32h7xx_hal_msp.c **** }
 263              		.loc 1 119 3 view .LVU71
 264 00ea 3D20     		movs	r0, #61
 265 00ec FFF7FEFF 		bl	HAL_NVIC_EnableIRQ
 266              	.LVL9:
 267 00f0 92E7     		b	.L5
 268              	.L11:
 269 00f2 00BF     		.align	2
 270              	.L10:
 271 00f4 00800240 		.word	1073905664
 272 00f8 00440258 		.word	1476543488
 273 00fc 00000258 		.word	1476526080
 274 0100 00080258 		.word	1476528128
 275 0104 00040258 		.word	1476527104
 276              		.cfi_endproc
 277              	.LFE147:
 279              		.section	.text.HAL_ETH_MspDeInit,"ax",%progbits
 280              		.align	1
 281              		.global	HAL_ETH_MspDeInit
 282              		.syntax unified
 283              		.thumb
 284              		.thumb_func
 286              	HAL_ETH_MspDeInit:
ARM GAS  C:\Users\hh\AppData\Local\Temp\cc9fkUwJ.s 			page 9


 287              	.LVL10:
 288              	.LFB148:
 121:Core/Src/stm32h7xx_hal_msp.c **** 
 122:Core/Src/stm32h7xx_hal_msp.c **** void HAL_ETH_MspDeInit(ETH_HandleTypeDef* heth)
 123:Core/Src/stm32h7xx_hal_msp.c **** {
 289              		.loc 1 123 1 view -0
 290              		.cfi_startproc
 291              		@ args = 0, pretend = 0, frame = 0
 292              		@ frame_needed = 0, uses_anonymous_args = 0
 293              		.loc 1 123 1 is_stmt 0 view .LVU73
 294 0000 08B5     		push	{r3, lr}
 295              	.LCFI7:
 296              		.cfi_def_cfa_offset 8
 297              		.cfi_offset 3, -8
 298              		.cfi_offset 14, -4
 124:Core/Src/stm32h7xx_hal_msp.c ****   if (heth->Instance != ETH)
 299              		.loc 1 124 3 is_stmt 1 view .LVU74
 300              		.loc 1 124 11 is_stmt 0 view .LVU75
 301 0002 0268     		ldr	r2, [r0]
 302              		.loc 1 124 6 view .LVU76
 303 0004 134B     		ldr	r3, .L16
 304 0006 9A42     		cmp	r2, r3
 305 0008 00D0     		beq	.L15
 306              	.LVL11:
 307              	.L12:
 125:Core/Src/stm32h7xx_hal_msp.c ****   {
 126:Core/Src/stm32h7xx_hal_msp.c ****     return;
 127:Core/Src/stm32h7xx_hal_msp.c ****   }
 128:Core/Src/stm32h7xx_hal_msp.c **** 
 129:Core/Src/stm32h7xx_hal_msp.c ****   __HAL_RCC_ETH1MAC_CLK_DISABLE();
 130:Core/Src/stm32h7xx_hal_msp.c ****   __HAL_RCC_ETH1TX_CLK_DISABLE();
 131:Core/Src/stm32h7xx_hal_msp.c ****   __HAL_RCC_ETH1RX_CLK_DISABLE();
 132:Core/Src/stm32h7xx_hal_msp.c **** 
 133:Core/Src/stm32h7xx_hal_msp.c ****   HAL_GPIO_DeInit(GPIOA, GPIO_PIN_1 | GPIO_PIN_2 | GPIO_PIN_7);
 134:Core/Src/stm32h7xx_hal_msp.c ****   HAL_GPIO_DeInit(GPIOC, GPIO_PIN_1 | GPIO_PIN_4 | GPIO_PIN_5);
 135:Core/Src/stm32h7xx_hal_msp.c ****   HAL_GPIO_DeInit(GPIOB, GPIO_PIN_11 | GPIO_PIN_12 | GPIO_PIN_13);
 136:Core/Src/stm32h7xx_hal_msp.c **** 
 137:Core/Src/stm32h7xx_hal_msp.c ****   HAL_NVIC_DisableIRQ(ETH_IRQn);
 138:Core/Src/stm32h7xx_hal_msp.c **** }
 308              		.loc 1 138 1 view .LVU77
 309 000a 08BD     		pop	{r3, pc}
 310              	.LVL12:
 311              	.L15:
 129:Core/Src/stm32h7xx_hal_msp.c ****   __HAL_RCC_ETH1TX_CLK_DISABLE();
 312              		.loc 1 129 3 is_stmt 1 view .LVU78
 313 000c 124B     		ldr	r3, .L16+4
 314 000e D3F8D820 		ldr	r2, [r3, #216]
 315 0012 22F40042 		bic	r2, r2, #32768
 316 0016 C3F8D820 		str	r2, [r3, #216]
 130:Core/Src/stm32h7xx_hal_msp.c ****   __HAL_RCC_ETH1RX_CLK_DISABLE();
 317              		.loc 1 130 3 view .LVU79
 318 001a D3F8D820 		ldr	r2, [r3, #216]
 319 001e 22F48032 		bic	r2, r2, #65536
 320 0022 C3F8D820 		str	r2, [r3, #216]
 131:Core/Src/stm32h7xx_hal_msp.c **** 
 321              		.loc 1 131 3 view .LVU80
 322 0026 D3F8D820 		ldr	r2, [r3, #216]
ARM GAS  C:\Users\hh\AppData\Local\Temp\cc9fkUwJ.s 			page 10


 323 002a 22F40032 		bic	r2, r2, #131072
 324 002e C3F8D820 		str	r2, [r3, #216]
 133:Core/Src/stm32h7xx_hal_msp.c ****   HAL_GPIO_DeInit(GPIOC, GPIO_PIN_1 | GPIO_PIN_4 | GPIO_PIN_5);
 325              		.loc 1 133 3 view .LVU81
 326 0032 8621     		movs	r1, #134
 327 0034 0948     		ldr	r0, .L16+8
 328              	.LVL13:
 133:Core/Src/stm32h7xx_hal_msp.c ****   HAL_GPIO_DeInit(GPIOC, GPIO_PIN_1 | GPIO_PIN_4 | GPIO_PIN_5);
 329              		.loc 1 133 3 is_stmt 0 view .LVU82
 330 0036 FFF7FEFF 		bl	HAL_GPIO_DeInit
 331              	.LVL14:
 134:Core/Src/stm32h7xx_hal_msp.c ****   HAL_GPIO_DeInit(GPIOB, GPIO_PIN_11 | GPIO_PIN_12 | GPIO_PIN_13);
 332              		.loc 1 134 3 is_stmt 1 view .LVU83
 333 003a 3221     		movs	r1, #50
 334 003c 0848     		ldr	r0, .L16+12
 335 003e FFF7FEFF 		bl	HAL_GPIO_DeInit
 336              	.LVL15:
 135:Core/Src/stm32h7xx_hal_msp.c **** 
 337              		.loc 1 135 3 view .LVU84
 338 0042 4FF46051 		mov	r1, #14336
 339 0046 0748     		ldr	r0, .L16+16
 340 0048 FFF7FEFF 		bl	HAL_GPIO_DeInit
 341              	.LVL16:
 137:Core/Src/stm32h7xx_hal_msp.c **** }
 342              		.loc 1 137 3 view .LVU85
 343 004c 3D20     		movs	r0, #61
 344 004e FFF7FEFF 		bl	HAL_NVIC_DisableIRQ
 345              	.LVL17:
 346 0052 DAE7     		b	.L12
 347              	.L17:
 348              		.align	2
 349              	.L16:
 350 0054 00800240 		.word	1073905664
 351 0058 00440258 		.word	1476543488
 352 005c 00000258 		.word	1476526080
 353 0060 00080258 		.word	1476528128
 354 0064 00040258 		.word	1476527104
 355              		.cfi_endproc
 356              	.LFE148:
 358              		.text
 359              	.Letext0:
 360              		.file 2 "Drivers/CMSIS/Device/ST/STM32H7xx/Include/stm32h743xx.h"
 361              		.file 3 "C:/Program Files (x86)/ARM/arm-gnu-toolchain-15.2.rel1-mingw-w64-i686-arm-none-eabi/arm-n
 362              		.file 4 "C:/Program Files (x86)/ARM/arm-gnu-toolchain-15.2.rel1-mingw-w64-i686-arm-none-eabi/arm-n
 363              		.file 5 "Drivers/STM32H7xx_HAL_Driver/Inc/stm32h7xx_hal_gpio.h"
 364              		.file 6 "Drivers/STM32H7xx_HAL_Driver/Inc/stm32h7xx_hal_eth.h"
 365              		.file 7 "Drivers/STM32H7xx_HAL_Driver/Inc/stm32h7xx_hal_cortex.h"
ARM GAS  C:\Users\hh\AppData\Local\Temp\cc9fkUwJ.s 			page 11

