ARM GAS  C:\Users\hh\AppData\Local\Temp\ccJiyNKk.s 			page 1


   1              		.cpu cortex-m7
   2              		.arch armv7e-m
   3              		.fpu fpv5-d16
   4              		.eabi_attribute 28, 1
   5              		.eabi_attribute 20, 1
   6              		.eabi_attribute 21, 1
   7              		.eabi_attribute 23, 3
   8              		.eabi_attribute 24, 1
   9              		.eabi_attribute 25, 1
  10              		.eabi_attribute 26, 1
  11              		.eabi_attribute 30, 1
  12              		.eabi_attribute 34, 1
  13              		.eabi_attribute 18, 4
  14              		.file	"tcpip.c"
  15              		.text
  16              	.Ltext0:
  17              		.cfi_sections	.debug_frame
  18              		.file 1 "Middlewares/Third_Party/LwIP/src/api/tcpip.c"
  19              		.section	.text.tcpip_mbox_fetch,"ax",%progbits
  20              		.align	1
  21              		.syntax unified
  22              		.thumb
  23              		.thumb_func
  25              	tcpip_mbox_fetch:
  26              	.LVL0:
  27              	.LFB172:
   1:Middlewares/Third_Party/LwIP/src/api/tcpip.c **** /**
   2:Middlewares/Third_Party/LwIP/src/api/tcpip.c ****  * @file
   3:Middlewares/Third_Party/LwIP/src/api/tcpip.c ****  * Sequential API Main thread module
   4:Middlewares/Third_Party/LwIP/src/api/tcpip.c ****  *
   5:Middlewares/Third_Party/LwIP/src/api/tcpip.c ****  */
   6:Middlewares/Third_Party/LwIP/src/api/tcpip.c **** 
   7:Middlewares/Third_Party/LwIP/src/api/tcpip.c **** /*
   8:Middlewares/Third_Party/LwIP/src/api/tcpip.c ****  * Copyright (c) 2001-2004 Swedish Institute of Computer Science.
   9:Middlewares/Third_Party/LwIP/src/api/tcpip.c ****  * All rights reserved.
  10:Middlewares/Third_Party/LwIP/src/api/tcpip.c ****  *
  11:Middlewares/Third_Party/LwIP/src/api/tcpip.c ****  * Redistribution and use in source and binary forms, with or without modification,
  12:Middlewares/Third_Party/LwIP/src/api/tcpip.c ****  * are permitted provided that the following conditions are met:
  13:Middlewares/Third_Party/LwIP/src/api/tcpip.c ****  *
  14:Middlewares/Third_Party/LwIP/src/api/tcpip.c ****  * 1. Redistributions of source code must retain the above copyright notice,
  15:Middlewares/Third_Party/LwIP/src/api/tcpip.c ****  *    this list of conditions and the following disclaimer.
  16:Middlewares/Third_Party/LwIP/src/api/tcpip.c ****  * 2. Redistributions in binary form must reproduce the above copyright notice,
  17:Middlewares/Third_Party/LwIP/src/api/tcpip.c ****  *    this list of conditions and the following disclaimer in the documentation
  18:Middlewares/Third_Party/LwIP/src/api/tcpip.c ****  *    and/or other materials provided with the distribution.
  19:Middlewares/Third_Party/LwIP/src/api/tcpip.c ****  * 3. The name of the author may not be used to endorse or promote products
  20:Middlewares/Third_Party/LwIP/src/api/tcpip.c ****  *    derived from this software without specific prior written permission.
  21:Middlewares/Third_Party/LwIP/src/api/tcpip.c ****  *
  22:Middlewares/Third_Party/LwIP/src/api/tcpip.c ****  * THIS SOFTWARE IS PROVIDED BY THE AUTHOR ``AS IS'' AND ANY EXPRESS OR IMPLIED
  23:Middlewares/Third_Party/LwIP/src/api/tcpip.c ****  * WARRANTIES, INCLUDING, BUT NOT LIMITED TO, THE IMPLIED WARRANTIES OF
  24:Middlewares/Third_Party/LwIP/src/api/tcpip.c ****  * MERCHANTABILITY AND FITNESS FOR A PARTICULAR PURPOSE ARE DISCLAIMED. IN NO EVENT
  25:Middlewares/Third_Party/LwIP/src/api/tcpip.c ****  * SHALL THE AUTHOR BE LIABLE FOR ANY DIRECT, INDIRECT, INCIDENTAL, SPECIAL,
  26:Middlewares/Third_Party/LwIP/src/api/tcpip.c ****  * EXEMPLARY, OR CONSEQUENTIAL DAMAGES (INCLUDING, BUT NOT LIMITED TO, PROCUREMENT
  27:Middlewares/Third_Party/LwIP/src/api/tcpip.c ****  * OF SUBSTITUTE GOODS OR SERVICES; LOSS OF USE, DATA, OR PROFITS; OR BUSINESS
  28:Middlewares/Third_Party/LwIP/src/api/tcpip.c ****  * INTERRUPTION) HOWEVER CAUSED AND ON ANY THEORY OF LIABILITY, WHETHER IN
  29:Middlewares/Third_Party/LwIP/src/api/tcpip.c ****  * CONTRACT, STRICT LIABILITY, OR TORT (INCLUDING NEGLIGENCE OR OTHERWISE) ARISING
  30:Middlewares/Third_Party/LwIP/src/api/tcpip.c ****  * IN ANY WAY OUT OF THE USE OF THIS SOFTWARE, EVEN IF ADVISED OF THE POSSIBILITY
  31:Middlewares/Third_Party/LwIP/src/api/tcpip.c ****  * OF SUCH DAMAGE.
ARM GAS  C:\Users\hh\AppData\Local\Temp\ccJiyNKk.s 			page 2


  32:Middlewares/Third_Party/LwIP/src/api/tcpip.c ****  *
  33:Middlewares/Third_Party/LwIP/src/api/tcpip.c ****  * This file is part of the lwIP TCP/IP stack.
  34:Middlewares/Third_Party/LwIP/src/api/tcpip.c ****  *
  35:Middlewares/Third_Party/LwIP/src/api/tcpip.c ****  * Author: Adam Dunkels <adam@sics.se>
  36:Middlewares/Third_Party/LwIP/src/api/tcpip.c ****  *
  37:Middlewares/Third_Party/LwIP/src/api/tcpip.c ****  */
  38:Middlewares/Third_Party/LwIP/src/api/tcpip.c **** 
  39:Middlewares/Third_Party/LwIP/src/api/tcpip.c **** #include "lwip/opt.h"
  40:Middlewares/Third_Party/LwIP/src/api/tcpip.c **** 
  41:Middlewares/Third_Party/LwIP/src/api/tcpip.c **** #if !NO_SYS /* don't build if not configured for use in lwipopts.h */
  42:Middlewares/Third_Party/LwIP/src/api/tcpip.c **** 
  43:Middlewares/Third_Party/LwIP/src/api/tcpip.c **** #include "lwip/priv/tcpip_priv.h"
  44:Middlewares/Third_Party/LwIP/src/api/tcpip.c **** #include "lwip/sys.h"
  45:Middlewares/Third_Party/LwIP/src/api/tcpip.c **** #include "lwip/memp.h"
  46:Middlewares/Third_Party/LwIP/src/api/tcpip.c **** #include "lwip/mem.h"
  47:Middlewares/Third_Party/LwIP/src/api/tcpip.c **** #include "lwip/init.h"
  48:Middlewares/Third_Party/LwIP/src/api/tcpip.c **** #include "lwip/ip.h"
  49:Middlewares/Third_Party/LwIP/src/api/tcpip.c **** #include "lwip/pbuf.h"
  50:Middlewares/Third_Party/LwIP/src/api/tcpip.c **** #include "lwip/etharp.h"
  51:Middlewares/Third_Party/LwIP/src/api/tcpip.c **** #include "netif/ethernet.h"
  52:Middlewares/Third_Party/LwIP/src/api/tcpip.c **** 
  53:Middlewares/Third_Party/LwIP/src/api/tcpip.c **** #define TCPIP_MSG_VAR_REF(name)     API_VAR_REF(name)
  54:Middlewares/Third_Party/LwIP/src/api/tcpip.c **** #define TCPIP_MSG_VAR_DECLARE(name) API_VAR_DECLARE(struct tcpip_msg, name)
  55:Middlewares/Third_Party/LwIP/src/api/tcpip.c **** #define TCPIP_MSG_VAR_ALLOC(name)   API_VAR_ALLOC(struct tcpip_msg, MEMP_TCPIP_MSG_API, name, ERR_M
  56:Middlewares/Third_Party/LwIP/src/api/tcpip.c **** #define TCPIP_MSG_VAR_FREE(name)    API_VAR_FREE(MEMP_TCPIP_MSG_API, name)
  57:Middlewares/Third_Party/LwIP/src/api/tcpip.c **** 
  58:Middlewares/Third_Party/LwIP/src/api/tcpip.c **** /* global variables */
  59:Middlewares/Third_Party/LwIP/src/api/tcpip.c **** static tcpip_init_done_fn tcpip_init_done;
  60:Middlewares/Third_Party/LwIP/src/api/tcpip.c **** static void *tcpip_init_done_arg;
  61:Middlewares/Third_Party/LwIP/src/api/tcpip.c **** static sys_mbox_t tcpip_mbox;
  62:Middlewares/Third_Party/LwIP/src/api/tcpip.c **** 
  63:Middlewares/Third_Party/LwIP/src/api/tcpip.c **** #if LWIP_TCPIP_CORE_LOCKING
  64:Middlewares/Third_Party/LwIP/src/api/tcpip.c **** /** The global semaphore to lock the stack. */
  65:Middlewares/Third_Party/LwIP/src/api/tcpip.c **** sys_mutex_t lock_tcpip_core;
  66:Middlewares/Third_Party/LwIP/src/api/tcpip.c **** #endif /* LWIP_TCPIP_CORE_LOCKING */
  67:Middlewares/Third_Party/LwIP/src/api/tcpip.c **** 
  68:Middlewares/Third_Party/LwIP/src/api/tcpip.c **** static void tcpip_thread_handle_msg(struct tcpip_msg *msg);
  69:Middlewares/Third_Party/LwIP/src/api/tcpip.c **** 
  70:Middlewares/Third_Party/LwIP/src/api/tcpip.c **** #if !LWIP_TIMERS
  71:Middlewares/Third_Party/LwIP/src/api/tcpip.c **** 
  72:Middlewares/Third_Party/LwIP/src/api/tcpip.c **** /** Wait for a message with timers disabled (e.g. pass a timer-check trigger into tcpip_thread) */
  73:Middlewares/Third_Party/LwIP/src/api/tcpip.c **** static void
  74:Middlewares/Third_Party/LwIP/src/api/tcpip.c **** tcpip_mbox_fetch(sys_mbox_t* mbox, void** msg)
  75:Middlewares/Third_Party/LwIP/src/api/tcpip.c **** {
  76:Middlewares/Third_Party/LwIP/src/api/tcpip.c ****   LWIP_ASSERT_CORE_LOCKED();
  77:Middlewares/Third_Party/LwIP/src/api/tcpip.c **** 
  78:Middlewares/Third_Party/LwIP/src/api/tcpip.c ****   UNLOCK_TCPIP_CORE();
  79:Middlewares/Third_Party/LwIP/src/api/tcpip.c ****   sys_mbox_fetch(mbox, msg);
  80:Middlewares/Third_Party/LwIP/src/api/tcpip.c ****   LOCK_TCPIP_CORE();
  81:Middlewares/Third_Party/LwIP/src/api/tcpip.c **** }
  82:Middlewares/Third_Party/LwIP/src/api/tcpip.c **** 
  83:Middlewares/Third_Party/LwIP/src/api/tcpip.c **** #else /* !LWIP_TIMERS */
  84:Middlewares/Third_Party/LwIP/src/api/tcpip.c **** 
  85:Middlewares/Third_Party/LwIP/src/api/tcpip.c **** /**
  86:Middlewares/Third_Party/LwIP/src/api/tcpip.c ****  * Wait (forever) for a message to arrive in an mbox.
  87:Middlewares/Third_Party/LwIP/src/api/tcpip.c ****  * While waiting, timeouts are processed.
  88:Middlewares/Third_Party/LwIP/src/api/tcpip.c ****  *
ARM GAS  C:\Users\hh\AppData\Local\Temp\ccJiyNKk.s 			page 3


  89:Middlewares/Third_Party/LwIP/src/api/tcpip.c ****  * @param mbox the mbox to fetch the message from
  90:Middlewares/Third_Party/LwIP/src/api/tcpip.c ****  * @param msg the place to store the message
  91:Middlewares/Third_Party/LwIP/src/api/tcpip.c ****  */
  92:Middlewares/Third_Party/LwIP/src/api/tcpip.c **** static void
  93:Middlewares/Third_Party/LwIP/src/api/tcpip.c **** tcpip_mbox_fetch(sys_mbox_t *mbox, void **msg)
  94:Middlewares/Third_Party/LwIP/src/api/tcpip.c **** {
  28              		.loc 1 94 1 view -0
  29              		.cfi_startproc
  30              		@ args = 0, pretend = 0, frame = 0
  31              		@ frame_needed = 0, uses_anonymous_args = 0
  32              		.loc 1 94 1 is_stmt 0 view .LVU1
  33 0000 F8B5     		push	{r3, r4, r5, r6, r7, lr}
  34              	.LCFI0:
  35              		.cfi_def_cfa_offset 24
  36              		.cfi_offset 3, -24
  37              		.cfi_offset 4, -20
  38              		.cfi_offset 5, -16
  39              		.cfi_offset 6, -12
  40              		.cfi_offset 7, -8
  41              		.cfi_offset 14, -4
  42 0002 0646     		mov	r6, r0
  43 0004 0F46     		mov	r7, r1
  44 0006 0EE0     		b	.L2
  45              	.LVL1:
  46              	.L8:
  95:Middlewares/Third_Party/LwIP/src/api/tcpip.c ****   u32_t sleeptime, res;
  96:Middlewares/Third_Party/LwIP/src/api/tcpip.c **** 
  97:Middlewares/Third_Party/LwIP/src/api/tcpip.c **** again:
  98:Middlewares/Third_Party/LwIP/src/api/tcpip.c ****   LWIP_ASSERT_CORE_LOCKED();
  99:Middlewares/Third_Party/LwIP/src/api/tcpip.c **** 
 100:Middlewares/Third_Party/LwIP/src/api/tcpip.c ****   sleeptime = sys_timeouts_sleeptime();
 101:Middlewares/Third_Party/LwIP/src/api/tcpip.c ****   if (sleeptime == SYS_TIMEOUTS_SLEEPTIME_INFINITE) {
 102:Middlewares/Third_Party/LwIP/src/api/tcpip.c ****     UNLOCK_TCPIP_CORE();
  47              		.loc 1 102 5 is_stmt 1 view .LVU2
  48 0008 144C     		ldr	r4, .L10
  49 000a 2046     		mov	r0, r4
  50              	.LVL2:
  51              		.loc 1 102 5 is_stmt 0 view .LVU3
  52 000c FFF7FEFF 		bl	sys_mutex_unlock
  53              	.LVL3:
 103:Middlewares/Third_Party/LwIP/src/api/tcpip.c ****     sys_arch_mbox_fetch(mbox, msg, 0);
  54              		.loc 1 103 5 is_stmt 1 view .LVU4
  55 0010 0022     		movs	r2, #0
  56 0012 3946     		mov	r1, r7
  57 0014 3046     		mov	r0, r6
  58 0016 FFF7FEFF 		bl	sys_arch_mbox_fetch
  59              	.LVL4:
 104:Middlewares/Third_Party/LwIP/src/api/tcpip.c ****     LOCK_TCPIP_CORE();
  60              		.loc 1 104 5 view .LVU5
  61 001a 2046     		mov	r0, r4
  62 001c FFF7FEFF 		bl	sys_mutex_lock
  63              	.LVL5:
 105:Middlewares/Third_Party/LwIP/src/api/tcpip.c ****     return;
  64              		.loc 1 105 5 view .LVU6
  65              	.L1:
 106:Middlewares/Third_Party/LwIP/src/api/tcpip.c ****   } else if (sleeptime == 0) {
 107:Middlewares/Third_Party/LwIP/src/api/tcpip.c ****     sys_check_timeouts();
ARM GAS  C:\Users\hh\AppData\Local\Temp\ccJiyNKk.s 			page 4


 108:Middlewares/Third_Party/LwIP/src/api/tcpip.c ****     /* We try again to fetch a message from the mbox. */
 109:Middlewares/Third_Party/LwIP/src/api/tcpip.c ****     goto again;
 110:Middlewares/Third_Party/LwIP/src/api/tcpip.c ****   }
 111:Middlewares/Third_Party/LwIP/src/api/tcpip.c **** 
 112:Middlewares/Third_Party/LwIP/src/api/tcpip.c ****   UNLOCK_TCPIP_CORE();
 113:Middlewares/Third_Party/LwIP/src/api/tcpip.c ****   res = sys_arch_mbox_fetch(mbox, msg, sleeptime);
 114:Middlewares/Third_Party/LwIP/src/api/tcpip.c ****   LOCK_TCPIP_CORE();
 115:Middlewares/Third_Party/LwIP/src/api/tcpip.c ****   if (res == SYS_ARCH_TIMEOUT) {
 116:Middlewares/Third_Party/LwIP/src/api/tcpip.c ****     /* If a SYS_ARCH_TIMEOUT value is returned, a timeout occurred
 117:Middlewares/Third_Party/LwIP/src/api/tcpip.c ****        before a message could be fetched. */
 118:Middlewares/Third_Party/LwIP/src/api/tcpip.c ****     sys_check_timeouts();
 119:Middlewares/Third_Party/LwIP/src/api/tcpip.c ****     /* We try again to fetch a message from the mbox. */
 120:Middlewares/Third_Party/LwIP/src/api/tcpip.c ****     goto again;
 121:Middlewares/Third_Party/LwIP/src/api/tcpip.c ****   }
 122:Middlewares/Third_Party/LwIP/src/api/tcpip.c **** }
  66              		.loc 1 122 1 is_stmt 0 view .LVU7
  67 0020 F8BD     		pop	{r3, r4, r5, r6, r7, pc}
  68              	.LVL6:
  69              	.L9:
 107:Middlewares/Third_Party/LwIP/src/api/tcpip.c ****     /* We try again to fetch a message from the mbox. */
  70              		.loc 1 107 5 is_stmt 1 view .LVU8
  71 0022 FFF7FEFF 		bl	sys_check_timeouts
  72              	.LVL7:
 109:Middlewares/Third_Party/LwIP/src/api/tcpip.c ****   }
  73              		.loc 1 109 5 view .LVU9
  74              	.L2:
  95:Middlewares/Third_Party/LwIP/src/api/tcpip.c **** 
  75              		.loc 1 95 3 view .LVU10
  98:Middlewares/Third_Party/LwIP/src/api/tcpip.c **** 
  76              		.loc 1 98 28 view .LVU11
 100:Middlewares/Third_Party/LwIP/src/api/tcpip.c ****   if (sleeptime == SYS_TIMEOUTS_SLEEPTIME_INFINITE) {
  77              		.loc 1 100 3 view .LVU12
 100:Middlewares/Third_Party/LwIP/src/api/tcpip.c ****   if (sleeptime == SYS_TIMEOUTS_SLEEPTIME_INFINITE) {
  78              		.loc 1 100 15 is_stmt 0 view .LVU13
  79 0026 FFF7FEFF 		bl	sys_timeouts_sleeptime
  80              	.LVL8:
  81 002a 0446     		mov	r4, r0
  82              	.LVL9:
 101:Middlewares/Third_Party/LwIP/src/api/tcpip.c ****     UNLOCK_TCPIP_CORE();
  83              		.loc 1 101 3 is_stmt 1 view .LVU14
 101:Middlewares/Third_Party/LwIP/src/api/tcpip.c ****     UNLOCK_TCPIP_CORE();
  84              		.loc 1 101 6 is_stmt 0 view .LVU15
  85 002c B0F1FF3F 		cmp	r0, #-1
  86 0030 EAD0     		beq	.L8
 106:Middlewares/Third_Party/LwIP/src/api/tcpip.c ****     sys_check_timeouts();
  87              		.loc 1 106 10 is_stmt 1 view .LVU16
 106:Middlewares/Third_Party/LwIP/src/api/tcpip.c ****     sys_check_timeouts();
  88              		.loc 1 106 13 is_stmt 0 view .LVU17
  89 0032 0028     		cmp	r0, #0
  90 0034 F5D0     		beq	.L9
 112:Middlewares/Third_Party/LwIP/src/api/tcpip.c ****   res = sys_arch_mbox_fetch(mbox, msg, sleeptime);
  91              		.loc 1 112 3 is_stmt 1 view .LVU18
  92 0036 094D     		ldr	r5, .L10
  93 0038 2846     		mov	r0, r5
  94              	.LVL10:
 112:Middlewares/Third_Party/LwIP/src/api/tcpip.c ****   res = sys_arch_mbox_fetch(mbox, msg, sleeptime);
  95              		.loc 1 112 3 is_stmt 0 view .LVU19
ARM GAS  C:\Users\hh\AppData\Local\Temp\ccJiyNKk.s 			page 5


  96 003a FFF7FEFF 		bl	sys_mutex_unlock
  97              	.LVL11:
 113:Middlewares/Third_Party/LwIP/src/api/tcpip.c ****   LOCK_TCPIP_CORE();
  98              		.loc 1 113 3 is_stmt 1 view .LVU20
 113:Middlewares/Third_Party/LwIP/src/api/tcpip.c ****   LOCK_TCPIP_CORE();
  99              		.loc 1 113 9 is_stmt 0 view .LVU21
 100 003e 2246     		mov	r2, r4
 101 0040 3946     		mov	r1, r7
 102 0042 3046     		mov	r0, r6
 103 0044 FFF7FEFF 		bl	sys_arch_mbox_fetch
 104              	.LVL12:
 105 0048 0446     		mov	r4, r0
 106              	.LVL13:
 114:Middlewares/Third_Party/LwIP/src/api/tcpip.c ****   if (res == SYS_ARCH_TIMEOUT) {
 107              		.loc 1 114 3 is_stmt 1 view .LVU22
 108 004a 2846     		mov	r0, r5
 109              	.LVL14:
 114:Middlewares/Third_Party/LwIP/src/api/tcpip.c ****   if (res == SYS_ARCH_TIMEOUT) {
 110              		.loc 1 114 3 is_stmt 0 view .LVU23
 111 004c FFF7FEFF 		bl	sys_mutex_lock
 112              	.LVL15:
 115:Middlewares/Third_Party/LwIP/src/api/tcpip.c ****     /* If a SYS_ARCH_TIMEOUT value is returned, a timeout occurred
 113              		.loc 1 115 3 is_stmt 1 view .LVU24
 115:Middlewares/Third_Party/LwIP/src/api/tcpip.c ****     /* If a SYS_ARCH_TIMEOUT value is returned, a timeout occurred
 114              		.loc 1 115 6 is_stmt 0 view .LVU25
 115 0050 B4F1FF3F 		cmp	r4, #-1
 116 0054 E4D1     		bne	.L1
 118:Middlewares/Third_Party/LwIP/src/api/tcpip.c ****     /* We try again to fetch a message from the mbox. */
 117              		.loc 1 118 5 is_stmt 1 view .LVU26
 118 0056 FFF7FEFF 		bl	sys_check_timeouts
 119              	.LVL16:
 120:Middlewares/Third_Party/LwIP/src/api/tcpip.c ****   }
 120              		.loc 1 120 5 view .LVU27
 121              	.L3:
 122 005a E4E7     		b	.L2
 123              	.L11:
 124              		.align	2
 125              	.L10:
 126 005c 00000000 		.word	lock_tcpip_core
 127              		.cfi_endproc
 128              	.LFE172:
 130              		.section	.rodata.tcpip_thread_handle_msg.str1.4,"aMS",%progbits,1
 131              		.align	2
 132              	.LC0:
 133 0000 4D696464 		.ascii	"Middlewares/Third_Party/LwIP/src/api/tcpip.c\000"
 133      6C657761 
 133      7265732F 
 133      54686972 
 133      645F5061 
 134 002d 000000   		.align	2
 135              	.LC1:
 136 0030 74637069 		.ascii	"tcpip_thread: invalid message\000"
 136      705F7468 
 136      72656164 
 136      3A20696E 
 136      76616C69 
 137 004e 0000     		.align	2
ARM GAS  C:\Users\hh\AppData\Local\Temp\ccJiyNKk.s 			page 6


 138              	.LC2:
 139 0050 41737365 		.ascii	"Assertion \"%s\" failed at line %d in %s\012\000"
 139      7274696F 
 139      6E202225 
 139      73222066 
 139      61696C65 
 140              		.section	.text.tcpip_thread_handle_msg,"ax",%progbits
 141              		.align	1
 142              		.syntax unified
 143              		.thumb
 144              		.thumb_func
 146              	tcpip_thread_handle_msg:
 147              	.LVL17:
 148              	.LFB174:
 123:Middlewares/Third_Party/LwIP/src/api/tcpip.c **** #endif /* !LWIP_TIMERS */
 124:Middlewares/Third_Party/LwIP/src/api/tcpip.c **** 
 125:Middlewares/Third_Party/LwIP/src/api/tcpip.c **** /**
 126:Middlewares/Third_Party/LwIP/src/api/tcpip.c ****  * The main lwIP thread. This thread has exclusive access to lwIP core functions
 127:Middlewares/Third_Party/LwIP/src/api/tcpip.c ****  * (unless access to them is not locked). Other threads communicate with this
 128:Middlewares/Third_Party/LwIP/src/api/tcpip.c ****  * thread using message boxes.
 129:Middlewares/Third_Party/LwIP/src/api/tcpip.c ****  *
 130:Middlewares/Third_Party/LwIP/src/api/tcpip.c ****  * It also starts all the timers to make sure they are running in the right
 131:Middlewares/Third_Party/LwIP/src/api/tcpip.c ****  * thread context.
 132:Middlewares/Third_Party/LwIP/src/api/tcpip.c ****  *
 133:Middlewares/Third_Party/LwIP/src/api/tcpip.c ****  * @param arg unused argument
 134:Middlewares/Third_Party/LwIP/src/api/tcpip.c ****  */
 135:Middlewares/Third_Party/LwIP/src/api/tcpip.c **** static void
 136:Middlewares/Third_Party/LwIP/src/api/tcpip.c **** tcpip_thread(void *arg)
 137:Middlewares/Third_Party/LwIP/src/api/tcpip.c **** {
 138:Middlewares/Third_Party/LwIP/src/api/tcpip.c ****   struct tcpip_msg *msg;
 139:Middlewares/Third_Party/LwIP/src/api/tcpip.c ****   LWIP_UNUSED_ARG(arg);
 140:Middlewares/Third_Party/LwIP/src/api/tcpip.c **** 
 141:Middlewares/Third_Party/LwIP/src/api/tcpip.c ****   LWIP_MARK_TCPIP_THREAD();
 142:Middlewares/Third_Party/LwIP/src/api/tcpip.c **** 
 143:Middlewares/Third_Party/LwIP/src/api/tcpip.c ****   LOCK_TCPIP_CORE();
 144:Middlewares/Third_Party/LwIP/src/api/tcpip.c ****   if (tcpip_init_done != NULL) {
 145:Middlewares/Third_Party/LwIP/src/api/tcpip.c ****     tcpip_init_done(tcpip_init_done_arg);
 146:Middlewares/Third_Party/LwIP/src/api/tcpip.c ****   }
 147:Middlewares/Third_Party/LwIP/src/api/tcpip.c **** 
 148:Middlewares/Third_Party/LwIP/src/api/tcpip.c ****   while (1) {                          /* MAIN Loop */
 149:Middlewares/Third_Party/LwIP/src/api/tcpip.c ****     LWIP_TCPIP_THREAD_ALIVE();
 150:Middlewares/Third_Party/LwIP/src/api/tcpip.c ****     /* wait for a message, timeouts are processed while waiting */
 151:Middlewares/Third_Party/LwIP/src/api/tcpip.c ****     tcpip_mbox_fetch(&tcpip_mbox, (void **)&msg);
 152:Middlewares/Third_Party/LwIP/src/api/tcpip.c ****     if (msg == NULL) {
 153:Middlewares/Third_Party/LwIP/src/api/tcpip.c ****       LWIP_DEBUGF(TCPIP_DEBUG, ("tcpip_thread: invalid message: NULL\n"));
 154:Middlewares/Third_Party/LwIP/src/api/tcpip.c ****       LWIP_ASSERT("tcpip_thread: invalid message", 0);
 155:Middlewares/Third_Party/LwIP/src/api/tcpip.c ****       continue;
 156:Middlewares/Third_Party/LwIP/src/api/tcpip.c ****     }
 157:Middlewares/Third_Party/LwIP/src/api/tcpip.c ****     tcpip_thread_handle_msg(msg);
 158:Middlewares/Third_Party/LwIP/src/api/tcpip.c ****   }
 159:Middlewares/Third_Party/LwIP/src/api/tcpip.c **** }
 160:Middlewares/Third_Party/LwIP/src/api/tcpip.c **** 
 161:Middlewares/Third_Party/LwIP/src/api/tcpip.c **** /* Handle a single tcpip_msg
 162:Middlewares/Third_Party/LwIP/src/api/tcpip.c ****  * This is in its own function for access by tests only.
 163:Middlewares/Third_Party/LwIP/src/api/tcpip.c ****  */
 164:Middlewares/Third_Party/LwIP/src/api/tcpip.c **** static void
 165:Middlewares/Third_Party/LwIP/src/api/tcpip.c **** tcpip_thread_handle_msg(struct tcpip_msg *msg)
ARM GAS  C:\Users\hh\AppData\Local\Temp\ccJiyNKk.s 			page 7


 166:Middlewares/Third_Party/LwIP/src/api/tcpip.c **** {
 149              		.loc 1 166 1 view -0
 150              		.cfi_startproc
 151              		@ args = 0, pretend = 0, frame = 0
 152              		@ frame_needed = 0, uses_anonymous_args = 0
 153              		.loc 1 166 1 is_stmt 0 view .LVU29
 154 0000 10B5     		push	{r4, lr}
 155              	.LCFI1:
 156              		.cfi_def_cfa_offset 8
 157              		.cfi_offset 4, -8
 158              		.cfi_offset 14, -4
 159 0002 0446     		mov	r4, r0
 167:Middlewares/Third_Party/LwIP/src/api/tcpip.c ****   switch (msg->type) {
 160              		.loc 1 167 3 is_stmt 1 view .LVU30
 161              		.loc 1 167 14 is_stmt 0 view .LVU31
 162 0004 0378     		ldrb	r3, [r0]	@ zero_extendqisi2
 163              		.loc 1 167 3 view .LVU32
 164 0006 012B     		cmp	r3, #1
 165 0008 10D0     		beq	.L13
 166 000a 022B     		cmp	r3, #2
 167 000c 16D0     		beq	.L14
 168 000e CBB9     		cbnz	r3, .L15
 168:Middlewares/Third_Party/LwIP/src/api/tcpip.c **** #if !LWIP_TCPIP_CORE_LOCKING
 169:Middlewares/Third_Party/LwIP/src/api/tcpip.c ****     case TCPIP_MSG_API:
 170:Middlewares/Third_Party/LwIP/src/api/tcpip.c ****       LWIP_DEBUGF(TCPIP_DEBUG, ("tcpip_thread: API message %p\n", (void *)msg));
 171:Middlewares/Third_Party/LwIP/src/api/tcpip.c ****       msg->msg.api_msg.function(msg->msg.api_msg.msg);
 172:Middlewares/Third_Party/LwIP/src/api/tcpip.c ****       break;
 173:Middlewares/Third_Party/LwIP/src/api/tcpip.c ****     case TCPIP_MSG_API_CALL:
 174:Middlewares/Third_Party/LwIP/src/api/tcpip.c ****       LWIP_DEBUGF(TCPIP_DEBUG, ("tcpip_thread: API CALL message %p\n", (void *)msg));
 175:Middlewares/Third_Party/LwIP/src/api/tcpip.c ****       msg->msg.api_call.arg->err = msg->msg.api_call.function(msg->msg.api_call.arg);
 176:Middlewares/Third_Party/LwIP/src/api/tcpip.c ****       sys_sem_signal(msg->msg.api_call.sem);
 177:Middlewares/Third_Party/LwIP/src/api/tcpip.c ****       break;
 178:Middlewares/Third_Party/LwIP/src/api/tcpip.c ****     case TCPIP_MSG_CALLBACK_STATIC_WAIT:
 179:Middlewares/Third_Party/LwIP/src/api/tcpip.c ****       LWIP_DEBUGF(TCPIP_DEBUG, ("tcpip_thread: CALLBACK WAIT message %p\n", (void *)msg));
 180:Middlewares/Third_Party/LwIP/src/api/tcpip.c ****       msg->msg.cb_wait.function(msg->msg.cb_wait.ctx);
 181:Middlewares/Third_Party/LwIP/src/api/tcpip.c ****       sys_sem_signal(msg->msg.cb_wait.sem);
 182:Middlewares/Third_Party/LwIP/src/api/tcpip.c ****       break;
 183:Middlewares/Third_Party/LwIP/src/api/tcpip.c **** #endif /* !LWIP_TCPIP_CORE_LOCKING */
 184:Middlewares/Third_Party/LwIP/src/api/tcpip.c **** 
 185:Middlewares/Third_Party/LwIP/src/api/tcpip.c **** #if !LWIP_TCPIP_CORE_LOCKING_INPUT
 186:Middlewares/Third_Party/LwIP/src/api/tcpip.c ****     case TCPIP_MSG_INPKT:
 187:Middlewares/Third_Party/LwIP/src/api/tcpip.c ****       LWIP_DEBUGF(TCPIP_DEBUG, ("tcpip_thread: PACKET %p\n", (void *)msg));
 169              		.loc 1 187 75 is_stmt 1 view .LVU33
 188:Middlewares/Third_Party/LwIP/src/api/tcpip.c ****       if (msg->msg.inp.input_fn(msg->msg.inp.p, msg->msg.inp.netif) != ERR_OK) {
 170              		.loc 1 188 7 view .LVU34
 171              		.loc 1 188 23 is_stmt 0 view .LVU35
 172 0010 C368     		ldr	r3, [r0, #12]
 173              		.loc 1 188 11 view .LVU36
 174 0012 8168     		ldr	r1, [r0, #8]
 175 0014 4068     		ldr	r0, [r0, #4]
 176              	.LVL18:
 177              		.loc 1 188 11 view .LVU37
 178 0016 9847     		blx	r3
 179              	.LVL19:
 180              		.loc 1 188 10 discriminator 1 view .LVU38
 181 0018 20B9     		cbnz	r0, .L19
 182              	.L16:
ARM GAS  C:\Users\hh\AppData\Local\Temp\ccJiyNKk.s 			page 8


 189:Middlewares/Third_Party/LwIP/src/api/tcpip.c ****         pbuf_free(msg->msg.inp.p);
 190:Middlewares/Third_Party/LwIP/src/api/tcpip.c ****       }
 191:Middlewares/Third_Party/LwIP/src/api/tcpip.c ****       memp_free(MEMP_TCPIP_MSG_INPKT, msg);
 183              		.loc 1 191 7 is_stmt 1 view .LVU39
 184 001a 2146     		mov	r1, r4
 185 001c 0820     		movs	r0, #8
 186 001e FFF7FEFF 		bl	memp_free
 187              	.LVL20:
 192:Middlewares/Third_Party/LwIP/src/api/tcpip.c ****       break;
 188              		.loc 1 192 7 view .LVU40
 189              	.L12:
 193:Middlewares/Third_Party/LwIP/src/api/tcpip.c **** #endif /* !LWIP_TCPIP_CORE_LOCKING_INPUT */
 194:Middlewares/Third_Party/LwIP/src/api/tcpip.c **** 
 195:Middlewares/Third_Party/LwIP/src/api/tcpip.c **** #if LWIP_TCPIP_TIMEOUT && LWIP_TIMERS
 196:Middlewares/Third_Party/LwIP/src/api/tcpip.c ****     case TCPIP_MSG_TIMEOUT:
 197:Middlewares/Third_Party/LwIP/src/api/tcpip.c ****       LWIP_DEBUGF(TCPIP_DEBUG, ("tcpip_thread: TIMEOUT %p\n", (void *)msg));
 198:Middlewares/Third_Party/LwIP/src/api/tcpip.c ****       sys_timeout(msg->msg.tmo.msecs, msg->msg.tmo.h, msg->msg.tmo.arg);
 199:Middlewares/Third_Party/LwIP/src/api/tcpip.c ****       memp_free(MEMP_TCPIP_MSG_API, msg);
 200:Middlewares/Third_Party/LwIP/src/api/tcpip.c ****       break;
 201:Middlewares/Third_Party/LwIP/src/api/tcpip.c ****     case TCPIP_MSG_UNTIMEOUT:
 202:Middlewares/Third_Party/LwIP/src/api/tcpip.c ****       LWIP_DEBUGF(TCPIP_DEBUG, ("tcpip_thread: UNTIMEOUT %p\n", (void *)msg));
 203:Middlewares/Third_Party/LwIP/src/api/tcpip.c ****       sys_untimeout(msg->msg.tmo.h, msg->msg.tmo.arg);
 204:Middlewares/Third_Party/LwIP/src/api/tcpip.c ****       memp_free(MEMP_TCPIP_MSG_API, msg);
 205:Middlewares/Third_Party/LwIP/src/api/tcpip.c ****       break;
 206:Middlewares/Third_Party/LwIP/src/api/tcpip.c **** #endif /* LWIP_TCPIP_TIMEOUT && LWIP_TIMERS */
 207:Middlewares/Third_Party/LwIP/src/api/tcpip.c **** 
 208:Middlewares/Third_Party/LwIP/src/api/tcpip.c ****     case TCPIP_MSG_CALLBACK:
 209:Middlewares/Third_Party/LwIP/src/api/tcpip.c ****       LWIP_DEBUGF(TCPIP_DEBUG, ("tcpip_thread: CALLBACK %p\n", (void *)msg));
 210:Middlewares/Third_Party/LwIP/src/api/tcpip.c ****       msg->msg.cb.function(msg->msg.cb.ctx);
 211:Middlewares/Third_Party/LwIP/src/api/tcpip.c ****       memp_free(MEMP_TCPIP_MSG_API, msg);
 212:Middlewares/Third_Party/LwIP/src/api/tcpip.c ****       break;
 213:Middlewares/Third_Party/LwIP/src/api/tcpip.c **** 
 214:Middlewares/Third_Party/LwIP/src/api/tcpip.c ****     case TCPIP_MSG_CALLBACK_STATIC:
 215:Middlewares/Third_Party/LwIP/src/api/tcpip.c ****       LWIP_DEBUGF(TCPIP_DEBUG, ("tcpip_thread: CALLBACK_STATIC %p\n", (void *)msg));
 216:Middlewares/Third_Party/LwIP/src/api/tcpip.c ****       msg->msg.cb.function(msg->msg.cb.ctx);
 217:Middlewares/Third_Party/LwIP/src/api/tcpip.c ****       break;
 218:Middlewares/Third_Party/LwIP/src/api/tcpip.c **** 
 219:Middlewares/Third_Party/LwIP/src/api/tcpip.c ****     default:
 220:Middlewares/Third_Party/LwIP/src/api/tcpip.c ****       LWIP_DEBUGF(TCPIP_DEBUG, ("tcpip_thread: invalid message: %d\n", msg->type));
 221:Middlewares/Third_Party/LwIP/src/api/tcpip.c ****       LWIP_ASSERT("tcpip_thread: invalid message", 0);
 222:Middlewares/Third_Party/LwIP/src/api/tcpip.c ****       break;
 223:Middlewares/Third_Party/LwIP/src/api/tcpip.c ****   }
 224:Middlewares/Third_Party/LwIP/src/api/tcpip.c **** }
 190              		.loc 1 224 1 is_stmt 0 view .LVU41
 191 0022 10BD     		pop	{r4, pc}
 192              	.LVL21:
 193              	.L19:
 189:Middlewares/Third_Party/LwIP/src/api/tcpip.c ****       }
 194              		.loc 1 189 9 is_stmt 1 view .LVU42
 195 0024 6068     		ldr	r0, [r4, #4]
 196 0026 FFF7FEFF 		bl	pbuf_free
 197              	.LVL22:
 198 002a F6E7     		b	.L16
 199              	.LVL23:
 200              	.L13:
 209:Middlewares/Third_Party/LwIP/src/api/tcpip.c ****       msg->msg.cb.function(msg->msg.cb.ctx);
 201              		.loc 1 209 77 view .LVU43
ARM GAS  C:\Users\hh\AppData\Local\Temp\ccJiyNKk.s 			page 9


 210:Middlewares/Third_Party/LwIP/src/api/tcpip.c ****       memp_free(MEMP_TCPIP_MSG_API, msg);
 202              		.loc 1 210 7 view .LVU44
 210:Middlewares/Third_Party/LwIP/src/api/tcpip.c ****       memp_free(MEMP_TCPIP_MSG_API, msg);
 203              		.loc 1 210 18 is_stmt 0 view .LVU45
 204 002c 4368     		ldr	r3, [r0, #4]
 210:Middlewares/Third_Party/LwIP/src/api/tcpip.c ****       memp_free(MEMP_TCPIP_MSG_API, msg);
 205              		.loc 1 210 7 view .LVU46
 206 002e 8068     		ldr	r0, [r0, #8]
 207              	.LVL24:
 210:Middlewares/Third_Party/LwIP/src/api/tcpip.c ****       memp_free(MEMP_TCPIP_MSG_API, msg);
 208              		.loc 1 210 7 view .LVU47
 209 0030 9847     		blx	r3
 210              	.LVL25:
 211:Middlewares/Third_Party/LwIP/src/api/tcpip.c ****       break;
 211              		.loc 1 211 7 is_stmt 1 view .LVU48
 212 0032 2146     		mov	r1, r4
 213 0034 0720     		movs	r0, #7
 214 0036 FFF7FEFF 		bl	memp_free
 215              	.LVL26:
 212:Middlewares/Third_Party/LwIP/src/api/tcpip.c **** 
 216              		.loc 1 212 7 view .LVU49
 217 003a F2E7     		b	.L12
 218              	.LVL27:
 219              	.L14:
 215:Middlewares/Third_Party/LwIP/src/api/tcpip.c ****       msg->msg.cb.function(msg->msg.cb.ctx);
 220              		.loc 1 215 84 view .LVU50
 216:Middlewares/Third_Party/LwIP/src/api/tcpip.c ****       break;
 221              		.loc 1 216 7 view .LVU51
 216:Middlewares/Third_Party/LwIP/src/api/tcpip.c ****       break;
 222              		.loc 1 216 18 is_stmt 0 view .LVU52
 223 003c 4368     		ldr	r3, [r0, #4]
 216:Middlewares/Third_Party/LwIP/src/api/tcpip.c ****       break;
 224              		.loc 1 216 7 view .LVU53
 225 003e 8068     		ldr	r0, [r0, #8]
 226              	.LVL28:
 216:Middlewares/Third_Party/LwIP/src/api/tcpip.c ****       break;
 227              		.loc 1 216 7 view .LVU54
 228 0040 9847     		blx	r3
 229              	.LVL29:
 217:Middlewares/Third_Party/LwIP/src/api/tcpip.c **** 
 230              		.loc 1 217 7 is_stmt 1 view .LVU55
 231 0042 EEE7     		b	.L12
 232              	.LVL30:
 233              	.L15:
 220:Middlewares/Third_Party/LwIP/src/api/tcpip.c ****       LWIP_ASSERT("tcpip_thread: invalid message", 0);
 234              		.loc 1 220 83 view .LVU56
 221:Middlewares/Third_Party/LwIP/src/api/tcpip.c ****       break;
 235              		.loc 1 221 7 view .LVU57
 221:Middlewares/Third_Party/LwIP/src/api/tcpip.c ****       break;
 236              		.loc 1 221 7 view .LVU58
 221:Middlewares/Third_Party/LwIP/src/api/tcpip.c ****       break;
 237              		.loc 1 221 7 discriminator 1 view .LVU59
 221:Middlewares/Third_Party/LwIP/src/api/tcpip.c ****       break;
 238              		.loc 1 221 7 discriminator 1 view .LVU60
 239 0044 034B     		ldr	r3, .L20
 240 0046 DD22     		movs	r2, #221
 241 0048 0349     		ldr	r1, .L20+4
ARM GAS  C:\Users\hh\AppData\Local\Temp\ccJiyNKk.s 			page 10


 242 004a 0448     		ldr	r0, .L20+8
 243              	.LVL31:
 221:Middlewares/Third_Party/LwIP/src/api/tcpip.c ****       break;
 244              		.loc 1 221 7 is_stmt 0 discriminator 1 view .LVU61
 245 004c FFF7FEFF 		bl	printf
 246              	.LVL32:
 221:Middlewares/Third_Party/LwIP/src/api/tcpip.c ****       break;
 247              		.loc 1 221 7 is_stmt 1 view .LVU62
 221:Middlewares/Third_Party/LwIP/src/api/tcpip.c ****       break;
 248              		.loc 1 221 7 view .LVU63
 222:Middlewares/Third_Party/LwIP/src/api/tcpip.c ****   }
 249              		.loc 1 222 7 view .LVU64
 250              		.loc 1 224 1 is_stmt 0 view .LVU65
 251 0050 E7E7     		b	.L12
 252              	.L21:
 253 0052 00BF     		.align	2
 254              	.L20:
 255 0054 00000000 		.word	.LC0
 256 0058 30000000 		.word	.LC1
 257 005c 50000000 		.word	.LC2
 258              		.cfi_endproc
 259              	.LFE174:
 261              		.section	.text.tcpip_thread,"ax",%progbits
 262              		.align	1
 263              		.syntax unified
 264              		.thumb
 265              		.thumb_func
 267              	tcpip_thread:
 268              	.LVL33:
 269              	.LFB173:
 137:Middlewares/Third_Party/LwIP/src/api/tcpip.c ****   struct tcpip_msg *msg;
 270              		.loc 1 137 1 is_stmt 1 view -0
 271              		.cfi_startproc
 272              		@ Volatile: function does not return.
 273              		@ args = 0, pretend = 0, frame = 8
 274              		@ frame_needed = 0, uses_anonymous_args = 0
 137:Middlewares/Third_Party/LwIP/src/api/tcpip.c ****   struct tcpip_msg *msg;
 275              		.loc 1 137 1 is_stmt 0 view .LVU67
 276 0000 00B5     		push	{lr}
 277              	.LCFI2:
 278              		.cfi_def_cfa_offset 4
 279              		.cfi_offset 14, -4
 280 0002 83B0     		sub	sp, sp, #12
 281              	.LCFI3:
 282              		.cfi_def_cfa_offset 16
 138:Middlewares/Third_Party/LwIP/src/api/tcpip.c ****   LWIP_UNUSED_ARG(arg);
 283              		.loc 1 138 3 is_stmt 1 view .LVU68
 139:Middlewares/Third_Party/LwIP/src/api/tcpip.c **** 
 284              		.loc 1 139 3 view .LVU69
 141:Middlewares/Third_Party/LwIP/src/api/tcpip.c **** 
 285              		.loc 1 141 27 view .LVU70
 143:Middlewares/Third_Party/LwIP/src/api/tcpip.c ****   if (tcpip_init_done != NULL) {
 286              		.loc 1 143 3 view .LVU71
 287 0004 0C48     		ldr	r0, .L29
 288              	.LVL34:
 143:Middlewares/Third_Party/LwIP/src/api/tcpip.c ****   if (tcpip_init_done != NULL) {
 289              		.loc 1 143 3 is_stmt 0 view .LVU72
ARM GAS  C:\Users\hh\AppData\Local\Temp\ccJiyNKk.s 			page 11


 290 0006 FFF7FEFF 		bl	sys_mutex_lock
 291              	.LVL35:
 144:Middlewares/Third_Party/LwIP/src/api/tcpip.c ****     tcpip_init_done(tcpip_init_done_arg);
 292              		.loc 1 144 3 is_stmt 1 view .LVU73
 144:Middlewares/Third_Party/LwIP/src/api/tcpip.c ****     tcpip_init_done(tcpip_init_done_arg);
 293              		.loc 1 144 23 is_stmt 0 view .LVU74
 294 000a 0C4B     		ldr	r3, .L29+4
 295 000c 1B68     		ldr	r3, [r3]
 144:Middlewares/Third_Party/LwIP/src/api/tcpip.c ****     tcpip_init_done(tcpip_init_done_arg);
 296              		.loc 1 144 6 view .LVU75
 297 000e 4BB1     		cbz	r3, .L24
 145:Middlewares/Third_Party/LwIP/src/api/tcpip.c ****   }
 298              		.loc 1 145 5 is_stmt 1 view .LVU76
 299 0010 0B4A     		ldr	r2, .L29+8
 300 0012 1068     		ldr	r0, [r2]
 301 0014 9847     		blx	r3
 302              	.LVL36:
 303 0016 05E0     		b	.L24
 304              	.L28:
 153:Middlewares/Third_Party/LwIP/src/api/tcpip.c ****       LWIP_ASSERT("tcpip_thread: invalid message", 0);
 305              		.loc 1 153 74 view .LVU77
 154:Middlewares/Third_Party/LwIP/src/api/tcpip.c ****       continue;
 306              		.loc 1 154 7 view .LVU78
 154:Middlewares/Third_Party/LwIP/src/api/tcpip.c ****       continue;
 307              		.loc 1 154 7 view .LVU79
 154:Middlewares/Third_Party/LwIP/src/api/tcpip.c ****       continue;
 308              		.loc 1 154 7 discriminator 1 view .LVU80
 154:Middlewares/Third_Party/LwIP/src/api/tcpip.c ****       continue;
 309              		.loc 1 154 7 discriminator 1 view .LVU81
 310 0018 0A4B     		ldr	r3, .L29+12
 311 001a 9A22     		movs	r2, #154
 312 001c 0A49     		ldr	r1, .L29+16
 313 001e 0B48     		ldr	r0, .L29+20
 314 0020 FFF7FEFF 		bl	printf
 315              	.LVL37:
 154:Middlewares/Third_Party/LwIP/src/api/tcpip.c ****       continue;
 316              		.loc 1 154 7 view .LVU82
 154:Middlewares/Third_Party/LwIP/src/api/tcpip.c ****       continue;
 317              		.loc 1 154 7 view .LVU83
 155:Middlewares/Third_Party/LwIP/src/api/tcpip.c ****     }
 318              		.loc 1 155 7 view .LVU84
 319              	.L24:
 148:Middlewares/Third_Party/LwIP/src/api/tcpip.c ****     LWIP_TCPIP_THREAD_ALIVE();
 320              		.loc 1 148 3 view .LVU85
 149:Middlewares/Third_Party/LwIP/src/api/tcpip.c ****     /* wait for a message, timeouts are processed while waiting */
 321              		.loc 1 149 30 view .LVU86
 151:Middlewares/Third_Party/LwIP/src/api/tcpip.c ****     if (msg == NULL) {
 322              		.loc 1 151 5 view .LVU87
 323 0024 01A9     		add	r1, sp, #4
 324 0026 0A48     		ldr	r0, .L29+24
 325 0028 FFF7FEFF 		bl	tcpip_mbox_fetch
 326              	.LVL38:
 152:Middlewares/Third_Party/LwIP/src/api/tcpip.c ****       LWIP_DEBUGF(TCPIP_DEBUG, ("tcpip_thread: invalid message: NULL\n"));
 327              		.loc 1 152 5 view .LVU88
 152:Middlewares/Third_Party/LwIP/src/api/tcpip.c ****       LWIP_DEBUGF(TCPIP_DEBUG, ("tcpip_thread: invalid message: NULL\n"));
 328              		.loc 1 152 13 is_stmt 0 view .LVU89
 329 002c 0198     		ldr	r0, [sp, #4]
ARM GAS  C:\Users\hh\AppData\Local\Temp\ccJiyNKk.s 			page 12


 152:Middlewares/Third_Party/LwIP/src/api/tcpip.c ****       LWIP_DEBUGF(TCPIP_DEBUG, ("tcpip_thread: invalid message: NULL\n"));
 330              		.loc 1 152 8 view .LVU90
 331 002e 0028     		cmp	r0, #0
 332 0030 F2D0     		beq	.L28
 157:Middlewares/Third_Party/LwIP/src/api/tcpip.c ****   }
 333              		.loc 1 157 5 is_stmt 1 view .LVU91
 334 0032 FFF7FEFF 		bl	tcpip_thread_handle_msg
 335              	.LVL39:
 336 0036 F5E7     		b	.L24
 337              	.L30:
 338              		.align	2
 339              	.L29:
 340 0038 00000000 		.word	lock_tcpip_core
 341 003c 00000000 		.word	tcpip_init_done
 342 0040 00000000 		.word	tcpip_init_done_arg
 343 0044 00000000 		.word	.LC0
 344 0048 30000000 		.word	.LC1
 345 004c 50000000 		.word	.LC2
 346 0050 00000000 		.word	tcpip_mbox
 347              		.cfi_endproc
 348              	.LFE173:
 350              		.section	.text.pbuf_free_int,"ax",%progbits
 351              		.align	1
 352              		.syntax unified
 353              		.thumb
 354              		.thumb_func
 356              	pbuf_free_int:
 357              	.LVL40:
 358              	.LFB187:
 225:Middlewares/Third_Party/LwIP/src/api/tcpip.c **** 
 226:Middlewares/Third_Party/LwIP/src/api/tcpip.c **** #ifdef TCPIP_THREAD_TEST
 227:Middlewares/Third_Party/LwIP/src/api/tcpip.c **** /** Work on queued items in single-threaded test mode */
 228:Middlewares/Third_Party/LwIP/src/api/tcpip.c **** int
 229:Middlewares/Third_Party/LwIP/src/api/tcpip.c **** tcpip_thread_poll_one(void)
 230:Middlewares/Third_Party/LwIP/src/api/tcpip.c **** {
 231:Middlewares/Third_Party/LwIP/src/api/tcpip.c ****   int ret = 0;
 232:Middlewares/Third_Party/LwIP/src/api/tcpip.c ****   struct tcpip_msg *msg;
 233:Middlewares/Third_Party/LwIP/src/api/tcpip.c **** 
 234:Middlewares/Third_Party/LwIP/src/api/tcpip.c ****   if (sys_arch_mbox_tryfetch(&tcpip_mbox, (void **)&msg) != SYS_MBOX_EMPTY) {
 235:Middlewares/Third_Party/LwIP/src/api/tcpip.c ****     LOCK_TCPIP_CORE();
 236:Middlewares/Third_Party/LwIP/src/api/tcpip.c ****     if (msg != NULL) {
 237:Middlewares/Third_Party/LwIP/src/api/tcpip.c ****       tcpip_thread_handle_msg(msg);
 238:Middlewares/Third_Party/LwIP/src/api/tcpip.c ****       ret = 1;
 239:Middlewares/Third_Party/LwIP/src/api/tcpip.c ****     }
 240:Middlewares/Third_Party/LwIP/src/api/tcpip.c ****     UNLOCK_TCPIP_CORE();
 241:Middlewares/Third_Party/LwIP/src/api/tcpip.c ****   }
 242:Middlewares/Third_Party/LwIP/src/api/tcpip.c ****   return ret;
 243:Middlewares/Third_Party/LwIP/src/api/tcpip.c **** }
 244:Middlewares/Third_Party/LwIP/src/api/tcpip.c **** #endif
 245:Middlewares/Third_Party/LwIP/src/api/tcpip.c **** 
 246:Middlewares/Third_Party/LwIP/src/api/tcpip.c **** /**
 247:Middlewares/Third_Party/LwIP/src/api/tcpip.c ****  * Pass a received packet to tcpip_thread for input processing
 248:Middlewares/Third_Party/LwIP/src/api/tcpip.c ****  *
 249:Middlewares/Third_Party/LwIP/src/api/tcpip.c ****  * @param p the received packet
 250:Middlewares/Third_Party/LwIP/src/api/tcpip.c ****  * @param inp the network interface on which the packet was received
 251:Middlewares/Third_Party/LwIP/src/api/tcpip.c ****  * @param input_fn input function to call
 252:Middlewares/Third_Party/LwIP/src/api/tcpip.c ****  */
ARM GAS  C:\Users\hh\AppData\Local\Temp\ccJiyNKk.s 			page 13


 253:Middlewares/Third_Party/LwIP/src/api/tcpip.c **** err_t
 254:Middlewares/Third_Party/LwIP/src/api/tcpip.c **** tcpip_inpkt(struct pbuf *p, struct netif *inp, netif_input_fn input_fn)
 255:Middlewares/Third_Party/LwIP/src/api/tcpip.c **** {
 256:Middlewares/Third_Party/LwIP/src/api/tcpip.c **** #if LWIP_TCPIP_CORE_LOCKING_INPUT
 257:Middlewares/Third_Party/LwIP/src/api/tcpip.c ****   err_t ret;
 258:Middlewares/Third_Party/LwIP/src/api/tcpip.c ****   LWIP_DEBUGF(TCPIP_DEBUG, ("tcpip_inpkt: PACKET %p/%p\n", (void *)p, (void *)inp));
 259:Middlewares/Third_Party/LwIP/src/api/tcpip.c ****   LOCK_TCPIP_CORE();
 260:Middlewares/Third_Party/LwIP/src/api/tcpip.c ****   ret = input_fn(p, inp);
 261:Middlewares/Third_Party/LwIP/src/api/tcpip.c ****   UNLOCK_TCPIP_CORE();
 262:Middlewares/Third_Party/LwIP/src/api/tcpip.c ****   return ret;
 263:Middlewares/Third_Party/LwIP/src/api/tcpip.c **** #else /* LWIP_TCPIP_CORE_LOCKING_INPUT */
 264:Middlewares/Third_Party/LwIP/src/api/tcpip.c ****   struct tcpip_msg *msg;
 265:Middlewares/Third_Party/LwIP/src/api/tcpip.c **** 
 266:Middlewares/Third_Party/LwIP/src/api/tcpip.c ****   LWIP_ASSERT("Invalid mbox", sys_mbox_valid_val(tcpip_mbox));
 267:Middlewares/Third_Party/LwIP/src/api/tcpip.c **** 
 268:Middlewares/Third_Party/LwIP/src/api/tcpip.c ****   msg = (struct tcpip_msg *)memp_malloc(MEMP_TCPIP_MSG_INPKT);
 269:Middlewares/Third_Party/LwIP/src/api/tcpip.c ****   if (msg == NULL) {
 270:Middlewares/Third_Party/LwIP/src/api/tcpip.c ****     return ERR_MEM;
 271:Middlewares/Third_Party/LwIP/src/api/tcpip.c ****   }
 272:Middlewares/Third_Party/LwIP/src/api/tcpip.c **** 
 273:Middlewares/Third_Party/LwIP/src/api/tcpip.c ****   msg->type = TCPIP_MSG_INPKT;
 274:Middlewares/Third_Party/LwIP/src/api/tcpip.c ****   msg->msg.inp.p = p;
 275:Middlewares/Third_Party/LwIP/src/api/tcpip.c ****   msg->msg.inp.netif = inp;
 276:Middlewares/Third_Party/LwIP/src/api/tcpip.c ****   msg->msg.inp.input_fn = input_fn;
 277:Middlewares/Third_Party/LwIP/src/api/tcpip.c ****   if (sys_mbox_trypost(&tcpip_mbox, msg) != ERR_OK) {
 278:Middlewares/Third_Party/LwIP/src/api/tcpip.c ****     memp_free(MEMP_TCPIP_MSG_INPKT, msg);
 279:Middlewares/Third_Party/LwIP/src/api/tcpip.c ****     return ERR_MEM;
 280:Middlewares/Third_Party/LwIP/src/api/tcpip.c ****   }
 281:Middlewares/Third_Party/LwIP/src/api/tcpip.c ****   return ERR_OK;
 282:Middlewares/Third_Party/LwIP/src/api/tcpip.c **** #endif /* LWIP_TCPIP_CORE_LOCKING_INPUT */
 283:Middlewares/Third_Party/LwIP/src/api/tcpip.c **** }
 284:Middlewares/Third_Party/LwIP/src/api/tcpip.c **** 
 285:Middlewares/Third_Party/LwIP/src/api/tcpip.c **** /**
 286:Middlewares/Third_Party/LwIP/src/api/tcpip.c ****  * @ingroup lwip_os
 287:Middlewares/Third_Party/LwIP/src/api/tcpip.c ****  * Pass a received packet to tcpip_thread for input processing with
 288:Middlewares/Third_Party/LwIP/src/api/tcpip.c ****  * ethernet_input or ip_input. Don't call directly, pass to netif_add()
 289:Middlewares/Third_Party/LwIP/src/api/tcpip.c ****  * and call netif->input().
 290:Middlewares/Third_Party/LwIP/src/api/tcpip.c ****  *
 291:Middlewares/Third_Party/LwIP/src/api/tcpip.c ****  * @param p the received packet, p->payload pointing to the Ethernet header or
 292:Middlewares/Third_Party/LwIP/src/api/tcpip.c ****  *          to an IP header (if inp doesn't have NETIF_FLAG_ETHARP or
 293:Middlewares/Third_Party/LwIP/src/api/tcpip.c ****  *          NETIF_FLAG_ETHERNET flags)
 294:Middlewares/Third_Party/LwIP/src/api/tcpip.c ****  * @param inp the network interface on which the packet was received
 295:Middlewares/Third_Party/LwIP/src/api/tcpip.c ****  */
 296:Middlewares/Third_Party/LwIP/src/api/tcpip.c **** err_t
 297:Middlewares/Third_Party/LwIP/src/api/tcpip.c **** tcpip_input(struct pbuf *p, struct netif *inp)
 298:Middlewares/Third_Party/LwIP/src/api/tcpip.c **** {
 299:Middlewares/Third_Party/LwIP/src/api/tcpip.c **** #if LWIP_ETHERNET
 300:Middlewares/Third_Party/LwIP/src/api/tcpip.c ****   if (inp->flags & (NETIF_FLAG_ETHARP | NETIF_FLAG_ETHERNET)) {
 301:Middlewares/Third_Party/LwIP/src/api/tcpip.c ****     return tcpip_inpkt(p, inp, ethernet_input);
 302:Middlewares/Third_Party/LwIP/src/api/tcpip.c ****   } else
 303:Middlewares/Third_Party/LwIP/src/api/tcpip.c **** #endif /* LWIP_ETHERNET */
 304:Middlewares/Third_Party/LwIP/src/api/tcpip.c ****     return tcpip_inpkt(p, inp, ip_input);
 305:Middlewares/Third_Party/LwIP/src/api/tcpip.c **** }
 306:Middlewares/Third_Party/LwIP/src/api/tcpip.c **** 
 307:Middlewares/Third_Party/LwIP/src/api/tcpip.c **** /**
 308:Middlewares/Third_Party/LwIP/src/api/tcpip.c ****  * @ingroup lwip_os
 309:Middlewares/Third_Party/LwIP/src/api/tcpip.c ****  * Call a specific function in the thread context of
ARM GAS  C:\Users\hh\AppData\Local\Temp\ccJiyNKk.s 			page 14


 310:Middlewares/Third_Party/LwIP/src/api/tcpip.c ****  * tcpip_thread for easy access synchronization.
 311:Middlewares/Third_Party/LwIP/src/api/tcpip.c ****  * A function called in that way may access lwIP core code
 312:Middlewares/Third_Party/LwIP/src/api/tcpip.c ****  * without fearing concurrent access.
 313:Middlewares/Third_Party/LwIP/src/api/tcpip.c ****  * Blocks until the request is posted.
 314:Middlewares/Third_Party/LwIP/src/api/tcpip.c ****  * Must not be called from interrupt context!
 315:Middlewares/Third_Party/LwIP/src/api/tcpip.c ****  *
 316:Middlewares/Third_Party/LwIP/src/api/tcpip.c ****  * @param function the function to call
 317:Middlewares/Third_Party/LwIP/src/api/tcpip.c ****  * @param ctx parameter passed to f
 318:Middlewares/Third_Party/LwIP/src/api/tcpip.c ****  * @return ERR_OK if the function was called, another err_t if not
 319:Middlewares/Third_Party/LwIP/src/api/tcpip.c ****  *
 320:Middlewares/Third_Party/LwIP/src/api/tcpip.c ****  * @see tcpip_try_callback
 321:Middlewares/Third_Party/LwIP/src/api/tcpip.c ****  */
 322:Middlewares/Third_Party/LwIP/src/api/tcpip.c **** err_t
 323:Middlewares/Third_Party/LwIP/src/api/tcpip.c **** tcpip_callback(tcpip_callback_fn function, void *ctx)
 324:Middlewares/Third_Party/LwIP/src/api/tcpip.c **** {
 325:Middlewares/Third_Party/LwIP/src/api/tcpip.c ****   struct tcpip_msg *msg;
 326:Middlewares/Third_Party/LwIP/src/api/tcpip.c **** 
 327:Middlewares/Third_Party/LwIP/src/api/tcpip.c ****   LWIP_ASSERT("Invalid mbox", sys_mbox_valid_val(tcpip_mbox));
 328:Middlewares/Third_Party/LwIP/src/api/tcpip.c **** 
 329:Middlewares/Third_Party/LwIP/src/api/tcpip.c ****   msg = (struct tcpip_msg *)memp_malloc(MEMP_TCPIP_MSG_API);
 330:Middlewares/Third_Party/LwIP/src/api/tcpip.c ****   if (msg == NULL) {
 331:Middlewares/Third_Party/LwIP/src/api/tcpip.c ****     return ERR_MEM;
 332:Middlewares/Third_Party/LwIP/src/api/tcpip.c ****   }
 333:Middlewares/Third_Party/LwIP/src/api/tcpip.c **** 
 334:Middlewares/Third_Party/LwIP/src/api/tcpip.c ****   msg->type = TCPIP_MSG_CALLBACK;
 335:Middlewares/Third_Party/LwIP/src/api/tcpip.c ****   msg->msg.cb.function = function;
 336:Middlewares/Third_Party/LwIP/src/api/tcpip.c ****   msg->msg.cb.ctx = ctx;
 337:Middlewares/Third_Party/LwIP/src/api/tcpip.c **** 
 338:Middlewares/Third_Party/LwIP/src/api/tcpip.c ****   sys_mbox_post(&tcpip_mbox, msg);
 339:Middlewares/Third_Party/LwIP/src/api/tcpip.c ****   return ERR_OK;
 340:Middlewares/Third_Party/LwIP/src/api/tcpip.c **** }
 341:Middlewares/Third_Party/LwIP/src/api/tcpip.c **** 
 342:Middlewares/Third_Party/LwIP/src/api/tcpip.c **** /**
 343:Middlewares/Third_Party/LwIP/src/api/tcpip.c ****  * @ingroup lwip_os
 344:Middlewares/Third_Party/LwIP/src/api/tcpip.c ****  * Call a specific function in the thread context of
 345:Middlewares/Third_Party/LwIP/src/api/tcpip.c ****  * tcpip_thread for easy access synchronization.
 346:Middlewares/Third_Party/LwIP/src/api/tcpip.c ****  * A function called in that way may access lwIP core code
 347:Middlewares/Third_Party/LwIP/src/api/tcpip.c ****  * without fearing concurrent access.
 348:Middlewares/Third_Party/LwIP/src/api/tcpip.c ****  * Does NOT block when the request cannot be posted because the
 349:Middlewares/Third_Party/LwIP/src/api/tcpip.c ****  * tcpip_mbox is full, but returns ERR_MEM instead.
 350:Middlewares/Third_Party/LwIP/src/api/tcpip.c ****  * Can be called from interrupt context.
 351:Middlewares/Third_Party/LwIP/src/api/tcpip.c ****  *
 352:Middlewares/Third_Party/LwIP/src/api/tcpip.c ****  * @param function the function to call
 353:Middlewares/Third_Party/LwIP/src/api/tcpip.c ****  * @param ctx parameter passed to f
 354:Middlewares/Third_Party/LwIP/src/api/tcpip.c ****  * @return ERR_OK if the function was called, another err_t if not
 355:Middlewares/Third_Party/LwIP/src/api/tcpip.c ****  *
 356:Middlewares/Third_Party/LwIP/src/api/tcpip.c ****  * @see tcpip_callback
 357:Middlewares/Third_Party/LwIP/src/api/tcpip.c ****  */
 358:Middlewares/Third_Party/LwIP/src/api/tcpip.c **** err_t
 359:Middlewares/Third_Party/LwIP/src/api/tcpip.c **** tcpip_try_callback(tcpip_callback_fn function, void *ctx)
 360:Middlewares/Third_Party/LwIP/src/api/tcpip.c **** {
 361:Middlewares/Third_Party/LwIP/src/api/tcpip.c ****   struct tcpip_msg *msg;
 362:Middlewares/Third_Party/LwIP/src/api/tcpip.c **** 
 363:Middlewares/Third_Party/LwIP/src/api/tcpip.c ****   LWIP_ASSERT("Invalid mbox", sys_mbox_valid_val(tcpip_mbox));
 364:Middlewares/Third_Party/LwIP/src/api/tcpip.c **** 
 365:Middlewares/Third_Party/LwIP/src/api/tcpip.c ****   msg = (struct tcpip_msg *)memp_malloc(MEMP_TCPIP_MSG_API);
 366:Middlewares/Third_Party/LwIP/src/api/tcpip.c ****   if (msg == NULL) {
ARM GAS  C:\Users\hh\AppData\Local\Temp\ccJiyNKk.s 			page 15


 367:Middlewares/Third_Party/LwIP/src/api/tcpip.c ****     return ERR_MEM;
 368:Middlewares/Third_Party/LwIP/src/api/tcpip.c ****   }
 369:Middlewares/Third_Party/LwIP/src/api/tcpip.c **** 
 370:Middlewares/Third_Party/LwIP/src/api/tcpip.c ****   msg->type = TCPIP_MSG_CALLBACK;
 371:Middlewares/Third_Party/LwIP/src/api/tcpip.c ****   msg->msg.cb.function = function;
 372:Middlewares/Third_Party/LwIP/src/api/tcpip.c ****   msg->msg.cb.ctx = ctx;
 373:Middlewares/Third_Party/LwIP/src/api/tcpip.c **** 
 374:Middlewares/Third_Party/LwIP/src/api/tcpip.c ****   if (sys_mbox_trypost(&tcpip_mbox, msg) != ERR_OK) {
 375:Middlewares/Third_Party/LwIP/src/api/tcpip.c ****     memp_free(MEMP_TCPIP_MSG_API, msg);
 376:Middlewares/Third_Party/LwIP/src/api/tcpip.c ****     return ERR_MEM;
 377:Middlewares/Third_Party/LwIP/src/api/tcpip.c ****   }
 378:Middlewares/Third_Party/LwIP/src/api/tcpip.c ****   return ERR_OK;
 379:Middlewares/Third_Party/LwIP/src/api/tcpip.c **** }
 380:Middlewares/Third_Party/LwIP/src/api/tcpip.c **** 
 381:Middlewares/Third_Party/LwIP/src/api/tcpip.c **** #if LWIP_TCPIP_TIMEOUT && LWIP_TIMERS
 382:Middlewares/Third_Party/LwIP/src/api/tcpip.c **** /**
 383:Middlewares/Third_Party/LwIP/src/api/tcpip.c ****  * call sys_timeout in tcpip_thread
 384:Middlewares/Third_Party/LwIP/src/api/tcpip.c ****  *
 385:Middlewares/Third_Party/LwIP/src/api/tcpip.c ****  * @param msecs time in milliseconds for timeout
 386:Middlewares/Third_Party/LwIP/src/api/tcpip.c ****  * @param h function to be called on timeout
 387:Middlewares/Third_Party/LwIP/src/api/tcpip.c ****  * @param arg argument to pass to timeout function h
 388:Middlewares/Third_Party/LwIP/src/api/tcpip.c ****  * @return ERR_MEM on memory error, ERR_OK otherwise
 389:Middlewares/Third_Party/LwIP/src/api/tcpip.c ****  */
 390:Middlewares/Third_Party/LwIP/src/api/tcpip.c **** err_t
 391:Middlewares/Third_Party/LwIP/src/api/tcpip.c **** tcpip_timeout(u32_t msecs, sys_timeout_handler h, void *arg)
 392:Middlewares/Third_Party/LwIP/src/api/tcpip.c **** {
 393:Middlewares/Third_Party/LwIP/src/api/tcpip.c ****   struct tcpip_msg *msg;
 394:Middlewares/Third_Party/LwIP/src/api/tcpip.c **** 
 395:Middlewares/Third_Party/LwIP/src/api/tcpip.c ****   LWIP_ASSERT("Invalid mbox", sys_mbox_valid_val(tcpip_mbox));
 396:Middlewares/Third_Party/LwIP/src/api/tcpip.c **** 
 397:Middlewares/Third_Party/LwIP/src/api/tcpip.c ****   msg = (struct tcpip_msg *)memp_malloc(MEMP_TCPIP_MSG_API);
 398:Middlewares/Third_Party/LwIP/src/api/tcpip.c ****   if (msg == NULL) {
 399:Middlewares/Third_Party/LwIP/src/api/tcpip.c ****     return ERR_MEM;
 400:Middlewares/Third_Party/LwIP/src/api/tcpip.c ****   }
 401:Middlewares/Third_Party/LwIP/src/api/tcpip.c **** 
 402:Middlewares/Third_Party/LwIP/src/api/tcpip.c ****   msg->type = TCPIP_MSG_TIMEOUT;
 403:Middlewares/Third_Party/LwIP/src/api/tcpip.c ****   msg->msg.tmo.msecs = msecs;
 404:Middlewares/Third_Party/LwIP/src/api/tcpip.c ****   msg->msg.tmo.h = h;
 405:Middlewares/Third_Party/LwIP/src/api/tcpip.c ****   msg->msg.tmo.arg = arg;
 406:Middlewares/Third_Party/LwIP/src/api/tcpip.c ****   sys_mbox_post(&tcpip_mbox, msg);
 407:Middlewares/Third_Party/LwIP/src/api/tcpip.c ****   return ERR_OK;
 408:Middlewares/Third_Party/LwIP/src/api/tcpip.c **** }
 409:Middlewares/Third_Party/LwIP/src/api/tcpip.c **** 
 410:Middlewares/Third_Party/LwIP/src/api/tcpip.c **** /**
 411:Middlewares/Third_Party/LwIP/src/api/tcpip.c ****  * call sys_untimeout in tcpip_thread
 412:Middlewares/Third_Party/LwIP/src/api/tcpip.c ****  *
 413:Middlewares/Third_Party/LwIP/src/api/tcpip.c ****  * @param h function to be called on timeout
 414:Middlewares/Third_Party/LwIP/src/api/tcpip.c ****  * @param arg argument to pass to timeout function h
 415:Middlewares/Third_Party/LwIP/src/api/tcpip.c ****  * @return ERR_MEM on memory error, ERR_OK otherwise
 416:Middlewares/Third_Party/LwIP/src/api/tcpip.c ****  */
 417:Middlewares/Third_Party/LwIP/src/api/tcpip.c **** err_t
 418:Middlewares/Third_Party/LwIP/src/api/tcpip.c **** tcpip_untimeout(sys_timeout_handler h, void *arg)
 419:Middlewares/Third_Party/LwIP/src/api/tcpip.c **** {
 420:Middlewares/Third_Party/LwIP/src/api/tcpip.c ****   struct tcpip_msg *msg;
 421:Middlewares/Third_Party/LwIP/src/api/tcpip.c **** 
 422:Middlewares/Third_Party/LwIP/src/api/tcpip.c ****   LWIP_ASSERT("Invalid mbox", sys_mbox_valid_val(tcpip_mbox));
 423:Middlewares/Third_Party/LwIP/src/api/tcpip.c **** 
ARM GAS  C:\Users\hh\AppData\Local\Temp\ccJiyNKk.s 			page 16


 424:Middlewares/Third_Party/LwIP/src/api/tcpip.c ****   msg = (struct tcpip_msg *)memp_malloc(MEMP_TCPIP_MSG_API);
 425:Middlewares/Third_Party/LwIP/src/api/tcpip.c ****   if (msg == NULL) {
 426:Middlewares/Third_Party/LwIP/src/api/tcpip.c ****     return ERR_MEM;
 427:Middlewares/Third_Party/LwIP/src/api/tcpip.c ****   }
 428:Middlewares/Third_Party/LwIP/src/api/tcpip.c **** 
 429:Middlewares/Third_Party/LwIP/src/api/tcpip.c ****   msg->type = TCPIP_MSG_UNTIMEOUT;
 430:Middlewares/Third_Party/LwIP/src/api/tcpip.c ****   msg->msg.tmo.h = h;
 431:Middlewares/Third_Party/LwIP/src/api/tcpip.c ****   msg->msg.tmo.arg = arg;
 432:Middlewares/Third_Party/LwIP/src/api/tcpip.c ****   sys_mbox_post(&tcpip_mbox, msg);
 433:Middlewares/Third_Party/LwIP/src/api/tcpip.c ****   return ERR_OK;
 434:Middlewares/Third_Party/LwIP/src/api/tcpip.c **** }
 435:Middlewares/Third_Party/LwIP/src/api/tcpip.c **** #endif /* LWIP_TCPIP_TIMEOUT && LWIP_TIMERS */
 436:Middlewares/Third_Party/LwIP/src/api/tcpip.c **** 
 437:Middlewares/Third_Party/LwIP/src/api/tcpip.c **** 
 438:Middlewares/Third_Party/LwIP/src/api/tcpip.c **** /**
 439:Middlewares/Third_Party/LwIP/src/api/tcpip.c ****  * Sends a message to TCPIP thread to call a function. Caller thread blocks on
 440:Middlewares/Third_Party/LwIP/src/api/tcpip.c ****  * on a provided semaphore, which is NOT automatically signalled by TCPIP thread,
 441:Middlewares/Third_Party/LwIP/src/api/tcpip.c ****  * this has to be done by the user.
 442:Middlewares/Third_Party/LwIP/src/api/tcpip.c ****  * It is recommended to use LWIP_TCPIP_CORE_LOCKING since this is the way
 443:Middlewares/Third_Party/LwIP/src/api/tcpip.c ****  * with least runtime overhead.
 444:Middlewares/Third_Party/LwIP/src/api/tcpip.c ****  *
 445:Middlewares/Third_Party/LwIP/src/api/tcpip.c ****  * @param fn function to be called from TCPIP thread
 446:Middlewares/Third_Party/LwIP/src/api/tcpip.c ****  * @param apimsg argument to API function
 447:Middlewares/Third_Party/LwIP/src/api/tcpip.c ****  * @param sem semaphore to wait on
 448:Middlewares/Third_Party/LwIP/src/api/tcpip.c ****  * @return ERR_OK if the function was called, another err_t if not
 449:Middlewares/Third_Party/LwIP/src/api/tcpip.c ****  */
 450:Middlewares/Third_Party/LwIP/src/api/tcpip.c **** err_t
 451:Middlewares/Third_Party/LwIP/src/api/tcpip.c **** tcpip_send_msg_wait_sem(tcpip_callback_fn fn, void *apimsg, sys_sem_t *sem)
 452:Middlewares/Third_Party/LwIP/src/api/tcpip.c **** {
 453:Middlewares/Third_Party/LwIP/src/api/tcpip.c **** #if LWIP_TCPIP_CORE_LOCKING
 454:Middlewares/Third_Party/LwIP/src/api/tcpip.c ****   LWIP_UNUSED_ARG(sem);
 455:Middlewares/Third_Party/LwIP/src/api/tcpip.c ****   LOCK_TCPIP_CORE();
 456:Middlewares/Third_Party/LwIP/src/api/tcpip.c ****   fn(apimsg);
 457:Middlewares/Third_Party/LwIP/src/api/tcpip.c ****   UNLOCK_TCPIP_CORE();
 458:Middlewares/Third_Party/LwIP/src/api/tcpip.c ****   return ERR_OK;
 459:Middlewares/Third_Party/LwIP/src/api/tcpip.c **** #else /* LWIP_TCPIP_CORE_LOCKING */
 460:Middlewares/Third_Party/LwIP/src/api/tcpip.c ****   TCPIP_MSG_VAR_DECLARE(msg);
 461:Middlewares/Third_Party/LwIP/src/api/tcpip.c **** 
 462:Middlewares/Third_Party/LwIP/src/api/tcpip.c ****   LWIP_ASSERT("semaphore not initialized", sys_sem_valid(sem));
 463:Middlewares/Third_Party/LwIP/src/api/tcpip.c ****   LWIP_ASSERT("Invalid mbox", sys_mbox_valid_val(tcpip_mbox));
 464:Middlewares/Third_Party/LwIP/src/api/tcpip.c **** 
 465:Middlewares/Third_Party/LwIP/src/api/tcpip.c ****   TCPIP_MSG_VAR_ALLOC(msg);
 466:Middlewares/Third_Party/LwIP/src/api/tcpip.c ****   TCPIP_MSG_VAR_REF(msg).type = TCPIP_MSG_API;
 467:Middlewares/Third_Party/LwIP/src/api/tcpip.c ****   TCPIP_MSG_VAR_REF(msg).msg.api_msg.function = fn;
 468:Middlewares/Third_Party/LwIP/src/api/tcpip.c ****   TCPIP_MSG_VAR_REF(msg).msg.api_msg.msg = apimsg;
 469:Middlewares/Third_Party/LwIP/src/api/tcpip.c ****   sys_mbox_post(&tcpip_mbox, &TCPIP_MSG_VAR_REF(msg));
 470:Middlewares/Third_Party/LwIP/src/api/tcpip.c ****   sys_arch_sem_wait(sem, 0);
 471:Middlewares/Third_Party/LwIP/src/api/tcpip.c ****   TCPIP_MSG_VAR_FREE(msg);
 472:Middlewares/Third_Party/LwIP/src/api/tcpip.c ****   return ERR_OK;
 473:Middlewares/Third_Party/LwIP/src/api/tcpip.c **** #endif /* LWIP_TCPIP_CORE_LOCKING */
 474:Middlewares/Third_Party/LwIP/src/api/tcpip.c **** }
 475:Middlewares/Third_Party/LwIP/src/api/tcpip.c **** 
 476:Middlewares/Third_Party/LwIP/src/api/tcpip.c **** /**
 477:Middlewares/Third_Party/LwIP/src/api/tcpip.c ****  * Synchronously calls function in TCPIP thread and waits for its completion.
 478:Middlewares/Third_Party/LwIP/src/api/tcpip.c ****  * It is recommended to use LWIP_TCPIP_CORE_LOCKING (preferred) or
 479:Middlewares/Third_Party/LwIP/src/api/tcpip.c ****  * LWIP_NETCONN_SEM_PER_THREAD.
 480:Middlewares/Third_Party/LwIP/src/api/tcpip.c ****  * If not, a semaphore is created and destroyed on every call which is usually
ARM GAS  C:\Users\hh\AppData\Local\Temp\ccJiyNKk.s 			page 17


 481:Middlewares/Third_Party/LwIP/src/api/tcpip.c ****  * an expensive/slow operation.
 482:Middlewares/Third_Party/LwIP/src/api/tcpip.c ****  * @param fn Function to call
 483:Middlewares/Third_Party/LwIP/src/api/tcpip.c ****  * @param call Call parameters
 484:Middlewares/Third_Party/LwIP/src/api/tcpip.c ****  * @return Return value from tcpip_api_call_fn
 485:Middlewares/Third_Party/LwIP/src/api/tcpip.c ****  */
 486:Middlewares/Third_Party/LwIP/src/api/tcpip.c **** err_t
 487:Middlewares/Third_Party/LwIP/src/api/tcpip.c **** tcpip_api_call(tcpip_api_call_fn fn, struct tcpip_api_call_data *call)
 488:Middlewares/Third_Party/LwIP/src/api/tcpip.c **** {
 489:Middlewares/Third_Party/LwIP/src/api/tcpip.c **** #if LWIP_TCPIP_CORE_LOCKING
 490:Middlewares/Third_Party/LwIP/src/api/tcpip.c ****   err_t err;
 491:Middlewares/Third_Party/LwIP/src/api/tcpip.c ****   LOCK_TCPIP_CORE();
 492:Middlewares/Third_Party/LwIP/src/api/tcpip.c ****   err = fn(call);
 493:Middlewares/Third_Party/LwIP/src/api/tcpip.c ****   UNLOCK_TCPIP_CORE();
 494:Middlewares/Third_Party/LwIP/src/api/tcpip.c ****   return err;
 495:Middlewares/Third_Party/LwIP/src/api/tcpip.c **** #else /* LWIP_TCPIP_CORE_LOCKING */
 496:Middlewares/Third_Party/LwIP/src/api/tcpip.c ****   TCPIP_MSG_VAR_DECLARE(msg);
 497:Middlewares/Third_Party/LwIP/src/api/tcpip.c **** 
 498:Middlewares/Third_Party/LwIP/src/api/tcpip.c **** #if !LWIP_NETCONN_SEM_PER_THREAD
 499:Middlewares/Third_Party/LwIP/src/api/tcpip.c ****   err_t err = sys_sem_new(&call->sem, 0);
 500:Middlewares/Third_Party/LwIP/src/api/tcpip.c ****   if (err != ERR_OK) {
 501:Middlewares/Third_Party/LwIP/src/api/tcpip.c ****     return err;
 502:Middlewares/Third_Party/LwIP/src/api/tcpip.c ****   }
 503:Middlewares/Third_Party/LwIP/src/api/tcpip.c **** #endif /* LWIP_NETCONN_SEM_PER_THREAD */
 504:Middlewares/Third_Party/LwIP/src/api/tcpip.c **** 
 505:Middlewares/Third_Party/LwIP/src/api/tcpip.c ****   LWIP_ASSERT("Invalid mbox", sys_mbox_valid_val(tcpip_mbox));
 506:Middlewares/Third_Party/LwIP/src/api/tcpip.c **** 
 507:Middlewares/Third_Party/LwIP/src/api/tcpip.c ****   TCPIP_MSG_VAR_ALLOC(msg);
 508:Middlewares/Third_Party/LwIP/src/api/tcpip.c ****   TCPIP_MSG_VAR_REF(msg).type = TCPIP_MSG_API_CALL;
 509:Middlewares/Third_Party/LwIP/src/api/tcpip.c ****   TCPIP_MSG_VAR_REF(msg).msg.api_call.arg = call;
 510:Middlewares/Third_Party/LwIP/src/api/tcpip.c ****   TCPIP_MSG_VAR_REF(msg).msg.api_call.function = fn;
 511:Middlewares/Third_Party/LwIP/src/api/tcpip.c **** #if LWIP_NETCONN_SEM_PER_THREAD
 512:Middlewares/Third_Party/LwIP/src/api/tcpip.c ****   TCPIP_MSG_VAR_REF(msg).msg.api_call.sem = LWIP_NETCONN_THREAD_SEM_GET();
 513:Middlewares/Third_Party/LwIP/src/api/tcpip.c **** #else /* LWIP_NETCONN_SEM_PER_THREAD */
 514:Middlewares/Third_Party/LwIP/src/api/tcpip.c ****   TCPIP_MSG_VAR_REF(msg).msg.api_call.sem = &call->sem;
 515:Middlewares/Third_Party/LwIP/src/api/tcpip.c **** #endif /* LWIP_NETCONN_SEM_PER_THREAD */
 516:Middlewares/Third_Party/LwIP/src/api/tcpip.c ****   sys_mbox_post(&tcpip_mbox, &TCPIP_MSG_VAR_REF(msg));
 517:Middlewares/Third_Party/LwIP/src/api/tcpip.c ****   sys_arch_sem_wait(TCPIP_MSG_VAR_REF(msg).msg.api_call.sem, 0);
 518:Middlewares/Third_Party/LwIP/src/api/tcpip.c ****   TCPIP_MSG_VAR_FREE(msg);
 519:Middlewares/Third_Party/LwIP/src/api/tcpip.c **** 
 520:Middlewares/Third_Party/LwIP/src/api/tcpip.c **** #if !LWIP_NETCONN_SEM_PER_THREAD
 521:Middlewares/Third_Party/LwIP/src/api/tcpip.c ****   sys_sem_free(&call->sem);
 522:Middlewares/Third_Party/LwIP/src/api/tcpip.c **** #endif /* LWIP_NETCONN_SEM_PER_THREAD */
 523:Middlewares/Third_Party/LwIP/src/api/tcpip.c **** 
 524:Middlewares/Third_Party/LwIP/src/api/tcpip.c ****   return call->err;
 525:Middlewares/Third_Party/LwIP/src/api/tcpip.c **** #endif /* LWIP_TCPIP_CORE_LOCKING */
 526:Middlewares/Third_Party/LwIP/src/api/tcpip.c **** }
 527:Middlewares/Third_Party/LwIP/src/api/tcpip.c **** 
 528:Middlewares/Third_Party/LwIP/src/api/tcpip.c **** /**
 529:Middlewares/Third_Party/LwIP/src/api/tcpip.c ****  * @ingroup lwip_os
 530:Middlewares/Third_Party/LwIP/src/api/tcpip.c ****  * Allocate a structure for a static callback message and initialize it.
 531:Middlewares/Third_Party/LwIP/src/api/tcpip.c ****  * The message has a special type such that lwIP never frees it.
 532:Middlewares/Third_Party/LwIP/src/api/tcpip.c ****  * This is intended to be used to send "static" messages from interrupt context,
 533:Middlewares/Third_Party/LwIP/src/api/tcpip.c ****  * e.g. the message is allocated once and posted several times from an IRQ
 534:Middlewares/Third_Party/LwIP/src/api/tcpip.c ****  * using tcpip_callbackmsg_trycallback().
 535:Middlewares/Third_Party/LwIP/src/api/tcpip.c ****  * Example usage: Trigger execution of an ethernet IRQ DPC routine in lwIP thread context.
 536:Middlewares/Third_Party/LwIP/src/api/tcpip.c ****  *
 537:Middlewares/Third_Party/LwIP/src/api/tcpip.c ****  * @param function the function to call
ARM GAS  C:\Users\hh\AppData\Local\Temp\ccJiyNKk.s 			page 18


 538:Middlewares/Third_Party/LwIP/src/api/tcpip.c ****  * @param ctx parameter passed to function
 539:Middlewares/Third_Party/LwIP/src/api/tcpip.c ****  * @return a struct pointer to pass to tcpip_callbackmsg_trycallback().
 540:Middlewares/Third_Party/LwIP/src/api/tcpip.c ****  *
 541:Middlewares/Third_Party/LwIP/src/api/tcpip.c ****  * @see tcpip_callbackmsg_trycallback()
 542:Middlewares/Third_Party/LwIP/src/api/tcpip.c ****  * @see tcpip_callbackmsg_delete()
 543:Middlewares/Third_Party/LwIP/src/api/tcpip.c ****  */
 544:Middlewares/Third_Party/LwIP/src/api/tcpip.c **** struct tcpip_callback_msg *
 545:Middlewares/Third_Party/LwIP/src/api/tcpip.c **** tcpip_callbackmsg_new(tcpip_callback_fn function, void *ctx)
 546:Middlewares/Third_Party/LwIP/src/api/tcpip.c **** {
 547:Middlewares/Third_Party/LwIP/src/api/tcpip.c ****   struct tcpip_msg *msg = (struct tcpip_msg *)memp_malloc(MEMP_TCPIP_MSG_API);
 548:Middlewares/Third_Party/LwIP/src/api/tcpip.c ****   if (msg == NULL) {
 549:Middlewares/Third_Party/LwIP/src/api/tcpip.c ****     return NULL;
 550:Middlewares/Third_Party/LwIP/src/api/tcpip.c ****   }
 551:Middlewares/Third_Party/LwIP/src/api/tcpip.c ****   msg->type = TCPIP_MSG_CALLBACK_STATIC;
 552:Middlewares/Third_Party/LwIP/src/api/tcpip.c ****   msg->msg.cb.function = function;
 553:Middlewares/Third_Party/LwIP/src/api/tcpip.c ****   msg->msg.cb.ctx = ctx;
 554:Middlewares/Third_Party/LwIP/src/api/tcpip.c ****   return (struct tcpip_callback_msg *)msg;
 555:Middlewares/Third_Party/LwIP/src/api/tcpip.c **** }
 556:Middlewares/Third_Party/LwIP/src/api/tcpip.c **** 
 557:Middlewares/Third_Party/LwIP/src/api/tcpip.c **** /**
 558:Middlewares/Third_Party/LwIP/src/api/tcpip.c ****  * @ingroup lwip_os
 559:Middlewares/Third_Party/LwIP/src/api/tcpip.c ****  * Free a callback message allocated by tcpip_callbackmsg_new().
 560:Middlewares/Third_Party/LwIP/src/api/tcpip.c ****  *
 561:Middlewares/Third_Party/LwIP/src/api/tcpip.c ****  * @param msg the message to free
 562:Middlewares/Third_Party/LwIP/src/api/tcpip.c ****  *
 563:Middlewares/Third_Party/LwIP/src/api/tcpip.c ****  * @see tcpip_callbackmsg_new()
 564:Middlewares/Third_Party/LwIP/src/api/tcpip.c ****  */
 565:Middlewares/Third_Party/LwIP/src/api/tcpip.c **** void
 566:Middlewares/Third_Party/LwIP/src/api/tcpip.c **** tcpip_callbackmsg_delete(struct tcpip_callback_msg *msg)
 567:Middlewares/Third_Party/LwIP/src/api/tcpip.c **** {
 568:Middlewares/Third_Party/LwIP/src/api/tcpip.c ****   memp_free(MEMP_TCPIP_MSG_API, msg);
 569:Middlewares/Third_Party/LwIP/src/api/tcpip.c **** }
 570:Middlewares/Third_Party/LwIP/src/api/tcpip.c **** 
 571:Middlewares/Third_Party/LwIP/src/api/tcpip.c **** /**
 572:Middlewares/Third_Party/LwIP/src/api/tcpip.c ****  * @ingroup lwip_os
 573:Middlewares/Third_Party/LwIP/src/api/tcpip.c ****  * Try to post a callback-message to the tcpip_thread tcpip_mbox.
 574:Middlewares/Third_Party/LwIP/src/api/tcpip.c ****  *
 575:Middlewares/Third_Party/LwIP/src/api/tcpip.c ****  * @param msg pointer to the message to post
 576:Middlewares/Third_Party/LwIP/src/api/tcpip.c ****  * @return sys_mbox_trypost() return code
 577:Middlewares/Third_Party/LwIP/src/api/tcpip.c ****  *
 578:Middlewares/Third_Party/LwIP/src/api/tcpip.c ****  * @see tcpip_callbackmsg_new()
 579:Middlewares/Third_Party/LwIP/src/api/tcpip.c ****  */
 580:Middlewares/Third_Party/LwIP/src/api/tcpip.c **** err_t
 581:Middlewares/Third_Party/LwIP/src/api/tcpip.c **** tcpip_callbackmsg_trycallback(struct tcpip_callback_msg *msg)
 582:Middlewares/Third_Party/LwIP/src/api/tcpip.c **** {
 583:Middlewares/Third_Party/LwIP/src/api/tcpip.c ****   LWIP_ASSERT("Invalid mbox", sys_mbox_valid_val(tcpip_mbox));
 584:Middlewares/Third_Party/LwIP/src/api/tcpip.c ****   return sys_mbox_trypost(&tcpip_mbox, msg);
 585:Middlewares/Third_Party/LwIP/src/api/tcpip.c **** }
 586:Middlewares/Third_Party/LwIP/src/api/tcpip.c **** 
 587:Middlewares/Third_Party/LwIP/src/api/tcpip.c **** /**
 588:Middlewares/Third_Party/LwIP/src/api/tcpip.c ****  * @ingroup lwip_os
 589:Middlewares/Third_Party/LwIP/src/api/tcpip.c ****  * Try to post a callback-message to the tcpip_thread mbox.
 590:Middlewares/Third_Party/LwIP/src/api/tcpip.c ****  * Same as @ref tcpip_callbackmsg_trycallback but calls sys_mbox_trypost_fromisr(),
 591:Middlewares/Third_Party/LwIP/src/api/tcpip.c ****  * mainly to help FreeRTOS, where calls differ between task level and ISR level.
 592:Middlewares/Third_Party/LwIP/src/api/tcpip.c ****  *
 593:Middlewares/Third_Party/LwIP/src/api/tcpip.c ****  * @param msg pointer to the message to post
 594:Middlewares/Third_Party/LwIP/src/api/tcpip.c ****  * @return sys_mbox_trypost_fromisr() return code (without change, so this
ARM GAS  C:\Users\hh\AppData\Local\Temp\ccJiyNKk.s 			page 19


 595:Middlewares/Third_Party/LwIP/src/api/tcpip.c ****  *         knowledge can be used to e.g. propagate "bool needs_scheduling")
 596:Middlewares/Third_Party/LwIP/src/api/tcpip.c ****  *
 597:Middlewares/Third_Party/LwIP/src/api/tcpip.c ****  * @see tcpip_callbackmsg_new()
 598:Middlewares/Third_Party/LwIP/src/api/tcpip.c ****  */
 599:Middlewares/Third_Party/LwIP/src/api/tcpip.c **** err_t
 600:Middlewares/Third_Party/LwIP/src/api/tcpip.c **** tcpip_callbackmsg_trycallback_fromisr(struct tcpip_callback_msg *msg)
 601:Middlewares/Third_Party/LwIP/src/api/tcpip.c **** {
 602:Middlewares/Third_Party/LwIP/src/api/tcpip.c ****   LWIP_ASSERT("Invalid mbox", sys_mbox_valid_val(tcpip_mbox));
 603:Middlewares/Third_Party/LwIP/src/api/tcpip.c ****   return sys_mbox_trypost_fromisr(&tcpip_mbox, msg);
 604:Middlewares/Third_Party/LwIP/src/api/tcpip.c **** }
 605:Middlewares/Third_Party/LwIP/src/api/tcpip.c **** 
 606:Middlewares/Third_Party/LwIP/src/api/tcpip.c **** /**
 607:Middlewares/Third_Party/LwIP/src/api/tcpip.c ****  * Sends a message to TCPIP thread to call a function. Caller thread blocks
 608:Middlewares/Third_Party/LwIP/src/api/tcpip.c ****  * until the function returns.
 609:Middlewares/Third_Party/LwIP/src/api/tcpip.c ****  * It is recommended to use LWIP_TCPIP_CORE_LOCKING (preferred) or
 610:Middlewares/Third_Party/LwIP/src/api/tcpip.c ****  * LWIP_NETCONN_SEM_PER_THREAD.
 611:Middlewares/Third_Party/LwIP/src/api/tcpip.c ****  * If not, a semaphore is created and destroyed on every call which is usually
 612:Middlewares/Third_Party/LwIP/src/api/tcpip.c ****  * an expensive/slow operation.
 613:Middlewares/Third_Party/LwIP/src/api/tcpip.c ****  *
 614:Middlewares/Third_Party/LwIP/src/api/tcpip.c ****  * @param function the function to call
 615:Middlewares/Third_Party/LwIP/src/api/tcpip.c ****  * @param ctx parameter passed to f
 616:Middlewares/Third_Party/LwIP/src/api/tcpip.c ****  * @return ERR_OK if the function was called, another err_t if not
 617:Middlewares/Third_Party/LwIP/src/api/tcpip.c ****  */
 618:Middlewares/Third_Party/LwIP/src/api/tcpip.c **** err_t
 619:Middlewares/Third_Party/LwIP/src/api/tcpip.c **** tcpip_callback_wait(tcpip_callback_fn function, void *ctx)
 620:Middlewares/Third_Party/LwIP/src/api/tcpip.c **** {
 621:Middlewares/Third_Party/LwIP/src/api/tcpip.c **** #if LWIP_TCPIP_CORE_LOCKING
 622:Middlewares/Third_Party/LwIP/src/api/tcpip.c ****   LOCK_TCPIP_CORE();
 623:Middlewares/Third_Party/LwIP/src/api/tcpip.c ****   function(ctx);
 624:Middlewares/Third_Party/LwIP/src/api/tcpip.c ****   UNLOCK_TCPIP_CORE();
 625:Middlewares/Third_Party/LwIP/src/api/tcpip.c ****   return ERR_OK;
 626:Middlewares/Third_Party/LwIP/src/api/tcpip.c **** #else /* LWIP_TCPIP_CORE_LOCKING */
 627:Middlewares/Third_Party/LwIP/src/api/tcpip.c ****   err_t err;
 628:Middlewares/Third_Party/LwIP/src/api/tcpip.c ****   sys_sem_t sem;
 629:Middlewares/Third_Party/LwIP/src/api/tcpip.c ****   struct tcpip_msg msg;
 630:Middlewares/Third_Party/LwIP/src/api/tcpip.c **** 
 631:Middlewares/Third_Party/LwIP/src/api/tcpip.c ****   LWIP_ASSERT("Invalid mbox", sys_mbox_valid_val(tcpip_mbox));
 632:Middlewares/Third_Party/LwIP/src/api/tcpip.c **** 
 633:Middlewares/Third_Party/LwIP/src/api/tcpip.c ****   err = sys_sem_new(&sem, 0);
 634:Middlewares/Third_Party/LwIP/src/api/tcpip.c ****   if (err != ERR_OK) {
 635:Middlewares/Third_Party/LwIP/src/api/tcpip.c ****     return err;
 636:Middlewares/Third_Party/LwIP/src/api/tcpip.c ****   }
 637:Middlewares/Third_Party/LwIP/src/api/tcpip.c **** 
 638:Middlewares/Third_Party/LwIP/src/api/tcpip.c ****   msg.type = TCPIP_MSG_CALLBACK_STATIC_WAIT;
 639:Middlewares/Third_Party/LwIP/src/api/tcpip.c ****   msg.msg.cb_wait.function = function;
 640:Middlewares/Third_Party/LwIP/src/api/tcpip.c ****   msg.msg.cb_wait.ctx = ctx;
 641:Middlewares/Third_Party/LwIP/src/api/tcpip.c ****   msg.msg.cb_wait.sem = &sem;
 642:Middlewares/Third_Party/LwIP/src/api/tcpip.c ****   sys_mbox_post(&tcpip_mbox, &msg);
 643:Middlewares/Third_Party/LwIP/src/api/tcpip.c ****   sys_arch_sem_wait(&sem, 0);
 644:Middlewares/Third_Party/LwIP/src/api/tcpip.c ****   sys_sem_free(&sem);
 645:Middlewares/Third_Party/LwIP/src/api/tcpip.c ****   return ERR_OK;
 646:Middlewares/Third_Party/LwIP/src/api/tcpip.c **** #endif /* LWIP_TCPIP_CORE_LOCKING */
 647:Middlewares/Third_Party/LwIP/src/api/tcpip.c **** }
 648:Middlewares/Third_Party/LwIP/src/api/tcpip.c **** 
 649:Middlewares/Third_Party/LwIP/src/api/tcpip.c **** /**
 650:Middlewares/Third_Party/LwIP/src/api/tcpip.c ****  * @ingroup lwip_os
 651:Middlewares/Third_Party/LwIP/src/api/tcpip.c ****  * Initialize this module:
ARM GAS  C:\Users\hh\AppData\Local\Temp\ccJiyNKk.s 			page 20


 652:Middlewares/Third_Party/LwIP/src/api/tcpip.c ****  * - initialize all sub modules
 653:Middlewares/Third_Party/LwIP/src/api/tcpip.c ****  * - start the tcpip_thread
 654:Middlewares/Third_Party/LwIP/src/api/tcpip.c ****  *
 655:Middlewares/Third_Party/LwIP/src/api/tcpip.c ****  * @param initfunc a function to call when tcpip_thread is running and finished initializing
 656:Middlewares/Third_Party/LwIP/src/api/tcpip.c ****  * @param arg argument to pass to initfunc
 657:Middlewares/Third_Party/LwIP/src/api/tcpip.c ****  */
 658:Middlewares/Third_Party/LwIP/src/api/tcpip.c **** void
 659:Middlewares/Third_Party/LwIP/src/api/tcpip.c **** tcpip_init(tcpip_init_done_fn initfunc, void *arg)
 660:Middlewares/Third_Party/LwIP/src/api/tcpip.c **** {
 661:Middlewares/Third_Party/LwIP/src/api/tcpip.c ****   lwip_init();
 662:Middlewares/Third_Party/LwIP/src/api/tcpip.c **** 
 663:Middlewares/Third_Party/LwIP/src/api/tcpip.c ****   tcpip_init_done = initfunc;
 664:Middlewares/Third_Party/LwIP/src/api/tcpip.c ****   tcpip_init_done_arg = arg;
 665:Middlewares/Third_Party/LwIP/src/api/tcpip.c ****   if (sys_mbox_new(&tcpip_mbox, TCPIP_MBOX_SIZE) != ERR_OK) {
 666:Middlewares/Third_Party/LwIP/src/api/tcpip.c ****     LWIP_ASSERT("failed to create tcpip_thread mbox", 0);
 667:Middlewares/Third_Party/LwIP/src/api/tcpip.c ****   }
 668:Middlewares/Third_Party/LwIP/src/api/tcpip.c **** #if LWIP_TCPIP_CORE_LOCKING
 669:Middlewares/Third_Party/LwIP/src/api/tcpip.c ****   if (sys_mutex_new(&lock_tcpip_core) != ERR_OK) {
 670:Middlewares/Third_Party/LwIP/src/api/tcpip.c ****     LWIP_ASSERT("failed to create lock_tcpip_core", 0);
 671:Middlewares/Third_Party/LwIP/src/api/tcpip.c ****   }
 672:Middlewares/Third_Party/LwIP/src/api/tcpip.c **** #endif /* LWIP_TCPIP_CORE_LOCKING */
 673:Middlewares/Third_Party/LwIP/src/api/tcpip.c **** 
 674:Middlewares/Third_Party/LwIP/src/api/tcpip.c ****   sys_thread_new(TCPIP_THREAD_NAME, tcpip_thread, NULL, TCPIP_THREAD_STACKSIZE, TCPIP_THREAD_PRIO);
 675:Middlewares/Third_Party/LwIP/src/api/tcpip.c **** }
 676:Middlewares/Third_Party/LwIP/src/api/tcpip.c **** 
 677:Middlewares/Third_Party/LwIP/src/api/tcpip.c **** /**
 678:Middlewares/Third_Party/LwIP/src/api/tcpip.c ****  * Simple callback function used with tcpip_callback to free a pbuf
 679:Middlewares/Third_Party/LwIP/src/api/tcpip.c ****  * (pbuf_free has a wrong signature for tcpip_callback)
 680:Middlewares/Third_Party/LwIP/src/api/tcpip.c ****  *
 681:Middlewares/Third_Party/LwIP/src/api/tcpip.c ****  * @param p The pbuf (chain) to be dereferenced.
 682:Middlewares/Third_Party/LwIP/src/api/tcpip.c ****  */
 683:Middlewares/Third_Party/LwIP/src/api/tcpip.c **** static void
 684:Middlewares/Third_Party/LwIP/src/api/tcpip.c **** pbuf_free_int(void *p)
 685:Middlewares/Third_Party/LwIP/src/api/tcpip.c **** {
 359              		.loc 1 685 1 view -0
 360              		.cfi_startproc
 361              		@ args = 0, pretend = 0, frame = 0
 362              		@ frame_needed = 0, uses_anonymous_args = 0
 363              		.loc 1 685 1 is_stmt 0 view .LVU93
 364 0000 08B5     		push	{r3, lr}
 365              	.LCFI4:
 366              		.cfi_def_cfa_offset 8
 367              		.cfi_offset 3, -8
 368              		.cfi_offset 14, -4
 686:Middlewares/Third_Party/LwIP/src/api/tcpip.c ****   struct pbuf *q = (struct pbuf *)p;
 369              		.loc 1 686 3 is_stmt 1 view .LVU94
 370              	.LVL41:
 687:Middlewares/Third_Party/LwIP/src/api/tcpip.c ****   pbuf_free(q);
 371              		.loc 1 687 3 view .LVU95
 372 0002 FFF7FEFF 		bl	pbuf_free
 373              	.LVL42:
 688:Middlewares/Third_Party/LwIP/src/api/tcpip.c **** }
 374              		.loc 1 688 1 is_stmt 0 view .LVU96
 375 0006 08BD     		pop	{r3, pc}
 376              		.cfi_endproc
 377              	.LFE187:
 379              		.section	.rodata.tcpip_inpkt.str1.4,"aMS",%progbits,1
ARM GAS  C:\Users\hh\AppData\Local\Temp\ccJiyNKk.s 			page 21


 380              		.align	2
 381              	.LC3:
 382 0000 496E7661 		.ascii	"Invalid mbox\000"
 382      6C696420 
 382      6D626F78 
 382      00
 383              		.section	.text.tcpip_inpkt,"ax",%progbits
 384              		.align	1
 385              		.global	tcpip_inpkt
 386              		.syntax unified
 387              		.thumb
 388              		.thumb_func
 390              	tcpip_inpkt:
 391              	.LVL43:
 392              	.LFB175:
 255:Middlewares/Third_Party/LwIP/src/api/tcpip.c **** #if LWIP_TCPIP_CORE_LOCKING_INPUT
 393              		.loc 1 255 1 is_stmt 1 view -0
 394              		.cfi_startproc
 395              		@ args = 0, pretend = 0, frame = 0
 396              		@ frame_needed = 0, uses_anonymous_args = 0
 255:Middlewares/Third_Party/LwIP/src/api/tcpip.c **** #if LWIP_TCPIP_CORE_LOCKING_INPUT
 397              		.loc 1 255 1 is_stmt 0 view .LVU98
 398 0000 F8B5     		push	{r3, r4, r5, r6, r7, lr}
 399              	.LCFI5:
 400              		.cfi_def_cfa_offset 24
 401              		.cfi_offset 3, -24
 402              		.cfi_offset 4, -20
 403              		.cfi_offset 5, -16
 404              		.cfi_offset 6, -12
 405              		.cfi_offset 7, -8
 406              		.cfi_offset 14, -4
 407 0002 0546     		mov	r5, r0
 408 0004 0E46     		mov	r6, r1
 409 0006 1746     		mov	r7, r2
 264:Middlewares/Third_Party/LwIP/src/api/tcpip.c **** 
 410              		.loc 1 264 3 is_stmt 1 view .LVU99
 266:Middlewares/Third_Party/LwIP/src/api/tcpip.c **** 
 411              		.loc 1 266 3 view .LVU100
 266:Middlewares/Third_Party/LwIP/src/api/tcpip.c **** 
 412              		.loc 1 266 3 view .LVU101
 413 0008 1248     		ldr	r0, .L40
 414              	.LVL44:
 266:Middlewares/Third_Party/LwIP/src/api/tcpip.c **** 
 415              		.loc 1 266 3 is_stmt 0 view .LVU102
 416 000a FFF7FEFF 		bl	sys_mbox_valid
 417              	.LVL45:
 266:Middlewares/Third_Party/LwIP/src/api/tcpip.c **** 
 418              		.loc 1 266 3 discriminator 1 view .LVU103
 419 000e 78B1     		cbz	r0, .L38
 420              	.L34:
 266:Middlewares/Third_Party/LwIP/src/api/tcpip.c **** 
 421              		.loc 1 266 3 is_stmt 1 view .LVU104
 266:Middlewares/Third_Party/LwIP/src/api/tcpip.c **** 
 422              		.loc 1 266 3 view .LVU105
 268:Middlewares/Third_Party/LwIP/src/api/tcpip.c ****   if (msg == NULL) {
 423              		.loc 1 268 3 view .LVU106
 268:Middlewares/Third_Party/LwIP/src/api/tcpip.c ****   if (msg == NULL) {
ARM GAS  C:\Users\hh\AppData\Local\Temp\ccJiyNKk.s 			page 22


 424              		.loc 1 268 29 is_stmt 0 view .LVU107
 425 0010 0820     		movs	r0, #8
 426 0012 FFF7FEFF 		bl	memp_malloc
 427              	.LVL46:
 269:Middlewares/Third_Party/LwIP/src/api/tcpip.c ****     return ERR_MEM;
 428              		.loc 1 269 3 is_stmt 1 view .LVU108
 269:Middlewares/Third_Party/LwIP/src/api/tcpip.c ****     return ERR_MEM;
 429              		.loc 1 269 6 is_stmt 0 view .LVU109
 430 0016 0446     		mov	r4, r0
 431 0018 C8B1     		cbz	r0, .L36
 273:Middlewares/Third_Party/LwIP/src/api/tcpip.c ****   msg->msg.inp.p = p;
 432              		.loc 1 273 3 is_stmt 1 view .LVU110
 273:Middlewares/Third_Party/LwIP/src/api/tcpip.c ****   msg->msg.inp.p = p;
 433              		.loc 1 273 13 is_stmt 0 view .LVU111
 434 001a 0023     		movs	r3, #0
 435 001c 0370     		strb	r3, [r0]
 274:Middlewares/Third_Party/LwIP/src/api/tcpip.c ****   msg->msg.inp.netif = inp;
 436              		.loc 1 274 3 is_stmt 1 view .LVU112
 274:Middlewares/Third_Party/LwIP/src/api/tcpip.c ****   msg->msg.inp.netif = inp;
 437              		.loc 1 274 18 is_stmt 0 view .LVU113
 438 001e 6560     		str	r5, [r4, #4]
 275:Middlewares/Third_Party/LwIP/src/api/tcpip.c ****   msg->msg.inp.input_fn = input_fn;
 439              		.loc 1 275 3 is_stmt 1 view .LVU114
 275:Middlewares/Third_Party/LwIP/src/api/tcpip.c ****   msg->msg.inp.input_fn = input_fn;
 440              		.loc 1 275 22 is_stmt 0 view .LVU115
 441 0020 A660     		str	r6, [r4, #8]
 276:Middlewares/Third_Party/LwIP/src/api/tcpip.c ****   if (sys_mbox_trypost(&tcpip_mbox, msg) != ERR_OK) {
 442              		.loc 1 276 3 is_stmt 1 view .LVU116
 276:Middlewares/Third_Party/LwIP/src/api/tcpip.c ****   if (sys_mbox_trypost(&tcpip_mbox, msg) != ERR_OK) {
 443              		.loc 1 276 25 is_stmt 0 view .LVU117
 444 0022 E760     		str	r7, [r4, #12]
 277:Middlewares/Third_Party/LwIP/src/api/tcpip.c ****     memp_free(MEMP_TCPIP_MSG_INPKT, msg);
 445              		.loc 1 277 3 is_stmt 1 view .LVU118
 277:Middlewares/Third_Party/LwIP/src/api/tcpip.c ****     memp_free(MEMP_TCPIP_MSG_INPKT, msg);
 446              		.loc 1 277 7 is_stmt 0 view .LVU119
 447 0024 0146     		mov	r1, r0
 448 0026 0B48     		ldr	r0, .L40
 449              	.LVL47:
 277:Middlewares/Third_Party/LwIP/src/api/tcpip.c ****     memp_free(MEMP_TCPIP_MSG_INPKT, msg);
 450              		.loc 1 277 7 view .LVU120
 451 0028 FFF7FEFF 		bl	sys_mbox_trypost
 452              	.LVL48:
 277:Middlewares/Third_Party/LwIP/src/api/tcpip.c ****     memp_free(MEMP_TCPIP_MSG_INPKT, msg);
 453              		.loc 1 277 6 discriminator 1 view .LVU121
 454 002c 40B9     		cbnz	r0, .L39
 455              	.L35:
 283:Middlewares/Third_Party/LwIP/src/api/tcpip.c **** 
 456              		.loc 1 283 1 view .LVU122
 457 002e F8BD     		pop	{r3, r4, r5, r6, r7, pc}
 458              	.LVL49:
 459              	.L38:
 266:Middlewares/Third_Party/LwIP/src/api/tcpip.c **** 
 460              		.loc 1 266 3 is_stmt 1 discriminator 2 view .LVU123
 266:Middlewares/Third_Party/LwIP/src/api/tcpip.c **** 
 461              		.loc 1 266 3 discriminator 2 view .LVU124
 462 0030 094B     		ldr	r3, .L40+4
 463 0032 4FF48572 		mov	r2, #266
ARM GAS  C:\Users\hh\AppData\Local\Temp\ccJiyNKk.s 			page 23


 464 0036 0949     		ldr	r1, .L40+8
 465 0038 0948     		ldr	r0, .L40+12
 466 003a FFF7FEFF 		bl	printf
 467              	.LVL50:
 468 003e E7E7     		b	.L34
 469              	.LVL51:
 470              	.L39:
 278:Middlewares/Third_Party/LwIP/src/api/tcpip.c ****     return ERR_MEM;
 471              		.loc 1 278 5 view .LVU125
 472 0040 2146     		mov	r1, r4
 473 0042 0820     		movs	r0, #8
 474 0044 FFF7FEFF 		bl	memp_free
 475              	.LVL52:
 279:Middlewares/Third_Party/LwIP/src/api/tcpip.c ****   }
 476              		.loc 1 279 5 view .LVU126
 279:Middlewares/Third_Party/LwIP/src/api/tcpip.c ****   }
 477              		.loc 1 279 12 is_stmt 0 view .LVU127
 478 0048 4FF0FF30 		mov	r0, #-1
 479 004c EFE7     		b	.L35
 480              	.LVL53:
 481              	.L36:
 270:Middlewares/Third_Party/LwIP/src/api/tcpip.c ****   }
 482              		.loc 1 270 12 view .LVU128
 483 004e 4FF0FF30 		mov	r0, #-1
 484              	.LVL54:
 270:Middlewares/Third_Party/LwIP/src/api/tcpip.c ****   }
 485              		.loc 1 270 12 view .LVU129
 486 0052 ECE7     		b	.L35
 487              	.L41:
 488              		.align	2
 489              	.L40:
 490 0054 00000000 		.word	tcpip_mbox
 491 0058 00000000 		.word	.LC0
 492 005c 00000000 		.word	.LC3
 493 0060 50000000 		.word	.LC2
 494              		.cfi_endproc
 495              	.LFE175:
 497              		.section	.text.tcpip_input,"ax",%progbits
 498              		.align	1
 499              		.global	tcpip_input
 500              		.syntax unified
 501              		.thumb
 502              		.thumb_func
 504              	tcpip_input:
 505              	.LVL55:
 506              	.LFB176:
 298:Middlewares/Third_Party/LwIP/src/api/tcpip.c **** #if LWIP_ETHERNET
 507              		.loc 1 298 1 is_stmt 1 view -0
 508              		.cfi_startproc
 509              		@ args = 0, pretend = 0, frame = 0
 510              		@ frame_needed = 0, uses_anonymous_args = 0
 298:Middlewares/Third_Party/LwIP/src/api/tcpip.c **** #if LWIP_ETHERNET
 511              		.loc 1 298 1 is_stmt 0 view .LVU131
 512 0000 08B5     		push	{r3, lr}
 513              	.LCFI6:
 514              		.cfi_def_cfa_offset 8
 515              		.cfi_offset 3, -8
ARM GAS  C:\Users\hh\AppData\Local\Temp\ccJiyNKk.s 			page 24


 516              		.cfi_offset 14, -4
 300:Middlewares/Third_Party/LwIP/src/api/tcpip.c ****     return tcpip_inpkt(p, inp, ethernet_input);
 517              		.loc 1 300 3 is_stmt 1 view .LVU132
 300:Middlewares/Third_Party/LwIP/src/api/tcpip.c ****     return tcpip_inpkt(p, inp, ethernet_input);
 518              		.loc 1 300 10 is_stmt 0 view .LVU133
 519 0002 91F82D30 		ldrb	r3, [r1, #45]	@ zero_extendqisi2
 300:Middlewares/Third_Party/LwIP/src/api/tcpip.c ****     return tcpip_inpkt(p, inp, ethernet_input);
 520              		.loc 1 300 6 view .LVU134
 521 0006 13F0180F 		tst	r3, #24
 522 000a 03D0     		beq	.L43
 301:Middlewares/Third_Party/LwIP/src/api/tcpip.c ****   } else
 523              		.loc 1 301 5 is_stmt 1 view .LVU135
 301:Middlewares/Third_Party/LwIP/src/api/tcpip.c ****   } else
 524              		.loc 1 301 12 is_stmt 0 view .LVU136
 525 000c 034A     		ldr	r2, .L46
 526 000e FFF7FEFF 		bl	tcpip_inpkt
 527              	.LVL56:
 528              	.L44:
 305:Middlewares/Third_Party/LwIP/src/api/tcpip.c **** 
 529              		.loc 1 305 1 view .LVU137
 530 0012 08BD     		pop	{r3, pc}
 531              	.LVL57:
 532              	.L43:
 304:Middlewares/Third_Party/LwIP/src/api/tcpip.c **** }
 533              		.loc 1 304 5 is_stmt 1 view .LVU138
 304:Middlewares/Third_Party/LwIP/src/api/tcpip.c **** }
 534              		.loc 1 304 12 is_stmt 0 view .LVU139
 535 0014 024A     		ldr	r2, .L46+4
 536 0016 FFF7FEFF 		bl	tcpip_inpkt
 537              	.LVL58:
 304:Middlewares/Third_Party/LwIP/src/api/tcpip.c **** }
 538              		.loc 1 304 12 view .LVU140
 539 001a FAE7     		b	.L44
 540              	.L47:
 541              		.align	2
 542              	.L46:
 543 001c 00000000 		.word	ethernet_input
 544 0020 00000000 		.word	ip4_input
 545              		.cfi_endproc
 546              	.LFE176:
 548              		.section	.text.tcpip_callback,"ax",%progbits
 549              		.align	1
 550              		.global	tcpip_callback
 551              		.syntax unified
 552              		.thumb
 553              		.thumb_func
 555              	tcpip_callback:
 556              	.LVL59:
 557              	.LFB177:
 324:Middlewares/Third_Party/LwIP/src/api/tcpip.c ****   struct tcpip_msg *msg;
 558              		.loc 1 324 1 is_stmt 1 view -0
 559              		.cfi_startproc
 560              		@ args = 0, pretend = 0, frame = 0
 561              		@ frame_needed = 0, uses_anonymous_args = 0
 324:Middlewares/Third_Party/LwIP/src/api/tcpip.c ****   struct tcpip_msg *msg;
 562              		.loc 1 324 1 is_stmt 0 view .LVU142
 563 0000 38B5     		push	{r3, r4, r5, lr}
ARM GAS  C:\Users\hh\AppData\Local\Temp\ccJiyNKk.s 			page 25


 564              	.LCFI7:
 565              		.cfi_def_cfa_offset 16
 566              		.cfi_offset 3, -16
 567              		.cfi_offset 4, -12
 568              		.cfi_offset 5, -8
 569              		.cfi_offset 14, -4
 570 0002 0446     		mov	r4, r0
 571 0004 0D46     		mov	r5, r1
 325:Middlewares/Third_Party/LwIP/src/api/tcpip.c **** 
 572              		.loc 1 325 3 is_stmt 1 view .LVU143
 327:Middlewares/Third_Party/LwIP/src/api/tcpip.c **** 
 573              		.loc 1 327 3 view .LVU144
 327:Middlewares/Third_Party/LwIP/src/api/tcpip.c **** 
 574              		.loc 1 327 3 view .LVU145
 575 0006 0E48     		ldr	r0, .L54
 576              	.LVL60:
 327:Middlewares/Third_Party/LwIP/src/api/tcpip.c **** 
 577              		.loc 1 327 3 is_stmt 0 view .LVU146
 578 0008 FFF7FEFF 		bl	sys_mbox_valid
 579              	.LVL61:
 327:Middlewares/Third_Party/LwIP/src/api/tcpip.c **** 
 580              		.loc 1 327 3 discriminator 1 view .LVU147
 581 000c 68B1     		cbz	r0, .L53
 582              	.L49:
 327:Middlewares/Third_Party/LwIP/src/api/tcpip.c **** 
 583              		.loc 1 327 3 is_stmt 1 view .LVU148
 327:Middlewares/Third_Party/LwIP/src/api/tcpip.c **** 
 584              		.loc 1 327 3 view .LVU149
 329:Middlewares/Third_Party/LwIP/src/api/tcpip.c ****   if (msg == NULL) {
 585              		.loc 1 329 3 view .LVU150
 329:Middlewares/Third_Party/LwIP/src/api/tcpip.c ****   if (msg == NULL) {
 586              		.loc 1 329 29 is_stmt 0 view .LVU151
 587 000e 0720     		movs	r0, #7
 588 0010 FFF7FEFF 		bl	memp_malloc
 589              	.LVL62:
 330:Middlewares/Third_Party/LwIP/src/api/tcpip.c ****     return ERR_MEM;
 590              		.loc 1 330 3 is_stmt 1 view .LVU152
 330:Middlewares/Third_Party/LwIP/src/api/tcpip.c ****     return ERR_MEM;
 591              		.loc 1 330 6 is_stmt 0 view .LVU153
 592 0014 0146     		mov	r1, r0
 593 0016 80B1     		cbz	r0, .L51
 334:Middlewares/Third_Party/LwIP/src/api/tcpip.c ****   msg->msg.cb.function = function;
 594              		.loc 1 334 3 is_stmt 1 view .LVU154
 334:Middlewares/Third_Party/LwIP/src/api/tcpip.c ****   msg->msg.cb.function = function;
 595              		.loc 1 334 13 is_stmt 0 view .LVU155
 596 0018 0123     		movs	r3, #1
 597 001a 0370     		strb	r3, [r0]
 335:Middlewares/Third_Party/LwIP/src/api/tcpip.c ****   msg->msg.cb.ctx = ctx;
 598              		.loc 1 335 3 is_stmt 1 view .LVU156
 335:Middlewares/Third_Party/LwIP/src/api/tcpip.c ****   msg->msg.cb.ctx = ctx;
 599              		.loc 1 335 24 is_stmt 0 view .LVU157
 600 001c 4C60     		str	r4, [r1, #4]
 336:Middlewares/Third_Party/LwIP/src/api/tcpip.c **** 
 601              		.loc 1 336 3 is_stmt 1 view .LVU158
 336:Middlewares/Third_Party/LwIP/src/api/tcpip.c **** 
 602              		.loc 1 336 19 is_stmt 0 view .LVU159
 603 001e 8D60     		str	r5, [r1, #8]
ARM GAS  C:\Users\hh\AppData\Local\Temp\ccJiyNKk.s 			page 26


 338:Middlewares/Third_Party/LwIP/src/api/tcpip.c ****   return ERR_OK;
 604              		.loc 1 338 3 is_stmt 1 view .LVU160
 605 0020 0748     		ldr	r0, .L54
 606              	.LVL63:
 338:Middlewares/Third_Party/LwIP/src/api/tcpip.c ****   return ERR_OK;
 607              		.loc 1 338 3 is_stmt 0 view .LVU161
 608 0022 FFF7FEFF 		bl	sys_mbox_post
 609              	.LVL64:
 339:Middlewares/Third_Party/LwIP/src/api/tcpip.c **** }
 610              		.loc 1 339 3 is_stmt 1 view .LVU162
 339:Middlewares/Third_Party/LwIP/src/api/tcpip.c **** }
 611              		.loc 1 339 10 is_stmt 0 view .LVU163
 612 0026 0020     		movs	r0, #0
 613              	.L50:
 340:Middlewares/Third_Party/LwIP/src/api/tcpip.c **** 
 614              		.loc 1 340 1 view .LVU164
 615 0028 38BD     		pop	{r3, r4, r5, pc}
 616              	.LVL65:
 617              	.L53:
 327:Middlewares/Third_Party/LwIP/src/api/tcpip.c **** 
 618              		.loc 1 327 3 is_stmt 1 discriminator 2 view .LVU165
 327:Middlewares/Third_Party/LwIP/src/api/tcpip.c **** 
 619              		.loc 1 327 3 discriminator 2 view .LVU166
 620 002a 064B     		ldr	r3, .L54+4
 621 002c 40F24712 		movw	r2, #327
 622 0030 0549     		ldr	r1, .L54+8
 623 0032 0648     		ldr	r0, .L54+12
 624 0034 FFF7FEFF 		bl	printf
 625              	.LVL66:
 626 0038 E9E7     		b	.L49
 627              	.LVL67:
 628              	.L51:
 331:Middlewares/Third_Party/LwIP/src/api/tcpip.c ****   }
 629              		.loc 1 331 12 is_stmt 0 view .LVU167
 630 003a 4FF0FF30 		mov	r0, #-1
 631              	.LVL68:
 331:Middlewares/Third_Party/LwIP/src/api/tcpip.c ****   }
 632              		.loc 1 331 12 view .LVU168
 633 003e F3E7     		b	.L50
 634              	.L55:
 635              		.align	2
 636              	.L54:
 637 0040 00000000 		.word	tcpip_mbox
 638 0044 00000000 		.word	.LC0
 639 0048 00000000 		.word	.LC3
 640 004c 50000000 		.word	.LC2
 641              		.cfi_endproc
 642              	.LFE177:
 644              		.section	.text.tcpip_try_callback,"ax",%progbits
 645              		.align	1
 646              		.global	tcpip_try_callback
 647              		.syntax unified
 648              		.thumb
 649              		.thumb_func
 651              	tcpip_try_callback:
 652              	.LVL69:
 653              	.LFB178:
ARM GAS  C:\Users\hh\AppData\Local\Temp\ccJiyNKk.s 			page 27


 360:Middlewares/Third_Party/LwIP/src/api/tcpip.c ****   struct tcpip_msg *msg;
 654              		.loc 1 360 1 is_stmt 1 view -0
 655              		.cfi_startproc
 656              		@ args = 0, pretend = 0, frame = 0
 657              		@ frame_needed = 0, uses_anonymous_args = 0
 360:Middlewares/Third_Party/LwIP/src/api/tcpip.c ****   struct tcpip_msg *msg;
 658              		.loc 1 360 1 is_stmt 0 view .LVU170
 659 0000 70B5     		push	{r4, r5, r6, lr}
 660              	.LCFI8:
 661              		.cfi_def_cfa_offset 16
 662              		.cfi_offset 4, -16
 663              		.cfi_offset 5, -12
 664              		.cfi_offset 6, -8
 665              		.cfi_offset 14, -4
 666 0002 0546     		mov	r5, r0
 667 0004 0E46     		mov	r6, r1
 361:Middlewares/Third_Party/LwIP/src/api/tcpip.c **** 
 668              		.loc 1 361 3 is_stmt 1 view .LVU171
 363:Middlewares/Third_Party/LwIP/src/api/tcpip.c **** 
 669              		.loc 1 363 3 view .LVU172
 363:Middlewares/Third_Party/LwIP/src/api/tcpip.c **** 
 670              		.loc 1 363 3 view .LVU173
 671 0006 1248     		ldr	r0, .L63
 672              	.LVL70:
 363:Middlewares/Third_Party/LwIP/src/api/tcpip.c **** 
 673              		.loc 1 363 3 is_stmt 0 view .LVU174
 674 0008 FFF7FEFF 		bl	sys_mbox_valid
 675              	.LVL71:
 363:Middlewares/Third_Party/LwIP/src/api/tcpip.c **** 
 676              		.loc 1 363 3 discriminator 1 view .LVU175
 677 000c 70B1     		cbz	r0, .L61
 678              	.L57:
 363:Middlewares/Third_Party/LwIP/src/api/tcpip.c **** 
 679              		.loc 1 363 3 is_stmt 1 view .LVU176
 363:Middlewares/Third_Party/LwIP/src/api/tcpip.c **** 
 680              		.loc 1 363 3 view .LVU177
 365:Middlewares/Third_Party/LwIP/src/api/tcpip.c ****   if (msg == NULL) {
 681              		.loc 1 365 3 view .LVU178
 365:Middlewares/Third_Party/LwIP/src/api/tcpip.c ****   if (msg == NULL) {
 682              		.loc 1 365 29 is_stmt 0 view .LVU179
 683 000e 0720     		movs	r0, #7
 684 0010 FFF7FEFF 		bl	memp_malloc
 685              	.LVL72:
 366:Middlewares/Third_Party/LwIP/src/api/tcpip.c ****     return ERR_MEM;
 686              		.loc 1 366 3 is_stmt 1 view .LVU180
 366:Middlewares/Third_Party/LwIP/src/api/tcpip.c ****     return ERR_MEM;
 687              		.loc 1 366 6 is_stmt 0 view .LVU181
 688 0014 0446     		mov	r4, r0
 689 0016 C0B1     		cbz	r0, .L59
 370:Middlewares/Third_Party/LwIP/src/api/tcpip.c ****   msg->msg.cb.function = function;
 690              		.loc 1 370 3 is_stmt 1 view .LVU182
 370:Middlewares/Third_Party/LwIP/src/api/tcpip.c ****   msg->msg.cb.function = function;
 691              		.loc 1 370 13 is_stmt 0 view .LVU183
 692 0018 0123     		movs	r3, #1
 693 001a 0370     		strb	r3, [r0]
 371:Middlewares/Third_Party/LwIP/src/api/tcpip.c ****   msg->msg.cb.ctx = ctx;
 694              		.loc 1 371 3 is_stmt 1 view .LVU184
ARM GAS  C:\Users\hh\AppData\Local\Temp\ccJiyNKk.s 			page 28


 371:Middlewares/Third_Party/LwIP/src/api/tcpip.c ****   msg->msg.cb.ctx = ctx;
 695              		.loc 1 371 24 is_stmt 0 view .LVU185
 696 001c 6560     		str	r5, [r4, #4]
 372:Middlewares/Third_Party/LwIP/src/api/tcpip.c **** 
 697              		.loc 1 372 3 is_stmt 1 view .LVU186
 372:Middlewares/Third_Party/LwIP/src/api/tcpip.c **** 
 698              		.loc 1 372 19 is_stmt 0 view .LVU187
 699 001e A660     		str	r6, [r4, #8]
 374:Middlewares/Third_Party/LwIP/src/api/tcpip.c ****     memp_free(MEMP_TCPIP_MSG_API, msg);
 700              		.loc 1 374 3 is_stmt 1 view .LVU188
 374:Middlewares/Third_Party/LwIP/src/api/tcpip.c ****     memp_free(MEMP_TCPIP_MSG_API, msg);
 701              		.loc 1 374 7 is_stmt 0 view .LVU189
 702 0020 0146     		mov	r1, r0
 703 0022 0B48     		ldr	r0, .L63
 704              	.LVL73:
 374:Middlewares/Third_Party/LwIP/src/api/tcpip.c ****     memp_free(MEMP_TCPIP_MSG_API, msg);
 705              		.loc 1 374 7 view .LVU190
 706 0024 FFF7FEFF 		bl	sys_mbox_trypost
 707              	.LVL74:
 374:Middlewares/Third_Party/LwIP/src/api/tcpip.c ****     memp_free(MEMP_TCPIP_MSG_API, msg);
 708              		.loc 1 374 6 discriminator 1 view .LVU191
 709 0028 40B9     		cbnz	r0, .L62
 710              	.L58:
 379:Middlewares/Third_Party/LwIP/src/api/tcpip.c **** 
 711              		.loc 1 379 1 view .LVU192
 712 002a 70BD     		pop	{r4, r5, r6, pc}
 713              	.LVL75:
 714              	.L61:
 363:Middlewares/Third_Party/LwIP/src/api/tcpip.c **** 
 715              		.loc 1 363 3 is_stmt 1 discriminator 2 view .LVU193
 363:Middlewares/Third_Party/LwIP/src/api/tcpip.c **** 
 716              		.loc 1 363 3 discriminator 2 view .LVU194
 717 002c 094B     		ldr	r3, .L63+4
 718 002e 40F26B12 		movw	r2, #363
 719 0032 0949     		ldr	r1, .L63+8
 720 0034 0948     		ldr	r0, .L63+12
 721 0036 FFF7FEFF 		bl	printf
 722              	.LVL76:
 723 003a E8E7     		b	.L57
 724              	.LVL77:
 725              	.L62:
 375:Middlewares/Third_Party/LwIP/src/api/tcpip.c ****     return ERR_MEM;
 726              		.loc 1 375 5 view .LVU195
 727 003c 2146     		mov	r1, r4
 728 003e 0720     		movs	r0, #7
 729 0040 FFF7FEFF 		bl	memp_free
 730              	.LVL78:
 376:Middlewares/Third_Party/LwIP/src/api/tcpip.c ****   }
 731              		.loc 1 376 5 view .LVU196
 376:Middlewares/Third_Party/LwIP/src/api/tcpip.c ****   }
 732              		.loc 1 376 12 is_stmt 0 view .LVU197
 733 0044 4FF0FF30 		mov	r0, #-1
 734 0048 EFE7     		b	.L58
 735              	.LVL79:
 736              	.L59:
 367:Middlewares/Third_Party/LwIP/src/api/tcpip.c ****   }
 737              		.loc 1 367 12 view .LVU198
ARM GAS  C:\Users\hh\AppData\Local\Temp\ccJiyNKk.s 			page 29


 738 004a 4FF0FF30 		mov	r0, #-1
 739              	.LVL80:
 367:Middlewares/Third_Party/LwIP/src/api/tcpip.c ****   }
 740              		.loc 1 367 12 view .LVU199
 741 004e ECE7     		b	.L58
 742              	.L64:
 743              		.align	2
 744              	.L63:
 745 0050 00000000 		.word	tcpip_mbox
 746 0054 00000000 		.word	.LC0
 747 0058 00000000 		.word	.LC3
 748 005c 50000000 		.word	.LC2
 749              		.cfi_endproc
 750              	.LFE178:
 752              		.section	.text.tcpip_send_msg_wait_sem,"ax",%progbits
 753              		.align	1
 754              		.global	tcpip_send_msg_wait_sem
 755              		.syntax unified
 756              		.thumb
 757              		.thumb_func
 759              	tcpip_send_msg_wait_sem:
 760              	.LVL81:
 761              	.LFB179:
 452:Middlewares/Third_Party/LwIP/src/api/tcpip.c **** #if LWIP_TCPIP_CORE_LOCKING
 762              		.loc 1 452 1 is_stmt 1 view -0
 763              		.cfi_startproc
 764              		@ args = 0, pretend = 0, frame = 0
 765              		@ frame_needed = 0, uses_anonymous_args = 0
 452:Middlewares/Third_Party/LwIP/src/api/tcpip.c **** #if LWIP_TCPIP_CORE_LOCKING
 766              		.loc 1 452 1 is_stmt 0 view .LVU201
 767 0000 70B5     		push	{r4, r5, r6, lr}
 768              	.LCFI9:
 769              		.cfi_def_cfa_offset 16
 770              		.cfi_offset 4, -16
 771              		.cfi_offset 5, -12
 772              		.cfi_offset 6, -8
 773              		.cfi_offset 14, -4
 774 0002 0646     		mov	r6, r0
 775 0004 0D46     		mov	r5, r1
 454:Middlewares/Third_Party/LwIP/src/api/tcpip.c ****   LOCK_TCPIP_CORE();
 776              		.loc 1 454 3 is_stmt 1 view .LVU202
 455:Middlewares/Third_Party/LwIP/src/api/tcpip.c ****   fn(apimsg);
 777              		.loc 1 455 3 view .LVU203
 778 0006 054C     		ldr	r4, .L67
 779 0008 2046     		mov	r0, r4
 780              	.LVL82:
 455:Middlewares/Third_Party/LwIP/src/api/tcpip.c ****   fn(apimsg);
 781              		.loc 1 455 3 is_stmt 0 view .LVU204
 782 000a FFF7FEFF 		bl	sys_mutex_lock
 783              	.LVL83:
 456:Middlewares/Third_Party/LwIP/src/api/tcpip.c ****   UNLOCK_TCPIP_CORE();
 784              		.loc 1 456 3 is_stmt 1 view .LVU205
 785 000e 2846     		mov	r0, r5
 786 0010 B047     		blx	r6
 787              	.LVL84:
 457:Middlewares/Third_Party/LwIP/src/api/tcpip.c ****   return ERR_OK;
 788              		.loc 1 457 3 view .LVU206
ARM GAS  C:\Users\hh\AppData\Local\Temp\ccJiyNKk.s 			page 30


 789 0012 2046     		mov	r0, r4
 790 0014 FFF7FEFF 		bl	sys_mutex_unlock
 791              	.LVL85:
 458:Middlewares/Third_Party/LwIP/src/api/tcpip.c **** #else /* LWIP_TCPIP_CORE_LOCKING */
 792              		.loc 1 458 3 view .LVU207
 474:Middlewares/Third_Party/LwIP/src/api/tcpip.c **** 
 793              		.loc 1 474 1 is_stmt 0 view .LVU208
 794 0018 0020     		movs	r0, #0
 795 001a 70BD     		pop	{r4, r5, r6, pc}
 796              	.LVL86:
 797              	.L68:
 474:Middlewares/Third_Party/LwIP/src/api/tcpip.c **** 
 798              		.loc 1 474 1 view .LVU209
 799              		.align	2
 800              	.L67:
 801 001c 00000000 		.word	lock_tcpip_core
 802              		.cfi_endproc
 803              	.LFE179:
 805              		.section	.text.tcpip_api_call,"ax",%progbits
 806              		.align	1
 807              		.global	tcpip_api_call
 808              		.syntax unified
 809              		.thumb
 810              		.thumb_func
 812              	tcpip_api_call:
 813              	.LVL87:
 814              	.LFB180:
 488:Middlewares/Third_Party/LwIP/src/api/tcpip.c **** #if LWIP_TCPIP_CORE_LOCKING
 815              		.loc 1 488 1 is_stmt 1 view -0
 816              		.cfi_startproc
 817              		@ args = 0, pretend = 0, frame = 0
 818              		@ frame_needed = 0, uses_anonymous_args = 0
 488:Middlewares/Third_Party/LwIP/src/api/tcpip.c **** #if LWIP_TCPIP_CORE_LOCKING
 819              		.loc 1 488 1 is_stmt 0 view .LVU211
 820 0000 70B5     		push	{r4, r5, r6, lr}
 821              	.LCFI10:
 822              		.cfi_def_cfa_offset 16
 823              		.cfi_offset 4, -16
 824              		.cfi_offset 5, -12
 825              		.cfi_offset 6, -8
 826              		.cfi_offset 14, -4
 827 0002 0646     		mov	r6, r0
 828 0004 0D46     		mov	r5, r1
 490:Middlewares/Third_Party/LwIP/src/api/tcpip.c ****   LOCK_TCPIP_CORE();
 829              		.loc 1 490 3 is_stmt 1 view .LVU212
 491:Middlewares/Third_Party/LwIP/src/api/tcpip.c ****   err = fn(call);
 830              		.loc 1 491 3 view .LVU213
 831 0006 064C     		ldr	r4, .L71
 832 0008 2046     		mov	r0, r4
 833              	.LVL88:
 491:Middlewares/Third_Party/LwIP/src/api/tcpip.c ****   err = fn(call);
 834              		.loc 1 491 3 is_stmt 0 view .LVU214
 835 000a FFF7FEFF 		bl	sys_mutex_lock
 836              	.LVL89:
 492:Middlewares/Third_Party/LwIP/src/api/tcpip.c ****   UNLOCK_TCPIP_CORE();
 837              		.loc 1 492 3 is_stmt 1 view .LVU215
 492:Middlewares/Third_Party/LwIP/src/api/tcpip.c ****   UNLOCK_TCPIP_CORE();
ARM GAS  C:\Users\hh\AppData\Local\Temp\ccJiyNKk.s 			page 31


 838              		.loc 1 492 9 is_stmt 0 view .LVU216
 839 000e 2846     		mov	r0, r5
 840 0010 B047     		blx	r6
 841              	.LVL90:
 842 0012 0546     		mov	r5, r0
 843              	.LVL91:
 493:Middlewares/Third_Party/LwIP/src/api/tcpip.c ****   return err;
 844              		.loc 1 493 3 is_stmt 1 view .LVU217
 845 0014 2046     		mov	r0, r4
 846 0016 FFF7FEFF 		bl	sys_mutex_unlock
 847              	.LVL92:
 494:Middlewares/Third_Party/LwIP/src/api/tcpip.c **** #else /* LWIP_TCPIP_CORE_LOCKING */
 848              		.loc 1 494 3 view .LVU218
 526:Middlewares/Third_Party/LwIP/src/api/tcpip.c **** 
 849              		.loc 1 526 1 is_stmt 0 view .LVU219
 850 001a 2846     		mov	r0, r5
 851 001c 70BD     		pop	{r4, r5, r6, pc}
 852              	.LVL93:
 853              	.L72:
 526:Middlewares/Third_Party/LwIP/src/api/tcpip.c **** 
 854              		.loc 1 526 1 view .LVU220
 855 001e 00BF     		.align	2
 856              	.L71:
 857 0020 00000000 		.word	lock_tcpip_core
 858              		.cfi_endproc
 859              	.LFE180:
 861              		.section	.text.tcpip_callbackmsg_new,"ax",%progbits
 862              		.align	1
 863              		.global	tcpip_callbackmsg_new
 864              		.syntax unified
 865              		.thumb
 866              		.thumb_func
 868              	tcpip_callbackmsg_new:
 869              	.LVL94:
 870              	.LFB181:
 546:Middlewares/Third_Party/LwIP/src/api/tcpip.c ****   struct tcpip_msg *msg = (struct tcpip_msg *)memp_malloc(MEMP_TCPIP_MSG_API);
 871              		.loc 1 546 1 is_stmt 1 view -0
 872              		.cfi_startproc
 873              		@ args = 0, pretend = 0, frame = 0
 874              		@ frame_needed = 0, uses_anonymous_args = 0
 546:Middlewares/Third_Party/LwIP/src/api/tcpip.c ****   struct tcpip_msg *msg = (struct tcpip_msg *)memp_malloc(MEMP_TCPIP_MSG_API);
 875              		.loc 1 546 1 is_stmt 0 view .LVU222
 876 0000 38B5     		push	{r3, r4, r5, lr}
 877              	.LCFI11:
 878              		.cfi_def_cfa_offset 16
 879              		.cfi_offset 3, -16
 880              		.cfi_offset 4, -12
 881              		.cfi_offset 5, -8
 882              		.cfi_offset 14, -4
 883 0002 0546     		mov	r5, r0
 884 0004 0C46     		mov	r4, r1
 547:Middlewares/Third_Party/LwIP/src/api/tcpip.c ****   if (msg == NULL) {
 885              		.loc 1 547 3 is_stmt 1 view .LVU223
 547:Middlewares/Third_Party/LwIP/src/api/tcpip.c ****   if (msg == NULL) {
 886              		.loc 1 547 47 is_stmt 0 view .LVU224
 887 0006 0720     		movs	r0, #7
 888              	.LVL95:
ARM GAS  C:\Users\hh\AppData\Local\Temp\ccJiyNKk.s 			page 32


 547:Middlewares/Third_Party/LwIP/src/api/tcpip.c ****   if (msg == NULL) {
 889              		.loc 1 547 47 view .LVU225
 890 0008 FFF7FEFF 		bl	memp_malloc
 891              	.LVL96:
 548:Middlewares/Third_Party/LwIP/src/api/tcpip.c ****     return NULL;
 892              		.loc 1 548 3 is_stmt 1 view .LVU226
 548:Middlewares/Third_Party/LwIP/src/api/tcpip.c ****     return NULL;
 893              		.loc 1 548 6 is_stmt 0 view .LVU227
 894 000c 0346     		mov	r3, r0
 895 000e 18B1     		cbz	r0, .L73
 551:Middlewares/Third_Party/LwIP/src/api/tcpip.c ****   msg->msg.cb.function = function;
 896              		.loc 1 551 3 is_stmt 1 view .LVU228
 551:Middlewares/Third_Party/LwIP/src/api/tcpip.c ****   msg->msg.cb.function = function;
 897              		.loc 1 551 13 is_stmt 0 view .LVU229
 898 0010 0222     		movs	r2, #2
 899 0012 0270     		strb	r2, [r0]
 552:Middlewares/Third_Party/LwIP/src/api/tcpip.c ****   msg->msg.cb.ctx = ctx;
 900              		.loc 1 552 3 is_stmt 1 view .LVU230
 552:Middlewares/Third_Party/LwIP/src/api/tcpip.c ****   msg->msg.cb.ctx = ctx;
 901              		.loc 1 552 24 is_stmt 0 view .LVU231
 902 0014 5D60     		str	r5, [r3, #4]
 553:Middlewares/Third_Party/LwIP/src/api/tcpip.c ****   return (struct tcpip_callback_msg *)msg;
 903              		.loc 1 553 3 is_stmt 1 view .LVU232
 553:Middlewares/Third_Party/LwIP/src/api/tcpip.c ****   return (struct tcpip_callback_msg *)msg;
 904              		.loc 1 553 19 is_stmt 0 view .LVU233
 905 0016 9C60     		str	r4, [r3, #8]
 554:Middlewares/Third_Party/LwIP/src/api/tcpip.c **** }
 906              		.loc 1 554 3 is_stmt 1 view .LVU234
 907              	.L73:
 555:Middlewares/Third_Party/LwIP/src/api/tcpip.c **** 
 908              		.loc 1 555 1 is_stmt 0 view .LVU235
 909 0018 1846     		mov	r0, r3
 910              	.LVL97:
 555:Middlewares/Third_Party/LwIP/src/api/tcpip.c **** 
 911              		.loc 1 555 1 view .LVU236
 912 001a 38BD     		pop	{r3, r4, r5, pc}
 555:Middlewares/Third_Party/LwIP/src/api/tcpip.c **** 
 913              		.loc 1 555 1 view .LVU237
 914              		.cfi_endproc
 915              	.LFE181:
 917              		.section	.text.tcpip_callbackmsg_delete,"ax",%progbits
 918              		.align	1
 919              		.global	tcpip_callbackmsg_delete
 920              		.syntax unified
 921              		.thumb
 922              		.thumb_func
 924              	tcpip_callbackmsg_delete:
 925              	.LVL98:
 926              	.LFB182:
 567:Middlewares/Third_Party/LwIP/src/api/tcpip.c ****   memp_free(MEMP_TCPIP_MSG_API, msg);
 927              		.loc 1 567 1 is_stmt 1 view -0
 928              		.cfi_startproc
 929              		@ args = 0, pretend = 0, frame = 0
 930              		@ frame_needed = 0, uses_anonymous_args = 0
 567:Middlewares/Third_Party/LwIP/src/api/tcpip.c ****   memp_free(MEMP_TCPIP_MSG_API, msg);
 931              		.loc 1 567 1 is_stmt 0 view .LVU239
 932 0000 08B5     		push	{r3, lr}
ARM GAS  C:\Users\hh\AppData\Local\Temp\ccJiyNKk.s 			page 33


 933              	.LCFI12:
 934              		.cfi_def_cfa_offset 8
 935              		.cfi_offset 3, -8
 936              		.cfi_offset 14, -4
 937 0002 0146     		mov	r1, r0
 568:Middlewares/Third_Party/LwIP/src/api/tcpip.c **** }
 938              		.loc 1 568 3 is_stmt 1 view .LVU240
 939 0004 0720     		movs	r0, #7
 940              	.LVL99:
 568:Middlewares/Third_Party/LwIP/src/api/tcpip.c **** }
 941              		.loc 1 568 3 is_stmt 0 view .LVU241
 942 0006 FFF7FEFF 		bl	memp_free
 943              	.LVL100:
 569:Middlewares/Third_Party/LwIP/src/api/tcpip.c **** 
 944              		.loc 1 569 1 view .LVU242
 945 000a 08BD     		pop	{r3, pc}
 946              		.cfi_endproc
 947              	.LFE182:
 949              		.section	.text.tcpip_callbackmsg_trycallback,"ax",%progbits
 950              		.align	1
 951              		.global	tcpip_callbackmsg_trycallback
 952              		.syntax unified
 953              		.thumb
 954              		.thumb_func
 956              	tcpip_callbackmsg_trycallback:
 957              	.LVL101:
 958              	.LFB183:
 582:Middlewares/Third_Party/LwIP/src/api/tcpip.c ****   LWIP_ASSERT("Invalid mbox", sys_mbox_valid_val(tcpip_mbox));
 959              		.loc 1 582 1 is_stmt 1 view -0
 960              		.cfi_startproc
 961              		@ args = 0, pretend = 0, frame = 0
 962              		@ frame_needed = 0, uses_anonymous_args = 0
 582:Middlewares/Third_Party/LwIP/src/api/tcpip.c ****   LWIP_ASSERT("Invalid mbox", sys_mbox_valid_val(tcpip_mbox));
 963              		.loc 1 582 1 is_stmt 0 view .LVU244
 964 0000 10B5     		push	{r4, lr}
 965              	.LCFI13:
 966              		.cfi_def_cfa_offset 8
 967              		.cfi_offset 4, -8
 968              		.cfi_offset 14, -4
 969 0002 0446     		mov	r4, r0
 583:Middlewares/Third_Party/LwIP/src/api/tcpip.c ****   return sys_mbox_trypost(&tcpip_mbox, msg);
 970              		.loc 1 583 3 is_stmt 1 view .LVU245
 583:Middlewares/Third_Party/LwIP/src/api/tcpip.c ****   return sys_mbox_trypost(&tcpip_mbox, msg);
 971              		.loc 1 583 3 view .LVU246
 972 0004 0848     		ldr	r0, .L82
 973              	.LVL102:
 583:Middlewares/Third_Party/LwIP/src/api/tcpip.c ****   return sys_mbox_trypost(&tcpip_mbox, msg);
 974              		.loc 1 583 3 is_stmt 0 view .LVU247
 975 0006 FFF7FEFF 		bl	sys_mbox_valid
 976              	.LVL103:
 583:Middlewares/Third_Party/LwIP/src/api/tcpip.c ****   return sys_mbox_trypost(&tcpip_mbox, msg);
 977              		.loc 1 583 3 discriminator 1 view .LVU248
 978 000a 20B1     		cbz	r0, .L81
 979              	.L79:
 583:Middlewares/Third_Party/LwIP/src/api/tcpip.c ****   return sys_mbox_trypost(&tcpip_mbox, msg);
 980              		.loc 1 583 3 is_stmt 1 view .LVU249
 583:Middlewares/Third_Party/LwIP/src/api/tcpip.c ****   return sys_mbox_trypost(&tcpip_mbox, msg);
ARM GAS  C:\Users\hh\AppData\Local\Temp\ccJiyNKk.s 			page 34


 981              		.loc 1 583 3 view .LVU250
 584:Middlewares/Third_Party/LwIP/src/api/tcpip.c **** }
 982              		.loc 1 584 3 view .LVU251
 584:Middlewares/Third_Party/LwIP/src/api/tcpip.c **** }
 983              		.loc 1 584 10 is_stmt 0 view .LVU252
 984 000c 2146     		mov	r1, r4
 985 000e 0648     		ldr	r0, .L82
 986 0010 FFF7FEFF 		bl	sys_mbox_trypost
 987              	.LVL104:
 585:Middlewares/Third_Party/LwIP/src/api/tcpip.c **** 
 988              		.loc 1 585 1 view .LVU253
 989 0014 10BD     		pop	{r4, pc}
 990              	.LVL105:
 991              	.L81:
 583:Middlewares/Third_Party/LwIP/src/api/tcpip.c ****   return sys_mbox_trypost(&tcpip_mbox, msg);
 992              		.loc 1 583 3 is_stmt 1 discriminator 2 view .LVU254
 583:Middlewares/Third_Party/LwIP/src/api/tcpip.c ****   return sys_mbox_trypost(&tcpip_mbox, msg);
 993              		.loc 1 583 3 discriminator 2 view .LVU255
 994 0016 054B     		ldr	r3, .L82+4
 995 0018 40F24722 		movw	r2, #583
 996 001c 0449     		ldr	r1, .L82+8
 997 001e 0548     		ldr	r0, .L82+12
 998 0020 FFF7FEFF 		bl	printf
 999              	.LVL106:
 1000 0024 F2E7     		b	.L79
 1001              	.L83:
 1002 0026 00BF     		.align	2
 1003              	.L82:
 1004 0028 00000000 		.word	tcpip_mbox
 1005 002c 00000000 		.word	.LC0
 1006 0030 00000000 		.word	.LC3
 1007 0034 50000000 		.word	.LC2
 1008              		.cfi_endproc
 1009              	.LFE183:
 1011              		.section	.text.tcpip_callbackmsg_trycallback_fromisr,"ax",%progbits
 1012              		.align	1
 1013              		.global	tcpip_callbackmsg_trycallback_fromisr
 1014              		.syntax unified
 1015              		.thumb
 1016              		.thumb_func
 1018              	tcpip_callbackmsg_trycallback_fromisr:
 1019              	.LVL107:
 1020              	.LFB184:
 601:Middlewares/Third_Party/LwIP/src/api/tcpip.c ****   LWIP_ASSERT("Invalid mbox", sys_mbox_valid_val(tcpip_mbox));
 1021              		.loc 1 601 1 view -0
 1022              		.cfi_startproc
 1023              		@ args = 0, pretend = 0, frame = 0
 1024              		@ frame_needed = 0, uses_anonymous_args = 0
 601:Middlewares/Third_Party/LwIP/src/api/tcpip.c ****   LWIP_ASSERT("Invalid mbox", sys_mbox_valid_val(tcpip_mbox));
 1025              		.loc 1 601 1 is_stmt 0 view .LVU257
 1026 0000 10B5     		push	{r4, lr}
 1027              	.LCFI14:
 1028              		.cfi_def_cfa_offset 8
 1029              		.cfi_offset 4, -8
 1030              		.cfi_offset 14, -4
 1031 0002 0446     		mov	r4, r0
 602:Middlewares/Third_Party/LwIP/src/api/tcpip.c ****   return sys_mbox_trypost_fromisr(&tcpip_mbox, msg);
ARM GAS  C:\Users\hh\AppData\Local\Temp\ccJiyNKk.s 			page 35


 1032              		.loc 1 602 3 is_stmt 1 view .LVU258
 602:Middlewares/Third_Party/LwIP/src/api/tcpip.c ****   return sys_mbox_trypost_fromisr(&tcpip_mbox, msg);
 1033              		.loc 1 602 3 view .LVU259
 1034 0004 0848     		ldr	r0, .L88
 1035              	.LVL108:
 602:Middlewares/Third_Party/LwIP/src/api/tcpip.c ****   return sys_mbox_trypost_fromisr(&tcpip_mbox, msg);
 1036              		.loc 1 602 3 is_stmt 0 view .LVU260
 1037 0006 FFF7FEFF 		bl	sys_mbox_valid
 1038              	.LVL109:
 602:Middlewares/Third_Party/LwIP/src/api/tcpip.c ****   return sys_mbox_trypost_fromisr(&tcpip_mbox, msg);
 1039              		.loc 1 602 3 discriminator 1 view .LVU261
 1040 000a 20B1     		cbz	r0, .L87
 1041              	.L85:
 602:Middlewares/Third_Party/LwIP/src/api/tcpip.c ****   return sys_mbox_trypost_fromisr(&tcpip_mbox, msg);
 1042              		.loc 1 602 3 is_stmt 1 view .LVU262
 602:Middlewares/Third_Party/LwIP/src/api/tcpip.c ****   return sys_mbox_trypost_fromisr(&tcpip_mbox, msg);
 1043              		.loc 1 602 3 view .LVU263
 603:Middlewares/Third_Party/LwIP/src/api/tcpip.c **** }
 1044              		.loc 1 603 3 view .LVU264
 603:Middlewares/Third_Party/LwIP/src/api/tcpip.c **** }
 1045              		.loc 1 603 10 is_stmt 0 view .LVU265
 1046 000c 2146     		mov	r1, r4
 1047 000e 0648     		ldr	r0, .L88
 1048 0010 FFF7FEFF 		bl	sys_mbox_trypost_fromisr
 1049              	.LVL110:
 604:Middlewares/Third_Party/LwIP/src/api/tcpip.c **** 
 1050              		.loc 1 604 1 view .LVU266
 1051 0014 10BD     		pop	{r4, pc}
 1052              	.LVL111:
 1053              	.L87:
 602:Middlewares/Third_Party/LwIP/src/api/tcpip.c ****   return sys_mbox_trypost_fromisr(&tcpip_mbox, msg);
 1054              		.loc 1 602 3 is_stmt 1 discriminator 2 view .LVU267
 602:Middlewares/Third_Party/LwIP/src/api/tcpip.c ****   return sys_mbox_trypost_fromisr(&tcpip_mbox, msg);
 1055              		.loc 1 602 3 discriminator 2 view .LVU268
 1056 0016 054B     		ldr	r3, .L88+4
 1057 0018 40F25A22 		movw	r2, #602
 1058 001c 0449     		ldr	r1, .L88+8
 1059 001e 0548     		ldr	r0, .L88+12
 1060 0020 FFF7FEFF 		bl	printf
 1061              	.LVL112:
 1062 0024 F2E7     		b	.L85
 1063              	.L89:
 1064 0026 00BF     		.align	2
 1065              	.L88:
 1066 0028 00000000 		.word	tcpip_mbox
 1067 002c 00000000 		.word	.LC0
 1068 0030 00000000 		.word	.LC3
 1069 0034 50000000 		.word	.LC2
 1070              		.cfi_endproc
 1071              	.LFE184:
 1073              		.section	.text.tcpip_callback_wait,"ax",%progbits
 1074              		.align	1
 1075              		.global	tcpip_callback_wait
 1076              		.syntax unified
 1077              		.thumb
 1078              		.thumb_func
 1080              	tcpip_callback_wait:
ARM GAS  C:\Users\hh\AppData\Local\Temp\ccJiyNKk.s 			page 36


 1081              	.LVL113:
 1082              	.LFB185:
 620:Middlewares/Third_Party/LwIP/src/api/tcpip.c **** #if LWIP_TCPIP_CORE_LOCKING
 1083              		.loc 1 620 1 view -0
 1084              		.cfi_startproc
 1085              		@ args = 0, pretend = 0, frame = 0
 1086              		@ frame_needed = 0, uses_anonymous_args = 0
 620:Middlewares/Third_Party/LwIP/src/api/tcpip.c **** #if LWIP_TCPIP_CORE_LOCKING
 1087              		.loc 1 620 1 is_stmt 0 view .LVU270
 1088 0000 70B5     		push	{r4, r5, r6, lr}
 1089              	.LCFI15:
 1090              		.cfi_def_cfa_offset 16
 1091              		.cfi_offset 4, -16
 1092              		.cfi_offset 5, -12
 1093              		.cfi_offset 6, -8
 1094              		.cfi_offset 14, -4
 1095 0002 0646     		mov	r6, r0
 1096 0004 0D46     		mov	r5, r1
 622:Middlewares/Third_Party/LwIP/src/api/tcpip.c ****   function(ctx);
 1097              		.loc 1 622 3 is_stmt 1 view .LVU271
 1098 0006 054C     		ldr	r4, .L92
 1099 0008 2046     		mov	r0, r4
 1100              	.LVL114:
 622:Middlewares/Third_Party/LwIP/src/api/tcpip.c ****   function(ctx);
 1101              		.loc 1 622 3 is_stmt 0 view .LVU272
 1102 000a FFF7FEFF 		bl	sys_mutex_lock
 1103              	.LVL115:
 623:Middlewares/Third_Party/LwIP/src/api/tcpip.c ****   UNLOCK_TCPIP_CORE();
 1104              		.loc 1 623 3 is_stmt 1 view .LVU273
 1105 000e 2846     		mov	r0, r5
 1106 0010 B047     		blx	r6
 1107              	.LVL116:
 624:Middlewares/Third_Party/LwIP/src/api/tcpip.c ****   return ERR_OK;
 1108              		.loc 1 624 3 view .LVU274
 1109 0012 2046     		mov	r0, r4
 1110 0014 FFF7FEFF 		bl	sys_mutex_unlock
 1111              	.LVL117:
 625:Middlewares/Third_Party/LwIP/src/api/tcpip.c **** #else /* LWIP_TCPIP_CORE_LOCKING */
 1112              		.loc 1 625 3 view .LVU275
 647:Middlewares/Third_Party/LwIP/src/api/tcpip.c **** 
 1113              		.loc 1 647 1 is_stmt 0 view .LVU276
 1114 0018 0020     		movs	r0, #0
 1115 001a 70BD     		pop	{r4, r5, r6, pc}
 1116              	.LVL118:
 1117              	.L93:
 647:Middlewares/Third_Party/LwIP/src/api/tcpip.c **** 
 1118              		.loc 1 647 1 view .LVU277
 1119              		.align	2
 1120              	.L92:
 1121 001c 00000000 		.word	lock_tcpip_core
 1122              		.cfi_endproc
 1123              	.LFE185:
 1125              		.section	.rodata.tcpip_init.str1.4,"aMS",%progbits,1
 1126              		.align	2
 1127              	.LC4:
 1128 0000 6661696C 		.ascii	"failed to create tcpip_thread mbox\000"
 1128      65642074 
ARM GAS  C:\Users\hh\AppData\Local\Temp\ccJiyNKk.s 			page 37


 1128      6F206372 
 1128      65617465 
 1128      20746370 
 1129 0023 00       		.align	2
 1130              	.LC5:
 1131 0024 6661696C 		.ascii	"failed to create lock_tcpip_core\000"
 1131      65642074 
 1131      6F206372 
 1131      65617465 
 1131      206C6F63 
 1132 0045 000000   		.align	2
 1133              	.LC6:
 1134 0048 74637069 		.ascii	"tcpip_thread\000"
 1134      705F7468 
 1134      72656164 
 1134      00
 1135              		.section	.text.tcpip_init,"ax",%progbits
 1136              		.align	1
 1137              		.global	tcpip_init
 1138              		.syntax unified
 1139              		.thumb
 1140              		.thumb_func
 1142              	tcpip_init:
 1143              	.LVL119:
 1144              	.LFB186:
 660:Middlewares/Third_Party/LwIP/src/api/tcpip.c ****   lwip_init();
 1145              		.loc 1 660 1 is_stmt 1 view -0
 1146              		.cfi_startproc
 1147              		@ args = 0, pretend = 0, frame = 0
 1148              		@ frame_needed = 0, uses_anonymous_args = 0
 660:Middlewares/Third_Party/LwIP/src/api/tcpip.c ****   lwip_init();
 1149              		.loc 1 660 1 is_stmt 0 view .LVU279
 1150 0000 30B5     		push	{r4, r5, lr}
 1151              	.LCFI16:
 1152              		.cfi_def_cfa_offset 12
 1153              		.cfi_offset 4, -12
 1154              		.cfi_offset 5, -8
 1155              		.cfi_offset 14, -4
 1156 0002 83B0     		sub	sp, sp, #12
 1157              	.LCFI17:
 1158              		.cfi_def_cfa_offset 24
 1159 0004 0546     		mov	r5, r0
 1160 0006 0C46     		mov	r4, r1
 661:Middlewares/Third_Party/LwIP/src/api/tcpip.c **** 
 1161              		.loc 1 661 3 is_stmt 1 view .LVU280
 1162 0008 FFF7FEFF 		bl	lwip_init
 1163              	.LVL120:
 663:Middlewares/Third_Party/LwIP/src/api/tcpip.c ****   tcpip_init_done_arg = arg;
 1164              		.loc 1 663 3 view .LVU281
 663:Middlewares/Third_Party/LwIP/src/api/tcpip.c ****   tcpip_init_done_arg = arg;
 1165              		.loc 1 663 19 is_stmt 0 view .LVU282
 1166 000c 134B     		ldr	r3, .L100
 1167 000e 1D60     		str	r5, [r3]
 664:Middlewares/Third_Party/LwIP/src/api/tcpip.c ****   if (sys_mbox_new(&tcpip_mbox, TCPIP_MBOX_SIZE) != ERR_OK) {
 1168              		.loc 1 664 3 is_stmt 1 view .LVU283
 664:Middlewares/Third_Party/LwIP/src/api/tcpip.c ****   if (sys_mbox_new(&tcpip_mbox, TCPIP_MBOX_SIZE) != ERR_OK) {
 1169              		.loc 1 664 23 is_stmt 0 view .LVU284
ARM GAS  C:\Users\hh\AppData\Local\Temp\ccJiyNKk.s 			page 38


 1170 0010 134B     		ldr	r3, .L100+4
 1171 0012 1C60     		str	r4, [r3]
 665:Middlewares/Third_Party/LwIP/src/api/tcpip.c ****     LWIP_ASSERT("failed to create tcpip_thread mbox", 0);
 1172              		.loc 1 665 3 is_stmt 1 view .LVU285
 665:Middlewares/Third_Party/LwIP/src/api/tcpip.c ****     LWIP_ASSERT("failed to create tcpip_thread mbox", 0);
 1173              		.loc 1 665 7 is_stmt 0 view .LVU286
 1174 0014 0621     		movs	r1, #6
 1175 0016 1348     		ldr	r0, .L100+8
 1176 0018 FFF7FEFF 		bl	sys_mbox_new
 1177              	.LVL121:
 665:Middlewares/Third_Party/LwIP/src/api/tcpip.c ****     LWIP_ASSERT("failed to create tcpip_thread mbox", 0);
 1178              		.loc 1 665 6 discriminator 1 view .LVU287
 1179 001c 70B9     		cbnz	r0, .L98
 1180              	.L95:
 666:Middlewares/Third_Party/LwIP/src/api/tcpip.c ****   }
 1181              		.loc 1 666 5 is_stmt 1 view .LVU288
 666:Middlewares/Third_Party/LwIP/src/api/tcpip.c ****   }
 1182              		.loc 1 666 5 view .LVU289
 669:Middlewares/Third_Party/LwIP/src/api/tcpip.c ****     LWIP_ASSERT("failed to create lock_tcpip_core", 0);
 1183              		.loc 1 669 3 view .LVU290
 669:Middlewares/Third_Party/LwIP/src/api/tcpip.c ****     LWIP_ASSERT("failed to create lock_tcpip_core", 0);
 1184              		.loc 1 669 7 is_stmt 0 view .LVU291
 1185 001e 1248     		ldr	r0, .L100+12
 1186 0020 FFF7FEFF 		bl	sys_mutex_new
 1187              	.LVL122:
 669:Middlewares/Third_Party/LwIP/src/api/tcpip.c ****     LWIP_ASSERT("failed to create lock_tcpip_core", 0);
 1188              		.loc 1 669 6 discriminator 1 view .LVU292
 1189 0024 90B9     		cbnz	r0, .L99
 1190              	.L96:
 670:Middlewares/Third_Party/LwIP/src/api/tcpip.c ****   }
 1191              		.loc 1 670 5 is_stmt 1 view .LVU293
 670:Middlewares/Third_Party/LwIP/src/api/tcpip.c ****   }
 1192              		.loc 1 670 5 view .LVU294
 674:Middlewares/Third_Party/LwIP/src/api/tcpip.c **** }
 1193              		.loc 1 674 3 view .LVU295
 1194 0026 1823     		movs	r3, #24
 1195 0028 0093     		str	r3, [sp]
 1196 002a 4FF48063 		mov	r3, #1024
 1197 002e 0022     		movs	r2, #0
 1198 0030 0E49     		ldr	r1, .L100+16
 1199 0032 0F48     		ldr	r0, .L100+20
 1200 0034 FFF7FEFF 		bl	sys_thread_new
 1201              	.LVL123:
 675:Middlewares/Third_Party/LwIP/src/api/tcpip.c **** 
 1202              		.loc 1 675 1 is_stmt 0 view .LVU296
 1203 0038 03B0     		add	sp, sp, #12
 1204              	.LCFI18:
 1205              		.cfi_remember_state
 1206              		.cfi_def_cfa_offset 12
 1207              		@ sp needed
 1208 003a 30BD     		pop	{r4, r5, pc}
 1209              	.LVL124:
 1210              	.L98:
 1211              	.LCFI19:
 1212              		.cfi_restore_state
 666:Middlewares/Third_Party/LwIP/src/api/tcpip.c ****   }
 1213              		.loc 1 666 5 is_stmt 1 view .LVU297
ARM GAS  C:\Users\hh\AppData\Local\Temp\ccJiyNKk.s 			page 39


 666:Middlewares/Third_Party/LwIP/src/api/tcpip.c ****   }
 1214              		.loc 1 666 5 view .LVU298
 666:Middlewares/Third_Party/LwIP/src/api/tcpip.c ****   }
 1215              		.loc 1 666 5 discriminator 1 view .LVU299
 666:Middlewares/Third_Party/LwIP/src/api/tcpip.c ****   }
 1216              		.loc 1 666 5 discriminator 1 view .LVU300
 1217 003c 0D4B     		ldr	r3, .L100+24
 1218 003e 40F29A22 		movw	r2, #666
 1219 0042 0D49     		ldr	r1, .L100+28
 1220 0044 0D48     		ldr	r0, .L100+32
 1221 0046 FFF7FEFF 		bl	printf
 1222              	.LVL125:
 1223 004a E8E7     		b	.L95
 1224              	.L99:
 670:Middlewares/Third_Party/LwIP/src/api/tcpip.c ****   }
 1225              		.loc 1 670 5 view .LVU301
 670:Middlewares/Third_Party/LwIP/src/api/tcpip.c ****   }
 1226              		.loc 1 670 5 view .LVU302
 670:Middlewares/Third_Party/LwIP/src/api/tcpip.c ****   }
 1227              		.loc 1 670 5 discriminator 1 view .LVU303
 670:Middlewares/Third_Party/LwIP/src/api/tcpip.c ****   }
 1228              		.loc 1 670 5 discriminator 1 view .LVU304
 1229 004c 094B     		ldr	r3, .L100+24
 1230 004e 40F29E22 		movw	r2, #670
 1231 0052 0B49     		ldr	r1, .L100+36
 1232 0054 0948     		ldr	r0, .L100+32
 1233 0056 FFF7FEFF 		bl	printf
 1234              	.LVL126:
 1235 005a E4E7     		b	.L96
 1236              	.L101:
 1237              		.align	2
 1238              	.L100:
 1239 005c 00000000 		.word	tcpip_init_done
 1240 0060 00000000 		.word	tcpip_init_done_arg
 1241 0064 00000000 		.word	tcpip_mbox
 1242 0068 00000000 		.word	lock_tcpip_core
 1243 006c 00000000 		.word	tcpip_thread
 1244 0070 48000000 		.word	.LC6
 1245 0074 00000000 		.word	.LC0
 1246 0078 00000000 		.word	.LC4
 1247 007c 50000000 		.word	.LC2
 1248 0080 24000000 		.word	.LC5
 1249              		.cfi_endproc
 1250              	.LFE186:
 1252              		.section	.text.pbuf_free_callback,"ax",%progbits
 1253              		.align	1
 1254              		.global	pbuf_free_callback
 1255              		.syntax unified
 1256              		.thumb
 1257              		.thumb_func
 1259              	pbuf_free_callback:
 1260              	.LVL127:
 1261              	.LFB188:
 689:Middlewares/Third_Party/LwIP/src/api/tcpip.c **** 
 690:Middlewares/Third_Party/LwIP/src/api/tcpip.c **** /**
 691:Middlewares/Third_Party/LwIP/src/api/tcpip.c ****  * A simple wrapper function that allows you to free a pbuf from interrupt context.
 692:Middlewares/Third_Party/LwIP/src/api/tcpip.c ****  *
ARM GAS  C:\Users\hh\AppData\Local\Temp\ccJiyNKk.s 			page 40


 693:Middlewares/Third_Party/LwIP/src/api/tcpip.c ****  * @param p The pbuf (chain) to be dereferenced.
 694:Middlewares/Third_Party/LwIP/src/api/tcpip.c ****  * @return ERR_OK if callback could be enqueued, an err_t if not
 695:Middlewares/Third_Party/LwIP/src/api/tcpip.c ****  */
 696:Middlewares/Third_Party/LwIP/src/api/tcpip.c **** err_t
 697:Middlewares/Third_Party/LwIP/src/api/tcpip.c **** pbuf_free_callback(struct pbuf *p)
 698:Middlewares/Third_Party/LwIP/src/api/tcpip.c **** {
 1262              		.loc 1 698 1 view -0
 1263              		.cfi_startproc
 1264              		@ args = 0, pretend = 0, frame = 0
 1265              		@ frame_needed = 0, uses_anonymous_args = 0
 1266              		.loc 1 698 1 is_stmt 0 view .LVU306
 1267 0000 08B5     		push	{r3, lr}
 1268              	.LCFI20:
 1269              		.cfi_def_cfa_offset 8
 1270              		.cfi_offset 3, -8
 1271              		.cfi_offset 14, -4
 1272 0002 0146     		mov	r1, r0
 699:Middlewares/Third_Party/LwIP/src/api/tcpip.c ****   return tcpip_try_callback(pbuf_free_int, p);
 1273              		.loc 1 699 3 is_stmt 1 view .LVU307
 1274              		.loc 1 699 10 is_stmt 0 view .LVU308
 1275 0004 0148     		ldr	r0, .L104
 1276              	.LVL128:
 1277              		.loc 1 699 10 view .LVU309
 1278 0006 FFF7FEFF 		bl	tcpip_try_callback
 1279              	.LVL129:
 700:Middlewares/Third_Party/LwIP/src/api/tcpip.c **** }
 1280              		.loc 1 700 1 view .LVU310
 1281 000a 08BD     		pop	{r3, pc}
 1282              	.L105:
 1283              		.align	2
 1284              	.L104:
 1285 000c 00000000 		.word	pbuf_free_int
 1286              		.cfi_endproc
 1287              	.LFE188:
 1289              		.section	.text.mem_free_callback,"ax",%progbits
 1290              		.align	1
 1291              		.global	mem_free_callback
 1292              		.syntax unified
 1293              		.thumb
 1294              		.thumb_func
 1296              	mem_free_callback:
 1297              	.LVL130:
 1298              	.LFB189:
 701:Middlewares/Third_Party/LwIP/src/api/tcpip.c **** 
 702:Middlewares/Third_Party/LwIP/src/api/tcpip.c **** /**
 703:Middlewares/Third_Party/LwIP/src/api/tcpip.c ****  * A simple wrapper function that allows you to free heap memory from
 704:Middlewares/Third_Party/LwIP/src/api/tcpip.c ****  * interrupt context.
 705:Middlewares/Third_Party/LwIP/src/api/tcpip.c ****  *
 706:Middlewares/Third_Party/LwIP/src/api/tcpip.c ****  * @param m the heap memory to free
 707:Middlewares/Third_Party/LwIP/src/api/tcpip.c ****  * @return ERR_OK if callback could be enqueued, an err_t if not
 708:Middlewares/Third_Party/LwIP/src/api/tcpip.c ****  */
 709:Middlewares/Third_Party/LwIP/src/api/tcpip.c **** err_t
 710:Middlewares/Third_Party/LwIP/src/api/tcpip.c **** mem_free_callback(void *m)
 711:Middlewares/Third_Party/LwIP/src/api/tcpip.c **** {
 1299              		.loc 1 711 1 is_stmt 1 view -0
 1300              		.cfi_startproc
 1301              		@ args = 0, pretend = 0, frame = 0
ARM GAS  C:\Users\hh\AppData\Local\Temp\ccJiyNKk.s 			page 41


 1302              		@ frame_needed = 0, uses_anonymous_args = 0
 1303              		.loc 1 711 1 is_stmt 0 view .LVU312
 1304 0000 08B5     		push	{r3, lr}
 1305              	.LCFI21:
 1306              		.cfi_def_cfa_offset 8
 1307              		.cfi_offset 3, -8
 1308              		.cfi_offset 14, -4
 1309 0002 0146     		mov	r1, r0
 712:Middlewares/Third_Party/LwIP/src/api/tcpip.c ****   return tcpip_try_callback(mem_free, m);
 1310              		.loc 1 712 3 is_stmt 1 view .LVU313
 1311              		.loc 1 712 10 is_stmt 0 view .LVU314
 1312 0004 0148     		ldr	r0, .L108
 1313              	.LVL131:
 1314              		.loc 1 712 10 view .LVU315
 1315 0006 FFF7FEFF 		bl	tcpip_try_callback
 1316              	.LVL132:
 713:Middlewares/Third_Party/LwIP/src/api/tcpip.c **** }
 1317              		.loc 1 713 1 view .LVU316
 1318 000a 08BD     		pop	{r3, pc}
 1319              	.L109:
 1320              		.align	2
 1321              	.L108:
 1322 000c 00000000 		.word	mem_free
 1323              		.cfi_endproc
 1324              	.LFE189:
 1326              		.global	lock_tcpip_core
 1327              		.section	.bss.lock_tcpip_core,"aw",%nobits
 1328              		.align	2
 1331              	lock_tcpip_core:
 1332 0000 00000000 		.space	4
 1333              		.section	.bss.tcpip_mbox,"aw",%nobits
 1334              		.align	2
 1337              	tcpip_mbox:
 1338 0000 00000000 		.space	4
 1339              		.section	.bss.tcpip_init_done_arg,"aw",%nobits
 1340              		.align	2
 1343              	tcpip_init_done_arg:
 1344 0000 00000000 		.space	4
 1345              		.section	.bss.tcpip_init_done,"aw",%nobits
 1346              		.align	2
 1349              	tcpip_init_done:
 1350 0000 00000000 		.space	4
 1351              		.text
 1352              	.Letext0:
 1353              		.file 2 "C:/Program Files (x86)/ARM/arm-gnu-toolchain-15.2.rel1-mingw-w64-i686-arm-none-eabi/arm-n
 1354              		.file 3 "C:/Program Files (x86)/ARM/arm-gnu-toolchain-15.2.rel1-mingw-w64-i686-arm-none-eabi/arm-n
 1355              		.file 4 "Middlewares/Third_Party/LwIP/src/include/lwip/arch.h"
 1356              		.file 5 "Middlewares/Third_Party/LwIP/src/include/lwip/err.h"
 1357              		.file 6 "Drivers/CMSIS/RTOS2/Include/cmsis_os2.h"
 1358              		.file 7 "Middlewares/Third_Party/LwIP/system/arch/sys_arch.h"
 1359              		.file 8 "Middlewares/Third_Party/LwIP/src/include/lwip/sys.h"
 1360              		.file 9 "Middlewares/Third_Party/LwIP/src/include/lwip/ip4_addr.h"
 1361              		.file 10 "Middlewares/Third_Party/LwIP/src/include/lwip/ip_addr.h"
 1362              		.file 11 "Middlewares/Third_Party/LwIP/src/include/lwip/pbuf.h"
 1363              		.file 12 "Middlewares/Third_Party/LwIP/src/include/lwip/memp.h"
 1364              		.file 13 "Middlewares/Third_Party/LwIP/src/include/lwip/netif.h"
 1365              		.file 14 "Middlewares/Third_Party/LwIP/src/include/lwip/tcpip.h"
ARM GAS  C:\Users\hh\AppData\Local\Temp\ccJiyNKk.s 			page 42


 1366              		.file 15 "Middlewares/Third_Party/LwIP/src/include/lwip/priv/tcpip_priv.h"
 1367              		.file 16 "Middlewares/Third_Party/LwIP/src/include/lwip/timeouts.h"
 1368              		.file 17 "Middlewares/Third_Party/LwIP/src/include/lwip/init.h"
 1369              		.file 18 "Middlewares/Third_Party/LwIP/src/include/lwip/mem.h"
 1370              		.file 19 "Middlewares/Third_Party/LwIP/src/include/lwip/ip4.h"
 1371              		.file 20 "Middlewares/Third_Party/LwIP/src/include/netif/ethernet.h"
 1372              		.file 21 "C:/Program Files (x86)/ARM/arm-gnu-toolchain-15.2.rel1-mingw-w64-i686-arm-none-eabi/arm-
ARM GAS  C:\Users\hh\AppData\Local\Temp\ccJiyNKk.s 			page 43

