ARM GAS  C:\Users\hh\AppData\Local\Temp\cckgYSUv.s 			page 1


   1              		.cpu cortex-m7
   2              		.arch armv7e-m
   3              		.fpu fpv5-d16
   4              		.eabi_attribute 28, 1
   5              		.eabi_attribute 20, 1
   6              		.eabi_attribute 21, 1
   7              		.eabi_attribute 23, 3
   8              		.eabi_attribute 24, 1
   9              		.eabi_attribute 25, 1
  10              		.eabi_attribute 26, 1
  11              		.eabi_attribute 30, 1
  12              		.eabi_attribute 34, 1
  13              		.eabi_attribute 18, 4
  14              		.file	"timeouts.c"
  15              		.text
  16              	.Ltext0:
  17              		.cfi_sections	.debug_frame
  18              		.file 1 "Middlewares/Third_Party/LwIP/src/core/timeouts.c"
  19              		.section	.rodata.sys_timeout_abs.str1.4,"aMS",%progbits,1
  20              		.align	2
  21              	.LC0:
  22 0000 4D696464 		.ascii	"Middlewares/Third_Party/LwIP/src/core/timeouts.c\000"
  22      6C657761 
  22      7265732F 
  22      54686972 
  22      645F5061 
  23 0031 000000   		.align	2
  24              	.LC1:
  25 0034 7379735F 		.ascii	"sys_timeout: timeout != NULL, pool MEMP_SYS_TIMEOUT"
  25      74696D65 
  25      6F75743A 
  25      2074696D 
  25      656F7574 
  26 0067 20697320 		.ascii	" is empty\000"
  26      656D7074 
  26      7900
  27 0071 000000   		.align	2
  28              	.LC2:
  29 0074 41737365 		.ascii	"Assertion \"%s\" failed at line %d in %s\012\000"
  29      7274696F 
  29      6E202225 
  29      73222066 
  29      61696C65 
  30              		.section	.text.sys_timeout_abs,"ax",%progbits
  31              		.align	1
  32              		.syntax unified
  33              		.thumb
  34              		.thumb_func
  36              	sys_timeout_abs:
  37              	.LVL0:
  38              	.LFB174:
   1:Middlewares/Third_Party/LwIP/src/core/timeouts.c **** /**
   2:Middlewares/Third_Party/LwIP/src/core/timeouts.c ****  * @file
   3:Middlewares/Third_Party/LwIP/src/core/timeouts.c ****  * Stack-internal timers implementation.
   4:Middlewares/Third_Party/LwIP/src/core/timeouts.c ****  * This file includes timer callbacks for stack-internal timers as well as
   5:Middlewares/Third_Party/LwIP/src/core/timeouts.c ****  * functions to set up or stop timers and check for expired timers.
   6:Middlewares/Third_Party/LwIP/src/core/timeouts.c ****  *
ARM GAS  C:\Users\hh\AppData\Local\Temp\cckgYSUv.s 			page 2


   7:Middlewares/Third_Party/LwIP/src/core/timeouts.c ****  */
   8:Middlewares/Third_Party/LwIP/src/core/timeouts.c **** 
   9:Middlewares/Third_Party/LwIP/src/core/timeouts.c **** /*
  10:Middlewares/Third_Party/LwIP/src/core/timeouts.c ****  * Copyright (c) 2001-2004 Swedish Institute of Computer Science.
  11:Middlewares/Third_Party/LwIP/src/core/timeouts.c ****  * All rights reserved.
  12:Middlewares/Third_Party/LwIP/src/core/timeouts.c ****  *
  13:Middlewares/Third_Party/LwIP/src/core/timeouts.c ****  * Redistribution and use in source and binary forms, with or without modification,
  14:Middlewares/Third_Party/LwIP/src/core/timeouts.c ****  * are permitted provided that the following conditions are met:
  15:Middlewares/Third_Party/LwIP/src/core/timeouts.c ****  *
  16:Middlewares/Third_Party/LwIP/src/core/timeouts.c ****  * 1. Redistributions of source code must retain the above copyright notice,
  17:Middlewares/Third_Party/LwIP/src/core/timeouts.c ****  *    this list of conditions and the following disclaimer.
  18:Middlewares/Third_Party/LwIP/src/core/timeouts.c ****  * 2. Redistributions in binary form must reproduce the above copyright notice,
  19:Middlewares/Third_Party/LwIP/src/core/timeouts.c ****  *    this list of conditions and the following disclaimer in the documentation
  20:Middlewares/Third_Party/LwIP/src/core/timeouts.c ****  *    and/or other materials provided with the distribution.
  21:Middlewares/Third_Party/LwIP/src/core/timeouts.c ****  * 3. The name of the author may not be used to endorse or promote products
  22:Middlewares/Third_Party/LwIP/src/core/timeouts.c ****  *    derived from this software without specific prior written permission.
  23:Middlewares/Third_Party/LwIP/src/core/timeouts.c ****  *
  24:Middlewares/Third_Party/LwIP/src/core/timeouts.c ****  * THIS SOFTWARE IS PROVIDED BY THE AUTHOR ``AS IS'' AND ANY EXPRESS OR IMPLIED
  25:Middlewares/Third_Party/LwIP/src/core/timeouts.c ****  * WARRANTIES, INCLUDING, BUT NOT LIMITED TO, THE IMPLIED WARRANTIES OF
  26:Middlewares/Third_Party/LwIP/src/core/timeouts.c ****  * MERCHANTABILITY AND FITNESS FOR A PARTICULAR PURPOSE ARE DISCLAIMED. IN NO EVENT
  27:Middlewares/Third_Party/LwIP/src/core/timeouts.c ****  * SHALL THE AUTHOR BE LIABLE FOR ANY DIRECT, INDIRECT, INCIDENTAL, SPECIAL,
  28:Middlewares/Third_Party/LwIP/src/core/timeouts.c ****  * EXEMPLARY, OR CONSEQUENTIAL DAMAGES (INCLUDING, BUT NOT LIMITED TO, PROCUREMENT
  29:Middlewares/Third_Party/LwIP/src/core/timeouts.c ****  * OF SUBSTITUTE GOODS OR SERVICES; LOSS OF USE, DATA, OR PROFITS; OR BUSINESS
  30:Middlewares/Third_Party/LwIP/src/core/timeouts.c ****  * INTERRUPTION) HOWEVER CAUSED AND ON ANY THEORY OF LIABILITY, WHETHER IN
  31:Middlewares/Third_Party/LwIP/src/core/timeouts.c ****  * CONTRACT, STRICT LIABILITY, OR TORT (INCLUDING NEGLIGENCE OR OTHERWISE) ARISING
  32:Middlewares/Third_Party/LwIP/src/core/timeouts.c ****  * IN ANY WAY OUT OF THE USE OF THIS SOFTWARE, EVEN IF ADVISED OF THE POSSIBILITY
  33:Middlewares/Third_Party/LwIP/src/core/timeouts.c ****  * OF SUCH DAMAGE.
  34:Middlewares/Third_Party/LwIP/src/core/timeouts.c ****  *
  35:Middlewares/Third_Party/LwIP/src/core/timeouts.c ****  * This file is part of the lwIP TCP/IP stack.
  36:Middlewares/Third_Party/LwIP/src/core/timeouts.c ****  *
  37:Middlewares/Third_Party/LwIP/src/core/timeouts.c ****  * Author: Adam Dunkels <adam@sics.se>
  38:Middlewares/Third_Party/LwIP/src/core/timeouts.c ****  *         Simon Goldschmidt
  39:Middlewares/Third_Party/LwIP/src/core/timeouts.c ****  *
  40:Middlewares/Third_Party/LwIP/src/core/timeouts.c ****  */
  41:Middlewares/Third_Party/LwIP/src/core/timeouts.c **** 
  42:Middlewares/Third_Party/LwIP/src/core/timeouts.c **** #include "lwip/opt.h"
  43:Middlewares/Third_Party/LwIP/src/core/timeouts.c **** 
  44:Middlewares/Third_Party/LwIP/src/core/timeouts.c **** #include "lwip/timeouts.h"
  45:Middlewares/Third_Party/LwIP/src/core/timeouts.c **** #include "lwip/priv/tcp_priv.h"
  46:Middlewares/Third_Party/LwIP/src/core/timeouts.c **** 
  47:Middlewares/Third_Party/LwIP/src/core/timeouts.c **** #include "lwip/def.h"
  48:Middlewares/Third_Party/LwIP/src/core/timeouts.c **** #include "lwip/memp.h"
  49:Middlewares/Third_Party/LwIP/src/core/timeouts.c **** #include "lwip/priv/tcpip_priv.h"
  50:Middlewares/Third_Party/LwIP/src/core/timeouts.c **** 
  51:Middlewares/Third_Party/LwIP/src/core/timeouts.c **** #include "lwip/ip4_frag.h"
  52:Middlewares/Third_Party/LwIP/src/core/timeouts.c **** #include "lwip/etharp.h"
  53:Middlewares/Third_Party/LwIP/src/core/timeouts.c **** #include "lwip/dhcp.h"
  54:Middlewares/Third_Party/LwIP/src/core/timeouts.c **** #include "lwip/acd.h"
  55:Middlewares/Third_Party/LwIP/src/core/timeouts.c **** #include "lwip/igmp.h"
  56:Middlewares/Third_Party/LwIP/src/core/timeouts.c **** #include "lwip/dns.h"
  57:Middlewares/Third_Party/LwIP/src/core/timeouts.c **** #include "lwip/nd6.h"
  58:Middlewares/Third_Party/LwIP/src/core/timeouts.c **** #include "lwip/ip6_frag.h"
  59:Middlewares/Third_Party/LwIP/src/core/timeouts.c **** #include "lwip/mld6.h"
  60:Middlewares/Third_Party/LwIP/src/core/timeouts.c **** #include "lwip/dhcp6.h"
  61:Middlewares/Third_Party/LwIP/src/core/timeouts.c **** #include "lwip/sys.h"
  62:Middlewares/Third_Party/LwIP/src/core/timeouts.c **** #include "lwip/pbuf.h"
  63:Middlewares/Third_Party/LwIP/src/core/timeouts.c **** 
ARM GAS  C:\Users\hh\AppData\Local\Temp\cckgYSUv.s 			page 3


  64:Middlewares/Third_Party/LwIP/src/core/timeouts.c **** #if LWIP_DEBUG_TIMERNAMES
  65:Middlewares/Third_Party/LwIP/src/core/timeouts.c **** #define HANDLER(x) x, #x
  66:Middlewares/Third_Party/LwIP/src/core/timeouts.c **** #else /* LWIP_DEBUG_TIMERNAMES */
  67:Middlewares/Third_Party/LwIP/src/core/timeouts.c **** #define HANDLER(x) x
  68:Middlewares/Third_Party/LwIP/src/core/timeouts.c **** #endif /* LWIP_DEBUG_TIMERNAMES */
  69:Middlewares/Third_Party/LwIP/src/core/timeouts.c **** 
  70:Middlewares/Third_Party/LwIP/src/core/timeouts.c **** #define LWIP_MAX_TIMEOUT  0x7fffffff
  71:Middlewares/Third_Party/LwIP/src/core/timeouts.c **** 
  72:Middlewares/Third_Party/LwIP/src/core/timeouts.c **** /* Check if timer's expiry time is greater than time and care about u32_t wraparounds */
  73:Middlewares/Third_Party/LwIP/src/core/timeouts.c **** #define TIME_LESS_THAN(t, compare_to) ( (((u32_t)((t)-(compare_to))) > LWIP_MAX_TIMEOUT) ? 1 : 0 )
  74:Middlewares/Third_Party/LwIP/src/core/timeouts.c **** 
  75:Middlewares/Third_Party/LwIP/src/core/timeouts.c **** /** This array contains all stack-internal cyclic timers. To get the number of
  76:Middlewares/Third_Party/LwIP/src/core/timeouts.c ****  * timers, use LWIP_ARRAYSIZE() */
  77:Middlewares/Third_Party/LwIP/src/core/timeouts.c **** const struct lwip_cyclic_timer lwip_cyclic_timers[] = {
  78:Middlewares/Third_Party/LwIP/src/core/timeouts.c **** #if LWIP_TCP
  79:Middlewares/Third_Party/LwIP/src/core/timeouts.c ****   /* The TCP timer is a special case: it does not have to run always and
  80:Middlewares/Third_Party/LwIP/src/core/timeouts.c ****      is triggered to start from TCP using tcp_timer_needed() */
  81:Middlewares/Third_Party/LwIP/src/core/timeouts.c ****   {TCP_TMR_INTERVAL, HANDLER(tcp_tmr)},
  82:Middlewares/Third_Party/LwIP/src/core/timeouts.c **** #endif /* LWIP_TCP */
  83:Middlewares/Third_Party/LwIP/src/core/timeouts.c **** #if LWIP_IPV4
  84:Middlewares/Third_Party/LwIP/src/core/timeouts.c **** #if IP_REASSEMBLY
  85:Middlewares/Third_Party/LwIP/src/core/timeouts.c ****   {IP_TMR_INTERVAL, HANDLER(ip_reass_tmr)},
  86:Middlewares/Third_Party/LwIP/src/core/timeouts.c **** #endif /* IP_REASSEMBLY */
  87:Middlewares/Third_Party/LwIP/src/core/timeouts.c **** #if LWIP_ARP
  88:Middlewares/Third_Party/LwIP/src/core/timeouts.c ****   {ARP_TMR_INTERVAL, HANDLER(etharp_tmr)},
  89:Middlewares/Third_Party/LwIP/src/core/timeouts.c **** #endif /* LWIP_ARP */
  90:Middlewares/Third_Party/LwIP/src/core/timeouts.c **** #if LWIP_DHCP
  91:Middlewares/Third_Party/LwIP/src/core/timeouts.c ****   {DHCP_COARSE_TIMER_MSECS, HANDLER(dhcp_coarse_tmr)},
  92:Middlewares/Third_Party/LwIP/src/core/timeouts.c ****   {DHCP_FINE_TIMER_MSECS, HANDLER(dhcp_fine_tmr)},
  93:Middlewares/Third_Party/LwIP/src/core/timeouts.c **** #endif /* LWIP_DHCP */
  94:Middlewares/Third_Party/LwIP/src/core/timeouts.c **** #if LWIP_ACD
  95:Middlewares/Third_Party/LwIP/src/core/timeouts.c ****   {ACD_TMR_INTERVAL, HANDLER(acd_tmr)},
  96:Middlewares/Third_Party/LwIP/src/core/timeouts.c **** #endif /* LWIP_ACD */
  97:Middlewares/Third_Party/LwIP/src/core/timeouts.c **** #if LWIP_IGMP
  98:Middlewares/Third_Party/LwIP/src/core/timeouts.c ****   {IGMP_TMR_INTERVAL, HANDLER(igmp_tmr)},
  99:Middlewares/Third_Party/LwIP/src/core/timeouts.c **** #endif /* LWIP_IGMP */
 100:Middlewares/Third_Party/LwIP/src/core/timeouts.c **** #endif /* LWIP_IPV4 */
 101:Middlewares/Third_Party/LwIP/src/core/timeouts.c **** #if LWIP_DNS
 102:Middlewares/Third_Party/LwIP/src/core/timeouts.c ****   {DNS_TMR_INTERVAL, HANDLER(dns_tmr)},
 103:Middlewares/Third_Party/LwIP/src/core/timeouts.c **** #endif /* LWIP_DNS */
 104:Middlewares/Third_Party/LwIP/src/core/timeouts.c **** #if LWIP_IPV6
 105:Middlewares/Third_Party/LwIP/src/core/timeouts.c ****   {ND6_TMR_INTERVAL, HANDLER(nd6_tmr)},
 106:Middlewares/Third_Party/LwIP/src/core/timeouts.c **** #if LWIP_IPV6_REASS
 107:Middlewares/Third_Party/LwIP/src/core/timeouts.c ****   {IP6_REASS_TMR_INTERVAL, HANDLER(ip6_reass_tmr)},
 108:Middlewares/Third_Party/LwIP/src/core/timeouts.c **** #endif /* LWIP_IPV6_REASS */
 109:Middlewares/Third_Party/LwIP/src/core/timeouts.c **** #if LWIP_IPV6_MLD
 110:Middlewares/Third_Party/LwIP/src/core/timeouts.c ****   {MLD6_TMR_INTERVAL, HANDLER(mld6_tmr)},
 111:Middlewares/Third_Party/LwIP/src/core/timeouts.c **** #endif /* LWIP_IPV6_MLD */
 112:Middlewares/Third_Party/LwIP/src/core/timeouts.c **** #if LWIP_IPV6_DHCP6
 113:Middlewares/Third_Party/LwIP/src/core/timeouts.c ****   {DHCP6_TIMER_MSECS, HANDLER(dhcp6_tmr)},
 114:Middlewares/Third_Party/LwIP/src/core/timeouts.c **** #endif /* LWIP_IPV6_DHCP6 */
 115:Middlewares/Third_Party/LwIP/src/core/timeouts.c **** #endif /* LWIP_IPV6 */
 116:Middlewares/Third_Party/LwIP/src/core/timeouts.c **** };
 117:Middlewares/Third_Party/LwIP/src/core/timeouts.c **** const int lwip_num_cyclic_timers = LWIP_ARRAYSIZE(lwip_cyclic_timers);
 118:Middlewares/Third_Party/LwIP/src/core/timeouts.c **** 
 119:Middlewares/Third_Party/LwIP/src/core/timeouts.c **** #if LWIP_TIMERS && !LWIP_TIMERS_CUSTOM
 120:Middlewares/Third_Party/LwIP/src/core/timeouts.c **** 
ARM GAS  C:\Users\hh\AppData\Local\Temp\cckgYSUv.s 			page 4


 121:Middlewares/Third_Party/LwIP/src/core/timeouts.c **** /** The one and only timeout list */
 122:Middlewares/Third_Party/LwIP/src/core/timeouts.c **** static struct sys_timeo *next_timeout;
 123:Middlewares/Third_Party/LwIP/src/core/timeouts.c **** 
 124:Middlewares/Third_Party/LwIP/src/core/timeouts.c **** static u32_t current_timeout_due_time;
 125:Middlewares/Third_Party/LwIP/src/core/timeouts.c **** 
 126:Middlewares/Third_Party/LwIP/src/core/timeouts.c **** #if LWIP_TESTMODE
 127:Middlewares/Third_Party/LwIP/src/core/timeouts.c **** struct sys_timeo**
 128:Middlewares/Third_Party/LwIP/src/core/timeouts.c **** sys_timeouts_get_next_timeout(void)
 129:Middlewares/Third_Party/LwIP/src/core/timeouts.c **** {
 130:Middlewares/Third_Party/LwIP/src/core/timeouts.c ****   return &next_timeout;
 131:Middlewares/Third_Party/LwIP/src/core/timeouts.c **** }
 132:Middlewares/Third_Party/LwIP/src/core/timeouts.c **** #endif
 133:Middlewares/Third_Party/LwIP/src/core/timeouts.c **** 
 134:Middlewares/Third_Party/LwIP/src/core/timeouts.c **** #if LWIP_TCP
 135:Middlewares/Third_Party/LwIP/src/core/timeouts.c **** /** global variable that shows if the tcp timer is currently scheduled or not */
 136:Middlewares/Third_Party/LwIP/src/core/timeouts.c **** static int tcpip_tcp_timer_active;
 137:Middlewares/Third_Party/LwIP/src/core/timeouts.c **** 
 138:Middlewares/Third_Party/LwIP/src/core/timeouts.c **** /**
 139:Middlewares/Third_Party/LwIP/src/core/timeouts.c ****  * Timer callback function that calls tcp_tmr() and reschedules itself.
 140:Middlewares/Third_Party/LwIP/src/core/timeouts.c ****  *
 141:Middlewares/Third_Party/LwIP/src/core/timeouts.c ****  * @param arg unused argument
 142:Middlewares/Third_Party/LwIP/src/core/timeouts.c ****  */
 143:Middlewares/Third_Party/LwIP/src/core/timeouts.c **** static void
 144:Middlewares/Third_Party/LwIP/src/core/timeouts.c **** tcpip_tcp_timer(void *arg)
 145:Middlewares/Third_Party/LwIP/src/core/timeouts.c **** {
 146:Middlewares/Third_Party/LwIP/src/core/timeouts.c ****   LWIP_UNUSED_ARG(arg);
 147:Middlewares/Third_Party/LwIP/src/core/timeouts.c **** 
 148:Middlewares/Third_Party/LwIP/src/core/timeouts.c ****   /* call TCP timer handler */
 149:Middlewares/Third_Party/LwIP/src/core/timeouts.c ****   tcp_tmr();
 150:Middlewares/Third_Party/LwIP/src/core/timeouts.c ****   /* timer still needed? */
 151:Middlewares/Third_Party/LwIP/src/core/timeouts.c ****   if (tcp_active_pcbs || tcp_tw_pcbs) {
 152:Middlewares/Third_Party/LwIP/src/core/timeouts.c ****     /* restart timer */
 153:Middlewares/Third_Party/LwIP/src/core/timeouts.c ****     sys_timeout(TCP_TMR_INTERVAL, tcpip_tcp_timer, NULL);
 154:Middlewares/Third_Party/LwIP/src/core/timeouts.c ****   } else {
 155:Middlewares/Third_Party/LwIP/src/core/timeouts.c ****     /* disable timer */
 156:Middlewares/Third_Party/LwIP/src/core/timeouts.c ****     tcpip_tcp_timer_active = 0;
 157:Middlewares/Third_Party/LwIP/src/core/timeouts.c ****   }
 158:Middlewares/Third_Party/LwIP/src/core/timeouts.c **** }
 159:Middlewares/Third_Party/LwIP/src/core/timeouts.c **** 
 160:Middlewares/Third_Party/LwIP/src/core/timeouts.c **** /**
 161:Middlewares/Third_Party/LwIP/src/core/timeouts.c ****  * Called from TCP_REG when registering a new PCB:
 162:Middlewares/Third_Party/LwIP/src/core/timeouts.c ****  * the reason is to have the TCP timer only running when
 163:Middlewares/Third_Party/LwIP/src/core/timeouts.c ****  * there are active (or time-wait) PCBs.
 164:Middlewares/Third_Party/LwIP/src/core/timeouts.c ****  */
 165:Middlewares/Third_Party/LwIP/src/core/timeouts.c **** void
 166:Middlewares/Third_Party/LwIP/src/core/timeouts.c **** tcp_timer_needed(void)
 167:Middlewares/Third_Party/LwIP/src/core/timeouts.c **** {
 168:Middlewares/Third_Party/LwIP/src/core/timeouts.c ****   LWIP_ASSERT_CORE_LOCKED();
 169:Middlewares/Third_Party/LwIP/src/core/timeouts.c **** 
 170:Middlewares/Third_Party/LwIP/src/core/timeouts.c ****   /* timer is off but needed again? */
 171:Middlewares/Third_Party/LwIP/src/core/timeouts.c ****   if (!tcpip_tcp_timer_active && (tcp_active_pcbs || tcp_tw_pcbs)) {
 172:Middlewares/Third_Party/LwIP/src/core/timeouts.c ****     /* enable and start timer */
 173:Middlewares/Third_Party/LwIP/src/core/timeouts.c ****     tcpip_tcp_timer_active = 1;
 174:Middlewares/Third_Party/LwIP/src/core/timeouts.c ****     sys_timeout(TCP_TMR_INTERVAL, tcpip_tcp_timer, NULL);
 175:Middlewares/Third_Party/LwIP/src/core/timeouts.c ****   }
 176:Middlewares/Third_Party/LwIP/src/core/timeouts.c **** }
 177:Middlewares/Third_Party/LwIP/src/core/timeouts.c **** #endif /* LWIP_TCP */
ARM GAS  C:\Users\hh\AppData\Local\Temp\cckgYSUv.s 			page 5


 178:Middlewares/Third_Party/LwIP/src/core/timeouts.c **** 
 179:Middlewares/Third_Party/LwIP/src/core/timeouts.c **** static void
 180:Middlewares/Third_Party/LwIP/src/core/timeouts.c **** #if LWIP_DEBUG_TIMERNAMES
 181:Middlewares/Third_Party/LwIP/src/core/timeouts.c **** sys_timeout_abs(u32_t abs_time, sys_timeout_handler handler, void *arg, const char *handler_name)
 182:Middlewares/Third_Party/LwIP/src/core/timeouts.c **** #else /* LWIP_DEBUG_TIMERNAMES */
 183:Middlewares/Third_Party/LwIP/src/core/timeouts.c **** sys_timeout_abs(u32_t abs_time, sys_timeout_handler handler, void *arg)
 184:Middlewares/Third_Party/LwIP/src/core/timeouts.c **** #endif
 185:Middlewares/Third_Party/LwIP/src/core/timeouts.c **** {
  39              		.loc 1 185 1 view -0
  40              		.cfi_startproc
  41              		@ args = 0, pretend = 0, frame = 0
  42              		@ frame_needed = 0, uses_anonymous_args = 0
  43              		.loc 1 185 1 is_stmt 0 view .LVU1
  44 0000 70B5     		push	{r4, r5, r6, lr}
  45              	.LCFI0:
  46              		.cfi_def_cfa_offset 16
  47              		.cfi_offset 4, -16
  48              		.cfi_offset 5, -12
  49              		.cfi_offset 6, -8
  50              		.cfi_offset 14, -4
  51 0002 0446     		mov	r4, r0
  52 0004 0D46     		mov	r5, r1
  53 0006 1646     		mov	r6, r2
 186:Middlewares/Third_Party/LwIP/src/core/timeouts.c ****   struct sys_timeo *timeout, *t;
  54              		.loc 1 186 3 is_stmt 1 view .LVU2
 187:Middlewares/Third_Party/LwIP/src/core/timeouts.c **** 
 188:Middlewares/Third_Party/LwIP/src/core/timeouts.c ****   timeout = (struct sys_timeo *)memp_malloc(MEMP_SYS_TIMEOUT);
  55              		.loc 1 188 3 view .LVU3
  56              		.loc 1 188 33 is_stmt 0 view .LVU4
  57 0008 0920     		movs	r0, #9
  58              	.LVL1:
  59              		.loc 1 188 33 view .LVU5
  60 000a FFF7FEFF 		bl	memp_malloc
  61              	.LVL2:
 189:Middlewares/Third_Party/LwIP/src/core/timeouts.c ****   if (timeout == NULL) {
  62              		.loc 1 189 3 is_stmt 1 view .LVU6
  63              		.loc 1 189 6 is_stmt 0 view .LVU7
  64 000e 80B1     		cbz	r0, .L10
  65 0010 8446     		mov	ip, r0
 190:Middlewares/Third_Party/LwIP/src/core/timeouts.c ****     LWIP_ASSERT("sys_timeout: timeout != NULL, pool MEMP_SYS_TIMEOUT is empty", timeout != NULL);
 191:Middlewares/Third_Party/LwIP/src/core/timeouts.c ****     return;
 192:Middlewares/Third_Party/LwIP/src/core/timeouts.c ****   }
 193:Middlewares/Third_Party/LwIP/src/core/timeouts.c **** 
 194:Middlewares/Third_Party/LwIP/src/core/timeouts.c ****   timeout->next = NULL;
  66              		.loc 1 194 3 is_stmt 1 view .LVU8
  67              		.loc 1 194 17 is_stmt 0 view .LVU9
  68 0012 0023     		movs	r3, #0
  69 0014 0360     		str	r3, [r0]
 195:Middlewares/Third_Party/LwIP/src/core/timeouts.c ****   timeout->h = handler;
  70              		.loc 1 195 3 is_stmt 1 view .LVU10
  71              		.loc 1 195 14 is_stmt 0 view .LVU11
  72 0016 8560     		str	r5, [r0, #8]
 196:Middlewares/Third_Party/LwIP/src/core/timeouts.c ****   timeout->arg = arg;
  73              		.loc 1 196 3 is_stmt 1 view .LVU12
  74              		.loc 1 196 16 is_stmt 0 view .LVU13
  75 0018 C660     		str	r6, [r0, #12]
 197:Middlewares/Third_Party/LwIP/src/core/timeouts.c ****   timeout->time = abs_time;
ARM GAS  C:\Users\hh\AppData\Local\Temp\cckgYSUv.s 			page 6


  76              		.loc 1 197 3 is_stmt 1 view .LVU14
  77              		.loc 1 197 17 is_stmt 0 view .LVU15
  78 001a 4460     		str	r4, [r0, #4]
 198:Middlewares/Third_Party/LwIP/src/core/timeouts.c **** 
 199:Middlewares/Third_Party/LwIP/src/core/timeouts.c **** #if LWIP_DEBUG_TIMERNAMES
 200:Middlewares/Third_Party/LwIP/src/core/timeouts.c ****   timeout->handler_name = handler_name;
 201:Middlewares/Third_Party/LwIP/src/core/timeouts.c ****   LWIP_DEBUGF(TIMERS_DEBUG, ("sys_timeout: %p abs_time=%"U32_F" handler=%s arg=%p\n",
 202:Middlewares/Third_Party/LwIP/src/core/timeouts.c ****                              (void *)timeout, abs_time, handler_name, (void *)arg));
 203:Middlewares/Third_Party/LwIP/src/core/timeouts.c **** #endif /* LWIP_DEBUG_TIMERNAMES */
 204:Middlewares/Third_Party/LwIP/src/core/timeouts.c **** 
 205:Middlewares/Third_Party/LwIP/src/core/timeouts.c ****   if (next_timeout == NULL) {
  79              		.loc 1 205 3 is_stmt 1 view .LVU16
  80              		.loc 1 205 20 is_stmt 0 view .LVU17
  81 001c 114B     		ldr	r3, .L12
  82 001e 1A68     		ldr	r2, [r3]
  83              		.loc 1 205 6 view .LVU18
  84 0020 72B1     		cbz	r2, .L11
 206:Middlewares/Third_Party/LwIP/src/core/timeouts.c ****     next_timeout = timeout;
 207:Middlewares/Third_Party/LwIP/src/core/timeouts.c ****     return;
 208:Middlewares/Third_Party/LwIP/src/core/timeouts.c ****   }
 209:Middlewares/Third_Party/LwIP/src/core/timeouts.c ****   if (TIME_LESS_THAN(timeout->time, next_timeout->time)) {
  85              		.loc 1 209 3 is_stmt 1 view .LVU19
  86              		.loc 1 209 7 is_stmt 0 view .LVU20
  87 0022 5368     		ldr	r3, [r2, #4]
  88 0024 E31A     		subs	r3, r4, r3
  89              		.loc 1 209 6 view .LVU21
  90 0026 002B     		cmp	r3, #0
  91 0028 11DA     		bge	.L5
 210:Middlewares/Third_Party/LwIP/src/core/timeouts.c ****     timeout->next = next_timeout;
  92              		.loc 1 210 5 is_stmt 1 view .LVU22
  93              		.loc 1 210 19 is_stmt 0 view .LVU23
  94 002a 0260     		str	r2, [r0]
 211:Middlewares/Third_Party/LwIP/src/core/timeouts.c ****     next_timeout = timeout;
  95              		.loc 1 211 5 is_stmt 1 view .LVU24
  96              		.loc 1 211 18 is_stmt 0 view .LVU25
  97 002c 0D4B     		ldr	r3, .L12
  98 002e 1860     		str	r0, [r3]
  99              	.LVL3:
 100              	.L1:
 212:Middlewares/Third_Party/LwIP/src/core/timeouts.c ****   } else {
 213:Middlewares/Third_Party/LwIP/src/core/timeouts.c ****     for (t = next_timeout; t != NULL; t = t->next) {
 214:Middlewares/Third_Party/LwIP/src/core/timeouts.c ****       if ((t->next == NULL) || TIME_LESS_THAN(timeout->time, t->next->time)) {
 215:Middlewares/Third_Party/LwIP/src/core/timeouts.c ****         timeout->next = t->next;
 216:Middlewares/Third_Party/LwIP/src/core/timeouts.c ****         t->next = timeout;
 217:Middlewares/Third_Party/LwIP/src/core/timeouts.c ****         break;
 218:Middlewares/Third_Party/LwIP/src/core/timeouts.c ****       }
 219:Middlewares/Third_Party/LwIP/src/core/timeouts.c ****     }
 220:Middlewares/Third_Party/LwIP/src/core/timeouts.c ****   }
 221:Middlewares/Third_Party/LwIP/src/core/timeouts.c **** }
 101              		.loc 1 221 1 view .LVU26
 102 0030 70BD     		pop	{r4, r5, r6, pc}
 103              	.LVL4:
 104              	.L10:
 190:Middlewares/Third_Party/LwIP/src/core/timeouts.c ****     return;
 105              		.loc 1 190 5 is_stmt 1 view .LVU27
 190:Middlewares/Third_Party/LwIP/src/core/timeouts.c ****     return;
 106              		.loc 1 190 5 view .LVU28
ARM GAS  C:\Users\hh\AppData\Local\Temp\cckgYSUv.s 			page 7


 190:Middlewares/Third_Party/LwIP/src/core/timeouts.c ****     return;
 107              		.loc 1 190 5 discriminator 1 view .LVU29
 190:Middlewares/Third_Party/LwIP/src/core/timeouts.c ****     return;
 108              		.loc 1 190 5 discriminator 1 view .LVU30
 109 0032 0D4B     		ldr	r3, .L12+4
 110 0034 BE22     		movs	r2, #190
 111 0036 0D49     		ldr	r1, .L12+8
 112 0038 0D48     		ldr	r0, .L12+12
 113              	.LVL5:
 190:Middlewares/Third_Party/LwIP/src/core/timeouts.c ****     return;
 114              		.loc 1 190 5 is_stmt 0 discriminator 1 view .LVU31
 115 003a FFF7FEFF 		bl	printf
 116              	.LVL6:
 190:Middlewares/Third_Party/LwIP/src/core/timeouts.c ****     return;
 117              		.loc 1 190 5 is_stmt 1 view .LVU32
 190:Middlewares/Third_Party/LwIP/src/core/timeouts.c ****     return;
 118              		.loc 1 190 5 view .LVU33
 191:Middlewares/Third_Party/LwIP/src/core/timeouts.c ****   }
 119              		.loc 1 191 5 view .LVU34
 120 003e F7E7     		b	.L1
 121              	.LVL7:
 122              	.L11:
 206:Middlewares/Third_Party/LwIP/src/core/timeouts.c ****     return;
 123              		.loc 1 206 5 view .LVU35
 206:Middlewares/Third_Party/LwIP/src/core/timeouts.c ****     return;
 124              		.loc 1 206 18 is_stmt 0 view .LVU36
 125 0040 1860     		str	r0, [r3]
 207:Middlewares/Third_Party/LwIP/src/core/timeouts.c ****   }
 126              		.loc 1 207 5 is_stmt 1 view .LVU37
 127 0042 F5E7     		b	.L1
 128              	.LVL8:
 129              	.L6:
 215:Middlewares/Third_Party/LwIP/src/core/timeouts.c ****         t->next = timeout;
 130              		.loc 1 215 9 view .LVU38
 215:Middlewares/Third_Party/LwIP/src/core/timeouts.c ****         t->next = timeout;
 131              		.loc 1 215 23 is_stmt 0 view .LVU39
 132 0044 CCF80030 		str	r3, [ip]
 216:Middlewares/Third_Party/LwIP/src/core/timeouts.c ****         break;
 133              		.loc 1 216 9 is_stmt 1 view .LVU40
 216:Middlewares/Third_Party/LwIP/src/core/timeouts.c ****         break;
 134              		.loc 1 216 17 is_stmt 0 view .LVU41
 135 0048 C2F800C0 		str	ip, [r2]
 217:Middlewares/Third_Party/LwIP/src/core/timeouts.c ****       }
 136              		.loc 1 217 9 is_stmt 1 view .LVU42
 137 004c F0E7     		b	.L1
 138              	.LVL9:
 139              	.L5:
 213:Middlewares/Third_Party/LwIP/src/core/timeouts.c ****       if ((t->next == NULL) || TIME_LESS_THAN(timeout->time, t->next->time)) {
 140              		.loc 1 213 30 discriminator 1 view .LVU43
 141 004e 002A     		cmp	r2, #0
 142 0050 EED0     		beq	.L1
 214:Middlewares/Third_Party/LwIP/src/core/timeouts.c ****         timeout->next = t->next;
 143              		.loc 1 214 7 view .LVU44
 214:Middlewares/Third_Party/LwIP/src/core/timeouts.c ****         timeout->next = t->next;
 144              		.loc 1 214 13 is_stmt 0 view .LVU45
 145 0052 1368     		ldr	r3, [r2]
 214:Middlewares/Third_Party/LwIP/src/core/timeouts.c ****         timeout->next = t->next;
ARM GAS  C:\Users\hh\AppData\Local\Temp\cckgYSUv.s 			page 8


 146              		.loc 1 214 10 view .LVU46
 147 0054 002B     		cmp	r3, #0
 148 0056 F5D0     		beq	.L6
 214:Middlewares/Third_Party/LwIP/src/core/timeouts.c ****         timeout->next = t->next;
 149              		.loc 1 214 32 discriminator 1 view .LVU47
 150 0058 5968     		ldr	r1, [r3, #4]
 151 005a 611A     		subs	r1, r4, r1
 214:Middlewares/Third_Party/LwIP/src/core/timeouts.c ****         timeout->next = t->next;
 152              		.loc 1 214 29 discriminator 1 view .LVU48
 153 005c 0029     		cmp	r1, #0
 154 005e F1DB     		blt	.L6
 213:Middlewares/Third_Party/LwIP/src/core/timeouts.c ****       if ((t->next == NULL) || TIME_LESS_THAN(timeout->time, t->next->time)) {
 155              		.loc 1 213 41 discriminator 2 view .LVU49
 156 0060 1A46     		mov	r2, r3
 157              	.LVL10:
 213:Middlewares/Third_Party/LwIP/src/core/timeouts.c ****       if ((t->next == NULL) || TIME_LESS_THAN(timeout->time, t->next->time)) {
 158              		.loc 1 213 41 discriminator 2 view .LVU50
 159 0062 F4E7     		b	.L5
 160              	.L13:
 161              		.align	2
 162              	.L12:
 163 0064 00000000 		.word	next_timeout
 164 0068 00000000 		.word	.LC0
 165 006c 34000000 		.word	.LC1
 166 0070 74000000 		.word	.LC2
 167              		.cfi_endproc
 168              	.LFE174:
 170              		.section	.text.lwip_cyclic_timer,"ax",%progbits
 171              		.align	1
 172              		.syntax unified
 173              		.thumb
 174              		.thumb_func
 176              	lwip_cyclic_timer:
 177              	.LVL11:
 178              	.LFB175:
 222:Middlewares/Third_Party/LwIP/src/core/timeouts.c **** 
 223:Middlewares/Third_Party/LwIP/src/core/timeouts.c **** /**
 224:Middlewares/Third_Party/LwIP/src/core/timeouts.c ****  * Timer callback function that calls cyclic->handler() and reschedules itself.
 225:Middlewares/Third_Party/LwIP/src/core/timeouts.c ****  *
 226:Middlewares/Third_Party/LwIP/src/core/timeouts.c ****  * @param arg unused argument
 227:Middlewares/Third_Party/LwIP/src/core/timeouts.c ****  */
 228:Middlewares/Third_Party/LwIP/src/core/timeouts.c **** #if !LWIP_TESTMODE
 229:Middlewares/Third_Party/LwIP/src/core/timeouts.c **** static
 230:Middlewares/Third_Party/LwIP/src/core/timeouts.c **** #endif
 231:Middlewares/Third_Party/LwIP/src/core/timeouts.c **** void
 232:Middlewares/Third_Party/LwIP/src/core/timeouts.c **** lwip_cyclic_timer(void *arg)
 233:Middlewares/Third_Party/LwIP/src/core/timeouts.c **** {
 179              		.loc 1 233 1 is_stmt 1 view -0
 180              		.cfi_startproc
 181              		@ args = 0, pretend = 0, frame = 0
 182              		@ frame_needed = 0, uses_anonymous_args = 0
 183              		.loc 1 233 1 is_stmt 0 view .LVU52
 184 0000 10B5     		push	{r4, lr}
 185              	.LCFI1:
 186              		.cfi_def_cfa_offset 8
 187              		.cfi_offset 4, -8
 188              		.cfi_offset 14, -4
ARM GAS  C:\Users\hh\AppData\Local\Temp\cckgYSUv.s 			page 9


 189 0002 0446     		mov	r4, r0
 234:Middlewares/Third_Party/LwIP/src/core/timeouts.c ****   u32_t now;
 190              		.loc 1 234 3 is_stmt 1 view .LVU53
 235:Middlewares/Third_Party/LwIP/src/core/timeouts.c ****   u32_t next_timeout_time;
 191              		.loc 1 235 3 view .LVU54
 236:Middlewares/Third_Party/LwIP/src/core/timeouts.c ****   const struct lwip_cyclic_timer *cyclic = (const struct lwip_cyclic_timer *)arg;
 192              		.loc 1 236 3 view .LVU55
 193              	.LVL12:
 237:Middlewares/Third_Party/LwIP/src/core/timeouts.c **** 
 238:Middlewares/Third_Party/LwIP/src/core/timeouts.c **** #if LWIP_DEBUG_TIMERNAMES
 239:Middlewares/Third_Party/LwIP/src/core/timeouts.c ****   LWIP_DEBUGF(TIMERS_DEBUG, ("tcpip: %s()\n", cyclic->handler_name));
 240:Middlewares/Third_Party/LwIP/src/core/timeouts.c **** #endif
 241:Middlewares/Third_Party/LwIP/src/core/timeouts.c ****   cyclic->handler();
 194              		.loc 1 241 3 view .LVU56
 195              		.loc 1 241 9 is_stmt 0 view .LVU57
 196 0004 4368     		ldr	r3, [r0, #4]
 197              		.loc 1 241 3 view .LVU58
 198 0006 9847     		blx	r3
 199              	.LVL13:
 242:Middlewares/Third_Party/LwIP/src/core/timeouts.c **** 
 243:Middlewares/Third_Party/LwIP/src/core/timeouts.c ****   now = sys_now();
 200              		.loc 1 243 3 is_stmt 1 view .LVU59
 201              		.loc 1 243 9 is_stmt 0 view .LVU60
 202 0008 FFF7FEFF 		bl	sys_now
 203              	.LVL14:
 204 000c 8446     		mov	ip, r0
 205              	.LVL15:
 244:Middlewares/Third_Party/LwIP/src/core/timeouts.c ****   next_timeout_time = (u32_t)(current_timeout_due_time + cyclic->interval_ms);  /* overflow handled
 206              		.loc 1 244 3 is_stmt 1 view .LVU61
 207              		.loc 1 244 64 is_stmt 0 view .LVU62
 208 000e D4F800E0 		ldr	lr, [r4]
 209              		.loc 1 244 56 view .LVU63
 210 0012 094B     		ldr	r3, .L18
 211 0014 1868     		ldr	r0, [r3]
 212              	.LVL16:
 213              		.loc 1 244 21 view .LVU64
 214 0016 7044     		add	r0, r0, lr
 215              	.LVL17:
 245:Middlewares/Third_Party/LwIP/src/core/timeouts.c ****   if (TIME_LESS_THAN(next_timeout_time, now)) {
 216              		.loc 1 245 3 is_stmt 1 view .LVU65
 217              		.loc 1 245 7 is_stmt 0 view .LVU66
 218 0018 A0EB0C03 		sub	r3, r0, ip
 219              		.loc 1 245 6 view .LVU67
 220 001c 002B     		cmp	r3, #0
 221 001e 06DA     		bge	.L15
 246:Middlewares/Third_Party/LwIP/src/core/timeouts.c ****     /* timer would immediately expire again -> "overload" -> restart without any correction */
 247:Middlewares/Third_Party/LwIP/src/core/timeouts.c **** #if LWIP_DEBUG_TIMERNAMES
 248:Middlewares/Third_Party/LwIP/src/core/timeouts.c ****     sys_timeout_abs((u32_t)(now + cyclic->interval_ms), lwip_cyclic_timer, arg, cyclic->handler_nam
 249:Middlewares/Third_Party/LwIP/src/core/timeouts.c **** #else
 250:Middlewares/Third_Party/LwIP/src/core/timeouts.c ****     sys_timeout_abs((u32_t)(now + cyclic->interval_ms), lwip_cyclic_timer, arg);
 222              		.loc 1 250 5 is_stmt 1 view .LVU68
 223 0020 2246     		mov	r2, r4
 224 0022 0649     		ldr	r1, .L18+4
 225 0024 0EEB0C00 		add	r0, lr, ip
 226              	.LVL18:
 227              		.loc 1 250 5 is_stmt 0 view .LVU69
 228 0028 FFF7FEFF 		bl	sys_timeout_abs
ARM GAS  C:\Users\hh\AppData\Local\Temp\cckgYSUv.s 			page 10


 229              	.LVL19:
 230              	.L14:
 251:Middlewares/Third_Party/LwIP/src/core/timeouts.c **** #endif
 252:Middlewares/Third_Party/LwIP/src/core/timeouts.c **** 
 253:Middlewares/Third_Party/LwIP/src/core/timeouts.c ****   } else {
 254:Middlewares/Third_Party/LwIP/src/core/timeouts.c ****     /* correct cyclic interval with handler execution delay and sys_check_timeouts jitter */
 255:Middlewares/Third_Party/LwIP/src/core/timeouts.c **** #if LWIP_DEBUG_TIMERNAMES
 256:Middlewares/Third_Party/LwIP/src/core/timeouts.c ****     sys_timeout_abs(next_timeout_time, lwip_cyclic_timer, arg, cyclic->handler_name);
 257:Middlewares/Third_Party/LwIP/src/core/timeouts.c **** #else
 258:Middlewares/Third_Party/LwIP/src/core/timeouts.c ****     sys_timeout_abs(next_timeout_time, lwip_cyclic_timer, arg);
 259:Middlewares/Third_Party/LwIP/src/core/timeouts.c **** #endif
 260:Middlewares/Third_Party/LwIP/src/core/timeouts.c ****   }
 261:Middlewares/Third_Party/LwIP/src/core/timeouts.c **** }
 231              		.loc 1 261 1 view .LVU70
 232 002c 10BD     		pop	{r4, pc}
 233              	.LVL20:
 234              	.L15:
 258:Middlewares/Third_Party/LwIP/src/core/timeouts.c **** #endif
 235              		.loc 1 258 5 is_stmt 1 view .LVU71
 236 002e 2246     		mov	r2, r4
 237 0030 0249     		ldr	r1, .L18+4
 238 0032 FFF7FEFF 		bl	sys_timeout_abs
 239              	.LVL21:
 240              		.loc 1 261 1 is_stmt 0 view .LVU72
 241 0036 F9E7     		b	.L14
 242              	.L19:
 243              		.align	2
 244              	.L18:
 245 0038 00000000 		.word	current_timeout_due_time
 246 003c 00000000 		.word	lwip_cyclic_timer
 247              		.cfi_endproc
 248              	.LFE175:
 250              		.section	.rodata.sys_timeout.str1.4,"aMS",%progbits,1
 251              		.align	2
 252              	.LC3:
 253 0000 54696D65 		.ascii	"Timeout time too long, max is LWIP_UINT32_MAX/4 mse"
 253      6F757420 
 253      74696D65 
 253      20746F6F 
 253      206C6F6E 
 254 0033 637300   		.ascii	"cs\000"
 255              		.section	.text.sys_timeout,"ax",%progbits
 256              		.align	1
 257              		.global	sys_timeout
 258              		.syntax unified
 259              		.thumb
 260              		.thumb_func
 262              	sys_timeout:
 263              	.LVL22:
 264              	.LFB177:
 262:Middlewares/Third_Party/LwIP/src/core/timeouts.c **** 
 263:Middlewares/Third_Party/LwIP/src/core/timeouts.c **** /** Initialize this module */
 264:Middlewares/Third_Party/LwIP/src/core/timeouts.c **** void sys_timeouts_init(void)
 265:Middlewares/Third_Party/LwIP/src/core/timeouts.c **** {
 266:Middlewares/Third_Party/LwIP/src/core/timeouts.c ****   size_t i;
 267:Middlewares/Third_Party/LwIP/src/core/timeouts.c ****   /* tcp_tmr() at index 0 is started on demand */
 268:Middlewares/Third_Party/LwIP/src/core/timeouts.c ****   for (i = (LWIP_TCP ? 1 : 0); i < LWIP_ARRAYSIZE(lwip_cyclic_timers); i++) {
ARM GAS  C:\Users\hh\AppData\Local\Temp\cckgYSUv.s 			page 11


 269:Middlewares/Third_Party/LwIP/src/core/timeouts.c ****     /* we have to cast via size_t to get rid of const warning
 270:Middlewares/Third_Party/LwIP/src/core/timeouts.c ****       (this is OK as cyclic_timer() casts back to const* */
 271:Middlewares/Third_Party/LwIP/src/core/timeouts.c ****     sys_timeout(lwip_cyclic_timers[i].interval_ms, lwip_cyclic_timer, LWIP_CONST_CAST(void *, &lwip
 272:Middlewares/Third_Party/LwIP/src/core/timeouts.c ****   }
 273:Middlewares/Third_Party/LwIP/src/core/timeouts.c **** }
 274:Middlewares/Third_Party/LwIP/src/core/timeouts.c **** 
 275:Middlewares/Third_Party/LwIP/src/core/timeouts.c **** /**
 276:Middlewares/Third_Party/LwIP/src/core/timeouts.c ****  * Create a one-shot timer (aka timeout). Timeouts are processed in the
 277:Middlewares/Third_Party/LwIP/src/core/timeouts.c ****  * following cases:
 278:Middlewares/Third_Party/LwIP/src/core/timeouts.c ****  * - while waiting for a message using sys_timeouts_mbox_fetch()
 279:Middlewares/Third_Party/LwIP/src/core/timeouts.c ****  * - by calling sys_check_timeouts() (NO_SYS==1 only)
 280:Middlewares/Third_Party/LwIP/src/core/timeouts.c ****  *
 281:Middlewares/Third_Party/LwIP/src/core/timeouts.c ****  * @param msecs time in milliseconds after that the timer should expire
 282:Middlewares/Third_Party/LwIP/src/core/timeouts.c ****  * @param handler callback function to call when msecs have elapsed
 283:Middlewares/Third_Party/LwIP/src/core/timeouts.c ****  * @param arg argument to pass to the callback function
 284:Middlewares/Third_Party/LwIP/src/core/timeouts.c ****  */
 285:Middlewares/Third_Party/LwIP/src/core/timeouts.c **** #if LWIP_DEBUG_TIMERNAMES
 286:Middlewares/Third_Party/LwIP/src/core/timeouts.c **** void
 287:Middlewares/Third_Party/LwIP/src/core/timeouts.c **** sys_timeout_debug(u32_t msecs, sys_timeout_handler handler, void *arg, const char *handler_name)
 288:Middlewares/Third_Party/LwIP/src/core/timeouts.c **** #else /* LWIP_DEBUG_TIMERNAMES */
 289:Middlewares/Third_Party/LwIP/src/core/timeouts.c **** void
 290:Middlewares/Third_Party/LwIP/src/core/timeouts.c **** sys_timeout(u32_t msecs, sys_timeout_handler handler, void *arg)
 291:Middlewares/Third_Party/LwIP/src/core/timeouts.c **** #endif /* LWIP_DEBUG_TIMERNAMES */
 292:Middlewares/Third_Party/LwIP/src/core/timeouts.c **** {
 265              		.loc 1 292 1 is_stmt 1 view -0
 266              		.cfi_startproc
 267              		@ args = 0, pretend = 0, frame = 0
 268              		@ frame_needed = 0, uses_anonymous_args = 0
 269              		.loc 1 292 1 is_stmt 0 view .LVU74
 270 0000 70B5     		push	{r4, r5, r6, lr}
 271              	.LCFI2:
 272              		.cfi_def_cfa_offset 16
 273              		.cfi_offset 4, -16
 274              		.cfi_offset 5, -12
 275              		.cfi_offset 6, -8
 276              		.cfi_offset 14, -4
 277 0002 0446     		mov	r4, r0
 278 0004 0D46     		mov	r5, r1
 279 0006 1646     		mov	r6, r2
 293:Middlewares/Third_Party/LwIP/src/core/timeouts.c ****   u32_t next_timeout_time;
 280              		.loc 1 293 3 is_stmt 1 view .LVU75
 294:Middlewares/Third_Party/LwIP/src/core/timeouts.c **** 
 295:Middlewares/Third_Party/LwIP/src/core/timeouts.c ****   LWIP_ASSERT_CORE_LOCKED();
 281              		.loc 1 295 28 view .LVU76
 296:Middlewares/Third_Party/LwIP/src/core/timeouts.c **** 
 297:Middlewares/Third_Party/LwIP/src/core/timeouts.c ****   LWIP_ASSERT("Timeout time too long, max is LWIP_UINT32_MAX/4 msecs", msecs <= (LWIP_UINT32_MAX / 
 282              		.loc 1 297 3 view .LVU77
 283              		.loc 1 297 3 view .LVU78
 284 0008 B0F1804F 		cmp	r0, #1073741824
 285 000c 07D2     		bcs	.L23
 286              	.LVL23:
 287              	.L21:
 288              		.loc 1 297 3 view .LVU79
 289              		.loc 1 297 3 view .LVU80
 298:Middlewares/Third_Party/LwIP/src/core/timeouts.c **** 
 299:Middlewares/Third_Party/LwIP/src/core/timeouts.c ****   next_timeout_time = (u32_t)(sys_now() + msecs); /* overflow handled by TIME_LESS_THAN macro */
 290              		.loc 1 299 3 view .LVU81
ARM GAS  C:\Users\hh\AppData\Local\Temp\cckgYSUv.s 			page 12


 291              		.loc 1 299 31 is_stmt 0 view .LVU82
 292 000e FFF7FEFF 		bl	sys_now
 293              	.LVL24:
 300:Middlewares/Third_Party/LwIP/src/core/timeouts.c **** 
 301:Middlewares/Third_Party/LwIP/src/core/timeouts.c **** #if LWIP_DEBUG_TIMERNAMES
 302:Middlewares/Third_Party/LwIP/src/core/timeouts.c ****   sys_timeout_abs(next_timeout_time, handler, arg, handler_name);
 303:Middlewares/Third_Party/LwIP/src/core/timeouts.c **** #else
 304:Middlewares/Third_Party/LwIP/src/core/timeouts.c ****   sys_timeout_abs(next_timeout_time, handler, arg);
 294              		.loc 1 304 3 is_stmt 1 view .LVU83
 295 0012 3246     		mov	r2, r6
 296 0014 2946     		mov	r1, r5
 297 0016 2044     		add	r0, r0, r4
 298              	.LVL25:
 299              		.loc 1 304 3 is_stmt 0 view .LVU84
 300 0018 FFF7FEFF 		bl	sys_timeout_abs
 301              	.LVL26:
 305:Middlewares/Third_Party/LwIP/src/core/timeouts.c **** #endif
 306:Middlewares/Third_Party/LwIP/src/core/timeouts.c **** }
 302              		.loc 1 306 1 view .LVU85
 303 001c 70BD     		pop	{r4, r5, r6, pc}
 304              	.LVL27:
 305              	.L23:
 297:Middlewares/Third_Party/LwIP/src/core/timeouts.c **** 
 306              		.loc 1 297 3 is_stmt 1 discriminator 1 view .LVU86
 297:Middlewares/Third_Party/LwIP/src/core/timeouts.c **** 
 307              		.loc 1 297 3 discriminator 1 view .LVU87
 308 001e 044B     		ldr	r3, .L24
 309 0020 40F22912 		movw	r2, #297
 310              	.LVL28:
 297:Middlewares/Third_Party/LwIP/src/core/timeouts.c **** 
 311              		.loc 1 297 3 is_stmt 0 discriminator 1 view .LVU88
 312 0024 0349     		ldr	r1, .L24+4
 313              	.LVL29:
 297:Middlewares/Third_Party/LwIP/src/core/timeouts.c **** 
 314              		.loc 1 297 3 discriminator 1 view .LVU89
 315 0026 0448     		ldr	r0, .L24+8
 316              	.LVL30:
 297:Middlewares/Third_Party/LwIP/src/core/timeouts.c **** 
 317              		.loc 1 297 3 discriminator 1 view .LVU90
 318 0028 FFF7FEFF 		bl	printf
 319              	.LVL31:
 320 002c EFE7     		b	.L21
 321              	.L25:
 322 002e 00BF     		.align	2
 323              	.L24:
 324 0030 00000000 		.word	.LC0
 325 0034 00000000 		.word	.LC3
 326 0038 74000000 		.word	.LC2
 327              		.cfi_endproc
 328              	.LFE177:
 330              		.section	.text.tcp_timer_needed,"ax",%progbits
 331              		.align	1
 332              		.global	tcp_timer_needed
 333              		.syntax unified
 334              		.thumb
 335              		.thumb_func
 337              	tcp_timer_needed:
ARM GAS  C:\Users\hh\AppData\Local\Temp\cckgYSUv.s 			page 13


 338              	.LFB173:
 167:Middlewares/Third_Party/LwIP/src/core/timeouts.c ****   LWIP_ASSERT_CORE_LOCKED();
 339              		.loc 1 167 1 is_stmt 1 view -0
 340              		.cfi_startproc
 341              		@ args = 0, pretend = 0, frame = 0
 342              		@ frame_needed = 0, uses_anonymous_args = 0
 343 0000 08B5     		push	{r3, lr}
 344              	.LCFI3:
 345              		.cfi_def_cfa_offset 8
 346              		.cfi_offset 3, -8
 347              		.cfi_offset 14, -4
 168:Middlewares/Third_Party/LwIP/src/core/timeouts.c **** 
 348              		.loc 1 168 28 view .LVU92
 171:Middlewares/Third_Party/LwIP/src/core/timeouts.c ****     /* enable and start timer */
 349              		.loc 1 171 3 view .LVU93
 171:Middlewares/Third_Party/LwIP/src/core/timeouts.c ****     /* enable and start timer */
 350              		.loc 1 171 7 is_stmt 0 view .LVU94
 351 0002 0A4B     		ldr	r3, .L31
 352 0004 1B68     		ldr	r3, [r3]
 171:Middlewares/Third_Party/LwIP/src/core/timeouts.c ****     /* enable and start timer */
 353              		.loc 1 171 6 view .LVU95
 354 0006 53B9     		cbnz	r3, .L26
 171:Middlewares/Third_Party/LwIP/src/core/timeouts.c ****     /* enable and start timer */
 355              		.loc 1 171 35 discriminator 1 view .LVU96
 356 0008 094B     		ldr	r3, .L31+4
 357 000a 1B68     		ldr	r3, [r3]
 171:Middlewares/Third_Party/LwIP/src/core/timeouts.c ****     /* enable and start timer */
 358              		.loc 1 171 31 discriminator 1 view .LVU97
 359 000c 43B1     		cbz	r3, .L30
 360              	.L28:
 173:Middlewares/Third_Party/LwIP/src/core/timeouts.c ****     sys_timeout(TCP_TMR_INTERVAL, tcpip_tcp_timer, NULL);
 361              		.loc 1 173 5 is_stmt 1 view .LVU98
 173:Middlewares/Third_Party/LwIP/src/core/timeouts.c ****     sys_timeout(TCP_TMR_INTERVAL, tcpip_tcp_timer, NULL);
 362              		.loc 1 173 28 is_stmt 0 view .LVU99
 363 000e 074B     		ldr	r3, .L31
 364 0010 0122     		movs	r2, #1
 365 0012 1A60     		str	r2, [r3]
 174:Middlewares/Third_Party/LwIP/src/core/timeouts.c ****   }
 366              		.loc 1 174 5 is_stmt 1 view .LVU100
 367 0014 0022     		movs	r2, #0
 368 0016 0749     		ldr	r1, .L31+8
 369 0018 FA20     		movs	r0, #250
 370 001a FFF7FEFF 		bl	sys_timeout
 371              	.LVL32:
 372              	.L26:
 176:Middlewares/Third_Party/LwIP/src/core/timeouts.c **** #endif /* LWIP_TCP */
 373              		.loc 1 176 1 is_stmt 0 view .LVU101
 374 001e 08BD     		pop	{r3, pc}
 375              	.L30:
 171:Middlewares/Third_Party/LwIP/src/core/timeouts.c ****     /* enable and start timer */
 376              		.loc 1 171 51 discriminator 2 view .LVU102
 377 0020 054B     		ldr	r3, .L31+12
 378 0022 1B68     		ldr	r3, [r3]
 379 0024 002B     		cmp	r3, #0
 380 0026 F2D1     		bne	.L28
 381 0028 F9E7     		b	.L26
 382              	.L32:
ARM GAS  C:\Users\hh\AppData\Local\Temp\cckgYSUv.s 			page 14


 383 002a 00BF     		.align	2
 384              	.L31:
 385 002c 00000000 		.word	tcpip_tcp_timer_active
 386 0030 00000000 		.word	tcp_active_pcbs
 387 0034 00000000 		.word	tcpip_tcp_timer
 388 0038 00000000 		.word	tcp_tw_pcbs
 389              		.cfi_endproc
 390              	.LFE173:
 392              		.section	.text.tcpip_tcp_timer,"ax",%progbits
 393              		.align	1
 394              		.syntax unified
 395              		.thumb
 396              		.thumb_func
 398              	tcpip_tcp_timer:
 399              	.LVL33:
 400              	.LFB172:
 145:Middlewares/Third_Party/LwIP/src/core/timeouts.c ****   LWIP_UNUSED_ARG(arg);
 401              		.loc 1 145 1 is_stmt 1 view -0
 402              		.cfi_startproc
 403              		@ args = 0, pretend = 0, frame = 0
 404              		@ frame_needed = 0, uses_anonymous_args = 0
 145:Middlewares/Third_Party/LwIP/src/core/timeouts.c ****   LWIP_UNUSED_ARG(arg);
 405              		.loc 1 145 1 is_stmt 0 view .LVU104
 406 0000 08B5     		push	{r3, lr}
 407              	.LCFI4:
 408              		.cfi_def_cfa_offset 8
 409              		.cfi_offset 3, -8
 410              		.cfi_offset 14, -4
 146:Middlewares/Third_Party/LwIP/src/core/timeouts.c **** 
 411              		.loc 1 146 3 is_stmt 1 view .LVU105
 149:Middlewares/Third_Party/LwIP/src/core/timeouts.c ****   /* timer still needed? */
 412              		.loc 1 149 3 view .LVU106
 413 0002 FFF7FEFF 		bl	tcp_tmr
 414              	.LVL34:
 151:Middlewares/Third_Party/LwIP/src/core/timeouts.c ****     /* restart timer */
 415              		.loc 1 151 3 view .LVU107
 151:Middlewares/Third_Party/LwIP/src/core/timeouts.c ****     /* restart timer */
 416              		.loc 1 151 7 is_stmt 0 view .LVU108
 417 0006 084B     		ldr	r3, .L39
 418 0008 1B68     		ldr	r3, [r3]
 151:Middlewares/Third_Party/LwIP/src/core/timeouts.c ****     /* restart timer */
 419              		.loc 1 151 6 view .LVU109
 420 000a 2BB1     		cbz	r3, .L38
 421              	.L34:
 153:Middlewares/Third_Party/LwIP/src/core/timeouts.c ****   } else {
 422              		.loc 1 153 5 is_stmt 1 view .LVU110
 423 000c 0022     		movs	r2, #0
 424 000e 0749     		ldr	r1, .L39+4
 425 0010 FA20     		movs	r0, #250
 426 0012 FFF7FEFF 		bl	sys_timeout
 427              	.LVL35:
 428              	.L33:
 158:Middlewares/Third_Party/LwIP/src/core/timeouts.c **** 
 429              		.loc 1 158 1 is_stmt 0 view .LVU111
 430 0016 08BD     		pop	{r3, pc}
 431              	.L38:
 151:Middlewares/Third_Party/LwIP/src/core/timeouts.c ****     /* restart timer */
ARM GAS  C:\Users\hh\AppData\Local\Temp\cckgYSUv.s 			page 15


 432              		.loc 1 151 23 discriminator 1 view .LVU112
 433 0018 054B     		ldr	r3, .L39+8
 434 001a 1B68     		ldr	r3, [r3]
 435 001c 002B     		cmp	r3, #0
 436 001e F5D1     		bne	.L34
 156:Middlewares/Third_Party/LwIP/src/core/timeouts.c ****   }
 437              		.loc 1 156 5 is_stmt 1 view .LVU113
 156:Middlewares/Third_Party/LwIP/src/core/timeouts.c ****   }
 438              		.loc 1 156 28 is_stmt 0 view .LVU114
 439 0020 044B     		ldr	r3, .L39+12
 440 0022 0022     		movs	r2, #0
 441 0024 1A60     		str	r2, [r3]
 158:Middlewares/Third_Party/LwIP/src/core/timeouts.c **** 
 442              		.loc 1 158 1 view .LVU115
 443 0026 F6E7     		b	.L33
 444              	.L40:
 445              		.align	2
 446              	.L39:
 447 0028 00000000 		.word	tcp_active_pcbs
 448 002c 00000000 		.word	tcpip_tcp_timer
 449 0030 00000000 		.word	tcp_tw_pcbs
 450 0034 00000000 		.word	tcpip_tcp_timer_active
 451              		.cfi_endproc
 452              	.LFE172:
 454              		.section	.text.sys_timeouts_init,"ax",%progbits
 455              		.align	1
 456              		.global	sys_timeouts_init
 457              		.syntax unified
 458              		.thumb
 459              		.thumb_func
 461              	sys_timeouts_init:
 462              	.LFB176:
 265:Middlewares/Third_Party/LwIP/src/core/timeouts.c ****   size_t i;
 463              		.loc 1 265 1 is_stmt 1 view -0
 464              		.cfi_startproc
 465              		@ args = 0, pretend = 0, frame = 0
 466              		@ frame_needed = 0, uses_anonymous_args = 0
 467 0000 10B5     		push	{r4, lr}
 468              	.LCFI5:
 469              		.cfi_def_cfa_offset 8
 470              		.cfi_offset 4, -8
 471              		.cfi_offset 14, -4
 266:Middlewares/Third_Party/LwIP/src/core/timeouts.c ****   /* tcp_tmr() at index 0 is started on demand */
 472              		.loc 1 266 3 view .LVU117
 268:Middlewares/Third_Party/LwIP/src/core/timeouts.c ****     /* we have to cast via size_t to get rid of const warning
 473              		.loc 1 268 3 view .LVU118
 474              	.LVL36:
 268:Middlewares/Third_Party/LwIP/src/core/timeouts.c ****     /* we have to cast via size_t to get rid of const warning
 475              		.loc 1 268 10 is_stmt 0 view .LVU119
 476 0002 0124     		movs	r4, #1
 268:Middlewares/Third_Party/LwIP/src/core/timeouts.c ****     /* we have to cast via size_t to get rid of const warning
 477              		.loc 1 268 3 view .LVU120
 478 0004 08E0     		b	.L42
 479              	.LVL37:
 480              	.L43:
 271:Middlewares/Third_Party/LwIP/src/core/timeouts.c ****   }
 481              		.loc 1 271 5 is_stmt 1 view .LVU121
ARM GAS  C:\Users\hh\AppData\Local\Temp\cckgYSUv.s 			page 16


 271:Middlewares/Third_Party/LwIP/src/core/timeouts.c ****   }
 482              		.loc 1 271 38 is_stmt 0 view .LVU122
 483 0006 064B     		ldr	r3, .L45
 271:Middlewares/Third_Party/LwIP/src/core/timeouts.c ****   }
 484              		.loc 1 271 5 view .LVU123
 485 0008 03EBC402 		add	r2, r3, r4, lsl #3
 486 000c 0549     		ldr	r1, .L45+4
 487 000e 53F83400 		ldr	r0, [r3, r4, lsl #3]
 488 0012 FFF7FEFF 		bl	sys_timeout
 489              	.LVL38:
 268:Middlewares/Third_Party/LwIP/src/core/timeouts.c ****     /* we have to cast via size_t to get rid of const warning
 490              		.loc 1 268 73 is_stmt 1 discriminator 3 view .LVU124
 491 0016 0134     		adds	r4, r4, #1
 492              	.LVL39:
 493              	.L42:
 268:Middlewares/Third_Party/LwIP/src/core/timeouts.c ****     /* we have to cast via size_t to get rid of const warning
 494              		.loc 1 268 34 discriminator 1 view .LVU125
 495 0018 022C     		cmp	r4, #2
 496 001a F4D9     		bls	.L43
 273:Middlewares/Third_Party/LwIP/src/core/timeouts.c **** 
 497              		.loc 1 273 1 is_stmt 0 view .LVU126
 498 001c 10BD     		pop	{r4, pc}
 499              	.LVL40:
 500              	.L46:
 273:Middlewares/Third_Party/LwIP/src/core/timeouts.c **** 
 501              		.loc 1 273 1 view .LVU127
 502 001e 00BF     		.align	2
 503              	.L45:
 504 0020 00000000 		.word	lwip_cyclic_timers
 505 0024 00000000 		.word	lwip_cyclic_timer
 506              		.cfi_endproc
 507              	.LFE176:
 509              		.section	.text.sys_untimeout,"ax",%progbits
 510              		.align	1
 511              		.global	sys_untimeout
 512              		.syntax unified
 513              		.thumb
 514              		.thumb_func
 516              	sys_untimeout:
 517              	.LVL41:
 518              	.LFB178:
 307:Middlewares/Third_Party/LwIP/src/core/timeouts.c **** 
 308:Middlewares/Third_Party/LwIP/src/core/timeouts.c **** /**
 309:Middlewares/Third_Party/LwIP/src/core/timeouts.c ****  * Go through timeout list (for this task only) and remove the first matching
 310:Middlewares/Third_Party/LwIP/src/core/timeouts.c ****  * entry (subsequent entries remain untouched), even though the timeout has not
 311:Middlewares/Third_Party/LwIP/src/core/timeouts.c ****  * triggered yet.
 312:Middlewares/Third_Party/LwIP/src/core/timeouts.c ****  *
 313:Middlewares/Third_Party/LwIP/src/core/timeouts.c ****  * @param handler callback function that would be called by the timeout
 314:Middlewares/Third_Party/LwIP/src/core/timeouts.c ****  * @param arg callback argument that would be passed to handler
 315:Middlewares/Third_Party/LwIP/src/core/timeouts.c **** */
 316:Middlewares/Third_Party/LwIP/src/core/timeouts.c **** void
 317:Middlewares/Third_Party/LwIP/src/core/timeouts.c **** sys_untimeout(sys_timeout_handler handler, void *arg)
 318:Middlewares/Third_Party/LwIP/src/core/timeouts.c **** {
 519              		.loc 1 318 1 is_stmt 1 view -0
 520              		.cfi_startproc
 521              		@ args = 0, pretend = 0, frame = 0
 522              		@ frame_needed = 0, uses_anonymous_args = 0
ARM GAS  C:\Users\hh\AppData\Local\Temp\cckgYSUv.s 			page 17


 319:Middlewares/Third_Party/LwIP/src/core/timeouts.c ****   struct sys_timeo *prev_t, *t;
 523              		.loc 1 319 3 view .LVU129
 320:Middlewares/Third_Party/LwIP/src/core/timeouts.c **** 
 321:Middlewares/Third_Party/LwIP/src/core/timeouts.c ****   LWIP_ASSERT_CORE_LOCKED();
 524              		.loc 1 321 28 view .LVU130
 322:Middlewares/Third_Party/LwIP/src/core/timeouts.c **** 
 323:Middlewares/Third_Party/LwIP/src/core/timeouts.c ****   if (next_timeout == NULL) {
 525              		.loc 1 323 3 view .LVU131
 526              		.loc 1 323 20 is_stmt 0 view .LVU132
 527 0000 0F4B     		ldr	r3, .L61
 528 0002 1B68     		ldr	r3, [r3]
 529              		.loc 1 323 6 view .LVU133
 530 0004 D3B1     		cbz	r3, .L55
 324:Middlewares/Third_Party/LwIP/src/core/timeouts.c ****     return;
 325:Middlewares/Third_Party/LwIP/src/core/timeouts.c ****   }
 326:Middlewares/Third_Party/LwIP/src/core/timeouts.c **** 
 327:Middlewares/Third_Party/LwIP/src/core/timeouts.c ****   for (t = next_timeout, prev_t = NULL; t != NULL; prev_t = t, t = t->next) {
 531              		.loc 1 327 33 view .LVU134
 532 0006 0022     		movs	r2, #0
 533              	.LVL42:
 534              		.loc 1 327 43 is_stmt 1 discriminator 1 view .LVU135
 535 0008 BBB1     		cbz	r3, .L59
 318:Middlewares/Third_Party/LwIP/src/core/timeouts.c ****   struct sys_timeo *prev_t, *t;
 536              		.loc 1 318 1 is_stmt 0 view .LVU136
 537 000a 10B5     		push	{r4, lr}
 538              	.LCFI6:
 539              		.cfi_def_cfa_offset 8
 540              		.cfi_offset 4, -8
 541              		.cfi_offset 14, -4
 542 000c 06E0     		b	.L53
 543              	.L60:
 328:Middlewares/Third_Party/LwIP/src/core/timeouts.c ****     if ((t->h == handler) && (t->arg == arg)) {
 329:Middlewares/Third_Party/LwIP/src/core/timeouts.c ****       /* We have a match */
 330:Middlewares/Third_Party/LwIP/src/core/timeouts.c ****       /* Unlink from previous in list */
 331:Middlewares/Third_Party/LwIP/src/core/timeouts.c ****       if (prev_t == NULL) {
 332:Middlewares/Third_Party/LwIP/src/core/timeouts.c ****         next_timeout = t->next;
 544              		.loc 1 332 9 is_stmt 1 view .LVU137
 545              		.loc 1 332 25 is_stmt 0 view .LVU138
 546 000e 1968     		ldr	r1, [r3]
 547              	.LVL43:
 548              		.loc 1 332 22 view .LVU139
 549 0010 0B4A     		ldr	r2, .L61
 550              	.LVL44:
 551              		.loc 1 332 22 view .LVU140
 552 0012 1160     		str	r1, [r2]
 553 0014 0CE0     		b	.L52
 554              	.LVL45:
 555              	.L50:
 327:Middlewares/Third_Party/LwIP/src/core/timeouts.c ****     if ((t->h == handler) && (t->arg == arg)) {
 556              		.loc 1 327 62 is_stmt 1 discriminator 2 view .LVU141
 327:Middlewares/Third_Party/LwIP/src/core/timeouts.c ****     if ((t->h == handler) && (t->arg == arg)) {
 557              		.loc 1 327 59 is_stmt 0 discriminator 2 view .LVU142
 558 0016 1A46     		mov	r2, r3
 327:Middlewares/Third_Party/LwIP/src/core/timeouts.c ****     if ((t->h == handler) && (t->arg == arg)) {
 559              		.loc 1 327 66 discriminator 2 view .LVU143
 560 0018 1B68     		ldr	r3, [r3]
 561              	.LVL46:
ARM GAS  C:\Users\hh\AppData\Local\Temp\cckgYSUv.s 			page 18


 327:Middlewares/Third_Party/LwIP/src/core/timeouts.c ****     if ((t->h == handler) && (t->arg == arg)) {
 562              		.loc 1 327 43 is_stmt 1 discriminator 1 view .LVU144
 563 001a 6BB1     		cbz	r3, .L47
 564              	.L53:
 328:Middlewares/Third_Party/LwIP/src/core/timeouts.c ****     if ((t->h == handler) && (t->arg == arg)) {
 565              		.loc 1 328 5 view .LVU145
 328:Middlewares/Third_Party/LwIP/src/core/timeouts.c ****     if ((t->h == handler) && (t->arg == arg)) {
 566              		.loc 1 328 8 is_stmt 0 view .LVU146
 567 001c 9C68     		ldr	r4, [r3, #8]
 568 001e 8442     		cmp	r4, r0
 569 0020 F9D1     		bne	.L50
 328:Middlewares/Third_Party/LwIP/src/core/timeouts.c ****     if ((t->h == handler) && (t->arg == arg)) {
 570              		.loc 1 328 27 discriminator 1 view .LVU147
 571 0022 DC68     		ldr	r4, [r3, #12]
 572 0024 8C42     		cmp	r4, r1
 573 0026 F6D1     		bne	.L50
 331:Middlewares/Third_Party/LwIP/src/core/timeouts.c ****         next_timeout = t->next;
 574              		.loc 1 331 7 is_stmt 1 view .LVU148
 331:Middlewares/Third_Party/LwIP/src/core/timeouts.c ****         next_timeout = t->next;
 575              		.loc 1 331 10 is_stmt 0 view .LVU149
 576 0028 002A     		cmp	r2, #0
 577 002a F0D0     		beq	.L60
 333:Middlewares/Third_Party/LwIP/src/core/timeouts.c ****       } else {
 334:Middlewares/Third_Party/LwIP/src/core/timeouts.c ****         prev_t->next = t->next;
 578              		.loc 1 334 9 is_stmt 1 view .LVU150
 579              		.loc 1 334 25 is_stmt 0 view .LVU151
 580 002c 1968     		ldr	r1, [r3]
 581              	.LVL47:
 582              		.loc 1 334 22 view .LVU152
 583 002e 1160     		str	r1, [r2]
 584              	.LVL48:
 585              	.L52:
 335:Middlewares/Third_Party/LwIP/src/core/timeouts.c ****       }
 336:Middlewares/Third_Party/LwIP/src/core/timeouts.c ****       memp_free(MEMP_SYS_TIMEOUT, t);
 586              		.loc 1 336 7 is_stmt 1 view .LVU153
 587 0030 1946     		mov	r1, r3
 588 0032 0920     		movs	r0, #9
 589              	.LVL49:
 590              		.loc 1 336 7 is_stmt 0 view .LVU154
 591 0034 FFF7FEFF 		bl	memp_free
 592              	.LVL50:
 337:Middlewares/Third_Party/LwIP/src/core/timeouts.c ****       return;
 593              		.loc 1 337 7 is_stmt 1 view .LVU155
 594              	.L47:
 338:Middlewares/Third_Party/LwIP/src/core/timeouts.c ****     }
 339:Middlewares/Third_Party/LwIP/src/core/timeouts.c ****   }
 340:Middlewares/Third_Party/LwIP/src/core/timeouts.c ****   return;
 341:Middlewares/Third_Party/LwIP/src/core/timeouts.c **** }
 595              		.loc 1 341 1 is_stmt 0 view .LVU156
 596 0038 10BD     		pop	{r4, pc}
 597              	.LVL51:
 598              	.L59:
 599              	.LCFI7:
 600              		.cfi_def_cfa_offset 0
 601              		.cfi_restore 4
 602              		.cfi_restore 14
 603              		.loc 1 341 1 view .LVU157
ARM GAS  C:\Users\hh\AppData\Local\Temp\cckgYSUv.s 			page 19


 604 003a 7047     		bx	lr
 605              	.LVL52:
 606              	.L55:
 607              		.loc 1 341 1 view .LVU158
 608 003c 7047     		bx	lr
 609              	.L62:
 610 003e 00BF     		.align	2
 611              	.L61:
 612 0040 00000000 		.word	next_timeout
 613              		.cfi_endproc
 614              	.LFE178:
 616              		.section	.text.sys_check_timeouts,"ax",%progbits
 617              		.align	1
 618              		.global	sys_check_timeouts
 619              		.syntax unified
 620              		.thumb
 621              		.thumb_func
 623              	sys_check_timeouts:
 624              	.LFB179:
 342:Middlewares/Third_Party/LwIP/src/core/timeouts.c **** 
 343:Middlewares/Third_Party/LwIP/src/core/timeouts.c **** /**
 344:Middlewares/Third_Party/LwIP/src/core/timeouts.c ****  * @ingroup lwip_nosys
 345:Middlewares/Third_Party/LwIP/src/core/timeouts.c ****  * Handle timeouts for NO_SYS==1 (i.e. without using
 346:Middlewares/Third_Party/LwIP/src/core/timeouts.c ****  * tcpip_thread/sys_timeouts_mbox_fetch(). Uses sys_now() to call timeout
 347:Middlewares/Third_Party/LwIP/src/core/timeouts.c ****  * handler functions when timeouts expire.
 348:Middlewares/Third_Party/LwIP/src/core/timeouts.c ****  *
 349:Middlewares/Third_Party/LwIP/src/core/timeouts.c ****  * Must be called periodically from your main loop.
 350:Middlewares/Third_Party/LwIP/src/core/timeouts.c ****  */
 351:Middlewares/Third_Party/LwIP/src/core/timeouts.c **** void
 352:Middlewares/Third_Party/LwIP/src/core/timeouts.c **** sys_check_timeouts(void)
 353:Middlewares/Third_Party/LwIP/src/core/timeouts.c **** {
 625              		.loc 1 353 1 is_stmt 1 view -0
 626              		.cfi_startproc
 627              		@ args = 0, pretend = 0, frame = 0
 628              		@ frame_needed = 0, uses_anonymous_args = 0
 629 0000 70B5     		push	{r4, r5, r6, lr}
 630              	.LCFI8:
 631              		.cfi_def_cfa_offset 16
 632              		.cfi_offset 4, -16
 633              		.cfi_offset 5, -12
 634              		.cfi_offset 6, -8
 635              		.cfi_offset 14, -4
 354:Middlewares/Third_Party/LwIP/src/core/timeouts.c ****   u32_t now;
 636              		.loc 1 354 3 view .LVU160
 355:Middlewares/Third_Party/LwIP/src/core/timeouts.c **** 
 356:Middlewares/Third_Party/LwIP/src/core/timeouts.c ****   LWIP_ASSERT_CORE_LOCKED();
 637              		.loc 1 356 28 view .LVU161
 357:Middlewares/Third_Party/LwIP/src/core/timeouts.c **** 
 358:Middlewares/Third_Party/LwIP/src/core/timeouts.c ****   /* Process only timers expired at the start of the function. */
 359:Middlewares/Third_Party/LwIP/src/core/timeouts.c ****   now = sys_now();
 638              		.loc 1 359 3 view .LVU162
 639              		.loc 1 359 9 is_stmt 0 view .LVU163
 640 0002 FFF7FEFF 		bl	sys_now
 641              	.LVL53:
 642 0006 0546     		mov	r5, r0
 643              	.LVL54:
 644              	.L65:
ARM GAS  C:\Users\hh\AppData\Local\Temp\cckgYSUv.s 			page 20


 360:Middlewares/Third_Party/LwIP/src/core/timeouts.c **** 
 361:Middlewares/Third_Party/LwIP/src/core/timeouts.c ****   do {
 645              		.loc 1 361 3 is_stmt 1 view .LVU164
 646              	.LBB2:
 362:Middlewares/Third_Party/LwIP/src/core/timeouts.c ****     struct sys_timeo *tmptimeout;
 647              		.loc 1 362 5 view .LVU165
 363:Middlewares/Third_Party/LwIP/src/core/timeouts.c ****     sys_timeout_handler handler;
 648              		.loc 1 363 5 view .LVU166
 364:Middlewares/Third_Party/LwIP/src/core/timeouts.c ****     void *arg;
 649              		.loc 1 364 5 view .LVU167
 365:Middlewares/Third_Party/LwIP/src/core/timeouts.c **** 
 366:Middlewares/Third_Party/LwIP/src/core/timeouts.c ****     PBUF_CHECK_FREE_OOSEQ();
 650              		.loc 1 366 28 view .LVU168
 367:Middlewares/Third_Party/LwIP/src/core/timeouts.c **** 
 368:Middlewares/Third_Party/LwIP/src/core/timeouts.c ****     tmptimeout = next_timeout;
 651              		.loc 1 368 5 view .LVU169
 652              		.loc 1 368 16 is_stmt 0 view .LVU170
 653 0008 0B4B     		ldr	r3, .L68
 654 000a 1968     		ldr	r1, [r3]
 655              	.LVL55:
 369:Middlewares/Third_Party/LwIP/src/core/timeouts.c ****     if (tmptimeout == NULL) {
 656              		.loc 1 369 5 is_stmt 1 view .LVU171
 657              		.loc 1 369 8 is_stmt 0 view .LVU172
 658 000c 91B1     		cbz	r1, .L63
 370:Middlewares/Third_Party/LwIP/src/core/timeouts.c ****       return;
 371:Middlewares/Third_Party/LwIP/src/core/timeouts.c ****     }
 372:Middlewares/Third_Party/LwIP/src/core/timeouts.c **** 
 373:Middlewares/Third_Party/LwIP/src/core/timeouts.c ****     if (TIME_LESS_THAN(now, tmptimeout->time)) {
 659              		.loc 1 373 5 is_stmt 1 view .LVU173
 660              		.loc 1 373 9 is_stmt 0 view .LVU174
 661 000e 4B68     		ldr	r3, [r1, #4]
 662 0010 EA1A     		subs	r2, r5, r3
 663              		.loc 1 373 8 view .LVU175
 664 0012 002A     		cmp	r2, #0
 665 0014 0EDB     		blt	.L63
 374:Middlewares/Third_Party/LwIP/src/core/timeouts.c ****       return;
 375:Middlewares/Third_Party/LwIP/src/core/timeouts.c ****     }
 376:Middlewares/Third_Party/LwIP/src/core/timeouts.c **** 
 377:Middlewares/Third_Party/LwIP/src/core/timeouts.c ****     /* Timeout has expired */
 378:Middlewares/Third_Party/LwIP/src/core/timeouts.c ****     next_timeout = tmptimeout->next;
 666              		.loc 1 378 5 is_stmt 1 view .LVU176
 667              		.loc 1 378 30 is_stmt 0 view .LVU177
 668 0016 0868     		ldr	r0, [r1]
 669              		.loc 1 378 18 view .LVU178
 670 0018 074A     		ldr	r2, .L68
 671 001a 1060     		str	r0, [r2]
 379:Middlewares/Third_Party/LwIP/src/core/timeouts.c ****     handler = tmptimeout->h;
 672              		.loc 1 379 5 is_stmt 1 view .LVU179
 673              		.loc 1 379 13 is_stmt 0 view .LVU180
 674 001c 8C68     		ldr	r4, [r1, #8]
 675              	.LVL56:
 380:Middlewares/Third_Party/LwIP/src/core/timeouts.c ****     arg = tmptimeout->arg;
 676              		.loc 1 380 5 is_stmt 1 view .LVU181
 677              		.loc 1 380 9 is_stmt 0 view .LVU182
 678 001e CE68     		ldr	r6, [r1, #12]
 679              	.LVL57:
 381:Middlewares/Third_Party/LwIP/src/core/timeouts.c ****     current_timeout_due_time = tmptimeout->time;
ARM GAS  C:\Users\hh\AppData\Local\Temp\cckgYSUv.s 			page 21


 680              		.loc 1 381 5 is_stmt 1 view .LVU183
 681              		.loc 1 381 30 is_stmt 0 view .LVU184
 682 0020 064A     		ldr	r2, .L68+4
 683 0022 1360     		str	r3, [r2]
 382:Middlewares/Third_Party/LwIP/src/core/timeouts.c **** #if LWIP_DEBUG_TIMERNAMES
 383:Middlewares/Third_Party/LwIP/src/core/timeouts.c ****     if (handler != NULL) {
 384:Middlewares/Third_Party/LwIP/src/core/timeouts.c ****       LWIP_DEBUGF(TIMERS_DEBUG, ("sct calling h=%s t=%"U32_F" arg=%p\n",
 385:Middlewares/Third_Party/LwIP/src/core/timeouts.c ****                                  tmptimeout->handler_name, sys_now() - tmptimeout->time, arg));
 386:Middlewares/Third_Party/LwIP/src/core/timeouts.c ****     }
 387:Middlewares/Third_Party/LwIP/src/core/timeouts.c **** #endif /* LWIP_DEBUG_TIMERNAMES */
 388:Middlewares/Third_Party/LwIP/src/core/timeouts.c ****     memp_free(MEMP_SYS_TIMEOUT, tmptimeout);
 684              		.loc 1 388 5 is_stmt 1 view .LVU185
 685 0024 0920     		movs	r0, #9
 686 0026 FFF7FEFF 		bl	memp_free
 687              	.LVL58:
 389:Middlewares/Third_Party/LwIP/src/core/timeouts.c ****     if (handler != NULL) {
 688              		.loc 1 389 5 view .LVU186
 689              		.loc 1 389 8 is_stmt 0 view .LVU187
 690 002a 002C     		cmp	r4, #0
 691 002c ECD0     		beq	.L65
 390:Middlewares/Third_Party/LwIP/src/core/timeouts.c ****       handler(arg);
 692              		.loc 1 390 7 is_stmt 1 view .LVU188
 693 002e 3046     		mov	r0, r6
 694 0030 A047     		blx	r4
 695              	.LVL59:
 696 0032 E9E7     		b	.L65
 697              	.LVL60:
 698              	.L63:
 699              		.loc 1 390 7 is_stmt 0 view .LVU189
 700              	.LBE2:
 391:Middlewares/Third_Party/LwIP/src/core/timeouts.c ****     }
 392:Middlewares/Third_Party/LwIP/src/core/timeouts.c ****     LWIP_TCPIP_THREAD_ALIVE();
 393:Middlewares/Third_Party/LwIP/src/core/timeouts.c **** 
 394:Middlewares/Third_Party/LwIP/src/core/timeouts.c ****     /* Repeat until all expired timers have been called */
 395:Middlewares/Third_Party/LwIP/src/core/timeouts.c ****   } while (1);
 396:Middlewares/Third_Party/LwIP/src/core/timeouts.c **** }
 701              		.loc 1 396 1 view .LVU190
 702 0034 70BD     		pop	{r4, r5, r6, pc}
 703              	.LVL61:
 704              	.L69:
 705              		.loc 1 396 1 view .LVU191
 706 0036 00BF     		.align	2
 707              	.L68:
 708 0038 00000000 		.word	next_timeout
 709 003c 00000000 		.word	current_timeout_due_time
 710              		.cfi_endproc
 711              	.LFE179:
 713              		.section	.text.sys_restart_timeouts,"ax",%progbits
 714              		.align	1
 715              		.global	sys_restart_timeouts
 716              		.syntax unified
 717              		.thumb
 718              		.thumb_func
 720              	sys_restart_timeouts:
 721              	.LFB180:
 397:Middlewares/Third_Party/LwIP/src/core/timeouts.c **** 
 398:Middlewares/Third_Party/LwIP/src/core/timeouts.c **** /** Rebase the timeout times to the current time.
ARM GAS  C:\Users\hh\AppData\Local\Temp\cckgYSUv.s 			page 22


 399:Middlewares/Third_Party/LwIP/src/core/timeouts.c ****  * This is necessary if sys_check_timeouts() hasn't been called for a long
 400:Middlewares/Third_Party/LwIP/src/core/timeouts.c ****  * time (e.g. while saving energy) to prevent all timer functions of that
 401:Middlewares/Third_Party/LwIP/src/core/timeouts.c ****  * period being called.
 402:Middlewares/Third_Party/LwIP/src/core/timeouts.c ****  */
 403:Middlewares/Third_Party/LwIP/src/core/timeouts.c **** void
 404:Middlewares/Third_Party/LwIP/src/core/timeouts.c **** sys_restart_timeouts(void)
 405:Middlewares/Third_Party/LwIP/src/core/timeouts.c **** {
 722              		.loc 1 405 1 is_stmt 1 view -0
 723              		.cfi_startproc
 724              		@ args = 0, pretend = 0, frame = 0
 725              		@ frame_needed = 0, uses_anonymous_args = 0
 726 0000 08B5     		push	{r3, lr}
 727              	.LCFI9:
 728              		.cfi_def_cfa_offset 8
 729              		.cfi_offset 3, -8
 730              		.cfi_offset 14, -4
 406:Middlewares/Third_Party/LwIP/src/core/timeouts.c ****   u32_t now;
 731              		.loc 1 406 3 view .LVU193
 407:Middlewares/Third_Party/LwIP/src/core/timeouts.c ****   u32_t base;
 732              		.loc 1 407 3 view .LVU194
 408:Middlewares/Third_Party/LwIP/src/core/timeouts.c ****   struct sys_timeo *t;
 733              		.loc 1 408 3 view .LVU195
 409:Middlewares/Third_Party/LwIP/src/core/timeouts.c **** 
 410:Middlewares/Third_Party/LwIP/src/core/timeouts.c ****   if (next_timeout == NULL) {
 734              		.loc 1 410 3 view .LVU196
 735              		.loc 1 410 20 is_stmt 0 view .LVU197
 736 0002 084B     		ldr	r3, .L75
 737 0004 1B68     		ldr	r3, [r3]
 738              		.loc 1 410 6 view .LVU198
 739 0006 63B1     		cbz	r3, .L70
 411:Middlewares/Third_Party/LwIP/src/core/timeouts.c ****     return;
 412:Middlewares/Third_Party/LwIP/src/core/timeouts.c ****   }
 413:Middlewares/Third_Party/LwIP/src/core/timeouts.c **** 
 414:Middlewares/Third_Party/LwIP/src/core/timeouts.c ****   now = sys_now();
 740              		.loc 1 414 3 is_stmt 1 view .LVU199
 741              		.loc 1 414 9 is_stmt 0 view .LVU200
 742 0008 FFF7FEFF 		bl	sys_now
 743              	.LVL62:
 415:Middlewares/Third_Party/LwIP/src/core/timeouts.c ****   base = next_timeout->time;
 744              		.loc 1 415 3 is_stmt 1 view .LVU201
 745              		.loc 1 415 22 is_stmt 0 view .LVU202
 746 000c 054B     		ldr	r3, .L75
 747 000e 1A68     		ldr	r2, [r3]
 748              		.loc 1 415 8 view .LVU203
 749 0010 5168     		ldr	r1, [r2, #4]
 750              	.LVL63:
 416:Middlewares/Third_Party/LwIP/src/core/timeouts.c **** 
 417:Middlewares/Third_Party/LwIP/src/core/timeouts.c ****   for (t = next_timeout; t != NULL; t = t->next) {
 751              		.loc 1 417 3 is_stmt 1 view .LVU204
 752              		.loc 1 417 3 is_stmt 0 view .LVU205
 753 0012 04E0     		b	.L72
 754              	.L73:
 418:Middlewares/Third_Party/LwIP/src/core/timeouts.c ****     t->time = (t->time - base) + now;
 755              		.loc 1 418 5 is_stmt 1 view .LVU206
 756              		.loc 1 418 17 is_stmt 0 view .LVU207
 757 0014 5368     		ldr	r3, [r2, #4]
 758              		.loc 1 418 24 view .LVU208
ARM GAS  C:\Users\hh\AppData\Local\Temp\cckgYSUv.s 			page 23


 759 0016 5B1A     		subs	r3, r3, r1
 760              		.loc 1 418 32 view .LVU209
 761 0018 0344     		add	r3, r3, r0
 762              		.loc 1 418 13 view .LVU210
 763 001a 5360     		str	r3, [r2, #4]
 417:Middlewares/Third_Party/LwIP/src/core/timeouts.c ****     t->time = (t->time - base) + now;
 764              		.loc 1 417 39 is_stmt 1 discriminator 3 view .LVU211
 765 001c 1268     		ldr	r2, [r2]
 766              	.LVL64:
 767              	.L72:
 417:Middlewares/Third_Party/LwIP/src/core/timeouts.c ****     t->time = (t->time - base) + now;
 768              		.loc 1 417 28 discriminator 1 view .LVU212
 769 001e 002A     		cmp	r2, #0
 770 0020 F8D1     		bne	.L73
 771              	.LVL65:
 772              	.L70:
 419:Middlewares/Third_Party/LwIP/src/core/timeouts.c ****   }
 420:Middlewares/Third_Party/LwIP/src/core/timeouts.c **** }
 773              		.loc 1 420 1 is_stmt 0 view .LVU213
 774 0022 08BD     		pop	{r3, pc}
 775              	.L76:
 776              		.align	2
 777              	.L75:
 778 0024 00000000 		.word	next_timeout
 779              		.cfi_endproc
 780              	.LFE180:
 782              		.section	.rodata.sys_timeouts_sleeptime.str1.4,"aMS",%progbits,1
 783              		.align	2
 784              	.LC4:
 785 0000 696E7661 		.ascii	"invalid sleeptime\000"
 785      6C696420 
 785      736C6565 
 785      7074696D 
 785      6500
 786              		.section	.text.sys_timeouts_sleeptime,"ax",%progbits
 787              		.align	1
 788              		.global	sys_timeouts_sleeptime
 789              		.syntax unified
 790              		.thumb
 791              		.thumb_func
 793              	sys_timeouts_sleeptime:
 794              	.LFB181:
 421:Middlewares/Third_Party/LwIP/src/core/timeouts.c **** 
 422:Middlewares/Third_Party/LwIP/src/core/timeouts.c **** /** Return the time left before the next timeout is due. If no timeouts are
 423:Middlewares/Third_Party/LwIP/src/core/timeouts.c ****  * enqueued, returns 0xffffffff
 424:Middlewares/Third_Party/LwIP/src/core/timeouts.c ****  */
 425:Middlewares/Third_Party/LwIP/src/core/timeouts.c **** u32_t
 426:Middlewares/Third_Party/LwIP/src/core/timeouts.c **** sys_timeouts_sleeptime(void)
 427:Middlewares/Third_Party/LwIP/src/core/timeouts.c **** {
 795              		.loc 1 427 1 is_stmt 1 view -0
 796              		.cfi_startproc
 797              		@ args = 0, pretend = 0, frame = 0
 798              		@ frame_needed = 0, uses_anonymous_args = 0
 799 0000 10B5     		push	{r4, lr}
 800              	.LCFI10:
 801              		.cfi_def_cfa_offset 8
 802              		.cfi_offset 4, -8
ARM GAS  C:\Users\hh\AppData\Local\Temp\cckgYSUv.s 			page 24


 803              		.cfi_offset 14, -4
 428:Middlewares/Third_Party/LwIP/src/core/timeouts.c ****   u32_t now;
 804              		.loc 1 428 3 view .LVU215
 429:Middlewares/Third_Party/LwIP/src/core/timeouts.c **** 
 430:Middlewares/Third_Party/LwIP/src/core/timeouts.c ****   LWIP_ASSERT_CORE_LOCKED();
 805              		.loc 1 430 28 view .LVU216
 431:Middlewares/Third_Party/LwIP/src/core/timeouts.c **** 
 432:Middlewares/Third_Party/LwIP/src/core/timeouts.c ****   if (next_timeout == NULL) {
 806              		.loc 1 432 3 view .LVU217
 807              		.loc 1 432 20 is_stmt 0 view .LVU218
 808 0002 0D4B     		ldr	r3, .L83
 809 0004 1B68     		ldr	r3, [r3]
 810              		.loc 1 432 6 view .LVU219
 811 0006 83B1     		cbz	r3, .L80
 433:Middlewares/Third_Party/LwIP/src/core/timeouts.c ****     return SYS_TIMEOUTS_SLEEPTIME_INFINITE;
 434:Middlewares/Third_Party/LwIP/src/core/timeouts.c ****   }
 435:Middlewares/Third_Party/LwIP/src/core/timeouts.c ****   now = sys_now();
 812              		.loc 1 435 3 is_stmt 1 view .LVU220
 813              		.loc 1 435 9 is_stmt 0 view .LVU221
 814 0008 FFF7FEFF 		bl	sys_now
 815              	.LVL66:
 436:Middlewares/Third_Party/LwIP/src/core/timeouts.c ****   if (TIME_LESS_THAN(next_timeout->time, now)) {
 816              		.loc 1 436 3 is_stmt 1 view .LVU222
 817              		.loc 1 436 7 is_stmt 0 view .LVU223
 818 000c 0A4B     		ldr	r3, .L83
 819 000e 1B68     		ldr	r3, [r3]
 820 0010 5C68     		ldr	r4, [r3, #4]
 821              		.loc 1 436 6 view .LVU224
 822 0012 241A     		subs	r4, r4, r0
 823 0014 0CD4     		bmi	.L81
 824              	.LBB3:
 437:Middlewares/Third_Party/LwIP/src/core/timeouts.c ****     return 0;
 438:Middlewares/Third_Party/LwIP/src/core/timeouts.c ****   } else {
 439:Middlewares/Third_Party/LwIP/src/core/timeouts.c ****     u32_t ret = (u32_t)(next_timeout->time - now);
 825              		.loc 1 439 5 is_stmt 1 view .LVU225
 826              	.LVL67:
 440:Middlewares/Third_Party/LwIP/src/core/timeouts.c ****     LWIP_ASSERT("invalid sleeptime", ret <= LWIP_MAX_TIMEOUT);
 827              		.loc 1 440 5 view .LVU226
 828              		.loc 1 440 5 view .LVU227
 829 0016 002C     		cmp	r4, #0
 830 0018 0BDA     		bge	.L77
 831              		.loc 1 440 5 discriminator 1 view .LVU228
 832              		.loc 1 440 5 discriminator 1 view .LVU229
 833 001a 084B     		ldr	r3, .L83+4
 834 001c 4FF4DC72 		mov	r2, #440
 835 0020 0749     		ldr	r1, .L83+8
 836 0022 0848     		ldr	r0, .L83+12
 837              	.LVL68:
 838              		.loc 1 440 5 is_stmt 0 discriminator 1 view .LVU230
 839 0024 FFF7FEFF 		bl	printf
 840              	.LVL69:
 841              		.loc 1 440 5 is_stmt 1 view .LVU231
 842              		.loc 1 440 5 view .LVU232
 441:Middlewares/Third_Party/LwIP/src/core/timeouts.c ****     return ret;
 843              		.loc 1 441 5 view .LVU233
 844              		.loc 1 441 12 is_stmt 0 view .LVU234
 845 0028 03E0     		b	.L77
ARM GAS  C:\Users\hh\AppData\Local\Temp\cckgYSUv.s 			page 25


 846              	.LVL70:
 847              	.L80:
 848              		.loc 1 441 12 view .LVU235
 849              	.LBE3:
 433:Middlewares/Third_Party/LwIP/src/core/timeouts.c ****   }
 850              		.loc 1 433 12 view .LVU236
 851 002a 4FF0FF34 		mov	r4, #-1
 852 002e 00E0     		b	.L77
 853              	.LVL71:
 854              	.L81:
 437:Middlewares/Third_Party/LwIP/src/core/timeouts.c ****   } else {
 855              		.loc 1 437 12 view .LVU237
 856 0030 0024     		movs	r4, #0
 857              	.LVL72:
 858              	.L77:
 442:Middlewares/Third_Party/LwIP/src/core/timeouts.c ****   }
 443:Middlewares/Third_Party/LwIP/src/core/timeouts.c **** }
 859              		.loc 1 443 1 view .LVU238
 860 0032 2046     		mov	r0, r4
 861 0034 10BD     		pop	{r4, pc}
 862              	.L84:
 863 0036 00BF     		.align	2
 864              	.L83:
 865 0038 00000000 		.word	next_timeout
 866 003c 00000000 		.word	.LC0
 867 0040 00000000 		.word	.LC4
 868 0044 74000000 		.word	.LC2
 869              		.cfi_endproc
 870              	.LFE181:
 872              		.section	.bss.tcpip_tcp_timer_active,"aw",%nobits
 873              		.align	2
 876              	tcpip_tcp_timer_active:
 877 0000 00000000 		.space	4
 878              		.section	.bss.current_timeout_due_time,"aw",%nobits
 879              		.align	2
 882              	current_timeout_due_time:
 883 0000 00000000 		.space	4
 884              		.section	.bss.next_timeout,"aw",%nobits
 885              		.align	2
 888              	next_timeout:
 889 0000 00000000 		.space	4
 890              		.global	lwip_num_cyclic_timers
 891              		.section	.rodata.lwip_num_cyclic_timers,"a"
 892              		.align	2
 895              	lwip_num_cyclic_timers:
 896 0000 03000000 		.word	3
 897              		.global	lwip_cyclic_timers
 898              		.section	.rodata.lwip_cyclic_timers,"a"
 899              		.align	2
 902              	lwip_cyclic_timers:
 903 0000 FA000000 		.word	250
 904 0004 00000000 		.word	tcp_tmr
 905 0008 E8030000 		.word	1000
 906 000c 00000000 		.word	ip_reass_tmr
 907 0010 E8030000 		.word	1000
 908 0014 00000000 		.word	etharp_tmr
 909              		.text
ARM GAS  C:\Users\hh\AppData\Local\Temp\cckgYSUv.s 			page 26


 910              	.Letext0:
 911              		.file 2 "C:/Program Files (x86)/ARM/arm-gnu-toolchain-15.2.rel1-mingw-w64-i686-arm-none-eabi/arm-n
 912              		.file 3 "C:/Program Files (x86)/ARM/arm-gnu-toolchain-15.2.rel1-mingw-w64-i686-arm-none-eabi/arm-n
 913              		.file 4 "C:/Program Files (x86)/ARM/arm-gnu-toolchain-15.2.rel1-mingw-w64-i686-arm-none-eabi/lib/g
 914              		.file 5 "Middlewares/Third_Party/LwIP/src/include/lwip/arch.h"
 915              		.file 6 "Middlewares/Third_Party/LwIP/src/include/lwip/err.h"
 916              		.file 7 "Middlewares/Third_Party/LwIP/src/include/lwip/timeouts.h"
 917              		.file 8 "Middlewares/Third_Party/LwIP/src/include/lwip/tcpbase.h"
 918              		.file 9 "Middlewares/Third_Party/LwIP/src/include/lwip/pbuf.h"
 919              		.file 10 "Middlewares/Third_Party/LwIP/src/include/lwip/ip4_addr.h"
 920              		.file 11 "Middlewares/Third_Party/LwIP/src/include/lwip/ip_addr.h"
 921              		.file 12 "Middlewares/Third_Party/LwIP/src/include/lwip/memp.h"
 922              		.file 13 "Middlewares/Third_Party/LwIP/src/include/lwip/tcp.h"
 923              		.file 14 "Middlewares/Third_Party/LwIP/src/include/lwip/priv/tcp_priv.h"
 924              		.file 15 "Middlewares/Third_Party/LwIP/src/include/lwip/prot/tcp.h"
 925              		.file 16 "C:/Program Files (x86)/ARM/arm-gnu-toolchain-15.2.rel1-mingw-w64-i686-arm-none-eabi/arm-
 926              		.file 17 "Middlewares/Third_Party/LwIP/src/include/lwip/etharp.h"
 927              		.file 18 "Middlewares/Third_Party/LwIP/src/include/lwip/ip4_frag.h"
 928              		.file 19 "Middlewares/Third_Party/LwIP/src/include/lwip/sys.h"
ARM GAS  C:\Users\hh\AppData\Local\Temp\cckgYSUv.s 			page 27

