ARM GAS  C:\Users\hh\AppData\Local\Temp\ccMm5Nou.s 			page 1


   1              		.cpu cortex-m7
   2              		.arch armv7e-m
   3              		.fpu fpv5-d16
   4              		.eabi_attribute 28, 1
   5              		.eabi_attribute 20, 1
   6              		.eabi_attribute 21, 1
   7              		.eabi_attribute 23, 3
   8              		.eabi_attribute 24, 1
   9              		.eabi_attribute 25, 1
  10              		.eabi_attribute 26, 1
  11              		.eabi_attribute 30, 1
  12              		.eabi_attribute 34, 1
  13              		.eabi_attribute 18, 4
  14              		.file	"voltage_sim.c"
  15              		.text
  16              	.Ltext0:
  17              		.cfi_sections	.debug_frame
  18              		.file 1 "App/Src/voltage_sim.c"
  19              		.section	.text.VoltageSim_IsValidCell,"ax",%progbits
  20              		.align	1
  21              		.syntax unified
  22              		.thumb
  23              		.thumb_func
  25              	VoltageSim_IsValidCell:
  26              	.LVL0:
  27              	.LFB146:
   1:App/Src/voltage_sim.c **** #include "voltage_sim.h"
   2:App/Src/voltage_sim.c **** 
   3:App/Src/voltage_sim.c **** static uint16_t cellVoltageMv[VOLTAGE_SIM_CELL_COUNT];
   4:App/Src/voltage_sim.c **** static int16_t cellCalibrationOffsetMv[VOLTAGE_SIM_CELL_COUNT];
   5:App/Src/voltage_sim.c **** static VoltageSim_CellFaultInfo cellFaultInfo[VOLTAGE_SIM_CELL_COUNT];
   6:App/Src/voltage_sim.c **** static uint32_t faultLastUpdateMs[VOLTAGE_SIM_CELL_COUNT];
   7:App/Src/voltage_sim.c **** static uint32_t faultHoldStartedMs[VOLTAGE_SIM_CELL_COUNT];
   8:App/Src/voltage_sim.c **** static uint8_t faultRestoring[VOLTAGE_SIM_CELL_COUNT];
   9:App/Src/voltage_sim.c **** 
  10:App/Src/voltage_sim.c **** static uint8_t VoltageSim_IsValidCell(uint8_t cell)
  11:App/Src/voltage_sim.c **** {
  28              		.loc 1 11 1 view -0
  29              		.cfi_startproc
  30              		@ args = 0, pretend = 0, frame = 0
  31              		@ frame_needed = 0, uses_anonymous_args = 0
  32              		@ link register save eliminated.
  12:App/Src/voltage_sim.c ****   return ((cell >= 1U) && (cell <= VOLTAGE_SIM_CELL_COUNT)) ? 1U : 0U;
  33              		.loc 1 12 3 view .LVU1
  34              		.loc 1 12 24 is_stmt 0 view .LVU2
  35 0000 0138     		subs	r0, r0, #1
  36              	.LVL1:
  37              		.loc 1 12 24 view .LVU3
  38 0002 C0B2     		uxtb	r0, r0
  39              	.LVL2:
  40              		.loc 1 12 66 view .LVU4
  41 0004 0C28     		cmp	r0, #12
  42 0006 01D8     		bhi	.L3
  43              		.loc 1 12 66 discriminator 1 view .LVU5
  44 0008 0120     		movs	r0, #1
  45 000a 7047     		bx	lr
  46              	.L3:
ARM GAS  C:\Users\hh\AppData\Local\Temp\ccMm5Nou.s 			page 2


  47              		.loc 1 12 66 discriminator 2 view .LVU6
  48 000c 0020     		movs	r0, #0
  13:App/Src/voltage_sim.c **** }
  49              		.loc 1 13 1 view .LVU7
  50 000e 7047     		bx	lr
  51              		.cfi_endproc
  52              	.LFE146:
  54              		.section	.text.VoltageSim_IsValidVoltage,"ax",%progbits
  55              		.align	1
  56              		.syntax unified
  57              		.thumb
  58              		.thumb_func
  60              	VoltageSim_IsValidVoltage:
  61              	.LVL3:
  62              	.LFB147:
  14:App/Src/voltage_sim.c **** 
  15:App/Src/voltage_sim.c **** static uint8_t VoltageSim_IsValidVoltage(uint16_t millivolts)
  16:App/Src/voltage_sim.c **** {
  63              		.loc 1 16 1 is_stmt 1 view -0
  64              		.cfi_startproc
  65              		@ args = 0, pretend = 0, frame = 0
  66              		@ frame_needed = 0, uses_anonymous_args = 0
  67              		@ link register save eliminated.
  17:App/Src/voltage_sim.c ****   return ((millivolts >= VOLTAGE_SIM_MIN_MV) && (millivolts <= VOLTAGE_SIM_MAX_MV)) ? 1U : 0U;
  68              		.loc 1 17 3 view .LVU9
  69              		.loc 1 17 46 is_stmt 0 view .LVU10
  70 0000 A0F5FA70 		sub	r0, r0, #500
  71              	.LVL4:
  72              		.loc 1 17 46 view .LVU11
  73 0004 80B2     		uxth	r0, r0
  74              	.LVL5:
  75              		.loc 1 17 90 view .LVU12
  76 0006 41F29413 		movw	r3, #4500
  77 000a 9842     		cmp	r0, r3
  78 000c 01D8     		bhi	.L6
  79              		.loc 1 17 90 discriminator 1 view .LVU13
  80 000e 0120     		movs	r0, #1
  81 0010 7047     		bx	lr
  82              	.L6:
  83              		.loc 1 17 90 discriminator 2 view .LVU14
  84 0012 0020     		movs	r0, #0
  18:App/Src/voltage_sim.c **** }
  85              		.loc 1 18 1 view .LVU15
  86 0014 7047     		bx	lr
  87              		.cfi_endproc
  88              	.LFE147:
  90              		.section	.text.VoltageSim_ApplyCalibration,"ax",%progbits
  91              		.align	1
  92              		.syntax unified
  93              		.thumb
  94              		.thumb_func
  96              	VoltageSim_ApplyCalibration:
  97              	.LVL6:
  98              	.LFB148:
  19:App/Src/voltage_sim.c **** 
  20:App/Src/voltage_sim.c **** static uint16_t VoltageSim_ApplyCalibration(uint8_t cell, uint16_t millivolts)
  21:App/Src/voltage_sim.c **** {
ARM GAS  C:\Users\hh\AppData\Local\Temp\ccMm5Nou.s 			page 3


  99              		.loc 1 21 1 is_stmt 1 view -0
 100              		.cfi_startproc
 101              		@ args = 0, pretend = 0, frame = 0
 102              		@ frame_needed = 0, uses_anonymous_args = 0
 103              		@ link register save eliminated.
  22:App/Src/voltage_sim.c ****   int32_t calibrated = (int32_t)millivolts + cellCalibrationOffsetMv[cell - 1U];
 104              		.loc 1 22 3 view .LVU17
 105              		.loc 1 22 75 is_stmt 0 view .LVU18
 106 0000 0138     		subs	r0, r0, #1
 107              	.LVL7:
 108              		.loc 1 22 69 view .LVU19
 109 0002 094B     		ldr	r3, .L11
 110 0004 33F91030 		ldrsh	r3, [r3, r0, lsl #1]
 111              		.loc 1 22 11 view .LVU20
 112 0008 1944     		add	r1, r1, r3
 113              	.LVL8:
  23:App/Src/voltage_sim.c **** 
  24:App/Src/voltage_sim.c ****   if (calibrated < VOLTAGE_SIM_MIN_MV)
 114              		.loc 1 24 3 is_stmt 1 view .LVU21
 115              		.loc 1 24 6 is_stmt 0 view .LVU22
 116 000a B1F5FA7F 		cmp	r1, #500
 117 000e 05D3     		bcc	.L9
  25:App/Src/voltage_sim.c ****   {
  26:App/Src/voltage_sim.c ****     return VOLTAGE_SIM_MIN_MV;
  27:App/Src/voltage_sim.c ****   }
  28:App/Src/voltage_sim.c **** 
  29:App/Src/voltage_sim.c ****   if (calibrated > VOLTAGE_SIM_MAX_MV)
 118              		.loc 1 29 3 is_stmt 1 view .LVU23
 119              		.loc 1 29 6 is_stmt 0 view .LVU24
 120 0010 41F28833 		movw	r3, #5000
 121 0014 9942     		cmp	r1, r3
 122 0016 04D8     		bhi	.L10
  30:App/Src/voltage_sim.c ****   {
  31:App/Src/voltage_sim.c ****     return VOLTAGE_SIM_MAX_MV;
  32:App/Src/voltage_sim.c ****   }
  33:App/Src/voltage_sim.c **** 
  34:App/Src/voltage_sim.c ****   return (uint16_t)calibrated;
 123              		.loc 1 34 3 is_stmt 1 view .LVU25
 124              		.loc 1 34 10 is_stmt 0 view .LVU26
 125 0018 88B2     		uxth	r0, r1
 126              	.LVL9:
 127              		.loc 1 34 10 view .LVU27
 128 001a 7047     		bx	lr
 129              	.L9:
  26:App/Src/voltage_sim.c ****   }
 130              		.loc 1 26 12 view .LVU28
 131 001c 4FF4FA70 		mov	r0, #500
 132 0020 7047     		bx	lr
 133              	.L10:
  31:App/Src/voltage_sim.c ****   }
 134              		.loc 1 31 12 view .LVU29
 135 0022 41F28830 		movw	r0, #5000
  35:App/Src/voltage_sim.c **** }
 136              		.loc 1 35 1 view .LVU30
 137 0026 7047     		bx	lr
 138              	.L12:
 139              		.align	2
ARM GAS  C:\Users\hh\AppData\Local\Temp\ccMm5Nou.s 			page 4


 140              	.L11:
 141 0028 00000000 		.word	cellCalibrationOffsetMv
 142              		.cfi_endproc
 143              	.LFE148:
 145              		.section	.text.VoltageSim_ClearFaultRecord,"ax",%progbits
 146              		.align	1
 147              		.syntax unified
 148              		.thumb
 149              		.thumb_func
 151              	VoltageSim_ClearFaultRecord:
 152              	.LVL10:
 153              	.LFB149:
  36:App/Src/voltage_sim.c **** 
  37:App/Src/voltage_sim.c **** static void VoltageSim_ClearFaultRecord(uint8_t cell)
  38:App/Src/voltage_sim.c **** {
 154              		.loc 1 38 1 is_stmt 1 view -0
 155              		.cfi_startproc
 156              		@ args = 0, pretend = 0, frame = 0
 157              		@ frame_needed = 0, uses_anonymous_args = 0
 158              		@ link register save eliminated.
  39:App/Src/voltage_sim.c ****   VoltageSim_CellFaultInfo *info = &cellFaultInfo[cell - 1U];
 159              		.loc 1 39 3 view .LVU32
 160              		.loc 1 39 56 is_stmt 0 view .LVU33
 161 0000 0138     		subs	r0, r0, #1
 162              	.LVL11:
  40:App/Src/voltage_sim.c **** 
  41:App/Src/voltage_sim.c ****   info->type = VOLTAGE_SIM_FAULT_NONE;
 163              		.loc 1 41 3 is_stmt 1 view .LVU34
 164              		.loc 1 41 14 is_stmt 0 view .LVU35
 165 0002 0B49     		ldr	r1, .L14
 166 0004 4FEA001C 		lsl	ip, r0, #4
 167 0008 01EB0012 		add	r2, r1, r0, lsl #4
 168              	.LVL12:
 169              		.loc 1 41 14 view .LVU36
 170 000c 0023     		movs	r3, #0
 171 000e 01F80C30 		strb	r3, [r1, ip]
  42:App/Src/voltage_sim.c ****   info->targetMillivolts = 0U;
 172              		.loc 1 42 3 is_stmt 1 view .LVU37
 173              		.loc 1 42 26 is_stmt 0 view .LVU38
 174 0012 5380     		strh	r3, [r2, #2]	@ movhi
  43:App/Src/voltage_sim.c ****   info->restoreMillivolts = 0U;
 175              		.loc 1 43 3 is_stmt 1 view .LVU39
 176              		.loc 1 43 27 is_stmt 0 view .LVU40
 177 0014 9380     		strh	r3, [r2, #4]	@ movhi
  44:App/Src/voltage_sim.c ****   info->durationMs = 0U;
 178              		.loc 1 44 3 is_stmt 1 view .LVU41
 179              		.loc 1 44 20 is_stmt 0 view .LVU42
 180 0016 9360     		str	r3, [r2, #8]
  45:App/Src/voltage_sim.c ****   info->slewRateMvPerMs = 0U;
 181              		.loc 1 45 3 is_stmt 1 view .LVU43
 182              		.loc 1 45 25 is_stmt 0 view .LVU44
 183 0018 9381     		strh	r3, [r2, #12]	@ movhi
  46:App/Src/voltage_sim.c ****   faultLastUpdateMs[cell - 1U] = 0U;
 184              		.loc 1 46 3 is_stmt 1 view .LVU45
 185              		.loc 1 46 32 is_stmt 0 view .LVU46
 186 001a 064A     		ldr	r2, .L14+4
 187              	.LVL13:
ARM GAS  C:\Users\hh\AppData\Local\Temp\ccMm5Nou.s 			page 5


 188              		.loc 1 46 32 view .LVU47
 189 001c 42F82030 		str	r3, [r2, r0, lsl #2]
  47:App/Src/voltage_sim.c ****   faultHoldStartedMs[cell - 1U] = 0U;
 190              		.loc 1 47 3 is_stmt 1 view .LVU48
 191              		.loc 1 47 33 is_stmt 0 view .LVU49
 192 0020 054A     		ldr	r2, .L14+8
 193 0022 42F82030 		str	r3, [r2, r0, lsl #2]
  48:App/Src/voltage_sim.c ****   faultRestoring[cell - 1U] = 0U;
 194              		.loc 1 48 3 is_stmt 1 view .LVU50
 195              		.loc 1 48 29 is_stmt 0 view .LVU51
 196 0026 4FF00002 		mov	r2, #0	@ movhi
 197 002a 044B     		ldr	r3, .L14+12
 198 002c 1A54     		strb	r2, [r3, r0]
  49:App/Src/voltage_sim.c **** }
 199              		.loc 1 49 1 view .LVU52
 200 002e 7047     		bx	lr
 201              	.L15:
 202              		.align	2
 203              	.L14:
 204 0030 00000000 		.word	cellFaultInfo
 205 0034 00000000 		.word	faultLastUpdateMs
 206 0038 00000000 		.word	faultHoldStartedMs
 207 003c 00000000 		.word	faultRestoring
 208              		.cfi_endproc
 209              	.LFE149:
 211              		.section	.text.VoltageSim_CalculateNextVoltage,"ax",%progbits
 212              		.align	1
 213              		.syntax unified
 214              		.thumb
 215              		.thumb_func
 217              	VoltageSim_CalculateNextVoltage:
 218              	.LVL14:
 219              	.LFB152:
  50:App/Src/voltage_sim.c **** 
  51:App/Src/voltage_sim.c **** static HAL_StatusTypeDef VoltageSim_WriteCellVoltageMv(uint8_t cell,
  52:App/Src/voltage_sim.c ****                                                        uint16_t millivolts,
  53:App/Src/voltage_sim.c ****                                                        uint8_t updateOutput)
  54:App/Src/voltage_sim.c **** {
  55:App/Src/voltage_sim.c ****   HAL_StatusTypeDef status;
  56:App/Src/voltage_sim.c ****   uint16_t dacCode;
  57:App/Src/voltage_sim.c ****   uint16_t calibratedMillivolts;
  58:App/Src/voltage_sim.c **** 
  59:App/Src/voltage_sim.c ****   if ((VoltageSim_IsValidCell(cell) == 0U) || (VoltageSim_IsValidVoltage(millivolts) == 0U))
  60:App/Src/voltage_sim.c ****   {
  61:App/Src/voltage_sim.c ****     return HAL_ERROR;
  62:App/Src/voltage_sim.c ****   }
  63:App/Src/voltage_sim.c **** 
  64:App/Src/voltage_sim.c ****   calibratedMillivolts = VoltageSim_ApplyCalibration(cell, millivolts);
  65:App/Src/voltage_sim.c ****   dacCode = VoltageSim_MillivoltsToDacCode(calibratedMillivolts);
  66:App/Src/voltage_sim.c ****   status = DAC_WriteChannel((uint8_t)(cell - 1U), dacCode);
  67:App/Src/voltage_sim.c ****   if (status != HAL_OK)
  68:App/Src/voltage_sim.c ****   {
  69:App/Src/voltage_sim.c ****     return status;
  70:App/Src/voltage_sim.c ****   }
  71:App/Src/voltage_sim.c **** 
  72:App/Src/voltage_sim.c ****   cellVoltageMv[cell - 1U] = millivolts;
  73:App/Src/voltage_sim.c **** 
ARM GAS  C:\Users\hh\AppData\Local\Temp\ccMm5Nou.s 			page 6


  74:App/Src/voltage_sim.c ****   if (updateOutput != 0U)
  75:App/Src/voltage_sim.c ****   {
  76:App/Src/voltage_sim.c ****     DAC_LDAC_Update();
  77:App/Src/voltage_sim.c ****   }
  78:App/Src/voltage_sim.c **** 
  79:App/Src/voltage_sim.c ****   return HAL_OK;
  80:App/Src/voltage_sim.c **** }
  81:App/Src/voltage_sim.c **** 
  82:App/Src/voltage_sim.c **** static HAL_StatusTypeDef VoltageSim_InjectCellFault(uint8_t cell,
  83:App/Src/voltage_sim.c ****                                                     uint16_t targetMillivolts,
  84:App/Src/voltage_sim.c ****                                                     VoltageSim_FaultType type,
  85:App/Src/voltage_sim.c ****                                                     uint32_t durationMs,
  86:App/Src/voltage_sim.c ****                                                     uint16_t slewRateMvPerMs)
  87:App/Src/voltage_sim.c **** {
  88:App/Src/voltage_sim.c ****   HAL_StatusTypeDef status;
  89:App/Src/voltage_sim.c ****   uint16_t restoreMillivolts;
  90:App/Src/voltage_sim.c ****   uint32_t nowMs;
  91:App/Src/voltage_sim.c ****   VoltageSim_CellFaultInfo *info;
  92:App/Src/voltage_sim.c **** 
  93:App/Src/voltage_sim.c ****   if ((VoltageSim_IsValidCell(cell) == 0U) || (VoltageSim_IsValidVoltage(targetMillivolts) == 0U))
  94:App/Src/voltage_sim.c ****   {
  95:App/Src/voltage_sim.c ****     return HAL_ERROR;
  96:App/Src/voltage_sim.c ****   }
  97:App/Src/voltage_sim.c **** 
  98:App/Src/voltage_sim.c ****   info = &cellFaultInfo[cell - 1U];
  99:App/Src/voltage_sim.c ****   restoreMillivolts = (info->type == VOLTAGE_SIM_FAULT_NONE) ?
 100:App/Src/voltage_sim.c ****                       cellVoltageMv[cell - 1U] :
 101:App/Src/voltage_sim.c ****                       info->restoreMillivolts;
 102:App/Src/voltage_sim.c **** 
 103:App/Src/voltage_sim.c ****   if (((type == VOLTAGE_SIM_FAULT_OVER_VOLTAGE) && (targetMillivolts <= restoreMillivolts)) ||
 104:App/Src/voltage_sim.c ****       ((type == VOLTAGE_SIM_FAULT_UNDER_VOLTAGE) && (targetMillivolts >= restoreMillivolts)))
 105:App/Src/voltage_sim.c ****   {
 106:App/Src/voltage_sim.c ****     return HAL_ERROR;
 107:App/Src/voltage_sim.c ****   }
 108:App/Src/voltage_sim.c **** 
 109:App/Src/voltage_sim.c ****   nowMs = HAL_GetTick();
 110:App/Src/voltage_sim.c **** 
 111:App/Src/voltage_sim.c ****   info->type = type;
 112:App/Src/voltage_sim.c ****   info->targetMillivolts = targetMillivolts;
 113:App/Src/voltage_sim.c ****   info->restoreMillivolts = restoreMillivolts;
 114:App/Src/voltage_sim.c ****   info->durationMs = durationMs;
 115:App/Src/voltage_sim.c ****   info->slewRateMvPerMs = slewRateMvPerMs;
 116:App/Src/voltage_sim.c ****   faultLastUpdateMs[cell - 1U] = nowMs;
 117:App/Src/voltage_sim.c ****   faultHoldStartedMs[cell - 1U] = 0U;
 118:App/Src/voltage_sim.c ****   faultRestoring[cell - 1U] = 0U;
 119:App/Src/voltage_sim.c **** 
 120:App/Src/voltage_sim.c ****   if (slewRateMvPerMs == 0U)
 121:App/Src/voltage_sim.c ****   {
 122:App/Src/voltage_sim.c ****     status = VoltageSim_WriteCellVoltageMv(cell, targetMillivolts, 1U);
 123:App/Src/voltage_sim.c ****     if (status != HAL_OK)
 124:App/Src/voltage_sim.c ****     {
 125:App/Src/voltage_sim.c ****       VoltageSim_ClearFaultRecord(cell);
 126:App/Src/voltage_sim.c ****       return status;
 127:App/Src/voltage_sim.c ****     }
 128:App/Src/voltage_sim.c **** 
 129:App/Src/voltage_sim.c ****     faultHoldStartedMs[cell - 1U] = nowMs;
 130:App/Src/voltage_sim.c ****   }
ARM GAS  C:\Users\hh\AppData\Local\Temp\ccMm5Nou.s 			page 7


 131:App/Src/voltage_sim.c **** 
 132:App/Src/voltage_sim.c ****   return HAL_OK;
 133:App/Src/voltage_sim.c **** }
 134:App/Src/voltage_sim.c **** 
 135:App/Src/voltage_sim.c **** static uint16_t VoltageSim_CalculateNextVoltage(uint16_t currentMv,
 136:App/Src/voltage_sim.c ****                                                 uint16_t targetMv,
 137:App/Src/voltage_sim.c ****                                                 uint32_t maxStepMv)
 138:App/Src/voltage_sim.c **** {
 220              		.loc 1 138 1 is_stmt 1 view -0
 221              		.cfi_startproc
 222              		@ args = 0, pretend = 0, frame = 0
 223              		@ frame_needed = 0, uses_anonymous_args = 0
 224              		@ link register save eliminated.
 139:App/Src/voltage_sim.c ****   uint32_t delta;
 225              		.loc 1 139 3 view .LVU54
 140:App/Src/voltage_sim.c **** 
 141:App/Src/voltage_sim.c ****   if (currentMv == targetMv)
 226              		.loc 1 141 3 view .LVU55
 227              		.loc 1 141 6 is_stmt 0 view .LVU56
 228 0000 8842     		cmp	r0, r1
 229 0002 10D0     		beq	.L17
 142:App/Src/voltage_sim.c ****   {
 143:App/Src/voltage_sim.c ****     return currentMv;
 144:App/Src/voltage_sim.c ****   }
 145:App/Src/voltage_sim.c **** 
 146:App/Src/voltage_sim.c ****   delta = (currentMv > targetMv) ? ((uint32_t)currentMv - targetMv) :
 230              		.loc 1 146 3 is_stmt 1 view .LVU57
 231              		.loc 1 146 69 is_stmt 0 view .LVU58
 232 0004 09D9     		bls	.L18
 233              		.loc 1 146 9 discriminator 1 view .LVU59
 234 0006 431A     		subs	r3, r0, r1
 235              	.LVL15:
 236              	.L19:
 147:App/Src/voltage_sim.c ****                                   ((uint32_t)targetMv - currentMv);
 148:App/Src/voltage_sim.c **** 
 149:App/Src/voltage_sim.c ****   if ((maxStepMv == 0U) || (maxStepMv >= delta))
 237              		.loc 1 149 3 is_stmt 1 view .LVU60
 238              		.loc 1 149 6 is_stmt 0 view .LVU61
 239 0008 002A     		cmp	r2, #0
 240 000a 18BF     		it	ne
 241 000c 9342     		cmpne	r3, r2
 242 000e 09D9     		bls	.L22
 150:App/Src/voltage_sim.c ****   {
 151:App/Src/voltage_sim.c ****     return targetMv;
 152:App/Src/voltage_sim.c ****   }
 153:App/Src/voltage_sim.c **** 
 154:App/Src/voltage_sim.c ****   if (currentMv < targetMv)
 243              		.loc 1 154 3 is_stmt 1 view .LVU62
 244              		.loc 1 154 6 is_stmt 0 view .LVU63
 245 0010 8842     		cmp	r0, r1
 246 0012 04D3     		bcc	.L23
 155:App/Src/voltage_sim.c ****   {
 156:App/Src/voltage_sim.c ****     return (uint16_t)(currentMv + maxStepMv);
 157:App/Src/voltage_sim.c ****   }
 158:App/Src/voltage_sim.c **** 
 159:App/Src/voltage_sim.c ****   return (uint16_t)(currentMv - maxStepMv);
 247              		.loc 1 159 3 is_stmt 1 view .LVU64
ARM GAS  C:\Users\hh\AppData\Local\Temp\ccMm5Nou.s 			page 8


 248              		.loc 1 159 10 is_stmt 0 view .LVU65
 249 0014 821A     		subs	r2, r0, r2
 250              	.LVL16:
 251              		.loc 1 159 10 view .LVU66
 252 0016 90B2     		uxth	r0, r2
 253              	.LVL17:
 254              		.loc 1 159 10 view .LVU67
 255 0018 7047     		bx	lr
 256              	.LVL18:
 257              	.L18:
 146:App/Src/voltage_sim.c ****                                   ((uint32_t)targetMv - currentMv);
 258              		.loc 1 146 9 discriminator 2 view .LVU68
 259 001a 0B1A     		subs	r3, r1, r0
 260 001c F4E7     		b	.L19
 261              	.LVL19:
 262              	.L23:
 156:App/Src/voltage_sim.c ****   }
 263              		.loc 1 156 5 is_stmt 1 view .LVU69
 156:App/Src/voltage_sim.c ****   }
 264              		.loc 1 156 12 is_stmt 0 view .LVU70
 265 001e 1044     		add	r0, r0, r2
 266              	.LVL20:
 156:App/Src/voltage_sim.c ****   }
 267              		.loc 1 156 12 view .LVU71
 268 0020 80B2     		uxth	r0, r0
 269 0022 7047     		bx	lr
 270              	.LVL21:
 271              	.L22:
 151:App/Src/voltage_sim.c ****   }
 272              		.loc 1 151 12 view .LVU72
 273 0024 0846     		mov	r0, r1
 274              	.LVL22:
 275              	.L17:
 160:App/Src/voltage_sim.c **** }
 276              		.loc 1 160 1 view .LVU73
 277 0026 7047     		bx	lr
 278              		.cfi_endproc
 279              	.LFE152:
 281              		.section	.text.VoltageSim_MillivoltsToDacCode,"ax",%progbits
 282              		.align	1
 283              		.global	VoltageSim_MillivoltsToDacCode
 284              		.syntax unified
 285              		.thumb
 286              		.thumb_func
 288              	VoltageSim_MillivoltsToDacCode:
 289              	.LVL23:
 290              	.LFB166:
 161:App/Src/voltage_sim.c **** 
 162:App/Src/voltage_sim.c **** HAL_StatusTypeDef VoltageSim_Init(uint16_t defaultMillivolts)
 163:App/Src/voltage_sim.c **** {
 164:App/Src/voltage_sim.c ****   return VoltageSim_SetAllCellsVoltageMv(defaultMillivolts);
 165:App/Src/voltage_sim.c **** }
 166:App/Src/voltage_sim.c **** 
 167:App/Src/voltage_sim.c **** HAL_StatusTypeDef VoltageSim_SetCellVoltageMv(uint8_t cell, uint16_t millivolts)
 168:App/Src/voltage_sim.c **** {
 169:App/Src/voltage_sim.c ****   HAL_StatusTypeDef status = VoltageSim_WriteCellVoltageMv(cell, millivolts, 1U);
 170:App/Src/voltage_sim.c **** 
ARM GAS  C:\Users\hh\AppData\Local\Temp\ccMm5Nou.s 			page 9


 171:App/Src/voltage_sim.c ****   if (status == HAL_OK)
 172:App/Src/voltage_sim.c ****   {
 173:App/Src/voltage_sim.c ****     VoltageSim_ClearFaultRecord(cell);
 174:App/Src/voltage_sim.c ****   }
 175:App/Src/voltage_sim.c **** 
 176:App/Src/voltage_sim.c ****   return status;
 177:App/Src/voltage_sim.c **** }
 178:App/Src/voltage_sim.c **** 
 179:App/Src/voltage_sim.c **** HAL_StatusTypeDef VoltageSim_SetAllCellsVoltageMv(uint16_t millivolts)
 180:App/Src/voltage_sim.c **** {
 181:App/Src/voltage_sim.c ****   HAL_StatusTypeDef status;
 182:App/Src/voltage_sim.c **** 
 183:App/Src/voltage_sim.c ****   if (VoltageSim_IsValidVoltage(millivolts) == 0U)
 184:App/Src/voltage_sim.c ****   {
 185:App/Src/voltage_sim.c ****     return HAL_ERROR;
 186:App/Src/voltage_sim.c ****   }
 187:App/Src/voltage_sim.c **** 
 188:App/Src/voltage_sim.c ****   for (uint8_t cell = 1U; cell <= VOLTAGE_SIM_CELL_COUNT; cell++)
 189:App/Src/voltage_sim.c ****   {
 190:App/Src/voltage_sim.c ****     status = VoltageSim_WriteCellVoltageMv(cell, millivolts, 0U);
 191:App/Src/voltage_sim.c ****     if (status != HAL_OK)
 192:App/Src/voltage_sim.c ****     {
 193:App/Src/voltage_sim.c ****       return status;
 194:App/Src/voltage_sim.c ****     }
 195:App/Src/voltage_sim.c **** 
 196:App/Src/voltage_sim.c ****     VoltageSim_ClearFaultRecord(cell);
 197:App/Src/voltage_sim.c ****   }
 198:App/Src/voltage_sim.c **** 
 199:App/Src/voltage_sim.c ****   DAC_LDAC_Update();
 200:App/Src/voltage_sim.c ****   return HAL_OK;
 201:App/Src/voltage_sim.c **** }
 202:App/Src/voltage_sim.c **** 
 203:App/Src/voltage_sim.c **** HAL_StatusTypeDef VoltageSim_InjectCellOverVoltage(uint8_t cell, uint16_t targetMillivolts)
 204:App/Src/voltage_sim.c **** {
 205:App/Src/voltage_sim.c ****   return VoltageSim_InjectCellFault(cell,
 206:App/Src/voltage_sim.c ****                                     targetMillivolts,
 207:App/Src/voltage_sim.c ****                                     VOLTAGE_SIM_FAULT_OVER_VOLTAGE,
 208:App/Src/voltage_sim.c ****                                     0U,
 209:App/Src/voltage_sim.c ****                                     0U);
 210:App/Src/voltage_sim.c **** }
 211:App/Src/voltage_sim.c **** 
 212:App/Src/voltage_sim.c **** HAL_StatusTypeDef VoltageSim_InjectCellUnderVoltage(uint8_t cell, uint16_t targetMillivolts)
 213:App/Src/voltage_sim.c **** {
 214:App/Src/voltage_sim.c ****   return VoltageSim_InjectCellFault(cell,
 215:App/Src/voltage_sim.c ****                                     targetMillivolts,
 216:App/Src/voltage_sim.c ****                                     VOLTAGE_SIM_FAULT_UNDER_VOLTAGE,
 217:App/Src/voltage_sim.c ****                                     0U,
 218:App/Src/voltage_sim.c ****                                     0U);
 219:App/Src/voltage_sim.c **** }
 220:App/Src/voltage_sim.c **** 
 221:App/Src/voltage_sim.c **** HAL_StatusTypeDef VoltageSim_InjectCellOverVoltageFor(uint8_t cell,
 222:App/Src/voltage_sim.c ****                                                       uint16_t targetMillivolts,
 223:App/Src/voltage_sim.c ****                                                       uint32_t durationMs)
 224:App/Src/voltage_sim.c **** {
 225:App/Src/voltage_sim.c ****   return VoltageSim_InjectCellFault(cell,
 226:App/Src/voltage_sim.c ****                                     targetMillivolts,
 227:App/Src/voltage_sim.c ****                                     VOLTAGE_SIM_FAULT_OVER_VOLTAGE,
ARM GAS  C:\Users\hh\AppData\Local\Temp\ccMm5Nou.s 			page 10


 228:App/Src/voltage_sim.c ****                                     durationMs,
 229:App/Src/voltage_sim.c ****                                     0U);
 230:App/Src/voltage_sim.c **** }
 231:App/Src/voltage_sim.c **** 
 232:App/Src/voltage_sim.c **** HAL_StatusTypeDef VoltageSim_InjectCellUnderVoltageFor(uint8_t cell,
 233:App/Src/voltage_sim.c ****                                                        uint16_t targetMillivolts,
 234:App/Src/voltage_sim.c ****                                                        uint32_t durationMs)
 235:App/Src/voltage_sim.c **** {
 236:App/Src/voltage_sim.c ****   return VoltageSim_InjectCellFault(cell,
 237:App/Src/voltage_sim.c ****                                     targetMillivolts,
 238:App/Src/voltage_sim.c ****                                     VOLTAGE_SIM_FAULT_UNDER_VOLTAGE,
 239:App/Src/voltage_sim.c ****                                     durationMs,
 240:App/Src/voltage_sim.c ****                                     0U);
 241:App/Src/voltage_sim.c **** }
 242:App/Src/voltage_sim.c **** 
 243:App/Src/voltage_sim.c **** HAL_StatusTypeDef VoltageSim_InjectCellOverVoltageRamp(uint8_t cell,
 244:App/Src/voltage_sim.c ****                                                        uint16_t targetMillivolts,
 245:App/Src/voltage_sim.c ****                                                        uint32_t durationMs,
 246:App/Src/voltage_sim.c ****                                                        uint16_t slewRateMvPerMs)
 247:App/Src/voltage_sim.c **** {
 248:App/Src/voltage_sim.c ****   return VoltageSim_InjectCellFault(cell,
 249:App/Src/voltage_sim.c ****                                     targetMillivolts,
 250:App/Src/voltage_sim.c ****                                     VOLTAGE_SIM_FAULT_OVER_VOLTAGE,
 251:App/Src/voltage_sim.c ****                                     durationMs,
 252:App/Src/voltage_sim.c ****                                     slewRateMvPerMs);
 253:App/Src/voltage_sim.c **** }
 254:App/Src/voltage_sim.c **** 
 255:App/Src/voltage_sim.c **** HAL_StatusTypeDef VoltageSim_InjectCellUnderVoltageRamp(uint8_t cell,
 256:App/Src/voltage_sim.c ****                                                         uint16_t targetMillivolts,
 257:App/Src/voltage_sim.c ****                                                         uint32_t durationMs,
 258:App/Src/voltage_sim.c ****                                                         uint16_t slewRateMvPerMs)
 259:App/Src/voltage_sim.c **** {
 260:App/Src/voltage_sim.c ****   return VoltageSim_InjectCellFault(cell,
 261:App/Src/voltage_sim.c ****                                     targetMillivolts,
 262:App/Src/voltage_sim.c ****                                     VOLTAGE_SIM_FAULT_UNDER_VOLTAGE,
 263:App/Src/voltage_sim.c ****                                     durationMs,
 264:App/Src/voltage_sim.c ****                                     slewRateMvPerMs);
 265:App/Src/voltage_sim.c **** }
 266:App/Src/voltage_sim.c **** 
 267:App/Src/voltage_sim.c **** HAL_StatusTypeDef VoltageSim_InjectVoltageDifference(uint8_t highCell,
 268:App/Src/voltage_sim.c ****                                                      uint16_t highMillivolts,
 269:App/Src/voltage_sim.c ****                                                      uint8_t lowCell,
 270:App/Src/voltage_sim.c ****                                                      uint16_t lowMillivolts,
 271:App/Src/voltage_sim.c ****                                                      uint32_t durationMs,
 272:App/Src/voltage_sim.c ****                                                      uint16_t slewRateMvPerMs)
 273:App/Src/voltage_sim.c **** {
 274:App/Src/voltage_sim.c ****   HAL_StatusTypeDef status;
 275:App/Src/voltage_sim.c **** 
 276:App/Src/voltage_sim.c ****   if ((highCell == lowCell) || (highMillivolts <= lowMillivolts))
 277:App/Src/voltage_sim.c ****   {
 278:App/Src/voltage_sim.c ****     return HAL_ERROR;
 279:App/Src/voltage_sim.c ****   }
 280:App/Src/voltage_sim.c **** 
 281:App/Src/voltage_sim.c ****   status = VoltageSim_InjectCellOverVoltageRamp(highCell,
 282:App/Src/voltage_sim.c ****                                                 highMillivolts,
 283:App/Src/voltage_sim.c ****                                                 durationMs,
 284:App/Src/voltage_sim.c ****                                                 slewRateMvPerMs);
ARM GAS  C:\Users\hh\AppData\Local\Temp\ccMm5Nou.s 			page 11


 285:App/Src/voltage_sim.c ****   if (status != HAL_OK)
 286:App/Src/voltage_sim.c ****   {
 287:App/Src/voltage_sim.c ****     return status;
 288:App/Src/voltage_sim.c ****   }
 289:App/Src/voltage_sim.c **** 
 290:App/Src/voltage_sim.c ****   status = VoltageSim_InjectCellUnderVoltageRamp(lowCell,
 291:App/Src/voltage_sim.c ****                                                  lowMillivolts,
 292:App/Src/voltage_sim.c ****                                                  durationMs,
 293:App/Src/voltage_sim.c ****                                                  slewRateMvPerMs);
 294:App/Src/voltage_sim.c ****   if (status != HAL_OK)
 295:App/Src/voltage_sim.c ****   {
 296:App/Src/voltage_sim.c ****     (void)VoltageSim_ClearCellFault(highCell);
 297:App/Src/voltage_sim.c ****     return status;
 298:App/Src/voltage_sim.c ****   }
 299:App/Src/voltage_sim.c **** 
 300:App/Src/voltage_sim.c ****   return HAL_OK;
 301:App/Src/voltage_sim.c **** }
 302:App/Src/voltage_sim.c **** 
 303:App/Src/voltage_sim.c **** HAL_StatusTypeDef VoltageSim_ClearCellFault(uint8_t cell)
 304:App/Src/voltage_sim.c **** {
 305:App/Src/voltage_sim.c ****   HAL_StatusTypeDef status;
 306:App/Src/voltage_sim.c ****   VoltageSim_CellFaultInfo *info;
 307:App/Src/voltage_sim.c **** 
 308:App/Src/voltage_sim.c ****   if (VoltageSim_IsValidCell(cell) == 0U)
 309:App/Src/voltage_sim.c ****   {
 310:App/Src/voltage_sim.c ****     return HAL_ERROR;
 311:App/Src/voltage_sim.c ****   }
 312:App/Src/voltage_sim.c **** 
 313:App/Src/voltage_sim.c ****   info = &cellFaultInfo[cell - 1U];
 314:App/Src/voltage_sim.c ****   if (info->type == VOLTAGE_SIM_FAULT_NONE)
 315:App/Src/voltage_sim.c ****   {
 316:App/Src/voltage_sim.c ****     return HAL_OK;
 317:App/Src/voltage_sim.c ****   }
 318:App/Src/voltage_sim.c **** 
 319:App/Src/voltage_sim.c ****   status = VoltageSim_WriteCellVoltageMv(cell, info->restoreMillivolts, 1U);
 320:App/Src/voltage_sim.c ****   if (status == HAL_OK)
 321:App/Src/voltage_sim.c ****   {
 322:App/Src/voltage_sim.c ****     VoltageSim_ClearFaultRecord(cell);
 323:App/Src/voltage_sim.c ****   }
 324:App/Src/voltage_sim.c **** 
 325:App/Src/voltage_sim.c ****   return status;
 326:App/Src/voltage_sim.c **** }
 327:App/Src/voltage_sim.c **** 
 328:App/Src/voltage_sim.c **** HAL_StatusTypeDef VoltageSim_ClearAllFaults(void)
 329:App/Src/voltage_sim.c **** {
 330:App/Src/voltage_sim.c ****   HAL_StatusTypeDef status;
 331:App/Src/voltage_sim.c **** 
 332:App/Src/voltage_sim.c ****   for (uint8_t cell = 1U; cell <= VOLTAGE_SIM_CELL_COUNT; cell++)
 333:App/Src/voltage_sim.c ****   {
 334:App/Src/voltage_sim.c ****     status = VoltageSim_ClearCellFault(cell);
 335:App/Src/voltage_sim.c ****     if (status != HAL_OK)
 336:App/Src/voltage_sim.c ****     {
 337:App/Src/voltage_sim.c ****       return status;
 338:App/Src/voltage_sim.c ****     }
 339:App/Src/voltage_sim.c ****   }
 340:App/Src/voltage_sim.c **** 
 341:App/Src/voltage_sim.c ****   return HAL_OK;
ARM GAS  C:\Users\hh\AppData\Local\Temp\ccMm5Nou.s 			page 12


 342:App/Src/voltage_sim.c **** }
 343:App/Src/voltage_sim.c **** 
 344:App/Src/voltage_sim.c **** HAL_StatusTypeDef VoltageSim_Process(uint32_t nowMs)
 345:App/Src/voltage_sim.c **** {
 346:App/Src/voltage_sim.c ****   HAL_StatusTypeDef status;
 347:App/Src/voltage_sim.c ****   uint8_t outputChanged = 0U;
 348:App/Src/voltage_sim.c **** 
 349:App/Src/voltage_sim.c ****   for (uint8_t cell = 1U; cell <= VOLTAGE_SIM_CELL_COUNT; cell++)
 350:App/Src/voltage_sim.c ****   {
 351:App/Src/voltage_sim.c ****     uint8_t index = (uint8_t)(cell - 1U);
 352:App/Src/voltage_sim.c ****     VoltageSim_CellFaultInfo *info = &cellFaultInfo[index];
 353:App/Src/voltage_sim.c ****     uint16_t targetMillivolts;
 354:App/Src/voltage_sim.c ****     uint16_t nextMillivolts;
 355:App/Src/voltage_sim.c ****     uint32_t elapsedMs;
 356:App/Src/voltage_sim.c ****     uint32_t maxStepMv;
 357:App/Src/voltage_sim.c **** 
 358:App/Src/voltage_sim.c ****     if (info->type == VOLTAGE_SIM_FAULT_NONE)
 359:App/Src/voltage_sim.c ****     {
 360:App/Src/voltage_sim.c ****       continue;
 361:App/Src/voltage_sim.c ****     }
 362:App/Src/voltage_sim.c **** 
 363:App/Src/voltage_sim.c ****     if (faultLastUpdateMs[index] == 0U)
 364:App/Src/voltage_sim.c ****     {
 365:App/Src/voltage_sim.c ****       faultLastUpdateMs[index] = nowMs;
 366:App/Src/voltage_sim.c ****     }
 367:App/Src/voltage_sim.c **** 
 368:App/Src/voltage_sim.c ****     elapsedMs = nowMs - faultLastUpdateMs[index];
 369:App/Src/voltage_sim.c ****     targetMillivolts = (faultRestoring[index] != 0U) ?
 370:App/Src/voltage_sim.c ****                        info->restoreMillivolts :
 371:App/Src/voltage_sim.c ****                        info->targetMillivolts;
 372:App/Src/voltage_sim.c **** 
 373:App/Src/voltage_sim.c ****     if (cellVoltageMv[index] != targetMillivolts)
 374:App/Src/voltage_sim.c ****     {
 375:App/Src/voltage_sim.c ****       maxStepMv = (info->slewRateMvPerMs == 0U) ?
 376:App/Src/voltage_sim.c ****                   0U :
 377:App/Src/voltage_sim.c ****                   ((uint32_t)info->slewRateMvPerMs * elapsedMs);
 378:App/Src/voltage_sim.c **** 
 379:App/Src/voltage_sim.c ****       if ((info->slewRateMvPerMs != 0U) && (maxStepMv == 0U))
 380:App/Src/voltage_sim.c ****       {
 381:App/Src/voltage_sim.c ****         continue;
 382:App/Src/voltage_sim.c ****       }
 383:App/Src/voltage_sim.c **** 
 384:App/Src/voltage_sim.c ****       if (maxStepMv > VOLTAGE_SIM_MAX_MV)
 385:App/Src/voltage_sim.c ****       {
 386:App/Src/voltage_sim.c ****         maxStepMv = VOLTAGE_SIM_MAX_MV;
 387:App/Src/voltage_sim.c ****       }
 388:App/Src/voltage_sim.c **** 
 389:App/Src/voltage_sim.c ****       nextMillivolts = VoltageSim_CalculateNextVoltage(cellVoltageMv[index],
 390:App/Src/voltage_sim.c ****                                                        targetMillivolts,
 391:App/Src/voltage_sim.c ****                                                        maxStepMv);
 392:App/Src/voltage_sim.c ****       status = VoltageSim_WriteCellVoltageMv(cell, nextMillivolts, 0U);
 393:App/Src/voltage_sim.c ****       if (status != HAL_OK)
 394:App/Src/voltage_sim.c ****       {
 395:App/Src/voltage_sim.c ****         return status;
 396:App/Src/voltage_sim.c ****       }
 397:App/Src/voltage_sim.c **** 
 398:App/Src/voltage_sim.c ****       outputChanged = 1U;
ARM GAS  C:\Users\hh\AppData\Local\Temp\ccMm5Nou.s 			page 13


 399:App/Src/voltage_sim.c ****       faultLastUpdateMs[index] = nowMs;
 400:App/Src/voltage_sim.c **** 
 401:App/Src/voltage_sim.c ****       if ((faultRestoring[index] == 0U) &&
 402:App/Src/voltage_sim.c ****           (nextMillivolts == info->targetMillivolts) &&
 403:App/Src/voltage_sim.c ****           (faultHoldStartedMs[index] == 0U))
 404:App/Src/voltage_sim.c ****       {
 405:App/Src/voltage_sim.c ****         faultHoldStartedMs[index] = nowMs;
 406:App/Src/voltage_sim.c ****       }
 407:App/Src/voltage_sim.c **** 
 408:App/Src/voltage_sim.c ****       if ((faultRestoring[index] != 0U) && (nextMillivolts == info->restoreMillivolts))
 409:App/Src/voltage_sim.c ****       {
 410:App/Src/voltage_sim.c ****         VoltageSim_ClearFaultRecord(cell);
 411:App/Src/voltage_sim.c ****       }
 412:App/Src/voltage_sim.c **** 
 413:App/Src/voltage_sim.c ****       continue;
 414:App/Src/voltage_sim.c ****     }
 415:App/Src/voltage_sim.c **** 
 416:App/Src/voltage_sim.c ****     faultLastUpdateMs[index] = nowMs;
 417:App/Src/voltage_sim.c **** 
 418:App/Src/voltage_sim.c ****     if (faultRestoring[index] != 0U)
 419:App/Src/voltage_sim.c ****     {
 420:App/Src/voltage_sim.c ****       VoltageSim_ClearFaultRecord(cell);
 421:App/Src/voltage_sim.c ****       continue;
 422:App/Src/voltage_sim.c ****     }
 423:App/Src/voltage_sim.c **** 
 424:App/Src/voltage_sim.c ****     if (faultHoldStartedMs[index] == 0U)
 425:App/Src/voltage_sim.c ****     {
 426:App/Src/voltage_sim.c ****       faultHoldStartedMs[index] = nowMs;
 427:App/Src/voltage_sim.c ****     }
 428:App/Src/voltage_sim.c **** 
 429:App/Src/voltage_sim.c ****     if ((info->durationMs > 0U) && ((nowMs - faultHoldStartedMs[index]) >= info->durationMs))
 430:App/Src/voltage_sim.c ****     {
 431:App/Src/voltage_sim.c ****       faultRestoring[index] = 1U;
 432:App/Src/voltage_sim.c ****     }
 433:App/Src/voltage_sim.c ****   }
 434:App/Src/voltage_sim.c **** 
 435:App/Src/voltage_sim.c ****   if (outputChanged != 0U)
 436:App/Src/voltage_sim.c ****   {
 437:App/Src/voltage_sim.c ****     DAC_LDAC_Update();
 438:App/Src/voltage_sim.c ****   }
 439:App/Src/voltage_sim.c **** 
 440:App/Src/voltage_sim.c ****   return HAL_OK;
 441:App/Src/voltage_sim.c **** }
 442:App/Src/voltage_sim.c **** 
 443:App/Src/voltage_sim.c **** uint16_t VoltageSim_MillivoltsToDacCode(uint16_t millivolts)
 444:App/Src/voltage_sim.c **** {
 291              		.loc 1 444 1 is_stmt 1 view -0
 292              		.cfi_startproc
 293              		@ args = 0, pretend = 0, frame = 0
 294              		@ frame_needed = 0, uses_anonymous_args = 0
 295              		@ link register save eliminated.
 445:App/Src/voltage_sim.c ****   if (millivolts >= VOLTAGE_SIM_MAX_MV)
 296              		.loc 1 445 3 view .LVU75
 297              		.loc 1 445 6 is_stmt 0 view .LVU76
 298 0000 41F28733 		movw	r3, #4999
 299 0004 9842     		cmp	r0, r3
 300 0006 09D8     		bhi	.L26
ARM GAS  C:\Users\hh\AppData\Local\Temp\ccMm5Nou.s 			page 14


 446:App/Src/voltage_sim.c ****   {
 447:App/Src/voltage_sim.c ****     return 0xFFFFU;
 448:App/Src/voltage_sim.c ****   }
 449:App/Src/voltage_sim.c **** 
 450:App/Src/voltage_sim.c ****   return (uint16_t)((((uint32_t)millivolts * 0xFFFFU) + (VOLTAGE_SIM_MAX_MV / 2U)) /
 301              		.loc 1 450 3 is_stmt 1 view .LVU77
 302              		.loc 1 450 44 is_stmt 0 view .LVU78
 303 0008 C0EB0040 		rsb	r0, r0, r0, lsl #16
 304              	.LVL24:
 305              		.loc 1 450 55 view .LVU79
 306 000c 00F6C410 		addw	r0, r0, #2500
 307              		.loc 1 450 84 view .LVU80
 308 0010 044B     		ldr	r3, .L27
 309 0012 A3FB0030 		umull	r3, r0, r3, r0
 310              		.loc 1 450 10 view .LVU81
 311 0016 C0F30F30 		ubfx	r0, r0, #12, #16
 312 001a 7047     		bx	lr
 313              	.LVL25:
 314              	.L26:
 447:App/Src/voltage_sim.c ****   }
 315              		.loc 1 447 12 view .LVU82
 316 001c 4FF6FF70 		movw	r0, #65535
 317              	.LVL26:
 451:App/Src/voltage_sim.c ****                     VOLTAGE_SIM_MAX_MV);
 452:App/Src/voltage_sim.c **** }
 318              		.loc 1 452 1 view .LVU83
 319 0020 7047     		bx	lr
 320              	.L28:
 321 0022 00BF     		.align	2
 322              	.L27:
 323 0024 5917B7D1 		.word	-776530087
 324              		.cfi_endproc
 325              	.LFE166:
 327              		.section	.text.VoltageSim_WriteCellVoltageMv,"ax",%progbits
 328              		.align	1
 329              		.syntax unified
 330              		.thumb
 331              		.thumb_func
 333              	VoltageSim_WriteCellVoltageMv:
 334              	.LVL27:
 335              	.LFB150:
  54:App/Src/voltage_sim.c ****   HAL_StatusTypeDef status;
 336              		.loc 1 54 1 is_stmt 1 view -0
 337              		.cfi_startproc
 338              		@ args = 0, pretend = 0, frame = 0
 339              		@ frame_needed = 0, uses_anonymous_args = 0
  54:App/Src/voltage_sim.c ****   HAL_StatusTypeDef status;
 340              		.loc 1 54 1 is_stmt 0 view .LVU85
 341 0000 F8B5     		push	{r3, r4, r5, r6, r7, lr}
 342              	.LCFI0:
 343              		.cfi_def_cfa_offset 24
 344              		.cfi_offset 3, -24
 345              		.cfi_offset 4, -20
 346              		.cfi_offset 5, -16
 347              		.cfi_offset 6, -12
 348              		.cfi_offset 7, -8
 349              		.cfi_offset 14, -4
ARM GAS  C:\Users\hh\AppData\Local\Temp\ccMm5Nou.s 			page 15


 350 0002 0446     		mov	r4, r0
 351 0004 0E46     		mov	r6, r1
 352 0006 1546     		mov	r5, r2
  55:App/Src/voltage_sim.c ****   uint16_t dacCode;
 353              		.loc 1 55 3 is_stmt 1 view .LVU86
  56:App/Src/voltage_sim.c ****   uint16_t calibratedMillivolts;
 354              		.loc 1 56 3 view .LVU87
  57:App/Src/voltage_sim.c **** 
 355              		.loc 1 57 3 view .LVU88
  59:App/Src/voltage_sim.c ****   {
 356              		.loc 1 59 3 view .LVU89
  59:App/Src/voltage_sim.c ****   {
 357              		.loc 1 59 8 is_stmt 0 view .LVU90
 358 0008 FFF7FEFF 		bl	VoltageSim_IsValidCell
 359              	.LVL28:
  59:App/Src/voltage_sim.c ****   {
 360              		.loc 1 59 6 discriminator 1 view .LVU91
 361 000c E8B1     		cbz	r0, .L31
  59:App/Src/voltage_sim.c ****   {
 362              		.loc 1 59 48 discriminator 2 view .LVU92
 363 000e 3046     		mov	r0, r6
 364 0010 FFF7FEFF 		bl	VoltageSim_IsValidVoltage
 365              	.LVL29:
  59:App/Src/voltage_sim.c ****   {
 366              		.loc 1 59 44 discriminator 3 view .LVU93
 367 0014 10B9     		cbnz	r0, .L35
  61:App/Src/voltage_sim.c ****   }
 368              		.loc 1 61 12 view .LVU94
 369 0016 0123     		movs	r3, #1
 370 0018 1F46     		mov	r7, r3
 371 001a 18E0     		b	.L30
 372              	.L35:
  64:App/Src/voltage_sim.c ****   dacCode = VoltageSim_MillivoltsToDacCode(calibratedMillivolts);
 373              		.loc 1 64 3 is_stmt 1 view .LVU95
  64:App/Src/voltage_sim.c ****   dacCode = VoltageSim_MillivoltsToDacCode(calibratedMillivolts);
 374              		.loc 1 64 26 is_stmt 0 view .LVU96
 375 001c 3146     		mov	r1, r6
 376 001e 2046     		mov	r0, r4
 377 0020 FFF7FEFF 		bl	VoltageSim_ApplyCalibration
 378              	.LVL30:
  65:App/Src/voltage_sim.c ****   status = DAC_WriteChannel((uint8_t)(cell - 1U), dacCode);
 379              		.loc 1 65 3 is_stmt 1 view .LVU97
  65:App/Src/voltage_sim.c ****   status = DAC_WriteChannel((uint8_t)(cell - 1U), dacCode);
 380              		.loc 1 65 13 is_stmt 0 view .LVU98
 381 0024 FFF7FEFF 		bl	VoltageSim_MillivoltsToDacCode
 382              	.LVL31:
  65:App/Src/voltage_sim.c ****   status = DAC_WriteChannel((uint8_t)(cell - 1U), dacCode);
 383              		.loc 1 65 13 view .LVU99
 384 0028 0146     		mov	r1, r0
 385              	.LVL32:
  66:App/Src/voltage_sim.c ****   if (status != HAL_OK)
 386              		.loc 1 66 3 is_stmt 1 view .LVU100
  66:App/Src/voltage_sim.c ****   if (status != HAL_OK)
 387              		.loc 1 66 29 is_stmt 0 view .LVU101
 388 002a 631E     		subs	r3, r4, #1
  66:App/Src/voltage_sim.c ****   if (status != HAL_OK)
 389              		.loc 1 66 12 view .LVU102
ARM GAS  C:\Users\hh\AppData\Local\Temp\ccMm5Nou.s 			page 16


 390 002c D8B2     		uxtb	r0, r3
 391 002e FFF7FEFF 		bl	DAC_WriteChannel
 392              	.LVL33:
  67:App/Src/voltage_sim.c ****   {
 393              		.loc 1 67 3 is_stmt 1 view .LVU103
  67:App/Src/voltage_sim.c ****   {
 394              		.loc 1 67 6 is_stmt 0 view .LVU104
 395 0032 0746     		mov	r7, r0
 396 0034 58B9     		cbnz	r0, .L30
  72:App/Src/voltage_sim.c **** 
 397              		.loc 1 72 3 is_stmt 1 view .LVU105
  72:App/Src/voltage_sim.c **** 
 398              		.loc 1 72 22 is_stmt 0 view .LVU106
 399 0036 601E     		subs	r0, r4, #1
 400              	.LVL34:
  72:App/Src/voltage_sim.c **** 
 401              		.loc 1 72 28 view .LVU107
 402 0038 064B     		ldr	r3, .L37
 403 003a 23F81060 		strh	r6, [r3, r0, lsl #1]	@ movhi
  74:App/Src/voltage_sim.c ****   {
 404              		.loc 1 74 3 is_stmt 1 view .LVU108
  74:App/Src/voltage_sim.c ****   {
 405              		.loc 1 74 6 is_stmt 0 view .LVU109
 406 003e 0DB9     		cbnz	r5, .L36
  79:App/Src/voltage_sim.c **** }
 407              		.loc 1 79 10 view .LVU110
 408 0040 2F46     		mov	r7, r5
 409              	.LVL35:
  79:App/Src/voltage_sim.c **** }
 410              		.loc 1 79 10 view .LVU111
 411 0042 04E0     		b	.L30
 412              	.LVL36:
 413              	.L36:
  76:App/Src/voltage_sim.c ****   }
 414              		.loc 1 76 5 is_stmt 1 view .LVU112
 415 0044 FFF7FEFF 		bl	DAC_LDAC_Update
 416              	.LVL37:
 417 0048 01E0     		b	.L30
 418              	.LVL38:
 419              	.L31:
  61:App/Src/voltage_sim.c ****   }
 420              		.loc 1 61 12 is_stmt 0 view .LVU113
 421 004a 0123     		movs	r3, #1
 422 004c 1F46     		mov	r7, r3
 423              	.L30:
  80:App/Src/voltage_sim.c **** 
 424              		.loc 1 80 1 view .LVU114
 425 004e 3846     		mov	r0, r7
 426 0050 F8BD     		pop	{r3, r4, r5, r6, r7, pc}
 427              	.LVL39:
 428              	.L38:
  80:App/Src/voltage_sim.c **** 
 429              		.loc 1 80 1 view .LVU115
 430 0052 00BF     		.align	2
 431              	.L37:
 432 0054 00000000 		.word	cellVoltageMv
 433              		.cfi_endproc
ARM GAS  C:\Users\hh\AppData\Local\Temp\ccMm5Nou.s 			page 17


 434              	.LFE150:
 436              		.section	.text.VoltageSim_SetCellVoltageMv,"ax",%progbits
 437              		.align	1
 438              		.global	VoltageSim_SetCellVoltageMv
 439              		.syntax unified
 440              		.thumb
 441              		.thumb_func
 443              	VoltageSim_SetCellVoltageMv:
 444              	.LVL40:
 445              	.LFB154:
 168:App/Src/voltage_sim.c ****   HAL_StatusTypeDef status = VoltageSim_WriteCellVoltageMv(cell, millivolts, 1U);
 446              		.loc 1 168 1 is_stmt 1 view -0
 447              		.cfi_startproc
 448              		@ args = 0, pretend = 0, frame = 0
 449              		@ frame_needed = 0, uses_anonymous_args = 0
 168:App/Src/voltage_sim.c ****   HAL_StatusTypeDef status = VoltageSim_WriteCellVoltageMv(cell, millivolts, 1U);
 450              		.loc 1 168 1 is_stmt 0 view .LVU117
 451 0000 38B5     		push	{r3, r4, r5, lr}
 452              	.LCFI1:
 453              		.cfi_def_cfa_offset 16
 454              		.cfi_offset 3, -16
 455              		.cfi_offset 4, -12
 456              		.cfi_offset 5, -8
 457              		.cfi_offset 14, -4
 458 0002 0546     		mov	r5, r0
 169:App/Src/voltage_sim.c **** 
 459              		.loc 1 169 3 is_stmt 1 view .LVU118
 169:App/Src/voltage_sim.c **** 
 460              		.loc 1 169 30 is_stmt 0 view .LVU119
 461 0004 0122     		movs	r2, #1
 462 0006 FFF7FEFF 		bl	VoltageSim_WriteCellVoltageMv
 463              	.LVL41:
 171:App/Src/voltage_sim.c ****   {
 464              		.loc 1 171 3 is_stmt 1 view .LVU120
 171:App/Src/voltage_sim.c ****   {
 465              		.loc 1 171 6 is_stmt 0 view .LVU121
 466 000a 0446     		mov	r4, r0
 467 000c 08B1     		cbz	r0, .L42
 468              	.LVL42:
 469              	.L40:
 176:App/Src/voltage_sim.c **** }
 470              		.loc 1 176 3 is_stmt 1 view .LVU122
 177:App/Src/voltage_sim.c **** 
 471              		.loc 1 177 1 is_stmt 0 view .LVU123
 472 000e 2046     		mov	r0, r4
 473 0010 38BD     		pop	{r3, r4, r5, pc}
 474              	.LVL43:
 475              	.L42:
 173:App/Src/voltage_sim.c ****   }
 476              		.loc 1 173 5 is_stmt 1 view .LVU124
 477 0012 2846     		mov	r0, r5
 478              	.LVL44:
 173:App/Src/voltage_sim.c ****   }
 479              		.loc 1 173 5 is_stmt 0 view .LVU125
 480 0014 FFF7FEFF 		bl	VoltageSim_ClearFaultRecord
 481              	.LVL45:
 482 0018 F9E7     		b	.L40
ARM GAS  C:\Users\hh\AppData\Local\Temp\ccMm5Nou.s 			page 18


 483              		.cfi_endproc
 484              	.LFE154:
 486              		.section	.text.VoltageSim_SetAllCellsVoltageMv,"ax",%progbits
 487              		.align	1
 488              		.global	VoltageSim_SetAllCellsVoltageMv
 489              		.syntax unified
 490              		.thumb
 491              		.thumb_func
 493              	VoltageSim_SetAllCellsVoltageMv:
 494              	.LVL46:
 495              	.LFB155:
 180:App/Src/voltage_sim.c ****   HAL_StatusTypeDef status;
 496              		.loc 1 180 1 is_stmt 1 view -0
 497              		.cfi_startproc
 498              		@ args = 0, pretend = 0, frame = 0
 499              		@ frame_needed = 0, uses_anonymous_args = 0
 180:App/Src/voltage_sim.c ****   HAL_StatusTypeDef status;
 500              		.loc 1 180 1 is_stmt 0 view .LVU127
 501 0000 38B5     		push	{r3, r4, r5, lr}
 502              	.LCFI2:
 503              		.cfi_def_cfa_offset 16
 504              		.cfi_offset 3, -16
 505              		.cfi_offset 4, -12
 506              		.cfi_offset 5, -8
 507              		.cfi_offset 14, -4
 508 0002 0546     		mov	r5, r0
 181:App/Src/voltage_sim.c **** 
 509              		.loc 1 181 3 is_stmt 1 view .LVU128
 183:App/Src/voltage_sim.c ****   {
 510              		.loc 1 183 3 view .LVU129
 183:App/Src/voltage_sim.c ****   {
 511              		.loc 1 183 7 is_stmt 0 view .LVU130
 512 0004 FFF7FEFF 		bl	VoltageSim_IsValidVoltage
 513              	.LVL47:
 183:App/Src/voltage_sim.c ****   {
 514              		.loc 1 183 6 discriminator 1 view .LVU131
 515 0008 A0B1     		cbz	r0, .L47
 516              	.LBB2:
 188:App/Src/voltage_sim.c ****   {
 517              		.loc 1 188 16 view .LVU132
 518 000a 0124     		movs	r4, #1
 519              	.L45:
 520              	.LVL48:
 188:App/Src/voltage_sim.c ****   {
 521              		.loc 1 188 32 is_stmt 1 discriminator 1 view .LVU133
 522 000c 0D2C     		cmp	r4, #13
 523 000e 0CD8     		bhi	.L49
 190:App/Src/voltage_sim.c ****     if (status != HAL_OK)
 524              		.loc 1 190 5 view .LVU134
 190:App/Src/voltage_sim.c ****     if (status != HAL_OK)
 525              		.loc 1 190 14 is_stmt 0 view .LVU135
 526 0010 0022     		movs	r2, #0
 527 0012 2946     		mov	r1, r5
 528 0014 2046     		mov	r0, r4
 529 0016 FFF7FEFF 		bl	VoltageSim_WriteCellVoltageMv
 530              	.LVL49:
 191:App/Src/voltage_sim.c ****     {
ARM GAS  C:\Users\hh\AppData\Local\Temp\ccMm5Nou.s 			page 19


 531              		.loc 1 191 5 is_stmt 1 view .LVU136
 191:App/Src/voltage_sim.c ****     {
 532              		.loc 1 191 8 is_stmt 0 view .LVU137
 533 001a 0346     		mov	r3, r0
 534 001c 40B9     		cbnz	r0, .L44
 196:App/Src/voltage_sim.c ****   }
 535              		.loc 1 196 5 is_stmt 1 view .LVU138
 536 001e 2046     		mov	r0, r4
 537              	.LVL50:
 196:App/Src/voltage_sim.c ****   }
 538              		.loc 1 196 5 is_stmt 0 view .LVU139
 539 0020 FFF7FEFF 		bl	VoltageSim_ClearFaultRecord
 540              	.LVL51:
 188:App/Src/voltage_sim.c ****   {
 541              		.loc 1 188 63 is_stmt 1 discriminator 2 view .LVU140
 542 0024 0134     		adds	r4, r4, #1
 543              	.LVL52:
 188:App/Src/voltage_sim.c ****   {
 544              		.loc 1 188 63 is_stmt 0 discriminator 2 view .LVU141
 545 0026 E4B2     		uxtb	r4, r4
 546              	.LVL53:
 188:App/Src/voltage_sim.c ****   {
 547              		.loc 1 188 63 discriminator 2 view .LVU142
 548 0028 F0E7     		b	.L45
 549              	.LVL54:
 550              	.L49:
 188:App/Src/voltage_sim.c ****   {
 551              		.loc 1 188 63 discriminator 2 view .LVU143
 552              	.LBE2:
 199:App/Src/voltage_sim.c ****   return HAL_OK;
 553              		.loc 1 199 3 is_stmt 1 view .LVU144
 554 002a FFF7FEFF 		bl	DAC_LDAC_Update
 555              	.LVL55:
 200:App/Src/voltage_sim.c **** }
 556              		.loc 1 200 3 view .LVU145
 200:App/Src/voltage_sim.c **** }
 557              		.loc 1 200 10 is_stmt 0 view .LVU146
 558 002e 0023     		movs	r3, #0
 559              	.LVL56:
 560              	.L44:
 201:App/Src/voltage_sim.c **** 
 561              		.loc 1 201 1 view .LVU147
 562 0030 1846     		mov	r0, r3
 563 0032 38BD     		pop	{r3, r4, r5, pc}
 564              	.LVL57:
 565              	.L47:
 185:App/Src/voltage_sim.c ****   }
 566              		.loc 1 185 12 view .LVU148
 567 0034 0123     		movs	r3, #1
 568 0036 FBE7     		b	.L44
 569              		.cfi_endproc
 570              	.LFE155:
 572              		.section	.text.VoltageSim_Init,"ax",%progbits
 573              		.align	1
 574              		.global	VoltageSim_Init
 575              		.syntax unified
 576              		.thumb
ARM GAS  C:\Users\hh\AppData\Local\Temp\ccMm5Nou.s 			page 20


 577              		.thumb_func
 579              	VoltageSim_Init:
 580              	.LVL58:
 581              	.LFB153:
 163:App/Src/voltage_sim.c ****   return VoltageSim_SetAllCellsVoltageMv(defaultMillivolts);
 582              		.loc 1 163 1 is_stmt 1 view -0
 583              		.cfi_startproc
 584              		@ args = 0, pretend = 0, frame = 0
 585              		@ frame_needed = 0, uses_anonymous_args = 0
 163:App/Src/voltage_sim.c ****   return VoltageSim_SetAllCellsVoltageMv(defaultMillivolts);
 586              		.loc 1 163 1 is_stmt 0 view .LVU150
 587 0000 08B5     		push	{r3, lr}
 588              	.LCFI3:
 589              		.cfi_def_cfa_offset 8
 590              		.cfi_offset 3, -8
 591              		.cfi_offset 14, -4
 164:App/Src/voltage_sim.c **** }
 592              		.loc 1 164 3 is_stmt 1 view .LVU151
 164:App/Src/voltage_sim.c **** }
 593              		.loc 1 164 10 is_stmt 0 view .LVU152
 594 0002 FFF7FEFF 		bl	VoltageSim_SetAllCellsVoltageMv
 595              	.LVL59:
 165:App/Src/voltage_sim.c **** 
 596              		.loc 1 165 1 view .LVU153
 597 0006 08BD     		pop	{r3, pc}
 598              		.cfi_endproc
 599              	.LFE153:
 601              		.section	.text.VoltageSim_InjectCellFault,"ax",%progbits
 602              		.align	1
 603              		.syntax unified
 604              		.thumb
 605              		.thumb_func
 607              	VoltageSim_InjectCellFault:
 608              	.LVL60:
 609              	.LFB151:
  87:App/Src/voltage_sim.c ****   HAL_StatusTypeDef status;
 610              		.loc 1 87 1 is_stmt 1 view -0
 611              		.cfi_startproc
 612              		@ args = 4, pretend = 0, frame = 0
 613              		@ frame_needed = 0, uses_anonymous_args = 0
  87:App/Src/voltage_sim.c ****   HAL_StatusTypeDef status;
 614              		.loc 1 87 1 is_stmt 0 view .LVU155
 615 0000 2DE9F84F 		push	{r3, r4, r5, r6, r7, r8, r9, r10, fp, lr}
 616              	.LCFI4:
 617              		.cfi_def_cfa_offset 40
 618              		.cfi_offset 3, -40
 619              		.cfi_offset 4, -36
 620              		.cfi_offset 5, -32
 621              		.cfi_offset 6, -28
 622              		.cfi_offset 7, -24
 623              		.cfi_offset 8, -20
 624              		.cfi_offset 9, -16
 625              		.cfi_offset 10, -12
 626              		.cfi_offset 11, -8
 627              		.cfi_offset 14, -4
 628 0004 0546     		mov	r5, r0
 629 0006 8246     		mov	r10, r0
ARM GAS  C:\Users\hh\AppData\Local\Temp\ccMm5Nou.s 			page 21


 630 0008 0C46     		mov	r4, r1
 631 000a 0F46     		mov	r7, r1
 632 000c 1646     		mov	r6, r2
 633 000e 9846     		mov	r8, r3
 634 0010 BDF82830 		ldrh	r3, [sp, #40]
 635              	.LVL61:
  87:App/Src/voltage_sim.c ****   HAL_StatusTypeDef status;
 636              		.loc 1 87 1 view .LVU156
 637 0014 9946     		mov	r9, r3
  88:App/Src/voltage_sim.c ****   uint16_t restoreMillivolts;
 638              		.loc 1 88 3 is_stmt 1 view .LVU157
  89:App/Src/voltage_sim.c ****   uint32_t nowMs;
 639              		.loc 1 89 3 view .LVU158
  90:App/Src/voltage_sim.c ****   VoltageSim_CellFaultInfo *info;
 640              		.loc 1 90 3 view .LVU159
  91:App/Src/voltage_sim.c **** 
 641              		.loc 1 91 3 view .LVU160
  93:App/Src/voltage_sim.c ****   {
 642              		.loc 1 93 3 view .LVU161
  93:App/Src/voltage_sim.c ****   {
 643              		.loc 1 93 8 is_stmt 0 view .LVU162
 644 0016 FFF7FEFF 		bl	VoltageSim_IsValidCell
 645              	.LVL62:
  93:App/Src/voltage_sim.c ****   {
 646              		.loc 1 93 6 discriminator 1 view .LVU163
 647 001a 0028     		cmp	r0, #0
 648 001c 49D0     		beq	.L57
  93:App/Src/voltage_sim.c ****   {
 649              		.loc 1 93 48 discriminator 2 view .LVU164
 650 001e 2046     		mov	r0, r4
 651 0020 FFF7FEFF 		bl	VoltageSim_IsValidVoltage
 652              	.LVL63:
  93:App/Src/voltage_sim.c ****   {
 653              		.loc 1 93 44 discriminator 3 view .LVU165
 654 0024 0028     		cmp	r0, #0
 655 0026 49D0     		beq	.L58
  98:App/Src/voltage_sim.c ****   restoreMillivolts = (info->type == VOLTAGE_SIM_FAULT_NONE) ?
 656              		.loc 1 98 3 is_stmt 1 view .LVU166
  98:App/Src/voltage_sim.c ****   restoreMillivolts = (info->type == VOLTAGE_SIM_FAULT_NONE) ?
 657              		.loc 1 98 30 is_stmt 0 view .LVU167
 658 0028 6C1E     		subs	r4, r5, #1
 659              	.LVL64:
  99:App/Src/voltage_sim.c ****                       cellVoltageMv[cell - 1U] :
 660              		.loc 1 99 3 is_stmt 1 view .LVU168
  99:App/Src/voltage_sim.c ****                       cellVoltageMv[cell - 1U] :
 661              		.loc 1 99 28 is_stmt 0 view .LVU169
 662 002a 2301     		lsls	r3, r4, #4
 663 002c 264A     		ldr	r2, .L66
 664 002e D35C     		ldrb	r3, [r2, r3]	@ zero_extendqisi2
  99:App/Src/voltage_sim.c ****                       cellVoltageMv[cell - 1U] :
 665              		.loc 1 99 21 view .LVU170
 666 0030 7BB9     		cbnz	r3, .L54
  99:App/Src/voltage_sim.c ****                       cellVoltageMv[cell - 1U] :
 667              		.loc 1 99 21 discriminator 1 view .LVU171
 668 0032 264B     		ldr	r3, .L66+4
 669 0034 33F81430 		ldrh	r3, [r3, r4, lsl #1]
 670              	.LVL65:
ARM GAS  C:\Users\hh\AppData\Local\Temp\ccMm5Nou.s 			page 22


 671              	.L55:
 103:App/Src/voltage_sim.c ****       ((type == VOLTAGE_SIM_FAULT_UNDER_VOLTAGE) && (targetMillivolts >= restoreMillivolts)))
 672              		.loc 1 103 3 is_stmt 1 view .LVU172
 103:App/Src/voltage_sim.c ****       ((type == VOLTAGE_SIM_FAULT_UNDER_VOLTAGE) && (targetMillivolts >= restoreMillivolts)))
 673              		.loc 1 103 6 is_stmt 0 view .LVU173
 674 0038 3546     		mov	r5, r6
 675              	.LVL66:
 103:App/Src/voltage_sim.c ****       ((type == VOLTAGE_SIM_FAULT_UNDER_VOLTAGE) && (targetMillivolts >= restoreMillivolts)))
 676              		.loc 1 103 6 view .LVU174
 677 003a 1E46     		mov	r6, r3
 678              	.LVL67:
 103:App/Src/voltage_sim.c ****       ((type == VOLTAGE_SIM_FAULT_UNDER_VOLTAGE) && (targetMillivolts >= restoreMillivolts)))
 679              		.loc 1 103 6 view .LVU175
 680 003c BB42     		cmp	r3, r7
 681 003e 28BF     		it	cs
 682 0040 012D     		cmpcs	r5, #1
 683 0042 3ED0     		beq	.L59
 103:App/Src/voltage_sim.c ****       ((type == VOLTAGE_SIM_FAULT_UNDER_VOLTAGE) && (targetMillivolts >= restoreMillivolts)))
 684              		.loc 1 103 93 discriminator 1 view .LVU176
 685 0044 BB42     		cmp	r3, r7
 686 0046 98BF     		it	ls
 687 0048 022D     		cmpls	r5, #2
 688 004a 07D1     		bne	.L63
 106:App/Src/voltage_sim.c ****   }
 689              		.loc 1 106 12 view .LVU177
 690 004c 0123     		movs	r3, #1
 691              	.LVL68:
 106:App/Src/voltage_sim.c ****   }
 692              		.loc 1 106 12 view .LVU178
 693 004e 1D46     		mov	r5, r3
 694              	.LVL69:
 106:App/Src/voltage_sim.c ****   }
 695              		.loc 1 106 12 view .LVU179
 696 0050 31E0     		b	.L53
 697              	.LVL70:
 698              	.L54:
  99:App/Src/voltage_sim.c ****                       cellVoltageMv[cell - 1U] :
 699              		.loc 1 99 21 discriminator 2 view .LVU180
 700 0052 1D4B     		ldr	r3, .L66
 701 0054 03EB0413 		add	r3, r3, r4, lsl #4
 702 0058 9B88     		ldrh	r3, [r3, #4]
 703 005a EDE7     		b	.L55
 704              	.LVL71:
 705              	.L63:
 109:App/Src/voltage_sim.c **** 
 706              		.loc 1 109 3 is_stmt 1 view .LVU181
 109:App/Src/voltage_sim.c **** 
 707              		.loc 1 109 11 is_stmt 0 view .LVU182
 708 005c FFF7FEFF 		bl	HAL_GetTick
 709              	.LVL72:
 109:App/Src/voltage_sim.c **** 
 710              		.loc 1 109 11 view .LVU183
 711 0060 8346     		mov	fp, r0
 712              	.LVL73:
 111:App/Src/voltage_sim.c ****   info->targetMillivolts = targetMillivolts;
 713              		.loc 1 111 3 is_stmt 1 view .LVU184
 111:App/Src/voltage_sim.c ****   info->targetMillivolts = targetMillivolts;
ARM GAS  C:\Users\hh\AppData\Local\Temp\ccMm5Nou.s 			page 23


 714              		.loc 1 111 14 is_stmt 0 view .LVU185
 715 0062 1949     		ldr	r1, .L66
 716 0064 2201     		lsls	r2, r4, #4
 717 0066 01EB0413 		add	r3, r1, r4, lsl #4
 718 006a 8D54     		strb	r5, [r1, r2]
 112:App/Src/voltage_sim.c ****   info->restoreMillivolts = restoreMillivolts;
 719              		.loc 1 112 3 is_stmt 1 view .LVU186
 112:App/Src/voltage_sim.c ****   info->restoreMillivolts = restoreMillivolts;
 720              		.loc 1 112 26 is_stmt 0 view .LVU187
 721 006c 5F80     		strh	r7, [r3, #2]	@ movhi
 113:App/Src/voltage_sim.c ****   info->durationMs = durationMs;
 722              		.loc 1 113 3 is_stmt 1 view .LVU188
 113:App/Src/voltage_sim.c ****   info->durationMs = durationMs;
 723              		.loc 1 113 27 is_stmt 0 view .LVU189
 724 006e 9E80     		strh	r6, [r3, #4]	@ movhi
 114:App/Src/voltage_sim.c ****   info->slewRateMvPerMs = slewRateMvPerMs;
 725              		.loc 1 114 3 is_stmt 1 view .LVU190
 114:App/Src/voltage_sim.c ****   info->slewRateMvPerMs = slewRateMvPerMs;
 726              		.loc 1 114 20 is_stmt 0 view .LVU191
 727 0070 C3F80880 		str	r8, [r3, #8]
 115:App/Src/voltage_sim.c ****   faultLastUpdateMs[cell - 1U] = nowMs;
 728              		.loc 1 115 3 is_stmt 1 view .LVU192
 115:App/Src/voltage_sim.c ****   faultLastUpdateMs[cell - 1U] = nowMs;
 729              		.loc 1 115 25 is_stmt 0 view .LVU193
 730 0074 4946     		mov	r1, r9
 731 0076 A3F80C90 		strh	r9, [r3, #12]	@ movhi
 116:App/Src/voltage_sim.c ****   faultHoldStartedMs[cell - 1U] = 0U;
 732              		.loc 1 116 3 is_stmt 1 view .LVU194
 116:App/Src/voltage_sim.c ****   faultHoldStartedMs[cell - 1U] = 0U;
 733              		.loc 1 116 32 is_stmt 0 view .LVU195
 734 007a 154B     		ldr	r3, .L66+8
 735 007c 43F82400 		str	r0, [r3, r4, lsl #2]
 117:App/Src/voltage_sim.c ****   faultRestoring[cell - 1U] = 0U;
 736              		.loc 1 117 3 is_stmt 1 view .LVU196
 117:App/Src/voltage_sim.c ****   faultRestoring[cell - 1U] = 0U;
 737              		.loc 1 117 33 is_stmt 0 view .LVU197
 738 0080 0023     		movs	r3, #0
 739 0082 144A     		ldr	r2, .L66+12
 740 0084 42F82430 		str	r3, [r2, r4, lsl #2]
 118:App/Src/voltage_sim.c **** 
 741              		.loc 1 118 3 is_stmt 1 view .LVU198
 118:App/Src/voltage_sim.c **** 
 742              		.loc 1 118 29 is_stmt 0 view .LVU199
 743 0088 134A     		ldr	r2, .L66+16
 744 008a 1355     		strb	r3, [r2, r4]
 120:App/Src/voltage_sim.c ****   {
 745              		.loc 1 120 3 is_stmt 1 view .LVU200
 120:App/Src/voltage_sim.c ****   {
 746              		.loc 1 120 6 is_stmt 0 view .LVU201
 747 008c 11B1     		cbz	r1, .L64
 132:App/Src/voltage_sim.c **** }
 748              		.loc 1 132 10 view .LVU202
 749 008e 0023     		movs	r3, #0
 750 0090 1D46     		mov	r5, r3
 751 0092 10E0     		b	.L53
 752              	.L64:
 122:App/Src/voltage_sim.c ****     if (status != HAL_OK)
ARM GAS  C:\Users\hh\AppData\Local\Temp\ccMm5Nou.s 			page 24


 753              		.loc 1 122 5 is_stmt 1 view .LVU203
 122:App/Src/voltage_sim.c ****     if (status != HAL_OK)
 754              		.loc 1 122 14 is_stmt 0 view .LVU204
 755 0094 0122     		movs	r2, #1
 756 0096 3946     		mov	r1, r7
 757 0098 5046     		mov	r0, r10
 758              	.LVL74:
 122:App/Src/voltage_sim.c ****     if (status != HAL_OK)
 759              		.loc 1 122 14 view .LVU205
 760 009a FFF7FEFF 		bl	VoltageSim_WriteCellVoltageMv
 761              	.LVL75:
 123:App/Src/voltage_sim.c ****     {
 762              		.loc 1 123 5 is_stmt 1 view .LVU206
 123:App/Src/voltage_sim.c ****     {
 763              		.loc 1 123 8 is_stmt 0 view .LVU207
 764 009e 0546     		mov	r5, r0
 765 00a0 18B9     		cbnz	r0, .L65
 129:App/Src/voltage_sim.c ****   }
 766              		.loc 1 129 5 is_stmt 1 view .LVU208
 129:App/Src/voltage_sim.c ****   }
 767              		.loc 1 129 35 is_stmt 0 view .LVU209
 768 00a2 0C4B     		ldr	r3, .L66+12
 769 00a4 43F824B0 		str	fp, [r3, r4, lsl #2]
 770 00a8 05E0     		b	.L53
 771              	.L65:
 125:App/Src/voltage_sim.c ****       return status;
 772              		.loc 1 125 7 is_stmt 1 view .LVU210
 773 00aa 5046     		mov	r0, r10
 774              	.LVL76:
 125:App/Src/voltage_sim.c ****       return status;
 775              		.loc 1 125 7 is_stmt 0 view .LVU211
 776 00ac FFF7FEFF 		bl	VoltageSim_ClearFaultRecord
 777              	.LVL77:
 126:App/Src/voltage_sim.c ****     }
 778              		.loc 1 126 7 is_stmt 1 view .LVU212
 126:App/Src/voltage_sim.c ****     }
 779              		.loc 1 126 14 is_stmt 0 view .LVU213
 780 00b0 01E0     		b	.L53
 781              	.LVL78:
 782              	.L57:
  95:App/Src/voltage_sim.c ****   }
 783              		.loc 1 95 12 view .LVU214
 784 00b2 0123     		movs	r3, #1
 785 00b4 1D46     		mov	r5, r3
 786              	.LVL79:
 787              	.L53:
 133:App/Src/voltage_sim.c **** 
 788              		.loc 1 133 1 view .LVU215
 789 00b6 2846     		mov	r0, r5
 790 00b8 BDE8F88F 		pop	{r3, r4, r5, r6, r7, r8, r9, r10, fp, pc}
 791              	.LVL80:
 792              	.L58:
  95:App/Src/voltage_sim.c ****   }
 793              		.loc 1 95 12 view .LVU216
 794 00bc 0123     		movs	r3, #1
 795 00be 1D46     		mov	r5, r3
 796 00c0 F9E7     		b	.L53
ARM GAS  C:\Users\hh\AppData\Local\Temp\ccMm5Nou.s 			page 25


 797              	.LVL81:
 798              	.L59:
 106:App/Src/voltage_sim.c ****   }
 799              		.loc 1 106 12 view .LVU217
 800 00c2 0123     		movs	r3, #1
 801              	.LVL82:
 106:App/Src/voltage_sim.c ****   }
 802              		.loc 1 106 12 view .LVU218
 803 00c4 1D46     		mov	r5, r3
 804 00c6 F6E7     		b	.L53
 805              	.L67:
 806              		.align	2
 807              	.L66:
 808 00c8 00000000 		.word	cellFaultInfo
 809 00cc 00000000 		.word	cellVoltageMv
 810 00d0 00000000 		.word	faultLastUpdateMs
 811 00d4 00000000 		.word	faultHoldStartedMs
 812 00d8 00000000 		.word	faultRestoring
 813              		.cfi_endproc
 814              	.LFE151:
 816              		.section	.text.VoltageSim_InjectCellOverVoltage,"ax",%progbits
 817              		.align	1
 818              		.global	VoltageSim_InjectCellOverVoltage
 819              		.syntax unified
 820              		.thumb
 821              		.thumb_func
 823              	VoltageSim_InjectCellOverVoltage:
 824              	.LVL83:
 825              	.LFB156:
 204:App/Src/voltage_sim.c ****   return VoltageSim_InjectCellFault(cell,
 826              		.loc 1 204 1 is_stmt 1 view -0
 827              		.cfi_startproc
 828              		@ args = 0, pretend = 0, frame = 0
 829              		@ frame_needed = 0, uses_anonymous_args = 0
 204:App/Src/voltage_sim.c ****   return VoltageSim_InjectCellFault(cell,
 830              		.loc 1 204 1 is_stmt 0 view .LVU220
 831 0000 00B5     		push	{lr}
 832              	.LCFI5:
 833              		.cfi_def_cfa_offset 4
 834              		.cfi_offset 14, -4
 835 0002 83B0     		sub	sp, sp, #12
 836              	.LCFI6:
 837              		.cfi_def_cfa_offset 16
 205:App/Src/voltage_sim.c ****                                     targetMillivolts,
 838              		.loc 1 205 3 is_stmt 1 view .LVU221
 205:App/Src/voltage_sim.c ****                                     targetMillivolts,
 839              		.loc 1 205 10 is_stmt 0 view .LVU222
 840 0004 0023     		movs	r3, #0
 841 0006 0093     		str	r3, [sp]
 842 0008 0122     		movs	r2, #1
 843 000a FFF7FEFF 		bl	VoltageSim_InjectCellFault
 844              	.LVL84:
 210:App/Src/voltage_sim.c **** 
 845              		.loc 1 210 1 view .LVU223
 846 000e 03B0     		add	sp, sp, #12
 847              	.LCFI7:
 848              		.cfi_def_cfa_offset 4
ARM GAS  C:\Users\hh\AppData\Local\Temp\ccMm5Nou.s 			page 26


 849              		@ sp needed
 850 0010 00BD     		pop	{pc}
 851              		.cfi_endproc
 852              	.LFE156:
 854              		.section	.text.VoltageSim_InjectCellUnderVoltage,"ax",%progbits
 855              		.align	1
 856              		.global	VoltageSim_InjectCellUnderVoltage
 857              		.syntax unified
 858              		.thumb
 859              		.thumb_func
 861              	VoltageSim_InjectCellUnderVoltage:
 862              	.LVL85:
 863              	.LFB157:
 213:App/Src/voltage_sim.c ****   return VoltageSim_InjectCellFault(cell,
 864              		.loc 1 213 1 is_stmt 1 view -0
 865              		.cfi_startproc
 866              		@ args = 0, pretend = 0, frame = 0
 867              		@ frame_needed = 0, uses_anonymous_args = 0
 213:App/Src/voltage_sim.c ****   return VoltageSim_InjectCellFault(cell,
 868              		.loc 1 213 1 is_stmt 0 view .LVU225
 869 0000 00B5     		push	{lr}
 870              	.LCFI8:
 871              		.cfi_def_cfa_offset 4
 872              		.cfi_offset 14, -4
 873 0002 83B0     		sub	sp, sp, #12
 874              	.LCFI9:
 875              		.cfi_def_cfa_offset 16
 214:App/Src/voltage_sim.c ****                                     targetMillivolts,
 876              		.loc 1 214 3 is_stmt 1 view .LVU226
 214:App/Src/voltage_sim.c ****                                     targetMillivolts,
 877              		.loc 1 214 10 is_stmt 0 view .LVU227
 878 0004 0023     		movs	r3, #0
 879 0006 0093     		str	r3, [sp]
 880 0008 0222     		movs	r2, #2
 881 000a FFF7FEFF 		bl	VoltageSim_InjectCellFault
 882              	.LVL86:
 219:App/Src/voltage_sim.c **** 
 883              		.loc 1 219 1 view .LVU228
 884 000e 03B0     		add	sp, sp, #12
 885              	.LCFI10:
 886              		.cfi_def_cfa_offset 4
 887              		@ sp needed
 888 0010 00BD     		pop	{pc}
 889              		.cfi_endproc
 890              	.LFE157:
 892              		.section	.text.VoltageSim_InjectCellOverVoltageFor,"ax",%progbits
 893              		.align	1
 894              		.global	VoltageSim_InjectCellOverVoltageFor
 895              		.syntax unified
 896              		.thumb
 897              		.thumb_func
 899              	VoltageSim_InjectCellOverVoltageFor:
 900              	.LVL87:
 901              	.LFB158:
 224:App/Src/voltage_sim.c ****   return VoltageSim_InjectCellFault(cell,
 902              		.loc 1 224 1 is_stmt 1 view -0
 903              		.cfi_startproc
ARM GAS  C:\Users\hh\AppData\Local\Temp\ccMm5Nou.s 			page 27


 904              		@ args = 0, pretend = 0, frame = 0
 905              		@ frame_needed = 0, uses_anonymous_args = 0
 224:App/Src/voltage_sim.c ****   return VoltageSim_InjectCellFault(cell,
 906              		.loc 1 224 1 is_stmt 0 view .LVU230
 907 0000 00B5     		push	{lr}
 908              	.LCFI11:
 909              		.cfi_def_cfa_offset 4
 910              		.cfi_offset 14, -4
 911 0002 83B0     		sub	sp, sp, #12
 912              	.LCFI12:
 913              		.cfi_def_cfa_offset 16
 914 0004 1346     		mov	r3, r2
 225:App/Src/voltage_sim.c ****                                     targetMillivolts,
 915              		.loc 1 225 3 is_stmt 1 view .LVU231
 225:App/Src/voltage_sim.c ****                                     targetMillivolts,
 916              		.loc 1 225 10 is_stmt 0 view .LVU232
 917 0006 0022     		movs	r2, #0
 918              	.LVL88:
 225:App/Src/voltage_sim.c ****                                     targetMillivolts,
 919              		.loc 1 225 10 view .LVU233
 920 0008 0092     		str	r2, [sp]
 921 000a 0122     		movs	r2, #1
 922 000c FFF7FEFF 		bl	VoltageSim_InjectCellFault
 923              	.LVL89:
 230:App/Src/voltage_sim.c **** 
 924              		.loc 1 230 1 view .LVU234
 925 0010 03B0     		add	sp, sp, #12
 926              	.LCFI13:
 927              		.cfi_def_cfa_offset 4
 928              		@ sp needed
 929 0012 00BD     		pop	{pc}
 930              		.cfi_endproc
 931              	.LFE158:
 933              		.section	.text.VoltageSim_InjectCellUnderVoltageFor,"ax",%progbits
 934              		.align	1
 935              		.global	VoltageSim_InjectCellUnderVoltageFor
 936              		.syntax unified
 937              		.thumb
 938              		.thumb_func
 940              	VoltageSim_InjectCellUnderVoltageFor:
 941              	.LVL90:
 942              	.LFB159:
 235:App/Src/voltage_sim.c ****   return VoltageSim_InjectCellFault(cell,
 943              		.loc 1 235 1 is_stmt 1 view -0
 944              		.cfi_startproc
 945              		@ args = 0, pretend = 0, frame = 0
 946              		@ frame_needed = 0, uses_anonymous_args = 0
 235:App/Src/voltage_sim.c ****   return VoltageSim_InjectCellFault(cell,
 947              		.loc 1 235 1 is_stmt 0 view .LVU236
 948 0000 00B5     		push	{lr}
 949              	.LCFI14:
 950              		.cfi_def_cfa_offset 4
 951              		.cfi_offset 14, -4
 952 0002 83B0     		sub	sp, sp, #12
 953              	.LCFI15:
 954              		.cfi_def_cfa_offset 16
 955 0004 1346     		mov	r3, r2
ARM GAS  C:\Users\hh\AppData\Local\Temp\ccMm5Nou.s 			page 28


 236:App/Src/voltage_sim.c ****                                     targetMillivolts,
 956              		.loc 1 236 3 is_stmt 1 view .LVU237
 236:App/Src/voltage_sim.c ****                                     targetMillivolts,
 957              		.loc 1 236 10 is_stmt 0 view .LVU238
 958 0006 0022     		movs	r2, #0
 959              	.LVL91:
 236:App/Src/voltage_sim.c ****                                     targetMillivolts,
 960              		.loc 1 236 10 view .LVU239
 961 0008 0092     		str	r2, [sp]
 962 000a 0222     		movs	r2, #2
 963 000c FFF7FEFF 		bl	VoltageSim_InjectCellFault
 964              	.LVL92:
 241:App/Src/voltage_sim.c **** 
 965              		.loc 1 241 1 view .LVU240
 966 0010 03B0     		add	sp, sp, #12
 967              	.LCFI16:
 968              		.cfi_def_cfa_offset 4
 969              		@ sp needed
 970 0012 00BD     		pop	{pc}
 971              		.cfi_endproc
 972              	.LFE159:
 974              		.section	.text.VoltageSim_InjectCellOverVoltageRamp,"ax",%progbits
 975              		.align	1
 976              		.global	VoltageSim_InjectCellOverVoltageRamp
 977              		.syntax unified
 978              		.thumb
 979              		.thumb_func
 981              	VoltageSim_InjectCellOverVoltageRamp:
 982              	.LVL93:
 983              	.LFB160:
 247:App/Src/voltage_sim.c ****   return VoltageSim_InjectCellFault(cell,
 984              		.loc 1 247 1 is_stmt 1 view -0
 985              		.cfi_startproc
 986              		@ args = 0, pretend = 0, frame = 0
 987              		@ frame_needed = 0, uses_anonymous_args = 0
 247:App/Src/voltage_sim.c ****   return VoltageSim_InjectCellFault(cell,
 988              		.loc 1 247 1 is_stmt 0 view .LVU242
 989 0000 00B5     		push	{lr}
 990              	.LCFI17:
 991              		.cfi_def_cfa_offset 4
 992              		.cfi_offset 14, -4
 993 0002 83B0     		sub	sp, sp, #12
 994              	.LCFI18:
 995              		.cfi_def_cfa_offset 16
 248:App/Src/voltage_sim.c ****                                     targetMillivolts,
 996              		.loc 1 248 3 is_stmt 1 view .LVU243
 248:App/Src/voltage_sim.c ****                                     targetMillivolts,
 997              		.loc 1 248 10 is_stmt 0 view .LVU244
 998 0004 0093     		str	r3, [sp]
 999 0006 1346     		mov	r3, r2
 1000              	.LVL94:
 248:App/Src/voltage_sim.c ****                                     targetMillivolts,
 1001              		.loc 1 248 10 view .LVU245
 1002 0008 0122     		movs	r2, #1
 1003              	.LVL95:
 248:App/Src/voltage_sim.c ****                                     targetMillivolts,
 1004              		.loc 1 248 10 view .LVU246
ARM GAS  C:\Users\hh\AppData\Local\Temp\ccMm5Nou.s 			page 29


 1005 000a FFF7FEFF 		bl	VoltageSim_InjectCellFault
 1006              	.LVL96:
 253:App/Src/voltage_sim.c **** 
 1007              		.loc 1 253 1 view .LVU247
 1008 000e 03B0     		add	sp, sp, #12
 1009              	.LCFI19:
 1010              		.cfi_def_cfa_offset 4
 1011              		@ sp needed
 1012 0010 00BD     		pop	{pc}
 1013              		.cfi_endproc
 1014              	.LFE160:
 1016              		.section	.text.VoltageSim_InjectCellUnderVoltageRamp,"ax",%progbits
 1017              		.align	1
 1018              		.global	VoltageSim_InjectCellUnderVoltageRamp
 1019              		.syntax unified
 1020              		.thumb
 1021              		.thumb_func
 1023              	VoltageSim_InjectCellUnderVoltageRamp:
 1024              	.LVL97:
 1025              	.LFB161:
 259:App/Src/voltage_sim.c ****   return VoltageSim_InjectCellFault(cell,
 1026              		.loc 1 259 1 is_stmt 1 view -0
 1027              		.cfi_startproc
 1028              		@ args = 0, pretend = 0, frame = 0
 1029              		@ frame_needed = 0, uses_anonymous_args = 0
 259:App/Src/voltage_sim.c ****   return VoltageSim_InjectCellFault(cell,
 1030              		.loc 1 259 1 is_stmt 0 view .LVU249
 1031 0000 00B5     		push	{lr}
 1032              	.LCFI20:
 1033              		.cfi_def_cfa_offset 4
 1034              		.cfi_offset 14, -4
 1035 0002 83B0     		sub	sp, sp, #12
 1036              	.LCFI21:
 1037              		.cfi_def_cfa_offset 16
 260:App/Src/voltage_sim.c ****                                     targetMillivolts,
 1038              		.loc 1 260 3 is_stmt 1 view .LVU250
 260:App/Src/voltage_sim.c ****                                     targetMillivolts,
 1039              		.loc 1 260 10 is_stmt 0 view .LVU251
 1040 0004 0093     		str	r3, [sp]
 1041 0006 1346     		mov	r3, r2
 1042              	.LVL98:
 260:App/Src/voltage_sim.c ****                                     targetMillivolts,
 1043              		.loc 1 260 10 view .LVU252
 1044 0008 0222     		movs	r2, #2
 1045              	.LVL99:
 260:App/Src/voltage_sim.c ****                                     targetMillivolts,
 1046              		.loc 1 260 10 view .LVU253
 1047 000a FFF7FEFF 		bl	VoltageSim_InjectCellFault
 1048              	.LVL100:
 265:App/Src/voltage_sim.c **** 
 1049              		.loc 1 265 1 view .LVU254
 1050 000e 03B0     		add	sp, sp, #12
 1051              	.LCFI22:
 1052              		.cfi_def_cfa_offset 4
 1053              		@ sp needed
 1054 0010 00BD     		pop	{pc}
 1055              		.cfi_endproc
ARM GAS  C:\Users\hh\AppData\Local\Temp\ccMm5Nou.s 			page 30


 1056              	.LFE161:
 1058              		.section	.text.VoltageSim_ClearCellFault,"ax",%progbits
 1059              		.align	1
 1060              		.global	VoltageSim_ClearCellFault
 1061              		.syntax unified
 1062              		.thumb
 1063              		.thumb_func
 1065              	VoltageSim_ClearCellFault:
 1066              	.LVL101:
 1067              	.LFB163:
 304:App/Src/voltage_sim.c ****   HAL_StatusTypeDef status;
 1068              		.loc 1 304 1 is_stmt 1 view -0
 1069              		.cfi_startproc
 1070              		@ args = 0, pretend = 0, frame = 0
 1071              		@ frame_needed = 0, uses_anonymous_args = 0
 304:App/Src/voltage_sim.c ****   HAL_StatusTypeDef status;
 1072              		.loc 1 304 1 is_stmt 0 view .LVU256
 1073 0000 38B5     		push	{r3, r4, r5, lr}
 1074              	.LCFI23:
 1075              		.cfi_def_cfa_offset 16
 1076              		.cfi_offset 3, -16
 1077              		.cfi_offset 4, -12
 1078              		.cfi_offset 5, -8
 1079              		.cfi_offset 14, -4
 1080 0002 0446     		mov	r4, r0
 1081 0004 0546     		mov	r5, r0
 305:App/Src/voltage_sim.c ****   VoltageSim_CellFaultInfo *info;
 1082              		.loc 1 305 3 is_stmt 1 view .LVU257
 306:App/Src/voltage_sim.c **** 
 1083              		.loc 1 306 3 view .LVU258
 308:App/Src/voltage_sim.c ****   {
 1084              		.loc 1 308 3 view .LVU259
 308:App/Src/voltage_sim.c ****   {
 1085              		.loc 1 308 7 is_stmt 0 view .LVU260
 1086 0006 FFF7FEFF 		bl	VoltageSim_IsValidCell
 1087              	.LVL102:
 308:App/Src/voltage_sim.c ****   {
 1088              		.loc 1 308 6 discriminator 1 view .LVU261
 1089 000a 88B1     		cbz	r0, .L82
 313:App/Src/voltage_sim.c ****   if (info->type == VOLTAGE_SIM_FAULT_NONE)
 1090              		.loc 1 313 3 is_stmt 1 view .LVU262
 313:App/Src/voltage_sim.c ****   if (info->type == VOLTAGE_SIM_FAULT_NONE)
 1091              		.loc 1 313 30 is_stmt 0 view .LVU263
 1092 000c 2046     		mov	r0, r4
 1093 000e 631E     		subs	r3, r4, #1
 1094              	.LVL103:
 314:App/Src/voltage_sim.c ****   {
 1095              		.loc 1 314 3 is_stmt 1 view .LVU264
 314:App/Src/voltage_sim.c ****   {
 1096              		.loc 1 314 11 is_stmt 0 view .LVU265
 1097 0010 1A01     		lsls	r2, r3, #4
 1098 0012 0949     		ldr	r1, .L84
 1099 0014 8C5C     		ldrb	r4, [r1, r2]	@ zero_extendqisi2
 1100              	.LVL104:
 314:App/Src/voltage_sim.c ****   {
 1101              		.loc 1 314 6 view .LVU266
 1102 0016 64B1     		cbz	r4, .L81
ARM GAS  C:\Users\hh\AppData\Local\Temp\ccMm5Nou.s 			page 31


 319:App/Src/voltage_sim.c ****   if (status == HAL_OK)
 1103              		.loc 1 319 3 is_stmt 1 view .LVU267
 319:App/Src/voltage_sim.c ****   if (status == HAL_OK)
 1104              		.loc 1 319 12 is_stmt 0 view .LVU268
 1105 0018 01EB0313 		add	r3, r1, r3, lsl #4
 1106              	.LVL105:
 319:App/Src/voltage_sim.c ****   if (status == HAL_OK)
 1107              		.loc 1 319 12 view .LVU269
 1108 001c 0122     		movs	r2, #1
 1109 001e 9988     		ldrh	r1, [r3, #4]
 1110 0020 FFF7FEFF 		bl	VoltageSim_WriteCellVoltageMv
 1111              	.LVL106:
 320:App/Src/voltage_sim.c ****   {
 1112              		.loc 1 320 3 is_stmt 1 view .LVU270
 320:App/Src/voltage_sim.c ****   {
 1113              		.loc 1 320 6 is_stmt 0 view .LVU271
 1114 0024 0446     		mov	r4, r0
 1115 0026 20B9     		cbnz	r0, .L81
 322:App/Src/voltage_sim.c ****   }
 1116              		.loc 1 322 5 is_stmt 1 view .LVU272
 1117 0028 2846     		mov	r0, r5
 1118              	.LVL107:
 322:App/Src/voltage_sim.c ****   }
 1119              		.loc 1 322 5 is_stmt 0 view .LVU273
 1120 002a FFF7FEFF 		bl	VoltageSim_ClearFaultRecord
 1121              	.LVL108:
 1122 002e 00E0     		b	.L81
 1123              	.LVL109:
 1124              	.L82:
 310:App/Src/voltage_sim.c ****   }
 1125              		.loc 1 310 12 view .LVU274
 1126 0030 0124     		movs	r4, #1
 1127              	.LVL110:
 1128              	.L81:
 326:App/Src/voltage_sim.c **** 
 1129              		.loc 1 326 1 view .LVU275
 1130 0032 2046     		mov	r0, r4
 1131 0034 38BD     		pop	{r3, r4, r5, pc}
 1132              	.LVL111:
 1133              	.L85:
 326:App/Src/voltage_sim.c **** 
 1134              		.loc 1 326 1 view .LVU276
 1135 0036 00BF     		.align	2
 1136              	.L84:
 1137 0038 00000000 		.word	cellFaultInfo
 1138              		.cfi_endproc
 1139              	.LFE163:
 1141              		.section	.text.VoltageSim_InjectVoltageDifference,"ax",%progbits
 1142              		.align	1
 1143              		.global	VoltageSim_InjectVoltageDifference
 1144              		.syntax unified
 1145              		.thumb
 1146              		.thumb_func
 1148              	VoltageSim_InjectVoltageDifference:
 1149              	.LVL112:
 1150              	.LFB162:
 273:App/Src/voltage_sim.c ****   HAL_StatusTypeDef status;
ARM GAS  C:\Users\hh\AppData\Local\Temp\ccMm5Nou.s 			page 32


 1151              		.loc 1 273 1 is_stmt 1 view -0
 1152              		.cfi_startproc
 1153              		@ args = 8, pretend = 0, frame = 0
 1154              		@ frame_needed = 0, uses_anonymous_args = 0
 273:App/Src/voltage_sim.c ****   HAL_StatusTypeDef status;
 1155              		.loc 1 273 1 is_stmt 0 view .LVU278
 1156 0000 2DE9F041 		push	{r4, r5, r6, r7, r8, lr}
 1157              	.LCFI24:
 1158              		.cfi_def_cfa_offset 24
 1159              		.cfi_offset 4, -24
 1160              		.cfi_offset 5, -20
 1161              		.cfi_offset 6, -16
 1162              		.cfi_offset 7, -12
 1163              		.cfi_offset 8, -8
 1164              		.cfi_offset 14, -4
 1165 0004 1D46     		mov	r5, r3
 1166 0006 BDF81C30 		ldrh	r3, [sp, #28]
 1167              	.LVL113:
 274:App/Src/voltage_sim.c **** 
 1168              		.loc 1 274 3 is_stmt 1 view .LVU279
 276:App/Src/voltage_sim.c ****   {
 1169              		.loc 1 276 3 view .LVU280
 276:App/Src/voltage_sim.c ****   {
 1170              		.loc 1 276 6 is_stmt 0 view .LVU281
 1171 000a 9042     		cmp	r0, r2
 1172 000c 18BF     		it	ne
 1173 000e A942     		cmpne	r1, r5
 1174 0010 04D8     		bhi	.L90
 278:App/Src/voltage_sim.c ****   }
 1175              		.loc 1 278 12 view .LVU282
 1176 0012 0123     		movs	r3, #1
 1177 0014 1F46     		mov	r7, r3
 1178              	.LVL114:
 1179              	.L87:
 301:App/Src/voltage_sim.c **** 
 1180              		.loc 1 301 1 view .LVU283
 1181 0016 3846     		mov	r0, r7
 1182 0018 BDE8F081 		pop	{r4, r5, r6, r7, r8, pc}
 1183              	.LVL115:
 1184              	.L90:
 301:App/Src/voltage_sim.c **** 
 1185              		.loc 1 301 1 view .LVU284
 1186 001c 8046     		mov	r8, r0
 1187 001e 1446     		mov	r4, r2
 1188 0020 1E46     		mov	r6, r3
 281:App/Src/voltage_sim.c ****                                                 highMillivolts,
 1189              		.loc 1 281 3 is_stmt 1 view .LVU285
 281:App/Src/voltage_sim.c ****                                                 highMillivolts,
 1190              		.loc 1 281 12 is_stmt 0 view .LVU286
 1191 0022 069A     		ldr	r2, [sp, #24]
 1192              	.LVL116:
 281:App/Src/voltage_sim.c ****                                                 highMillivolts,
 1193              		.loc 1 281 12 view .LVU287
 1194 0024 FFF7FEFF 		bl	VoltageSim_InjectCellOverVoltageRamp
 1195              	.LVL117:
 285:App/Src/voltage_sim.c ****   {
 1196              		.loc 1 285 3 is_stmt 1 view .LVU288
ARM GAS  C:\Users\hh\AppData\Local\Temp\ccMm5Nou.s 			page 33


 285:App/Src/voltage_sim.c ****   {
 1197              		.loc 1 285 6 is_stmt 0 view .LVU289
 1198 0028 0746     		mov	r7, r0
 1199 002a 0028     		cmp	r0, #0
 1200 002c F3D1     		bne	.L87
 290:App/Src/voltage_sim.c ****                                                  lowMillivolts,
 1201              		.loc 1 290 3 is_stmt 1 view .LVU290
 290:App/Src/voltage_sim.c ****                                                  lowMillivolts,
 1202              		.loc 1 290 12 is_stmt 0 view .LVU291
 1203 002e 3346     		mov	r3, r6
 1204 0030 069A     		ldr	r2, [sp, #24]
 1205 0032 2946     		mov	r1, r5
 1206 0034 2046     		mov	r0, r4
 1207              	.LVL118:
 290:App/Src/voltage_sim.c ****                                                  lowMillivolts,
 1208              		.loc 1 290 12 view .LVU292
 1209 0036 FFF7FEFF 		bl	VoltageSim_InjectCellUnderVoltageRamp
 1210              	.LVL119:
 294:App/Src/voltage_sim.c ****   {
 1211              		.loc 1 294 3 is_stmt 1 view .LVU293
 294:App/Src/voltage_sim.c ****   {
 1212              		.loc 1 294 6 is_stmt 0 view .LVU294
 1213 003a 0746     		mov	r7, r0
 1214 003c 0028     		cmp	r0, #0
 1215 003e EAD0     		beq	.L87
 296:App/Src/voltage_sim.c ****     return status;
 1216              		.loc 1 296 5 is_stmt 1 view .LVU295
 296:App/Src/voltage_sim.c ****     return status;
 1217              		.loc 1 296 11 is_stmt 0 view .LVU296
 1218 0040 4046     		mov	r0, r8
 1219              	.LVL120:
 296:App/Src/voltage_sim.c ****     return status;
 1220              		.loc 1 296 11 view .LVU297
 1221 0042 FFF7FEFF 		bl	VoltageSim_ClearCellFault
 1222              	.LVL121:
 297:App/Src/voltage_sim.c ****   }
 1223              		.loc 1 297 5 is_stmt 1 view .LVU298
 297:App/Src/voltage_sim.c ****   }
 1224              		.loc 1 297 12 is_stmt 0 view .LVU299
 1225 0046 E6E7     		b	.L87
 1226              		.cfi_endproc
 1227              	.LFE162:
 1229              		.section	.text.VoltageSim_ClearAllFaults,"ax",%progbits
 1230              		.align	1
 1231              		.global	VoltageSim_ClearAllFaults
 1232              		.syntax unified
 1233              		.thumb
 1234              		.thumb_func
 1236              	VoltageSim_ClearAllFaults:
 1237              	.LFB164:
 329:App/Src/voltage_sim.c ****   HAL_StatusTypeDef status;
 1238              		.loc 1 329 1 is_stmt 1 view -0
 1239              		.cfi_startproc
 1240              		@ args = 0, pretend = 0, frame = 0
 1241              		@ frame_needed = 0, uses_anonymous_args = 0
 1242 0000 10B5     		push	{r4, lr}
 1243              	.LCFI25:
ARM GAS  C:\Users\hh\AppData\Local\Temp\ccMm5Nou.s 			page 34


 1244              		.cfi_def_cfa_offset 8
 1245              		.cfi_offset 4, -8
 1246              		.cfi_offset 14, -4
 330:App/Src/voltage_sim.c **** 
 1247              		.loc 1 330 3 view .LVU301
 332:App/Src/voltage_sim.c ****   {
 1248              		.loc 1 332 3 view .LVU302
 1249              	.LBB3:
 332:App/Src/voltage_sim.c ****   {
 1250              		.loc 1 332 8 view .LVU303
 1251              	.LVL122:
 332:App/Src/voltage_sim.c ****   {
 1252              		.loc 1 332 16 is_stmt 0 view .LVU304
 1253 0002 0124     		movs	r4, #1
 1254              	.LVL123:
 1255              	.L92:
 332:App/Src/voltage_sim.c ****   {
 1256              		.loc 1 332 32 is_stmt 1 discriminator 1 view .LVU305
 1257 0004 0D2C     		cmp	r4, #13
 1258 0006 07D8     		bhi	.L96
 334:App/Src/voltage_sim.c ****     if (status != HAL_OK)
 1259              		.loc 1 334 5 view .LVU306
 334:App/Src/voltage_sim.c ****     if (status != HAL_OK)
 1260              		.loc 1 334 14 is_stmt 0 view .LVU307
 1261 0008 2046     		mov	r0, r4
 1262 000a FFF7FEFF 		bl	VoltageSim_ClearCellFault
 1263              	.LVL124:
 335:App/Src/voltage_sim.c ****     {
 1264              		.loc 1 335 5 is_stmt 1 view .LVU308
 335:App/Src/voltage_sim.c ****     {
 1265              		.loc 1 335 8 is_stmt 0 view .LVU309
 1266 000e 0346     		mov	r3, r0
 1267 0010 18B9     		cbnz	r0, .L93
 332:App/Src/voltage_sim.c ****   {
 1268              		.loc 1 332 63 is_stmt 1 discriminator 2 view .LVU310
 1269 0012 0134     		adds	r4, r4, #1
 1270              	.LVL125:
 332:App/Src/voltage_sim.c ****   {
 1271              		.loc 1 332 63 is_stmt 0 discriminator 2 view .LVU311
 1272 0014 E4B2     		uxtb	r4, r4
 1273              	.LVL126:
 332:App/Src/voltage_sim.c ****   {
 1274              		.loc 1 332 63 discriminator 2 view .LVU312
 1275 0016 F5E7     		b	.L92
 1276              	.LVL127:
 1277              	.L96:
 332:App/Src/voltage_sim.c ****   {
 1278              		.loc 1 332 63 discriminator 2 view .LVU313
 1279              	.LBE3:
 341:App/Src/voltage_sim.c **** }
 1280              		.loc 1 341 10 view .LVU314
 1281 0018 0023     		movs	r3, #0
 1282              	.L93:
 342:App/Src/voltage_sim.c **** 
 1283              		.loc 1 342 1 view .LVU315
 1284 001a 1846     		mov	r0, r3
 1285 001c 10BD     		pop	{r4, pc}
ARM GAS  C:\Users\hh\AppData\Local\Temp\ccMm5Nou.s 			page 35


 342:App/Src/voltage_sim.c **** 
 1286              		.loc 1 342 1 view .LVU316
 1287              		.cfi_endproc
 1288              	.LFE164:
 1290              		.section	.text.VoltageSim_Process,"ax",%progbits
 1291              		.align	1
 1292              		.global	VoltageSim_Process
 1293              		.syntax unified
 1294              		.thumb
 1295              		.thumb_func
 1297              	VoltageSim_Process:
 1298              	.LVL128:
 1299              	.LFB165:
 345:App/Src/voltage_sim.c ****   HAL_StatusTypeDef status;
 1300              		.loc 1 345 1 is_stmt 1 view -0
 1301              		.cfi_startproc
 1302              		@ args = 0, pretend = 0, frame = 0
 1303              		@ frame_needed = 0, uses_anonymous_args = 0
 345:App/Src/voltage_sim.c ****   HAL_StatusTypeDef status;
 1304              		.loc 1 345 1 is_stmt 0 view .LVU318
 1305 0000 2DE9F041 		push	{r4, r5, r6, r7, r8, lr}
 1306              	.LCFI26:
 1307              		.cfi_def_cfa_offset 24
 1308              		.cfi_offset 4, -24
 1309              		.cfi_offset 5, -20
 1310              		.cfi_offset 6, -16
 1311              		.cfi_offset 7, -12
 1312              		.cfi_offset 8, -8
 1313              		.cfi_offset 14, -4
 1314 0004 0646     		mov	r6, r0
 346:App/Src/voltage_sim.c ****   uint8_t outputChanged = 0U;
 1315              		.loc 1 346 3 is_stmt 1 view .LVU319
 347:App/Src/voltage_sim.c **** 
 1316              		.loc 1 347 3 view .LVU320
 1317              	.LVL129:
 349:App/Src/voltage_sim.c ****   {
 1318              		.loc 1 349 3 view .LVU321
 1319              	.LBB4:
 349:App/Src/voltage_sim.c ****   {
 1320              		.loc 1 349 8 view .LVU322
 349:App/Src/voltage_sim.c ****   {
 1321              		.loc 1 349 16 is_stmt 0 view .LVU323
 1322 0006 0125     		movs	r5, #1
 1323              	.LBE4:
 347:App/Src/voltage_sim.c **** 
 1324              		.loc 1 347 11 view .LVU324
 1325 0008 0027     		movs	r7, #0
 1326              	.LBB8:
 349:App/Src/voltage_sim.c ****   {
 1327              		.loc 1 349 3 view .LVU325
 1328 000a 1CE0     		b	.L98
 1329              	.LVL130:
 1330              	.L101:
 1331              	.LBB5:
 369:App/Src/voltage_sim.c ****                        info->restoreMillivolts :
 1332              		.loc 1 369 22 discriminator 2 view .LVU326
 1333 000c 4649     		ldr	r1, .L121
ARM GAS  C:\Users\hh\AppData\Local\Temp\ccMm5Nou.s 			page 36


 1334 000e 01EB0411 		add	r1, r1, r4, lsl #4
 1335 0012 4988     		ldrh	r1, [r1, #2]
 1336 0014 33E0     		b	.L102
 1337              	.LVL131:
 1338              	.L113:
 375:App/Src/voltage_sim.c ****                   0U :
 1339              		.loc 1 375 17 view .LVU327
 1340 0016 1A46     		mov	r2, r3
 1341              	.LVL132:
 375:App/Src/voltage_sim.c ****                   0U :
 1342              		.loc 1 375 17 view .LVU328
 1343 0018 3EE0     		b	.L104
 1344              	.LVL133:
 1345              	.L119:
 398:App/Src/voltage_sim.c ****       faultLastUpdateMs[index] = nowMs;
 1346              		.loc 1 398 7 is_stmt 1 view .LVU329
 399:App/Src/voltage_sim.c **** 
 1347              		.loc 1 399 7 view .LVU330
 399:App/Src/voltage_sim.c **** 
 1348              		.loc 1 399 32 is_stmt 0 view .LVU331
 1349 001a 444B     		ldr	r3, .L121+4
 1350 001c 43F82460 		str	r6, [r3, r4, lsl #2]
 401:App/Src/voltage_sim.c ****           (nextMillivolts == info->targetMillivolts) &&
 1351              		.loc 1 401 7 is_stmt 1 view .LVU332
 401:App/Src/voltage_sim.c ****           (nextMillivolts == info->targetMillivolts) &&
 1352              		.loc 1 401 26 is_stmt 0 view .LVU333
 1353 0020 434B     		ldr	r3, .L121+8
 1354 0022 1B5D     		ldrb	r3, [r3, r4]	@ zero_extendqisi2
 401:App/Src/voltage_sim.c ****           (nextMillivolts == info->targetMillivolts) &&
 1355              		.loc 1 401 10 view .LVU334
 1356 0024 2BB9     		cbnz	r3, .L108
 402:App/Src/voltage_sim.c ****           (faultHoldStartedMs[index] == 0U))
 1357              		.loc 1 402 34 view .LVU335
 1358 0026 404A     		ldr	r2, .L121
 1359 0028 02EB0412 		add	r2, r2, r4, lsl #4
 1360 002c 5288     		ldrh	r2, [r2, #2]
 401:App/Src/voltage_sim.c ****           (nextMillivolts == info->targetMillivolts) &&
 1361              		.loc 1 401 41 discriminator 1 view .LVU336
 1362 002e 4245     		cmp	r2, r8
 1363 0030 48D0     		beq	.L116
 1364              	.L108:
 408:App/Src/voltage_sim.c ****       {
 1365              		.loc 1 408 7 is_stmt 1 view .LVU337
 408:App/Src/voltage_sim.c ****       {
 1366              		.loc 1 408 10 is_stmt 0 view .LVU338
 1367 0032 2BB1     		cbz	r3, .L109
 408:App/Src/voltage_sim.c ****       {
 1368              		.loc 1 408 67 discriminator 1 view .LVU339
 1369 0034 3C4B     		ldr	r3, .L121
 1370 0036 03EB0413 		add	r3, r3, r4, lsl #4
 1371 003a 9B88     		ldrh	r3, [r3, #4]
 408:App/Src/voltage_sim.c ****       {
 1372              		.loc 1 408 41 discriminator 1 view .LVU340
 1373 003c 4345     		cmp	r3, r8
 1374 003e 4AD0     		beq	.L117
 1375              	.LVL134:
 1376              	.L109:
ARM GAS  C:\Users\hh\AppData\Local\Temp\ccMm5Nou.s 			page 37


 413:App/Src/voltage_sim.c ****     }
 1377              		.loc 1 413 7 is_stmt 1 view .LVU341
 398:App/Src/voltage_sim.c ****       faultLastUpdateMs[index] = nowMs;
 1378              		.loc 1 398 21 is_stmt 0 view .LVU342
 1379 0040 0127     		movs	r7, #1
 1380              	.LVL135:
 1381              	.L99:
 398:App/Src/voltage_sim.c ****       faultLastUpdateMs[index] = nowMs;
 1382              		.loc 1 398 21 view .LVU343
 1383              	.LBE5:
 349:App/Src/voltage_sim.c ****   {
 1384              		.loc 1 349 63 is_stmt 1 discriminator 2 view .LVU344
 1385 0042 0135     		adds	r5, r5, #1
 1386              	.LVL136:
 349:App/Src/voltage_sim.c ****   {
 1387              		.loc 1 349 63 is_stmt 0 discriminator 2 view .LVU345
 1388 0044 EDB2     		uxtb	r5, r5
 1389              	.LVL137:
 1390              	.L98:
 349:App/Src/voltage_sim.c ****   {
 1391              		.loc 1 349 32 is_stmt 1 discriminator 1 view .LVU346
 1392 0046 0D2D     		cmp	r5, #13
 1393 0048 68D8     		bhi	.L118
 1394              	.LBB6:
 351:App/Src/voltage_sim.c ****     VoltageSim_CellFaultInfo *info = &cellFaultInfo[index];
 1395              		.loc 1 351 5 view .LVU347
 351:App/Src/voltage_sim.c ****     VoltageSim_CellFaultInfo *info = &cellFaultInfo[index];
 1396              		.loc 1 351 13 is_stmt 0 view .LVU348
 1397 004a 6C1E     		subs	r4, r5, #1
 1398 004c E4B2     		uxtb	r4, r4
 1399              	.LVL138:
 352:App/Src/voltage_sim.c ****     uint16_t targetMillivolts;
 1400              		.loc 1 352 5 is_stmt 1 view .LVU349
 353:App/Src/voltage_sim.c ****     uint16_t nextMillivolts;
 1401              		.loc 1 353 5 view .LVU350
 354:App/Src/voltage_sim.c ****     uint32_t elapsedMs;
 1402              		.loc 1 354 5 view .LVU351
 355:App/Src/voltage_sim.c ****     uint32_t maxStepMv;
 1403              		.loc 1 355 5 view .LVU352
 356:App/Src/voltage_sim.c **** 
 1404              		.loc 1 356 5 view .LVU353
 358:App/Src/voltage_sim.c ****     {
 1405              		.loc 1 358 5 view .LVU354
 358:App/Src/voltage_sim.c ****     {
 1406              		.loc 1 358 13 is_stmt 0 view .LVU355
 1407 004e 2301     		lsls	r3, r4, #4
 1408 0050 354A     		ldr	r2, .L121
 1409 0052 D35C     		ldrb	r3, [r2, r3]	@ zero_extendqisi2
 358:App/Src/voltage_sim.c ****     {
 1410              		.loc 1 358 8 view .LVU356
 1411 0054 002B     		cmp	r3, #0
 1412 0056 F4D0     		beq	.L99
 363:App/Src/voltage_sim.c ****     {
 1413              		.loc 1 363 5 is_stmt 1 view .LVU357
 363:App/Src/voltage_sim.c ****     {
 1414              		.loc 1 363 26 is_stmt 0 view .LVU358
 1415 0058 344B     		ldr	r3, .L121+4
ARM GAS  C:\Users\hh\AppData\Local\Temp\ccMm5Nou.s 			page 38


 1416 005a 53F82430 		ldr	r3, [r3, r4, lsl #2]
 363:App/Src/voltage_sim.c ****     {
 1417              		.loc 1 363 8 view .LVU359
 1418 005e 13B9     		cbnz	r3, .L100
 365:App/Src/voltage_sim.c ****     }
 1419              		.loc 1 365 7 is_stmt 1 view .LVU360
 365:App/Src/voltage_sim.c ****     }
 1420              		.loc 1 365 32 is_stmt 0 view .LVU361
 1421 0060 324B     		ldr	r3, .L121+4
 1422 0062 43F82460 		str	r6, [r3, r4, lsl #2]
 1423              	.L100:
 368:App/Src/voltage_sim.c ****     targetMillivolts = (faultRestoring[index] != 0U) ?
 1424              		.loc 1 368 5 is_stmt 1 view .LVU362
 368:App/Src/voltage_sim.c ****     targetMillivolts = (faultRestoring[index] != 0U) ?
 1425              		.loc 1 368 42 is_stmt 0 view .LVU363
 1426 0066 314B     		ldr	r3, .L121+4
 1427 0068 53F82420 		ldr	r2, [r3, r4, lsl #2]
 368:App/Src/voltage_sim.c ****     targetMillivolts = (faultRestoring[index] != 0U) ?
 1428              		.loc 1 368 15 view .LVU364
 1429 006c B21A     		subs	r2, r6, r2
 1430              	.LVL139:
 369:App/Src/voltage_sim.c ****                        info->restoreMillivolts :
 1431              		.loc 1 369 5 is_stmt 1 view .LVU365
 369:App/Src/voltage_sim.c ****                        info->restoreMillivolts :
 1432              		.loc 1 369 39 is_stmt 0 view .LVU366
 1433 006e 304B     		ldr	r3, .L121+8
 1434 0070 1B5D     		ldrb	r3, [r3, r4]	@ zero_extendqisi2
 369:App/Src/voltage_sim.c ****                        info->restoreMillivolts :
 1435              		.loc 1 369 22 view .LVU367
 1436 0072 002B     		cmp	r3, #0
 1437 0074 CAD0     		beq	.L101
 369:App/Src/voltage_sim.c ****                        info->restoreMillivolts :
 1438              		.loc 1 369 22 discriminator 1 view .LVU368
 1439 0076 2C49     		ldr	r1, .L121
 1440 0078 01EB0411 		add	r1, r1, r4, lsl #4
 1441 007c 8988     		ldrh	r1, [r1, #4]
 1442              	.LVL140:
 1443              	.L102:
 373:App/Src/voltage_sim.c ****     {
 1444              		.loc 1 373 5 is_stmt 1 view .LVU369
 373:App/Src/voltage_sim.c ****     {
 1445              		.loc 1 373 22 is_stmt 0 view .LVU370
 1446 007e 2D48     		ldr	r0, .L121+12
 1447 0080 30F81400 		ldrh	r0, [r0, r4, lsl #1]
 373:App/Src/voltage_sim.c ****     {
 1448              		.loc 1 373 8 view .LVU371
 1449 0084 8842     		cmp	r0, r1
 1450 0086 2AD0     		beq	.L103
 375:App/Src/voltage_sim.c ****                   0U :
 1451              		.loc 1 375 7 is_stmt 1 view .LVU372
 375:App/Src/voltage_sim.c ****                   0U :
 1452              		.loc 1 375 24 is_stmt 0 view .LVU373
 1453 0088 274B     		ldr	r3, .L121
 1454 008a 03EB0413 		add	r3, r3, r4, lsl #4
 1455 008e 9B89     		ldrh	r3, [r3, #12]
 376:App/Src/voltage_sim.c ****                   ((uint32_t)info->slewRateMvPerMs * elapsedMs);
 1456              		.loc 1 376 22 view .LVU374
ARM GAS  C:\Users\hh\AppData\Local\Temp\ccMm5Nou.s 			page 39


 1457 0090 002B     		cmp	r3, #0
 1458 0092 C0D0     		beq	.L113
 375:App/Src/voltage_sim.c ****                   0U :
 1459              		.loc 1 375 17 view .LVU375
 1460 0094 03FB02F2 		mul	r2, r3, r2
 1461              	.LVL141:
 1462              	.L104:
 379:App/Src/voltage_sim.c ****       {
 1463              		.loc 1 379 7 is_stmt 1 view .LVU376
 379:App/Src/voltage_sim.c ****       {
 1464              		.loc 1 379 10 is_stmt 0 view .LVU377
 1465 0098 0BB1     		cbz	r3, .L105
 379:App/Src/voltage_sim.c ****       {
 1466              		.loc 1 379 41 discriminator 1 view .LVU378
 1467 009a 002A     		cmp	r2, #0
 1468 009c D1D0     		beq	.L99
 1469              	.L105:
 384:App/Src/voltage_sim.c ****       {
 1470              		.loc 1 384 7 is_stmt 1 view .LVU379
 384:App/Src/voltage_sim.c ****       {
 1471              		.loc 1 384 10 is_stmt 0 view .LVU380
 1472 009e 41F28833 		movw	r3, #5000
 1473 00a2 9A42     		cmp	r2, r3
 1474 00a4 00D9     		bls	.L106
 386:App/Src/voltage_sim.c ****       }
 1475              		.loc 1 386 19 view .LVU381
 1476 00a6 1A46     		mov	r2, r3
 1477              	.LVL142:
 1478              	.L106:
 389:App/Src/voltage_sim.c ****                                                        targetMillivolts,
 1479              		.loc 1 389 7 is_stmt 1 view .LVU382
 389:App/Src/voltage_sim.c ****                                                        targetMillivolts,
 1480              		.loc 1 389 24 is_stmt 0 view .LVU383
 1481 00a8 FFF7FEFF 		bl	VoltageSim_CalculateNextVoltage
 1482              	.LVL143:
 389:App/Src/voltage_sim.c ****                                                        targetMillivolts,
 1483              		.loc 1 389 24 view .LVU384
 1484 00ac 8046     		mov	r8, r0
 1485              	.LVL144:
 392:App/Src/voltage_sim.c ****       if (status != HAL_OK)
 1486              		.loc 1 392 7 is_stmt 1 view .LVU385
 392:App/Src/voltage_sim.c ****       if (status != HAL_OK)
 1487              		.loc 1 392 16 is_stmt 0 view .LVU386
 1488 00ae 0022     		movs	r2, #0
 1489 00b0 0146     		mov	r1, r0
 1490 00b2 2846     		mov	r0, r5
 1491              	.LVL145:
 392:App/Src/voltage_sim.c ****       if (status != HAL_OK)
 1492              		.loc 1 392 16 view .LVU387
 1493 00b4 FFF7FEFF 		bl	VoltageSim_WriteCellVoltageMv
 1494              	.LVL146:
 393:App/Src/voltage_sim.c ****       {
 1495              		.loc 1 393 7 is_stmt 1 view .LVU388
 393:App/Src/voltage_sim.c ****       {
 1496              		.loc 1 393 10 is_stmt 0 view .LVU389
 1497 00b8 0746     		mov	r7, r0
 1498              	.LVL147:
ARM GAS  C:\Users\hh\AppData\Local\Temp\ccMm5Nou.s 			page 40


 393:App/Src/voltage_sim.c ****       {
 1499              		.loc 1 393 10 view .LVU390
 1500 00ba 0028     		cmp	r0, #0
 1501 00bc ADD0     		beq	.L119
 1502              	.LVL148:
 1503              	.L107:
 393:App/Src/voltage_sim.c ****       {
 1504              		.loc 1 393 10 view .LVU391
 1505              	.LBE6:
 1506              	.LBE8:
 441:App/Src/voltage_sim.c **** 
 1507              		.loc 1 441 1 view .LVU392
 1508 00be 3846     		mov	r0, r7
 1509 00c0 BDE8F081 		pop	{r4, r5, r6, r7, r8, pc}
 1510              	.LVL149:
 1511              	.L116:
 1512              	.LBB9:
 1513              	.LBB7:
 403:App/Src/voltage_sim.c ****       {
 1514              		.loc 1 403 30 view .LVU393
 1515 00c4 1C4A     		ldr	r2, .L121+16
 1516 00c6 52F82420 		ldr	r2, [r2, r4, lsl #2]
 402:App/Src/voltage_sim.c ****           (faultHoldStartedMs[index] == 0U))
 1517              		.loc 1 402 54 view .LVU394
 1518 00ca 002A     		cmp	r2, #0
 1519 00cc B1D1     		bne	.L108
 405:App/Src/voltage_sim.c ****       }
 1520              		.loc 1 405 9 is_stmt 1 view .LVU395
 405:App/Src/voltage_sim.c ****       }
 1521              		.loc 1 405 35 is_stmt 0 view .LVU396
 1522 00ce 1A4A     		ldr	r2, .L121+16
 1523 00d0 42F82460 		str	r6, [r2, r4, lsl #2]
 1524 00d4 ADE7     		b	.L108
 1525              	.L117:
 410:App/Src/voltage_sim.c ****       }
 1526              		.loc 1 410 9 is_stmt 1 view .LVU397
 1527 00d6 2846     		mov	r0, r5
 1528              	.LVL150:
 410:App/Src/voltage_sim.c ****       }
 1529              		.loc 1 410 9 is_stmt 0 view .LVU398
 1530 00d8 FFF7FEFF 		bl	VoltageSim_ClearFaultRecord
 1531              	.LVL151:
 1532 00dc B0E7     		b	.L109
 1533              	.LVL152:
 1534              	.L103:
 416:App/Src/voltage_sim.c **** 
 1535              		.loc 1 416 5 is_stmt 1 view .LVU399
 416:App/Src/voltage_sim.c **** 
 1536              		.loc 1 416 30 is_stmt 0 view .LVU400
 1537 00de 134A     		ldr	r2, .L121+4
 1538              	.LVL153:
 416:App/Src/voltage_sim.c **** 
 1539              		.loc 1 416 30 view .LVU401
 1540 00e0 42F82460 		str	r6, [r2, r4, lsl #2]
 1541              	.LVL154:
 418:App/Src/voltage_sim.c ****     {
 1542              		.loc 1 418 5 is_stmt 1 view .LVU402
ARM GAS  C:\Users\hh\AppData\Local\Temp\ccMm5Nou.s 			page 41


 418:App/Src/voltage_sim.c ****     {
 1543              		.loc 1 418 8 is_stmt 0 view .LVU403
 1544 00e4 B3B9     		cbnz	r3, .L120
 424:App/Src/voltage_sim.c ****     {
 1545              		.loc 1 424 5 is_stmt 1 view .LVU404
 424:App/Src/voltage_sim.c ****     {
 1546              		.loc 1 424 27 is_stmt 0 view .LVU405
 1547 00e6 144B     		ldr	r3, .L121+16
 1548 00e8 53F82430 		ldr	r3, [r3, r4, lsl #2]
 424:App/Src/voltage_sim.c ****     {
 1549              		.loc 1 424 8 view .LVU406
 1550 00ec 13B9     		cbnz	r3, .L111
 426:App/Src/voltage_sim.c ****     }
 1551              		.loc 1 426 7 is_stmt 1 view .LVU407
 426:App/Src/voltage_sim.c ****     }
 1552              		.loc 1 426 33 is_stmt 0 view .LVU408
 1553 00ee 124B     		ldr	r3, .L121+16
 1554 00f0 43F82460 		str	r6, [r3, r4, lsl #2]
 1555              	.L111:
 429:App/Src/voltage_sim.c ****     {
 1556              		.loc 1 429 5 is_stmt 1 view .LVU409
 429:App/Src/voltage_sim.c ****     {
 1557              		.loc 1 429 14 is_stmt 0 view .LVU410
 1558 00f4 0C4B     		ldr	r3, .L121
 1559 00f6 03EB0413 		add	r3, r3, r4, lsl #4
 1560 00fa 9B68     		ldr	r3, [r3, #8]
 429:App/Src/voltage_sim.c ****     {
 1561              		.loc 1 429 8 view .LVU411
 1562 00fc 002B     		cmp	r3, #0
 1563 00fe A0D0     		beq	.L99
 429:App/Src/voltage_sim.c ****     {
 1564              		.loc 1 429 64 discriminator 1 view .LVU412
 1565 0100 0D4A     		ldr	r2, .L121+16
 1566 0102 52F82420 		ldr	r2, [r2, r4, lsl #2]
 429:App/Src/voltage_sim.c ****     {
 1567              		.loc 1 429 44 discriminator 1 view .LVU413
 1568 0106 B21A     		subs	r2, r6, r2
 429:App/Src/voltage_sim.c ****     {
 1569              		.loc 1 429 33 discriminator 1 view .LVU414
 1570 0108 9342     		cmp	r3, r2
 1571 010a 9AD8     		bhi	.L99
 431:App/Src/voltage_sim.c ****     }
 1572              		.loc 1 431 7 is_stmt 1 view .LVU415
 431:App/Src/voltage_sim.c ****     }
 1573              		.loc 1 431 29 is_stmt 0 view .LVU416
 1574 010c 084B     		ldr	r3, .L121+8
 1575 010e 0122     		movs	r2, #1
 1576 0110 1A55     		strb	r2, [r3, r4]
 1577 0112 96E7     		b	.L99
 1578              	.L120:
 420:App/Src/voltage_sim.c ****       continue;
 1579              		.loc 1 420 7 is_stmt 1 view .LVU417
 1580 0114 2846     		mov	r0, r5
 1581 0116 FFF7FEFF 		bl	VoltageSim_ClearFaultRecord
 1582              	.LVL155:
 421:App/Src/voltage_sim.c ****     }
 1583              		.loc 1 421 7 view .LVU418
ARM GAS  C:\Users\hh\AppData\Local\Temp\ccMm5Nou.s 			page 42


 1584 011a 92E7     		b	.L99
 1585              	.LVL156:
 1586              	.L118:
 421:App/Src/voltage_sim.c ****     }
 1587              		.loc 1 421 7 is_stmt 0 view .LVU419
 1588              	.LBE7:
 1589              	.LBE9:
 435:App/Src/voltage_sim.c ****   {
 1590              		.loc 1 435 3 is_stmt 1 view .LVU420
 435:App/Src/voltage_sim.c ****   {
 1591              		.loc 1 435 6 is_stmt 0 view .LVU421
 1592 011c 002F     		cmp	r7, #0
 1593 011e CED0     		beq	.L107
 437:App/Src/voltage_sim.c ****   }
 1594              		.loc 1 437 5 is_stmt 1 view .LVU422
 1595 0120 FFF7FEFF 		bl	DAC_LDAC_Update
 1596              	.LVL157:
 440:App/Src/voltage_sim.c **** }
 1597              		.loc 1 440 10 is_stmt 0 view .LVU423
 1598 0124 0027     		movs	r7, #0
 1599              	.LVL158:
 440:App/Src/voltage_sim.c **** }
 1600              		.loc 1 440 10 view .LVU424
 1601 0126 CAE7     		b	.L107
 1602              	.L122:
 1603              		.align	2
 1604              	.L121:
 1605 0128 00000000 		.word	cellFaultInfo
 1606 012c 00000000 		.word	faultLastUpdateMs
 1607 0130 00000000 		.word	faultRestoring
 1608 0134 00000000 		.word	cellVoltageMv
 1609 0138 00000000 		.word	faultHoldStartedMs
 1610              		.cfi_endproc
 1611              	.LFE165:
 1613              		.section	.text.VoltageSim_SetCellCalibrationOffsetMv,"ax",%progbits
 1614              		.align	1
 1615              		.global	VoltageSim_SetCellCalibrationOffsetMv
 1616              		.syntax unified
 1617              		.thumb
 1618              		.thumb_func
 1620              	VoltageSim_SetCellCalibrationOffsetMv:
 1621              	.LVL159:
 1622              	.LFB167:
 453:App/Src/voltage_sim.c **** 
 454:App/Src/voltage_sim.c **** HAL_StatusTypeDef VoltageSim_SetCellCalibrationOffsetMv(uint8_t cell, int16_t offsetMillivolts)
 455:App/Src/voltage_sim.c **** {
 1623              		.loc 1 455 1 is_stmt 1 view -0
 1624              		.cfi_startproc
 1625              		@ args = 0, pretend = 0, frame = 0
 1626              		@ frame_needed = 0, uses_anonymous_args = 0
 1627              		.loc 1 455 1 is_stmt 0 view .LVU426
 1628 0000 38B5     		push	{r3, r4, r5, lr}
 1629              	.LCFI27:
 1630              		.cfi_def_cfa_offset 16
 1631              		.cfi_offset 3, -16
 1632              		.cfi_offset 4, -12
 1633              		.cfi_offset 5, -8
ARM GAS  C:\Users\hh\AppData\Local\Temp\ccMm5Nou.s 			page 43


 1634              		.cfi_offset 14, -4
 1635 0002 0546     		mov	r5, r0
 1636 0004 0C46     		mov	r4, r1
 456:App/Src/voltage_sim.c ****   if ((VoltageSim_IsValidCell(cell) == 0U) ||
 1637              		.loc 1 456 3 is_stmt 1 view .LVU427
 1638              		.loc 1 456 8 is_stmt 0 view .LVU428
 1639 0006 FFF7FEFF 		bl	VoltageSim_IsValidCell
 1640              	.LVL160:
 1641              		.loc 1 456 6 discriminator 1 view .LVU429
 1642 000a 98B1     		cbz	r0, .L125
 457:App/Src/voltage_sim.c ****       (offsetMillivolts < -VOLTAGE_SIM_CAL_OFFSET_LIMIT_MV) ||
 1643              		.loc 1 457 61 view .LVU430
 1644 000c 04F5FA73 		add	r3, r4, #500
 1645 0010 9BB2     		uxth	r3, r3
 1646 0012 B3F57A7F 		cmp	r3, #1000
 1647 0016 01D9     		bls	.L128
 458:App/Src/voltage_sim.c ****       (offsetMillivolts > VOLTAGE_SIM_CAL_OFFSET_LIMIT_MV))
 459:App/Src/voltage_sim.c ****   {
 460:App/Src/voltage_sim.c ****     return HAL_ERROR;
 1648              		.loc 1 460 12 view .LVU431
 1649 0018 0120     		movs	r0, #1
 1650 001a 0CE0     		b	.L124
 1651              	.L128:
 461:App/Src/voltage_sim.c ****   }
 462:App/Src/voltage_sim.c **** 
 463:App/Src/voltage_sim.c ****   cellCalibrationOffsetMv[cell - 1U] = offsetMillivolts;
 1652              		.loc 1 463 3 is_stmt 1 view .LVU432
 1653              		.loc 1 463 32 is_stmt 0 view .LVU433
 1654 001c 2846     		mov	r0, r5
 1655 001e 6B1E     		subs	r3, r5, #1
 1656              		.loc 1 463 38 view .LVU434
 1657 0020 054A     		ldr	r2, .L129
 1658 0022 22F81340 		strh	r4, [r2, r3, lsl #1]	@ movhi
 464:App/Src/voltage_sim.c ****   return VoltageSim_WriteCellVoltageMv(cell, cellVoltageMv[cell - 1U], 1U);
 1659              		.loc 1 464 3 is_stmt 1 view .LVU435
 1660              		.loc 1 464 10 is_stmt 0 view .LVU436
 1661 0026 0122     		movs	r2, #1
 1662 0028 0449     		ldr	r1, .L129+4
 1663 002a 31F81310 		ldrh	r1, [r1, r3, lsl #1]
 1664 002e FFF7FEFF 		bl	VoltageSim_WriteCellVoltageMv
 1665              	.LVL161:
 1666 0032 00E0     		b	.L124
 1667              	.L125:
 460:App/Src/voltage_sim.c ****   }
 1668              		.loc 1 460 12 view .LVU437
 1669 0034 0120     		movs	r0, #1
 1670              	.L124:
 465:App/Src/voltage_sim.c **** }
 1671              		.loc 1 465 1 view .LVU438
 1672 0036 38BD     		pop	{r3, r4, r5, pc}
 1673              	.LVL162:
 1674              	.L130:
 1675              		.loc 1 465 1 view .LVU439
 1676              		.align	2
 1677              	.L129:
 1678 0038 00000000 		.word	cellCalibrationOffsetMv
 1679 003c 00000000 		.word	cellVoltageMv
ARM GAS  C:\Users\hh\AppData\Local\Temp\ccMm5Nou.s 			page 44


 1680              		.cfi_endproc
 1681              	.LFE167:
 1683              		.section	.text.VoltageSim_ClearCellCalibrationOffset,"ax",%progbits
 1684              		.align	1
 1685              		.global	VoltageSim_ClearCellCalibrationOffset
 1686              		.syntax unified
 1687              		.thumb
 1688              		.thumb_func
 1690              	VoltageSim_ClearCellCalibrationOffset:
 1691              	.LVL163:
 1692              	.LFB168:
 466:App/Src/voltage_sim.c **** 
 467:App/Src/voltage_sim.c **** HAL_StatusTypeDef VoltageSim_ClearCellCalibrationOffset(uint8_t cell)
 468:App/Src/voltage_sim.c **** {
 1693              		.loc 1 468 1 is_stmt 1 view -0
 1694              		.cfi_startproc
 1695              		@ args = 0, pretend = 0, frame = 0
 1696              		@ frame_needed = 0, uses_anonymous_args = 0
 1697              		.loc 1 468 1 is_stmt 0 view .LVU441
 1698 0000 08B5     		push	{r3, lr}
 1699              	.LCFI28:
 1700              		.cfi_def_cfa_offset 8
 1701              		.cfi_offset 3, -8
 1702              		.cfi_offset 14, -4
 469:App/Src/voltage_sim.c ****   return VoltageSim_SetCellCalibrationOffsetMv(cell, 0);
 1703              		.loc 1 469 3 is_stmt 1 view .LVU442
 1704              		.loc 1 469 10 is_stmt 0 view .LVU443
 1705 0002 0021     		movs	r1, #0
 1706 0004 FFF7FEFF 		bl	VoltageSim_SetCellCalibrationOffsetMv
 1707              	.LVL164:
 470:App/Src/voltage_sim.c **** }
 1708              		.loc 1 470 1 view .LVU444
 1709 0008 08BD     		pop	{r3, pc}
 1710              		.cfi_endproc
 1711              	.LFE168:
 1713              		.section	.text.VoltageSim_ClearAllCalibrationOffsets,"ax",%progbits
 1714              		.align	1
 1715              		.global	VoltageSim_ClearAllCalibrationOffsets
 1716              		.syntax unified
 1717              		.thumb
 1718              		.thumb_func
 1720              	VoltageSim_ClearAllCalibrationOffsets:
 1721              	.LFB169:
 471:App/Src/voltage_sim.c **** 
 472:App/Src/voltage_sim.c **** void VoltageSim_ClearAllCalibrationOffsets(void)
 473:App/Src/voltage_sim.c **** {
 1722              		.loc 1 473 1 is_stmt 1 view -0
 1723              		.cfi_startproc
 1724              		@ args = 0, pretend = 0, frame = 0
 1725              		@ frame_needed = 0, uses_anonymous_args = 0
 1726 0000 10B5     		push	{r4, lr}
 1727              	.LCFI29:
 1728              		.cfi_def_cfa_offset 8
 1729              		.cfi_offset 4, -8
 1730              		.cfi_offset 14, -4
 474:App/Src/voltage_sim.c ****   for (uint8_t cell = 1U; cell <= VOLTAGE_SIM_CELL_COUNT; cell++)
 1731              		.loc 1 474 3 view .LVU446
ARM GAS  C:\Users\hh\AppData\Local\Temp\ccMm5Nou.s 			page 45


 1732              	.LBB10:
 1733              		.loc 1 474 8 view .LVU447
 1734              	.LVL165:
 1735              		.loc 1 474 16 is_stmt 0 view .LVU448
 1736 0002 0124     		movs	r4, #1
 1737              		.loc 1 474 3 view .LVU449
 1738 0004 0CE0     		b	.L134
 1739              	.LVL166:
 1740              	.L135:
 475:App/Src/voltage_sim.c ****   {
 476:App/Src/voltage_sim.c ****     cellCalibrationOffsetMv[cell - 1U] = 0;
 1741              		.loc 1 476 5 is_stmt 1 view .LVU450
 1742              		.loc 1 476 34 is_stmt 0 view .LVU451
 1743 0006 631E     		subs	r3, r4, #1
 1744              		.loc 1 476 40 view .LVU452
 1745 0008 0022     		movs	r2, #0
 1746 000a 0849     		ldr	r1, .L137
 1747 000c 21F81320 		strh	r2, [r1, r3, lsl #1]	@ movhi
 477:App/Src/voltage_sim.c ****     (void)VoltageSim_WriteCellVoltageMv(cell, cellVoltageMv[cell - 1U], 0U);
 1748              		.loc 1 477 5 is_stmt 1 view .LVU453
 1749              		.loc 1 477 11 is_stmt 0 view .LVU454
 1750 0010 0749     		ldr	r1, .L137+4
 1751 0012 31F81310 		ldrh	r1, [r1, r3, lsl #1]
 1752 0016 2046     		mov	r0, r4
 1753 0018 FFF7FEFF 		bl	VoltageSim_WriteCellVoltageMv
 1754              	.LVL167:
 474:App/Src/voltage_sim.c ****   for (uint8_t cell = 1U; cell <= VOLTAGE_SIM_CELL_COUNT; cell++)
 1755              		.loc 1 474 63 is_stmt 1 discriminator 3 view .LVU455
 1756 001c 0134     		adds	r4, r4, #1
 1757              	.LVL168:
 474:App/Src/voltage_sim.c ****   for (uint8_t cell = 1U; cell <= VOLTAGE_SIM_CELL_COUNT; cell++)
 1758              		.loc 1 474 63 is_stmt 0 discriminator 3 view .LVU456
 1759 001e E4B2     		uxtb	r4, r4
 1760              	.LVL169:
 1761              	.L134:
 474:App/Src/voltage_sim.c ****   for (uint8_t cell = 1U; cell <= VOLTAGE_SIM_CELL_COUNT; cell++)
 1762              		.loc 1 474 32 is_stmt 1 discriminator 1 view .LVU457
 1763 0020 0D2C     		cmp	r4, #13
 1764 0022 F0D9     		bls	.L135
 1765              	.LBE10:
 478:App/Src/voltage_sim.c ****   }
 479:App/Src/voltage_sim.c **** 
 480:App/Src/voltage_sim.c ****   DAC_LDAC_Update();
 1766              		.loc 1 480 3 view .LVU458
 1767 0024 FFF7FEFF 		bl	DAC_LDAC_Update
 1768              	.LVL170:
 481:App/Src/voltage_sim.c **** }
 1769              		.loc 1 481 1 is_stmt 0 view .LVU459
 1770 0028 10BD     		pop	{r4, pc}
 1771              	.LVL171:
 1772              	.L138:
 1773              		.loc 1 481 1 view .LVU460
 1774 002a 00BF     		.align	2
 1775              	.L137:
 1776 002c 00000000 		.word	cellCalibrationOffsetMv
 1777 0030 00000000 		.word	cellVoltageMv
 1778              		.cfi_endproc
ARM GAS  C:\Users\hh\AppData\Local\Temp\ccMm5Nou.s 			page 46


 1779              	.LFE169:
 1781              		.section	.text.VoltageSim_GetCellCalibrationOffsetMv,"ax",%progbits
 1782              		.align	1
 1783              		.global	VoltageSim_GetCellCalibrationOffsetMv
 1784              		.syntax unified
 1785              		.thumb
 1786              		.thumb_func
 1788              	VoltageSim_GetCellCalibrationOffsetMv:
 1789              	.LVL172:
 1790              	.LFB170:
 482:App/Src/voltage_sim.c **** 
 483:App/Src/voltage_sim.c **** int16_t VoltageSim_GetCellCalibrationOffsetMv(uint8_t cell)
 484:App/Src/voltage_sim.c **** {
 1791              		.loc 1 484 1 is_stmt 1 view -0
 1792              		.cfi_startproc
 1793              		@ args = 0, pretend = 0, frame = 0
 1794              		@ frame_needed = 0, uses_anonymous_args = 0
 1795              		.loc 1 484 1 is_stmt 0 view .LVU462
 1796 0000 10B5     		push	{r4, lr}
 1797              	.LCFI30:
 1798              		.cfi_def_cfa_offset 8
 1799              		.cfi_offset 4, -8
 1800              		.cfi_offset 14, -4
 1801 0002 0446     		mov	r4, r0
 485:App/Src/voltage_sim.c ****   if (VoltageSim_IsValidCell(cell) == 0U)
 1802              		.loc 1 485 3 is_stmt 1 view .LVU463
 1803              		.loc 1 485 7 is_stmt 0 view .LVU464
 1804 0004 FFF7FEFF 		bl	VoltageSim_IsValidCell
 1805              	.LVL173:
 1806              		.loc 1 485 6 discriminator 1 view .LVU465
 1807 0008 18B1     		cbz	r0, .L140
 486:App/Src/voltage_sim.c ****   {
 487:App/Src/voltage_sim.c ****     return 0;
 488:App/Src/voltage_sim.c ****   }
 489:App/Src/voltage_sim.c **** 
 490:App/Src/voltage_sim.c ****   return cellCalibrationOffsetMv[cell - 1U];
 1808              		.loc 1 490 3 is_stmt 1 view .LVU466
 1809              		.loc 1 490 39 is_stmt 0 view .LVU467
 1810 000a 601E     		subs	r0, r4, #1
 1811              		.loc 1 490 33 view .LVU468
 1812 000c 014B     		ldr	r3, .L143
 1813 000e 33F91000 		ldrsh	r0, [r3, r0, lsl #1]
 1814              	.L140:
 491:App/Src/voltage_sim.c **** }
 1815              		.loc 1 491 1 view .LVU469
 1816 0012 10BD     		pop	{r4, pc}
 1817              	.LVL174:
 1818              	.L144:
 1819              		.loc 1 491 1 view .LVU470
 1820              		.align	2
 1821              	.L143:
 1822 0014 00000000 		.word	cellCalibrationOffsetMv
 1823              		.cfi_endproc
 1824              	.LFE170:
 1826              		.section	.text.VoltageSim_GetLastCellVoltageMv,"ax",%progbits
 1827              		.align	1
 1828              		.global	VoltageSim_GetLastCellVoltageMv
ARM GAS  C:\Users\hh\AppData\Local\Temp\ccMm5Nou.s 			page 47


 1829              		.syntax unified
 1830              		.thumb
 1831              		.thumb_func
 1833              	VoltageSim_GetLastCellVoltageMv:
 1834              	.LVL175:
 1835              	.LFB171:
 492:App/Src/voltage_sim.c **** 
 493:App/Src/voltage_sim.c **** uint16_t VoltageSim_GetLastCellVoltageMv(uint8_t cell)
 494:App/Src/voltage_sim.c **** {
 1836              		.loc 1 494 1 is_stmt 1 view -0
 1837              		.cfi_startproc
 1838              		@ args = 0, pretend = 0, frame = 0
 1839              		@ frame_needed = 0, uses_anonymous_args = 0
 1840              		.loc 1 494 1 is_stmt 0 view .LVU472
 1841 0000 10B5     		push	{r4, lr}
 1842              	.LCFI31:
 1843              		.cfi_def_cfa_offset 8
 1844              		.cfi_offset 4, -8
 1845              		.cfi_offset 14, -4
 1846 0002 0446     		mov	r4, r0
 495:App/Src/voltage_sim.c ****   if (VoltageSim_IsValidCell(cell) == 0U)
 1847              		.loc 1 495 3 is_stmt 1 view .LVU473
 1848              		.loc 1 495 7 is_stmt 0 view .LVU474
 1849 0004 FFF7FEFF 		bl	VoltageSim_IsValidCell
 1850              	.LVL176:
 1851              		.loc 1 495 6 discriminator 1 view .LVU475
 1852 0008 18B1     		cbz	r0, .L146
 496:App/Src/voltage_sim.c ****   {
 497:App/Src/voltage_sim.c ****     return 0U;
 498:App/Src/voltage_sim.c ****   }
 499:App/Src/voltage_sim.c **** 
 500:App/Src/voltage_sim.c ****   return cellVoltageMv[cell - 1U];
 1853              		.loc 1 500 3 is_stmt 1 view .LVU476
 1854              		.loc 1 500 29 is_stmt 0 view .LVU477
 1855 000a 601E     		subs	r0, r4, #1
 1856              		.loc 1 500 23 view .LVU478
 1857 000c 014B     		ldr	r3, .L149
 1858 000e 33F81000 		ldrh	r0, [r3, r0, lsl #1]
 1859              	.L146:
 501:App/Src/voltage_sim.c **** }
 1860              		.loc 1 501 1 view .LVU479
 1861 0012 10BD     		pop	{r4, pc}
 1862              	.LVL177:
 1863              	.L150:
 1864              		.loc 1 501 1 view .LVU480
 1865              		.align	2
 1866              	.L149:
 1867 0014 00000000 		.word	cellVoltageMv
 1868              		.cfi_endproc
 1869              	.LFE171:
 1871              		.section	.text.VoltageSim_GetCellFaultInfo,"ax",%progbits
 1872              		.align	1
 1873              		.global	VoltageSim_GetCellFaultInfo
 1874              		.syntax unified
 1875              		.thumb
 1876              		.thumb_func
 1878              	VoltageSim_GetCellFaultInfo:
ARM GAS  C:\Users\hh\AppData\Local\Temp\ccMm5Nou.s 			page 48


 1879              	.LVL178:
 1880              	.LFB172:
 502:App/Src/voltage_sim.c **** 
 503:App/Src/voltage_sim.c **** VoltageSim_CellFaultInfo VoltageSim_GetCellFaultInfo(uint8_t cell)
 504:App/Src/voltage_sim.c **** {
 1881              		.loc 1 504 1 is_stmt 1 view -0
 1882              		.cfi_startproc
 1883              		@ args = 0, pretend = 0, frame = 16
 1884              		@ frame_needed = 0, uses_anonymous_args = 0
 1885              		.loc 1 504 1 is_stmt 0 view .LVU482
 1886 0000 30B5     		push	{r4, r5, lr}
 1887              	.LCFI32:
 1888              		.cfi_def_cfa_offset 12
 1889              		.cfi_offset 4, -12
 1890              		.cfi_offset 5, -8
 1891              		.cfi_offset 14, -4
 1892 0002 85B0     		sub	sp, sp, #20
 1893              	.LCFI33:
 1894              		.cfi_def_cfa_offset 32
 1895 0004 0446     		mov	r4, r0
 1896 0006 0D46     		mov	r5, r1
 505:App/Src/voltage_sim.c ****   VoltageSim_CellFaultInfo emptyInfo = {VOLTAGE_SIM_FAULT_NONE, 0U, 0U, 0U, 0U};
 1897              		.loc 1 505 3 is_stmt 1 view .LVU483
 1898              		.loc 1 505 28 is_stmt 0 view .LVU484
 1899 0008 0023     		movs	r3, #0
 1900 000a 0093     		str	r3, [sp]
 1901 000c 0193     		str	r3, [sp, #4]
 1902 000e 0293     		str	r3, [sp, #8]
 1903 0010 0393     		str	r3, [sp, #12]
 506:App/Src/voltage_sim.c **** 
 507:App/Src/voltage_sim.c ****   if (VoltageSim_IsValidCell(cell) == 0U)
 1904              		.loc 1 507 3 is_stmt 1 view .LVU485
 1905              		.loc 1 507 7 is_stmt 0 view .LVU486
 1906 0012 0846     		mov	r0, r1
 1907              	.LVL179:
 1908              		.loc 1 507 7 view .LVU487
 1909 0014 FFF7FEFF 		bl	VoltageSim_IsValidCell
 1910              	.LVL180:
 1911              		.loc 1 507 6 discriminator 1 view .LVU488
 1912 0018 48B1     		cbz	r0, .L155
 508:App/Src/voltage_sim.c ****   {
 509:App/Src/voltage_sim.c ****     return emptyInfo;
 510:App/Src/voltage_sim.c ****   }
 511:App/Src/voltage_sim.c **** 
 512:App/Src/voltage_sim.c ****   return cellFaultInfo[cell - 1U];
 1913              		.loc 1 512 3 is_stmt 1 view .LVU489
 1914              		.loc 1 512 29 is_stmt 0 view .LVU490
 1915 001a 691E     		subs	r1, r5, #1
 1916              		.loc 1 512 23 view .LVU491
 1917 001c 064B     		ldr	r3, .L156
 1918 001e 03EB0113 		add	r3, r3, r1, lsl #4
 1919 0022 0FCB     		ldm	r3, {r0, r1, r2, r3}
 1920 0024 84E80F00 		stm	r4, {r0, r1, r2, r3}
 1921              	.L151:
 513:App/Src/voltage_sim.c **** }
 1922              		.loc 1 513 1 view .LVU492
 1923 0028 2046     		mov	r0, r4
ARM GAS  C:\Users\hh\AppData\Local\Temp\ccMm5Nou.s 			page 49


 1924 002a 05B0     		add	sp, sp, #20
 1925              	.LCFI34:
 1926              		.cfi_remember_state
 1927              		.cfi_def_cfa_offset 12
 1928              		@ sp needed
 1929 002c 30BD     		pop	{r4, r5, pc}
 1930              	.LVL181:
 1931              	.L155:
 1932              	.LCFI35:
 1933              		.cfi_restore_state
 509:App/Src/voltage_sim.c ****   }
 1934              		.loc 1 509 5 is_stmt 1 view .LVU493
 509:App/Src/voltage_sim.c ****   }
 1935              		.loc 1 509 12 is_stmt 0 view .LVU494
 1936 002e 2060     		str	r0, [r4]
 1937 0030 6060     		str	r0, [r4, #4]
 1938 0032 A060     		str	r0, [r4, #8]
 1939 0034 E060     		str	r0, [r4, #12]
 1940 0036 F7E7     		b	.L151
 1941              	.L157:
 1942              		.align	2
 1943              	.L156:
 1944 0038 00000000 		.word	cellFaultInfo
 1945              		.cfi_endproc
 1946              	.LFE172:
 1948              		.section	.text.VoltageSim_GetActiveFaultCount,"ax",%progbits
 1949              		.align	1
 1950              		.global	VoltageSim_GetActiveFaultCount
 1951              		.syntax unified
 1952              		.thumb
 1953              		.thumb_func
 1955              	VoltageSim_GetActiveFaultCount:
 1956              	.LFB173:
 514:App/Src/voltage_sim.c **** 
 515:App/Src/voltage_sim.c **** uint8_t VoltageSim_GetActiveFaultCount(void)
 516:App/Src/voltage_sim.c **** {
 1957              		.loc 1 516 1 is_stmt 1 view -0
 1958              		.cfi_startproc
 1959              		@ args = 0, pretend = 0, frame = 0
 1960              		@ frame_needed = 0, uses_anonymous_args = 0
 1961              		@ link register save eliminated.
 517:App/Src/voltage_sim.c ****   uint8_t count = 0U;
 1962              		.loc 1 517 3 view .LVU496
 1963              	.LVL182:
 518:App/Src/voltage_sim.c **** 
 519:App/Src/voltage_sim.c ****   for (uint8_t index = 0U; index < VOLTAGE_SIM_CELL_COUNT; index++)
 1964              		.loc 1 519 3 view .LVU497
 1965              	.LBB11:
 1966              		.loc 1 519 8 view .LVU498
 1967              		.loc 1 519 16 is_stmt 0 view .LVU499
 1968 0000 0023     		movs	r3, #0
 1969              	.LBE11:
 517:App/Src/voltage_sim.c ****   uint8_t count = 0U;
 1970              		.loc 1 517 11 view .LVU500
 1971 0002 1846     		mov	r0, r3
 1972              	.LBB12:
 1973              		.loc 1 519 3 view .LVU501
ARM GAS  C:\Users\hh\AppData\Local\Temp\ccMm5Nou.s 			page 50


 1974 0004 01E0     		b	.L159
 1975              	.LVL183:
 1976              	.L160:
 1977              		.loc 1 519 65 is_stmt 1 discriminator 2 view .LVU502
 1978 0006 0133     		adds	r3, r3, #1
 1979              	.LVL184:
 1980              		.loc 1 519 65 is_stmt 0 discriminator 2 view .LVU503
 1981 0008 DBB2     		uxtb	r3, r3
 1982              	.LVL185:
 1983              	.L159:
 1984              		.loc 1 519 34 is_stmt 1 discriminator 1 view .LVU504
 1985 000a 0C2B     		cmp	r3, #12
 1986 000c 07D8     		bhi	.L162
 520:App/Src/voltage_sim.c ****   {
 521:App/Src/voltage_sim.c ****     if (cellFaultInfo[index].type != VOLTAGE_SIM_FAULT_NONE)
 1987              		.loc 1 521 5 view .LVU505
 1988              		.loc 1 521 29 is_stmt 0 view .LVU506
 1989 000e 1A01     		lsls	r2, r3, #4
 1990 0010 0349     		ldr	r1, .L163
 1991 0012 8A5C     		ldrb	r2, [r1, r2]	@ zero_extendqisi2
 1992              		.loc 1 521 8 view .LVU507
 1993 0014 002A     		cmp	r2, #0
 1994 0016 F6D0     		beq	.L160
 522:App/Src/voltage_sim.c ****     {
 523:App/Src/voltage_sim.c ****       count++;
 1995              		.loc 1 523 7 is_stmt 1 view .LVU508
 1996              		.loc 1 523 12 is_stmt 0 view .LVU509
 1997 0018 0130     		adds	r0, r0, #1
 1998              	.LVL186:
 1999              		.loc 1 523 12 view .LVU510
 2000 001a C0B2     		uxtb	r0, r0
 2001              	.LVL187:
 2002              		.loc 1 523 12 view .LVU511
 2003 001c F3E7     		b	.L160
 2004              	.LVL188:
 2005              	.L162:
 2006              		.loc 1 523 12 view .LVU512
 2007              	.LBE12:
 524:App/Src/voltage_sim.c ****     }
 525:App/Src/voltage_sim.c ****   }
 526:App/Src/voltage_sim.c **** 
 527:App/Src/voltage_sim.c ****   return count;
 2008              		.loc 1 527 3 is_stmt 1 view .LVU513
 528:App/Src/voltage_sim.c **** }
 2009              		.loc 1 528 1 is_stmt 0 view .LVU514
 2010 001e 7047     		bx	lr
 2011              	.L164:
 2012              		.align	2
 2013              	.L163:
 2014 0020 00000000 		.word	cellFaultInfo
 2015              		.cfi_endproc
 2016              	.LFE173:
 2018              		.section	.rodata.VoltageSim_GetFaultTypeName.str1.4,"aMS",%progbits,1
 2019              		.align	2
 2020              	.LC0:
 2021 0000 4F5600   		.ascii	"OV\000"
 2022 0003 00       		.align	2
ARM GAS  C:\Users\hh\AppData\Local\Temp\ccMm5Nou.s 			page 51


 2023              	.LC1:
 2024 0004 555600   		.ascii	"UV\000"
 2025 0007 00       		.align	2
 2026              	.LC2:
 2027 0008 4E4F4E45 		.ascii	"NONE\000"
 2027      00
 2028              		.section	.text.VoltageSim_GetFaultTypeName,"ax",%progbits
 2029              		.align	1
 2030              		.global	VoltageSim_GetFaultTypeName
 2031              		.syntax unified
 2032              		.thumb
 2033              		.thumb_func
 2035              	VoltageSim_GetFaultTypeName:
 2036              	.LVL189:
 2037              	.LFB174:
 529:App/Src/voltage_sim.c **** 
 530:App/Src/voltage_sim.c **** const char *VoltageSim_GetFaultTypeName(VoltageSim_FaultType type)
 531:App/Src/voltage_sim.c **** {
 2038              		.loc 1 531 1 is_stmt 1 view -0
 2039              		.cfi_startproc
 2040              		@ args = 0, pretend = 0, frame = 0
 2041              		@ frame_needed = 0, uses_anonymous_args = 0
 2042              		@ link register save eliminated.
 532:App/Src/voltage_sim.c ****   switch (type)
 2043              		.loc 1 532 3 view .LVU516
 2044 0000 0128     		cmp	r0, #1
 2045 0002 03D0     		beq	.L167
 2046 0004 0228     		cmp	r0, #2
 2047 0006 03D1     		bne	.L168
 533:App/Src/voltage_sim.c ****   {
 534:App/Src/voltage_sim.c ****     case VOLTAGE_SIM_FAULT_OVER_VOLTAGE:
 535:App/Src/voltage_sim.c ****       return "OV";
 536:App/Src/voltage_sim.c **** 
 537:App/Src/voltage_sim.c ****     case VOLTAGE_SIM_FAULT_UNDER_VOLTAGE:
 538:App/Src/voltage_sim.c ****       return "UV";
 2048              		.loc 1 538 14 is_stmt 0 view .LVU517
 2049 0008 0248     		ldr	r0, .L169
 2050              	.LVL190:
 2051              		.loc 1 538 14 view .LVU518
 2052 000a 7047     		bx	lr
 2053              	.LVL191:
 2054              	.L167:
 532:App/Src/voltage_sim.c ****   switch (type)
 2055              		.loc 1 532 3 view .LVU519
 2056 000c 0248     		ldr	r0, .L169+4
 2057              	.LVL192:
 532:App/Src/voltage_sim.c ****   switch (type)
 2058              		.loc 1 532 3 view .LVU520
 2059 000e 7047     		bx	lr
 2060              	.LVL193:
 2061              	.L168:
 539:App/Src/voltage_sim.c **** 
 540:App/Src/voltage_sim.c ****     case VOLTAGE_SIM_FAULT_NONE:
 541:App/Src/voltage_sim.c ****     default:
 542:App/Src/voltage_sim.c ****       return "NONE";
 2062              		.loc 1 542 14 view .LVU521
 2063 0010 0248     		ldr	r0, .L169+8
ARM GAS  C:\Users\hh\AppData\Local\Temp\ccMm5Nou.s 			page 52


 2064              	.LVL194:
 543:App/Src/voltage_sim.c ****   }
 544:App/Src/voltage_sim.c **** }
 2065              		.loc 1 544 1 view .LVU522
 2066 0012 7047     		bx	lr
 2067              	.L170:
 2068              		.align	2
 2069              	.L169:
 2070 0014 04000000 		.word	.LC1
 2071 0018 00000000 		.word	.LC0
 2072 001c 08000000 		.word	.LC2
 2073              		.cfi_endproc
 2074              	.LFE174:
 2076              		.section	.bss.faultRestoring,"aw",%nobits
 2077              		.align	2
 2080              	faultRestoring:
 2081 0000 00000000 		.space	13
 2081      00000000 
 2081      00000000 
 2081      00
 2082              		.section	.bss.faultHoldStartedMs,"aw",%nobits
 2083              		.align	2
 2086              	faultHoldStartedMs:
 2087 0000 00000000 		.space	52
 2087      00000000 
 2087      00000000 
 2087      00000000 
 2087      00000000 
 2088              		.section	.bss.faultLastUpdateMs,"aw",%nobits
 2089              		.align	2
 2092              	faultLastUpdateMs:
 2093 0000 00000000 		.space	52
 2093      00000000 
 2093      00000000 
 2093      00000000 
 2093      00000000 
 2094              		.section	.bss.cellFaultInfo,"aw",%nobits
 2095              		.align	2
 2098              	cellFaultInfo:
 2099 0000 00000000 		.space	208
 2099      00000000 
 2099      00000000 
 2099      00000000 
 2099      00000000 
 2100              		.section	.bss.cellCalibrationOffsetMv,"aw",%nobits
 2101              		.align	2
 2104              	cellCalibrationOffsetMv:
 2105 0000 00000000 		.space	26
 2105      00000000 
 2105      00000000 
 2105      00000000 
 2105      00000000 
 2106              		.section	.bss.cellVoltageMv,"aw",%nobits
 2107              		.align	2
 2110              	cellVoltageMv:
 2111 0000 00000000 		.space	26
 2111      00000000 
ARM GAS  C:\Users\hh\AppData\Local\Temp\ccMm5Nou.s 			page 53


 2111      00000000 
 2111      00000000 
 2111      00000000 
 2112              		.text
 2113              	.Letext0:
 2114              		.file 2 "C:/Program Files (x86)/ARM/arm-gnu-toolchain-15.2.rel1-mingw-w64-i686-arm-none-eabi/arm-n
 2115              		.file 3 "C:/Program Files (x86)/ARM/arm-gnu-toolchain-15.2.rel1-mingw-w64-i686-arm-none-eabi/arm-n
 2116              		.file 4 "Drivers/STM32H7xx_HAL_Driver/Inc/stm32h7xx_hal_def.h"
 2117              		.file 5 "App/Inc/voltage_sim.h"
 2118              		.file 6 "Drivers/STM32H7xx_HAL_Driver/Inc/stm32h7xx_hal.h"
 2119              		.file 7 "BSP/Inc/bsp_dac81416.h"
 2120              		.file 8 "Drivers/DAC81416/Inc/dac81416.h"
ARM GAS  C:\Users\hh\AppData\Local\Temp\ccMm5Nou.s 			page 54

