ARM GAS  C:\Users\hh\AppData\Local\Temp\ccVmJpKZ.s 			page 1


   1              		.cpu cortex-m7
   2              		.arch armv7e-m
   3              		.fpu fpv5-d16
   4              		.eabi_attribute 28, 1
   5              		.eabi_attribute 20, 1
   6              		.eabi_attribute 21, 1
   7              		.eabi_attribute 23, 3
   8              		.eabi_attribute 24, 1
   9              		.eabi_attribute 25, 1
  10              		.eabi_attribute 26, 1
  11              		.eabi_attribute 30, 1
  12              		.eabi_attribute 34, 1
  13              		.eabi_attribute 18, 4
  14              		.file	"waveform_engine.c"
  15              		.text
  16              	.Ltext0:
  17              		.cfi_sections	.debug_frame
  18              		.file 1 "App/Src/waveform_engine.c"
  19              		.section	.text.WaveformEngine_CleanDCache,"ax",%progbits
  20              		.align	1
  21              		.syntax unified
  22              		.thumb
  23              		.thumb_func
  25              	WaveformEngine_CleanDCache:
  26              	.LVL0:
  27              	.LFB149:
   1:App/Src/waveform_engine.c **** #include "waveform_engine.h"
   2:App/Src/waveform_engine.c **** 
   3:App/Src/waveform_engine.c **** #include <math.h>
   4:App/Src/waveform_engine.c **** #include <stdio.h>
   5:App/Src/waveform_engine.c **** #include <string.h>
   6:App/Src/waveform_engine.c **** 
   7:App/Src/waveform_engine.c **** #include "bsp_dac81416.h"
   8:App/Src/waveform_engine.c **** #include "dac81416.h"
   9:App/Src/waveform_engine.c **** #include "spi.h"
  10:App/Src/waveform_engine.c **** #include "tim.h"
  11:App/Src/waveform_engine.c **** #include "voltage_sim.h"
  12:App/Src/waveform_engine.c **** #include "waveform_gen.h"
  13:App/Src/waveform_engine.c **** 
  14:App/Src/waveform_engine.c **** #define WAVEFORM_ENGINE_MAX_CHANNELS        13U
  15:App/Src/waveform_engine.c **** #define WAVEFORM_ENGINE_MIN_TIMER_RATE_HZ   1U
  16:App/Src/waveform_engine.c **** #define WAVEFORM_ENGINE_LDAC_NOP_COUNT      16U
  17:App/Src/waveform_engine.c **** 
  18:App/Src/waveform_engine.c **** typedef enum
  19:App/Src/waveform_engine.c **** {
  20:App/Src/waveform_engine.c ****   WAVEFORM_ENGINE_MODE_STOPPED = 0,
  21:App/Src/waveform_engine.c ****   WAVEFORM_ENGINE_MODE_IRQ_DMA,
  22:App/Src/waveform_engine.c ****   WAVEFORM_ENGINE_MODE_TIM_DMA_TURBO
  23:App/Src/waveform_engine.c **** } WaveformEngine_Mode;
  24:App/Src/waveform_engine.c **** 
  25:App/Src/waveform_engine.c **** static WaveformEngine_Status engineStatus;
  26:App/Src/waveform_engine.c **** static WaveformEngine_Config activeConfig;
  27:App/Src/waveform_engine.c **** 
  28:App/Src/waveform_engine.c **** static uint32_t *frameTable = (uint32_t *)BSP_SRAM_BASE_ADDRESS;
  29:App/Src/waveform_engine.c **** static uint32_t totalSamplePoints;
  30:App/Src/waveform_engine.c **** static uint32_t currentSamplePoint;
  31:App/Src/waveform_engine.c **** static volatile uint8_t txBusy;
ARM GAS  C:\Users\hh\AppData\Local\Temp\ccVmJpKZ.s 			page 2


  32:App/Src/waveform_engine.c **** static WaveformEngine_Mode engineMode;
  33:App/Src/waveform_engine.c **** 
  34:App/Src/waveform_engine.c **** static void WaveformEngine_CleanDCache(const void *address, uint32_t length)
  35:App/Src/waveform_engine.c **** {
  28              		.loc 1 35 1 view -0
  29              		.cfi_startproc
  30              		@ args = 0, pretend = 0, frame = 0
  31              		@ frame_needed = 0, uses_anonymous_args = 0
  32              		@ link register save eliminated.
  36:App/Src/waveform_engine.c ****   uint32_t start;
  33              		.loc 1 36 3 view .LVU1
  37:App/Src/waveform_engine.c ****   uint32_t end;
  34              		.loc 1 37 3 view .LVU2
  38:App/Src/waveform_engine.c **** 
  39:App/Src/waveform_engine.c ****   if ((address == NULL) || (length == 0U) || ((SCB->CCR & SCB_CCR_DC_Msk) == 0U))
  35              		.loc 1 39 3 view .LVU3
  36              		.loc 1 39 16 is_stmt 0 view .LVU4
  37 0000 0346     		mov	r3, r0
  38              		.loc 1 39 6 view .LVU5
  39 0002 0029     		cmp	r1, #0
  40 0004 18BF     		it	ne
  41 0006 0028     		cmpne	r0, #0
  42 0008 1AD0     		beq	.L1
  43              		.loc 1 39 51 discriminator 1 view .LVU6
  44 000a 0E4A     		ldr	r2, .L4
  45 000c 5269     		ldr	r2, [r2, #20]
  46              		.loc 1 39 43 discriminator 1 view .LVU7
  47 000e 12F4803F 		tst	r2, #65536
  48 0012 15D0     		beq	.L1
  40:App/Src/waveform_engine.c ****   {
  41:App/Src/waveform_engine.c ****     return;
  42:App/Src/waveform_engine.c ****   }
  43:App/Src/waveform_engine.c **** 
  44:App/Src/waveform_engine.c ****   start = (uint32_t)address & ~31UL;
  49              		.loc 1 44 3 is_stmt 1 view .LVU8
  50              		.loc 1 44 9 is_stmt 0 view .LVU9
  51 0014 20F01F02 		bic	r2, r0, #31
  52              	.LVL1:
  45:App/Src/waveform_engine.c ****   end = ((uint32_t)address + length + 31UL) & ~31UL;
  53              		.loc 1 45 3 is_stmt 1 view .LVU10
  54              		.loc 1 45 28 is_stmt 0 view .LVU11
  55 0018 0B44     		add	r3, r3, r1
  56              		.loc 1 45 37 view .LVU12
  57 001a 1F33     		adds	r3, r3, #31
  58              		.loc 1 45 7 view .LVU13
  59 001c 23F01F03 		bic	r3, r3, #31
  60              	.LVL2:
  46:App/Src/waveform_engine.c ****   SCB_CleanDCache_by_Addr((uint32_t *)start, (int32_t)(end - start));
  61              		.loc 1 46 3 is_stmt 1 view .LVU14
  62              		.loc 1 46 60 is_stmt 0 view .LVU15
  63 0020 9B1A     		subs	r3, r3, r2
  64              	.LVL3:
  65              	.LBB18:
  66              	.LBI18:
  67              		.file 2 "Drivers/CMSIS/Include/cachel1_armv7.h"
   1:Drivers/CMSIS/Include/cachel1_armv7.h **** /******************************************************************************
   2:Drivers/CMSIS/Include/cachel1_armv7.h ****  * @file     cachel1_armv7.h
ARM GAS  C:\Users\hh\AppData\Local\Temp\ccVmJpKZ.s 			page 3


   3:Drivers/CMSIS/Include/cachel1_armv7.h ****  * @brief    CMSIS Level 1 Cache API for Armv7-M and later
   4:Drivers/CMSIS/Include/cachel1_armv7.h ****  * @version  V1.0.3
   5:Drivers/CMSIS/Include/cachel1_armv7.h ****  * @date     17. March 2023
   6:Drivers/CMSIS/Include/cachel1_armv7.h ****  ******************************************************************************/
   7:Drivers/CMSIS/Include/cachel1_armv7.h **** /*
   8:Drivers/CMSIS/Include/cachel1_armv7.h ****  * Copyright (c) 2020-2021 Arm Limited. All rights reserved.
   9:Drivers/CMSIS/Include/cachel1_armv7.h ****  *
  10:Drivers/CMSIS/Include/cachel1_armv7.h ****  * SPDX-License-Identifier: Apache-2.0
  11:Drivers/CMSIS/Include/cachel1_armv7.h ****  *
  12:Drivers/CMSIS/Include/cachel1_armv7.h ****  * Licensed under the Apache License, Version 2.0 (the License); you may
  13:Drivers/CMSIS/Include/cachel1_armv7.h ****  * not use this file except in compliance with the License.
  14:Drivers/CMSIS/Include/cachel1_armv7.h ****  * You may obtain a copy of the License at
  15:Drivers/CMSIS/Include/cachel1_armv7.h ****  *
  16:Drivers/CMSIS/Include/cachel1_armv7.h ****  * www.apache.org/licenses/LICENSE-2.0
  17:Drivers/CMSIS/Include/cachel1_armv7.h ****  *
  18:Drivers/CMSIS/Include/cachel1_armv7.h ****  * Unless required by applicable law or agreed to in writing, software
  19:Drivers/CMSIS/Include/cachel1_armv7.h ****  * distributed under the License is distributed on an AS IS BASIS, WITHOUT
  20:Drivers/CMSIS/Include/cachel1_armv7.h ****  * WARRANTIES OR CONDITIONS OF ANY KIND, either express or implied.
  21:Drivers/CMSIS/Include/cachel1_armv7.h ****  * See the License for the specific language governing permissions and
  22:Drivers/CMSIS/Include/cachel1_armv7.h ****  * limitations under the License.
  23:Drivers/CMSIS/Include/cachel1_armv7.h ****  */
  24:Drivers/CMSIS/Include/cachel1_armv7.h **** 
  25:Drivers/CMSIS/Include/cachel1_armv7.h **** #if   defined ( __ICCARM__ )
  26:Drivers/CMSIS/Include/cachel1_armv7.h ****   #pragma system_include         /* treat file as system include file for MISRA check */
  27:Drivers/CMSIS/Include/cachel1_armv7.h **** #elif defined (__clang__)
  28:Drivers/CMSIS/Include/cachel1_armv7.h ****   #pragma clang system_header    /* treat file as system include file */
  29:Drivers/CMSIS/Include/cachel1_armv7.h **** #endif
  30:Drivers/CMSIS/Include/cachel1_armv7.h **** 
  31:Drivers/CMSIS/Include/cachel1_armv7.h **** #ifndef ARM_CACHEL1_ARMV7_H
  32:Drivers/CMSIS/Include/cachel1_armv7.h **** #define ARM_CACHEL1_ARMV7_H
  33:Drivers/CMSIS/Include/cachel1_armv7.h **** 
  34:Drivers/CMSIS/Include/cachel1_armv7.h **** /**
  35:Drivers/CMSIS/Include/cachel1_armv7.h ****   \ingroup  CMSIS_Core_FunctionInterface
  36:Drivers/CMSIS/Include/cachel1_armv7.h ****   \defgroup CMSIS_Core_CacheFunctions Cache Functions
  37:Drivers/CMSIS/Include/cachel1_armv7.h ****   \brief    Functions that configure Instruction and Data cache.
  38:Drivers/CMSIS/Include/cachel1_armv7.h ****   @{
  39:Drivers/CMSIS/Include/cachel1_armv7.h ****  */
  40:Drivers/CMSIS/Include/cachel1_armv7.h **** 
  41:Drivers/CMSIS/Include/cachel1_armv7.h **** /* Cache Size ID Register Macros */
  42:Drivers/CMSIS/Include/cachel1_armv7.h **** #define CCSIDR_WAYS(x)         (((x) & SCB_CCSIDR_ASSOCIATIVITY_Msk) >> SCB_CCSIDR_ASSOCIATIVITY_Po
  43:Drivers/CMSIS/Include/cachel1_armv7.h **** #define CCSIDR_SETS(x)         (((x) & SCB_CCSIDR_NUMSETS_Msk      ) >> SCB_CCSIDR_NUMSETS_Pos     
  44:Drivers/CMSIS/Include/cachel1_armv7.h **** 
  45:Drivers/CMSIS/Include/cachel1_armv7.h **** #ifndef __SCB_DCACHE_LINE_SIZE
  46:Drivers/CMSIS/Include/cachel1_armv7.h **** #define __SCB_DCACHE_LINE_SIZE  32U /*!< Cortex-M7 cache line size is fixed to 32 bytes (8 words). 
  47:Drivers/CMSIS/Include/cachel1_armv7.h **** #endif
  48:Drivers/CMSIS/Include/cachel1_armv7.h **** 
  49:Drivers/CMSIS/Include/cachel1_armv7.h **** #ifndef __SCB_ICACHE_LINE_SIZE
  50:Drivers/CMSIS/Include/cachel1_armv7.h **** #define __SCB_ICACHE_LINE_SIZE  32U /*!< Cortex-M7 cache line size is fixed to 32 bytes (8 words). 
  51:Drivers/CMSIS/Include/cachel1_armv7.h **** #endif
  52:Drivers/CMSIS/Include/cachel1_armv7.h **** 
  53:Drivers/CMSIS/Include/cachel1_armv7.h **** /**
  54:Drivers/CMSIS/Include/cachel1_armv7.h ****   \brief   Enable I-Cache
  55:Drivers/CMSIS/Include/cachel1_armv7.h ****   \details Turns on I-Cache
  56:Drivers/CMSIS/Include/cachel1_armv7.h ****   */
  57:Drivers/CMSIS/Include/cachel1_armv7.h **** __STATIC_FORCEINLINE void SCB_EnableICache (void)
  58:Drivers/CMSIS/Include/cachel1_armv7.h **** {
  59:Drivers/CMSIS/Include/cachel1_armv7.h ****   #if defined (__ICACHE_PRESENT) && (__ICACHE_PRESENT == 1U)
ARM GAS  C:\Users\hh\AppData\Local\Temp\ccVmJpKZ.s 			page 4


  60:Drivers/CMSIS/Include/cachel1_armv7.h ****     if (SCB->CCR & SCB_CCR_IC_Msk) return;  /* return if ICache is already enabled */
  61:Drivers/CMSIS/Include/cachel1_armv7.h **** 
  62:Drivers/CMSIS/Include/cachel1_armv7.h ****     __DSB();
  63:Drivers/CMSIS/Include/cachel1_armv7.h ****     __ISB();
  64:Drivers/CMSIS/Include/cachel1_armv7.h ****     SCB->ICIALLU = 0UL;                     /* invalidate I-Cache */
  65:Drivers/CMSIS/Include/cachel1_armv7.h ****     __DSB();
  66:Drivers/CMSIS/Include/cachel1_armv7.h ****     __ISB();
  67:Drivers/CMSIS/Include/cachel1_armv7.h ****     SCB->CCR |=  (uint32_t)SCB_CCR_IC_Msk;  /* enable I-Cache */
  68:Drivers/CMSIS/Include/cachel1_armv7.h ****     __DSB();
  69:Drivers/CMSIS/Include/cachel1_armv7.h ****     __ISB();
  70:Drivers/CMSIS/Include/cachel1_armv7.h ****   #endif
  71:Drivers/CMSIS/Include/cachel1_armv7.h **** }
  72:Drivers/CMSIS/Include/cachel1_armv7.h **** 
  73:Drivers/CMSIS/Include/cachel1_armv7.h **** 
  74:Drivers/CMSIS/Include/cachel1_armv7.h **** /**
  75:Drivers/CMSIS/Include/cachel1_armv7.h ****   \brief   Disable I-Cache
  76:Drivers/CMSIS/Include/cachel1_armv7.h ****   \details Turns off I-Cache
  77:Drivers/CMSIS/Include/cachel1_armv7.h ****   */
  78:Drivers/CMSIS/Include/cachel1_armv7.h **** __STATIC_FORCEINLINE void SCB_DisableICache (void)
  79:Drivers/CMSIS/Include/cachel1_armv7.h **** {
  80:Drivers/CMSIS/Include/cachel1_armv7.h ****   #if defined (__ICACHE_PRESENT) && (__ICACHE_PRESENT == 1U)
  81:Drivers/CMSIS/Include/cachel1_armv7.h ****     __DSB();
  82:Drivers/CMSIS/Include/cachel1_armv7.h ****     __ISB();
  83:Drivers/CMSIS/Include/cachel1_armv7.h ****     SCB->CCR &= ~(uint32_t)SCB_CCR_IC_Msk;  /* disable I-Cache */
  84:Drivers/CMSIS/Include/cachel1_armv7.h ****     SCB->ICIALLU = 0UL;                     /* invalidate I-Cache */
  85:Drivers/CMSIS/Include/cachel1_armv7.h ****     __DSB();
  86:Drivers/CMSIS/Include/cachel1_armv7.h ****     __ISB();
  87:Drivers/CMSIS/Include/cachel1_armv7.h ****   #endif
  88:Drivers/CMSIS/Include/cachel1_armv7.h **** }
  89:Drivers/CMSIS/Include/cachel1_armv7.h **** 
  90:Drivers/CMSIS/Include/cachel1_armv7.h **** 
  91:Drivers/CMSIS/Include/cachel1_armv7.h **** /**
  92:Drivers/CMSIS/Include/cachel1_armv7.h ****   \brief   Invalidate I-Cache
  93:Drivers/CMSIS/Include/cachel1_armv7.h ****   \details Invalidates I-Cache
  94:Drivers/CMSIS/Include/cachel1_armv7.h ****   */
  95:Drivers/CMSIS/Include/cachel1_armv7.h **** __STATIC_FORCEINLINE void SCB_InvalidateICache (void)
  96:Drivers/CMSIS/Include/cachel1_armv7.h **** {
  97:Drivers/CMSIS/Include/cachel1_armv7.h ****   #if defined (__ICACHE_PRESENT) && (__ICACHE_PRESENT == 1U)
  98:Drivers/CMSIS/Include/cachel1_armv7.h ****     __DSB();
  99:Drivers/CMSIS/Include/cachel1_armv7.h ****     __ISB();
 100:Drivers/CMSIS/Include/cachel1_armv7.h ****     SCB->ICIALLU = 0UL;
 101:Drivers/CMSIS/Include/cachel1_armv7.h ****     __DSB();
 102:Drivers/CMSIS/Include/cachel1_armv7.h ****     __ISB();
 103:Drivers/CMSIS/Include/cachel1_armv7.h ****   #endif
 104:Drivers/CMSIS/Include/cachel1_armv7.h **** }
 105:Drivers/CMSIS/Include/cachel1_armv7.h **** 
 106:Drivers/CMSIS/Include/cachel1_armv7.h **** 
 107:Drivers/CMSIS/Include/cachel1_armv7.h **** /**
 108:Drivers/CMSIS/Include/cachel1_armv7.h ****   \brief   I-Cache Invalidate by address
 109:Drivers/CMSIS/Include/cachel1_armv7.h ****   \details Invalidates I-Cache for the given address.
 110:Drivers/CMSIS/Include/cachel1_armv7.h ****            I-Cache is invalidated starting from a 32 byte aligned address in 32 byte granularity.
 111:Drivers/CMSIS/Include/cachel1_armv7.h ****            I-Cache memory blocks which are part of given address + given size are invalidated.
 112:Drivers/CMSIS/Include/cachel1_armv7.h ****   \param[in]   addr    address
 113:Drivers/CMSIS/Include/cachel1_armv7.h ****   \param[in]   isize   size of memory block (in number of bytes)
 114:Drivers/CMSIS/Include/cachel1_armv7.h **** */
 115:Drivers/CMSIS/Include/cachel1_armv7.h **** __STATIC_FORCEINLINE void SCB_InvalidateICache_by_Addr (volatile void *addr, int32_t isize)
 116:Drivers/CMSIS/Include/cachel1_armv7.h **** {
ARM GAS  C:\Users\hh\AppData\Local\Temp\ccVmJpKZ.s 			page 5


 117:Drivers/CMSIS/Include/cachel1_armv7.h ****   #if defined (__ICACHE_PRESENT) && (__ICACHE_PRESENT == 1U)
 118:Drivers/CMSIS/Include/cachel1_armv7.h ****     if ( isize > 0 ) {
 119:Drivers/CMSIS/Include/cachel1_armv7.h ****        int32_t op_size = isize + (((uint32_t)addr) & (__SCB_ICACHE_LINE_SIZE - 1U));
 120:Drivers/CMSIS/Include/cachel1_armv7.h ****       uint32_t op_addr = (uint32_t)addr /* & ~(__SCB_ICACHE_LINE_SIZE - 1U) */;
 121:Drivers/CMSIS/Include/cachel1_armv7.h **** 
 122:Drivers/CMSIS/Include/cachel1_armv7.h ****       __DSB();
 123:Drivers/CMSIS/Include/cachel1_armv7.h **** 
 124:Drivers/CMSIS/Include/cachel1_armv7.h ****       do {
 125:Drivers/CMSIS/Include/cachel1_armv7.h ****         SCB->ICIMVAU = op_addr;             /* register accepts only 32byte aligned values, only bi
 126:Drivers/CMSIS/Include/cachel1_armv7.h ****         op_addr += __SCB_ICACHE_LINE_SIZE;
 127:Drivers/CMSIS/Include/cachel1_armv7.h ****         op_size -= __SCB_ICACHE_LINE_SIZE;
 128:Drivers/CMSIS/Include/cachel1_armv7.h ****       } while ( op_size > 0 );
 129:Drivers/CMSIS/Include/cachel1_armv7.h **** 
 130:Drivers/CMSIS/Include/cachel1_armv7.h ****       __DSB();
 131:Drivers/CMSIS/Include/cachel1_armv7.h ****       __ISB();
 132:Drivers/CMSIS/Include/cachel1_armv7.h ****     }
 133:Drivers/CMSIS/Include/cachel1_armv7.h ****   #endif
 134:Drivers/CMSIS/Include/cachel1_armv7.h **** }
 135:Drivers/CMSIS/Include/cachel1_armv7.h **** 
 136:Drivers/CMSIS/Include/cachel1_armv7.h **** 
 137:Drivers/CMSIS/Include/cachel1_armv7.h **** /**
 138:Drivers/CMSIS/Include/cachel1_armv7.h ****   \brief   Enable D-Cache
 139:Drivers/CMSIS/Include/cachel1_armv7.h ****   \details Turns on D-Cache
 140:Drivers/CMSIS/Include/cachel1_armv7.h ****   */
 141:Drivers/CMSIS/Include/cachel1_armv7.h **** __STATIC_FORCEINLINE void SCB_EnableDCache (void)
 142:Drivers/CMSIS/Include/cachel1_armv7.h **** {
 143:Drivers/CMSIS/Include/cachel1_armv7.h ****   #if defined (__DCACHE_PRESENT) && (__DCACHE_PRESENT == 1U)
 144:Drivers/CMSIS/Include/cachel1_armv7.h ****     uint32_t ccsidr;
 145:Drivers/CMSIS/Include/cachel1_armv7.h ****     uint32_t sets;
 146:Drivers/CMSIS/Include/cachel1_armv7.h ****     uint32_t ways;
 147:Drivers/CMSIS/Include/cachel1_armv7.h **** 
 148:Drivers/CMSIS/Include/cachel1_armv7.h ****     if (SCB->CCR & SCB_CCR_DC_Msk) return;  /* return if DCache is already enabled */
 149:Drivers/CMSIS/Include/cachel1_armv7.h **** 
 150:Drivers/CMSIS/Include/cachel1_armv7.h ****     SCB->CSSELR = 0U;                       /* select Level 1 data cache */
 151:Drivers/CMSIS/Include/cachel1_armv7.h ****     __DSB();
 152:Drivers/CMSIS/Include/cachel1_armv7.h **** 
 153:Drivers/CMSIS/Include/cachel1_armv7.h ****     ccsidr = SCB->CCSIDR;
 154:Drivers/CMSIS/Include/cachel1_armv7.h **** 
 155:Drivers/CMSIS/Include/cachel1_armv7.h ****                                             /* invalidate D-Cache */
 156:Drivers/CMSIS/Include/cachel1_armv7.h ****     sets = (uint32_t)(CCSIDR_SETS(ccsidr));
 157:Drivers/CMSIS/Include/cachel1_armv7.h ****     do {
 158:Drivers/CMSIS/Include/cachel1_armv7.h ****       ways = (uint32_t)(CCSIDR_WAYS(ccsidr));
 159:Drivers/CMSIS/Include/cachel1_armv7.h ****       do {
 160:Drivers/CMSIS/Include/cachel1_armv7.h ****         SCB->DCISW = (((sets << SCB_DCISW_SET_Pos) & SCB_DCISW_SET_Msk) |
 161:Drivers/CMSIS/Include/cachel1_armv7.h ****                       ((ways << SCB_DCISW_WAY_Pos) & SCB_DCISW_WAY_Msk)  );
 162:Drivers/CMSIS/Include/cachel1_armv7.h ****         #if defined ( __CC_ARM )
 163:Drivers/CMSIS/Include/cachel1_armv7.h ****           __schedule_barrier();
 164:Drivers/CMSIS/Include/cachel1_armv7.h ****         #endif
 165:Drivers/CMSIS/Include/cachel1_armv7.h ****       } while (ways-- != 0U);
 166:Drivers/CMSIS/Include/cachel1_armv7.h ****     } while(sets-- != 0U);
 167:Drivers/CMSIS/Include/cachel1_armv7.h ****     __DSB();
 168:Drivers/CMSIS/Include/cachel1_armv7.h **** 
 169:Drivers/CMSIS/Include/cachel1_armv7.h ****     SCB->CCR |=  (uint32_t)SCB_CCR_DC_Msk;  /* enable D-Cache */
 170:Drivers/CMSIS/Include/cachel1_armv7.h **** 
 171:Drivers/CMSIS/Include/cachel1_armv7.h ****     __DSB();
 172:Drivers/CMSIS/Include/cachel1_armv7.h ****     __ISB();
 173:Drivers/CMSIS/Include/cachel1_armv7.h ****   #endif
ARM GAS  C:\Users\hh\AppData\Local\Temp\ccVmJpKZ.s 			page 6


 174:Drivers/CMSIS/Include/cachel1_armv7.h **** }
 175:Drivers/CMSIS/Include/cachel1_armv7.h **** 
 176:Drivers/CMSIS/Include/cachel1_armv7.h **** 
 177:Drivers/CMSIS/Include/cachel1_armv7.h **** /**
 178:Drivers/CMSIS/Include/cachel1_armv7.h ****   \brief   Disable D-Cache
 179:Drivers/CMSIS/Include/cachel1_armv7.h ****   \details Turns off D-Cache
 180:Drivers/CMSIS/Include/cachel1_armv7.h ****   */
 181:Drivers/CMSIS/Include/cachel1_armv7.h **** __STATIC_FORCEINLINE void SCB_DisableDCache (void)
 182:Drivers/CMSIS/Include/cachel1_armv7.h **** {
 183:Drivers/CMSIS/Include/cachel1_armv7.h ****   #if defined (__DCACHE_PRESENT) && (__DCACHE_PRESENT == 1U)
 184:Drivers/CMSIS/Include/cachel1_armv7.h ****     struct {
 185:Drivers/CMSIS/Include/cachel1_armv7.h ****     uint32_t ccsidr;
 186:Drivers/CMSIS/Include/cachel1_armv7.h ****     uint32_t sets;
 187:Drivers/CMSIS/Include/cachel1_armv7.h ****     uint32_t ways;
 188:Drivers/CMSIS/Include/cachel1_armv7.h ****     } locals
 189:Drivers/CMSIS/Include/cachel1_armv7.h ****     #if ((defined(__GNUC__) || defined(__clang__)) && !defined(__OPTIMIZE__))
 190:Drivers/CMSIS/Include/cachel1_armv7.h ****        __ALIGNED(__SCB_DCACHE_LINE_SIZE)
 191:Drivers/CMSIS/Include/cachel1_armv7.h ****     #endif
 192:Drivers/CMSIS/Include/cachel1_armv7.h ****     ;
 193:Drivers/CMSIS/Include/cachel1_armv7.h **** 
 194:Drivers/CMSIS/Include/cachel1_armv7.h ****     SCB->CSSELR = 0U;                       /* select Level 1 data cache */
 195:Drivers/CMSIS/Include/cachel1_armv7.h ****     __DSB();
 196:Drivers/CMSIS/Include/cachel1_armv7.h **** 
 197:Drivers/CMSIS/Include/cachel1_armv7.h ****     SCB->CCR &= ~(uint32_t)SCB_CCR_DC_Msk;  /* disable D-Cache */
 198:Drivers/CMSIS/Include/cachel1_armv7.h ****     __DSB();
 199:Drivers/CMSIS/Include/cachel1_armv7.h **** 
 200:Drivers/CMSIS/Include/cachel1_armv7.h ****     #if !defined(__OPTIMIZE__)
 201:Drivers/CMSIS/Include/cachel1_armv7.h ****       /*
 202:Drivers/CMSIS/Include/cachel1_armv7.h ****        * For the endless loop issue with no optimization builds.
 203:Drivers/CMSIS/Include/cachel1_armv7.h ****        * More details, see https://github.com/ARM-software/CMSIS_5/issues/620
 204:Drivers/CMSIS/Include/cachel1_armv7.h ****        *
 205:Drivers/CMSIS/Include/cachel1_armv7.h ****        * The issue only happens when local variables are in stack. If
 206:Drivers/CMSIS/Include/cachel1_armv7.h ****        * local variables are saved in general purpose register, then the function
 207:Drivers/CMSIS/Include/cachel1_armv7.h ****        * is OK.
 208:Drivers/CMSIS/Include/cachel1_armv7.h ****        *
 209:Drivers/CMSIS/Include/cachel1_armv7.h ****        * When local variables are in stack, after disabling the cache, flush the
 210:Drivers/CMSIS/Include/cachel1_armv7.h ****        * local variables cache line for data consistency.
 211:Drivers/CMSIS/Include/cachel1_armv7.h ****        */
 212:Drivers/CMSIS/Include/cachel1_armv7.h ****       /* Clean and invalidate the local variable cache. */
 213:Drivers/CMSIS/Include/cachel1_armv7.h ****     #if defined(__ICCARM__)
 214:Drivers/CMSIS/Include/cachel1_armv7.h ****     /* As we can't align the stack to the cache line size, invalidate each of the variables */
 215:Drivers/CMSIS/Include/cachel1_armv7.h ****       SCB->DCCIMVAC = (uint32_t)&locals.sets;
 216:Drivers/CMSIS/Include/cachel1_armv7.h ****       SCB->DCCIMVAC = (uint32_t)&locals.ways;
 217:Drivers/CMSIS/Include/cachel1_armv7.h ****       SCB->DCCIMVAC = (uint32_t)&locals.ccsidr;
 218:Drivers/CMSIS/Include/cachel1_armv7.h ****     #else
 219:Drivers/CMSIS/Include/cachel1_armv7.h ****       SCB->DCCIMVAC = (uint32_t)&locals;
 220:Drivers/CMSIS/Include/cachel1_armv7.h ****     #endif
 221:Drivers/CMSIS/Include/cachel1_armv7.h ****       __DSB();
 222:Drivers/CMSIS/Include/cachel1_armv7.h ****       __ISB();
 223:Drivers/CMSIS/Include/cachel1_armv7.h ****     #endif
 224:Drivers/CMSIS/Include/cachel1_armv7.h **** 
 225:Drivers/CMSIS/Include/cachel1_armv7.h ****     locals.ccsidr = SCB->CCSIDR;
 226:Drivers/CMSIS/Include/cachel1_armv7.h ****                                             /* clean & invalidate D-Cache */
 227:Drivers/CMSIS/Include/cachel1_armv7.h ****     locals.sets = (uint32_t)(CCSIDR_SETS(locals.ccsidr));
 228:Drivers/CMSIS/Include/cachel1_armv7.h ****     do {
 229:Drivers/CMSIS/Include/cachel1_armv7.h ****       locals.ways = (uint32_t)(CCSIDR_WAYS(locals.ccsidr));
 230:Drivers/CMSIS/Include/cachel1_armv7.h ****       do {
ARM GAS  C:\Users\hh\AppData\Local\Temp\ccVmJpKZ.s 			page 7


 231:Drivers/CMSIS/Include/cachel1_armv7.h ****         SCB->DCCISW = (((locals.sets << SCB_DCCISW_SET_Pos) & SCB_DCCISW_SET_Msk) |
 232:Drivers/CMSIS/Include/cachel1_armv7.h ****                        ((locals.ways << SCB_DCCISW_WAY_Pos) & SCB_DCCISW_WAY_Msk)  );
 233:Drivers/CMSIS/Include/cachel1_armv7.h ****         #if defined ( __CC_ARM )
 234:Drivers/CMSIS/Include/cachel1_armv7.h ****           __schedule_barrier();
 235:Drivers/CMSIS/Include/cachel1_armv7.h ****         #endif
 236:Drivers/CMSIS/Include/cachel1_armv7.h ****       } while (locals.ways-- != 0U);
 237:Drivers/CMSIS/Include/cachel1_armv7.h ****     } while(locals.sets-- != 0U);
 238:Drivers/CMSIS/Include/cachel1_armv7.h **** 
 239:Drivers/CMSIS/Include/cachel1_armv7.h ****     __DSB();
 240:Drivers/CMSIS/Include/cachel1_armv7.h ****     __ISB();
 241:Drivers/CMSIS/Include/cachel1_armv7.h ****   #endif
 242:Drivers/CMSIS/Include/cachel1_armv7.h **** }
 243:Drivers/CMSIS/Include/cachel1_armv7.h **** 
 244:Drivers/CMSIS/Include/cachel1_armv7.h **** 
 245:Drivers/CMSIS/Include/cachel1_armv7.h **** /**
 246:Drivers/CMSIS/Include/cachel1_armv7.h ****   \brief   Invalidate D-Cache
 247:Drivers/CMSIS/Include/cachel1_armv7.h ****   \details Invalidates D-Cache
 248:Drivers/CMSIS/Include/cachel1_armv7.h ****   */
 249:Drivers/CMSIS/Include/cachel1_armv7.h **** __STATIC_FORCEINLINE void SCB_InvalidateDCache (void)
 250:Drivers/CMSIS/Include/cachel1_armv7.h **** {
 251:Drivers/CMSIS/Include/cachel1_armv7.h ****   #if defined (__DCACHE_PRESENT) && (__DCACHE_PRESENT == 1U)
 252:Drivers/CMSIS/Include/cachel1_armv7.h ****     uint32_t ccsidr;
 253:Drivers/CMSIS/Include/cachel1_armv7.h ****     uint32_t sets;
 254:Drivers/CMSIS/Include/cachel1_armv7.h ****     uint32_t ways;
 255:Drivers/CMSIS/Include/cachel1_armv7.h **** 
 256:Drivers/CMSIS/Include/cachel1_armv7.h ****     SCB->CSSELR = 0U;                       /* select Level 1 data cache */
 257:Drivers/CMSIS/Include/cachel1_armv7.h ****     __DSB();
 258:Drivers/CMSIS/Include/cachel1_armv7.h **** 
 259:Drivers/CMSIS/Include/cachel1_armv7.h ****     ccsidr = SCB->CCSIDR;
 260:Drivers/CMSIS/Include/cachel1_armv7.h **** 
 261:Drivers/CMSIS/Include/cachel1_armv7.h ****                                             /* invalidate D-Cache */
 262:Drivers/CMSIS/Include/cachel1_armv7.h ****     sets = (uint32_t)(CCSIDR_SETS(ccsidr));
 263:Drivers/CMSIS/Include/cachel1_armv7.h ****     do {
 264:Drivers/CMSIS/Include/cachel1_armv7.h ****       ways = (uint32_t)(CCSIDR_WAYS(ccsidr));
 265:Drivers/CMSIS/Include/cachel1_armv7.h ****       do {
 266:Drivers/CMSIS/Include/cachel1_armv7.h ****         SCB->DCISW = (((sets << SCB_DCISW_SET_Pos) & SCB_DCISW_SET_Msk) |
 267:Drivers/CMSIS/Include/cachel1_armv7.h ****                       ((ways << SCB_DCISW_WAY_Pos) & SCB_DCISW_WAY_Msk)  );
 268:Drivers/CMSIS/Include/cachel1_armv7.h ****         #if defined ( __CC_ARM )
 269:Drivers/CMSIS/Include/cachel1_armv7.h ****           __schedule_barrier();
 270:Drivers/CMSIS/Include/cachel1_armv7.h ****         #endif
 271:Drivers/CMSIS/Include/cachel1_armv7.h ****       } while (ways-- != 0U);
 272:Drivers/CMSIS/Include/cachel1_armv7.h ****     } while(sets-- != 0U);
 273:Drivers/CMSIS/Include/cachel1_armv7.h **** 
 274:Drivers/CMSIS/Include/cachel1_armv7.h ****     __DSB();
 275:Drivers/CMSIS/Include/cachel1_armv7.h ****     __ISB();
 276:Drivers/CMSIS/Include/cachel1_armv7.h ****   #endif
 277:Drivers/CMSIS/Include/cachel1_armv7.h **** }
 278:Drivers/CMSIS/Include/cachel1_armv7.h **** 
 279:Drivers/CMSIS/Include/cachel1_armv7.h **** 
 280:Drivers/CMSIS/Include/cachel1_armv7.h **** /**
 281:Drivers/CMSIS/Include/cachel1_armv7.h ****   \brief   Clean D-Cache
 282:Drivers/CMSIS/Include/cachel1_armv7.h ****   \details Cleans D-Cache
 283:Drivers/CMSIS/Include/cachel1_armv7.h ****   */
 284:Drivers/CMSIS/Include/cachel1_armv7.h **** __STATIC_FORCEINLINE void SCB_CleanDCache (void)
 285:Drivers/CMSIS/Include/cachel1_armv7.h **** {
 286:Drivers/CMSIS/Include/cachel1_armv7.h ****   #if defined (__DCACHE_PRESENT) && (__DCACHE_PRESENT == 1U)
 287:Drivers/CMSIS/Include/cachel1_armv7.h ****     uint32_t ccsidr;
ARM GAS  C:\Users\hh\AppData\Local\Temp\ccVmJpKZ.s 			page 8


 288:Drivers/CMSIS/Include/cachel1_armv7.h ****     uint32_t sets;
 289:Drivers/CMSIS/Include/cachel1_armv7.h ****     uint32_t ways;
 290:Drivers/CMSIS/Include/cachel1_armv7.h **** 
 291:Drivers/CMSIS/Include/cachel1_armv7.h ****     SCB->CSSELR = 0U;                       /* select Level 1 data cache */
 292:Drivers/CMSIS/Include/cachel1_armv7.h ****     __DSB();
 293:Drivers/CMSIS/Include/cachel1_armv7.h **** 
 294:Drivers/CMSIS/Include/cachel1_armv7.h ****     ccsidr = SCB->CCSIDR;
 295:Drivers/CMSIS/Include/cachel1_armv7.h **** 
 296:Drivers/CMSIS/Include/cachel1_armv7.h ****                                             /* clean D-Cache */
 297:Drivers/CMSIS/Include/cachel1_armv7.h ****     sets = (uint32_t)(CCSIDR_SETS(ccsidr));
 298:Drivers/CMSIS/Include/cachel1_armv7.h ****     do {
 299:Drivers/CMSIS/Include/cachel1_armv7.h ****       ways = (uint32_t)(CCSIDR_WAYS(ccsidr));
 300:Drivers/CMSIS/Include/cachel1_armv7.h ****       do {
 301:Drivers/CMSIS/Include/cachel1_armv7.h ****         SCB->DCCSW = (((sets << SCB_DCCSW_SET_Pos) & SCB_DCCSW_SET_Msk) |
 302:Drivers/CMSIS/Include/cachel1_armv7.h ****                       ((ways << SCB_DCCSW_WAY_Pos) & SCB_DCCSW_WAY_Msk)  );
 303:Drivers/CMSIS/Include/cachel1_armv7.h ****         #if defined ( __CC_ARM )
 304:Drivers/CMSIS/Include/cachel1_armv7.h ****           __schedule_barrier();
 305:Drivers/CMSIS/Include/cachel1_armv7.h ****         #endif
 306:Drivers/CMSIS/Include/cachel1_armv7.h ****       } while (ways-- != 0U);
 307:Drivers/CMSIS/Include/cachel1_armv7.h ****     } while(sets-- != 0U);
 308:Drivers/CMSIS/Include/cachel1_armv7.h **** 
 309:Drivers/CMSIS/Include/cachel1_armv7.h ****     __DSB();
 310:Drivers/CMSIS/Include/cachel1_armv7.h ****     __ISB();
 311:Drivers/CMSIS/Include/cachel1_armv7.h ****   #endif
 312:Drivers/CMSIS/Include/cachel1_armv7.h **** }
 313:Drivers/CMSIS/Include/cachel1_armv7.h **** 
 314:Drivers/CMSIS/Include/cachel1_armv7.h **** 
 315:Drivers/CMSIS/Include/cachel1_armv7.h **** /**
 316:Drivers/CMSIS/Include/cachel1_armv7.h ****   \brief   Clean & Invalidate D-Cache
 317:Drivers/CMSIS/Include/cachel1_armv7.h ****   \details Cleans and Invalidates D-Cache
 318:Drivers/CMSIS/Include/cachel1_armv7.h ****   */
 319:Drivers/CMSIS/Include/cachel1_armv7.h **** __STATIC_FORCEINLINE void SCB_CleanInvalidateDCache (void)
 320:Drivers/CMSIS/Include/cachel1_armv7.h **** {
 321:Drivers/CMSIS/Include/cachel1_armv7.h ****   #if defined (__DCACHE_PRESENT) && (__DCACHE_PRESENT == 1U)
 322:Drivers/CMSIS/Include/cachel1_armv7.h ****     uint32_t ccsidr;
 323:Drivers/CMSIS/Include/cachel1_armv7.h ****     uint32_t sets;
 324:Drivers/CMSIS/Include/cachel1_armv7.h ****     uint32_t ways;
 325:Drivers/CMSIS/Include/cachel1_armv7.h **** 
 326:Drivers/CMSIS/Include/cachel1_armv7.h ****     SCB->CSSELR = 0U;                       /* select Level 1 data cache */
 327:Drivers/CMSIS/Include/cachel1_armv7.h ****     __DSB();
 328:Drivers/CMSIS/Include/cachel1_armv7.h **** 
 329:Drivers/CMSIS/Include/cachel1_armv7.h ****     ccsidr = SCB->CCSIDR;
 330:Drivers/CMSIS/Include/cachel1_armv7.h **** 
 331:Drivers/CMSIS/Include/cachel1_armv7.h ****                                             /* clean & invalidate D-Cache */
 332:Drivers/CMSIS/Include/cachel1_armv7.h ****     sets = (uint32_t)(CCSIDR_SETS(ccsidr));
 333:Drivers/CMSIS/Include/cachel1_armv7.h ****     do {
 334:Drivers/CMSIS/Include/cachel1_armv7.h ****       ways = (uint32_t)(CCSIDR_WAYS(ccsidr));
 335:Drivers/CMSIS/Include/cachel1_armv7.h ****       do {
 336:Drivers/CMSIS/Include/cachel1_armv7.h ****         SCB->DCCISW = (((sets << SCB_DCCISW_SET_Pos) & SCB_DCCISW_SET_Msk) |
 337:Drivers/CMSIS/Include/cachel1_armv7.h ****                        ((ways << SCB_DCCISW_WAY_Pos) & SCB_DCCISW_WAY_Msk)  );
 338:Drivers/CMSIS/Include/cachel1_armv7.h ****         #if defined ( __CC_ARM )
 339:Drivers/CMSIS/Include/cachel1_armv7.h ****           __schedule_barrier();
 340:Drivers/CMSIS/Include/cachel1_armv7.h ****         #endif
 341:Drivers/CMSIS/Include/cachel1_armv7.h ****       } while (ways-- != 0U);
 342:Drivers/CMSIS/Include/cachel1_armv7.h ****     } while(sets-- != 0U);
 343:Drivers/CMSIS/Include/cachel1_armv7.h **** 
 344:Drivers/CMSIS/Include/cachel1_armv7.h ****     __DSB();
ARM GAS  C:\Users\hh\AppData\Local\Temp\ccVmJpKZ.s 			page 9


 345:Drivers/CMSIS/Include/cachel1_armv7.h ****     __ISB();
 346:Drivers/CMSIS/Include/cachel1_armv7.h ****   #endif
 347:Drivers/CMSIS/Include/cachel1_armv7.h **** }
 348:Drivers/CMSIS/Include/cachel1_armv7.h **** 
 349:Drivers/CMSIS/Include/cachel1_armv7.h **** 
 350:Drivers/CMSIS/Include/cachel1_armv7.h **** /**
 351:Drivers/CMSIS/Include/cachel1_armv7.h ****   \brief   D-Cache Invalidate by address
 352:Drivers/CMSIS/Include/cachel1_armv7.h ****   \details Invalidates D-Cache for the given address.
 353:Drivers/CMSIS/Include/cachel1_armv7.h ****            D-Cache is invalidated starting from a 32 byte aligned address in 32 byte granularity.
 354:Drivers/CMSIS/Include/cachel1_armv7.h ****            D-Cache memory blocks which are part of given address + given size are invalidated.
 355:Drivers/CMSIS/Include/cachel1_armv7.h ****   \param[in]   addr    address
 356:Drivers/CMSIS/Include/cachel1_armv7.h ****   \param[in]   dsize   size of memory block (in number of bytes)
 357:Drivers/CMSIS/Include/cachel1_armv7.h **** */
 358:Drivers/CMSIS/Include/cachel1_armv7.h **** __STATIC_FORCEINLINE void SCB_InvalidateDCache_by_Addr (volatile void *addr, int32_t dsize)
 359:Drivers/CMSIS/Include/cachel1_armv7.h **** {
 360:Drivers/CMSIS/Include/cachel1_armv7.h ****   #if defined (__DCACHE_PRESENT) && (__DCACHE_PRESENT == 1U)
 361:Drivers/CMSIS/Include/cachel1_armv7.h ****     if ( dsize > 0 ) {
 362:Drivers/CMSIS/Include/cachel1_armv7.h ****        int32_t op_size = dsize + (((uint32_t)addr) & (__SCB_DCACHE_LINE_SIZE - 1U));
 363:Drivers/CMSIS/Include/cachel1_armv7.h ****       uint32_t op_addr = (uint32_t)addr /* & ~(__SCB_DCACHE_LINE_SIZE - 1U) */;
 364:Drivers/CMSIS/Include/cachel1_armv7.h **** 
 365:Drivers/CMSIS/Include/cachel1_armv7.h ****       __DSB();
 366:Drivers/CMSIS/Include/cachel1_armv7.h **** 
 367:Drivers/CMSIS/Include/cachel1_armv7.h ****       do {
 368:Drivers/CMSIS/Include/cachel1_armv7.h ****         SCB->DCIMVAC = op_addr;             /* register accepts only 32byte aligned values, only bi
 369:Drivers/CMSIS/Include/cachel1_armv7.h ****         op_addr += __SCB_DCACHE_LINE_SIZE;
 370:Drivers/CMSIS/Include/cachel1_armv7.h ****         op_size -= __SCB_DCACHE_LINE_SIZE;
 371:Drivers/CMSIS/Include/cachel1_armv7.h ****       } while ( op_size > 0 );
 372:Drivers/CMSIS/Include/cachel1_armv7.h **** 
 373:Drivers/CMSIS/Include/cachel1_armv7.h ****       __DSB();
 374:Drivers/CMSIS/Include/cachel1_armv7.h ****       __ISB();
 375:Drivers/CMSIS/Include/cachel1_armv7.h ****     }
 376:Drivers/CMSIS/Include/cachel1_armv7.h ****   #endif
 377:Drivers/CMSIS/Include/cachel1_armv7.h **** }
 378:Drivers/CMSIS/Include/cachel1_armv7.h **** 
 379:Drivers/CMSIS/Include/cachel1_armv7.h **** 
 380:Drivers/CMSIS/Include/cachel1_armv7.h **** /**
 381:Drivers/CMSIS/Include/cachel1_armv7.h ****   \brief   D-Cache Clean by address
 382:Drivers/CMSIS/Include/cachel1_armv7.h ****   \details Cleans D-Cache for the given address
 383:Drivers/CMSIS/Include/cachel1_armv7.h ****            D-Cache is cleaned starting from a 32 byte aligned address in 32 byte granularity.
 384:Drivers/CMSIS/Include/cachel1_armv7.h ****            D-Cache memory blocks which are part of given address + given size are cleaned.
 385:Drivers/CMSIS/Include/cachel1_armv7.h ****   \param[in]   addr    address
 386:Drivers/CMSIS/Include/cachel1_armv7.h ****   \param[in]   dsize   size of memory block (in number of bytes)
 387:Drivers/CMSIS/Include/cachel1_armv7.h **** */
 388:Drivers/CMSIS/Include/cachel1_armv7.h **** __STATIC_FORCEINLINE void SCB_CleanDCache_by_Addr (volatile void *addr, int32_t dsize)
  68              		.loc 2 388 27 is_stmt 1 view .LVU16
  69              	.LBB19:
 389:Drivers/CMSIS/Include/cachel1_armv7.h **** {
 390:Drivers/CMSIS/Include/cachel1_armv7.h ****   #if defined (__DCACHE_PRESENT) && (__DCACHE_PRESENT == 1U)
 391:Drivers/CMSIS/Include/cachel1_armv7.h ****     if ( dsize > 0 ) {
  70              		.loc 2 391 5 view .LVU17
  71              		.loc 2 391 8 is_stmt 0 view .LVU18
  72 0022 002B     		cmp	r3, #0
  73 0024 0CDD     		ble	.L1
  74              	.LBB20:
 392:Drivers/CMSIS/Include/cachel1_armv7.h ****        int32_t op_size = dsize + (((uint32_t)addr) & (__SCB_DCACHE_LINE_SIZE - 1U));
  75              		.loc 2 392 8 is_stmt 1 view .LVU19
  76              	.LVL4:
ARM GAS  C:\Users\hh\AppData\Local\Temp\ccVmJpKZ.s 			page 10


 393:Drivers/CMSIS/Include/cachel1_armv7.h ****       uint32_t op_addr = (uint32_t)addr /* & ~(__SCB_DCACHE_LINE_SIZE - 1U) */;
  77              		.loc 2 393 7 view .LVU20
 394:Drivers/CMSIS/Include/cachel1_armv7.h **** 
 395:Drivers/CMSIS/Include/cachel1_armv7.h ****       __DSB();
  78              		.loc 2 395 7 view .LVU21
  79              	.LBB21:
  80              	.LBI21:
  81              		.file 3 "Drivers/CMSIS/Include/cmsis_gcc.h"
   1:Drivers/CMSIS/Include/cmsis_gcc.h **** /**************************************************************************//**
   2:Drivers/CMSIS/Include/cmsis_gcc.h ****  * @file     cmsis_gcc.h
   3:Drivers/CMSIS/Include/cmsis_gcc.h ****  * @brief    CMSIS compiler GCC header file
   4:Drivers/CMSIS/Include/cmsis_gcc.h ****  * @version  V5.4.1
   5:Drivers/CMSIS/Include/cmsis_gcc.h ****  * @date     27. May 2021
   6:Drivers/CMSIS/Include/cmsis_gcc.h ****  ******************************************************************************/
   7:Drivers/CMSIS/Include/cmsis_gcc.h **** /*
   8:Drivers/CMSIS/Include/cmsis_gcc.h ****  * Copyright (c) 2009-2021 Arm Limited. All rights reserved.
   9:Drivers/CMSIS/Include/cmsis_gcc.h ****  *
  10:Drivers/CMSIS/Include/cmsis_gcc.h ****  * SPDX-License-Identifier: Apache-2.0
  11:Drivers/CMSIS/Include/cmsis_gcc.h ****  *
  12:Drivers/CMSIS/Include/cmsis_gcc.h ****  * Licensed under the Apache License, Version 2.0 (the License); you may
  13:Drivers/CMSIS/Include/cmsis_gcc.h ****  * not use this file except in compliance with the License.
  14:Drivers/CMSIS/Include/cmsis_gcc.h ****  * You may obtain a copy of the License at
  15:Drivers/CMSIS/Include/cmsis_gcc.h ****  *
  16:Drivers/CMSIS/Include/cmsis_gcc.h ****  * www.apache.org/licenses/LICENSE-2.0
  17:Drivers/CMSIS/Include/cmsis_gcc.h ****  *
  18:Drivers/CMSIS/Include/cmsis_gcc.h ****  * Unless required by applicable law or agreed to in writing, software
  19:Drivers/CMSIS/Include/cmsis_gcc.h ****  * distributed under the License is distributed on an AS IS BASIS, WITHOUT
  20:Drivers/CMSIS/Include/cmsis_gcc.h ****  * WARRANTIES OR CONDITIONS OF ANY KIND, either express or implied.
  21:Drivers/CMSIS/Include/cmsis_gcc.h ****  * See the License for the specific language governing permissions and
  22:Drivers/CMSIS/Include/cmsis_gcc.h ****  * limitations under the License.
  23:Drivers/CMSIS/Include/cmsis_gcc.h ****  */
  24:Drivers/CMSIS/Include/cmsis_gcc.h **** 
  25:Drivers/CMSIS/Include/cmsis_gcc.h **** #ifndef __CMSIS_GCC_H
  26:Drivers/CMSIS/Include/cmsis_gcc.h **** #define __CMSIS_GCC_H
  27:Drivers/CMSIS/Include/cmsis_gcc.h **** 
  28:Drivers/CMSIS/Include/cmsis_gcc.h **** /* ignore some GCC warnings */
  29:Drivers/CMSIS/Include/cmsis_gcc.h **** #pragma GCC diagnostic push
  30:Drivers/CMSIS/Include/cmsis_gcc.h **** #pragma GCC diagnostic ignored "-Wsign-conversion"
  31:Drivers/CMSIS/Include/cmsis_gcc.h **** #pragma GCC diagnostic ignored "-Wconversion"
  32:Drivers/CMSIS/Include/cmsis_gcc.h **** #pragma GCC diagnostic ignored "-Wunused-parameter"
  33:Drivers/CMSIS/Include/cmsis_gcc.h **** 
  34:Drivers/CMSIS/Include/cmsis_gcc.h **** /* Fallback for __has_builtin */
  35:Drivers/CMSIS/Include/cmsis_gcc.h **** #ifndef __has_builtin
  36:Drivers/CMSIS/Include/cmsis_gcc.h ****   #define __has_builtin(x) (0)
  37:Drivers/CMSIS/Include/cmsis_gcc.h **** #endif
  38:Drivers/CMSIS/Include/cmsis_gcc.h **** 
  39:Drivers/CMSIS/Include/cmsis_gcc.h **** /* CMSIS compiler specific defines */
  40:Drivers/CMSIS/Include/cmsis_gcc.h **** #ifndef   __ASM
  41:Drivers/CMSIS/Include/cmsis_gcc.h ****   #define __ASM                                  __asm
  42:Drivers/CMSIS/Include/cmsis_gcc.h **** #endif
  43:Drivers/CMSIS/Include/cmsis_gcc.h **** #ifndef   __INLINE
  44:Drivers/CMSIS/Include/cmsis_gcc.h ****   #define __INLINE                               inline
  45:Drivers/CMSIS/Include/cmsis_gcc.h **** #endif
  46:Drivers/CMSIS/Include/cmsis_gcc.h **** #ifndef   __STATIC_INLINE
  47:Drivers/CMSIS/Include/cmsis_gcc.h ****   #define __STATIC_INLINE                        static inline
  48:Drivers/CMSIS/Include/cmsis_gcc.h **** #endif
  49:Drivers/CMSIS/Include/cmsis_gcc.h **** #ifndef   __STATIC_FORCEINLINE
ARM GAS  C:\Users\hh\AppData\Local\Temp\ccVmJpKZ.s 			page 11


  50:Drivers/CMSIS/Include/cmsis_gcc.h ****   #define __STATIC_FORCEINLINE                   __attribute__((always_inline)) static inline
  51:Drivers/CMSIS/Include/cmsis_gcc.h **** #endif
  52:Drivers/CMSIS/Include/cmsis_gcc.h **** #ifndef   __NO_RETURN
  53:Drivers/CMSIS/Include/cmsis_gcc.h ****   #define __NO_RETURN                            __attribute__((__noreturn__))
  54:Drivers/CMSIS/Include/cmsis_gcc.h **** #endif
  55:Drivers/CMSIS/Include/cmsis_gcc.h **** #ifndef   __USED
  56:Drivers/CMSIS/Include/cmsis_gcc.h ****   #define __USED                                 __attribute__((used))
  57:Drivers/CMSIS/Include/cmsis_gcc.h **** #endif
  58:Drivers/CMSIS/Include/cmsis_gcc.h **** #ifndef   __WEAK
  59:Drivers/CMSIS/Include/cmsis_gcc.h ****   #define __WEAK                                 __attribute__((weak))
  60:Drivers/CMSIS/Include/cmsis_gcc.h **** #endif
  61:Drivers/CMSIS/Include/cmsis_gcc.h **** #ifndef   __PACKED
  62:Drivers/CMSIS/Include/cmsis_gcc.h ****   #define __PACKED                               __attribute__((packed, aligned(1)))
  63:Drivers/CMSIS/Include/cmsis_gcc.h **** #endif
  64:Drivers/CMSIS/Include/cmsis_gcc.h **** #ifndef   __PACKED_STRUCT
  65:Drivers/CMSIS/Include/cmsis_gcc.h ****   #define __PACKED_STRUCT                        struct __attribute__((packed, aligned(1)))
  66:Drivers/CMSIS/Include/cmsis_gcc.h **** #endif
  67:Drivers/CMSIS/Include/cmsis_gcc.h **** #ifndef   __PACKED_UNION
  68:Drivers/CMSIS/Include/cmsis_gcc.h ****   #define __PACKED_UNION                         union __attribute__((packed, aligned(1)))
  69:Drivers/CMSIS/Include/cmsis_gcc.h **** #endif
  70:Drivers/CMSIS/Include/cmsis_gcc.h **** #ifndef   __UNALIGNED_UINT32        /* deprecated */
  71:Drivers/CMSIS/Include/cmsis_gcc.h ****   #pragma GCC diagnostic push
  72:Drivers/CMSIS/Include/cmsis_gcc.h ****   #pragma GCC diagnostic ignored "-Wpacked"
  73:Drivers/CMSIS/Include/cmsis_gcc.h ****   #pragma GCC diagnostic ignored "-Wattributes"
  74:Drivers/CMSIS/Include/cmsis_gcc.h ****   struct __attribute__((packed)) T_UINT32 { uint32_t v; };
  75:Drivers/CMSIS/Include/cmsis_gcc.h ****   #pragma GCC diagnostic pop
  76:Drivers/CMSIS/Include/cmsis_gcc.h ****   #define __UNALIGNED_UINT32(x)                  (((struct T_UINT32 *)(x))->v)
  77:Drivers/CMSIS/Include/cmsis_gcc.h **** #endif
  78:Drivers/CMSIS/Include/cmsis_gcc.h **** #ifndef   __UNALIGNED_UINT16_WRITE
  79:Drivers/CMSIS/Include/cmsis_gcc.h ****   #pragma GCC diagnostic push
  80:Drivers/CMSIS/Include/cmsis_gcc.h ****   #pragma GCC diagnostic ignored "-Wpacked"
  81:Drivers/CMSIS/Include/cmsis_gcc.h ****   #pragma GCC diagnostic ignored "-Wattributes"
  82:Drivers/CMSIS/Include/cmsis_gcc.h ****   __PACKED_STRUCT T_UINT16_WRITE { uint16_t v; };
  83:Drivers/CMSIS/Include/cmsis_gcc.h ****   #pragma GCC diagnostic pop
  84:Drivers/CMSIS/Include/cmsis_gcc.h ****   #define __UNALIGNED_UINT16_WRITE(addr, val)    (void)((((struct T_UINT16_WRITE *)(void *)(addr))-
  85:Drivers/CMSIS/Include/cmsis_gcc.h **** #endif
  86:Drivers/CMSIS/Include/cmsis_gcc.h **** #ifndef   __UNALIGNED_UINT16_READ
  87:Drivers/CMSIS/Include/cmsis_gcc.h ****   #pragma GCC diagnostic push
  88:Drivers/CMSIS/Include/cmsis_gcc.h ****   #pragma GCC diagnostic ignored "-Wpacked"
  89:Drivers/CMSIS/Include/cmsis_gcc.h ****   #pragma GCC diagnostic ignored "-Wattributes"
  90:Drivers/CMSIS/Include/cmsis_gcc.h ****   __PACKED_STRUCT T_UINT16_READ { uint16_t v; };
  91:Drivers/CMSIS/Include/cmsis_gcc.h ****   #pragma GCC diagnostic pop
  92:Drivers/CMSIS/Include/cmsis_gcc.h ****   #define __UNALIGNED_UINT16_READ(addr)          (((const struct T_UINT16_READ *)(const void *)(add
  93:Drivers/CMSIS/Include/cmsis_gcc.h **** #endif
  94:Drivers/CMSIS/Include/cmsis_gcc.h **** #ifndef   __UNALIGNED_UINT32_WRITE
  95:Drivers/CMSIS/Include/cmsis_gcc.h ****   #pragma GCC diagnostic push
  96:Drivers/CMSIS/Include/cmsis_gcc.h ****   #pragma GCC diagnostic ignored "-Wpacked"
  97:Drivers/CMSIS/Include/cmsis_gcc.h ****   #pragma GCC diagnostic ignored "-Wattributes"
  98:Drivers/CMSIS/Include/cmsis_gcc.h ****   __PACKED_STRUCT T_UINT32_WRITE { uint32_t v; };
  99:Drivers/CMSIS/Include/cmsis_gcc.h ****   #pragma GCC diagnostic pop
 100:Drivers/CMSIS/Include/cmsis_gcc.h ****   #define __UNALIGNED_UINT32_WRITE(addr, val)    (void)((((struct T_UINT32_WRITE *)(void *)(addr))-
 101:Drivers/CMSIS/Include/cmsis_gcc.h **** #endif
 102:Drivers/CMSIS/Include/cmsis_gcc.h **** #ifndef   __UNALIGNED_UINT32_READ
 103:Drivers/CMSIS/Include/cmsis_gcc.h ****   #pragma GCC diagnostic push
 104:Drivers/CMSIS/Include/cmsis_gcc.h ****   #pragma GCC diagnostic ignored "-Wpacked"
 105:Drivers/CMSIS/Include/cmsis_gcc.h ****   #pragma GCC diagnostic ignored "-Wattributes"
 106:Drivers/CMSIS/Include/cmsis_gcc.h ****   __PACKED_STRUCT T_UINT32_READ { uint32_t v; };
ARM GAS  C:\Users\hh\AppData\Local\Temp\ccVmJpKZ.s 			page 12


 107:Drivers/CMSIS/Include/cmsis_gcc.h ****   #pragma GCC diagnostic pop
 108:Drivers/CMSIS/Include/cmsis_gcc.h ****   #define __UNALIGNED_UINT32_READ(addr)          (((const struct T_UINT32_READ *)(const void *)(add
 109:Drivers/CMSIS/Include/cmsis_gcc.h **** #endif
 110:Drivers/CMSIS/Include/cmsis_gcc.h **** #ifndef   __ALIGNED
 111:Drivers/CMSIS/Include/cmsis_gcc.h ****   #define __ALIGNED(x)                           __attribute__((aligned(x)))
 112:Drivers/CMSIS/Include/cmsis_gcc.h **** #endif
 113:Drivers/CMSIS/Include/cmsis_gcc.h **** #ifndef   __RESTRICT
 114:Drivers/CMSIS/Include/cmsis_gcc.h ****   #define __RESTRICT                             __restrict
 115:Drivers/CMSIS/Include/cmsis_gcc.h **** #endif
 116:Drivers/CMSIS/Include/cmsis_gcc.h **** #ifndef   __COMPILER_BARRIER
 117:Drivers/CMSIS/Include/cmsis_gcc.h ****   #define __COMPILER_BARRIER()                   __ASM volatile("":::"memory")
 118:Drivers/CMSIS/Include/cmsis_gcc.h **** #endif
 119:Drivers/CMSIS/Include/cmsis_gcc.h **** 
 120:Drivers/CMSIS/Include/cmsis_gcc.h **** /* #########################  Startup and Lowlevel Init  ######################## */
 121:Drivers/CMSIS/Include/cmsis_gcc.h **** 
 122:Drivers/CMSIS/Include/cmsis_gcc.h **** #ifndef __PROGRAM_START
 123:Drivers/CMSIS/Include/cmsis_gcc.h **** 
 124:Drivers/CMSIS/Include/cmsis_gcc.h **** /**
 125:Drivers/CMSIS/Include/cmsis_gcc.h ****   \brief   Initializes data and bss sections
 126:Drivers/CMSIS/Include/cmsis_gcc.h ****   \details This default implementations initialized all data and additional bss
 127:Drivers/CMSIS/Include/cmsis_gcc.h ****            sections relying on .copy.table and .zero.table specified properly
 128:Drivers/CMSIS/Include/cmsis_gcc.h ****            in the used linker script.
 129:Drivers/CMSIS/Include/cmsis_gcc.h **** 
 130:Drivers/CMSIS/Include/cmsis_gcc.h ****  */
 131:Drivers/CMSIS/Include/cmsis_gcc.h **** __STATIC_FORCEINLINE __NO_RETURN void __cmsis_start(void)
 132:Drivers/CMSIS/Include/cmsis_gcc.h **** {
 133:Drivers/CMSIS/Include/cmsis_gcc.h ****   extern void _start(void) __NO_RETURN;
 134:Drivers/CMSIS/Include/cmsis_gcc.h **** 
 135:Drivers/CMSIS/Include/cmsis_gcc.h ****   typedef struct {
 136:Drivers/CMSIS/Include/cmsis_gcc.h ****     uint32_t const* src;
 137:Drivers/CMSIS/Include/cmsis_gcc.h ****     uint32_t* dest;
 138:Drivers/CMSIS/Include/cmsis_gcc.h ****     uint32_t  wlen;
 139:Drivers/CMSIS/Include/cmsis_gcc.h ****   } __copy_table_t;
 140:Drivers/CMSIS/Include/cmsis_gcc.h **** 
 141:Drivers/CMSIS/Include/cmsis_gcc.h ****   typedef struct {
 142:Drivers/CMSIS/Include/cmsis_gcc.h ****     uint32_t* dest;
 143:Drivers/CMSIS/Include/cmsis_gcc.h ****     uint32_t  wlen;
 144:Drivers/CMSIS/Include/cmsis_gcc.h ****   } __zero_table_t;
 145:Drivers/CMSIS/Include/cmsis_gcc.h **** 
 146:Drivers/CMSIS/Include/cmsis_gcc.h ****   extern const __copy_table_t __copy_table_start__;
 147:Drivers/CMSIS/Include/cmsis_gcc.h ****   extern const __copy_table_t __copy_table_end__;
 148:Drivers/CMSIS/Include/cmsis_gcc.h ****   extern const __zero_table_t __zero_table_start__;
 149:Drivers/CMSIS/Include/cmsis_gcc.h ****   extern const __zero_table_t __zero_table_end__;
 150:Drivers/CMSIS/Include/cmsis_gcc.h **** 
 151:Drivers/CMSIS/Include/cmsis_gcc.h ****   for (__copy_table_t const* pTable = &__copy_table_start__; pTable < &__copy_table_end__; ++pTable
 152:Drivers/CMSIS/Include/cmsis_gcc.h ****     for(uint32_t i=0u; i<pTable->wlen; ++i) {
 153:Drivers/CMSIS/Include/cmsis_gcc.h ****       pTable->dest[i] = pTable->src[i];
 154:Drivers/CMSIS/Include/cmsis_gcc.h ****     }
 155:Drivers/CMSIS/Include/cmsis_gcc.h ****   }
 156:Drivers/CMSIS/Include/cmsis_gcc.h **** 
 157:Drivers/CMSIS/Include/cmsis_gcc.h ****   for (__zero_table_t const* pTable = &__zero_table_start__; pTable < &__zero_table_end__; ++pTable
 158:Drivers/CMSIS/Include/cmsis_gcc.h ****     for(uint32_t i=0u; i<pTable->wlen; ++i) {
 159:Drivers/CMSIS/Include/cmsis_gcc.h ****       pTable->dest[i] = 0u;
 160:Drivers/CMSIS/Include/cmsis_gcc.h ****     }
 161:Drivers/CMSIS/Include/cmsis_gcc.h ****   }
 162:Drivers/CMSIS/Include/cmsis_gcc.h **** 
 163:Drivers/CMSIS/Include/cmsis_gcc.h ****   _start();
ARM GAS  C:\Users\hh\AppData\Local\Temp\ccVmJpKZ.s 			page 13


 164:Drivers/CMSIS/Include/cmsis_gcc.h **** }
 165:Drivers/CMSIS/Include/cmsis_gcc.h **** 
 166:Drivers/CMSIS/Include/cmsis_gcc.h **** #define __PROGRAM_START           __cmsis_start
 167:Drivers/CMSIS/Include/cmsis_gcc.h **** #endif
 168:Drivers/CMSIS/Include/cmsis_gcc.h **** 
 169:Drivers/CMSIS/Include/cmsis_gcc.h **** #ifndef __INITIAL_SP
 170:Drivers/CMSIS/Include/cmsis_gcc.h **** #define __INITIAL_SP              __StackTop
 171:Drivers/CMSIS/Include/cmsis_gcc.h **** #endif
 172:Drivers/CMSIS/Include/cmsis_gcc.h **** 
 173:Drivers/CMSIS/Include/cmsis_gcc.h **** #ifndef __STACK_LIMIT
 174:Drivers/CMSIS/Include/cmsis_gcc.h **** #define __STACK_LIMIT             __StackLimit
 175:Drivers/CMSIS/Include/cmsis_gcc.h **** #endif
 176:Drivers/CMSIS/Include/cmsis_gcc.h **** 
 177:Drivers/CMSIS/Include/cmsis_gcc.h **** #ifndef __VECTOR_TABLE
 178:Drivers/CMSIS/Include/cmsis_gcc.h **** #define __VECTOR_TABLE            __Vectors
 179:Drivers/CMSIS/Include/cmsis_gcc.h **** #endif
 180:Drivers/CMSIS/Include/cmsis_gcc.h **** 
 181:Drivers/CMSIS/Include/cmsis_gcc.h **** #ifndef __VECTOR_TABLE_ATTRIBUTE
 182:Drivers/CMSIS/Include/cmsis_gcc.h **** #define __VECTOR_TABLE_ATTRIBUTE  __attribute__((used, section(".vectors")))
 183:Drivers/CMSIS/Include/cmsis_gcc.h **** #endif
 184:Drivers/CMSIS/Include/cmsis_gcc.h **** 
 185:Drivers/CMSIS/Include/cmsis_gcc.h **** #if defined (__ARM_FEATURE_CMSE) && (__ARM_FEATURE_CMSE == 3U)
 186:Drivers/CMSIS/Include/cmsis_gcc.h **** #ifndef __STACK_SEAL
 187:Drivers/CMSIS/Include/cmsis_gcc.h **** #define __STACK_SEAL              __StackSeal
 188:Drivers/CMSIS/Include/cmsis_gcc.h **** #endif
 189:Drivers/CMSIS/Include/cmsis_gcc.h **** 
 190:Drivers/CMSIS/Include/cmsis_gcc.h **** #ifndef __TZ_STACK_SEAL_SIZE
 191:Drivers/CMSIS/Include/cmsis_gcc.h **** #define __TZ_STACK_SEAL_SIZE      8U
 192:Drivers/CMSIS/Include/cmsis_gcc.h **** #endif
 193:Drivers/CMSIS/Include/cmsis_gcc.h **** 
 194:Drivers/CMSIS/Include/cmsis_gcc.h **** #ifndef __TZ_STACK_SEAL_VALUE
 195:Drivers/CMSIS/Include/cmsis_gcc.h **** #define __TZ_STACK_SEAL_VALUE     0xFEF5EDA5FEF5EDA5ULL
 196:Drivers/CMSIS/Include/cmsis_gcc.h **** #endif
 197:Drivers/CMSIS/Include/cmsis_gcc.h **** 
 198:Drivers/CMSIS/Include/cmsis_gcc.h **** 
 199:Drivers/CMSIS/Include/cmsis_gcc.h **** __STATIC_FORCEINLINE void __TZ_set_STACKSEAL_S (uint32_t* stackTop) {
 200:Drivers/CMSIS/Include/cmsis_gcc.h ****   *((uint64_t *)stackTop) = __TZ_STACK_SEAL_VALUE;
 201:Drivers/CMSIS/Include/cmsis_gcc.h **** }
 202:Drivers/CMSIS/Include/cmsis_gcc.h **** #endif
 203:Drivers/CMSIS/Include/cmsis_gcc.h **** 
 204:Drivers/CMSIS/Include/cmsis_gcc.h **** 
 205:Drivers/CMSIS/Include/cmsis_gcc.h **** /* ##########################  Core Instruction Access  ######################### */
 206:Drivers/CMSIS/Include/cmsis_gcc.h **** /** \defgroup CMSIS_Core_InstructionInterface CMSIS Core Instruction Interface
 207:Drivers/CMSIS/Include/cmsis_gcc.h ****   Access to dedicated instructions
 208:Drivers/CMSIS/Include/cmsis_gcc.h ****   @{
 209:Drivers/CMSIS/Include/cmsis_gcc.h **** */
 210:Drivers/CMSIS/Include/cmsis_gcc.h **** 
 211:Drivers/CMSIS/Include/cmsis_gcc.h **** /* Define macros for porting to both thumb1 and thumb2.
 212:Drivers/CMSIS/Include/cmsis_gcc.h ****  * For thumb1, use low register (r0-r7), specified by constraint "l"
 213:Drivers/CMSIS/Include/cmsis_gcc.h ****  * Otherwise, use general registers, specified by constraint "r" */
 214:Drivers/CMSIS/Include/cmsis_gcc.h **** #if defined (__thumb__) && !defined (__thumb2__)
 215:Drivers/CMSIS/Include/cmsis_gcc.h **** #define __CMSIS_GCC_OUT_REG(r) "=l" (r)
 216:Drivers/CMSIS/Include/cmsis_gcc.h **** #define __CMSIS_GCC_RW_REG(r) "+l" (r)
 217:Drivers/CMSIS/Include/cmsis_gcc.h **** #define __CMSIS_GCC_USE_REG(r) "l" (r)
 218:Drivers/CMSIS/Include/cmsis_gcc.h **** #else
 219:Drivers/CMSIS/Include/cmsis_gcc.h **** #define __CMSIS_GCC_OUT_REG(r) "=r" (r)
 220:Drivers/CMSIS/Include/cmsis_gcc.h **** #define __CMSIS_GCC_RW_REG(r) "+r" (r)
ARM GAS  C:\Users\hh\AppData\Local\Temp\ccVmJpKZ.s 			page 14


 221:Drivers/CMSIS/Include/cmsis_gcc.h **** #define __CMSIS_GCC_USE_REG(r) "r" (r)
 222:Drivers/CMSIS/Include/cmsis_gcc.h **** #endif
 223:Drivers/CMSIS/Include/cmsis_gcc.h **** 
 224:Drivers/CMSIS/Include/cmsis_gcc.h **** /**
 225:Drivers/CMSIS/Include/cmsis_gcc.h ****   \brief   No Operation
 226:Drivers/CMSIS/Include/cmsis_gcc.h ****   \details No Operation does nothing. This instruction can be used for code alignment purposes.
 227:Drivers/CMSIS/Include/cmsis_gcc.h ****  */
 228:Drivers/CMSIS/Include/cmsis_gcc.h **** #define __NOP()                             __ASM volatile ("nop")
 229:Drivers/CMSIS/Include/cmsis_gcc.h **** 
 230:Drivers/CMSIS/Include/cmsis_gcc.h **** /**
 231:Drivers/CMSIS/Include/cmsis_gcc.h ****   \brief   Wait For Interrupt
 232:Drivers/CMSIS/Include/cmsis_gcc.h ****   \details Wait For Interrupt is a hint instruction that suspends execution until one of a number o
 233:Drivers/CMSIS/Include/cmsis_gcc.h ****  */
 234:Drivers/CMSIS/Include/cmsis_gcc.h **** #define __WFI()                             __ASM volatile ("wfi":::"memory")
 235:Drivers/CMSIS/Include/cmsis_gcc.h **** 
 236:Drivers/CMSIS/Include/cmsis_gcc.h **** 
 237:Drivers/CMSIS/Include/cmsis_gcc.h **** /**
 238:Drivers/CMSIS/Include/cmsis_gcc.h ****   \brief   Wait For Event
 239:Drivers/CMSIS/Include/cmsis_gcc.h ****   \details Wait For Event is a hint instruction that permits the processor to enter
 240:Drivers/CMSIS/Include/cmsis_gcc.h ****            a low-power state until one of a number of events occurs.
 241:Drivers/CMSIS/Include/cmsis_gcc.h ****  */
 242:Drivers/CMSIS/Include/cmsis_gcc.h **** #define __WFE()                             __ASM volatile ("wfe":::"memory")
 243:Drivers/CMSIS/Include/cmsis_gcc.h **** 
 244:Drivers/CMSIS/Include/cmsis_gcc.h **** 
 245:Drivers/CMSIS/Include/cmsis_gcc.h **** /**
 246:Drivers/CMSIS/Include/cmsis_gcc.h ****   \brief   Send Event
 247:Drivers/CMSIS/Include/cmsis_gcc.h ****   \details Send Event is a hint instruction. It causes an event to be signaled to the CPU.
 248:Drivers/CMSIS/Include/cmsis_gcc.h ****  */
 249:Drivers/CMSIS/Include/cmsis_gcc.h **** #define __SEV()                             __ASM volatile ("sev")
 250:Drivers/CMSIS/Include/cmsis_gcc.h **** 
 251:Drivers/CMSIS/Include/cmsis_gcc.h **** 
 252:Drivers/CMSIS/Include/cmsis_gcc.h **** /**
 253:Drivers/CMSIS/Include/cmsis_gcc.h ****   \brief   Instruction Synchronization Barrier
 254:Drivers/CMSIS/Include/cmsis_gcc.h ****   \details Instruction Synchronization Barrier flushes the pipeline in the processor,
 255:Drivers/CMSIS/Include/cmsis_gcc.h ****            so that all instructions following the ISB are fetched from cache or memory,
 256:Drivers/CMSIS/Include/cmsis_gcc.h ****            after the instruction has been completed.
 257:Drivers/CMSIS/Include/cmsis_gcc.h ****  */
 258:Drivers/CMSIS/Include/cmsis_gcc.h **** __STATIC_FORCEINLINE void __ISB(void)
 259:Drivers/CMSIS/Include/cmsis_gcc.h **** {
 260:Drivers/CMSIS/Include/cmsis_gcc.h ****   __ASM volatile ("isb 0xF":::"memory");
 261:Drivers/CMSIS/Include/cmsis_gcc.h **** }
 262:Drivers/CMSIS/Include/cmsis_gcc.h **** 
 263:Drivers/CMSIS/Include/cmsis_gcc.h **** 
 264:Drivers/CMSIS/Include/cmsis_gcc.h **** /**
 265:Drivers/CMSIS/Include/cmsis_gcc.h ****   \brief   Data Synchronization Barrier
 266:Drivers/CMSIS/Include/cmsis_gcc.h ****   \details Acts as a special kind of Data Memory Barrier.
 267:Drivers/CMSIS/Include/cmsis_gcc.h ****            It completes when all explicit memory accesses before this instruction complete.
 268:Drivers/CMSIS/Include/cmsis_gcc.h ****  */
 269:Drivers/CMSIS/Include/cmsis_gcc.h **** __STATIC_FORCEINLINE void __DSB(void)
  82              		.loc 3 269 27 view .LVU22
  83              	.LBB22:
 270:Drivers/CMSIS/Include/cmsis_gcc.h **** {
 271:Drivers/CMSIS/Include/cmsis_gcc.h ****   __ASM volatile ("dsb 0xF":::"memory");
  84              		.loc 3 271 3 view .LVU23
  85              		.syntax unified
  86              	@ 271 "Drivers/CMSIS/Include/cmsis_gcc.h" 1
  87 0026 BFF34F8F 		dsb 0xF
ARM GAS  C:\Users\hh\AppData\Local\Temp\ccVmJpKZ.s 			page 15


  88              	@ 0 "" 2
  89              	.LVL5:
  90              		.thumb
  91              		.syntax unified
  92              	.L3:
  93              		.loc 3 271 3 is_stmt 0 view .LVU24
  94              	.LBE22:
  95              	.LBE21:
 396:Drivers/CMSIS/Include/cachel1_armv7.h **** 
 397:Drivers/CMSIS/Include/cachel1_armv7.h ****       do {
  96              		.loc 2 397 7 is_stmt 1 view .LVU25
 398:Drivers/CMSIS/Include/cachel1_armv7.h ****         SCB->DCCMVAC = op_addr;             /* register accepts only 32byte aligned values, only bi
  97              		.loc 2 398 9 view .LVU26
  98              		.loc 2 398 22 is_stmt 0 view .LVU27
  99 002a 0649     		ldr	r1, .L4
 100 002c C1F86822 		str	r2, [r1, #616]
 399:Drivers/CMSIS/Include/cachel1_armv7.h ****         op_addr += __SCB_DCACHE_LINE_SIZE;
 101              		.loc 2 399 9 is_stmt 1 view .LVU28
 102              		.loc 2 399 17 is_stmt 0 view .LVU29
 103 0030 2032     		adds	r2, r2, #32
 104              	.LVL6:
 400:Drivers/CMSIS/Include/cachel1_armv7.h ****         op_size -= __SCB_DCACHE_LINE_SIZE;
 105              		.loc 2 400 9 is_stmt 1 view .LVU30
 106              		.loc 2 400 17 is_stmt 0 view .LVU31
 107 0032 203B     		subs	r3, r3, #32
 108              	.LVL7:
 401:Drivers/CMSIS/Include/cachel1_armv7.h ****       } while ( op_size > 0 );
 109              		.loc 2 401 25 is_stmt 1 discriminator 1 view .LVU32
 110 0034 002B     		cmp	r3, #0
 111 0036 F8DC     		bgt	.L3
 402:Drivers/CMSIS/Include/cachel1_armv7.h **** 
 403:Drivers/CMSIS/Include/cachel1_armv7.h ****       __DSB();
 112              		.loc 2 403 7 view .LVU33
 113              	.LBB23:
 114              	.LBI23:
 269:Drivers/CMSIS/Include/cmsis_gcc.h **** {
 115              		.loc 3 269 27 view .LVU34
 116              	.LBB24:
 117              		.loc 3 271 3 view .LVU35
 118              		.syntax unified
 119              	@ 271 "Drivers/CMSIS/Include/cmsis_gcc.h" 1
 120 0038 BFF34F8F 		dsb 0xF
 121              	@ 0 "" 2
 122              		.thumb
 123              		.syntax unified
 124              	.LBE24:
 125              	.LBE23:
 404:Drivers/CMSIS/Include/cachel1_armv7.h ****       __ISB();
 126              		.loc 2 404 7 view .LVU36
 127              	.LBB25:
 128              	.LBI25:
 258:Drivers/CMSIS/Include/cmsis_gcc.h **** {
 129              		.loc 3 258 27 view .LVU37
 130              	.LBB26:
 260:Drivers/CMSIS/Include/cmsis_gcc.h **** }
 131              		.loc 3 260 3 view .LVU38
 132              		.syntax unified
ARM GAS  C:\Users\hh\AppData\Local\Temp\ccVmJpKZ.s 			page 16


 133              	@ 260 "Drivers/CMSIS/Include/cmsis_gcc.h" 1
 134 003c BFF36F8F 		isb 0xF
 135              	@ 0 "" 2
 136              	.LVL8:
 137              		.thumb
 138              		.syntax unified
 139              	.L1:
 260:Drivers/CMSIS/Include/cmsis_gcc.h **** }
 140              		.loc 3 260 3 is_stmt 0 view .LVU39
 141              	.LBE26:
 142              	.LBE25:
 143              	.LBE20:
 144              	.LBE19:
 145              	.LBE18:
  47:App/Src/waveform_engine.c **** }
 146              		.loc 1 47 1 view .LVU40
 147 0040 7047     		bx	lr
 148              	.L5:
 149 0042 00BF     		.align	2
 150              	.L4:
 151 0044 00ED00E0 		.word	-536810240
 152              		.cfi_endproc
 153              	.LFE149:
 155              		.section	.text.WaveformEngine_IsValidConfig,"ax",%progbits
 156              		.align	1
 157              		.syntax unified
 158              		.thumb
 159              		.thumb_func
 161              	WaveformEngine_IsValidConfig:
 162              	.LVL9:
 163              	.LFB150:
  48:App/Src/waveform_engine.c **** 
  49:App/Src/waveform_engine.c **** static uint8_t WaveformEngine_IsValidConfig(const WaveformEngine_Config *config)
  50:App/Src/waveform_engine.c **** {
 164              		.loc 1 50 1 is_stmt 1 view -0
 165              		.cfi_startproc
 166              		@ args = 0, pretend = 0, frame = 0
 167              		@ frame_needed = 0, uses_anonymous_args = 0
 168              		@ link register save eliminated.
  51:App/Src/waveform_engine.c ****   uint32_t frameCount;
 169              		.loc 1 51 3 view .LVU42
  52:App/Src/waveform_engine.c ****   uint32_t maxFrameCount = WAVEFORM_ENGINE_DMA_BUFFER_SIZE / sizeof(uint32_t);
 170              		.loc 1 52 3 view .LVU43
  53:App/Src/waveform_engine.c **** 
  54:App/Src/waveform_engine.c ****   if ((config == NULL) ||
 171              		.loc 1 54 3 view .LVU44
 172              		.loc 1 54 6 is_stmt 0 view .LVU45
 173 0000 0346     		mov	r3, r0
 174 0002 68B3     		cbz	r0, .L7
  55:App/Src/waveform_engine.c ****       (config->sampleRate < WAVEFORM_ENGINE_MIN_TIMER_RATE_HZ) ||
 175              		.loc 1 55 14 view .LVU46
 176 0004 0269     		ldr	r2, [r0, #16]
  54:App/Src/waveform_engine.c ****       (config->sampleRate < WAVEFORM_ENGINE_MIN_TIMER_RATE_HZ) ||
 177              		.loc 1 54 24 discriminator 1 view .LVU47
 178 0006 F2B1     		cbz	r2, .L11
  56:App/Src/waveform_engine.c ****       (config->pointCount == 0U) ||
 179              		.loc 1 56 14 view .LVU48
ARM GAS  C:\Users\hh\AppData\Local\Temp\ccVmJpKZ.s 			page 17


 180 0008 4269     		ldr	r2, [r0, #20]
  55:App/Src/waveform_engine.c ****       (config->sampleRate < WAVEFORM_ENGINE_MIN_TIMER_RATE_HZ) ||
 181              		.loc 1 55 64 view .LVU49
 182 000a F2B1     		cbz	r2, .L12
 183              		.loc 1 56 34 view .LVU50
 184 000c B2F5806F 		cmp	r2, #1024
 185 0010 1DD8     		bhi	.L13
  57:App/Src/waveform_engine.c ****       (config->pointCount > WAVEFORM_ENGINE_SINE_TABLE_SIZE) ||
  58:App/Src/waveform_engine.c ****       (config->channels == 0U) ||
 186              		.loc 1 58 14 view .LVU51
 187 0012 4078     		ldrb	r0, [r0, #1]	@ zero_extendqisi2
 188              	.LVL10:
  57:App/Src/waveform_engine.c ****       (config->pointCount > WAVEFORM_ENGINE_SINE_TABLE_SIZE) ||
 189              		.loc 1 57 62 view .LVU52
 190 0014 20B3     		cbz	r0, .L7
 191              		.loc 1 58 32 view .LVU53
 192 0016 0D28     		cmp	r0, #13
 193 0018 1BD8     		bhi	.L14
  59:App/Src/waveform_engine.c ****       (config->channels > WAVEFORM_ENGINE_MAX_CHANNELS) ||
  60:App/Src/waveform_engine.c ****       (config->amplitudeMv == 0U))
 194              		.loc 1 60 14 view .LVU54
 195 001a 998B     		ldrh	r1, [r3, #28]
  59:App/Src/waveform_engine.c ****       (config->channels > WAVEFORM_ENGINE_MAX_CHANNELS) ||
 196              		.loc 1 59 57 view .LVU55
 197 001c D9B1     		cbz	r1, .L15
  61:App/Src/waveform_engine.c ****   {
  62:App/Src/waveform_engine.c ****     return 0U;
  63:App/Src/waveform_engine.c ****   }
  64:App/Src/waveform_engine.c **** 
  65:App/Src/waveform_engine.c ****   frameCount = config->pointCount * config->channels;
 198              		.loc 1 65 3 is_stmt 1 view .LVU56
 199              		.loc 1 65 14 is_stmt 0 view .LVU57
 200 001e 00FB02F2 		mul	r2, r0, r2
 201              	.LVL11:
  66:App/Src/waveform_engine.c ****   if ((frameCount == 0U) || (frameCount > maxFrameCount))
 202              		.loc 1 66 3 is_stmt 1 view .LVU58
 203              		.loc 1 66 6 is_stmt 0 view .LVU59
 204 0022 013A     		subs	r2, r2, #1
 205              	.LVL12:
 206              		.loc 1 66 6 view .LVU60
 207 0024 B2F5006F 		cmp	r2, #2048
 208 0028 17D2     		bcs	.L16
 209              	.LBB27:
  67:App/Src/waveform_engine.c ****   {
  68:App/Src/waveform_engine.c ****     return 0U;
  69:App/Src/waveform_engine.c ****   }
  70:App/Src/waveform_engine.c **** 
  71:App/Src/waveform_engine.c ****   for (uint8_t index = 0U; index < config->channels; index++)
 210              		.loc 1 71 16 view .LVU61
 211 002a 0021     		movs	r1, #0
 212              	.LVL13:
 213              	.L8:
 214              		.loc 1 71 34 is_stmt 1 discriminator 1 view .LVU62
 215 002c 8842     		cmp	r0, r1
 216 002e 08D9     		bls	.L18
  72:App/Src/waveform_engine.c ****   {
  73:App/Src/waveform_engine.c ****     if ((config->channelList[index] == 0U) ||
ARM GAS  C:\Users\hh\AppData\Local\Temp\ccVmJpKZ.s 			page 18


 217              		.loc 1 73 5 view .LVU63
 218              		.loc 1 73 29 is_stmt 0 view .LVU64
 219 0030 5A18     		adds	r2, r3, r1
 220 0032 9278     		ldrb	r2, [r2, #2]	@ zero_extendqisi2
 221              		.loc 1 73 44 view .LVU65
 222 0034 013A     		subs	r2, r2, #1
 223 0036 D2B2     		uxtb	r2, r2
 224              		.loc 1 73 8 view .LVU66
 225 0038 0C2A     		cmp	r2, #12
 226 003a 10D8     		bhi	.L17
  71:App/Src/waveform_engine.c ****   {
 227              		.loc 1 71 59 is_stmt 1 discriminator 2 view .LVU67
 228 003c 0131     		adds	r1, r1, #1
 229              	.LVL14:
  71:App/Src/waveform_engine.c ****   {
 230              		.loc 1 71 59 is_stmt 0 discriminator 2 view .LVU68
 231 003e C9B2     		uxtb	r1, r1
 232              	.LVL15:
  71:App/Src/waveform_engine.c ****   {
 233              		.loc 1 71 59 discriminator 2 view .LVU69
 234 0040 F4E7     		b	.L8
 235              	.LVL16:
 236              	.L18:
  71:App/Src/waveform_engine.c ****   {
 237              		.loc 1 71 59 discriminator 2 view .LVU70
 238              	.LBE27:
  74:App/Src/waveform_engine.c ****         (config->channelList[index] > VOLTAGE_SIM_CELL_COUNT))
  75:App/Src/waveform_engine.c ****     {
  76:App/Src/waveform_engine.c ****       return 0U;
  77:App/Src/waveform_engine.c ****     }
  78:App/Src/waveform_engine.c ****   }
  79:App/Src/waveform_engine.c **** 
  80:App/Src/waveform_engine.c ****   return 1U;
 239              		.loc 1 80 10 view .LVU71
 240 0042 0120     		movs	r0, #1
 241              	.LVL17:
 242              	.LBB28:
 243              		.loc 1 80 10 view .LVU72
 244 0044 7047     		bx	lr
 245              	.LVL18:
 246              	.L11:
 247              		.loc 1 80 10 view .LVU73
 248              	.LBE28:
  62:App/Src/waveform_engine.c ****   }
 249              		.loc 1 62 12 view .LVU74
 250 0046 1046     		mov	r0, r2
 251              	.LVL19:
  62:App/Src/waveform_engine.c ****   }
 252              		.loc 1 62 12 view .LVU75
 253 0048 7047     		bx	lr
 254              	.LVL20:
 255              	.L12:
  62:App/Src/waveform_engine.c ****   }
 256              		.loc 1 62 12 view .LVU76
 257 004a 1046     		mov	r0, r2
 258              	.LVL21:
  62:App/Src/waveform_engine.c ****   }
ARM GAS  C:\Users\hh\AppData\Local\Temp\ccVmJpKZ.s 			page 19


 259              		.loc 1 62 12 view .LVU77
 260 004c 7047     		bx	lr
 261              	.LVL22:
 262              	.L13:
  62:App/Src/waveform_engine.c ****   }
 263              		.loc 1 62 12 view .LVU78
 264 004e 0020     		movs	r0, #0
 265              	.LVL23:
  62:App/Src/waveform_engine.c ****   }
 266              		.loc 1 62 12 view .LVU79
 267 0050 7047     		bx	lr
 268              	.L14:
 269 0052 0020     		movs	r0, #0
 270 0054 7047     		bx	lr
 271              	.L15:
 272 0056 0846     		mov	r0, r1
 273 0058 7047     		bx	lr
 274              	.LVL24:
 275              	.L16:
  68:App/Src/waveform_engine.c ****   }
 276              		.loc 1 68 12 view .LVU80
 277 005a 0020     		movs	r0, #0
 278 005c 7047     		bx	lr
 279              	.LVL25:
 280              	.L17:
 281              	.LBB29:
  76:App/Src/waveform_engine.c ****     }
 282              		.loc 1 76 14 view .LVU81
 283 005e 0020     		movs	r0, #0
 284              	.LVL26:
 285              	.L7:
  76:App/Src/waveform_engine.c ****     }
 286              		.loc 1 76 14 view .LVU82
 287              	.LBE29:
  81:App/Src/waveform_engine.c **** }
 288              		.loc 1 81 1 view .LVU83
 289 0060 7047     		bx	lr
 290              		.cfi_endproc
 291              	.LFE150:
 293              		.section	.text.WaveformEngine_BuildDacFrame,"ax",%progbits
 294              		.align	1
 295              		.syntax unified
 296              		.thumb
 297              		.thumb_func
 299              	WaveformEngine_BuildDacFrame:
 300              	.LVL27:
 301              	.LFB151:
  82:App/Src/waveform_engine.c **** 
  83:App/Src/waveform_engine.c **** static uint32_t WaveformEngine_BuildDacFrame(uint8_t cell, uint16_t dacCode)
  84:App/Src/waveform_engine.c **** {
 302              		.loc 1 84 1 is_stmt 1 view -0
 303              		.cfi_startproc
 304              		@ args = 0, pretend = 0, frame = 0
 305              		@ frame_needed = 0, uses_anonymous_args = 0
 306              		@ link register save eliminated.
  85:App/Src/waveform_engine.c ****   uint8_t channel = (uint8_t)(cell - 1U);
 307              		.loc 1 85 3 view .LVU85
ARM GAS  C:\Users\hh\AppData\Local\Temp\ccVmJpKZ.s 			page 20


  86:App/Src/waveform_engine.c ****   uint8_t command = (uint8_t)(DAC81416_CMD_WRITE | ((DAC81416_REG_DAC0 + channel) & 0x3FU));
 308              		.loc 1 86 3 view .LVU86
 309              		.loc 1 86 72 is_stmt 0 view .LVU87
 310 0000 0F30     		adds	r0, r0, #15
 311              	.LVL28:
 312              		.loc 1 86 11 view .LVU88
 313 0002 00F03F00 		and	r0, r0, #63
 314              	.LVL29:
  87:App/Src/waveform_engine.c **** 
  88:App/Src/waveform_engine.c ****   return ((uint32_t)command << 16) | (uint32_t)dacCode;
 315              		.loc 1 88 3 is_stmt 1 view .LVU89
  89:App/Src/waveform_engine.c **** }
 316              		.loc 1 89 1 is_stmt 0 view .LVU90
 317 0006 41EA0040 		orr	r0, r1, r0, lsl #16
 318              	.LVL30:
 319              		.loc 1 89 1 view .LVU91
 320 000a 7047     		bx	lr
 321              		.cfi_endproc
 322              	.LFE151:
 324              		.section	.text.WaveformEngine_TurboHalfComplete,"ax",%progbits
 325              		.align	1
 326              		.syntax unified
 327              		.thumb
 328              		.thumb_func
 330              	WaveformEngine_TurboHalfComplete:
 331              	.LVL31:
 332              	.LFB156:
  90:App/Src/waveform_engine.c **** 
  91:App/Src/waveform_engine.c **** static void WaveformEngine_PulseLdacFast(void)
  92:App/Src/waveform_engine.c **** {
  93:App/Src/waveform_engine.c ****   DAC_SetLDACPin(GPIO_PIN_RESET);
  94:App/Src/waveform_engine.c ****   for (uint32_t index = 0U; index < WAVEFORM_ENGINE_LDAC_NOP_COUNT; index++)
  95:App/Src/waveform_engine.c ****   {
  96:App/Src/waveform_engine.c ****     __NOP();
  97:App/Src/waveform_engine.c ****   }
  98:App/Src/waveform_engine.c ****   DAC_SetLDACPin(GPIO_PIN_SET);
  99:App/Src/waveform_engine.c **** }
 100:App/Src/waveform_engine.c **** 
 101:App/Src/waveform_engine.c **** static uint32_t WaveformEngine_GetTim3ClockHz(void)
 102:App/Src/waveform_engine.c **** {
 103:App/Src/waveform_engine.c ****   uint32_t pclk1 = HAL_RCC_GetPCLK1Freq();
 104:App/Src/waveform_engine.c ****   uint32_t ppre1 = RCC->D2CFGR & RCC_D2CFGR_D2PPRE1;
 105:App/Src/waveform_engine.c **** 
 106:App/Src/waveform_engine.c ****   return (ppre1 == RCC_D2CFGR_D2PPRE1_DIV1) ? pclk1 : (pclk1 * 2U);
 107:App/Src/waveform_engine.c **** }
 108:App/Src/waveform_engine.c **** 
 109:App/Src/waveform_engine.c **** static HAL_StatusTypeDef WaveformEngine_SetSampleRate(uint32_t sampleRate)
 110:App/Src/waveform_engine.c **** {
 111:App/Src/waveform_engine.c ****   uint32_t timerClock;
 112:App/Src/waveform_engine.c ****   uint32_t prescaler;
 113:App/Src/waveform_engine.c ****   uint32_t period;
 114:App/Src/waveform_engine.c ****   uint64_t minDivider;
 115:App/Src/waveform_engine.c **** 
 116:App/Src/waveform_engine.c ****   if (sampleRate == 0U)
 117:App/Src/waveform_engine.c ****   {
 118:App/Src/waveform_engine.c ****     return HAL_ERROR;
 119:App/Src/waveform_engine.c ****   }
ARM GAS  C:\Users\hh\AppData\Local\Temp\ccVmJpKZ.s 			page 21


 120:App/Src/waveform_engine.c **** 
 121:App/Src/waveform_engine.c ****   timerClock = WaveformEngine_GetTim3ClockHz();
 122:App/Src/waveform_engine.c ****   if (sampleRate > timerClock)
 123:App/Src/waveform_engine.c ****   {
 124:App/Src/waveform_engine.c ****     return HAL_ERROR;
 125:App/Src/waveform_engine.c ****   }
 126:App/Src/waveform_engine.c **** 
 127:App/Src/waveform_engine.c ****   minDivider = (uint64_t)sampleRate * 65536ULL;
 128:App/Src/waveform_engine.c ****   prescaler = (uint32_t)(((uint64_t)timerClock + minDivider - 1ULL) / minDivider);
 129:App/Src/waveform_engine.c ****   if (prescaler > 0U)
 130:App/Src/waveform_engine.c ****   {
 131:App/Src/waveform_engine.c ****     prescaler--;
 132:App/Src/waveform_engine.c ****   }
 133:App/Src/waveform_engine.c ****   if (prescaler > 0xFFFFU)
 134:App/Src/waveform_engine.c ****   {
 135:App/Src/waveform_engine.c ****     return HAL_ERROR;
 136:App/Src/waveform_engine.c ****   }
 137:App/Src/waveform_engine.c **** 
 138:App/Src/waveform_engine.c ****   period = timerClock / ((prescaler + 1U) * sampleRate);
 139:App/Src/waveform_engine.c ****   if ((period == 0U) || (period > 0x10000U))
 140:App/Src/waveform_engine.c ****   {
 141:App/Src/waveform_engine.c ****     return HAL_ERROR;
 142:App/Src/waveform_engine.c ****   }
 143:App/Src/waveform_engine.c **** 
 144:App/Src/waveform_engine.c ****   __HAL_TIM_DISABLE(&htim3);
 145:App/Src/waveform_engine.c ****   __HAL_TIM_SET_PRESCALER(&htim3, prescaler);
 146:App/Src/waveform_engine.c ****   __HAL_TIM_SET_AUTORELOAD(&htim3, period - 1U);
 147:App/Src/waveform_engine.c ****   __HAL_TIM_SET_COUNTER(&htim3, 0U);
 148:App/Src/waveform_engine.c ****   if (HAL_TIM_GenerateEvent(&htim3, TIM_EVENTSOURCE_UPDATE) != HAL_OK)
 149:App/Src/waveform_engine.c ****   {
 150:App/Src/waveform_engine.c ****     return HAL_ERROR;
 151:App/Src/waveform_engine.c ****   }
 152:App/Src/waveform_engine.c ****   __HAL_TIM_CLEAR_FLAG(&htim3, TIM_FLAG_UPDATE);
 153:App/Src/waveform_engine.c **** 
 154:App/Src/waveform_engine.c ****   return HAL_OK;
 155:App/Src/waveform_engine.c **** }
 156:App/Src/waveform_engine.c **** 
 157:App/Src/waveform_engine.c **** static HAL_StatusTypeDef WaveformEngine_ConfigDma(uint32_t request, uint32_t mode)
 158:App/Src/waveform_engine.c **** {
 159:App/Src/waveform_engine.c ****   (void)HAL_DMA_Abort(&hdma_spi1_tx);
 160:App/Src/waveform_engine.c ****   (void)HAL_DMA_DeInit(&hdma_spi1_tx);
 161:App/Src/waveform_engine.c **** 
 162:App/Src/waveform_engine.c ****   hdma_spi1_tx.Instance = DMA1_Stream3;
 163:App/Src/waveform_engine.c ****   hdma_spi1_tx.Init.Request = request;
 164:App/Src/waveform_engine.c ****   hdma_spi1_tx.Init.Direction = DMA_MEMORY_TO_PERIPH;
 165:App/Src/waveform_engine.c ****   hdma_spi1_tx.Init.PeriphInc = DMA_PINC_DISABLE;
 166:App/Src/waveform_engine.c ****   hdma_spi1_tx.Init.MemInc = DMA_MINC_ENABLE;
 167:App/Src/waveform_engine.c ****   hdma_spi1_tx.Init.PeriphDataAlignment = DMA_PDATAALIGN_WORD;
 168:App/Src/waveform_engine.c ****   hdma_spi1_tx.Init.MemDataAlignment = DMA_MDATAALIGN_WORD;
 169:App/Src/waveform_engine.c ****   hdma_spi1_tx.Init.Mode = mode;
 170:App/Src/waveform_engine.c ****   hdma_spi1_tx.Init.Priority = DMA_PRIORITY_HIGH;
 171:App/Src/waveform_engine.c ****   hdma_spi1_tx.Init.FIFOMode = DMA_FIFOMODE_DISABLE;
 172:App/Src/waveform_engine.c **** 
 173:App/Src/waveform_engine.c ****   if (HAL_DMA_Init(&hdma_spi1_tx) != HAL_OK)
 174:App/Src/waveform_engine.c ****   {
 175:App/Src/waveform_engine.c ****     return HAL_ERROR;
 176:App/Src/waveform_engine.c ****   }
ARM GAS  C:\Users\hh\AppData\Local\Temp\ccVmJpKZ.s 			page 22


 177:App/Src/waveform_engine.c **** 
 178:App/Src/waveform_engine.c ****   __HAL_LINKDMA(&hspi1, hdmatx, hdma_spi1_tx);
 179:App/Src/waveform_engine.c ****   return HAL_OK;
 180:App/Src/waveform_engine.c **** }
 181:App/Src/waveform_engine.c **** 
 182:App/Src/waveform_engine.c **** static void WaveformEngine_TurboHalfComplete(DMA_HandleTypeDef *hdma)
 183:App/Src/waveform_engine.c **** {
 333              		.loc 1 183 1 is_stmt 1 view -0
 334              		.cfi_startproc
 335              		@ args = 0, pretend = 0, frame = 0
 336              		@ frame_needed = 0, uses_anonymous_args = 0
 337              		@ link register save eliminated.
 184:App/Src/waveform_engine.c ****   (void)hdma;
 338              		.loc 1 184 3 view .LVU93
 185:App/Src/waveform_engine.c ****   engineStatus.bufferIndex = 1U;
 339              		.loc 1 185 3 view .LVU94
 340              		.loc 1 185 28 is_stmt 0 view .LVU95
 341 0000 044B     		ldr	r3, .L21
 342 0002 0122     		movs	r2, #1
 343 0004 5A70     		strb	r2, [r3, #1]
 186:App/Src/waveform_engine.c ****   engineStatus.sampleCount += totalSamplePoints / 2U;
 344              		.loc 1 186 3 is_stmt 1 view .LVU96
 345              		.loc 1 186 15 is_stmt 0 view .LVU97
 346 0006 5A68     		ldr	r2, [r3, #4]
 347              		.loc 1 186 49 view .LVU98
 348 0008 0349     		ldr	r1, .L21+4
 349 000a 0968     		ldr	r1, [r1]
 350              		.loc 1 186 28 view .LVU99
 351 000c 02EB5102 		add	r2, r2, r1, lsr #1
 352 0010 5A60     		str	r2, [r3, #4]
 187:App/Src/waveform_engine.c **** }
 353              		.loc 1 187 1 view .LVU100
 354 0012 7047     		bx	lr
 355              	.L22:
 356              		.align	2
 357              	.L21:
 358 0014 00000000 		.word	engineStatus
 359 0018 00000000 		.word	totalSamplePoints
 360              		.cfi_endproc
 361              	.LFE156:
 363              		.section	.text.WaveformEngine_TurboComplete,"ax",%progbits
 364              		.align	1
 365              		.syntax unified
 366              		.thumb
 367              		.thumb_func
 369              	WaveformEngine_TurboComplete:
 370              	.LVL32:
 371              	.LFB157:
 188:App/Src/waveform_engine.c **** 
 189:App/Src/waveform_engine.c **** static void WaveformEngine_TurboComplete(DMA_HandleTypeDef *hdma)
 190:App/Src/waveform_engine.c **** {
 372              		.loc 1 190 1 is_stmt 1 view -0
 373              		.cfi_startproc
 374              		@ args = 0, pretend = 0, frame = 0
 375              		@ frame_needed = 0, uses_anonymous_args = 0
 376              		@ link register save eliminated.
 191:App/Src/waveform_engine.c ****   (void)hdma;
ARM GAS  C:\Users\hh\AppData\Local\Temp\ccVmJpKZ.s 			page 23


 377              		.loc 1 191 3 view .LVU102
 192:App/Src/waveform_engine.c ****   engineStatus.bufferIndex = 0U;
 378              		.loc 1 192 3 view .LVU103
 379              		.loc 1 192 28 is_stmt 0 view .LVU104
 380 0000 054B     		ldr	r3, .L24
 381 0002 0022     		movs	r2, #0
 382 0004 5A70     		strb	r2, [r3, #1]
 193:App/Src/waveform_engine.c ****   engineStatus.sampleCount += (totalSamplePoints + 1U) / 2U;
 383              		.loc 1 193 3 is_stmt 1 view .LVU105
 384              		.loc 1 193 15 is_stmt 0 view .LVU106
 385 0006 5A68     		ldr	r2, [r3, #4]
 386              		.loc 1 193 50 view .LVU107
 387 0008 0449     		ldr	r1, .L24+4
 388 000a 0968     		ldr	r1, [r1]
 389 000c 0131     		adds	r1, r1, #1
 390              		.loc 1 193 28 view .LVU108
 391 000e 02EB5102 		add	r2, r2, r1, lsr #1
 392 0012 5A60     		str	r2, [r3, #4]
 194:App/Src/waveform_engine.c **** }
 393              		.loc 1 194 1 view .LVU109
 394 0014 7047     		bx	lr
 395              	.L25:
 396 0016 00BF     		.align	2
 397              	.L24:
 398 0018 00000000 		.word	engineStatus
 399 001c 00000000 		.word	totalSamplePoints
 400              		.cfi_endproc
 401              	.LFE157:
 403              		.section	.text.WaveformEngine_GetTim3ClockHz,"ax",%progbits
 404              		.align	1
 405              		.syntax unified
 406              		.thumb
 407              		.thumb_func
 409              	WaveformEngine_GetTim3ClockHz:
 410              	.LFB153:
 102:App/Src/waveform_engine.c ****   uint32_t pclk1 = HAL_RCC_GetPCLK1Freq();
 411              		.loc 1 102 1 is_stmt 1 view -0
 412              		.cfi_startproc
 413              		@ args = 0, pretend = 0, frame = 0
 414              		@ frame_needed = 0, uses_anonymous_args = 0
 415 0000 08B5     		push	{r3, lr}
 416              	.LCFI0:
 417              		.cfi_def_cfa_offset 8
 418              		.cfi_offset 3, -8
 419              		.cfi_offset 14, -4
 103:App/Src/waveform_engine.c ****   uint32_t ppre1 = RCC->D2CFGR & RCC_D2CFGR_D2PPRE1;
 420              		.loc 1 103 3 view .LVU111
 103:App/Src/waveform_engine.c ****   uint32_t ppre1 = RCC->D2CFGR & RCC_D2CFGR_D2PPRE1;
 421              		.loc 1 103 20 is_stmt 0 view .LVU112
 422 0002 FFF7FEFF 		bl	HAL_RCC_GetPCLK1Freq
 423              	.LVL33:
 104:App/Src/waveform_engine.c **** 
 424              		.loc 1 104 3 is_stmt 1 view .LVU113
 104:App/Src/waveform_engine.c **** 
 425              		.loc 1 104 23 is_stmt 0 view .LVU114
 426 0006 034B     		ldr	r3, .L29
 427 0008 DB69     		ldr	r3, [r3, #28]
ARM GAS  C:\Users\hh\AppData\Local\Temp\ccVmJpKZ.s 			page 24


 428              	.LVL34:
 106:App/Src/waveform_engine.c **** }
 429              		.loc 1 106 3 is_stmt 1 view .LVU115
 106:App/Src/waveform_engine.c **** }
 430              		.loc 1 106 53 is_stmt 0 view .LVU116
 431 000a 13F0700F 		tst	r3, #112
 432 000e 00D0     		beq	.L26
 106:App/Src/waveform_engine.c **** }
 433              		.loc 1 106 53 discriminator 1 view .LVU117
 434 0010 4000     		lsls	r0, r0, #1
 435              	.LVL35:
 436              	.L26:
 107:App/Src/waveform_engine.c **** 
 437              		.loc 1 107 1 view .LVU118
 438 0012 08BD     		pop	{r3, pc}
 439              	.LVL36:
 440              	.L30:
 107:App/Src/waveform_engine.c **** 
 441              		.loc 1 107 1 view .LVU119
 442              		.align	2
 443              	.L29:
 444 0014 00440258 		.word	1476543488
 445              		.cfi_endproc
 446              	.LFE153:
 448              		.section	.text.WaveformEngine_SetSampleRate,"ax",%progbits
 449              		.align	1
 450              		.syntax unified
 451              		.thumb
 452              		.thumb_func
 454              	WaveformEngine_SetSampleRate:
 455              	.LVL37:
 456              	.LFB154:
 110:App/Src/waveform_engine.c ****   uint32_t timerClock;
 457              		.loc 1 110 1 is_stmt 1 view -0
 458              		.cfi_startproc
 459              		@ args = 0, pretend = 0, frame = 0
 460              		@ frame_needed = 0, uses_anonymous_args = 0
 111:App/Src/waveform_engine.c ****   uint32_t prescaler;
 461              		.loc 1 111 3 view .LVU121
 112:App/Src/waveform_engine.c ****   uint32_t period;
 462              		.loc 1 112 3 view .LVU122
 113:App/Src/waveform_engine.c ****   uint64_t minDivider;
 463              		.loc 1 113 3 view .LVU123
 114:App/Src/waveform_engine.c **** 
 464              		.loc 1 114 3 view .LVU124
 116:App/Src/waveform_engine.c ****   {
 465              		.loc 1 116 3 view .LVU125
 116:App/Src/waveform_engine.c ****   {
 466              		.loc 1 116 6 is_stmt 0 view .LVU126
 467 0000 08B9     		cbnz	r0, .L44
 118:App/Src/waveform_engine.c ****   }
 468              		.loc 1 118 12 view .LVU127
 469 0002 0120     		movs	r0, #1
 470              	.LVL38:
 155:App/Src/waveform_engine.c **** 
 471              		.loc 1 155 1 view .LVU128
 472 0004 7047     		bx	lr
ARM GAS  C:\Users\hh\AppData\Local\Temp\ccVmJpKZ.s 			page 25


 473              	.LVL39:
 474              	.L44:
 110:App/Src/waveform_engine.c ****   uint32_t timerClock;
 475              		.loc 1 110 1 view .LVU129
 476 0006 38B5     		push	{r3, r4, r5, lr}
 477              	.LCFI1:
 478              		.cfi_def_cfa_offset 16
 479              		.cfi_offset 3, -16
 480              		.cfi_offset 4, -12
 481              		.cfi_offset 5, -8
 482              		.cfi_offset 14, -4
 483 0008 0446     		mov	r4, r0
 121:App/Src/waveform_engine.c ****   if (sampleRate > timerClock)
 484              		.loc 1 121 3 is_stmt 1 view .LVU130
 121:App/Src/waveform_engine.c ****   if (sampleRate > timerClock)
 485              		.loc 1 121 16 is_stmt 0 view .LVU131
 486 000a FFF7FEFF 		bl	WaveformEngine_GetTim3ClockHz
 487              	.LVL40:
 121:App/Src/waveform_engine.c ****   if (sampleRate > timerClock)
 488              		.loc 1 121 16 view .LVU132
 489 000e 0546     		mov	r5, r0
 490              	.LVL41:
 122:App/Src/waveform_engine.c ****   {
 491              		.loc 1 122 3 is_stmt 1 view .LVU133
 122:App/Src/waveform_engine.c ****   {
 492              		.loc 1 122 6 is_stmt 0 view .LVU134
 493 0010 8442     		cmp	r4, r0
 494 0012 3BD8     		bhi	.L36
 127:App/Src/waveform_engine.c ****   prescaler = (uint32_t)(((uint64_t)timerClock + minDivider - 1ULL) / minDivider);
 495              		.loc 1 127 3 is_stmt 1 view .LVU135
 127:App/Src/waveform_engine.c ****   prescaler = (uint32_t)(((uint64_t)timerClock + minDivider - 1ULL) / minDivider);
 496              		.loc 1 127 14 is_stmt 0 view .LVU136
 497 0014 230C     		lsrs	r3, r4, #16
 498 0016 2204     		lsls	r2, r4, #16
 128:App/Src/waveform_engine.c ****   if (prescaler > 0U)
 499              		.loc 1 128 3 is_stmt 1 view .LVU137
 128:App/Src/waveform_engine.c ****   if (prescaler > 0U)
 500              		.loc 1 128 48 is_stmt 0 view .LVU138
 501 0018 8018     		adds	r0, r0, r2
 502              	.LVL42:
 128:App/Src/waveform_engine.c ****   if (prescaler > 0U)
 503              		.loc 1 128 48 view .LVU139
 504 001a 43F10001 		adc	r1, r3, #0
 128:App/Src/waveform_engine.c ****   if (prescaler > 0U)
 505              		.loc 1 128 61 view .LVU140
 506 001e 0138     		subs	r0, r0, #1
 128:App/Src/waveform_engine.c ****   if (prescaler > 0U)
 507              		.loc 1 128 69 view .LVU141
 508 0020 41F1FF31 		adc	r1, r1, #-1
 509 0024 FFF7FEFF 		bl	__aeabi_uldivmod
 510              	.LVL43:
 128:App/Src/waveform_engine.c ****   if (prescaler > 0U)
 511              		.loc 1 128 13 view .LVU142
 512 0028 0246     		mov	r2, r0
 513              	.LVL44:
 129:App/Src/waveform_engine.c ****   {
 514              		.loc 1 129 3 is_stmt 1 view .LVU143
ARM GAS  C:\Users\hh\AppData\Local\Temp\ccVmJpKZ.s 			page 26


 129:App/Src/waveform_engine.c ****   {
 515              		.loc 1 129 6 is_stmt 0 view .LVU144
 516 002a 18B1     		cbz	r0, .L33
 131:App/Src/waveform_engine.c ****   }
 517              		.loc 1 131 5 is_stmt 1 view .LVU145
 131:App/Src/waveform_engine.c ****   }
 518              		.loc 1 131 14 is_stmt 0 view .LVU146
 519 002c 421E     		subs	r2, r0, #1
 520              	.LVL45:
 133:App/Src/waveform_engine.c ****   {
 521              		.loc 1 133 3 is_stmt 1 view .LVU147
 133:App/Src/waveform_engine.c ****   {
 522              		.loc 1 133 6 is_stmt 0 view .LVU148
 523 002e B2F5803F 		cmp	r2, #65536
 524 0032 2DD2     		bcs	.L37
 525              	.L33:
 526              	.LVL46:
 138:App/Src/waveform_engine.c ****   if ((period == 0U) || (period > 0x10000U))
 527              		.loc 1 138 3 is_stmt 1 view .LVU149
 138:App/Src/waveform_engine.c ****   if ((period == 0U) || (period > 0x10000U))
 528              		.loc 1 138 43 is_stmt 0 view .LVU150
 529 0034 02FB0443 		mla	r3, r2, r4, r4
 138:App/Src/waveform_engine.c ****   if ((period == 0U) || (period > 0x10000U))
 530              		.loc 1 138 10 view .LVU151
 531 0038 B5FBF3F3 		udiv	r3, r5, r3
 532              	.LVL47:
 139:App/Src/waveform_engine.c ****   {
 533              		.loc 1 139 3 is_stmt 1 view .LVU152
 139:App/Src/waveform_engine.c ****   {
 534              		.loc 1 139 22 is_stmt 0 view .LVU153
 535 003c 013B     		subs	r3, r3, #1
 536              	.LVL48:
 139:App/Src/waveform_engine.c ****   {
 537              		.loc 1 139 6 view .LVU154
 538 003e B3F5803F 		cmp	r3, #65536
 539 0042 27D2     		bcs	.L38
 144:App/Src/waveform_engine.c ****   __HAL_TIM_SET_PRESCALER(&htim3, prescaler);
 540              		.loc 1 144 3 is_stmt 1 view .LVU155
 144:App/Src/waveform_engine.c ****   __HAL_TIM_SET_PRESCALER(&htim3, prescaler);
 541              		.loc 1 144 3 view .LVU156
 542 0044 1549     		ldr	r1, .L45
 543 0046 0868     		ldr	r0, [r1]
 544 0048 D0F820C0 		ldr	ip, [r0, #32]
 545 004c 1449     		ldr	r1, .L45+4
 546 004e 0CEA0101 		and	r1, ip, r1
 547 0052 51B9     		cbnz	r1, .L34
 144:App/Src/waveform_engine.c ****   __HAL_TIM_SET_PRESCALER(&htim3, prescaler);
 548              		.loc 1 144 3 discriminator 1 view .LVU157
 549 0054 D0F820C0 		ldr	ip, [r0, #32]
 550 0058 40F24441 		movw	r1, #1092
 551 005c 1CEA010F 		tst	ip, r1
 552 0060 03D1     		bne	.L34
 144:App/Src/waveform_engine.c ****   __HAL_TIM_SET_PRESCALER(&htim3, prescaler);
 553              		.loc 1 144 3 discriminator 2 view .LVU158
 554 0062 0168     		ldr	r1, [r0]
 555 0064 21F00101 		bic	r1, r1, #1
 556 0068 0160     		str	r1, [r0]
ARM GAS  C:\Users\hh\AppData\Local\Temp\ccVmJpKZ.s 			page 27


 557              	.L34:
 144:App/Src/waveform_engine.c ****   __HAL_TIM_SET_PRESCALER(&htim3, prescaler);
 558              		.loc 1 144 3 view .LVU159
 145:App/Src/waveform_engine.c ****   __HAL_TIM_SET_AUTORELOAD(&htim3, period - 1U);
 559              		.loc 1 145 3 view .LVU160
 560 006a 0C48     		ldr	r0, .L45
 561 006c 0168     		ldr	r1, [r0]
 562 006e 8A62     		str	r2, [r1, #40]
 146:App/Src/waveform_engine.c ****   __HAL_TIM_SET_COUNTER(&htim3, 0U);
 563              		.loc 1 146 3 view .LVU161
 146:App/Src/waveform_engine.c ****   __HAL_TIM_SET_COUNTER(&htim3, 0U);
 564              		.loc 1 146 3 view .LVU162
 565 0070 CB62     		str	r3, [r1, #44]
 146:App/Src/waveform_engine.c ****   __HAL_TIM_SET_COUNTER(&htim3, 0U);
 566              		.loc 1 146 3 view .LVU163
 567 0072 C360     		str	r3, [r0, #12]
 146:App/Src/waveform_engine.c ****   __HAL_TIM_SET_COUNTER(&htim3, 0U);
 568              		.loc 1 146 3 view .LVU164
 147:App/Src/waveform_engine.c ****   if (HAL_TIM_GenerateEvent(&htim3, TIM_EVENTSOURCE_UPDATE) != HAL_OK)
 569              		.loc 1 147 3 view .LVU165
 570 0074 0023     		movs	r3, #0
 571              	.LVL49:
 147:App/Src/waveform_engine.c ****   if (HAL_TIM_GenerateEvent(&htim3, TIM_EVENTSOURCE_UPDATE) != HAL_OK)
 572              		.loc 1 147 3 is_stmt 0 view .LVU166
 573 0076 4B62     		str	r3, [r1, #36]
 574              	.LVL50:
 148:App/Src/waveform_engine.c ****   {
 575              		.loc 1 148 3 is_stmt 1 view .LVU167
 148:App/Src/waveform_engine.c ****   {
 576              		.loc 1 148 7 is_stmt 0 view .LVU168
 577 0078 0121     		movs	r1, #1
 578 007a FFF7FEFF 		bl	HAL_TIM_GenerateEvent
 579              	.LVL51:
 148:App/Src/waveform_engine.c ****   {
 580              		.loc 1 148 6 discriminator 1 view .LVU169
 581 007e 58B9     		cbnz	r0, .L39
 152:App/Src/waveform_engine.c **** 
 582              		.loc 1 152 3 is_stmt 1 view .LVU170
 583 0080 064B     		ldr	r3, .L45
 584 0082 1B68     		ldr	r3, [r3]
 585 0084 6FF00102 		mvn	r2, #1
 586 0088 1A61     		str	r2, [r3, #16]
 154:App/Src/waveform_engine.c **** }
 587              		.loc 1 154 3 view .LVU171
 154:App/Src/waveform_engine.c **** }
 588              		.loc 1 154 10 is_stmt 0 view .LVU172
 589 008a 00E0     		b	.L32
 590              	.LVL52:
 591              	.L36:
 124:App/Src/waveform_engine.c ****   }
 592              		.loc 1 124 12 view .LVU173
 593 008c 0120     		movs	r0, #1
 594              	.LVL53:
 595              	.L32:
 155:App/Src/waveform_engine.c **** 
 596              		.loc 1 155 1 view .LVU174
 597 008e 38BD     		pop	{r3, r4, r5, pc}
ARM GAS  C:\Users\hh\AppData\Local\Temp\ccVmJpKZ.s 			page 28


 598              	.LVL54:
 599              	.L37:
 135:App/Src/waveform_engine.c ****   }
 600              		.loc 1 135 12 view .LVU175
 601 0090 0120     		movs	r0, #1
 602 0092 FCE7     		b	.L32
 603              	.LVL55:
 604              	.L38:
 141:App/Src/waveform_engine.c ****   }
 605              		.loc 1 141 12 view .LVU176
 606 0094 0120     		movs	r0, #1
 607 0096 FAE7     		b	.L32
 608              	.LVL56:
 609              	.L39:
 150:App/Src/waveform_engine.c ****   }
 610              		.loc 1 150 12 view .LVU177
 611 0098 0120     		movs	r0, #1
 612 009a F8E7     		b	.L32
 613              	.L46:
 614              		.align	2
 615              	.L45:
 616 009c 00000000 		.word	htim3
 617 00a0 11111100 		.word	1118481
 618              		.cfi_endproc
 619              	.LFE154:
 621              		.section	.text.WaveformEngine_PulseLdacFast,"ax",%progbits
 622              		.align	1
 623              		.syntax unified
 624              		.thumb
 625              		.thumb_func
 627              	WaveformEngine_PulseLdacFast:
 628              	.LFB152:
  92:App/Src/waveform_engine.c ****   DAC_SetLDACPin(GPIO_PIN_RESET);
 629              		.loc 1 92 1 is_stmt 1 view -0
 630              		.cfi_startproc
 631              		@ args = 0, pretend = 0, frame = 0
 632              		@ frame_needed = 0, uses_anonymous_args = 0
 633 0000 08B5     		push	{r3, lr}
 634              	.LCFI2:
 635              		.cfi_def_cfa_offset 8
 636              		.cfi_offset 3, -8
 637              		.cfi_offset 14, -4
  93:App/Src/waveform_engine.c ****   for (uint32_t index = 0U; index < WAVEFORM_ENGINE_LDAC_NOP_COUNT; index++)
 638              		.loc 1 93 3 view .LVU179
 639 0002 0020     		movs	r0, #0
 640 0004 FFF7FEFF 		bl	DAC_SetLDACPin
 641              	.LVL57:
  94:App/Src/waveform_engine.c ****   {
 642              		.loc 1 94 3 view .LVU180
 643              	.LBB30:
  94:App/Src/waveform_engine.c ****   {
 644              		.loc 1 94 8 view .LVU181
  94:App/Src/waveform_engine.c ****   {
 645              		.loc 1 94 17 is_stmt 0 view .LVU182
 646 0008 0023     		movs	r3, #0
  94:App/Src/waveform_engine.c ****   {
 647              		.loc 1 94 3 view .LVU183
ARM GAS  C:\Users\hh\AppData\Local\Temp\ccVmJpKZ.s 			page 29


 648 000a 01E0     		b	.L48
 649              	.LVL58:
 650              	.L49:
  96:App/Src/waveform_engine.c ****   }
 651              		.loc 1 96 5 is_stmt 1 view .LVU184
 652              		.syntax unified
 653              	@ 96 "App/Src/waveform_engine.c" 1
 654 000c 00BF     		nop
 655              	@ 0 "" 2
  94:App/Src/waveform_engine.c ****   {
 656              		.loc 1 94 74 discriminator 3 view .LVU185
 657              		.thumb
 658              		.syntax unified
 659 000e 0133     		adds	r3, r3, #1
 660              	.LVL59:
 661              	.L48:
  94:App/Src/waveform_engine.c ****   {
 662              		.loc 1 94 35 discriminator 1 view .LVU186
 663 0010 0F2B     		cmp	r3, #15
 664 0012 FBD9     		bls	.L49
 665              	.LBE30:
  98:App/Src/waveform_engine.c **** }
 666              		.loc 1 98 3 view .LVU187
 667 0014 0120     		movs	r0, #1
 668 0016 FFF7FEFF 		bl	DAC_SetLDACPin
 669              	.LVL60:
  99:App/Src/waveform_engine.c **** 
 670              		.loc 1 99 1 is_stmt 0 view .LVU188
 671 001a 08BD     		pop	{r3, pc}
 672              		.cfi_endproc
 673              	.LFE152:
 675              		.section	.text.WaveformEngine_ConfigDma,"ax",%progbits
 676              		.align	1
 677              		.syntax unified
 678              		.thumb
 679              		.thumb_func
 681              	WaveformEngine_ConfigDma:
 682              	.LVL61:
 683              	.LFB155:
 158:App/Src/waveform_engine.c ****   (void)HAL_DMA_Abort(&hdma_spi1_tx);
 684              		.loc 1 158 1 is_stmt 1 view -0
 685              		.cfi_startproc
 686              		@ args = 0, pretend = 0, frame = 0
 687              		@ frame_needed = 0, uses_anonymous_args = 0
 158:App/Src/waveform_engine.c ****   (void)HAL_DMA_Abort(&hdma_spi1_tx);
 688              		.loc 1 158 1 is_stmt 0 view .LVU190
 689 0000 70B5     		push	{r4, r5, r6, lr}
 690              	.LCFI3:
 691              		.cfi_def_cfa_offset 16
 692              		.cfi_offset 4, -16
 693              		.cfi_offset 5, -12
 694              		.cfi_offset 6, -8
 695              		.cfi_offset 14, -4
 696 0002 0646     		mov	r6, r0
 697 0004 0D46     		mov	r5, r1
 159:App/Src/waveform_engine.c ****   (void)HAL_DMA_DeInit(&hdma_spi1_tx);
 698              		.loc 1 159 3 is_stmt 1 view .LVU191
ARM GAS  C:\Users\hh\AppData\Local\Temp\ccVmJpKZ.s 			page 30


 159:App/Src/waveform_engine.c ****   (void)HAL_DMA_DeInit(&hdma_spi1_tx);
 699              		.loc 1 159 9 is_stmt 0 view .LVU192
 700 0006 134C     		ldr	r4, .L55
 701 0008 2046     		mov	r0, r4
 702              	.LVL62:
 159:App/Src/waveform_engine.c ****   (void)HAL_DMA_DeInit(&hdma_spi1_tx);
 703              		.loc 1 159 9 view .LVU193
 704 000a FFF7FEFF 		bl	HAL_DMA_Abort
 705              	.LVL63:
 160:App/Src/waveform_engine.c **** 
 706              		.loc 1 160 3 is_stmt 1 view .LVU194
 160:App/Src/waveform_engine.c **** 
 707              		.loc 1 160 9 is_stmt 0 view .LVU195
 708 000e 2046     		mov	r0, r4
 709 0010 FFF7FEFF 		bl	HAL_DMA_DeInit
 710              	.LVL64:
 162:App/Src/waveform_engine.c ****   hdma_spi1_tx.Init.Request = request;
 711              		.loc 1 162 3 is_stmt 1 view .LVU196
 162:App/Src/waveform_engine.c ****   hdma_spi1_tx.Init.Request = request;
 712              		.loc 1 162 25 is_stmt 0 view .LVU197
 713 0014 104B     		ldr	r3, .L55+4
 714 0016 2360     		str	r3, [r4]
 163:App/Src/waveform_engine.c ****   hdma_spi1_tx.Init.Direction = DMA_MEMORY_TO_PERIPH;
 715              		.loc 1 163 3 is_stmt 1 view .LVU198
 163:App/Src/waveform_engine.c ****   hdma_spi1_tx.Init.Direction = DMA_MEMORY_TO_PERIPH;
 716              		.loc 1 163 29 is_stmt 0 view .LVU199
 717 0018 6660     		str	r6, [r4, #4]
 164:App/Src/waveform_engine.c ****   hdma_spi1_tx.Init.PeriphInc = DMA_PINC_DISABLE;
 718              		.loc 1 164 3 is_stmt 1 view .LVU200
 164:App/Src/waveform_engine.c ****   hdma_spi1_tx.Init.PeriphInc = DMA_PINC_DISABLE;
 719              		.loc 1 164 31 is_stmt 0 view .LVU201
 720 001a 4023     		movs	r3, #64
 721 001c A360     		str	r3, [r4, #8]
 165:App/Src/waveform_engine.c ****   hdma_spi1_tx.Init.MemInc = DMA_MINC_ENABLE;
 722              		.loc 1 165 3 is_stmt 1 view .LVU202
 165:App/Src/waveform_engine.c ****   hdma_spi1_tx.Init.MemInc = DMA_MINC_ENABLE;
 723              		.loc 1 165 31 is_stmt 0 view .LVU203
 724 001e 0023     		movs	r3, #0
 725 0020 E360     		str	r3, [r4, #12]
 166:App/Src/waveform_engine.c ****   hdma_spi1_tx.Init.PeriphDataAlignment = DMA_PDATAALIGN_WORD;
 726              		.loc 1 166 3 is_stmt 1 view .LVU204
 166:App/Src/waveform_engine.c ****   hdma_spi1_tx.Init.PeriphDataAlignment = DMA_PDATAALIGN_WORD;
 727              		.loc 1 166 28 is_stmt 0 view .LVU205
 728 0022 4FF48062 		mov	r2, #1024
 729 0026 2261     		str	r2, [r4, #16]
 167:App/Src/waveform_engine.c ****   hdma_spi1_tx.Init.MemDataAlignment = DMA_MDATAALIGN_WORD;
 730              		.loc 1 167 3 is_stmt 1 view .LVU206
 167:App/Src/waveform_engine.c ****   hdma_spi1_tx.Init.MemDataAlignment = DMA_MDATAALIGN_WORD;
 731              		.loc 1 167 41 is_stmt 0 view .LVU207
 732 0028 4FF48052 		mov	r2, #4096
 733 002c 6261     		str	r2, [r4, #20]
 168:App/Src/waveform_engine.c ****   hdma_spi1_tx.Init.Mode = mode;
 734              		.loc 1 168 3 is_stmt 1 view .LVU208
 168:App/Src/waveform_engine.c ****   hdma_spi1_tx.Init.Mode = mode;
 735              		.loc 1 168 38 is_stmt 0 view .LVU209
 736 002e 4FF48042 		mov	r2, #16384
 737 0032 A261     		str	r2, [r4, #24]
ARM GAS  C:\Users\hh\AppData\Local\Temp\ccVmJpKZ.s 			page 31


 169:App/Src/waveform_engine.c ****   hdma_spi1_tx.Init.Priority = DMA_PRIORITY_HIGH;
 738              		.loc 1 169 3 is_stmt 1 view .LVU210
 169:App/Src/waveform_engine.c ****   hdma_spi1_tx.Init.Priority = DMA_PRIORITY_HIGH;
 739              		.loc 1 169 26 is_stmt 0 view .LVU211
 740 0034 E561     		str	r5, [r4, #28]
 170:App/Src/waveform_engine.c ****   hdma_spi1_tx.Init.FIFOMode = DMA_FIFOMODE_DISABLE;
 741              		.loc 1 170 3 is_stmt 1 view .LVU212
 170:App/Src/waveform_engine.c ****   hdma_spi1_tx.Init.FIFOMode = DMA_FIFOMODE_DISABLE;
 742              		.loc 1 170 30 is_stmt 0 view .LVU213
 743 0036 4FF40032 		mov	r2, #131072
 744 003a 2262     		str	r2, [r4, #32]
 171:App/Src/waveform_engine.c **** 
 745              		.loc 1 171 3 is_stmt 1 view .LVU214
 171:App/Src/waveform_engine.c **** 
 746              		.loc 1 171 30 is_stmt 0 view .LVU215
 747 003c 6362     		str	r3, [r4, #36]
 173:App/Src/waveform_engine.c ****   {
 748              		.loc 1 173 3 is_stmt 1 view .LVU216
 173:App/Src/waveform_engine.c ****   {
 749              		.loc 1 173 7 is_stmt 0 view .LVU217
 750 003e 2046     		mov	r0, r4
 751 0040 FFF7FEFF 		bl	HAL_DMA_Init
 752              	.LVL65:
 173:App/Src/waveform_engine.c ****   {
 753              		.loc 1 173 6 discriminator 1 view .LVU218
 754 0044 18B9     		cbnz	r0, .L53
 178:App/Src/waveform_engine.c ****   return HAL_OK;
 755              		.loc 1 178 3 is_stmt 1 view .LVU219
 178:App/Src/waveform_engine.c ****   return HAL_OK;
 756              		.loc 1 178 3 view .LVU220
 757 0046 054A     		ldr	r2, .L55+8
 758 0048 9467     		str	r4, [r2, #120]
 178:App/Src/waveform_engine.c ****   return HAL_OK;
 759              		.loc 1 178 3 view .LVU221
 760 004a A263     		str	r2, [r4, #56]
 178:App/Src/waveform_engine.c ****   return HAL_OK;
 761              		.loc 1 178 3 view .LVU222
 179:App/Src/waveform_engine.c **** }
 762              		.loc 1 179 3 view .LVU223
 763              	.L52:
 180:App/Src/waveform_engine.c **** 
 764              		.loc 1 180 1 is_stmt 0 view .LVU224
 765 004c 70BD     		pop	{r4, r5, r6, pc}
 766              	.LVL66:
 767              	.L53:
 175:App/Src/waveform_engine.c ****   }
 768              		.loc 1 175 12 view .LVU225
 769 004e 0120     		movs	r0, #1
 770 0050 FCE7     		b	.L52
 771              	.L56:
 772 0052 00BF     		.align	2
 773              	.L55:
 774 0054 00000000 		.word	hdma_spi1_tx
 775 0058 58000240 		.word	1073872984
 776 005c 00000000 		.word	hspi1
 777              		.cfi_endproc
 778              	.LFE155:
ARM GAS  C:\Users\hh\AppData\Local\Temp\ccVmJpKZ.s 			page 32


 780              		.section	.text.WaveformEngine_StartTimDmaTurbo,"ax",%progbits
 781              		.align	1
 782              		.syntax unified
 783              		.thumb
 784              		.thumb_func
 786              	WaveformEngine_StartTimDmaTurbo:
 787              	.LFB159:
 195:App/Src/waveform_engine.c **** 
 196:App/Src/waveform_engine.c **** static void WaveformEngine_TurboError(DMA_HandleTypeDef *hdma)
 197:App/Src/waveform_engine.c **** {
 198:App/Src/waveform_engine.c ****   (void)hdma;
 199:App/Src/waveform_engine.c ****   WaveformEngine_DmaError();
 200:App/Src/waveform_engine.c **** }
 201:App/Src/waveform_engine.c **** 
 202:App/Src/waveform_engine.c **** static HAL_StatusTypeDef WaveformEngine_StartTimDmaTurbo(void)
 203:App/Src/waveform_engine.c **** {
 788              		.loc 1 203 1 is_stmt 1 view -0
 789              		.cfi_startproc
 790              		@ args = 0, pretend = 0, frame = 0
 791              		@ frame_needed = 0, uses_anonymous_args = 0
 792 0000 38B5     		push	{r3, r4, r5, lr}
 793              	.LCFI4:
 794              		.cfi_def_cfa_offset 16
 795              		.cfi_offset 3, -16
 796              		.cfi_offset 4, -12
 797              		.cfi_offset 5, -8
 798              		.cfi_offset 14, -4
 204:App/Src/waveform_engine.c ****   if (activeConfig.channels != 1U)
 799              		.loc 1 204 3 view .LVU227
 800              		.loc 1 204 19 is_stmt 0 view .LVU228
 801 0002 364B     		ldr	r3, .L64
 802 0004 5C78     		ldrb	r4, [r3, #1]	@ zero_extendqisi2
 803              		.loc 1 204 6 view .LVU229
 804 0006 012C     		cmp	r4, #1
 805 0008 02D0     		beq	.L62
 205:App/Src/waveform_engine.c ****   {
 206:App/Src/waveform_engine.c ****     return HAL_ERROR;
 806              		.loc 1 206 12 view .LVU230
 807 000a 0124     		movs	r4, #1
 808              	.L58:
 207:App/Src/waveform_engine.c ****   }
 208:App/Src/waveform_engine.c **** 
 209:App/Src/waveform_engine.c ****   if (WaveformEngine_ConfigDma(DMA_REQUEST_TIM3_UP, DMA_CIRCULAR) != HAL_OK)
 210:App/Src/waveform_engine.c ****   {
 211:App/Src/waveform_engine.c ****     return HAL_ERROR;
 212:App/Src/waveform_engine.c ****   }
 213:App/Src/waveform_engine.c **** 
 214:App/Src/waveform_engine.c ****   hdma_spi1_tx.XferHalfCpltCallback = WaveformEngine_TurboHalfComplete;
 215:App/Src/waveform_engine.c ****   hdma_spi1_tx.XferCpltCallback = WaveformEngine_TurboComplete;
 216:App/Src/waveform_engine.c ****   hdma_spi1_tx.XferErrorCallback = WaveformEngine_TurboError;
 217:App/Src/waveform_engine.c ****   hdma_spi1_tx.XferAbortCallback = NULL;
 218:App/Src/waveform_engine.c **** 
 219:App/Src/waveform_engine.c ****   WaveformEngine_CleanDCache(frameTable, totalSamplePoints * sizeof(uint32_t));
 220:App/Src/waveform_engine.c **** 
 221:App/Src/waveform_engine.c ****   CLEAR_BIT(hspi1.Instance->CR1, SPI_CR1_CSTART);
 222:App/Src/waveform_engine.c ****   CLEAR_BIT(hspi1.Instance->CFG1, SPI_CFG1_TXDMAEN);
 223:App/Src/waveform_engine.c ****   MODIFY_REG(hspi1.Instance->CR2, SPI_CR2_TSIZE, 0UL);
ARM GAS  C:\Users\hh\AppData\Local\Temp\ccVmJpKZ.s 			page 33


 224:App/Src/waveform_engine.c ****   __HAL_SPI_ENABLE(&hspi1);
 225:App/Src/waveform_engine.c **** 
 226:App/Src/waveform_engine.c ****   if (HAL_DMA_Start_IT(&hdma_spi1_tx,
 227:App/Src/waveform_engine.c ****                        (uint32_t)frameTable,
 228:App/Src/waveform_engine.c ****                        (uint32_t)&hspi1.Instance->TXDR,
 229:App/Src/waveform_engine.c ****                        totalSamplePoints) != HAL_OK)
 230:App/Src/waveform_engine.c ****   {
 231:App/Src/waveform_engine.c ****     return HAL_ERROR;
 232:App/Src/waveform_engine.c ****   }
 233:App/Src/waveform_engine.c **** 
 234:App/Src/waveform_engine.c ****   DAC_SetLDACPin(GPIO_PIN_RESET);
 235:App/Src/waveform_engine.c ****   DAC_CS_LOW();
 236:App/Src/waveform_engine.c ****   SET_BIT(hspi1.Instance->CR1, SPI_CR1_CSTART);
 237:App/Src/waveform_engine.c ****   __HAL_TIM_ENABLE_DMA(&htim3, TIM_DMA_UPDATE);
 238:App/Src/waveform_engine.c **** 
 239:App/Src/waveform_engine.c ****   if (HAL_TIM_Base_Start(&htim3) != HAL_OK)
 240:App/Src/waveform_engine.c ****   {
 241:App/Src/waveform_engine.c ****     __HAL_TIM_DISABLE_DMA(&htim3, TIM_DMA_UPDATE);
 242:App/Src/waveform_engine.c ****     (void)HAL_DMA_Abort(&hdma_spi1_tx);
 243:App/Src/waveform_engine.c ****     DAC_CS_HIGH();
 244:App/Src/waveform_engine.c ****     DAC_SetLDACPin(GPIO_PIN_SET);
 245:App/Src/waveform_engine.c ****     CLEAR_BIT(hspi1.Instance->CR1, SPI_CR1_CSTART);
 246:App/Src/waveform_engine.c ****     return HAL_ERROR;
 247:App/Src/waveform_engine.c ****   }
 248:App/Src/waveform_engine.c **** 
 249:App/Src/waveform_engine.c ****   engineMode = WAVEFORM_ENGINE_MODE_TIM_DMA_TURBO;
 250:App/Src/waveform_engine.c ****   return HAL_OK;
 251:App/Src/waveform_engine.c **** }
 809              		.loc 1 251 1 view .LVU231
 810 000c 2046     		mov	r0, r4
 811 000e 38BD     		pop	{r3, r4, r5, pc}
 812              	.L62:
 209:App/Src/waveform_engine.c ****   {
 813              		.loc 1 209 3 is_stmt 1 view .LVU232
 209:App/Src/waveform_engine.c ****   {
 814              		.loc 1 209 7 is_stmt 0 view .LVU233
 815 0010 4FF48071 		mov	r1, #256
 816 0014 1B20     		movs	r0, #27
 817 0016 FFF7FEFF 		bl	WaveformEngine_ConfigDma
 818              	.LVL67:
 209:App/Src/waveform_engine.c ****   {
 819              		.loc 1 209 6 discriminator 1 view .LVU234
 820 001a 0028     		cmp	r0, #0
 821 001c F6D1     		bne	.L58
 214:App/Src/waveform_engine.c ****   hdma_spi1_tx.XferCpltCallback = WaveformEngine_TurboComplete;
 822              		.loc 1 214 3 is_stmt 1 view .LVU235
 214:App/Src/waveform_engine.c ****   hdma_spi1_tx.XferCpltCallback = WaveformEngine_TurboComplete;
 823              		.loc 1 214 37 is_stmt 0 view .LVU236
 824 001e 304B     		ldr	r3, .L64+4
 825 0020 304A     		ldr	r2, .L64+8
 826 0022 1364     		str	r3, [r2, #64]
 215:App/Src/waveform_engine.c ****   hdma_spi1_tx.XferErrorCallback = WaveformEngine_TurboError;
 827              		.loc 1 215 3 is_stmt 1 view .LVU237
 215:App/Src/waveform_engine.c ****   hdma_spi1_tx.XferErrorCallback = WaveformEngine_TurboError;
 828              		.loc 1 215 33 is_stmt 0 view .LVU238
 829 0024 304B     		ldr	r3, .L64+12
 830 0026 D363     		str	r3, [r2, #60]
ARM GAS  C:\Users\hh\AppData\Local\Temp\ccVmJpKZ.s 			page 34


 216:App/Src/waveform_engine.c ****   hdma_spi1_tx.XferAbortCallback = NULL;
 831              		.loc 1 216 3 is_stmt 1 view .LVU239
 216:App/Src/waveform_engine.c ****   hdma_spi1_tx.XferAbortCallback = NULL;
 832              		.loc 1 216 34 is_stmt 0 view .LVU240
 833 0028 304B     		ldr	r3, .L64+16
 834 002a D364     		str	r3, [r2, #76]
 217:App/Src/waveform_engine.c **** 
 835              		.loc 1 217 3 is_stmt 1 view .LVU241
 217:App/Src/waveform_engine.c **** 
 836              		.loc 1 217 34 is_stmt 0 view .LVU242
 837 002c 1065     		str	r0, [r2, #80]
 219:App/Src/waveform_engine.c **** 
 838              		.loc 1 219 3 is_stmt 1 view .LVU243
 839 002e 304D     		ldr	r5, .L64+20
 840 0030 2968     		ldr	r1, [r5]
 841 0032 8900     		lsls	r1, r1, #2
 842 0034 4FF0C040 		mov	r0, #1610612736
 843 0038 FFF7FEFF 		bl	WaveformEngine_CleanDCache
 844              	.LVL68:
 221:App/Src/waveform_engine.c ****   CLEAR_BIT(hspi1.Instance->CFG1, SPI_CFG1_TXDMAEN);
 845              		.loc 1 221 3 view .LVU244
 846 003c 2D4A     		ldr	r2, .L64+24
 847 003e 1168     		ldr	r1, [r2]
 848 0040 0B68     		ldr	r3, [r1]
 849 0042 23F40073 		bic	r3, r3, #512
 850 0046 0B60     		str	r3, [r1]
 222:App/Src/waveform_engine.c ****   MODIFY_REG(hspi1.Instance->CR2, SPI_CR2_TSIZE, 0UL);
 851              		.loc 1 222 3 view .LVU245
 852 0048 1368     		ldr	r3, [r2]
 853 004a 9968     		ldr	r1, [r3, #8]
 854 004c 21F40041 		bic	r1, r1, #32768
 855 0050 9960     		str	r1, [r3, #8]
 223:App/Src/waveform_engine.c ****   __HAL_SPI_ENABLE(&hspi1);
 856              		.loc 1 223 3 view .LVU246
 857 0052 5968     		ldr	r1, [r3, #4]
 858 0054 6FF30F01 		bfc	r1, #0, #16
 859 0058 5960     		str	r1, [r3, #4]
 224:App/Src/waveform_engine.c **** 
 860              		.loc 1 224 3 view .LVU247
 861 005a 1968     		ldr	r1, [r3]
 862 005c 41F00101 		orr	r1, r1, #1
 863 0060 1960     		str	r1, [r3]
 226:App/Src/waveform_engine.c ****                        (uint32_t)frameTable,
 864              		.loc 1 226 3 view .LVU248
 228:App/Src/waveform_engine.c ****                        totalSamplePoints) != HAL_OK)
 865              		.loc 1 228 40 is_stmt 0 view .LVU249
 866 0062 1268     		ldr	r2, [r2]
 226:App/Src/waveform_engine.c ****                        (uint32_t)frameTable,
 867              		.loc 1 226 7 view .LVU250
 868 0064 2B68     		ldr	r3, [r5]
 869 0066 2032     		adds	r2, r2, #32
 870 0068 4FF0C041 		mov	r1, #1610612736
 871 006c 1D48     		ldr	r0, .L64+8
 872 006e FFF7FEFF 		bl	HAL_DMA_Start_IT
 873              	.LVL69:
 226:App/Src/waveform_engine.c ****                        (uint32_t)frameTable,
 874              		.loc 1 226 6 discriminator 1 view .LVU251
ARM GAS  C:\Users\hh\AppData\Local\Temp\ccVmJpKZ.s 			page 35


 875 0072 0028     		cmp	r0, #0
 876 0074 CAD1     		bne	.L58
 234:App/Src/waveform_engine.c ****   DAC_CS_LOW();
 877              		.loc 1 234 3 is_stmt 1 view .LVU252
 878 0076 FFF7FEFF 		bl	DAC_SetLDACPin
 879              	.LVL70:
 235:App/Src/waveform_engine.c ****   SET_BIT(hspi1.Instance->CR1, SPI_CR1_CSTART);
 880              		.loc 1 235 3 view .LVU253
 881 007a 0022     		movs	r2, #0
 882 007c 1021     		movs	r1, #16
 883 007e 1E48     		ldr	r0, .L64+28
 884 0080 FFF7FEFF 		bl	HAL_GPIO_WritePin
 885              	.LVL71:
 236:App/Src/waveform_engine.c ****   __HAL_TIM_ENABLE_DMA(&htim3, TIM_DMA_UPDATE);
 886              		.loc 1 236 3 view .LVU254
 887 0084 1B4B     		ldr	r3, .L64+24
 888 0086 1A68     		ldr	r2, [r3]
 889 0088 1368     		ldr	r3, [r2]
 890 008a 43F40073 		orr	r3, r3, #512
 891 008e 1360     		str	r3, [r2]
 237:App/Src/waveform_engine.c **** 
 892              		.loc 1 237 3 view .LVU255
 893 0090 1A48     		ldr	r0, .L64+32
 894 0092 0268     		ldr	r2, [r0]
 895 0094 D368     		ldr	r3, [r2, #12]
 896 0096 43F48073 		orr	r3, r3, #256
 897 009a D360     		str	r3, [r2, #12]
 239:App/Src/waveform_engine.c ****   {
 898              		.loc 1 239 3 view .LVU256
 239:App/Src/waveform_engine.c ****   {
 899              		.loc 1 239 7 is_stmt 0 view .LVU257
 900 009c FFF7FEFF 		bl	HAL_TIM_Base_Start
 901              	.LVL72:
 239:App/Src/waveform_engine.c ****   {
 902              		.loc 1 239 6 discriminator 1 view .LVU258
 903 00a0 20B9     		cbnz	r0, .L63
 249:App/Src/waveform_engine.c ****   return HAL_OK;
 904              		.loc 1 249 3 is_stmt 1 view .LVU259
 249:App/Src/waveform_engine.c ****   return HAL_OK;
 905              		.loc 1 249 14 is_stmt 0 view .LVU260
 906 00a2 174A     		ldr	r2, .L64+36
 907 00a4 0221     		movs	r1, #2
 908 00a6 1170     		strb	r1, [r2]
 250:App/Src/waveform_engine.c **** }
 909              		.loc 1 250 3 is_stmt 1 view .LVU261
 250:App/Src/waveform_engine.c **** }
 910              		.loc 1 250 10 is_stmt 0 view .LVU262
 911 00a8 0446     		mov	r4, r0
 912 00aa AFE7     		b	.L58
 913              	.L63:
 241:App/Src/waveform_engine.c ****     (void)HAL_DMA_Abort(&hdma_spi1_tx);
 914              		.loc 1 241 5 is_stmt 1 view .LVU263
 915 00ac 134B     		ldr	r3, .L64+32
 916 00ae 1A68     		ldr	r2, [r3]
 917 00b0 D368     		ldr	r3, [r2, #12]
 918 00b2 23F48073 		bic	r3, r3, #256
 919 00b6 D360     		str	r3, [r2, #12]
ARM GAS  C:\Users\hh\AppData\Local\Temp\ccVmJpKZ.s 			page 36


 242:App/Src/waveform_engine.c ****     DAC_CS_HIGH();
 920              		.loc 1 242 5 view .LVU264
 242:App/Src/waveform_engine.c ****     DAC_CS_HIGH();
 921              		.loc 1 242 11 is_stmt 0 view .LVU265
 922 00b8 0A48     		ldr	r0, .L64+8
 923 00ba FFF7FEFF 		bl	HAL_DMA_Abort
 924              	.LVL73:
 243:App/Src/waveform_engine.c ****     DAC_SetLDACPin(GPIO_PIN_SET);
 925              		.loc 1 243 5 is_stmt 1 view .LVU266
 926 00be 0122     		movs	r2, #1
 927 00c0 1021     		movs	r1, #16
 928 00c2 0D48     		ldr	r0, .L64+28
 929 00c4 FFF7FEFF 		bl	HAL_GPIO_WritePin
 930              	.LVL74:
 244:App/Src/waveform_engine.c ****     CLEAR_BIT(hspi1.Instance->CR1, SPI_CR1_CSTART);
 931              		.loc 1 244 5 view .LVU267
 932 00c8 0120     		movs	r0, #1
 933 00ca FFF7FEFF 		bl	DAC_SetLDACPin
 934              	.LVL75:
 245:App/Src/waveform_engine.c ****     return HAL_ERROR;
 935              		.loc 1 245 5 view .LVU268
 936 00ce 094B     		ldr	r3, .L64+24
 937 00d0 1A68     		ldr	r2, [r3]
 938 00d2 1368     		ldr	r3, [r2]
 939 00d4 23F40073 		bic	r3, r3, #512
 940 00d8 1360     		str	r3, [r2]
 246:App/Src/waveform_engine.c ****   }
 941              		.loc 1 246 5 view .LVU269
 246:App/Src/waveform_engine.c ****   }
 942              		.loc 1 246 12 is_stmt 0 view .LVU270
 943 00da 97E7     		b	.L58
 944              	.L65:
 945              		.align	2
 946              	.L64:
 947 00dc 00000000 		.word	activeConfig
 948 00e0 00000000 		.word	WaveformEngine_TurboHalfComplete
 949 00e4 00000000 		.word	hdma_spi1_tx
 950 00e8 00000000 		.word	WaveformEngine_TurboComplete
 951 00ec 00000000 		.word	WaveformEngine_TurboError
 952 00f0 00000000 		.word	totalSamplePoints
 953 00f4 00000000 		.word	hspi1
 954 00f8 00000258 		.word	1476526080
 955 00fc 00000000 		.word	htim3
 956 0100 00000000 		.word	engineMode
 957              		.cfi_endproc
 958              	.LFE159:
 960              		.section	.text.WaveformEngine_StartIrqDma,"ax",%progbits
 961              		.align	1
 962              		.syntax unified
 963              		.thumb
 964              		.thumb_func
 966              	WaveformEngine_StartIrqDma:
 967              	.LFB160:
 252:App/Src/waveform_engine.c **** 
 253:App/Src/waveform_engine.c **** static HAL_StatusTypeDef WaveformEngine_StartIrqDma(void)
 254:App/Src/waveform_engine.c **** {
 968              		.loc 1 254 1 is_stmt 1 view -0
ARM GAS  C:\Users\hh\AppData\Local\Temp\ccVmJpKZ.s 			page 37


 969              		.cfi_startproc
 970              		@ args = 0, pretend = 0, frame = 0
 971              		@ frame_needed = 0, uses_anonymous_args = 0
 972 0000 08B5     		push	{r3, lr}
 973              	.LCFI5:
 974              		.cfi_def_cfa_offset 8
 975              		.cfi_offset 3, -8
 976              		.cfi_offset 14, -4
 255:App/Src/waveform_engine.c ****   if (WaveformEngine_ConfigDma(DMA_REQUEST_SPI1_TX, DMA_NORMAL) != HAL_OK)
 977              		.loc 1 255 3 view .LVU272
 978              		.loc 1 255 7 is_stmt 0 view .LVU273
 979 0002 0021     		movs	r1, #0
 980 0004 2620     		movs	r0, #38
 981 0006 FFF7FEFF 		bl	WaveformEngine_ConfigDma
 982              	.LVL76:
 983              		.loc 1 255 6 discriminator 1 view .LVU274
 984 000a 08B1     		cbz	r0, .L70
 256:App/Src/waveform_engine.c ****   {
 257:App/Src/waveform_engine.c ****     return HAL_ERROR;
 985              		.loc 1 257 12 view .LVU275
 986 000c 0120     		movs	r0, #1
 987              	.L67:
 258:App/Src/waveform_engine.c ****   }
 259:App/Src/waveform_engine.c **** 
 260:App/Src/waveform_engine.c ****   engineMode = WAVEFORM_ENGINE_MODE_IRQ_DMA;
 261:App/Src/waveform_engine.c ****   return HAL_TIM_Base_Start_IT(&htim3);
 262:App/Src/waveform_engine.c **** }
 988              		.loc 1 262 1 view .LVU276
 989 000e 08BD     		pop	{r3, pc}
 990              	.L70:
 260:App/Src/waveform_engine.c ****   return HAL_TIM_Base_Start_IT(&htim3);
 991              		.loc 1 260 3 is_stmt 1 view .LVU277
 260:App/Src/waveform_engine.c ****   return HAL_TIM_Base_Start_IT(&htim3);
 992              		.loc 1 260 14 is_stmt 0 view .LVU278
 993 0010 034B     		ldr	r3, .L71
 994 0012 0122     		movs	r2, #1
 995 0014 1A70     		strb	r2, [r3]
 261:App/Src/waveform_engine.c **** }
 996              		.loc 1 261 3 is_stmt 1 view .LVU279
 261:App/Src/waveform_engine.c **** }
 997              		.loc 1 261 10 is_stmt 0 view .LVU280
 998 0016 0348     		ldr	r0, .L71+4
 999 0018 FFF7FEFF 		bl	HAL_TIM_Base_Start_IT
 1000              	.LVL77:
 1001 001c F7E7     		b	.L67
 1002              	.L72:
 1003 001e 00BF     		.align	2
 1004              	.L71:
 1005 0020 00000000 		.word	engineMode
 1006 0024 00000000 		.word	htim3
 1007              		.cfi_endproc
 1008              	.LFE160:
 1010              		.section	.text.WaveformEngine_StopHardware,"ax",%progbits
 1011              		.align	1
 1012              		.syntax unified
 1013              		.thumb
 1014              		.thumb_func
ARM GAS  C:\Users\hh\AppData\Local\Temp\ccVmJpKZ.s 			page 38


 1016              	WaveformEngine_StopHardware:
 1017              	.LFB161:
 263:App/Src/waveform_engine.c **** 
 264:App/Src/waveform_engine.c **** static void WaveformEngine_StopHardware(void)
 265:App/Src/waveform_engine.c **** {
 1018              		.loc 1 265 1 is_stmt 1 view -0
 1019              		.cfi_startproc
 1020              		@ args = 0, pretend = 0, frame = 0
 1021              		@ frame_needed = 0, uses_anonymous_args = 0
 1022 0000 10B5     		push	{r4, lr}
 1023              	.LCFI6:
 1024              		.cfi_def_cfa_offset 8
 1025              		.cfi_offset 4, -8
 1026              		.cfi_offset 14, -4
 266:App/Src/waveform_engine.c ****   (void)HAL_TIM_Base_Stop_IT(&htim3);
 1027              		.loc 1 266 3 view .LVU282
 1028              		.loc 1 266 9 is_stmt 0 view .LVU283
 1029 0002 194C     		ldr	r4, .L78
 1030 0004 2046     		mov	r0, r4
 1031 0006 FFF7FEFF 		bl	HAL_TIM_Base_Stop_IT
 1032              	.LVL78:
 267:App/Src/waveform_engine.c ****   (void)HAL_TIM_Base_Stop(&htim3);
 1033              		.loc 1 267 3 is_stmt 1 view .LVU284
 1034              		.loc 1 267 9 is_stmt 0 view .LVU285
 1035 000a 2046     		mov	r0, r4
 1036 000c FFF7FEFF 		bl	HAL_TIM_Base_Stop
 1037              	.LVL79:
 268:App/Src/waveform_engine.c ****   __HAL_TIM_DISABLE_DMA(&htim3, TIM_DMA_UPDATE);
 1038              		.loc 1 268 3 is_stmt 1 view .LVU286
 1039 0010 2268     		ldr	r2, [r4]
 1040 0012 D368     		ldr	r3, [r2, #12]
 1041 0014 23F48073 		bic	r3, r3, #256
 1042 0018 D360     		str	r3, [r2, #12]
 269:App/Src/waveform_engine.c **** 
 270:App/Src/waveform_engine.c ****   if (engineMode == WAVEFORM_ENGINE_MODE_TIM_DMA_TURBO)
 1043              		.loc 1 270 3 view .LVU287
 1044              		.loc 1 270 18 is_stmt 0 view .LVU288
 1045 001a 144B     		ldr	r3, .L78+4
 1046 001c 1B78     		ldrb	r3, [r3]	@ zero_extendqisi2
 1047              		.loc 1 270 6 view .LVU289
 1048 001e 022B     		cmp	r3, #2
 1049 0020 14D0     		beq	.L77
 271:App/Src/waveform_engine.c ****   {
 272:App/Src/waveform_engine.c ****     (void)HAL_DMA_Abort(&hdma_spi1_tx);
 273:App/Src/waveform_engine.c ****     CLEAR_BIT(hspi1.Instance->CFG1, SPI_CFG1_TXDMAEN);
 274:App/Src/waveform_engine.c ****     CLEAR_BIT(hspi1.Instance->CR1, SPI_CR1_CSTART);
 275:App/Src/waveform_engine.c ****   }
 276:App/Src/waveform_engine.c ****   else
 277:App/Src/waveform_engine.c ****   {
 278:App/Src/waveform_engine.c ****     (void)HAL_SPI_DMAStop(&hspi1);
 1050              		.loc 1 278 5 is_stmt 1 view .LVU290
 1051              		.loc 1 278 11 is_stmt 0 view .LVU291
 1052 0022 1348     		ldr	r0, .L78+8
 1053 0024 FFF7FEFF 		bl	HAL_SPI_DMAStop
 1054              	.LVL80:
 1055              	.L75:
 279:App/Src/waveform_engine.c ****   }
ARM GAS  C:\Users\hh\AppData\Local\Temp\ccVmJpKZ.s 			page 39


 280:App/Src/waveform_engine.c **** 
 281:App/Src/waveform_engine.c ****   DAC_CS_HIGH();
 1056              		.loc 1 281 3 is_stmt 1 view .LVU292
 1057 0028 0122     		movs	r2, #1
 1058 002a 1021     		movs	r1, #16
 1059 002c 1148     		ldr	r0, .L78+12
 1060 002e FFF7FEFF 		bl	HAL_GPIO_WritePin
 1061              	.LVL81:
 282:App/Src/waveform_engine.c ****   DAC_SetLDACPin(GPIO_PIN_SET);
 1062              		.loc 1 282 3 view .LVU293
 1063 0032 0120     		movs	r0, #1
 1064 0034 FFF7FEFF 		bl	DAC_SetLDACPin
 1065              	.LVL82:
 283:App/Src/waveform_engine.c ****   txBusy = 0U;
 1066              		.loc 1 283 3 view .LVU294
 1067              		.loc 1 283 10 is_stmt 0 view .LVU295
 1068 0038 0024     		movs	r4, #0
 1069 003a 0F4B     		ldr	r3, .L78+16
 1070 003c 1C70     		strb	r4, [r3]
 284:App/Src/waveform_engine.c **** 
 285:App/Src/waveform_engine.c ****   (void)WaveformEngine_ConfigDma(DMA_REQUEST_SPI1_TX, DMA_NORMAL);
 1071              		.loc 1 285 3 is_stmt 1 view .LVU296
 1072              		.loc 1 285 9 is_stmt 0 view .LVU297
 1073 003e 2146     		mov	r1, r4
 1074 0040 2620     		movs	r0, #38
 1075 0042 FFF7FEFF 		bl	WaveformEngine_ConfigDma
 1076              	.LVL83:
 286:App/Src/waveform_engine.c ****   engineMode = WAVEFORM_ENGINE_MODE_STOPPED;
 1077              		.loc 1 286 3 is_stmt 1 view .LVU298
 1078              		.loc 1 286 14 is_stmt 0 view .LVU299
 1079 0046 094B     		ldr	r3, .L78+4
 1080 0048 1C70     		strb	r4, [r3]
 287:App/Src/waveform_engine.c **** }
 1081              		.loc 1 287 1 view .LVU300
 1082 004a 10BD     		pop	{r4, pc}
 1083              	.L77:
 272:App/Src/waveform_engine.c ****     CLEAR_BIT(hspi1.Instance->CFG1, SPI_CFG1_TXDMAEN);
 1084              		.loc 1 272 5 is_stmt 1 view .LVU301
 272:App/Src/waveform_engine.c ****     CLEAR_BIT(hspi1.Instance->CFG1, SPI_CFG1_TXDMAEN);
 1085              		.loc 1 272 11 is_stmt 0 view .LVU302
 1086 004c 0B48     		ldr	r0, .L78+20
 1087 004e FFF7FEFF 		bl	HAL_DMA_Abort
 1088              	.LVL84:
 273:App/Src/waveform_engine.c ****     CLEAR_BIT(hspi1.Instance->CR1, SPI_CR1_CSTART);
 1089              		.loc 1 273 5 is_stmt 1 view .LVU303
 1090 0052 074B     		ldr	r3, .L78+8
 1091 0054 1B68     		ldr	r3, [r3]
 1092 0056 9A68     		ldr	r2, [r3, #8]
 1093 0058 22F40042 		bic	r2, r2, #32768
 1094 005c 9A60     		str	r2, [r3, #8]
 274:App/Src/waveform_engine.c ****   }
 1095              		.loc 1 274 5 view .LVU304
 1096 005e 1A68     		ldr	r2, [r3]
 1097 0060 22F40072 		bic	r2, r2, #512
 1098 0064 1A60     		str	r2, [r3]
 1099 0066 DFE7     		b	.L75
 1100              	.L79:
ARM GAS  C:\Users\hh\AppData\Local\Temp\ccVmJpKZ.s 			page 40


 1101              		.align	2
 1102              	.L78:
 1103 0068 00000000 		.word	htim3
 1104 006c 00000000 		.word	engineMode
 1105 0070 00000000 		.word	hspi1
 1106 0074 00000258 		.word	1476526080
 1107 0078 00000000 		.word	txBusy
 1108 007c 00000000 		.word	hdma_spi1_tx
 1109              		.cfi_endproc
 1110              	.LFE161:
 1112              		.section	.text.WaveformEngine_Init,"ax",%progbits
 1113              		.align	1
 1114              		.global	WaveformEngine_Init
 1115              		.syntax unified
 1116              		.thumb
 1117              		.thumb_func
 1119              	WaveformEngine_Init:
 1120              	.LFB162:
 288:App/Src/waveform_engine.c **** 
 289:App/Src/waveform_engine.c **** void WaveformEngine_Init(void)
 290:App/Src/waveform_engine.c **** {
 1121              		.loc 1 290 1 view -0
 1122              		.cfi_startproc
 1123              		@ args = 0, pretend = 0, frame = 0
 1124              		@ frame_needed = 0, uses_anonymous_args = 0
 1125 0000 10B5     		push	{r4, lr}
 1126              	.LCFI7:
 1127              		.cfi_def_cfa_offset 8
 1128              		.cfi_offset 4, -8
 1129              		.cfi_offset 14, -4
 291:App/Src/waveform_engine.c ****   memset(&engineStatus, 0, sizeof(engineStatus));
 1130              		.loc 1 291 3 view .LVU306
 1131 0002 094B     		ldr	r3, .L82
 1132 0004 0024     		movs	r4, #0
 1133 0006 1C60     		str	r4, [r3]
 1134 0008 5C60     		str	r4, [r3, #4]
 1135 000a 9C60     		str	r4, [r3, #8]
 292:App/Src/waveform_engine.c ****   memset(&activeConfig, 0, sizeof(activeConfig));
 1136              		.loc 1 292 3 view .LVU307
 1137 000c 2022     		movs	r2, #32
 1138 000e 2146     		mov	r1, r4
 1139 0010 0648     		ldr	r0, .L82+4
 1140 0012 FFF7FEFF 		bl	memset
 1141              	.LVL85:
 293:App/Src/waveform_engine.c ****   totalSamplePoints = 0U;
 1142              		.loc 1 293 3 view .LVU308
 1143              		.loc 1 293 21 is_stmt 0 view .LVU309
 1144 0016 064B     		ldr	r3, .L82+8
 1145 0018 1C60     		str	r4, [r3]
 294:App/Src/waveform_engine.c ****   currentSamplePoint = 0U;
 1146              		.loc 1 294 3 is_stmt 1 view .LVU310
 1147              		.loc 1 294 22 is_stmt 0 view .LVU311
 1148 001a 064B     		ldr	r3, .L82+12
 1149 001c 1C60     		str	r4, [r3]
 295:App/Src/waveform_engine.c ****   txBusy = 0U;
 1150              		.loc 1 295 3 is_stmt 1 view .LVU312
 1151              		.loc 1 295 10 is_stmt 0 view .LVU313
ARM GAS  C:\Users\hh\AppData\Local\Temp\ccVmJpKZ.s 			page 41


 1152 001e 064B     		ldr	r3, .L82+16
 1153 0020 1C70     		strb	r4, [r3]
 296:App/Src/waveform_engine.c ****   engineMode = WAVEFORM_ENGINE_MODE_STOPPED;
 1154              		.loc 1 296 3 is_stmt 1 view .LVU314
 1155              		.loc 1 296 14 is_stmt 0 view .LVU315
 1156 0022 064B     		ldr	r3, .L82+20
 1157 0024 1C70     		strb	r4, [r3]
 297:App/Src/waveform_engine.c **** }
 1158              		.loc 1 297 1 view .LVU316
 1159 0026 10BD     		pop	{r4, pc}
 1160              	.L83:
 1161              		.align	2
 1162              	.L82:
 1163 0028 00000000 		.word	engineStatus
 1164 002c 00000000 		.word	activeConfig
 1165 0030 00000000 		.word	totalSamplePoints
 1166 0034 00000000 		.word	currentSamplePoint
 1167 0038 00000000 		.word	txBusy
 1168 003c 00000000 		.word	engineMode
 1169              		.cfi_endproc
 1170              	.LFE162:
 1172              		.section	.text.WaveformEngine_GenerateSineTable,"ax",%progbits
 1173              		.align	1
 1174              		.global	WaveformEngine_GenerateSineTable
 1175              		.syntax unified
 1176              		.thumb
 1177              		.thumb_func
 1179              	WaveformEngine_GenerateSineTable:
 1180              	.LVL86:
 1181              	.LFB163:
 298:App/Src/waveform_engine.c **** 
 299:App/Src/waveform_engine.c **** HAL_StatusTypeDef WaveformEngine_GenerateSineTable(uint16_t *table,
 300:App/Src/waveform_engine.c ****                                                    uint32_t points,
 301:App/Src/waveform_engine.c ****                                                    uint16_t amplitude,
 302:App/Src/waveform_engine.c ****                                                    uint16_t offset)
 303:App/Src/waveform_engine.c **** {
 1182              		.loc 1 303 1 is_stmt 1 view -0
 1183              		.cfi_startproc
 1184              		@ args = 0, pretend = 0, frame = 0
 1185              		@ frame_needed = 0, uses_anonymous_args = 0
 304:App/Src/waveform_engine.c ****   if ((table == NULL) ||
 1186              		.loc 1 304 3 view .LVU318
 1187              		.loc 1 304 6 is_stmt 0 view .LVU319
 1188 0000 0029     		cmp	r1, #0
 1189 0002 18BF     		it	ne
 1190 0004 0028     		cmpne	r0, #0
 1191 0006 48D0     		beq	.L89
 303:App/Src/waveform_engine.c ****   if ((table == NULL) ||
 1192              		.loc 1 303 1 view .LVU320
 1193 0008 70B5     		push	{r4, r5, r6, lr}
 1194              	.LCFI8:
 1195              		.cfi_def_cfa_offset 16
 1196              		.cfi_offset 4, -16
 1197              		.cfi_offset 5, -12
 1198              		.cfi_offset 6, -8
 1199              		.cfi_offset 14, -4
 1200 000a 2DED068B 		vpush.64	{d8, d9, d10}
ARM GAS  C:\Users\hh\AppData\Local\Temp\ccVmJpKZ.s 			page 42


 1201              	.LCFI9:
 1202              		.cfi_def_cfa_offset 40
 1203              		.cfi_offset 80, -40
 1204              		.cfi_offset 81, -36
 1205              		.cfi_offset 82, -32
 1206              		.cfi_offset 83, -28
 1207              		.cfi_offset 84, -24
 1208              		.cfi_offset 85, -20
 1209 000e 0AEE102A 		vmov	s20, r2	@ int
 1210 0012 0AEE903A 		vmov	s21, r3	@ int
 1211 0016 0646     		mov	r6, r0
 1212 0018 0D46     		mov	r5, r1
 305:App/Src/waveform_engine.c ****       (points == 0U) ||
 1213              		.loc 1 305 22 view .LVU321
 1214 001a B1F5806F 		cmp	r1, #1024
 1215 001e 3ED8     		bhi	.L90
 1216              	.LBB31:
 306:App/Src/waveform_engine.c ****       (points > WAVEFORM_ENGINE_SINE_TABLE_SIZE))
 307:App/Src/waveform_engine.c ****   {
 308:App/Src/waveform_engine.c ****     return HAL_ERROR;
 309:App/Src/waveform_engine.c ****   }
 310:App/Src/waveform_engine.c **** 
 311:App/Src/waveform_engine.c ****   for (uint32_t i = 0U; i < points; i++)
 1217              		.loc 1 311 17 view .LVU322
 1218 0020 0024     		movs	r4, #0
 1219 0022 0BE0     		b	.L86
 1220              	.LVL87:
 1221              	.L91:
 1222              	.LBB32:
 312:App/Src/waveform_engine.c ****   {
 313:App/Src/waveform_engine.c ****     double rad = 2.0 * 3.141592653589793 * (double)i / (double)points;
 314:App/Src/waveform_engine.c ****     double mv = (double)offset + (double)amplitude * sin(rad);
 315:App/Src/waveform_engine.c **** 
 316:App/Src/waveform_engine.c ****     if (mv < (double)VOLTAGE_SIM_MIN_MV)
 317:App/Src/waveform_engine.c ****     {
 318:App/Src/waveform_engine.c ****       mv = (double)VOLTAGE_SIM_MIN_MV;
 1223              		.loc 1 318 10 view .LVU323
 1224 0024 9FED207B 		vldr.64	d7, .L98
 1225              	.LVL88:
 1226              	.L87:
 319:App/Src/waveform_engine.c ****     }
 320:App/Src/waveform_engine.c ****     if (mv > (double)VOLTAGE_SIM_MAX_MV)
 321:App/Src/waveform_engine.c ****     {
 322:App/Src/waveform_engine.c ****       mv = (double)VOLTAGE_SIM_MAX_MV;
 323:App/Src/waveform_engine.c ****     }
 324:App/Src/waveform_engine.c **** 
 325:App/Src/waveform_engine.c ****     table[i] = VoltageSim_MillivoltsToDacCode((uint16_t)mv);
 1227              		.loc 1 325 5 is_stmt 1 view .LVU324
 1228              		.loc 1 325 47 is_stmt 0 view .LVU325
 1229 0028 BCEEC77B 		vcvt.u32.f64	s14, d7
 1230              	.LVL89:
 1231              		.loc 1 325 16 view .LVU326
 1232 002c 17EE103A 		vmov	r3, s14	@ int
 1233 0030 98B2     		uxth	r0, r3
 1234 0032 FFF7FEFF 		bl	VoltageSim_MillivoltsToDacCode
 1235              	.LVL90:
 1236              		.loc 1 325 14 discriminator 1 view .LVU327
ARM GAS  C:\Users\hh\AppData\Local\Temp\ccVmJpKZ.s 			page 43


 1237 0036 26F81400 		strh	r0, [r6, r4, lsl #1]	@ movhi
 1238              	.LBE32:
 311:App/Src/waveform_engine.c ****   {
 1239              		.loc 1 311 38 is_stmt 1 discriminator 2 view .LVU328
 1240 003a 0134     		adds	r4, r4, #1
 1241              	.LVL91:
 1242              	.L86:
 311:App/Src/waveform_engine.c ****   {
 1243              		.loc 1 311 27 discriminator 1 view .LVU329
 1244 003c AC42     		cmp	r4, r5
 1245 003e 28D2     		bcs	.L97
 1246              	.LBB33:
 313:App/Src/waveform_engine.c ****     double mv = (double)offset + (double)amplitude * sin(rad);
 1247              		.loc 1 313 5 view .LVU330
 313:App/Src/waveform_engine.c ****     double mv = (double)offset + (double)amplitude * sin(rad);
 1248              		.loc 1 313 44 is_stmt 0 view .LVU331
 1249 0040 07EE904A 		vmov	s15, r4	@ int
 1250 0044 B8EE677B 		vcvt.f64.u32	d7, s15
 313:App/Src/waveform_engine.c ****     double mv = (double)offset + (double)amplitude * sin(rad);
 1251              		.loc 1 313 42 view .LVU332
 1252 0048 9FED196B 		vldr.64	d6, .L98+8
 1253 004c 27EE067B 		vmul.f64	d7, d7, d6
 313:App/Src/waveform_engine.c ****     double mv = (double)offset + (double)amplitude * sin(rad);
 1254              		.loc 1 313 56 view .LVU333
 1255 0050 06EE905A 		vmov	s13, r5	@ int
 1256 0054 B8EE660B 		vcvt.f64.u32	d0, s13
 1257              	.LVL92:
 314:App/Src/waveform_engine.c **** 
 1258              		.loc 1 314 5 is_stmt 1 view .LVU334
 314:App/Src/waveform_engine.c **** 
 1259              		.loc 1 314 17 is_stmt 0 view .LVU335
 1260 0058 B8EE6A8B 		vcvt.f64.u32	d8, s21
 314:App/Src/waveform_engine.c **** 
 1261              		.loc 1 314 34 view .LVU336
 1262 005c B8EE4A9B 		vcvt.f64.u32	d9, s20
 314:App/Src/waveform_engine.c **** 
 1263              		.loc 1 314 54 view .LVU337
 1264 0060 87EE000B 		vdiv.f64	d0, d7, d0
 1265 0064 FFF7FEFF 		bl	sin
 1266              	.LVL93:
 314:App/Src/waveform_engine.c **** 
 1267              		.loc 1 314 12 discriminator 1 view .LVU338
 1268 0068 B0EE487B 		vmov.f64	d7, d8
 1269 006c 09EE007B 		vmla.f64	d7, d9, d0
 1270              	.LVL94:
 316:App/Src/waveform_engine.c ****     {
 1271              		.loc 1 316 5 is_stmt 1 view .LVU339
 316:App/Src/waveform_engine.c ****     {
 1272              		.loc 1 316 8 is_stmt 0 view .LVU340
 1273 0070 9FED0D6B 		vldr.64	d6, .L98
 1274 0074 B4EEC67B 		vcmpe.f64	d7, d6
 1275 0078 F1EE10FA 		vmrs	APSR_nzcv, FPSCR
 1276 007c D2D4     		bmi	.L91
 320:App/Src/waveform_engine.c ****     {
 1277              		.loc 1 320 5 is_stmt 1 view .LVU341
 320:App/Src/waveform_engine.c ****     {
 1278              		.loc 1 320 8 is_stmt 0 view .LVU342
ARM GAS  C:\Users\hh\AppData\Local\Temp\ccVmJpKZ.s 			page 44


 1279 007e 9FED0E6B 		vldr.64	d6, .L98+16
 1280 0082 B4EEC67B 		vcmpe.f64	d7, d6
 1281 0086 F1EE10FA 		vmrs	APSR_nzcv, FPSCR
 1282 008a CDDD     		ble	.L87
 322:App/Src/waveform_engine.c ****     }
 1283              		.loc 1 322 10 view .LVU343
 1284 008c 9FED0A7B 		vldr.64	d7, .L98+16
 1285              	.LVL95:
 322:App/Src/waveform_engine.c ****     }
 1286              		.loc 1 322 10 view .LVU344
 1287 0090 CAE7     		b	.L87
 1288              	.LVL96:
 1289              	.L97:
 322:App/Src/waveform_engine.c ****     }
 1290              		.loc 1 322 10 view .LVU345
 1291              	.LBE33:
 1292              	.LBE31:
 326:App/Src/waveform_engine.c ****   }
 327:App/Src/waveform_engine.c **** 
 328:App/Src/waveform_engine.c ****   return HAL_OK;
 1293              		.loc 1 328 10 view .LVU346
 1294 0092 0020     		movs	r0, #0
 1295              	.LVL97:
 1296              	.L85:
 329:App/Src/waveform_engine.c **** }
 1297              		.loc 1 329 1 view .LVU347
 1298 0094 BDEC068B 		vldm	sp!, {d8-d10}
 1299              	.LCFI10:
 1300              		.cfi_restore 84
 1301              		.cfi_restore 85
 1302              		.cfi_restore 82
 1303              		.cfi_restore 83
 1304              		.cfi_restore 80
 1305              		.cfi_restore 81
 1306              		.cfi_def_cfa_offset 16
 1307              	.LVL98:
 1308              		.loc 1 329 1 view .LVU348
 1309 0098 70BD     		pop	{r4, r5, r6, pc}
 1310              	.LVL99:
 1311              	.L89:
 1312              	.LCFI11:
 1313              		.cfi_def_cfa_offset 0
 1314              		.cfi_restore 4
 1315              		.cfi_restore 5
 1316              		.cfi_restore 6
 1317              		.cfi_restore 14
 308:App/Src/waveform_engine.c ****   }
 1318              		.loc 1 308 12 view .LVU349
 1319 009a 0120     		movs	r0, #1
 1320              	.LVL100:
 1321              		.loc 1 329 1 view .LVU350
 1322 009c 7047     		bx	lr
 1323              	.LVL101:
 1324              	.L90:
 1325              	.LCFI12:
 1326              		.cfi_def_cfa_offset 40
 1327              		.cfi_offset 4, -16
ARM GAS  C:\Users\hh\AppData\Local\Temp\ccVmJpKZ.s 			page 45


 1328              		.cfi_offset 5, -12
 1329              		.cfi_offset 6, -8
 1330              		.cfi_offset 14, -4
 1331              		.cfi_offset 80, -40
 1332              		.cfi_offset 81, -36
 1333              		.cfi_offset 82, -32
 1334              		.cfi_offset 83, -28
 1335              		.cfi_offset 84, -24
 1336              		.cfi_offset 85, -20
 308:App/Src/waveform_engine.c ****   }
 1337              		.loc 1 308 12 view .LVU351
 1338 009e 0120     		movs	r0, #1
 1339              	.LVL102:
 308:App/Src/waveform_engine.c ****   }
 1340              		.loc 1 308 12 view .LVU352
 1341 00a0 F8E7     		b	.L85
 1342              	.L99:
 1343 00a2 00BFAFF3 		.align	3
 1343      0080
 1344              	.L98:
 1345 00a8 00000000 		.word	0
 1346 00ac 00407F40 		.word	1082081280
 1347 00b0 182D4454 		.word	1413754136
 1348 00b4 FB211940 		.word	1075388923
 1349 00b8 00000000 		.word	0
 1350 00bc 0088B340 		.word	1085507584
 1351              		.cfi_endproc
 1352              	.LFE163:
 1354              		.section	.rodata.WaveformEngine_Stop.str1.4,"aMS",%progbits,1
 1355              		.align	2
 1356              	.LC0:
 1357 0000 5B776176 		.ascii	"[wave-high] stopped samples=%lu errors=%lu\015\012\000"
 1357      652D6869 
 1357      67685D20 
 1357      73746F70 
 1357      70656420 
 1358              		.section	.text.WaveformEngine_Stop,"ax",%progbits
 1359              		.align	1
 1360              		.global	WaveformEngine_Stop
 1361              		.syntax unified
 1362              		.thumb
 1363              		.thumb_func
 1365              	WaveformEngine_Stop:
 1366              	.LFB165:
 330:App/Src/waveform_engine.c **** 
 331:App/Src/waveform_engine.c **** HAL_StatusTypeDef WaveformEngine_StartSine(WaveformEngine_Config *config)
 332:App/Src/waveform_engine.c **** {
 333:App/Src/waveform_engine.c ****   uint16_t sineCodes[WAVEFORM_ENGINE_SINE_TABLE_SIZE];
 334:App/Src/waveform_engine.c **** 
 335:App/Src/waveform_engine.c ****   if (config == NULL)
 336:App/Src/waveform_engine.c ****   {
 337:App/Src/waveform_engine.c ****     return HAL_ERROR;
 338:App/Src/waveform_engine.c ****   }
 339:App/Src/waveform_engine.c **** 
 340:App/Src/waveform_engine.c ****   if (config->cycleCount == 0U)
 341:App/Src/waveform_engine.c ****   {
 342:App/Src/waveform_engine.c ****     config->cycleCount = 1U;
ARM GAS  C:\Users\hh\AppData\Local\Temp\ccVmJpKZ.s 			page 46


 343:App/Src/waveform_engine.c ****   }
 344:App/Src/waveform_engine.c **** 
 345:App/Src/waveform_engine.c ****   if (WaveformEngine_IsValidConfig(config) == 0U)
 346:App/Src/waveform_engine.c ****   {
 347:App/Src/waveform_engine.c ****     return HAL_ERROR;
 348:App/Src/waveform_engine.c ****   }
 349:App/Src/waveform_engine.c **** 
 350:App/Src/waveform_engine.c ****   if (engineStatus.running != 0U)
 351:App/Src/waveform_engine.c ****   {
 352:App/Src/waveform_engine.c ****     WaveformEngine_Stop();
 353:App/Src/waveform_engine.c ****   }
 354:App/Src/waveform_engine.c **** 
 355:App/Src/waveform_engine.c ****   WaveformGen_Stop();
 356:App/Src/waveform_engine.c **** 
 357:App/Src/waveform_engine.c ****   if (WaveformEngine_GenerateSineTable(sineCodes,
 358:App/Src/waveform_engine.c ****                                        config->pointCount,
 359:App/Src/waveform_engine.c ****                                        config->amplitudeMv,
 360:App/Src/waveform_engine.c ****                                        config->offsetMv) != HAL_OK)
 361:App/Src/waveform_engine.c ****   {
 362:App/Src/waveform_engine.c ****     return HAL_ERROR;
 363:App/Src/waveform_engine.c ****   }
 364:App/Src/waveform_engine.c **** 
 365:App/Src/waveform_engine.c ****   for (uint32_t point = 0U; point < config->pointCount; point++)
 366:App/Src/waveform_engine.c ****   {
 367:App/Src/waveform_engine.c ****     for (uint8_t ch = 0U; ch < config->channels; ch++)
 368:App/Src/waveform_engine.c ****     {
 369:App/Src/waveform_engine.c ****       uint32_t frameIndex = (point * config->channels) + ch;
 370:App/Src/waveform_engine.c ****       frameTable[frameIndex] = WaveformEngine_BuildDacFrame(config->channelList[ch],
 371:App/Src/waveform_engine.c ****                                                             sineCodes[point]);
 372:App/Src/waveform_engine.c ****     }
 373:App/Src/waveform_engine.c ****   }
 374:App/Src/waveform_engine.c **** 
 375:App/Src/waveform_engine.c ****   if (WaveformEngine_SetSampleRate(config->sampleRate) != HAL_OK)
 376:App/Src/waveform_engine.c ****   {
 377:App/Src/waveform_engine.c ****     return HAL_ERROR;
 378:App/Src/waveform_engine.c ****   }
 379:App/Src/waveform_engine.c **** 
 380:App/Src/waveform_engine.c ****   memcpy(&activeConfig, config, sizeof(activeConfig));
 381:App/Src/waveform_engine.c ****   activeConfig.active = 1U;
 382:App/Src/waveform_engine.c ****   totalSamplePoints = activeConfig.pointCount;
 383:App/Src/waveform_engine.c ****   currentSamplePoint = 0U;
 384:App/Src/waveform_engine.c ****   txBusy = 0U;
 385:App/Src/waveform_engine.c **** 
 386:App/Src/waveform_engine.c ****   engineStatus.running = 1U;
 387:App/Src/waveform_engine.c ****   engineStatus.bufferIndex = 0U;
 388:App/Src/waveform_engine.c ****   engineStatus.sampleCount = 0U;
 389:App/Src/waveform_engine.c ****   engineStatus.errorCount = 0U;
 390:App/Src/waveform_engine.c **** 
 391:App/Src/waveform_engine.c ****   if (((activeConfig.channels == 1U) ? WaveformEngine_StartTimDmaTurbo() : WaveformEngine_StartIrqD
 392:App/Src/waveform_engine.c ****   {
 393:App/Src/waveform_engine.c ****     WaveformEngine_StopHardware();
 394:App/Src/waveform_engine.c ****     activeConfig.active = 0U;
 395:App/Src/waveform_engine.c ****     engineStatus.running = 0U;
 396:App/Src/waveform_engine.c ****     return HAL_ERROR;
 397:App/Src/waveform_engine.c ****   }
 398:App/Src/waveform_engine.c **** 
 399:App/Src/waveform_engine.c ****   printf("[wave-high] started sample=%luHz points=%lu ch=%u mode=%s\r\n",
ARM GAS  C:\Users\hh\AppData\Local\Temp\ccVmJpKZ.s 			page 47


 400:App/Src/waveform_engine.c ****          (unsigned long)activeConfig.sampleRate,
 401:App/Src/waveform_engine.c ****          (unsigned long)activeConfig.pointCount,
 402:App/Src/waveform_engine.c ****          activeConfig.channels,
 403:App/Src/waveform_engine.c ****          (engineMode == WAVEFORM_ENGINE_MODE_TIM_DMA_TURBO) ? "tim-dma" : "irq-dma");
 404:App/Src/waveform_engine.c **** 
 405:App/Src/waveform_engine.c ****   return HAL_OK;
 406:App/Src/waveform_engine.c **** }
 407:App/Src/waveform_engine.c **** 
 408:App/Src/waveform_engine.c **** void WaveformEngine_Stop(void)
 409:App/Src/waveform_engine.c **** {
 1367              		.loc 1 409 1 is_stmt 1 view -0
 1368              		.cfi_startproc
 1369              		@ args = 0, pretend = 0, frame = 0
 1370              		@ frame_needed = 0, uses_anonymous_args = 0
 1371 0000 08B5     		push	{r3, lr}
 1372              	.LCFI13:
 1373              		.cfi_def_cfa_offset 8
 1374              		.cfi_offset 3, -8
 1375              		.cfi_offset 14, -4
 410:App/Src/waveform_engine.c ****   if (engineStatus.running == 0U)
 1376              		.loc 1 410 3 view .LVU354
 1377              		.loc 1 410 19 is_stmt 0 view .LVU355
 1378 0002 084B     		ldr	r3, .L104
 1379 0004 1B78     		ldrb	r3, [r3]	@ zero_extendqisi2
 1380              		.loc 1 410 6 view .LVU356
 1381 0006 03B9     		cbnz	r3, .L103
 1382              	.L100:
 411:App/Src/waveform_engine.c ****   {
 412:App/Src/waveform_engine.c ****     return;
 413:App/Src/waveform_engine.c ****   }
 414:App/Src/waveform_engine.c **** 
 415:App/Src/waveform_engine.c ****   WaveformEngine_StopHardware();
 416:App/Src/waveform_engine.c ****   activeConfig.active = 0U;
 417:App/Src/waveform_engine.c ****   engineStatus.running = 0U;
 418:App/Src/waveform_engine.c **** 
 419:App/Src/waveform_engine.c ****   printf("[wave-high] stopped samples=%lu errors=%lu\r\n",
 420:App/Src/waveform_engine.c ****          (unsigned long)engineStatus.sampleCount,
 421:App/Src/waveform_engine.c ****          (unsigned long)engineStatus.errorCount);
 422:App/Src/waveform_engine.c **** }
 1383              		.loc 1 422 1 view .LVU357
 1384 0008 08BD     		pop	{r3, pc}
 1385              	.L103:
 415:App/Src/waveform_engine.c ****   activeConfig.active = 0U;
 1386              		.loc 1 415 3 is_stmt 1 view .LVU358
 1387 000a FFF7FEFF 		bl	WaveformEngine_StopHardware
 1388              	.LVL103:
 416:App/Src/waveform_engine.c ****   engineStatus.running = 0U;
 1389              		.loc 1 416 3 view .LVU359
 416:App/Src/waveform_engine.c ****   engineStatus.running = 0U;
 1390              		.loc 1 416 23 is_stmt 0 view .LVU360
 1391 000e 0022     		movs	r2, #0
 1392 0010 054B     		ldr	r3, .L104+4
 1393 0012 1A70     		strb	r2, [r3]
 417:App/Src/waveform_engine.c **** 
 1394              		.loc 1 417 3 is_stmt 1 view .LVU361
 417:App/Src/waveform_engine.c **** 
 1395              		.loc 1 417 24 is_stmt 0 view .LVU362
ARM GAS  C:\Users\hh\AppData\Local\Temp\ccVmJpKZ.s 			page 48


 1396 0014 034B     		ldr	r3, .L104
 1397 0016 1A70     		strb	r2, [r3]
 419:App/Src/waveform_engine.c ****          (unsigned long)engineStatus.sampleCount,
 1398              		.loc 1 419 3 is_stmt 1 view .LVU363
 1399 0018 9A68     		ldr	r2, [r3, #8]
 1400 001a 5968     		ldr	r1, [r3, #4]
 1401 001c 0348     		ldr	r0, .L104+8
 1402 001e FFF7FEFF 		bl	printf
 1403              	.LVL104:
 1404 0022 F1E7     		b	.L100
 1405              	.L105:
 1406              		.align	2
 1407              	.L104:
 1408 0024 00000000 		.word	engineStatus
 1409 0028 00000000 		.word	activeConfig
 1410 002c 00000000 		.word	.LC0
 1411              		.cfi_endproc
 1412              	.LFE165:
 1414              		.section	.rodata.WaveformEngine_StartSine.str1.4,"aMS",%progbits,1
 1415              		.align	2
 1416              	.LC1:
 1417 0000 74696D2D 		.ascii	"tim-dma\000"
 1417      646D6100 
 1418              		.align	2
 1419              	.LC2:
 1420 0008 6972712D 		.ascii	"irq-dma\000"
 1420      646D6100 
 1421              		.align	2
 1422              	.LC3:
 1423 0010 5B776176 		.ascii	"[wave-high] started sample=%luHz points=%lu ch=%u m"
 1423      652D6869 
 1423      67685D20 
 1423      73746172 
 1423      74656420 
 1424 0043 6F64653D 		.ascii	"ode=%s\015\012\000"
 1424      25730D0A 
 1424      00
 1425              		.section	.text.WaveformEngine_StartSine,"ax",%progbits
 1426              		.align	1
 1427              		.global	WaveformEngine_StartSine
 1428              		.syntax unified
 1429              		.thumb
 1430              		.thumb_func
 1432              	WaveformEngine_StartSine:
 1433              	.LVL105:
 1434              	.LFB164:
 332:App/Src/waveform_engine.c ****   uint16_t sineCodes[WAVEFORM_ENGINE_SINE_TABLE_SIZE];
 1435              		.loc 1 332 1 view -0
 1436              		.cfi_startproc
 1437              		@ args = 0, pretend = 0, frame = 2048
 1438              		@ frame_needed = 0, uses_anonymous_args = 0
 332:App/Src/waveform_engine.c ****   uint16_t sineCodes[WAVEFORM_ENGINE_SINE_TABLE_SIZE];
 1439              		.loc 1 332 1 is_stmt 0 view .LVU365
 1440 0000 2DE9F041 		push	{r4, r5, r6, r7, r8, lr}
 1441              	.LCFI14:
 1442              		.cfi_def_cfa_offset 24
 1443              		.cfi_offset 4, -24
ARM GAS  C:\Users\hh\AppData\Local\Temp\ccVmJpKZ.s 			page 49


 1444              		.cfi_offset 5, -20
 1445              		.cfi_offset 6, -16
 1446              		.cfi_offset 7, -12
 1447              		.cfi_offset 8, -8
 1448              		.cfi_offset 14, -4
 1449 0004 ADF6080D 		subw	sp, sp, #2056
 1450              	.LCFI15:
 1451              		.cfi_def_cfa_offset 2080
 333:App/Src/waveform_engine.c **** 
 1452              		.loc 1 333 3 is_stmt 1 view .LVU366
 335:App/Src/waveform_engine.c ****   {
 1453              		.loc 1 335 3 view .LVU367
 335:App/Src/waveform_engine.c ****   {
 1454              		.loc 1 335 6 is_stmt 0 view .LVU368
 1455 0008 0028     		cmp	r0, #0
 1456 000a 7ED0     		beq	.L117
 1457 000c 0646     		mov	r6, r0
 340:App/Src/waveform_engine.c ****   {
 1458              		.loc 1 340 3 is_stmt 1 view .LVU369
 340:App/Src/waveform_engine.c ****   {
 1459              		.loc 1 340 13 is_stmt 0 view .LVU370
 1460 000e 8369     		ldr	r3, [r0, #24]
 340:App/Src/waveform_engine.c ****   {
 1461              		.loc 1 340 6 view .LVU371
 1462 0010 0BB9     		cbnz	r3, .L108
 342:App/Src/waveform_engine.c ****   }
 1463              		.loc 1 342 5 is_stmt 1 view .LVU372
 342:App/Src/waveform_engine.c ****   }
 1464              		.loc 1 342 24 is_stmt 0 view .LVU373
 1465 0012 0123     		movs	r3, #1
 1466 0014 8361     		str	r3, [r0, #24]
 1467              	.L108:
 345:App/Src/waveform_engine.c ****   {
 1468              		.loc 1 345 3 is_stmt 1 view .LVU374
 345:App/Src/waveform_engine.c ****   {
 1469              		.loc 1 345 7 is_stmt 0 view .LVU375
 1470 0016 3046     		mov	r0, r6
 1471              	.LVL106:
 345:App/Src/waveform_engine.c ****   {
 1472              		.loc 1 345 7 view .LVU376
 1473 0018 FFF7FEFF 		bl	WaveformEngine_IsValidConfig
 1474              	.LVL107:
 345:App/Src/waveform_engine.c ****   {
 1475              		.loc 1 345 6 discriminator 1 view .LVU377
 1476 001c 0028     		cmp	r0, #0
 1477 001e 76D0     		beq	.L118
 350:App/Src/waveform_engine.c ****   {
 1478              		.loc 1 350 3 is_stmt 1 view .LVU378
 350:App/Src/waveform_engine.c ****   {
 1479              		.loc 1 350 19 is_stmt 0 view .LVU379
 1480 0020 3F4B     		ldr	r3, .L130
 1481 0022 1B78     		ldrb	r3, [r3]	@ zero_extendqisi2
 350:App/Src/waveform_engine.c ****   {
 1482              		.loc 1 350 6 view .LVU380
 1483 0024 63B9     		cbnz	r3, .L124
 1484              	.L109:
 355:App/Src/waveform_engine.c **** 
ARM GAS  C:\Users\hh\AppData\Local\Temp\ccVmJpKZ.s 			page 50


 1485              		.loc 1 355 3 is_stmt 1 view .LVU381
 1486 0026 FFF7FEFF 		bl	WaveformGen_Stop
 1487              	.LVL108:
 357:App/Src/waveform_engine.c ****                                        config->pointCount,
 1488              		.loc 1 357 3 view .LVU382
 357:App/Src/waveform_engine.c ****                                        config->pointCount,
 1489              		.loc 1 357 7 is_stmt 0 view .LVU383
 1490 002a F38B     		ldrh	r3, [r6, #30]
 1491 002c B28B     		ldrh	r2, [r6, #28]
 1492 002e 7169     		ldr	r1, [r6, #20]
 1493 0030 02A8     		add	r0, sp, #8
 1494 0032 FFF7FEFF 		bl	WaveformEngine_GenerateSineTable
 1495              	.LVL109:
 357:App/Src/waveform_engine.c ****                                        config->pointCount,
 1496              		.loc 1 357 6 discriminator 1 view .LVU384
 1497 0036 8046     		mov	r8, r0
 1498 0038 0028     		cmp	r0, #0
 1499 003a 6ED1     		bne	.L119
 1500              	.LBB34:
 365:App/Src/waveform_engine.c ****   {
 1501              		.loc 1 365 17 view .LVU385
 1502 003c 0746     		mov	r7, r0
 1503 003e 15E0     		b	.L110
 1504              	.L124:
 365:App/Src/waveform_engine.c ****   {
 1505              		.loc 1 365 17 view .LVU386
 1506              	.LBE34:
 352:App/Src/waveform_engine.c ****   }
 1507              		.loc 1 352 5 is_stmt 1 view .LVU387
 1508 0040 FFF7FEFF 		bl	WaveformEngine_Stop
 1509              	.LVL110:
 1510 0044 EFE7     		b	.L109
 1511              	.LVL111:
 1512              	.L111:
 1513              	.LBB38:
 1514              	.LBB35:
 1515              	.LBB36:
 369:App/Src/waveform_engine.c ****       frameTable[frameIndex] = WaveformEngine_BuildDacFrame(config->channelList[ch],
 1516              		.loc 1 369 7 view .LVU388
 369:App/Src/waveform_engine.c ****       frameTable[frameIndex] = WaveformEngine_BuildDacFrame(config->channelList[ch],
 1517              		.loc 1 369 16 is_stmt 0 view .LVU389
 1518 0046 07FB0354 		mla	r4, r7, r3, r5
 1519              	.LVL112:
 370:App/Src/waveform_engine.c ****                                                             sineCodes[point]);
 1520              		.loc 1 370 7 is_stmt 1 view .LVU390
 370:App/Src/waveform_engine.c ****                                                             sineCodes[point]);
 1521              		.loc 1 370 17 is_stmt 0 view .LVU391
 1522 004a A400     		lsls	r4, r4, #2
 1523              	.LVL113:
 370:App/Src/waveform_engine.c ****                                                             sineCodes[point]);
 1524              		.loc 1 370 17 view .LVU392
 1525 004c 04F1C044 		add	r4, r4, #1610612736
 370:App/Src/waveform_engine.c ****                                                             sineCodes[point]);
 1526              		.loc 1 370 32 view .LVU393
 1527 0050 7319     		adds	r3, r6, r5
 1528              	.LVL114:
 370:App/Src/waveform_engine.c ****                                                             sineCodes[point]);
ARM GAS  C:\Users\hh\AppData\Local\Temp\ccVmJpKZ.s 			page 51


 1529              		.loc 1 370 32 view .LVU394
 1530 0052 02AA     		add	r2, sp, #8
 1531 0054 32F81710 		ldrh	r1, [r2, r7, lsl #1]
 1532 0058 9878     		ldrb	r0, [r3, #2]	@ zero_extendqisi2
 1533 005a FFF7FEFF 		bl	WaveformEngine_BuildDacFrame
 1534              	.LVL115:
 370:App/Src/waveform_engine.c ****                                                             sineCodes[point]);
 1535              		.loc 1 370 30 discriminator 1 view .LVU395
 1536 005e 2060     		str	r0, [r4]
 1537              	.LBE36:
 367:App/Src/waveform_engine.c ****     {
 1538              		.loc 1 367 52 is_stmt 1 discriminator 3 view .LVU396
 1539 0060 0135     		adds	r5, r5, #1
 1540              	.LVL116:
 367:App/Src/waveform_engine.c ****     {
 1541              		.loc 1 367 52 is_stmt 0 discriminator 3 view .LVU397
 1542 0062 EDB2     		uxtb	r5, r5
 1543              	.LVL117:
 1544              	.L112:
 367:App/Src/waveform_engine.c ****     {
 1545              		.loc 1 367 30 is_stmt 1 discriminator 1 view .LVU398
 367:App/Src/waveform_engine.c ****     {
 1546              		.loc 1 367 38 is_stmt 0 discriminator 1 view .LVU399
 1547 0064 7378     		ldrb	r3, [r6, #1]	@ zero_extendqisi2
 367:App/Src/waveform_engine.c ****     {
 1548              		.loc 1 367 30 discriminator 1 view .LVU400
 1549 0066 AB42     		cmp	r3, r5
 1550 0068 EDD8     		bhi	.L111
 1551              	.LBE35:
 365:App/Src/waveform_engine.c ****   {
 1552              		.loc 1 365 62 is_stmt 1 discriminator 2 view .LVU401
 1553 006a 0137     		adds	r7, r7, #1
 1554              	.LVL118:
 1555              	.L110:
 365:App/Src/waveform_engine.c ****   {
 1556              		.loc 1 365 35 discriminator 1 view .LVU402
 365:App/Src/waveform_engine.c ****   {
 1557              		.loc 1 365 43 is_stmt 0 discriminator 1 view .LVU403
 1558 006c 7369     		ldr	r3, [r6, #20]
 365:App/Src/waveform_engine.c ****   {
 1559              		.loc 1 365 35 discriminator 1 view .LVU404
 1560 006e BB42     		cmp	r3, r7
 1561 0070 01D9     		bls	.L125
 1562              	.LBB37:
 367:App/Src/waveform_engine.c ****     {
 1563              		.loc 1 367 18 view .LVU405
 1564 0072 4546     		mov	r5, r8
 1565 0074 F6E7     		b	.L112
 1566              	.L125:
 1567              	.LBE37:
 1568              	.LBE38:
 375:App/Src/waveform_engine.c ****   {
 1569              		.loc 1 375 3 is_stmt 1 view .LVU406
 375:App/Src/waveform_engine.c ****   {
 1570              		.loc 1 375 7 is_stmt 0 view .LVU407
 1571 0076 3069     		ldr	r0, [r6, #16]
 1572 0078 FFF7FEFF 		bl	WaveformEngine_SetSampleRate
ARM GAS  C:\Users\hh\AppData\Local\Temp\ccVmJpKZ.s 			page 52


 1573              	.LVL119:
 375:App/Src/waveform_engine.c ****   {
 1574              		.loc 1 375 6 discriminator 1 view .LVU408
 1575 007c 0446     		mov	r4, r0
 1576 007e 08B1     		cbz	r0, .L126
 377:App/Src/waveform_engine.c ****   }
 1577              		.loc 1 377 12 view .LVU409
 1578 0080 0124     		movs	r4, #1
 1579 0082 45E0     		b	.L107
 1580              	.L126:
 380:App/Src/waveform_engine.c ****   activeConfig.active = 1U;
 1581              		.loc 1 380 3 is_stmt 1 view .LVU410
 1582 0084 274F     		ldr	r7, .L130+4
 1583              	.LVL120:
 380:App/Src/waveform_engine.c ****   activeConfig.active = 1U;
 1584              		.loc 1 380 3 is_stmt 0 view .LVU411
 1585 0086 3D46     		mov	r5, r7
 1586 0088 3068     		ldr	r0, [r6]	@ unaligned
 1587 008a 7168     		ldr	r1, [r6, #4]	@ unaligned
 1588 008c B268     		ldr	r2, [r6, #8]	@ unaligned
 1589 008e F368     		ldr	r3, [r6, #12]	@ unaligned
 1590 0090 0FC5     		stmia	r5!, {r0, r1, r2, r3}
 1591 0092 3069     		ldr	r0, [r6, #16]	@ unaligned
 1592 0094 7169     		ldr	r1, [r6, #20]	@ unaligned
 1593 0096 B269     		ldr	r2, [r6, #24]	@ unaligned
 1594 0098 F369     		ldr	r3, [r6, #28]	@ unaligned
 1595 009a 0FC5     		stmia	r5!, {r0, r1, r2, r3}
 381:App/Src/waveform_engine.c ****   totalSamplePoints = activeConfig.pointCount;
 1596              		.loc 1 381 3 is_stmt 1 view .LVU412
 381:App/Src/waveform_engine.c ****   totalSamplePoints = activeConfig.pointCount;
 1597              		.loc 1 381 23 is_stmt 0 view .LVU413
 1598 009c 0121     		movs	r1, #1
 1599 009e 3970     		strb	r1, [r7]
 382:App/Src/waveform_engine.c ****   currentSamplePoint = 0U;
 1600              		.loc 1 382 3 is_stmt 1 view .LVU414
 382:App/Src/waveform_engine.c ****   currentSamplePoint = 0U;
 1601              		.loc 1 382 35 is_stmt 0 view .LVU415
 1602 00a0 7A69     		ldr	r2, [r7, #20]
 382:App/Src/waveform_engine.c ****   currentSamplePoint = 0U;
 1603              		.loc 1 382 21 view .LVU416
 1604 00a2 214B     		ldr	r3, .L130+8
 1605 00a4 1A60     		str	r2, [r3]
 383:App/Src/waveform_engine.c ****   txBusy = 0U;
 1606              		.loc 1 383 3 is_stmt 1 view .LVU417
 383:App/Src/waveform_engine.c ****   txBusy = 0U;
 1607              		.loc 1 383 22 is_stmt 0 view .LVU418
 1608 00a6 0023     		movs	r3, #0
 1609 00a8 204A     		ldr	r2, .L130+12
 1610 00aa 1360     		str	r3, [r2]
 384:App/Src/waveform_engine.c **** 
 1611              		.loc 1 384 3 is_stmt 1 view .LVU419
 384:App/Src/waveform_engine.c **** 
 1612              		.loc 1 384 10 is_stmt 0 view .LVU420
 1613 00ac 204A     		ldr	r2, .L130+16
 1614 00ae 1370     		strb	r3, [r2]
 386:App/Src/waveform_engine.c ****   engineStatus.bufferIndex = 0U;
 1615              		.loc 1 386 3 is_stmt 1 view .LVU421
ARM GAS  C:\Users\hh\AppData\Local\Temp\ccVmJpKZ.s 			page 53


 386:App/Src/waveform_engine.c ****   engineStatus.bufferIndex = 0U;
 1616              		.loc 1 386 24 is_stmt 0 view .LVU422
 1617 00b0 1B4A     		ldr	r2, .L130
 1618 00b2 1170     		strb	r1, [r2]
 387:App/Src/waveform_engine.c ****   engineStatus.sampleCount = 0U;
 1619              		.loc 1 387 3 is_stmt 1 view .LVU423
 387:App/Src/waveform_engine.c ****   engineStatus.sampleCount = 0U;
 1620              		.loc 1 387 28 is_stmt 0 view .LVU424
 1621 00b4 5370     		strb	r3, [r2, #1]
 388:App/Src/waveform_engine.c ****   engineStatus.errorCount = 0U;
 1622              		.loc 1 388 3 is_stmt 1 view .LVU425
 388:App/Src/waveform_engine.c ****   engineStatus.errorCount = 0U;
 1623              		.loc 1 388 28 is_stmt 0 view .LVU426
 1624 00b6 5360     		str	r3, [r2, #4]
 389:App/Src/waveform_engine.c **** 
 1625              		.loc 1 389 3 is_stmt 1 view .LVU427
 389:App/Src/waveform_engine.c **** 
 1626              		.loc 1 389 27 is_stmt 0 view .LVU428
 1627 00b8 9360     		str	r3, [r2, #8]
 391:App/Src/waveform_engine.c ****   {
 1628              		.loc 1 391 3 is_stmt 1 view .LVU429
 391:App/Src/waveform_engine.c ****   {
 1629              		.loc 1 391 21 is_stmt 0 view .LVU430
 1630 00ba 7B78     		ldrb	r3, [r7, #1]	@ zero_extendqisi2
 391:App/Src/waveform_engine.c ****   {
 1631              		.loc 1 391 106 view .LVU431
 1632 00bc 8B42     		cmp	r3, r1
 1633 00be 13D0     		beq	.L127
 391:App/Src/waveform_engine.c ****   {
 1634              		.loc 1 391 76 discriminator 2 view .LVU432
 1635 00c0 FFF7FEFF 		bl	WaveformEngine_StartIrqDma
 1636              	.LVL121:
 391:App/Src/waveform_engine.c ****   {
 1637              		.loc 1 391 106 discriminator 5 view .LVU433
 1638 00c4 0038     		subs	r0, r0, #0
 1639 00c6 18BF     		it	ne
 1640 00c8 0120     		movne	r0, #1
 1641              	.L114:
 391:App/Src/waveform_engine.c ****   {
 1642              		.loc 1 391 6 discriminator 6 view .LVU434
 1643 00ca 98B9     		cbnz	r0, .L128
 399:App/Src/waveform_engine.c ****          (unsigned long)activeConfig.sampleRate,
 1644              		.loc 1 399 3 is_stmt 1 view .LVU435
 400:App/Src/waveform_engine.c ****          (unsigned long)activeConfig.pointCount,
 1645              		.loc 1 400 37 is_stmt 0 view .LVU436
 1646 00cc 154B     		ldr	r3, .L130+4
 1647 00ce 1969     		ldr	r1, [r3, #16]
 401:App/Src/waveform_engine.c ****          activeConfig.channels,
 1648              		.loc 1 401 37 view .LVU437
 1649 00d0 5A69     		ldr	r2, [r3, #20]
 402:App/Src/waveform_engine.c ****          (engineMode == WAVEFORM_ENGINE_MODE_TIM_DMA_TURBO) ? "tim-dma" : "irq-dma");
 1650              		.loc 1 402 22 view .LVU438
 1651 00d2 5B78     		ldrb	r3, [r3, #1]	@ zero_extendqisi2
 403:App/Src/waveform_engine.c **** 
 1652              		.loc 1 403 22 view .LVU439
 1653 00d4 1748     		ldr	r0, .L130+20
 1654 00d6 0078     		ldrb	r0, [r0]	@ zero_extendqisi2
ARM GAS  C:\Users\hh\AppData\Local\Temp\ccVmJpKZ.s 			page 54


 399:App/Src/waveform_engine.c ****          (unsigned long)activeConfig.sampleRate,
 1655              		.loc 1 399 3 view .LVU440
 1656 00d8 0228     		cmp	r0, #2
 1657 00da 14D0     		beq	.L129
 399:App/Src/waveform_engine.c ****          (unsigned long)activeConfig.sampleRate,
 1658              		.loc 1 399 3 discriminator 2 view .LVU441
 1659 00dc 1648     		ldr	r0, .L130+24
 1660              	.L116:
 399:App/Src/waveform_engine.c ****          (unsigned long)activeConfig.sampleRate,
 1661              		.loc 1 399 3 discriminator 4 view .LVU442
 1662 00de 0090     		str	r0, [sp]
 1663 00e0 1648     		ldr	r0, .L130+28
 1664 00e2 FFF7FEFF 		bl	printf
 1665              	.LVL122:
 405:App/Src/waveform_engine.c **** }
 1666              		.loc 1 405 3 is_stmt 1 view .LVU443
 405:App/Src/waveform_engine.c **** }
 1667              		.loc 1 405 10 is_stmt 0 view .LVU444
 1668 00e6 13E0     		b	.L107
 1669              	.L127:
 391:App/Src/waveform_engine.c ****   {
 1670              		.loc 1 391 40 discriminator 1 view .LVU445
 1671 00e8 FFF7FEFF 		bl	WaveformEngine_StartTimDmaTurbo
 1672              	.LVL123:
 391:App/Src/waveform_engine.c ****   {
 1673              		.loc 1 391 106 discriminator 3 view .LVU446
 1674 00ec 0038     		subs	r0, r0, #0
 1675 00ee 18BF     		it	ne
 1676 00f0 0120     		movne	r0, #1
 1677 00f2 EAE7     		b	.L114
 1678              	.L128:
 393:App/Src/waveform_engine.c ****     activeConfig.active = 0U;
 1679              		.loc 1 393 5 is_stmt 1 view .LVU447
 1680 00f4 FFF7FEFF 		bl	WaveformEngine_StopHardware
 1681              	.LVL124:
 394:App/Src/waveform_engine.c ****     engineStatus.running = 0U;
 1682              		.loc 1 394 5 view .LVU448
 394:App/Src/waveform_engine.c ****     engineStatus.running = 0U;
 1683              		.loc 1 394 25 is_stmt 0 view .LVU449
 1684 00f8 0023     		movs	r3, #0
 1685 00fa 0A4A     		ldr	r2, .L130+4
 1686 00fc 1370     		strb	r3, [r2]
 395:App/Src/waveform_engine.c ****     return HAL_ERROR;
 1687              		.loc 1 395 5 is_stmt 1 view .LVU450
 395:App/Src/waveform_engine.c ****     return HAL_ERROR;
 1688              		.loc 1 395 26 is_stmt 0 view .LVU451
 1689 00fe 084A     		ldr	r2, .L130
 1690 0100 1370     		strb	r3, [r2]
 396:App/Src/waveform_engine.c ****   }
 1691              		.loc 1 396 5 is_stmt 1 view .LVU452
 396:App/Src/waveform_engine.c ****   }
 1692              		.loc 1 396 12 is_stmt 0 view .LVU453
 1693 0102 0124     		movs	r4, #1
 1694 0104 04E0     		b	.L107
 1695              	.L129:
 399:App/Src/waveform_engine.c ****          (unsigned long)activeConfig.sampleRate,
 1696              		.loc 1 399 3 discriminator 1 view .LVU454
ARM GAS  C:\Users\hh\AppData\Local\Temp\ccVmJpKZ.s 			page 55


 1697 0106 0E48     		ldr	r0, .L130+32
 1698 0108 E9E7     		b	.L116
 1699              	.LVL125:
 1700              	.L117:
 337:App/Src/waveform_engine.c ****   }
 1701              		.loc 1 337 12 view .LVU455
 1702 010a 0124     		movs	r4, #1
 1703 010c 00E0     		b	.L107
 1704              	.LVL126:
 1705              	.L118:
 347:App/Src/waveform_engine.c ****   }
 1706              		.loc 1 347 12 view .LVU456
 1707 010e 0124     		movs	r4, #1
 1708              	.LVL127:
 1709              	.L107:
 406:App/Src/waveform_engine.c **** 
 1710              		.loc 1 406 1 view .LVU457
 1711 0110 2046     		mov	r0, r4
 1712 0112 0DF6080D 		addw	sp, sp, #2056
 1713              	.LCFI16:
 1714              		.cfi_remember_state
 1715              		.cfi_def_cfa_offset 24
 1716              		@ sp needed
 1717 0116 BDE8F081 		pop	{r4, r5, r6, r7, r8, pc}
 1718              	.LVL128:
 1719              	.L119:
 1720              	.LCFI17:
 1721              		.cfi_restore_state
 362:App/Src/waveform_engine.c ****   }
 1722              		.loc 1 362 12 view .LVU458
 1723 011a 0124     		movs	r4, #1
 1724 011c F8E7     		b	.L107
 1725              	.L131:
 1726 011e 00BF     		.align	2
 1727              	.L130:
 1728 0120 00000000 		.word	engineStatus
 1729 0124 00000000 		.word	activeConfig
 1730 0128 00000000 		.word	totalSamplePoints
 1731 012c 00000000 		.word	currentSamplePoint
 1732 0130 00000000 		.word	txBusy
 1733 0134 00000000 		.word	engineMode
 1734 0138 08000000 		.word	.LC2
 1735 013c 10000000 		.word	.LC3
 1736 0140 00000000 		.word	.LC1
 1737              		.cfi_endproc
 1738              	.LFE164:
 1740              		.section	.text.WaveformEngine_GetStatus,"ax",%progbits
 1741              		.align	1
 1742              		.global	WaveformEngine_GetStatus
 1743              		.syntax unified
 1744              		.thumb
 1745              		.thumb_func
 1747              	WaveformEngine_GetStatus:
 1748              	.LVL129:
 1749              	.LFB166:
 423:App/Src/waveform_engine.c **** 
 424:App/Src/waveform_engine.c **** WaveformEngine_Status WaveformEngine_GetStatus(void)
ARM GAS  C:\Users\hh\AppData\Local\Temp\ccVmJpKZ.s 			page 56


 425:App/Src/waveform_engine.c **** {
 1750              		.loc 1 425 1 is_stmt 1 view -0
 1751              		.cfi_startproc
 1752              		@ args = 0, pretend = 0, frame = 0
 1753              		@ frame_needed = 0, uses_anonymous_args = 0
 1754              		@ link register save eliminated.
 1755              		.loc 1 425 1 is_stmt 0 view .LVU460
 1756 0000 0346     		mov	r3, r0
 426:App/Src/waveform_engine.c ****   return engineStatus;
 1757              		.loc 1 426 3 is_stmt 1 view .LVU461
 1758              		.loc 1 426 10 is_stmt 0 view .LVU462
 1759 0002 034A     		ldr	r2, .L133
 1760 0004 07CA     		ldm	r2, {r0, r1, r2}
 1761              	.LVL130:
 1762              		.loc 1 426 10 view .LVU463
 1763 0006 83E80700 		stm	r3, {r0, r1, r2}
 427:App/Src/waveform_engine.c **** }
 1764              		.loc 1 427 1 view .LVU464
 1765 000a 1846     		mov	r0, r3
 1766 000c 7047     		bx	lr
 1767              	.L134:
 1768 000e 00BF     		.align	2
 1769              	.L133:
 1770 0010 00000000 		.word	engineStatus
 1771              		.cfi_endproc
 1772              	.LFE166:
 1774              		.section	.text.WaveformEngine_TimerElapsed,"ax",%progbits
 1775              		.align	1
 1776              		.global	WaveformEngine_TimerElapsed
 1777              		.syntax unified
 1778              		.thumb
 1779              		.thumb_func
 1781              	WaveformEngine_TimerElapsed:
 1782              	.LFB167:
 428:App/Src/waveform_engine.c **** 
 429:App/Src/waveform_engine.c **** void WaveformEngine_TimerElapsed(void)
 430:App/Src/waveform_engine.c **** {
 1783              		.loc 1 430 1 is_stmt 1 view -0
 1784              		.cfi_startproc
 1785              		@ args = 0, pretend = 0, frame = 0
 1786              		@ frame_needed = 0, uses_anonymous_args = 0
 1787 0000 38B5     		push	{r3, r4, r5, lr}
 1788              	.LCFI18:
 1789              		.cfi_def_cfa_offset 16
 1790              		.cfi_offset 3, -16
 1791              		.cfi_offset 4, -12
 1792              		.cfi_offset 5, -8
 1793              		.cfi_offset 14, -4
 431:App/Src/waveform_engine.c ****   uint32_t frameOffset;
 1794              		.loc 1 431 3 view .LVU466
 432:App/Src/waveform_engine.c **** 
 433:App/Src/waveform_engine.c ****   if ((engineStatus.running == 0U) || (engineMode != WAVEFORM_ENGINE_MODE_IRQ_DMA))
 1795              		.loc 1 433 3 view .LVU467
 1796              		.loc 1 433 20 is_stmt 0 view .LVU468
 1797 0002 1D4B     		ldr	r3, .L141
 1798 0004 1B78     		ldrb	r3, [r3]	@ zero_extendqisi2
 1799              		.loc 1 433 6 view .LVU469
ARM GAS  C:\Users\hh\AppData\Local\Temp\ccVmJpKZ.s 			page 57


 1800 0006 53B1     		cbz	r3, .L135
 1801              		.loc 1 433 51 discriminator 1 view .LVU470
 1802 0008 1C4B     		ldr	r3, .L141+4
 1803 000a 1B78     		ldrb	r3, [r3]	@ zero_extendqisi2
 1804              		.loc 1 433 36 discriminator 1 view .LVU471
 1805 000c 012B     		cmp	r3, #1
 1806 000e 06D1     		bne	.L135
 434:App/Src/waveform_engine.c ****   {
 435:App/Src/waveform_engine.c ****     return;
 436:App/Src/waveform_engine.c ****   }
 437:App/Src/waveform_engine.c **** 
 438:App/Src/waveform_engine.c ****   if (txBusy != 0U)
 1807              		.loc 1 438 3 is_stmt 1 view .LVU472
 1808              		.loc 1 438 14 is_stmt 0 view .LVU473
 1809 0010 1B4B     		ldr	r3, .L141+8
 1810 0012 1B78     		ldrb	r3, [r3]	@ zero_extendqisi2
 1811              		.loc 1 438 6 view .LVU474
 1812 0014 23B1     		cbz	r3, .L137
 439:App/Src/waveform_engine.c ****   {
 440:App/Src/waveform_engine.c ****     engineStatus.errorCount++;
 1813              		.loc 1 440 5 is_stmt 1 view .LVU475
 1814              		.loc 1 440 17 is_stmt 0 view .LVU476
 1815 0016 184A     		ldr	r2, .L141
 1816 0018 9368     		ldr	r3, [r2, #8]
 1817              		.loc 1 440 28 view .LVU477
 1818 001a 0133     		adds	r3, r3, #1
 1819 001c 9360     		str	r3, [r2, #8]
 441:App/Src/waveform_engine.c ****     return;
 1820              		.loc 1 441 5 is_stmt 1 view .LVU478
 1821              	.L135:
 442:App/Src/waveform_engine.c ****   }
 443:App/Src/waveform_engine.c **** 
 444:App/Src/waveform_engine.c ****   frameOffset = currentSamplePoint * activeConfig.channels;
 445:App/Src/waveform_engine.c ****   DAC_CS_LOW();
 446:App/Src/waveform_engine.c **** 
 447:App/Src/waveform_engine.c ****   /* In SPI_DATASIZE_24BIT mode, HAL_SPI_Transmit_DMA Size is a frame count.
 448:App/Src/waveform_engine.c ****      Each frame is stored as one uint32_t word in frameTable. */
 449:App/Src/waveform_engine.c ****   if (HAL_SPI_Transmit_DMA(&hspi1,
 450:App/Src/waveform_engine.c ****                            (uint8_t *)&frameTable[frameOffset],
 451:App/Src/waveform_engine.c ****                            (uint16_t)activeConfig.channels) != HAL_OK)
 452:App/Src/waveform_engine.c ****   {
 453:App/Src/waveform_engine.c ****     DAC_CS_HIGH();
 454:App/Src/waveform_engine.c ****     engineStatus.errorCount++;
 455:App/Src/waveform_engine.c ****     return;
 456:App/Src/waveform_engine.c ****   }
 457:App/Src/waveform_engine.c **** 
 458:App/Src/waveform_engine.c ****   txBusy = 1U;
 459:App/Src/waveform_engine.c ****   currentSamplePoint++;
 460:App/Src/waveform_engine.c ****   if (currentSamplePoint >= totalSamplePoints)
 461:App/Src/waveform_engine.c ****   {
 462:App/Src/waveform_engine.c ****     currentSamplePoint = 0U;
 463:App/Src/waveform_engine.c ****   }
 464:App/Src/waveform_engine.c **** }
 1822              		.loc 1 464 1 is_stmt 0 view .LVU479
 1823 001e 38BD     		pop	{r3, r4, r5, pc}
 1824              	.L137:
 444:App/Src/waveform_engine.c ****   DAC_CS_LOW();
ARM GAS  C:\Users\hh\AppData\Local\Temp\ccVmJpKZ.s 			page 58


 1825              		.loc 1 444 3 is_stmt 1 view .LVU480
 444:App/Src/waveform_engine.c ****   DAC_CS_LOW();
 1826              		.loc 1 444 50 is_stmt 0 view .LVU481
 1827 0020 184C     		ldr	r4, .L141+12
 1828 0022 6178     		ldrb	r1, [r4, #1]	@ zero_extendqisi2
 444:App/Src/waveform_engine.c ****   DAC_CS_LOW();
 1829              		.loc 1 444 36 view .LVU482
 1830 0024 184B     		ldr	r3, .L141+16
 1831 0026 1B68     		ldr	r3, [r3]
 444:App/Src/waveform_engine.c ****   DAC_CS_LOW();
 1832              		.loc 1 444 15 view .LVU483
 1833 0028 03FB01F3 		mul	r3, r3, r1
 1834 002c 1D46     		mov	r5, r3
 1835              	.LVL131:
 445:App/Src/waveform_engine.c **** 
 1836              		.loc 1 445 3 is_stmt 1 view .LVU484
 1837 002e 0022     		movs	r2, #0
 1838 0030 1021     		movs	r1, #16
 1839 0032 1648     		ldr	r0, .L141+20
 1840 0034 FFF7FEFF 		bl	HAL_GPIO_WritePin
 1841              	.LVL132:
 449:App/Src/waveform_engine.c ****                            (uint8_t *)&frameTable[frameOffset],
 1842              		.loc 1 449 3 view .LVU485
 450:App/Src/waveform_engine.c ****                            (uint16_t)activeConfig.channels) != HAL_OK)
 1843              		.loc 1 450 50 is_stmt 0 view .LVU486
 1844 0038 A900     		lsls	r1, r5, #2
 449:App/Src/waveform_engine.c ****                            (uint8_t *)&frameTable[frameOffset],
 1845              		.loc 1 449 7 view .LVU487
 1846 003a 6278     		ldrb	r2, [r4, #1]	@ zero_extendqisi2
 1847 003c 01F1C041 		add	r1, r1, #1610612736
 1848 0040 1348     		ldr	r0, .L141+24
 1849 0042 FFF7FEFF 		bl	HAL_SPI_Transmit_DMA
 1850              	.LVL133:
 449:App/Src/waveform_engine.c ****                            (uint8_t *)&frameTable[frameOffset],
 1851              		.loc 1 449 6 discriminator 1 view .LVU488
 1852 0046 68B9     		cbnz	r0, .L140
 458:App/Src/waveform_engine.c ****   currentSamplePoint++;
 1853              		.loc 1 458 3 is_stmt 1 view .LVU489
 458:App/Src/waveform_engine.c ****   currentSamplePoint++;
 1854              		.loc 1 458 10 is_stmt 0 view .LVU490
 1855 0048 0D4B     		ldr	r3, .L141+8
 1856 004a 0122     		movs	r2, #1
 1857 004c 1A70     		strb	r2, [r3]
 459:App/Src/waveform_engine.c ****   if (currentSamplePoint >= totalSamplePoints)
 1858              		.loc 1 459 3 is_stmt 1 view .LVU491
 459:App/Src/waveform_engine.c ****   if (currentSamplePoint >= totalSamplePoints)
 1859              		.loc 1 459 21 is_stmt 0 view .LVU492
 1860 004e 0E4A     		ldr	r2, .L141+16
 1861 0050 1368     		ldr	r3, [r2]
 1862 0052 0133     		adds	r3, r3, #1
 1863 0054 1360     		str	r3, [r2]
 460:App/Src/waveform_engine.c ****   {
 1864              		.loc 1 460 3 is_stmt 1 view .LVU493
 460:App/Src/waveform_engine.c ****   {
 1865              		.loc 1 460 26 is_stmt 0 view .LVU494
 1866 0056 0F4A     		ldr	r2, .L141+28
 1867 0058 1268     		ldr	r2, [r2]
ARM GAS  C:\Users\hh\AppData\Local\Temp\ccVmJpKZ.s 			page 59


 460:App/Src/waveform_engine.c ****   {
 1868              		.loc 1 460 6 view .LVU495
 1869 005a 9342     		cmp	r3, r2
 1870 005c DFD3     		bcc	.L135
 462:App/Src/waveform_engine.c ****   }
 1871              		.loc 1 462 5 is_stmt 1 view .LVU496
 462:App/Src/waveform_engine.c ****   }
 1872              		.loc 1 462 24 is_stmt 0 view .LVU497
 1873 005e 0A4B     		ldr	r3, .L141+16
 1874 0060 1860     		str	r0, [r3]
 1875 0062 DCE7     		b	.L135
 1876              	.L140:
 453:App/Src/waveform_engine.c ****     engineStatus.errorCount++;
 1877              		.loc 1 453 5 is_stmt 1 view .LVU498
 1878 0064 0122     		movs	r2, #1
 1879 0066 1021     		movs	r1, #16
 1880 0068 0848     		ldr	r0, .L141+20
 1881 006a FFF7FEFF 		bl	HAL_GPIO_WritePin
 1882              	.LVL134:
 454:App/Src/waveform_engine.c ****     return;
 1883              		.loc 1 454 5 view .LVU499
 454:App/Src/waveform_engine.c ****     return;
 1884              		.loc 1 454 17 is_stmt 0 view .LVU500
 1885 006e 024A     		ldr	r2, .L141
 1886 0070 9368     		ldr	r3, [r2, #8]
 454:App/Src/waveform_engine.c ****     return;
 1887              		.loc 1 454 28 view .LVU501
 1888 0072 0133     		adds	r3, r3, #1
 1889 0074 9360     		str	r3, [r2, #8]
 455:App/Src/waveform_engine.c ****   }
 1890              		.loc 1 455 5 is_stmt 1 view .LVU502
 1891 0076 D2E7     		b	.L135
 1892              	.L142:
 1893              		.align	2
 1894              	.L141:
 1895 0078 00000000 		.word	engineStatus
 1896 007c 00000000 		.word	engineMode
 1897 0080 00000000 		.word	txBusy
 1898 0084 00000000 		.word	activeConfig
 1899 0088 00000000 		.word	currentSamplePoint
 1900 008c 00000258 		.word	1476526080
 1901 0090 00000000 		.word	hspi1
 1902 0094 00000000 		.word	totalSamplePoints
 1903              		.cfi_endproc
 1904              	.LFE167:
 1906              		.section	.text.WaveformEngine_DmaHalfComplete,"ax",%progbits
 1907              		.align	1
 1908              		.global	WaveformEngine_DmaHalfComplete
 1909              		.syntax unified
 1910              		.thumb
 1911              		.thumb_func
 1913              	WaveformEngine_DmaHalfComplete:
 1914              	.LFB168:
 465:App/Src/waveform_engine.c **** 
 466:App/Src/waveform_engine.c **** void WaveformEngine_DmaHalfComplete(void)
 467:App/Src/waveform_engine.c **** {
 1915              		.loc 1 467 1 view -0
ARM GAS  C:\Users\hh\AppData\Local\Temp\ccVmJpKZ.s 			page 60


 1916              		.cfi_startproc
 1917              		@ args = 0, pretend = 0, frame = 0
 1918              		@ frame_needed = 0, uses_anonymous_args = 0
 1919              		@ link register save eliminated.
 468:App/Src/waveform_engine.c ****   engineStatus.bufferIndex = 1U;
 1920              		.loc 1 468 3 view .LVU504
 1921              		.loc 1 468 28 is_stmt 0 view .LVU505
 1922 0000 014B     		ldr	r3, .L144
 1923 0002 0122     		movs	r2, #1
 1924 0004 5A70     		strb	r2, [r3, #1]
 469:App/Src/waveform_engine.c **** }
 1925              		.loc 1 469 1 view .LVU506
 1926 0006 7047     		bx	lr
 1927              	.L145:
 1928              		.align	2
 1929              	.L144:
 1930 0008 00000000 		.word	engineStatus
 1931              		.cfi_endproc
 1932              	.LFE168:
 1934              		.section	.text.WaveformEngine_DmaComplete,"ax",%progbits
 1935              		.align	1
 1936              		.global	WaveformEngine_DmaComplete
 1937              		.syntax unified
 1938              		.thumb
 1939              		.thumb_func
 1941              	WaveformEngine_DmaComplete:
 1942              	.LFB169:
 470:App/Src/waveform_engine.c **** 
 471:App/Src/waveform_engine.c **** void WaveformEngine_DmaComplete(void)
 472:App/Src/waveform_engine.c **** {
 1943              		.loc 1 472 1 is_stmt 1 view -0
 1944              		.cfi_startproc
 1945              		@ args = 0, pretend = 0, frame = 0
 1946              		@ frame_needed = 0, uses_anonymous_args = 0
 1947              		@ link register save eliminated.
 473:App/Src/waveform_engine.c ****   engineStatus.bufferIndex = 0U;
 1948              		.loc 1 473 3 view .LVU508
 1949              		.loc 1 473 28 is_stmt 0 view .LVU509
 1950 0000 014B     		ldr	r3, .L147
 1951 0002 0022     		movs	r2, #0
 1952 0004 5A70     		strb	r2, [r3, #1]
 474:App/Src/waveform_engine.c **** }
 1953              		.loc 1 474 1 view .LVU510
 1954 0006 7047     		bx	lr
 1955              	.L148:
 1956              		.align	2
 1957              	.L147:
 1958 0008 00000000 		.word	engineStatus
 1959              		.cfi_endproc
 1960              	.LFE169:
 1962              		.section	.text.WaveformEngine_DmaError,"ax",%progbits
 1963              		.align	1
 1964              		.global	WaveformEngine_DmaError
 1965              		.syntax unified
 1966              		.thumb
 1967              		.thumb_func
 1969              	WaveformEngine_DmaError:
ARM GAS  C:\Users\hh\AppData\Local\Temp\ccVmJpKZ.s 			page 61


 1970              	.LFB170:
 475:App/Src/waveform_engine.c **** 
 476:App/Src/waveform_engine.c **** void WaveformEngine_DmaError(void)
 477:App/Src/waveform_engine.c **** {
 1971              		.loc 1 477 1 is_stmt 1 view -0
 1972              		.cfi_startproc
 1973              		@ args = 0, pretend = 0, frame = 0
 1974              		@ frame_needed = 0, uses_anonymous_args = 0
 1975 0000 10B5     		push	{r4, lr}
 1976              	.LCFI19:
 1977              		.cfi_def_cfa_offset 8
 1978              		.cfi_offset 4, -8
 1979              		.cfi_offset 14, -4
 478:App/Src/waveform_engine.c ****   engineStatus.errorCount++;
 1980              		.loc 1 478 3 view .LVU512
 1981              		.loc 1 478 15 is_stmt 0 view .LVU513
 1982 0002 054C     		ldr	r4, .L151
 1983 0004 A368     		ldr	r3, [r4, #8]
 1984              		.loc 1 478 26 view .LVU514
 1985 0006 0133     		adds	r3, r3, #1
 1986 0008 A360     		str	r3, [r4, #8]
 479:App/Src/waveform_engine.c ****   WaveformEngine_StopHardware();
 1987              		.loc 1 479 3 is_stmt 1 view .LVU515
 1988 000a FFF7FEFF 		bl	WaveformEngine_StopHardware
 1989              	.LVL135:
 480:App/Src/waveform_engine.c ****   activeConfig.active = 0U;
 1990              		.loc 1 480 3 view .LVU516
 1991              		.loc 1 480 23 is_stmt 0 view .LVU517
 1992 000e 0023     		movs	r3, #0
 1993 0010 024A     		ldr	r2, .L151+4
 1994 0012 1370     		strb	r3, [r2]
 481:App/Src/waveform_engine.c ****   engineStatus.running = 0U;
 1995              		.loc 1 481 3 is_stmt 1 view .LVU518
 1996              		.loc 1 481 24 is_stmt 0 view .LVU519
 1997 0014 2370     		strb	r3, [r4]
 482:App/Src/waveform_engine.c **** }
 1998              		.loc 1 482 1 view .LVU520
 1999 0016 10BD     		pop	{r4, pc}
 2000              	.L152:
 2001              		.align	2
 2002              	.L151:
 2003 0018 00000000 		.word	engineStatus
 2004 001c 00000000 		.word	activeConfig
 2005              		.cfi_endproc
 2006              	.LFE170:
 2008              		.section	.text.WaveformEngine_TurboError,"ax",%progbits
 2009              		.align	1
 2010              		.syntax unified
 2011              		.thumb
 2012              		.thumb_func
 2014              	WaveformEngine_TurboError:
 2015              	.LVL136:
 2016              	.LFB158:
 197:App/Src/waveform_engine.c ****   (void)hdma;
 2017              		.loc 1 197 1 is_stmt 1 view -0
 2018              		.cfi_startproc
 2019              		@ args = 0, pretend = 0, frame = 0
ARM GAS  C:\Users\hh\AppData\Local\Temp\ccVmJpKZ.s 			page 62


 2020              		@ frame_needed = 0, uses_anonymous_args = 0
 197:App/Src/waveform_engine.c ****   (void)hdma;
 2021              		.loc 1 197 1 is_stmt 0 view .LVU522
 2022 0000 08B5     		push	{r3, lr}
 2023              	.LCFI20:
 2024              		.cfi_def_cfa_offset 8
 2025              		.cfi_offset 3, -8
 2026              		.cfi_offset 14, -4
 198:App/Src/waveform_engine.c ****   WaveformEngine_DmaError();
 2027              		.loc 1 198 3 is_stmt 1 view .LVU523
 199:App/Src/waveform_engine.c **** }
 2028              		.loc 1 199 3 view .LVU524
 2029 0002 FFF7FEFF 		bl	WaveformEngine_DmaError
 2030              	.LVL137:
 200:App/Src/waveform_engine.c **** 
 2031              		.loc 1 200 1 is_stmt 0 view .LVU525
 2032 0006 08BD     		pop	{r3, pc}
 2033              		.cfi_endproc
 2034              	.LFE158:
 2036              		.section	.text.HAL_SPI_TxCpltCallback,"ax",%progbits
 2037              		.align	1
 2038              		.global	HAL_SPI_TxCpltCallback
 2039              		.syntax unified
 2040              		.thumb
 2041              		.thumb_func
 2043              	HAL_SPI_TxCpltCallback:
 2044              	.LVL138:
 2045              	.LFB171:
 483:App/Src/waveform_engine.c **** 
 484:App/Src/waveform_engine.c **** void HAL_SPI_TxCpltCallback(SPI_HandleTypeDef *hspi)
 485:App/Src/waveform_engine.c **** {
 2046              		.loc 1 485 1 is_stmt 1 view -0
 2047              		.cfi_startproc
 2048              		@ args = 0, pretend = 0, frame = 0
 2049              		@ frame_needed = 0, uses_anonymous_args = 0
 2050              		.loc 1 485 1 is_stmt 0 view .LVU527
 2051 0000 08B5     		push	{r3, lr}
 2052              	.LCFI21:
 2053              		.cfi_def_cfa_offset 8
 2054              		.cfi_offset 3, -8
 2055              		.cfi_offset 14, -4
 486:App/Src/waveform_engine.c ****   if (hspi->Instance != SPI1)
 2056              		.loc 1 486 3 is_stmt 1 view .LVU528
 2057              		.loc 1 486 11 is_stmt 0 view .LVU529
 2058 0002 0268     		ldr	r2, [r0]
 2059              		.loc 1 486 6 view .LVU530
 2060 0004 0D4B     		ldr	r3, .L159
 2061 0006 9A42     		cmp	r2, r3
 2062 0008 00D0     		beq	.L158
 2063              	.LVL139:
 2064              	.L155:
 487:App/Src/waveform_engine.c ****   {
 488:App/Src/waveform_engine.c ****     return;
 489:App/Src/waveform_engine.c ****   }
 490:App/Src/waveform_engine.c **** 
 491:App/Src/waveform_engine.c ****   if ((engineStatus.running != 0U) && (engineMode == WAVEFORM_ENGINE_MODE_IRQ_DMA))
 492:App/Src/waveform_engine.c ****   {
ARM GAS  C:\Users\hh\AppData\Local\Temp\ccVmJpKZ.s 			page 63


 493:App/Src/waveform_engine.c ****     DAC_CS_HIGH();
 494:App/Src/waveform_engine.c ****     WaveformEngine_PulseLdacFast();
 495:App/Src/waveform_engine.c ****     txBusy = 0U;
 496:App/Src/waveform_engine.c ****     engineStatus.sampleCount++;
 497:App/Src/waveform_engine.c ****   }
 498:App/Src/waveform_engine.c **** }
 2065              		.loc 1 498 1 view .LVU531
 2066 000a 08BD     		pop	{r3, pc}
 2067              	.LVL140:
 2068              	.L158:
 491:App/Src/waveform_engine.c ****   {
 2069              		.loc 1 491 3 is_stmt 1 view .LVU532
 491:App/Src/waveform_engine.c ****   {
 2070              		.loc 1 491 20 is_stmt 0 view .LVU533
 2071 000c 0C4B     		ldr	r3, .L159+4
 2072 000e 1B78     		ldrb	r3, [r3]	@ zero_extendqisi2
 491:App/Src/waveform_engine.c ****   {
 2073              		.loc 1 491 6 view .LVU534
 2074 0010 002B     		cmp	r3, #0
 2075 0012 FAD0     		beq	.L155
 491:App/Src/waveform_engine.c ****   {
 2076              		.loc 1 491 51 discriminator 1 view .LVU535
 2077 0014 0B4B     		ldr	r3, .L159+8
 2078 0016 1B78     		ldrb	r3, [r3]	@ zero_extendqisi2
 491:App/Src/waveform_engine.c ****   {
 2079              		.loc 1 491 36 discriminator 1 view .LVU536
 2080 0018 012B     		cmp	r3, #1
 2081 001a F6D1     		bne	.L155
 493:App/Src/waveform_engine.c ****     WaveformEngine_PulseLdacFast();
 2082              		.loc 1 493 5 is_stmt 1 view .LVU537
 2083 001c 0122     		movs	r2, #1
 2084 001e 1021     		movs	r1, #16
 2085 0020 0948     		ldr	r0, .L159+12
 2086              	.LVL141:
 493:App/Src/waveform_engine.c ****     WaveformEngine_PulseLdacFast();
 2087              		.loc 1 493 5 is_stmt 0 view .LVU538
 2088 0022 FFF7FEFF 		bl	HAL_GPIO_WritePin
 2089              	.LVL142:
 494:App/Src/waveform_engine.c ****     txBusy = 0U;
 2090              		.loc 1 494 5 is_stmt 1 view .LVU539
 2091 0026 FFF7FEFF 		bl	WaveformEngine_PulseLdacFast
 2092              	.LVL143:
 495:App/Src/waveform_engine.c ****     engineStatus.sampleCount++;
 2093              		.loc 1 495 5 view .LVU540
 495:App/Src/waveform_engine.c ****     engineStatus.sampleCount++;
 2094              		.loc 1 495 12 is_stmt 0 view .LVU541
 2095 002a 084B     		ldr	r3, .L159+16
 2096 002c 0022     		movs	r2, #0
 2097 002e 1A70     		strb	r2, [r3]
 496:App/Src/waveform_engine.c ****   }
 2098              		.loc 1 496 5 is_stmt 1 view .LVU542
 496:App/Src/waveform_engine.c ****   }
 2099              		.loc 1 496 17 is_stmt 0 view .LVU543
 2100 0030 034A     		ldr	r2, .L159+4
 2101 0032 5368     		ldr	r3, [r2, #4]
 496:App/Src/waveform_engine.c ****   }
 2102              		.loc 1 496 29 view .LVU544
ARM GAS  C:\Users\hh\AppData\Local\Temp\ccVmJpKZ.s 			page 64


 2103 0034 0133     		adds	r3, r3, #1
 2104 0036 5360     		str	r3, [r2, #4]
 2105 0038 E7E7     		b	.L155
 2106              	.L160:
 2107 003a 00BF     		.align	2
 2108              	.L159:
 2109 003c 00300140 		.word	1073819648
 2110 0040 00000000 		.word	engineStatus
 2111 0044 00000000 		.word	engineMode
 2112 0048 00000258 		.word	1476526080
 2113 004c 00000000 		.word	txBusy
 2114              		.cfi_endproc
 2115              	.LFE171:
 2117              		.section	.text.HAL_SPI_ErrorCallback,"ax",%progbits
 2118              		.align	1
 2119              		.global	HAL_SPI_ErrorCallback
 2120              		.syntax unified
 2121              		.thumb
 2122              		.thumb_func
 2124              	HAL_SPI_ErrorCallback:
 2125              	.LVL144:
 2126              	.LFB172:
 499:App/Src/waveform_engine.c **** 
 500:App/Src/waveform_engine.c **** void HAL_SPI_ErrorCallback(SPI_HandleTypeDef *hspi)
 501:App/Src/waveform_engine.c **** {
 2127              		.loc 1 501 1 is_stmt 1 view -0
 2128              		.cfi_startproc
 2129              		@ args = 0, pretend = 0, frame = 0
 2130              		@ frame_needed = 0, uses_anonymous_args = 0
 2131              		.loc 1 501 1 is_stmt 0 view .LVU546
 2132 0000 08B5     		push	{r3, lr}
 2133              	.LCFI22:
 2134              		.cfi_def_cfa_offset 8
 2135              		.cfi_offset 3, -8
 2136              		.cfi_offset 14, -4
 502:App/Src/waveform_engine.c ****   if (hspi->Instance == SPI1)
 2137              		.loc 1 502 3 is_stmt 1 view .LVU547
 2138              		.loc 1 502 11 is_stmt 0 view .LVU548
 2139 0002 0268     		ldr	r2, [r0]
 2140              		.loc 1 502 6 view .LVU549
 2141 0004 034B     		ldr	r3, .L165
 2142 0006 9A42     		cmp	r2, r3
 2143 0008 00D0     		beq	.L164
 2144              	.LVL145:
 2145              	.L161:
 503:App/Src/waveform_engine.c ****   {
 504:App/Src/waveform_engine.c ****     WaveformEngine_DmaError();
 505:App/Src/waveform_engine.c ****   }
 506:App/Src/waveform_engine.c **** }
 2146              		.loc 1 506 1 view .LVU550
 2147 000a 08BD     		pop	{r3, pc}
 2148              	.LVL146:
 2149              	.L164:
 504:App/Src/waveform_engine.c ****   }
 2150              		.loc 1 504 5 is_stmt 1 view .LVU551
 2151 000c FFF7FEFF 		bl	WaveformEngine_DmaError
 2152              	.LVL147:
ARM GAS  C:\Users\hh\AppData\Local\Temp\ccVmJpKZ.s 			page 65


 2153              		.loc 1 506 1 is_stmt 0 view .LVU552
 2154 0010 FBE7     		b	.L161
 2155              	.L166:
 2156 0012 00BF     		.align	2
 2157              	.L165:
 2158 0014 00300140 		.word	1073819648
 2159              		.cfi_endproc
 2160              	.LFE172:
 2162              		.section	.bss.engineMode,"aw",%nobits
 2165              	engineMode:
 2166 0000 00       		.space	1
 2167              		.section	.bss.txBusy,"aw",%nobits
 2170              	txBusy:
 2171 0000 00       		.space	1
 2172              		.section	.bss.currentSamplePoint,"aw",%nobits
 2173              		.align	2
 2176              	currentSamplePoint:
 2177 0000 00000000 		.space	4
 2178              		.section	.bss.totalSamplePoints,"aw",%nobits
 2179              		.align	2
 2182              	totalSamplePoints:
 2183 0000 00000000 		.space	4
 2184              		.section	.bss.activeConfig,"aw",%nobits
 2185              		.align	2
 2188              	activeConfig:
 2189 0000 00000000 		.space	32
 2189      00000000 
 2189      00000000 
 2189      00000000 
 2189      00000000 
 2190              		.section	.bss.engineStatus,"aw",%nobits
 2191              		.align	2
 2194              	engineStatus:
 2195 0000 00000000 		.space	12
 2195      00000000 
 2195      00000000 
 2196              		.text
 2197              	.Letext0:
 2198              		.file 4 "C:/Program Files (x86)/ARM/arm-gnu-toolchain-15.2.rel1-mingw-w64-i686-arm-none-eabi/arm-n
 2199              		.file 5 "C:/Program Files (x86)/ARM/arm-gnu-toolchain-15.2.rel1-mingw-w64-i686-arm-none-eabi/arm-n
 2200              		.file 6 "Drivers/CMSIS/Include/core_cm7.h"
 2201              		.file 7 "Drivers/CMSIS/Device/ST/STM32H7xx/Include/stm32h743xx.h"
 2202              		.file 8 "Drivers/STM32H7xx_HAL_Driver/Inc/stm32h7xx_hal_def.h"
 2203              		.file 9 "Drivers/STM32H7xx_HAL_Driver/Inc/stm32h7xx_hal_gpio.h"
 2204              		.file 10 "Drivers/STM32H7xx_HAL_Driver/Inc/stm32h7xx_hal_dma.h"
 2205              		.file 11 "Drivers/STM32H7xx_HAL_Driver/Inc/stm32h7xx_hal_spi.h"
 2206              		.file 12 "Drivers/STM32H7xx_HAL_Driver/Inc/stm32h7xx_hal_tim.h"
 2207              		.file 13 "App/Inc/waveform_engine.h"
 2208              		.file 14 "Core/Inc/spi.h"
 2209              		.file 15 "Core/Inc/tim.h"
 2210              		.file 16 "BSP/Inc/bsp_dac81416.h"
 2211              		.file 17 "C:/Program Files (x86)/ARM/arm-gnu-toolchain-15.2.rel1-mingw-w64-i686-arm-none-eabi/arm-
 2212              		.file 18 "C:/Program Files (x86)/ARM/arm-gnu-toolchain-15.2.rel1-mingw-w64-i686-arm-none-eabi/arm-
 2213              		.file 19 "App/Inc/voltage_sim.h"
 2214              		.file 20 "Drivers/STM32H7xx_HAL_Driver/Inc/stm32h7xx_hal_rcc.h"
 2215              		.file 21 "App/Inc/waveform_gen.h"
 2216              		.file 22 "C:/Program Files (x86)/ARM/arm-gnu-toolchain-15.2.rel1-mingw-w64-i686-arm-none-eabi/arm-
ARM GAS  C:\Users\hh\AppData\Local\Temp\ccVmJpKZ.s 			page 66


 2217              		.file 23 "<built-in>"
ARM GAS  C:\Users\hh\AppData\Local\Temp\ccVmJpKZ.s 			page 67

